
p2im_drone.elf:     file format elf32-littlearm

Contents of section .isr_vector:
 8000000 00500020 b5520008 31520008 33520008  .P. .R..1R..3R..
 8000010 35520008 37520008 39520008 00000000  5R..7R..9R......
 8000020 00000000 00000000 00000000 3b520008  ............;R..
 8000030 3d520008 00000000 3f520008 41520008  =R......?R..AR..
 8000040 fd520008 fd520008 fd520008 fd520008  .R...R...R...R..
 8000050 fd520008 fd520008 fd520008 fd520008  .R...R...R...R..
 8000060 fd520008 fd520008 fd520008 fd520008  .R...R...R...R..
 8000070 fd520008 fd520008 fd520008 fd520008  .R...R...R...R..
 8000080 fd520008 fd520008 fd520008 fd520008  .R...R...R...R..
 8000090 fd520008 fd520008 fd520008 fd520008  .R...R...R...R..
 80000a0 fd520008 fd520008 fd520008 fd520008  .R...R...R...R..
 80000b0 fd520008 fd520008 fd520008 fd520008  .R...R...R...R..
 80000c0 fd520008 fd520008 fd520008 fd520008  .R...R...R...R..
 80000d0 fd520008 51520008 fd520008 fd520008  .R..QR...R...R..
 80000e0 fd520008 fd520008 fd520008 00000000  .R...R...R......
 80000f0 00000000 00000000 00000000 00000000  ................
 8000100 00000000 00000000 5ff808f1           ........_...    

Disassembly of section .text:

08000110 <__do_global_dtors_aux>:
 8000110:   b510        push    {r4, lr}
 8000112:   4c05        ldr r4, [pc, #20]   ; (8000128 <__do_global_dtors_aux+0x18>)
 8000114:   7823        ldrb    r3, [r4, #0]
 8000116:   b933        cbnz    r3, 8000126 <__do_global_dtors_aux+0x16>
 8000118:   4b04        ldr r3, [pc, #16]   ; (800012c <__do_global_dtors_aux+0x1c>)
 800011a:   b113        cbz r3, 8000122 <__do_global_dtors_aux+0x12>
 800011c:   4804        ldr r0, [pc, #16]   ; (8000130 <__do_global_dtors_aux+0x20>)
 800011e:   f3af 8000   nop.w
 8000122:   2301        movs    r3, #1
 8000124:   7023        strb    r3, [r4, #0]
 8000126:   bd10        pop {r4, pc}
 8000128:   20000228    .word   0x20000228
 800012c:   00000000    .word   0x00000000
 8000130:   08007624    .word   0x08007624

08000134 <frame_dummy>:
 8000134:   b508        push    {r3, lr}
 8000136:   4b03        ldr r3, [pc, #12]   ; (8000144 <frame_dummy+0x10>)
 8000138:   b11b        cbz r3, 8000142 <frame_dummy+0xe>
 800013a:   4903        ldr r1, [pc, #12]   ; (8000148 <frame_dummy+0x14>)
 800013c:   4803        ldr r0, [pc, #12]   ; (800014c <frame_dummy+0x18>)
 800013e:   f3af 8000   nop.w
 8000142:   bd08        pop {r3, pc}
 8000144:   00000000    .word   0x00000000
 8000148:   2000022c    .word   0x2000022c
 800014c:   08007624    .word   0x08007624

08000150 <strlen>:
 8000150:   4603        mov r3, r0
 8000152:   f813 2b01   ldrb.w  r2, [r3], #1
 8000156:   2a00        cmp r2, #0
 8000158:   d1fb        bne.n   8000152 <strlen+0x2>
 800015a:   1a18        subs    r0, r3, r0
 800015c:   3801        subs    r0, #1
 800015e:   4770        bx  lr

08000160 <__aeabi_drsub>:
 8000160:   f081 4100   eor.w   r1, r1, #2147483648 ; 0x80000000
 8000164:   e002        b.n 800016c <__adddf3>
 8000166:   bf00        nop

08000168 <__aeabi_dsub>:
 8000168:   f083 4300   eor.w   r3, r3, #2147483648 ; 0x80000000

0800016c <__adddf3>:
 800016c:   b530        push    {r4, r5, lr}
 800016e:   ea4f 0441   mov.w   r4, r1, lsl #1
 8000172:   ea4f 0543   mov.w   r5, r3, lsl #1
 8000176:   ea94 0f05   teq r4, r5
 800017a:   bf08        it  eq
 800017c:   ea90 0f02   teqeq   r0, r2
 8000180:   bf1f        itttt   ne
 8000182:   ea54 0c00   orrsne.w    ip, r4, r0
 8000186:   ea55 0c02   orrsne.w    ip, r5, r2
 800018a:   ea7f 5c64   mvnsne.w    ip, r4, asr #21
 800018e:   ea7f 5c65   mvnsne.w    ip, r5, asr #21
 8000192:   f000 80e2   beq.w   800035a <__adddf3+0x1ee>
 8000196:   ea4f 5454   mov.w   r4, r4, lsr #21
 800019a:   ebd4 5555   rsbs    r5, r4, r5, lsr #21
 800019e:   bfb8        it  lt
 80001a0:   426d        neglt   r5, r5
 80001a2:   dd0c        ble.n   80001be <__adddf3+0x52>
 80001a4:   442c        add r4, r5
 80001a6:   ea80 0202   eor.w   r2, r0, r2
 80001aa:   ea81 0303   eor.w   r3, r1, r3
 80001ae:   ea82 0000   eor.w   r0, r2, r0
 80001b2:   ea83 0101   eor.w   r1, r3, r1
 80001b6:   ea80 0202   eor.w   r2, r0, r2
 80001ba:   ea81 0303   eor.w   r3, r1, r3
 80001be:   2d36        cmp r5, #54 ; 0x36
 80001c0:   bf88        it  hi
 80001c2:   bd30        pophi   {r4, r5, pc}
 80001c4:   f011 4f00   tst.w   r1, #2147483648 ; 0x80000000
 80001c8:   ea4f 3101   mov.w   r1, r1, lsl #12
 80001cc:   f44f 1c80   mov.w   ip, #1048576    ; 0x100000
 80001d0:   ea4c 3111   orr.w   r1, ip, r1, lsr #12
 80001d4:   d002        beq.n   80001dc <__adddf3+0x70>
 80001d6:   4240        negs    r0, r0
 80001d8:   eb61 0141   sbc.w   r1, r1, r1, lsl #1
 80001dc:   f013 4f00   tst.w   r3, #2147483648 ; 0x80000000
 80001e0:   ea4f 3303   mov.w   r3, r3, lsl #12
 80001e4:   ea4c 3313   orr.w   r3, ip, r3, lsr #12
 80001e8:   d002        beq.n   80001f0 <__adddf3+0x84>
 80001ea:   4252        negs    r2, r2
 80001ec:   eb63 0343   sbc.w   r3, r3, r3, lsl #1
 80001f0:   ea94 0f05   teq r4, r5
 80001f4:   f000 80a7   beq.w   8000346 <__adddf3+0x1da>
 80001f8:   f1a4 0401   sub.w   r4, r4, #1
 80001fc:   f1d5 0e20   rsbs    lr, r5, #32
 8000200:   db0d        blt.n   800021e <__adddf3+0xb2>
 8000202:   fa02 fc0e   lsl.w   ip, r2, lr
 8000206:   fa22 f205   lsr.w   r2, r2, r5
 800020a:   1880        adds    r0, r0, r2
 800020c:   f141 0100   adc.w   r1, r1, #0
 8000210:   fa03 f20e   lsl.w   r2, r3, lr
 8000214:   1880        adds    r0, r0, r2
 8000216:   fa43 f305   asr.w   r3, r3, r5
 800021a:   4159        adcs    r1, r3
 800021c:   e00e        b.n 800023c <__adddf3+0xd0>
 800021e:   f1a5 0520   sub.w   r5, r5, #32
 8000222:   f10e 0e20   add.w   lr, lr, #32
 8000226:   2a01        cmp r2, #1
 8000228:   fa03 fc0e   lsl.w   ip, r3, lr
 800022c:   bf28        it  cs
 800022e:   f04c 0c02   orrcs.w ip, ip, #2
 8000232:   fa43 f305   asr.w   r3, r3, r5
 8000236:   18c0        adds    r0, r0, r3
 8000238:   eb51 71e3   adcs.w  r1, r1, r3, asr #31
 800023c:   f001 4500   and.w   r5, r1, #2147483648 ; 0x80000000
 8000240:   d507        bpl.n   8000252 <__adddf3+0xe6>
 8000242:   f04f 0e00   mov.w   lr, #0
 8000246:   f1dc 0c00   rsbs    ip, ip, #0
 800024a:   eb7e 0000   sbcs.w  r0, lr, r0
 800024e:   eb6e 0101   sbc.w   r1, lr, r1
 8000252:   f5b1 1f80   cmp.w   r1, #1048576    ; 0x100000
 8000256:   d31b        bcc.n   8000290 <__adddf3+0x124>
 8000258:   f5b1 1f00   cmp.w   r1, #2097152    ; 0x200000
 800025c:   d30c        bcc.n   8000278 <__adddf3+0x10c>
 800025e:   0849        lsrs    r1, r1, #1
 8000260:   ea5f 0030   movs.w  r0, r0, rrx
 8000264:   ea4f 0c3c   mov.w   ip, ip, rrx
 8000268:   f104 0401   add.w   r4, r4, #1
 800026c:   ea4f 5244   mov.w   r2, r4, lsl #21
 8000270:   f512 0f80   cmn.w   r2, #4194304    ; 0x400000
 8000274:   f080 809a   bcs.w   80003ac <__adddf3+0x240>
 8000278:   f1bc 4f00   cmp.w   ip, #2147483648 ; 0x80000000
 800027c:   bf08        it  eq
 800027e:   ea5f 0c50   movseq.w    ip, r0, lsr #1
 8000282:   f150 0000   adcs.w  r0, r0, #0
 8000286:   eb41 5104   adc.w   r1, r1, r4, lsl #20
 800028a:   ea41 0105   orr.w   r1, r1, r5
 800028e:   bd30        pop {r4, r5, pc}
 8000290:   ea5f 0c4c   movs.w  ip, ip, lsl #1
 8000294:   4140        adcs    r0, r0
 8000296:   eb41 0101   adc.w   r1, r1, r1
 800029a:   f411 1f80   tst.w   r1, #1048576    ; 0x100000
 800029e:   f1a4 0401   sub.w   r4, r4, #1
 80002a2:   d1e9        bne.n   8000278 <__adddf3+0x10c>
 80002a4:   f091 0f00   teq r1, #0
 80002a8:   bf04        itt eq
 80002aa:   4601        moveq   r1, r0
 80002ac:   2000        moveq   r0, #0
 80002ae:   fab1 f381   clz r3, r1
 80002b2:   bf08        it  eq
 80002b4:   3320        addeq   r3, #32
 80002b6:   f1a3 030b   sub.w   r3, r3, #11
 80002ba:   f1b3 0220   subs.w  r2, r3, #32
 80002be:   da0c        bge.n   80002da <__adddf3+0x16e>
 80002c0:   320c        adds    r2, #12
 80002c2:   dd08        ble.n   80002d6 <__adddf3+0x16a>
 80002c4:   f102 0c14   add.w   ip, r2, #20
 80002c8:   f1c2 020c   rsb r2, r2, #12
 80002cc:   fa01 f00c   lsl.w   r0, r1, ip
 80002d0:   fa21 f102   lsr.w   r1, r1, r2
 80002d4:   e00c        b.n 80002f0 <__adddf3+0x184>
 80002d6:   f102 0214   add.w   r2, r2, #20
 80002da:   bfd8        it  le
 80002dc:   f1c2 0c20   rsble   ip, r2, #32
 80002e0:   fa01 f102   lsl.w   r1, r1, r2
 80002e4:   fa20 fc0c   lsr.w   ip, r0, ip
 80002e8:   bfdc        itt le
 80002ea:   ea41 010c   orrle.w r1, r1, ip
 80002ee:   4090        lslle   r0, r2
 80002f0:   1ae4        subs    r4, r4, r3
 80002f2:   bfa2        ittt    ge
 80002f4:   eb01 5104   addge.w r1, r1, r4, lsl #20
 80002f8:   4329        orrge   r1, r5
 80002fa:   bd30        popge   {r4, r5, pc}
 80002fc:   ea6f 0404   mvn.w   r4, r4
 8000300:   3c1f        subs    r4, #31
 8000302:   da1c        bge.n   800033e <__adddf3+0x1d2>
 8000304:   340c        adds    r4, #12
 8000306:   dc0e        bgt.n   8000326 <__adddf3+0x1ba>
 8000308:   f104 0414   add.w   r4, r4, #20
 800030c:   f1c4 0220   rsb r2, r4, #32
 8000310:   fa20 f004   lsr.w   r0, r0, r4
 8000314:   fa01 f302   lsl.w   r3, r1, r2
 8000318:   ea40 0003   orr.w   r0, r0, r3
 800031c:   fa21 f304   lsr.w   r3, r1, r4
 8000320:   ea45 0103   orr.w   r1, r5, r3
 8000324:   bd30        pop {r4, r5, pc}
 8000326:   f1c4 040c   rsb r4, r4, #12
 800032a:   f1c4 0220   rsb r2, r4, #32
 800032e:   fa20 f002   lsr.w   r0, r0, r2
 8000332:   fa01 f304   lsl.w   r3, r1, r4
 8000336:   ea40 0003   orr.w   r0, r0, r3
 800033a:   4629        mov r1, r5
 800033c:   bd30        pop {r4, r5, pc}
 800033e:   fa21 f004   lsr.w   r0, r1, r4
 8000342:   4629        mov r1, r5
 8000344:   bd30        pop {r4, r5, pc}
 8000346:   f094 0f00   teq r4, #0
 800034a:   f483 1380   eor.w   r3, r3, #1048576    ; 0x100000
 800034e:   bf06        itte    eq
 8000350:   f481 1180   eoreq.w r1, r1, #1048576    ; 0x100000
 8000354:   3401        addeq   r4, #1
 8000356:   3d01        subne   r5, #1
 8000358:   e74e        b.n 80001f8 <__adddf3+0x8c>
 800035a:   ea7f 5c64   mvns.w  ip, r4, asr #21
 800035e:   bf18        it  ne
 8000360:   ea7f 5c65   mvnsne.w    ip, r5, asr #21
 8000364:   d029        beq.n   80003ba <__adddf3+0x24e>
 8000366:   ea94 0f05   teq r4, r5
 800036a:   bf08        it  eq
 800036c:   ea90 0f02   teqeq   r0, r2
 8000370:   d005        beq.n   800037e <__adddf3+0x212>
 8000372:   ea54 0c00   orrs.w  ip, r4, r0
 8000376:   bf04        itt eq
 8000378:   4619        moveq   r1, r3
 800037a:   4610        moveq   r0, r2
 800037c:   bd30        pop {r4, r5, pc}
 800037e:   ea91 0f03   teq r1, r3
 8000382:   bf1e        ittt    ne
 8000384:   2100        movne   r1, #0
 8000386:   2000        movne   r0, #0
 8000388:   bd30        popne   {r4, r5, pc}
 800038a:   ea5f 5c54   movs.w  ip, r4, lsr #21
 800038e:   d105        bne.n   800039c <__adddf3+0x230>
 8000390:   0040        lsls    r0, r0, #1
 8000392:   4149        adcs    r1, r1
 8000394:   bf28        it  cs
 8000396:   f041 4100   orrcs.w r1, r1, #2147483648 ; 0x80000000
 800039a:   bd30        pop {r4, r5, pc}
 800039c:   f514 0480   adds.w  r4, r4, #4194304    ; 0x400000
 80003a0:   bf3c        itt cc
 80003a2:   f501 1180   addcc.w r1, r1, #1048576    ; 0x100000
 80003a6:   bd30        popcc   {r4, r5, pc}
 80003a8:   f001 4500   and.w   r5, r1, #2147483648 ; 0x80000000
 80003ac:   f045 41fe   orr.w   r1, r5, #2130706432 ; 0x7f000000
 80003b0:   f441 0170   orr.w   r1, r1, #15728640   ; 0xf00000
 80003b4:   f04f 0000   mov.w   r0, #0
 80003b8:   bd30        pop {r4, r5, pc}
 80003ba:   ea7f 5c64   mvns.w  ip, r4, asr #21
 80003be:   bf1a        itte    ne
 80003c0:   4619        movne   r1, r3
 80003c2:   4610        movne   r0, r2
 80003c4:   ea7f 5c65   mvnseq.w    ip, r5, asr #21
 80003c8:   bf1c        itt ne
 80003ca:   460b        movne   r3, r1
 80003cc:   4602        movne   r2, r0
 80003ce:   ea50 3401   orrs.w  r4, r0, r1, lsl #12
 80003d2:   bf06        itte    eq
 80003d4:   ea52 3503   orrseq.w    r5, r2, r3, lsl #12
 80003d8:   ea91 0f03   teqeq   r1, r3
 80003dc:   f441 2100   orrne.w r1, r1, #524288 ; 0x80000
 80003e0:   bd30        pop {r4, r5, pc}
 80003e2:   bf00        nop

080003e4 <__aeabi_ui2d>:
 80003e4:   f090 0f00   teq r0, #0
 80003e8:   bf04        itt eq
 80003ea:   2100        moveq   r1, #0
 80003ec:   4770        bxeq    lr
 80003ee:   b530        push    {r4, r5, lr}
 80003f0:   f44f 6480   mov.w   r4, #1024   ; 0x400
 80003f4:   f104 0432   add.w   r4, r4, #50 ; 0x32
 80003f8:   f04f 0500   mov.w   r5, #0
 80003fc:   f04f 0100   mov.w   r1, #0
 8000400:   e750        b.n 80002a4 <__adddf3+0x138>
 8000402:   bf00        nop

08000404 <__aeabi_i2d>:
 8000404:   f090 0f00   teq r0, #0
 8000408:   bf04        itt eq
 800040a:   2100        moveq   r1, #0
 800040c:   4770        bxeq    lr
 800040e:   b530        push    {r4, r5, lr}
 8000410:   f44f 6480   mov.w   r4, #1024   ; 0x400
 8000414:   f104 0432   add.w   r4, r4, #50 ; 0x32
 8000418:   f010 4500   ands.w  r5, r0, #2147483648 ; 0x80000000
 800041c:   bf48        it  mi
 800041e:   4240        negmi   r0, r0
 8000420:   f04f 0100   mov.w   r1, #0
 8000424:   e73e        b.n 80002a4 <__adddf3+0x138>
 8000426:   bf00        nop

08000428 <__aeabi_f2d>:
 8000428:   0042        lsls    r2, r0, #1
 800042a:   ea4f 01e2   mov.w   r1, r2, asr #3
 800042e:   ea4f 0131   mov.w   r1, r1, rrx
 8000432:   ea4f 7002   mov.w   r0, r2, lsl #28
 8000436:   bf1f        itttt   ne
 8000438:   f012 437f   andsne.w    r3, r2, #4278190080 ; 0xff000000
 800043c:   f093 4f7f   teqne   r3, #4278190080 ; 0xff000000
 8000440:   f081 5160   eorne.w r1, r1, #939524096  ; 0x38000000
 8000444:   4770        bxne    lr
 8000446:   f092 0f00   teq r2, #0
 800044a:   bf14        ite ne
 800044c:   f093 4f7f   teqne   r3, #4278190080 ; 0xff000000
 8000450:   4770        bxeq    lr
 8000452:   b530        push    {r4, r5, lr}
 8000454:   f44f 7460   mov.w   r4, #896    ; 0x380
 8000458:   f001 4500   and.w   r5, r1, #2147483648 ; 0x80000000
 800045c:   f021 4100   bic.w   r1, r1, #2147483648 ; 0x80000000
 8000460:   e720        b.n 80002a4 <__adddf3+0x138>
 8000462:   bf00        nop

08000464 <__aeabi_ul2d>:
 8000464:   ea50 0201   orrs.w  r2, r0, r1
 8000468:   bf08        it  eq
 800046a:   4770        bxeq    lr
 800046c:   b530        push    {r4, r5, lr}
 800046e:   f04f 0500   mov.w   r5, #0
 8000472:   e00a        b.n 800048a <__aeabi_l2d+0x16>

08000474 <__aeabi_l2d>:
 8000474:   ea50 0201   orrs.w  r2, r0, r1
 8000478:   bf08        it  eq
 800047a:   4770        bxeq    lr
 800047c:   b530        push    {r4, r5, lr}
 800047e:   f011 4500   ands.w  r5, r1, #2147483648 ; 0x80000000
 8000482:   d502        bpl.n   800048a <__aeabi_l2d+0x16>
 8000484:   4240        negs    r0, r0
 8000486:   eb61 0141   sbc.w   r1, r1, r1, lsl #1
 800048a:   f44f 6480   mov.w   r4, #1024   ; 0x400
 800048e:   f104 0432   add.w   r4, r4, #50 ; 0x32
 8000492:   ea5f 5c91   movs.w  ip, r1, lsr #22
 8000496:   f43f aedc   beq.w   8000252 <__adddf3+0xe6>
 800049a:   f04f 0203   mov.w   r2, #3
 800049e:   ea5f 0cdc   movs.w  ip, ip, lsr #3
 80004a2:   bf18        it  ne
 80004a4:   3203        addne   r2, #3
 80004a6:   ea5f 0cdc   movs.w  ip, ip, lsr #3
 80004aa:   bf18        it  ne
 80004ac:   3203        addne   r2, #3
 80004ae:   eb02 02dc   add.w   r2, r2, ip, lsr #3
 80004b2:   f1c2 0320   rsb r3, r2, #32
 80004b6:   fa00 fc03   lsl.w   ip, r0, r3
 80004ba:   fa20 f002   lsr.w   r0, r0, r2
 80004be:   fa01 fe03   lsl.w   lr, r1, r3
 80004c2:   ea40 000e   orr.w   r0, r0, lr
 80004c6:   fa21 f102   lsr.w   r1, r1, r2
 80004ca:   4414        add r4, r2
 80004cc:   e6c1        b.n 8000252 <__adddf3+0xe6>
 80004ce:   bf00        nop

080004d0 <__aeabi_dmul>:
 80004d0:   b570        push    {r4, r5, r6, lr}
 80004d2:   f04f 0cff   mov.w   ip, #255    ; 0xff
 80004d6:   f44c 6ce0   orr.w   ip, ip, #1792   ; 0x700
 80004da:   ea1c 5411   ands.w  r4, ip, r1, lsr #20
 80004de:   bf1d        ittte   ne
 80004e0:   ea1c 5513   andsne.w    r5, ip, r3, lsr #20
 80004e4:   ea94 0f0c   teqne   r4, ip
 80004e8:   ea95 0f0c   teqne   r5, ip
 80004ec:   f000 f8de   bleq    80006ac <__aeabi_dmul+0x1dc>
 80004f0:   442c        add r4, r5
 80004f2:   ea81 0603   eor.w   r6, r1, r3
 80004f6:   ea21 514c   bic.w   r1, r1, ip, lsl #21
 80004fa:   ea23 534c   bic.w   r3, r3, ip, lsl #21
 80004fe:   ea50 3501   orrs.w  r5, r0, r1, lsl #12
 8000502:   bf18        it  ne
 8000504:   ea52 3503   orrsne.w    r5, r2, r3, lsl #12
 8000508:   f441 1180   orr.w   r1, r1, #1048576    ; 0x100000
 800050c:   f443 1380   orr.w   r3, r3, #1048576    ; 0x100000
 8000510:   d038        beq.n   8000584 <__aeabi_dmul+0xb4>
 8000512:   fba0 ce02   umull   ip, lr, r0, r2
 8000516:   f04f 0500   mov.w   r5, #0
 800051a:   fbe1 e502   umlal   lr, r5, r1, r2
 800051e:   f006 4200   and.w   r2, r6, #2147483648 ; 0x80000000
 8000522:   fbe0 e503   umlal   lr, r5, r0, r3
 8000526:   f04f 0600   mov.w   r6, #0
 800052a:   fbe1 5603   umlal   r5, r6, r1, r3
 800052e:   f09c 0f00   teq ip, #0
 8000532:   bf18        it  ne
 8000534:   f04e 0e01   orrne.w lr, lr, #1
 8000538:   f1a4 04ff   sub.w   r4, r4, #255    ; 0xff
 800053c:   f5b6 7f00   cmp.w   r6, #512    ; 0x200
 8000540:   f564 7440   sbc.w   r4, r4, #768    ; 0x300
 8000544:   d204        bcs.n   8000550 <__aeabi_dmul+0x80>
 8000546:   ea5f 0e4e   movs.w  lr, lr, lsl #1
 800054a:   416d        adcs    r5, r5
 800054c:   eb46 0606   adc.w   r6, r6, r6
 8000550:   ea42 21c6   orr.w   r1, r2, r6, lsl #11
 8000554:   ea41 5155   orr.w   r1, r1, r5, lsr #21
 8000558:   ea4f 20c5   mov.w   r0, r5, lsl #11
 800055c:   ea40 505e   orr.w   r0, r0, lr, lsr #21
 8000560:   ea4f 2ece   mov.w   lr, lr, lsl #11
 8000564:   f1b4 0cfd   subs.w  ip, r4, #253    ; 0xfd
 8000568:   bf88        it  hi
 800056a:   f5bc 6fe0   cmphi.w ip, #1792   ; 0x700
 800056e:   d81e        bhi.n   80005ae <__aeabi_dmul+0xde>
 8000570:   f1be 4f00   cmp.w   lr, #2147483648 ; 0x80000000
 8000574:   bf08        it  eq
 8000576:   ea5f 0e50   movseq.w    lr, r0, lsr #1
 800057a:   f150 0000   adcs.w  r0, r0, #0
 800057e:   eb41 5104   adc.w   r1, r1, r4, lsl #20
 8000582:   bd70        pop {r4, r5, r6, pc}
 8000584:   f006 4600   and.w   r6, r6, #2147483648 ; 0x80000000
 8000588:   ea46 0101   orr.w   r1, r6, r1
 800058c:   ea40 0002   orr.w   r0, r0, r2
 8000590:   ea81 0103   eor.w   r1, r1, r3
 8000594:   ebb4 045c   subs.w  r4, r4, ip, lsr #1
 8000598:   bfc2        ittt    gt
 800059a:   ebd4 050c   rsbsgt  r5, r4, ip
 800059e:   ea41 5104   orrgt.w r1, r1, r4, lsl #20
 80005a2:   bd70        popgt   {r4, r5, r6, pc}
 80005a4:   f441 1180   orr.w   r1, r1, #1048576    ; 0x100000
 80005a8:   f04f 0e00   mov.w   lr, #0
 80005ac:   3c01        subs    r4, #1
 80005ae:   f300 80ab   bgt.w   8000708 <__aeabi_dmul+0x238>
 80005b2:   f114 0f36   cmn.w   r4, #54 ; 0x36
 80005b6:   bfde        ittt    le
 80005b8:   2000        movle   r0, #0
 80005ba:   f001 4100   andle.w r1, r1, #2147483648 ; 0x80000000
 80005be:   bd70        pople   {r4, r5, r6, pc}
 80005c0:   f1c4 0400   rsb r4, r4, #0
 80005c4:   3c20        subs    r4, #32
 80005c6:   da35        bge.n   8000634 <__aeabi_dmul+0x164>
 80005c8:   340c        adds    r4, #12
 80005ca:   dc1b        bgt.n   8000604 <__aeabi_dmul+0x134>
 80005cc:   f104 0414   add.w   r4, r4, #20
 80005d0:   f1c4 0520   rsb r5, r4, #32
 80005d4:   fa00 f305   lsl.w   r3, r0, r5
 80005d8:   fa20 f004   lsr.w   r0, r0, r4
 80005dc:   fa01 f205   lsl.w   r2, r1, r5
 80005e0:   ea40 0002   orr.w   r0, r0, r2
 80005e4:   f001 4200   and.w   r2, r1, #2147483648 ; 0x80000000
 80005e8:   f021 4100   bic.w   r1, r1, #2147483648 ; 0x80000000
 80005ec:   eb10 70d3   adds.w  r0, r0, r3, lsr #31
 80005f0:   fa21 f604   lsr.w   r6, r1, r4
 80005f4:   eb42 0106   adc.w   r1, r2, r6
 80005f8:   ea5e 0e43   orrs.w  lr, lr, r3, lsl #1
 80005fc:   bf08        it  eq
 80005fe:   ea20 70d3   biceq.w r0, r0, r3, lsr #31
 8000602:   bd70        pop {r4, r5, r6, pc}
 8000604:   f1c4 040c   rsb r4, r4, #12
 8000608:   f1c4 0520   rsb r5, r4, #32
 800060c:   fa00 f304   lsl.w   r3, r0, r4
 8000610:   fa20 f005   lsr.w   r0, r0, r5
 8000614:   fa01 f204   lsl.w   r2, r1, r4
 8000618:   ea40 0002   orr.w   r0, r0, r2
 800061c:   f001 4100   and.w   r1, r1, #2147483648 ; 0x80000000
 8000620:   eb10 70d3   adds.w  r0, r0, r3, lsr #31
 8000624:   f141 0100   adc.w   r1, r1, #0
 8000628:   ea5e 0e43   orrs.w  lr, lr, r3, lsl #1
 800062c:   bf08        it  eq
 800062e:   ea20 70d3   biceq.w r0, r0, r3, lsr #31
 8000632:   bd70        pop {r4, r5, r6, pc}
 8000634:   f1c4 0520   rsb r5, r4, #32
 8000638:   fa00 f205   lsl.w   r2, r0, r5
 800063c:   ea4e 0e02   orr.w   lr, lr, r2
 8000640:   fa20 f304   lsr.w   r3, r0, r4
 8000644:   fa01 f205   lsl.w   r2, r1, r5
 8000648:   ea43 0302   orr.w   r3, r3, r2
 800064c:   fa21 f004   lsr.w   r0, r1, r4
 8000650:   f001 4100   and.w   r1, r1, #2147483648 ; 0x80000000
 8000654:   fa21 f204   lsr.w   r2, r1, r4
 8000658:   ea20 0002   bic.w   r0, r0, r2
 800065c:   eb00 70d3   add.w   r0, r0, r3, lsr #31
 8000660:   ea5e 0e43   orrs.w  lr, lr, r3, lsl #1
 8000664:   bf08        it  eq
 8000666:   ea20 70d3   biceq.w r0, r0, r3, lsr #31
 800066a:   bd70        pop {r4, r5, r6, pc}
 800066c:   f094 0f00   teq r4, #0
 8000670:   d10f        bne.n   8000692 <__aeabi_dmul+0x1c2>
 8000672:   f001 4600   and.w   r6, r1, #2147483648 ; 0x80000000
 8000676:   0040        lsls    r0, r0, #1
 8000678:   eb41 0101   adc.w   r1, r1, r1
 800067c:   f411 1f80   tst.w   r1, #1048576    ; 0x100000
 8000680:   bf08        it  eq
 8000682:   3c01        subeq   r4, #1
 8000684:   d0f7        beq.n   8000676 <__aeabi_dmul+0x1a6>
 8000686:   ea41 0106   orr.w   r1, r1, r6
 800068a:   f095 0f00   teq r5, #0
 800068e:   bf18        it  ne
 8000690:   4770        bxne    lr
 8000692:   f003 4600   and.w   r6, r3, #2147483648 ; 0x80000000
 8000696:   0052        lsls    r2, r2, #1
 8000698:   eb43 0303   adc.w   r3, r3, r3
 800069c:   f413 1f80   tst.w   r3, #1048576    ; 0x100000
 80006a0:   bf08        it  eq
 80006a2:   3d01        subeq   r5, #1
 80006a4:   d0f7        beq.n   8000696 <__aeabi_dmul+0x1c6>
 80006a6:   ea43 0306   orr.w   r3, r3, r6
 80006aa:   4770        bx  lr
 80006ac:   ea94 0f0c   teq r4, ip
 80006b0:   ea0c 5513   and.w   r5, ip, r3, lsr #20
 80006b4:   bf18        it  ne
 80006b6:   ea95 0f0c   teqne   r5, ip
 80006ba:   d00c        beq.n   80006d6 <__aeabi_dmul+0x206>
 80006bc:   ea50 0641   orrs.w  r6, r0, r1, lsl #1
 80006c0:   bf18        it  ne
 80006c2:   ea52 0643   orrsne.w    r6, r2, r3, lsl #1
 80006c6:   d1d1        bne.n   800066c <__aeabi_dmul+0x19c>
 80006c8:   ea81 0103   eor.w   r1, r1, r3
 80006cc:   f001 4100   and.w   r1, r1, #2147483648 ; 0x80000000
 80006d0:   f04f 0000   mov.w   r0, #0
 80006d4:   bd70        pop {r4, r5, r6, pc}
 80006d6:   ea50 0641   orrs.w  r6, r0, r1, lsl #1
 80006da:   bf06        itte    eq
 80006dc:   4610        moveq   r0, r2
 80006de:   4619        moveq   r1, r3
 80006e0:   ea52 0643   orrsne.w    r6, r2, r3, lsl #1
 80006e4:   d019        beq.n   800071a <__aeabi_dmul+0x24a>
 80006e6:   ea94 0f0c   teq r4, ip
 80006ea:   d102        bne.n   80006f2 <__aeabi_dmul+0x222>
 80006ec:   ea50 3601   orrs.w  r6, r0, r1, lsl #12
 80006f0:   d113        bne.n   800071a <__aeabi_dmul+0x24a>
 80006f2:   ea95 0f0c   teq r5, ip
 80006f6:   d105        bne.n   8000704 <__aeabi_dmul+0x234>
 80006f8:   ea52 3603   orrs.w  r6, r2, r3, lsl #12
 80006fc:   bf1c        itt ne
 80006fe:   4610        movne   r0, r2
 8000700:   4619        movne   r1, r3
 8000702:   d10a        bne.n   800071a <__aeabi_dmul+0x24a>
 8000704:   ea81 0103   eor.w   r1, r1, r3
 8000708:   f001 4100   and.w   r1, r1, #2147483648 ; 0x80000000
 800070c:   f041 41fe   orr.w   r1, r1, #2130706432 ; 0x7f000000
 8000710:   f441 0170   orr.w   r1, r1, #15728640   ; 0xf00000
 8000714:   f04f 0000   mov.w   r0, #0
 8000718:   bd70        pop {r4, r5, r6, pc}
 800071a:   f041 41fe   orr.w   r1, r1, #2130706432 ; 0x7f000000
 800071e:   f441 0178   orr.w   r1, r1, #16252928   ; 0xf80000
 8000722:   bd70        pop {r4, r5, r6, pc}

08000724 <__aeabi_ddiv>:
 8000724:   b570        push    {r4, r5, r6, lr}
 8000726:   f04f 0cff   mov.w   ip, #255    ; 0xff
 800072a:   f44c 6ce0   orr.w   ip, ip, #1792   ; 0x700
 800072e:   ea1c 5411   ands.w  r4, ip, r1, lsr #20
 8000732:   bf1d        ittte   ne
 8000734:   ea1c 5513   andsne.w    r5, ip, r3, lsr #20
 8000738:   ea94 0f0c   teqne   r4, ip
 800073c:   ea95 0f0c   teqne   r5, ip
 8000740:   f000 f8a7   bleq    8000892 <__aeabi_ddiv+0x16e>
 8000744:   eba4 0405   sub.w   r4, r4, r5
 8000748:   ea81 0e03   eor.w   lr, r1, r3
 800074c:   ea52 3503   orrs.w  r5, r2, r3, lsl #12
 8000750:   ea4f 3101   mov.w   r1, r1, lsl #12
 8000754:   f000 8088   beq.w   8000868 <__aeabi_ddiv+0x144>
 8000758:   ea4f 3303   mov.w   r3, r3, lsl #12
 800075c:   f04f 5580   mov.w   r5, #268435456  ; 0x10000000
 8000760:   ea45 1313   orr.w   r3, r5, r3, lsr #4
 8000764:   ea43 6312   orr.w   r3, r3, r2, lsr #24
 8000768:   ea4f 2202   mov.w   r2, r2, lsl #8
 800076c:   ea45 1511   orr.w   r5, r5, r1, lsr #4
 8000770:   ea45 6510   orr.w   r5, r5, r0, lsr #24
 8000774:   ea4f 2600   mov.w   r6, r0, lsl #8
 8000778:   f00e 4100   and.w   r1, lr, #2147483648 ; 0x80000000
 800077c:   429d        cmp r5, r3
 800077e:   bf08        it  eq
 8000780:   4296        cmpeq   r6, r2
 8000782:   f144 04fd   adc.w   r4, r4, #253    ; 0xfd
 8000786:   f504 7440   add.w   r4, r4, #768    ; 0x300
 800078a:   d202        bcs.n   8000792 <__aeabi_ddiv+0x6e>
 800078c:   085b        lsrs    r3, r3, #1
 800078e:   ea4f 0232   mov.w   r2, r2, rrx
 8000792:   1ab6        subs    r6, r6, r2
 8000794:   eb65 0503   sbc.w   r5, r5, r3
 8000798:   085b        lsrs    r3, r3, #1
 800079a:   ea4f 0232   mov.w   r2, r2, rrx
 800079e:   f44f 1080   mov.w   r0, #1048576    ; 0x100000
 80007a2:   f44f 2c00   mov.w   ip, #524288 ; 0x80000
 80007a6:   ebb6 0e02   subs.w  lr, r6, r2
 80007aa:   eb75 0e03   sbcs.w  lr, r5, r3
 80007ae:   bf22        ittt    cs
 80007b0:   1ab6        subcs   r6, r6, r2
 80007b2:   4675        movcs   r5, lr
 80007b4:   ea40 000c   orrcs.w r0, r0, ip
 80007b8:   085b        lsrs    r3, r3, #1
 80007ba:   ea4f 0232   mov.w   r2, r2, rrx
 80007be:   ebb6 0e02   subs.w  lr, r6, r2
 80007c2:   eb75 0e03   sbcs.w  lr, r5, r3
 80007c6:   bf22        ittt    cs
 80007c8:   1ab6        subcs   r6, r6, r2
 80007ca:   4675        movcs   r5, lr
 80007cc:   ea40 005c   orrcs.w r0, r0, ip, lsr #1
 80007d0:   085b        lsrs    r3, r3, #1
 80007d2:   ea4f 0232   mov.w   r2, r2, rrx
 80007d6:   ebb6 0e02   subs.w  lr, r6, r2
 80007da:   eb75 0e03   sbcs.w  lr, r5, r3
 80007de:   bf22        ittt    cs
 80007e0:   1ab6        subcs   r6, r6, r2
 80007e2:   4675        movcs   r5, lr
 80007e4:   ea40 009c   orrcs.w r0, r0, ip, lsr #2
 80007e8:   085b        lsrs    r3, r3, #1
 80007ea:   ea4f 0232   mov.w   r2, r2, rrx
 80007ee:   ebb6 0e02   subs.w  lr, r6, r2
 80007f2:   eb75 0e03   sbcs.w  lr, r5, r3
 80007f6:   bf22        ittt    cs
 80007f8:   1ab6        subcs   r6, r6, r2
 80007fa:   4675        movcs   r5, lr
 80007fc:   ea40 00dc   orrcs.w r0, r0, ip, lsr #3
 8000800:   ea55 0e06   orrs.w  lr, r5, r6
 8000804:   d018        beq.n   8000838 <__aeabi_ddiv+0x114>
 8000806:   ea4f 1505   mov.w   r5, r5, lsl #4
 800080a:   ea45 7516   orr.w   r5, r5, r6, lsr #28
 800080e:   ea4f 1606   mov.w   r6, r6, lsl #4
 8000812:   ea4f 03c3   mov.w   r3, r3, lsl #3
 8000816:   ea43 7352   orr.w   r3, r3, r2, lsr #29
 800081a:   ea4f 02c2   mov.w   r2, r2, lsl #3
 800081e:   ea5f 1c1c   movs.w  ip, ip, lsr #4
 8000822:   d1c0        bne.n   80007a6 <__aeabi_ddiv+0x82>
 8000824:   f411 1f80   tst.w   r1, #1048576    ; 0x100000
 8000828:   d10b        bne.n   8000842 <__aeabi_ddiv+0x11e>
 800082a:   ea41 0100   orr.w   r1, r1, r0
 800082e:   f04f 0000   mov.w   r0, #0
 8000832:   f04f 4c00   mov.w   ip, #2147483648 ; 0x80000000
 8000836:   e7b6        b.n 80007a6 <__aeabi_ddiv+0x82>
 8000838:   f411 1f80   tst.w   r1, #1048576    ; 0x100000
 800083c:   bf04        itt eq
 800083e:   4301        orreq   r1, r0
 8000840:   2000        moveq   r0, #0
 8000842:   f1b4 0cfd   subs.w  ip, r4, #253    ; 0xfd
 8000846:   bf88        it  hi
 8000848:   f5bc 6fe0   cmphi.w ip, #1792   ; 0x700
 800084c:   f63f aeaf   bhi.w   80005ae <__aeabi_dmul+0xde>
 8000850:   ebb5 0c03   subs.w  ip, r5, r3
 8000854:   bf04        itt eq
 8000856:   ebb6 0c02   subseq.w    ip, r6, r2
 800085a:   ea5f 0c50   movseq.w    ip, r0, lsr #1
 800085e:   f150 0000   adcs.w  r0, r0, #0
 8000862:   eb41 5104   adc.w   r1, r1, r4, lsl #20
 8000866:   bd70        pop {r4, r5, r6, pc}
 8000868:   f00e 4e00   and.w   lr, lr, #2147483648 ; 0x80000000
 800086c:   ea4e 3111   orr.w   r1, lr, r1, lsr #12
 8000870:   eb14 045c   adds.w  r4, r4, ip, lsr #1
 8000874:   bfc2        ittt    gt
 8000876:   ebd4 050c   rsbsgt  r5, r4, ip
 800087a:   ea41 5104   orrgt.w r1, r1, r4, lsl #20
 800087e:   bd70        popgt   {r4, r5, r6, pc}
 8000880:   f441 1180   orr.w   r1, r1, #1048576    ; 0x100000
 8000884:   f04f 0e00   mov.w   lr, #0
 8000888:   3c01        subs    r4, #1
 800088a:   e690        b.n 80005ae <__aeabi_dmul+0xde>
 800088c:   ea45 0e06   orr.w   lr, r5, r6
 8000890:   e68d        b.n 80005ae <__aeabi_dmul+0xde>
 8000892:   ea0c 5513   and.w   r5, ip, r3, lsr #20
 8000896:   ea94 0f0c   teq r4, ip
 800089a:   bf08        it  eq
 800089c:   ea95 0f0c   teqeq   r5, ip
 80008a0:   f43f af3b   beq.w   800071a <__aeabi_dmul+0x24a>
 80008a4:   ea94 0f0c   teq r4, ip
 80008a8:   d10a        bne.n   80008c0 <__aeabi_ddiv+0x19c>
 80008aa:   ea50 3401   orrs.w  r4, r0, r1, lsl #12
 80008ae:   f47f af34   bne.w   800071a <__aeabi_dmul+0x24a>
 80008b2:   ea95 0f0c   teq r5, ip
 80008b6:   f47f af25   bne.w   8000704 <__aeabi_dmul+0x234>
 80008ba:   4610        mov r0, r2
 80008bc:   4619        mov r1, r3
 80008be:   e72c        b.n 800071a <__aeabi_dmul+0x24a>
 80008c0:   ea95 0f0c   teq r5, ip
 80008c4:   d106        bne.n   80008d4 <__aeabi_ddiv+0x1b0>
 80008c6:   ea52 3503   orrs.w  r5, r2, r3, lsl #12
 80008ca:   f43f aefd   beq.w   80006c8 <__aeabi_dmul+0x1f8>
 80008ce:   4610        mov r0, r2
 80008d0:   4619        mov r1, r3
 80008d2:   e722        b.n 800071a <__aeabi_dmul+0x24a>
 80008d4:   ea50 0641   orrs.w  r6, r0, r1, lsl #1
 80008d8:   bf18        it  ne
 80008da:   ea52 0643   orrsne.w    r6, r2, r3, lsl #1
 80008de:   f47f aec5   bne.w   800066c <__aeabi_dmul+0x19c>
 80008e2:   ea50 0441   orrs.w  r4, r0, r1, lsl #1
 80008e6:   f47f af0d   bne.w   8000704 <__aeabi_dmul+0x234>
 80008ea:   ea52 0543   orrs.w  r5, r2, r3, lsl #1
 80008ee:   f47f aeeb   bne.w   80006c8 <__aeabi_dmul+0x1f8>
 80008f2:   e712        b.n 800071a <__aeabi_dmul+0x24a>

080008f4 <__gedf2>:
 80008f4:   f04f 3cff   mov.w   ip, #4294967295 ; 0xffffffff
 80008f8:   e006        b.n 8000908 <__cmpdf2+0x4>
 80008fa:   bf00        nop

080008fc <__ledf2>:
 80008fc:   f04f 0c01   mov.w   ip, #1
 8000900:   e002        b.n 8000908 <__cmpdf2+0x4>
 8000902:   bf00        nop

08000904 <__cmpdf2>:
 8000904:   f04f 0c01   mov.w   ip, #1
 8000908:   f84d cd04   str.w   ip, [sp, #-4]!
 800090c:   ea4f 0c41   mov.w   ip, r1, lsl #1
 8000910:   ea7f 5c6c   mvns.w  ip, ip, asr #21
 8000914:   ea4f 0c43   mov.w   ip, r3, lsl #1
 8000918:   bf18        it  ne
 800091a:   ea7f 5c6c   mvnsne.w    ip, ip, asr #21
 800091e:   d01b        beq.n   8000958 <__cmpdf2+0x54>
 8000920:   b001        add sp, #4
 8000922:   ea50 0c41   orrs.w  ip, r0, r1, lsl #1
 8000926:   bf0c        ite eq
 8000928:   ea52 0c43   orrseq.w    ip, r2, r3, lsl #1
 800092c:   ea91 0f03   teqne   r1, r3
 8000930:   bf02        ittt    eq
 8000932:   ea90 0f02   teqeq   r0, r2
 8000936:   2000        moveq   r0, #0
 8000938:   4770        bxeq    lr
 800093a:   f110 0f00   cmn.w   r0, #0
 800093e:   ea91 0f03   teq r1, r3
 8000942:   bf58        it  pl
 8000944:   4299        cmppl   r1, r3
 8000946:   bf08        it  eq
 8000948:   4290        cmpeq   r0, r2
 800094a:   bf2c        ite cs
 800094c:   17d8        asrcs   r0, r3, #31
 800094e:   ea6f 70e3   mvncc.w r0, r3, asr #31
 8000952:   f040 0001   orr.w   r0, r0, #1
 8000956:   4770        bx  lr
 8000958:   ea4f 0c41   mov.w   ip, r1, lsl #1
 800095c:   ea7f 5c6c   mvns.w  ip, ip, asr #21
 8000960:   d102        bne.n   8000968 <__cmpdf2+0x64>
 8000962:   ea50 3c01   orrs.w  ip, r0, r1, lsl #12
 8000966:   d107        bne.n   8000978 <__cmpdf2+0x74>
 8000968:   ea4f 0c43   mov.w   ip, r3, lsl #1
 800096c:   ea7f 5c6c   mvns.w  ip, ip, asr #21
 8000970:   d1d6        bne.n   8000920 <__cmpdf2+0x1c>
 8000972:   ea52 3c03   orrs.w  ip, r2, r3, lsl #12
 8000976:   d0d3        beq.n   8000920 <__cmpdf2+0x1c>
 8000978:   f85d 0b04   ldr.w   r0, [sp], #4
 800097c:   4770        bx  lr
 800097e:   bf00        nop

08000980 <__aeabi_cdrcmple>:
 8000980:   4684        mov ip, r0
 8000982:   4610        mov r0, r2
 8000984:   4662        mov r2, ip
 8000986:   468c        mov ip, r1
 8000988:   4619        mov r1, r3
 800098a:   4663        mov r3, ip
 800098c:   e000        b.n 8000990 <__aeabi_cdcmpeq>
 800098e:   bf00        nop

08000990 <__aeabi_cdcmpeq>:
 8000990:   b501        push    {r0, lr}
 8000992:   f7ff ffb7   bl  8000904 <__cmpdf2>
 8000996:   2800        cmp r0, #0
 8000998:   bf48        it  mi
 800099a:   f110 0f00   cmnmi.w r0, #0
 800099e:   bd01        pop {r0, pc}

080009a0 <__aeabi_dcmpeq>:
 80009a0:   f84d ed08   str.w   lr, [sp, #-8]!
 80009a4:   f7ff fff4   bl  8000990 <__aeabi_cdcmpeq>
 80009a8:   bf0c        ite eq
 80009aa:   2001        moveq   r0, #1
 80009ac:   2000        movne   r0, #0
 80009ae:   f85d fb08   ldr.w   pc, [sp], #8
 80009b2:   bf00        nop

080009b4 <__aeabi_dcmplt>:
 80009b4:   f84d ed08   str.w   lr, [sp, #-8]!
 80009b8:   f7ff ffea   bl  8000990 <__aeabi_cdcmpeq>
 80009bc:   bf34        ite cc
 80009be:   2001        movcc   r0, #1
 80009c0:   2000        movcs   r0, #0
 80009c2:   f85d fb08   ldr.w   pc, [sp], #8
 80009c6:   bf00        nop

080009c8 <__aeabi_dcmple>:
 80009c8:   f84d ed08   str.w   lr, [sp, #-8]!
 80009cc:   f7ff ffe0   bl  8000990 <__aeabi_cdcmpeq>
 80009d0:   bf94        ite ls
 80009d2:   2001        movls   r0, #1
 80009d4:   2000        movhi   r0, #0
 80009d6:   f85d fb08   ldr.w   pc, [sp], #8
 80009da:   bf00        nop

080009dc <__aeabi_dcmpge>:
 80009dc:   f84d ed08   str.w   lr, [sp, #-8]!
 80009e0:   f7ff ffce   bl  8000980 <__aeabi_cdrcmple>
 80009e4:   bf94        ite ls
 80009e6:   2001        movls   r0, #1
 80009e8:   2000        movhi   r0, #0
 80009ea:   f85d fb08   ldr.w   pc, [sp], #8
 80009ee:   bf00        nop

080009f0 <__aeabi_dcmpgt>:
 80009f0:   f84d ed08   str.w   lr, [sp, #-8]!
 80009f4:   f7ff ffc4   bl  8000980 <__aeabi_cdrcmple>
 80009f8:   bf34        ite cc
 80009fa:   2001        movcc   r0, #1
 80009fc:   2000        movcs   r0, #0
 80009fe:   f85d fb08   ldr.w   pc, [sp], #8
 8000a02:   bf00        nop

08000a04 <__aeabi_dcmpun>:
 8000a04:   ea4f 0c41   mov.w   ip, r1, lsl #1
 8000a08:   ea7f 5c6c   mvns.w  ip, ip, asr #21
 8000a0c:   d102        bne.n   8000a14 <__aeabi_dcmpun+0x10>
 8000a0e:   ea50 3c01   orrs.w  ip, r0, r1, lsl #12
 8000a12:   d10a        bne.n   8000a2a <__aeabi_dcmpun+0x26>
 8000a14:   ea4f 0c43   mov.w   ip, r3, lsl #1
 8000a18:   ea7f 5c6c   mvns.w  ip, ip, asr #21
 8000a1c:   d102        bne.n   8000a24 <__aeabi_dcmpun+0x20>
 8000a1e:   ea52 3c03   orrs.w  ip, r2, r3, lsl #12
 8000a22:   d102        bne.n   8000a2a <__aeabi_dcmpun+0x26>
 8000a24:   f04f 0000   mov.w   r0, #0
 8000a28:   4770        bx  lr
 8000a2a:   f04f 0001   mov.w   r0, #1
 8000a2e:   4770        bx  lr

08000a30 <__aeabi_d2f>:
 8000a30:   ea4f 0241   mov.w   r2, r1, lsl #1
 8000a34:   f1b2 43e0   subs.w  r3, r2, #1879048192 ; 0x70000000
 8000a38:   bf24        itt cs
 8000a3a:   f5b3 1c00   subscs.w    ip, r3, #2097152    ; 0x200000
 8000a3e:   f1dc 5cfe   rsbscs  ip, ip, #532676608  ; 0x1fc00000
 8000a42:   d90d        bls.n   8000a60 <__aeabi_d2f+0x30>
 8000a44:   f001 4c00   and.w   ip, r1, #2147483648 ; 0x80000000
 8000a48:   ea4f 02c0   mov.w   r2, r0, lsl #3
 8000a4c:   ea4c 7050   orr.w   r0, ip, r0, lsr #29
 8000a50:   f1b2 4f00   cmp.w   r2, #2147483648 ; 0x80000000
 8000a54:   eb40 0083   adc.w   r0, r0, r3, lsl #2
 8000a58:   bf08        it  eq
 8000a5a:   f020 0001   biceq.w r0, r0, #1
 8000a5e:   4770        bx  lr
 8000a60:   f011 4f80   tst.w   r1, #1073741824 ; 0x40000000
 8000a64:   d121        bne.n   8000aaa <__aeabi_d2f+0x7a>
 8000a66:   f113 7238   adds.w  r2, r3, #48234496   ; 0x2e00000
 8000a6a:   bfbc        itt lt
 8000a6c:   f001 4000   andlt.w r0, r1, #2147483648 ; 0x80000000
 8000a70:   4770        bxlt    lr
 8000a72:   f441 1180   orr.w   r1, r1, #1048576    ; 0x100000
 8000a76:   ea4f 5252   mov.w   r2, r2, lsr #21
 8000a7a:   f1c2 0218   rsb r2, r2, #24
 8000a7e:   f1c2 0c20   rsb ip, r2, #32
 8000a82:   fa10 f30c   lsls.w  r3, r0, ip
 8000a86:   fa20 f002   lsr.w   r0, r0, r2
 8000a8a:   bf18        it  ne
 8000a8c:   f040 0001   orrne.w r0, r0, #1
 8000a90:   ea4f 23c1   mov.w   r3, r1, lsl #11
 8000a94:   ea4f 23d3   mov.w   r3, r3, lsr #11
 8000a98:   fa03 fc0c   lsl.w   ip, r3, ip
 8000a9c:   ea40 000c   orr.w   r0, r0, ip
 8000aa0:   fa23 f302   lsr.w   r3, r3, r2
 8000aa4:   ea4f 0343   mov.w   r3, r3, lsl #1
 8000aa8:   e7cc        b.n 8000a44 <__aeabi_d2f+0x14>
 8000aaa:   ea7f 5362   mvns.w  r3, r2, asr #21
 8000aae:   d107        bne.n   8000ac0 <__aeabi_d2f+0x90>
 8000ab0:   ea50 3301   orrs.w  r3, r0, r1, lsl #12
 8000ab4:   bf1e        ittt    ne
 8000ab6:   f04f 40fe   movne.w r0, #2130706432 ; 0x7f000000
 8000aba:   f440 0040   orrne.w r0, r0, #12582912   ; 0xc00000
 8000abe:   4770        bxne    lr
 8000ac0:   f001 4000   and.w   r0, r1, #2147483648 ; 0x80000000
 8000ac4:   f040 40fe   orr.w   r0, r0, #2130706432 ; 0x7f000000
 8000ac8:   f440 0000   orr.w   r0, r0, #8388608    ; 0x800000
 8000acc:   4770        bx  lr
 8000ace:   bf00        nop

08000ad0 <__aeabi_frsub>:
 8000ad0:   f080 4000   eor.w   r0, r0, #2147483648 ; 0x80000000
 8000ad4:   e002        b.n 8000adc <__addsf3>
 8000ad6:   bf00        nop

08000ad8 <__aeabi_fsub>:
 8000ad8:   f081 4100   eor.w   r1, r1, #2147483648 ; 0x80000000

08000adc <__addsf3>:
 8000adc:   0042        lsls    r2, r0, #1
 8000ade:   bf1f        itttt   ne
 8000ae0:   ea5f 0341   movsne.w    r3, r1, lsl #1
 8000ae4:   ea92 0f03   teqne   r2, r3
 8000ae8:   ea7f 6c22   mvnsne.w    ip, r2, asr #24
 8000aec:   ea7f 6c23   mvnsne.w    ip, r3, asr #24
 8000af0:   d06a        beq.n   8000bc8 <__addsf3+0xec>
 8000af2:   ea4f 6212   mov.w   r2, r2, lsr #24
 8000af6:   ebd2 6313   rsbs    r3, r2, r3, lsr #24
 8000afa:   bfc1        itttt   gt
 8000afc:   18d2        addgt   r2, r2, r3
 8000afe:   4041        eorgt   r1, r0
 8000b00:   4048        eorgt   r0, r1
 8000b02:   4041        eorgt   r1, r0
 8000b04:   bfb8        it  lt
 8000b06:   425b        neglt   r3, r3
 8000b08:   2b19        cmp r3, #25
 8000b0a:   bf88        it  hi
 8000b0c:   4770        bxhi    lr
 8000b0e:   f010 4f00   tst.w   r0, #2147483648 ; 0x80000000
 8000b12:   f440 0000   orr.w   r0, r0, #8388608    ; 0x800000
 8000b16:   f020 407f   bic.w   r0, r0, #4278190080 ; 0xff000000
 8000b1a:   bf18        it  ne
 8000b1c:   4240        negne   r0, r0
 8000b1e:   f011 4f00   tst.w   r1, #2147483648 ; 0x80000000
 8000b22:   f441 0100   orr.w   r1, r1, #8388608    ; 0x800000
 8000b26:   f021 417f   bic.w   r1, r1, #4278190080 ; 0xff000000
 8000b2a:   bf18        it  ne
 8000b2c:   4249        negne   r1, r1
 8000b2e:   ea92 0f03   teq r2, r3
 8000b32:   d03f        beq.n   8000bb4 <__addsf3+0xd8>
 8000b34:   f1a2 0201   sub.w   r2, r2, #1
 8000b38:   fa41 fc03   asr.w   ip, r1, r3
 8000b3c:   eb10 000c   adds.w  r0, r0, ip
 8000b40:   f1c3 0320   rsb r3, r3, #32
 8000b44:   fa01 f103   lsl.w   r1, r1, r3
 8000b48:   f000 4300   and.w   r3, r0, #2147483648 ; 0x80000000
 8000b4c:   d502        bpl.n   8000b54 <__addsf3+0x78>
 8000b4e:   4249        negs    r1, r1
 8000b50:   eb60 0040   sbc.w   r0, r0, r0, lsl #1
 8000b54:   f5b0 0f00   cmp.w   r0, #8388608    ; 0x800000
 8000b58:   d313        bcc.n   8000b82 <__addsf3+0xa6>
 8000b5a:   f1b0 7f80   cmp.w   r0, #16777216   ; 0x1000000
 8000b5e:   d306        bcc.n   8000b6e <__addsf3+0x92>
 8000b60:   0840        lsrs    r0, r0, #1
 8000b62:   ea4f 0131   mov.w   r1, r1, rrx
 8000b66:   f102 0201   add.w   r2, r2, #1
 8000b6a:   2afe        cmp r2, #254    ; 0xfe
 8000b6c:   d251        bcs.n   8000c12 <__addsf3+0x136>
 8000b6e:   f1b1 4f00   cmp.w   r1, #2147483648 ; 0x80000000
 8000b72:   eb40 50c2   adc.w   r0, r0, r2, lsl #23
 8000b76:   bf08        it  eq
 8000b78:   f020 0001   biceq.w r0, r0, #1
 8000b7c:   ea40 0003   orr.w   r0, r0, r3
 8000b80:   4770        bx  lr
 8000b82:   0049        lsls    r1, r1, #1
 8000b84:   eb40 0000   adc.w   r0, r0, r0
 8000b88:   f410 0f00   tst.w   r0, #8388608    ; 0x800000
 8000b8c:   f1a2 0201   sub.w   r2, r2, #1
 8000b90:   d1ed        bne.n   8000b6e <__addsf3+0x92>
 8000b92:   fab0 fc80   clz ip, r0
 8000b96:   f1ac 0c08   sub.w   ip, ip, #8
 8000b9a:   ebb2 020c   subs.w  r2, r2, ip
 8000b9e:   fa00 f00c   lsl.w   r0, r0, ip
 8000ba2:   bfaa        itet    ge
 8000ba4:   eb00 50c2   addge.w r0, r0, r2, lsl #23
 8000ba8:   4252        neglt   r2, r2
 8000baa:   4318        orrge   r0, r3
 8000bac:   bfbc        itt lt
 8000bae:   40d0        lsrlt   r0, r2
 8000bb0:   4318        orrlt   r0, r3
 8000bb2:   4770        bx  lr
 8000bb4:   f092 0f00   teq r2, #0
 8000bb8:   f481 0100   eor.w   r1, r1, #8388608    ; 0x800000
 8000bbc:   bf06        itte    eq
 8000bbe:   f480 0000   eoreq.w r0, r0, #8388608    ; 0x800000
 8000bc2:   3201        addeq   r2, #1
 8000bc4:   3b01        subne   r3, #1
 8000bc6:   e7b5        b.n 8000b34 <__addsf3+0x58>
 8000bc8:   ea4f 0341   mov.w   r3, r1, lsl #1
 8000bcc:   ea7f 6c22   mvns.w  ip, r2, asr #24
 8000bd0:   bf18        it  ne
 8000bd2:   ea7f 6c23   mvnsne.w    ip, r3, asr #24
 8000bd6:   d021        beq.n   8000c1c <__addsf3+0x140>
 8000bd8:   ea92 0f03   teq r2, r3
 8000bdc:   d004        beq.n   8000be8 <__addsf3+0x10c>
 8000bde:   f092 0f00   teq r2, #0
 8000be2:   bf08        it  eq
 8000be4:   4608        moveq   r0, r1
 8000be6:   4770        bx  lr
 8000be8:   ea90 0f01   teq r0, r1
 8000bec:   bf1c        itt ne
 8000bee:   2000        movne   r0, #0
 8000bf0:   4770        bxne    lr
 8000bf2:   f012 4f7f   tst.w   r2, #4278190080 ; 0xff000000
 8000bf6:   d104        bne.n   8000c02 <__addsf3+0x126>
 8000bf8:   0040        lsls    r0, r0, #1
 8000bfa:   bf28        it  cs
 8000bfc:   f040 4000   orrcs.w r0, r0, #2147483648 ; 0x80000000
 8000c00:   4770        bx  lr
 8000c02:   f112 7200   adds.w  r2, r2, #33554432   ; 0x2000000
 8000c06:   bf3c        itt cc
 8000c08:   f500 0000   addcc.w r0, r0, #8388608    ; 0x800000
 8000c0c:   4770        bxcc    lr
 8000c0e:   f000 4300   and.w   r3, r0, #2147483648 ; 0x80000000
 8000c12:   f043 40fe   orr.w   r0, r3, #2130706432 ; 0x7f000000
 8000c16:   f440 0000   orr.w   r0, r0, #8388608    ; 0x800000
 8000c1a:   4770        bx  lr
 8000c1c:   ea7f 6222   mvns.w  r2, r2, asr #24
 8000c20:   bf16        itet    ne
 8000c22:   4608        movne   r0, r1
 8000c24:   ea7f 6323   mvnseq.w    r3, r3, asr #24
 8000c28:   4601        movne   r1, r0
 8000c2a:   0242        lsls    r2, r0, #9
 8000c2c:   bf06        itte    eq
 8000c2e:   ea5f 2341   movseq.w    r3, r1, lsl #9
 8000c32:   ea90 0f01   teqeq   r0, r1
 8000c36:   f440 0080   orrne.w r0, r0, #4194304    ; 0x400000
 8000c3a:   4770        bx  lr

08000c3c <__aeabi_ui2f>:
 8000c3c:   f04f 0300   mov.w   r3, #0
 8000c40:   e004        b.n 8000c4c <__aeabi_i2f+0x8>
 8000c42:   bf00        nop

08000c44 <__aeabi_i2f>:
 8000c44:   f010 4300   ands.w  r3, r0, #2147483648 ; 0x80000000
 8000c48:   bf48        it  mi
 8000c4a:   4240        negmi   r0, r0
 8000c4c:   ea5f 0c00   movs.w  ip, r0
 8000c50:   bf08        it  eq
 8000c52:   4770        bxeq    lr
 8000c54:   f043 4396   orr.w   r3, r3, #1258291200 ; 0x4b000000
 8000c58:   4601        mov r1, r0
 8000c5a:   f04f 0000   mov.w   r0, #0
 8000c5e:   e01c        b.n 8000c9a <__aeabi_l2f+0x2a>

08000c60 <__aeabi_ul2f>:
 8000c60:   ea50 0201   orrs.w  r2, r0, r1
 8000c64:   bf08        it  eq
 8000c66:   4770        bxeq    lr
 8000c68:   f04f 0300   mov.w   r3, #0
 8000c6c:   e00a        b.n 8000c84 <__aeabi_l2f+0x14>
 8000c6e:   bf00        nop

08000c70 <__aeabi_l2f>:
 8000c70:   ea50 0201   orrs.w  r2, r0, r1
 8000c74:   bf08        it  eq
 8000c76:   4770        bxeq    lr
 8000c78:   f011 4300   ands.w  r3, r1, #2147483648 ; 0x80000000
 8000c7c:   d502        bpl.n   8000c84 <__aeabi_l2f+0x14>
 8000c7e:   4240        negs    r0, r0
 8000c80:   eb61 0141   sbc.w   r1, r1, r1, lsl #1
 8000c84:   ea5f 0c01   movs.w  ip, r1
 8000c88:   bf02        ittt    eq
 8000c8a:   4684        moveq   ip, r0
 8000c8c:   4601        moveq   r1, r0
 8000c8e:   2000        moveq   r0, #0
 8000c90:   f043 43b6   orr.w   r3, r3, #1526726656 ; 0x5b000000
 8000c94:   bf08        it  eq
 8000c96:   f1a3 5380   subeq.w r3, r3, #268435456  ; 0x10000000
 8000c9a:   f5a3 0300   sub.w   r3, r3, #8388608    ; 0x800000
 8000c9e:   fabc f28c   clz r2, ip
 8000ca2:   3a08        subs    r2, #8
 8000ca4:   eba3 53c2   sub.w   r3, r3, r2, lsl #23
 8000ca8:   db10        blt.n   8000ccc <__aeabi_l2f+0x5c>
 8000caa:   fa01 fc02   lsl.w   ip, r1, r2
 8000cae:   4463        add r3, ip
 8000cb0:   fa00 fc02   lsl.w   ip, r0, r2
 8000cb4:   f1c2 0220   rsb r2, r2, #32
 8000cb8:   f1bc 4f00   cmp.w   ip, #2147483648 ; 0x80000000
 8000cbc:   fa20 f202   lsr.w   r2, r0, r2
 8000cc0:   eb43 0002   adc.w   r0, r3, r2
 8000cc4:   bf08        it  eq
 8000cc6:   f020 0001   biceq.w r0, r0, #1
 8000cca:   4770        bx  lr
 8000ccc:   f102 0220   add.w   r2, r2, #32
 8000cd0:   fa01 fc02   lsl.w   ip, r1, r2
 8000cd4:   f1c2 0220   rsb r2, r2, #32
 8000cd8:   ea50 004c   orrs.w  r0, r0, ip, lsl #1
 8000cdc:   fa21 f202   lsr.w   r2, r1, r2
 8000ce0:   eb43 0002   adc.w   r0, r3, r2
 8000ce4:   bf08        it  eq
 8000ce6:   ea20 70dc   biceq.w r0, r0, ip, lsr #31
 8000cea:   4770        bx  lr

08000cec <__aeabi_fmul>:
 8000cec:   f04f 0cff   mov.w   ip, #255    ; 0xff
 8000cf0:   ea1c 52d0   ands.w  r2, ip, r0, lsr #23
 8000cf4:   bf1e        ittt    ne
 8000cf6:   ea1c 53d1   andsne.w    r3, ip, r1, lsr #23
 8000cfa:   ea92 0f0c   teqne   r2, ip
 8000cfe:   ea93 0f0c   teqne   r3, ip
 8000d02:   d06f        beq.n   8000de4 <__aeabi_fmul+0xf8>
 8000d04:   441a        add r2, r3
 8000d06:   ea80 0c01   eor.w   ip, r0, r1
 8000d0a:   0240        lsls    r0, r0, #9
 8000d0c:   bf18        it  ne
 8000d0e:   ea5f 2141   movsne.w    r1, r1, lsl #9
 8000d12:   d01e        beq.n   8000d52 <__aeabi_fmul+0x66>
 8000d14:   f04f 6300   mov.w   r3, #134217728  ; 0x8000000
 8000d18:   ea43 1050   orr.w   r0, r3, r0, lsr #5
 8000d1c:   ea43 1151   orr.w   r1, r3, r1, lsr #5
 8000d20:   fba0 3101   umull   r3, r1, r0, r1
 8000d24:   f00c 4000   and.w   r0, ip, #2147483648 ; 0x80000000
 8000d28:   f5b1 0f00   cmp.w   r1, #8388608    ; 0x800000
 8000d2c:   bf3e        ittt    cc
 8000d2e:   0049        lslcc   r1, r1, #1
 8000d30:   ea41 71d3   orrcc.w r1, r1, r3, lsr #31
 8000d34:   005b        lslcc   r3, r3, #1
 8000d36:   ea40 0001   orr.w   r0, r0, r1
 8000d3a:   f162 027f   sbc.w   r2, r2, #127    ; 0x7f
 8000d3e:   2afd        cmp r2, #253    ; 0xfd
 8000d40:   d81d        bhi.n   8000d7e <__aeabi_fmul+0x92>
 8000d42:   f1b3 4f00   cmp.w   r3, #2147483648 ; 0x80000000
 8000d46:   eb40 50c2   adc.w   r0, r0, r2, lsl #23
 8000d4a:   bf08        it  eq
 8000d4c:   f020 0001   biceq.w r0, r0, #1
 8000d50:   4770        bx  lr
 8000d52:   f090 0f00   teq r0, #0
 8000d56:   f00c 4c00   and.w   ip, ip, #2147483648 ; 0x80000000
 8000d5a:   bf08        it  eq
 8000d5c:   0249        lsleq   r1, r1, #9
 8000d5e:   ea4c 2050   orr.w   r0, ip, r0, lsr #9
 8000d62:   ea40 2051   orr.w   r0, r0, r1, lsr #9
 8000d66:   3a7f        subs    r2, #127    ; 0x7f
 8000d68:   bfc2        ittt    gt
 8000d6a:   f1d2 03ff   rsbsgt  r3, r2, #255    ; 0xff
 8000d6e:   ea40 50c2   orrgt.w r0, r0, r2, lsl #23
 8000d72:   4770        bxgt    lr
 8000d74:   f440 0000   orr.w   r0, r0, #8388608    ; 0x800000
 8000d78:   f04f 0300   mov.w   r3, #0
 8000d7c:   3a01        subs    r2, #1
 8000d7e:   dc5d        bgt.n   8000e3c <__aeabi_fmul+0x150>
 8000d80:   f112 0f19   cmn.w   r2, #25
 8000d84:   bfdc        itt le
 8000d86:   f000 4000   andle.w r0, r0, #2147483648 ; 0x80000000
 8000d8a:   4770        bxle    lr
 8000d8c:   f1c2 0200   rsb r2, r2, #0
 8000d90:   0041        lsls    r1, r0, #1
 8000d92:   fa21 f102   lsr.w   r1, r1, r2
 8000d96:   f1c2 0220   rsb r2, r2, #32
 8000d9a:   fa00 fc02   lsl.w   ip, r0, r2
 8000d9e:   ea5f 0031   movs.w  r0, r1, rrx
 8000da2:   f140 0000   adc.w   r0, r0, #0
 8000da6:   ea53 034c   orrs.w  r3, r3, ip, lsl #1
 8000daa:   bf08        it  eq
 8000dac:   ea20 70dc   biceq.w r0, r0, ip, lsr #31
 8000db0:   4770        bx  lr
 8000db2:   f092 0f00   teq r2, #0
 8000db6:   f000 4c00   and.w   ip, r0, #2147483648 ; 0x80000000
 8000dba:   bf02        ittt    eq
 8000dbc:   0040        lsleq   r0, r0, #1
 8000dbe:   f410 0f00   tsteq.w r0, #8388608    ; 0x800000
 8000dc2:   3a01        subeq   r2, #1
 8000dc4:   d0f9        beq.n   8000dba <__aeabi_fmul+0xce>
 8000dc6:   ea40 000c   orr.w   r0, r0, ip
 8000dca:   f093 0f00   teq r3, #0
 8000dce:   f001 4c00   and.w   ip, r1, #2147483648 ; 0x80000000
 8000dd2:   bf02        ittt    eq
 8000dd4:   0049        lsleq   r1, r1, #1
 8000dd6:   f411 0f00   tsteq.w r1, #8388608    ; 0x800000
 8000dda:   3b01        subeq   r3, #1
 8000ddc:   d0f9        beq.n   8000dd2 <__aeabi_fmul+0xe6>
 8000dde:   ea41 010c   orr.w   r1, r1, ip
 8000de2:   e78f        b.n 8000d04 <__aeabi_fmul+0x18>
 8000de4:   ea0c 53d1   and.w   r3, ip, r1, lsr #23
 8000de8:   ea92 0f0c   teq r2, ip
 8000dec:   bf18        it  ne
 8000dee:   ea93 0f0c   teqne   r3, ip
 8000df2:   d00a        beq.n   8000e0a <__aeabi_fmul+0x11e>
 8000df4:   f030 4c00   bics.w  ip, r0, #2147483648 ; 0x80000000
 8000df8:   bf18        it  ne
 8000dfa:   f031 4c00   bicsne.w    ip, r1, #2147483648 ; 0x80000000
 8000dfe:   d1d8        bne.n   8000db2 <__aeabi_fmul+0xc6>
 8000e00:   ea80 0001   eor.w   r0, r0, r1
 8000e04:   f000 4000   and.w   r0, r0, #2147483648 ; 0x80000000
 8000e08:   4770        bx  lr
 8000e0a:   f090 0f00   teq r0, #0
 8000e0e:   bf17        itett   ne
 8000e10:   f090 4f00   teqne   r0, #2147483648 ; 0x80000000
 8000e14:   4608        moveq   r0, r1
 8000e16:   f091 0f00   teqne   r1, #0
 8000e1a:   f091 4f00   teqne   r1, #2147483648 ; 0x80000000
 8000e1e:   d014        beq.n   8000e4a <__aeabi_fmul+0x15e>
 8000e20:   ea92 0f0c   teq r2, ip
 8000e24:   d101        bne.n   8000e2a <__aeabi_fmul+0x13e>
 8000e26:   0242        lsls    r2, r0, #9
 8000e28:   d10f        bne.n   8000e4a <__aeabi_fmul+0x15e>
 8000e2a:   ea93 0f0c   teq r3, ip
 8000e2e:   d103        bne.n   8000e38 <__aeabi_fmul+0x14c>
 8000e30:   024b        lsls    r3, r1, #9
 8000e32:   bf18        it  ne
 8000e34:   4608        movne   r0, r1
 8000e36:   d108        bne.n   8000e4a <__aeabi_fmul+0x15e>
 8000e38:   ea80 0001   eor.w   r0, r0, r1
 8000e3c:   f000 4000   and.w   r0, r0, #2147483648 ; 0x80000000
 8000e40:   f040 40fe   orr.w   r0, r0, #2130706432 ; 0x7f000000
 8000e44:   f440 0000   orr.w   r0, r0, #8388608    ; 0x800000
 8000e48:   4770        bx  lr
 8000e4a:   f040 40fe   orr.w   r0, r0, #2130706432 ; 0x7f000000
 8000e4e:   f440 0040   orr.w   r0, r0, #12582912   ; 0xc00000
 8000e52:   4770        bx  lr

08000e54 <__aeabi_fdiv>:
 8000e54:   f04f 0cff   mov.w   ip, #255    ; 0xff
 8000e58:   ea1c 52d0   ands.w  r2, ip, r0, lsr #23
 8000e5c:   bf1e        ittt    ne
 8000e5e:   ea1c 53d1   andsne.w    r3, ip, r1, lsr #23
 8000e62:   ea92 0f0c   teqne   r2, ip
 8000e66:   ea93 0f0c   teqne   r3, ip
 8000e6a:   d069        beq.n   8000f40 <__aeabi_fdiv+0xec>
 8000e6c:   eba2 0203   sub.w   r2, r2, r3
 8000e70:   ea80 0c01   eor.w   ip, r0, r1
 8000e74:   0249        lsls    r1, r1, #9
 8000e76:   ea4f 2040   mov.w   r0, r0, lsl #9
 8000e7a:   d037        beq.n   8000eec <__aeabi_fdiv+0x98>
 8000e7c:   f04f 5380   mov.w   r3, #268435456  ; 0x10000000
 8000e80:   ea43 1111   orr.w   r1, r3, r1, lsr #4
 8000e84:   ea43 1310   orr.w   r3, r3, r0, lsr #4
 8000e88:   f00c 4000   and.w   r0, ip, #2147483648 ; 0x80000000
 8000e8c:   428b        cmp r3, r1
 8000e8e:   bf38        it  cc
 8000e90:   005b        lslcc   r3, r3, #1
 8000e92:   f142 027d   adc.w   r2, r2, #125    ; 0x7d
 8000e96:   f44f 0c00   mov.w   ip, #8388608    ; 0x800000
 8000e9a:   428b        cmp r3, r1
 8000e9c:   bf24        itt cs
 8000e9e:   1a5b        subcs   r3, r3, r1
 8000ea0:   ea40 000c   orrcs.w r0, r0, ip
 8000ea4:   ebb3 0f51   cmp.w   r3, r1, lsr #1
 8000ea8:   bf24        itt cs
 8000eaa:   eba3 0351   subcs.w r3, r3, r1, lsr #1
 8000eae:   ea40 005c   orrcs.w r0, r0, ip, lsr #1
 8000eb2:   ebb3 0f91   cmp.w   r3, r1, lsr #2
 8000eb6:   bf24        itt cs
 8000eb8:   eba3 0391   subcs.w r3, r3, r1, lsr #2
 8000ebc:   ea40 009c   orrcs.w r0, r0, ip, lsr #2
 8000ec0:   ebb3 0fd1   cmp.w   r3, r1, lsr #3
 8000ec4:   bf24        itt cs
 8000ec6:   eba3 03d1   subcs.w r3, r3, r1, lsr #3
 8000eca:   ea40 00dc   orrcs.w r0, r0, ip, lsr #3
 8000ece:   011b        lsls    r3, r3, #4
 8000ed0:   bf18        it  ne
 8000ed2:   ea5f 1c1c   movsne.w    ip, ip, lsr #4
 8000ed6:   d1e0        bne.n   8000e9a <__aeabi_fdiv+0x46>
 8000ed8:   2afd        cmp r2, #253    ; 0xfd
 8000eda:   f63f af50   bhi.w   8000d7e <__aeabi_fmul+0x92>
 8000ede:   428b        cmp r3, r1
 8000ee0:   eb40 50c2   adc.w   r0, r0, r2, lsl #23
 8000ee4:   bf08        it  eq
 8000ee6:   f020 0001   biceq.w r0, r0, #1
 8000eea:   4770        bx  lr
 8000eec:   f00c 4c00   and.w   ip, ip, #2147483648 ; 0x80000000
 8000ef0:   ea4c 2050   orr.w   r0, ip, r0, lsr #9
 8000ef4:   327f        adds    r2, #127    ; 0x7f
 8000ef6:   bfc2        ittt    gt
 8000ef8:   f1d2 03ff   rsbsgt  r3, r2, #255    ; 0xff
 8000efc:   ea40 50c2   orrgt.w r0, r0, r2, lsl #23
 8000f00:   4770        bxgt    lr
 8000f02:   f440 0000   orr.w   r0, r0, #8388608    ; 0x800000
 8000f06:   f04f 0300   mov.w   r3, #0
 8000f0a:   3a01        subs    r2, #1
 8000f0c:   e737        b.n 8000d7e <__aeabi_fmul+0x92>
 8000f0e:   f092 0f00   teq r2, #0
 8000f12:   f000 4c00   and.w   ip, r0, #2147483648 ; 0x80000000
 8000f16:   bf02        ittt    eq
 8000f18:   0040        lsleq   r0, r0, #1
 8000f1a:   f410 0f00   tsteq.w r0, #8388608    ; 0x800000
 8000f1e:   3a01        subeq   r2, #1
 8000f20:   d0f9        beq.n   8000f16 <__aeabi_fdiv+0xc2>
 8000f22:   ea40 000c   orr.w   r0, r0, ip
 8000f26:   f093 0f00   teq r3, #0
 8000f2a:   f001 4c00   and.w   ip, r1, #2147483648 ; 0x80000000
 8000f2e:   bf02        ittt    eq
 8000f30:   0049        lsleq   r1, r1, #1
 8000f32:   f411 0f00   tsteq.w r1, #8388608    ; 0x800000
 8000f36:   3b01        subeq   r3, #1
 8000f38:   d0f9        beq.n   8000f2e <__aeabi_fdiv+0xda>
 8000f3a:   ea41 010c   orr.w   r1, r1, ip
 8000f3e:   e795        b.n 8000e6c <__aeabi_fdiv+0x18>
 8000f40:   ea0c 53d1   and.w   r3, ip, r1, lsr #23
 8000f44:   ea92 0f0c   teq r2, ip
 8000f48:   d108        bne.n   8000f5c <__aeabi_fdiv+0x108>
 8000f4a:   0242        lsls    r2, r0, #9
 8000f4c:   f47f af7d   bne.w   8000e4a <__aeabi_fmul+0x15e>
 8000f50:   ea93 0f0c   teq r3, ip
 8000f54:   f47f af70   bne.w   8000e38 <__aeabi_fmul+0x14c>
 8000f58:   4608        mov r0, r1
 8000f5a:   e776        b.n 8000e4a <__aeabi_fmul+0x15e>
 8000f5c:   ea93 0f0c   teq r3, ip
 8000f60:   d104        bne.n   8000f6c <__aeabi_fdiv+0x118>
 8000f62:   024b        lsls    r3, r1, #9
 8000f64:   f43f af4c   beq.w   8000e00 <__aeabi_fmul+0x114>
 8000f68:   4608        mov r0, r1
 8000f6a:   e76e        b.n 8000e4a <__aeabi_fmul+0x15e>
 8000f6c:   f030 4c00   bics.w  ip, r0, #2147483648 ; 0x80000000
 8000f70:   bf18        it  ne
 8000f72:   f031 4c00   bicsne.w    ip, r1, #2147483648 ; 0x80000000
 8000f76:   d1ca        bne.n   8000f0e <__aeabi_fdiv+0xba>
 8000f78:   f030 4200   bics.w  r2, r0, #2147483648 ; 0x80000000
 8000f7c:   f47f af5c   bne.w   8000e38 <__aeabi_fmul+0x14c>
 8000f80:   f031 4300   bics.w  r3, r1, #2147483648 ; 0x80000000
 8000f84:   f47f af3c   bne.w   8000e00 <__aeabi_fmul+0x114>
 8000f88:   e75f        b.n 8000e4a <__aeabi_fmul+0x15e>
 8000f8a:   bf00        nop

08000f8c <__gesf2>:
 8000f8c:   f04f 3cff   mov.w   ip, #4294967295 ; 0xffffffff
 8000f90:   e006        b.n 8000fa0 <__cmpsf2+0x4>
 8000f92:   bf00        nop

08000f94 <__lesf2>:
 8000f94:   f04f 0c01   mov.w   ip, #1
 8000f98:   e002        b.n 8000fa0 <__cmpsf2+0x4>
 8000f9a:   bf00        nop

08000f9c <__cmpsf2>:
 8000f9c:   f04f 0c01   mov.w   ip, #1
 8000fa0:   f84d cd04   str.w   ip, [sp, #-4]!
 8000fa4:   ea4f 0240   mov.w   r2, r0, lsl #1
 8000fa8:   ea4f 0341   mov.w   r3, r1, lsl #1
 8000fac:   ea7f 6c22   mvns.w  ip, r2, asr #24
 8000fb0:   bf18        it  ne
 8000fb2:   ea7f 6c23   mvnsne.w    ip, r3, asr #24
 8000fb6:   d011        beq.n   8000fdc <__cmpsf2+0x40>
 8000fb8:   b001        add sp, #4
 8000fba:   ea52 0c53   orrs.w  ip, r2, r3, lsr #1
 8000fbe:   bf18        it  ne
 8000fc0:   ea90 0f01   teqne   r0, r1
 8000fc4:   bf58        it  pl
 8000fc6:   ebb2 0003   subspl.w    r0, r2, r3
 8000fca:   bf88        it  hi
 8000fcc:   17c8        asrhi   r0, r1, #31
 8000fce:   bf38        it  cc
 8000fd0:   ea6f 70e1   mvncc.w r0, r1, asr #31
 8000fd4:   bf18        it  ne
 8000fd6:   f040 0001   orrne.w r0, r0, #1
 8000fda:   4770        bx  lr
 8000fdc:   ea7f 6c22   mvns.w  ip, r2, asr #24
 8000fe0:   d102        bne.n   8000fe8 <__cmpsf2+0x4c>
 8000fe2:   ea5f 2c40   movs.w  ip, r0, lsl #9
 8000fe6:   d105        bne.n   8000ff4 <__cmpsf2+0x58>
 8000fe8:   ea7f 6c23   mvns.w  ip, r3, asr #24
 8000fec:   d1e4        bne.n   8000fb8 <__cmpsf2+0x1c>
 8000fee:   ea5f 2c41   movs.w  ip, r1, lsl #9
 8000ff2:   d0e1        beq.n   8000fb8 <__cmpsf2+0x1c>
 8000ff4:   f85d 0b04   ldr.w   r0, [sp], #4
 8000ff8:   4770        bx  lr
 8000ffa:   bf00        nop

08000ffc <__aeabi_cfrcmple>:
 8000ffc:   4684        mov ip, r0
 8000ffe:   4608        mov r0, r1
 8001000:   4661        mov r1, ip
 8001002:   e7ff        b.n 8001004 <__aeabi_cfcmpeq>

08001004 <__aeabi_cfcmpeq>:
 8001004:   b50f        push    {r0, r1, r2, r3, lr}
 8001006:   f7ff ffc9   bl  8000f9c <__cmpsf2>
 800100a:   2800        cmp r0, #0
 800100c:   bf48        it  mi
 800100e:   f110 0f00   cmnmi.w r0, #0
 8001012:   bd0f        pop {r0, r1, r2, r3, pc}

08001014 <__aeabi_fcmpeq>:
 8001014:   f84d ed08   str.w   lr, [sp, #-8]!
 8001018:   f7ff fff4   bl  8001004 <__aeabi_cfcmpeq>
 800101c:   bf0c        ite eq
 800101e:   2001        moveq   r0, #1
 8001020:   2000        movne   r0, #0
 8001022:   f85d fb08   ldr.w   pc, [sp], #8
 8001026:   bf00        nop

08001028 <__aeabi_fcmplt>:
 8001028:   f84d ed08   str.w   lr, [sp, #-8]!
 800102c:   f7ff ffea   bl  8001004 <__aeabi_cfcmpeq>
 8001030:   bf34        ite cc
 8001032:   2001        movcc   r0, #1
 8001034:   2000        movcs   r0, #0
 8001036:   f85d fb08   ldr.w   pc, [sp], #8
 800103a:   bf00        nop

0800103c <__aeabi_fcmple>:
 800103c:   f84d ed08   str.w   lr, [sp, #-8]!
 8001040:   f7ff ffe0   bl  8001004 <__aeabi_cfcmpeq>
 8001044:   bf94        ite ls
 8001046:   2001        movls   r0, #1
 8001048:   2000        movhi   r0, #0
 800104a:   f85d fb08   ldr.w   pc, [sp], #8
 800104e:   bf00        nop

08001050 <__aeabi_fcmpge>:
 8001050:   f84d ed08   str.w   lr, [sp, #-8]!
 8001054:   f7ff ffd2   bl  8000ffc <__aeabi_cfrcmple>
 8001058:   bf94        ite ls
 800105a:   2001        movls   r0, #1
 800105c:   2000        movhi   r0, #0
 800105e:   f85d fb08   ldr.w   pc, [sp], #8
 8001062:   bf00        nop

08001064 <__aeabi_fcmpgt>:
 8001064:   f84d ed08   str.w   lr, [sp, #-8]!
 8001068:   f7ff ffc8   bl  8000ffc <__aeabi_cfrcmple>
 800106c:   bf34        ite cc
 800106e:   2001        movcc   r0, #1
 8001070:   2000        movcs   r0, #0
 8001072:   f85d fb08   ldr.w   pc, [sp], #8
 8001076:   bf00        nop

08001078 <__aeabi_f2iz>:
 8001078:   ea4f 0240   mov.w   r2, r0, lsl #1
 800107c:   f1b2 4ffe   cmp.w   r2, #2130706432 ; 0x7f000000
 8001080:   d30f        bcc.n   80010a2 <__aeabi_f2iz+0x2a>
 8001082:   f04f 039e   mov.w   r3, #158    ; 0x9e
 8001086:   ebb3 6212   subs.w  r2, r3, r2, lsr #24
 800108a:   d90d        bls.n   80010a8 <__aeabi_f2iz+0x30>
 800108c:   ea4f 2300   mov.w   r3, r0, lsl #8
 8001090:   f043 4300   orr.w   r3, r3, #2147483648 ; 0x80000000
 8001094:   f010 4f00   tst.w   r0, #2147483648 ; 0x80000000
 8001098:   fa23 f002   lsr.w   r0, r3, r2
 800109c:   bf18        it  ne
 800109e:   4240        negne   r0, r0
 80010a0:   4770        bx  lr
 80010a2:   f04f 0000   mov.w   r0, #0
 80010a6:   4770        bx  lr
 80010a8:   f112 0f61   cmn.w   r2, #97 ; 0x61
 80010ac:   d101        bne.n   80010b2 <__aeabi_f2iz+0x3a>
 80010ae:   0242        lsls    r2, r0, #9
 80010b0:   d105        bne.n   80010be <__aeabi_f2iz+0x46>
 80010b2:   f010 4000   ands.w  r0, r0, #2147483648 ; 0x80000000
 80010b6:   bf08        it  eq
 80010b8:   f06f 4000   mvneq.w r0, #2147483648 ; 0x80000000
 80010bc:   4770        bx  lr
 80010be:   f04f 0000   mov.w   r0, #0
 80010c2:   4770        bx  lr

080010c4 <__aeabi_f2uiz>:
 80010c4:   0042        lsls    r2, r0, #1
 80010c6:   d20e        bcs.n   80010e6 <__aeabi_f2uiz+0x22>
 80010c8:   f1b2 4ffe   cmp.w   r2, #2130706432 ; 0x7f000000
 80010cc:   d30b        bcc.n   80010e6 <__aeabi_f2uiz+0x22>
 80010ce:   f04f 039e   mov.w   r3, #158    ; 0x9e
 80010d2:   ebb3 6212   subs.w  r2, r3, r2, lsr #24
 80010d6:   d409        bmi.n   80010ec <__aeabi_f2uiz+0x28>
 80010d8:   ea4f 2300   mov.w   r3, r0, lsl #8
 80010dc:   f043 4300   orr.w   r3, r3, #2147483648 ; 0x80000000
 80010e0:   fa23 f002   lsr.w   r0, r3, r2
 80010e4:   4770        bx  lr
 80010e6:   f04f 0000   mov.w   r0, #0
 80010ea:   4770        bx  lr
 80010ec:   f112 0f61   cmn.w   r2, #97 ; 0x61
 80010f0:   d101        bne.n   80010f6 <__aeabi_f2uiz+0x32>
 80010f2:   0242        lsls    r2, r0, #9
 80010f4:   d102        bne.n   80010fc <__aeabi_f2uiz+0x38>
 80010f6:   f04f 30ff   mov.w   r0, #4294967295 ; 0xffffffff
 80010fa:   4770        bx  lr
 80010fc:   f04f 0000   mov.w   r0, #0
 8001100:   4770        bx  lr
 8001102:   bf00        nop

08001104 <HAL_InitTick>:
 8001104:   b510        push    {r4, lr}
 8001106:   4604        mov r4, r0
 8001108:   f001 f866   bl  80021d8 <HAL_RCC_GetHCLKFreq>
 800110c:   f44f 737a   mov.w   r3, #1000   ; 0x3e8
 8001110:   fbb0 f0f3   udiv    r0, r0, r3
 8001114:   f000 f888   bl  8001228 <HAL_SYSTICK_Config>
 8001118:   2200        movs    r2, #0
 800111a:   4621        mov r1, r4
 800111c:   f04f 30ff   mov.w   r0, #4294967295 ; 0xffffffff
 8001120:   f000 f842   bl  80011a8 <HAL_NVIC_SetPriority>
 8001124:   2000        movs    r0, #0
 8001126:   bd10        pop {r4, pc}

08001128 <HAL_Init>:
 8001128:   4a07        ldr r2, [pc, #28]   ; (8001148 <HAL_Init+0x20>)
 800112a:   b508        push    {r3, lr}
 800112c:   6813        ldr r3, [r2, #0]
 800112e:   2003        movs    r0, #3
 8001130:   f043 0310   orr.w   r3, r3, #16
 8001134:   6013        str r3, [r2, #0]
 8001136:   f000 f825   bl  8001184 <HAL_NVIC_SetPriorityGrouping>
 800113a:   2000        movs    r0, #0
 800113c:   f7ff ffe2   bl  8001104 <HAL_InitTick>
 8001140:   f003 ff6a   bl  8005018 <HAL_MspInit>
 8001144:   2000        movs    r0, #0
 8001146:   bd08        pop {r3, pc}
 8001148:   40022000    .word   0x40022000

0800114c <HAL_IncTick>:
 800114c:   4a02        ldr r2, [pc, #8]    ; (8001158 <HAL_IncTick+0xc>)
 800114e:   6813        ldr r3, [r2, #0]
 8001150:   3301        adds    r3, #1
 8001152:   6013        str r3, [r2, #0]
 8001154:   4770        bx  lr
 8001156:   bf00        nop
 8001158:   20000244    .word   0x20000244

0800115c <HAL_GetTick>:
 800115c:   4b01        ldr r3, [pc, #4]    ; (8001164 <HAL_GetTick+0x8>)
 800115e:   6818        ldr r0, [r3, #0]
 8001160:   4770        bx  lr
 8001162:   bf00        nop
 8001164:   20000244    .word   0x20000244

08001168 <HAL_Delay>:
 8001168:   b513        push    {r0, r1, r4, lr}
 800116a:   9001        str r0, [sp, #4]
 800116c:   f7ff fff6   bl  800115c <HAL_GetTick>
 8001170:   4604        mov r4, r0
 8001172:   f7ff fff3   bl  800115c <HAL_GetTick>
 8001176:   9b01        ldr r3, [sp, #4]
 8001178:   1b00        subs    r0, r0, r4
 800117a:   4298        cmp r0, r3
 800117c:   d3f9        bcc.n   8001172 <HAL_Delay+0xa>
 800117e:   b002        add sp, #8
 8001180:   bd10        pop {r4, pc}
    ...

08001184 <HAL_NVIC_SetPriorityGrouping>:
 8001184:   4a07        ldr r2, [pc, #28]   ; (80011a4 <HAL_NVIC_SetPriorityGrouping+0x20>)
 8001186:   0200        lsls    r0, r0, #8
 8001188:   68d3        ldr r3, [r2, #12]
 800118a:   f400 60e0   and.w   r0, r0, #1792   ; 0x700
 800118e:   f423 63e0   bic.w   r3, r3, #1792   ; 0x700
 8001192:   041b        lsls    r3, r3, #16
 8001194:   0c1b        lsrs    r3, r3, #16
 8001196:   f043 63bf   orr.w   r3, r3, #100139008  ; 0x5f80000
 800119a:   f443 3300   orr.w   r3, r3, #131072 ; 0x20000
 800119e:   4303        orrs    r3, r0
 80011a0:   60d3        str r3, [r2, #12]
 80011a2:   4770        bx  lr
 80011a4:   e000ed00    .word   0xe000ed00

080011a8 <HAL_NVIC_SetPriority>:
 80011a8:   4b17        ldr r3, [pc, #92]   ; (8001208 <HAL_NVIC_SetPriority+0x60>)
 80011aa:   b530        push    {r4, r5, lr}
 80011ac:   68dc        ldr r4, [r3, #12]
 80011ae:   f3c4 2402   ubfx    r4, r4, #8, #3
 80011b2:   f1c4 0307   rsb r3, r4, #7
 80011b6:   1d25        adds    r5, r4, #4
 80011b8:   2b04        cmp r3, #4
 80011ba:   bf28        it  cs
 80011bc:   2304        movcs   r3, #4
 80011be:   2d06        cmp r5, #6
 80011c0:   f04f 0501   mov.w   r5, #1
 80011c4:   bf98        it  ls
 80011c6:   2400        movls   r4, #0
 80011c8:   fa05 f303   lsl.w   r3, r5, r3
 80011cc:   f103 33ff   add.w   r3, r3, #4294967295 ; 0xffffffff
 80011d0:   bf88        it  hi
 80011d2:   3c03        subhi   r4, #3
 80011d4:   4019        ands    r1, r3
 80011d6:   40a1        lsls    r1, r4
 80011d8:   fa05 f404   lsl.w   r4, r5, r4
 80011dc:   3c01        subs    r4, #1
 80011de:   4022        ands    r2, r4
 80011e0:   2800        cmp r0, #0
 80011e2:   ea42 0201   orr.w   r2, r2, r1
 80011e6:   ea4f 1202   mov.w   r2, r2, lsl #4
 80011ea:   bfaf        iteee   ge
 80011ec:   f100 4060   addge.w r0, r0, #3758096384 ; 0xe0000000
 80011f0:   4b06        ldrlt   r3, [pc, #24]   ; (800120c <HAL_NVIC_SetPriority+0x64>)
 80011f2:   f000 000f   andlt.w r0, r0, #15
 80011f6:   b2d2        uxtblt  r2, r2
 80011f8:   bfa5        ittet   ge
 80011fa:   b2d2        uxtbge  r2, r2
 80011fc:   f500 4061   addge.w r0, r0, #57600  ; 0xe100
 8001200:   541a        strblt  r2, [r3, r0]
 8001202:   f880 2300   strbge.w    r2, [r0, #768]  ; 0x300
 8001206:   bd30        pop {r4, r5, pc}
 8001208:   e000ed00    .word   0xe000ed00
 800120c:   e000ed14    .word   0xe000ed14

08001210 <HAL_NVIC_EnableIRQ>:
 8001210:   2301        movs    r3, #1
 8001212:   0942        lsrs    r2, r0, #5
 8001214:   f000 001f   and.w   r0, r0, #31
 8001218:   fa03 f000   lsl.w   r0, r3, r0
 800121c:   4b01        ldr r3, [pc, #4]    ; (8001224 <HAL_NVIC_EnableIRQ+0x14>)
 800121e:   f843 0022   str.w   r0, [r3, r2, lsl #2]
 8001222:   4770        bx  lr
 8001224:   e000e100    .word   0xe000e100

08001228 <HAL_SYSTICK_Config>:
 8001228:   3801        subs    r0, #1
 800122a:   f1b0 7f80   cmp.w   r0, #16777216   ; 0x1000000
 800122e:   d20a        bcs.n   8001246 <HAL_SYSTICK_Config+0x1e>
 8001230:   21f0        movs    r1, #240    ; 0xf0
 8001232:   4b06        ldr r3, [pc, #24]   ; (800124c <HAL_SYSTICK_Config+0x24>)
 8001234:   4a06        ldr r2, [pc, #24]   ; (8001250 <HAL_SYSTICK_Config+0x28>)
 8001236:   6058        str r0, [r3, #4]
 8001238:   f882 1023   strb.w  r1, [r2, #35]   ; 0x23
 800123c:   2000        movs    r0, #0
 800123e:   2207        movs    r2, #7
 8001240:   6098        str r0, [r3, #8]
 8001242:   601a        str r2, [r3, #0]
 8001244:   4770        bx  lr
 8001246:   2001        movs    r0, #1
 8001248:   4770        bx  lr
 800124a:   bf00        nop
 800124c:   e000e010    .word   0xe000e010
 8001250:   e000ed00    .word   0xe000ed00

08001254 <HAL_SYSTICK_CLKSourceConfig>:
 8001254:   4b04        ldr r3, [pc, #16]   ; (8001268 <HAL_SYSTICK_CLKSourceConfig+0x14>)
 8001256:   2804        cmp r0, #4
 8001258:   681a        ldr r2, [r3, #0]
 800125a:   bf0c        ite eq
 800125c:   f042 0204   orreq.w r2, r2, #4
 8001260:   f022 0204   bicne.w r2, r2, #4
 8001264:   601a        str r2, [r3, #0]
 8001266:   4770        bx  lr
 8001268:   e000e010    .word   0xe000e010

0800126c <HAL_SYSTICK_Callback>:
 800126c:   4770        bx  lr

0800126e <HAL_SYSTICK_IRQHandler>:
 800126e:   b508        push    {r3, lr}
 8001270:   f7ff fffc   bl  800126c <HAL_SYSTICK_Callback>
 8001274:   bd08        pop {r3, pc}
    ...

08001278 <HAL_GPIO_Init>:
 8001278:   e92d 4ff7   stmdb   sp!, {r0, r1, r2, r4, r5, r6, r7, r8, r9, sl, fp, lr}
 800127c:   2200        movs    r2, #0
 800127e:   4616        mov r6, r2
 8001280:   4b65        ldr r3, [pc, #404]  ; (8001418 <HAL_GPIO_Init+0x1a0>)
 8001282:   f8df e1a4   ldr.w   lr, [pc, #420]  ; 8001428 <HAL_GPIO_Init+0x1b0>
 8001286:   f8df c1a4   ldr.w   ip, [pc, #420]  ; 800142c <HAL_GPIO_Init+0x1b4>
 800128a:   f04f 0801   mov.w   r8, #1
 800128e:   680c        ldr r4, [r1, #0]
 8001290:   fa08 f806   lsl.w   r8, r8, r6
 8001294:   ea08 0404   and.w   r4, r8, r4
 8001298:   45a0        cmp r8, r4
 800129a:   d17f        bne.n   800139c <HAL_GPIO_Init+0x124>
 800129c:   684d        ldr r5, [r1, #4]
 800129e:   2d12        cmp r5, #18
 80012a0:   f000 80af   beq.w   8001402 <HAL_GPIO_Init+0x18a>
 80012a4:   f200 8088   bhi.w   80013b8 <HAL_GPIO_Init+0x140>
 80012a8:   2d02        cmp r5, #2
 80012aa:   f000 80a7   beq.w   80013fc <HAL_GPIO_Init+0x184>
 80012ae:   d87c        bhi.n   80013aa <HAL_GPIO_Init+0x132>
 80012b0:   2d00        cmp r5, #0
 80012b2:   f000 808e   beq.w   80013d2 <HAL_GPIO_Init+0x15a>
 80012b6:   2d01        cmp r5, #1
 80012b8:   f000 809e   beq.w   80013f8 <HAL_GPIO_Init+0x180>
 80012bc:   f04f 090f   mov.w   r9, #15
 80012c0:   2cff        cmp r4, #255    ; 0xff
 80012c2:   bf93        iteet   ls
 80012c4:   4682        movls   sl, r0
 80012c6:   f106 4580   addhi.w r5, r6, #1073741824 ; 0x40000000
 80012ca:   3d08        subhi   r5, #8
 80012cc:   f8d0 b000   ldrls.w fp, [r0]
 80012d0:   bf92        itee    ls
 80012d2:   00b5        lslls   r5, r6, #2
 80012d4:   f8d0 b004   ldrhi.w fp, [r0, #4]
 80012d8:   00ad        lslhi   r5, r5, #2
 80012da:   fa09 f805   lsl.w   r8, r9, r5
 80012de:   ea2b 0808   bic.w   r8, fp, r8
 80012e2:   fa02 f505   lsl.w   r5, r2, r5
 80012e6:   bf88        it  hi
 80012e8:   f100 0a04   addhi.w sl, r0, #4
 80012ec:   ea48 0505   orr.w   r5, r8, r5
 80012f0:   f8ca 5000   str.w   r5, [sl]
 80012f4:   f8d1 a004   ldr.w   sl, [r1, #4]
 80012f8:   f01a 5f80   tst.w   sl, #268435456  ; 0x10000000
 80012fc:   d04e        beq.n   800139c <HAL_GPIO_Init+0x124>
 80012fe:   4d47        ldr r5, [pc, #284]  ; (800141c <HAL_GPIO_Init+0x1a4>)
 8001300:   4f46        ldr r7, [pc, #280]  ; (800141c <HAL_GPIO_Init+0x1a4>)
 8001302:   69ad        ldr r5, [r5, #24]
 8001304:   f026 0803   bic.w   r8, r6, #3
 8001308:   f045 0501   orr.w   r5, r5, #1
 800130c:   61bd        str r5, [r7, #24]
 800130e:   69bd        ldr r5, [r7, #24]
 8001310:   f108 4880   add.w   r8, r8, #1073741824 ; 0x40000000
 8001314:   f005 0501   and.w   r5, r5, #1
 8001318:   9501        str r5, [sp, #4]
 800131a:   f508 3880   add.w   r8, r8, #65536  ; 0x10000
 800131e:   f006 0b03   and.w   fp, r6, #3
 8001322:   9d01        ldr r5, [sp, #4]
 8001324:   ea4f 0b8b   mov.w   fp, fp, lsl #2
 8001328:   f8d8 5008   ldr.w   r5, [r8, #8]
 800132c:   fa09 f90b   lsl.w   r9, r9, fp
 8001330:   ea25 0909   bic.w   r9, r5, r9
 8001334:   4d3a        ldr r5, [pc, #232]  ; (8001420 <HAL_GPIO_Init+0x1a8>)
 8001336:   42a8        cmp r0, r5
 8001338:   d068        beq.n   800140c <HAL_GPIO_Init+0x194>
 800133a:   f505 6580   add.w   r5, r5, #1024   ; 0x400
 800133e:   42a8        cmp r0, r5
 8001340:   d066        beq.n   8001410 <HAL_GPIO_Init+0x198>
 8001342:   f505 6580   add.w   r5, r5, #1024   ; 0x400
 8001346:   42a8        cmp r0, r5
 8001348:   d064        beq.n   8001414 <HAL_GPIO_Init+0x19c>
 800134a:   f505 6580   add.w   r5, r5, #1024   ; 0x400
 800134e:   42a8        cmp r0, r5
 8001350:   bf0c        ite eq
 8001352:   2503        moveq   r5, #3
 8001354:   2504        movne   r5, #4
 8001356:   fa05 f50b   lsl.w   r5, r5, fp
 800135a:   ea45 0509   orr.w   r5, r5, r9
 800135e:   f8c8 5008   str.w   r5, [r8, #8]
 8001362:   681d        ldr r5, [r3, #0]
 8001364:   f41a 3f80   tst.w   sl, #65536  ; 0x10000
 8001368:   bf14        ite ne
 800136a:   4325        orrne   r5, r4
 800136c:   43a5        biceq   r5, r4
 800136e:   601d        str r5, [r3, #0]
 8001370:   685d        ldr r5, [r3, #4]
 8001372:   f41a 3f00   tst.w   sl, #131072 ; 0x20000
 8001376:   bf14        ite ne
 8001378:   4325        orrne   r5, r4
 800137a:   43a5        biceq   r5, r4
 800137c:   605d        str r5, [r3, #4]
 800137e:   689d        ldr r5, [r3, #8]
 8001380:   f41a 1f80   tst.w   sl, #1048576    ; 0x100000
 8001384:   bf14        ite ne
 8001386:   4325        orrne   r5, r4
 8001388:   43a5        biceq   r5, r4
 800138a:   609d        str r5, [r3, #8]
 800138c:   68dd        ldr r5, [r3, #12]
 800138e:   f41a 1f00   tst.w   sl, #2097152    ; 0x200000
 8001392:   bf14        ite ne
 8001394:   432c        orrne   r4, r5
 8001396:   ea25 0404   biceq.w r4, r5, r4
 800139a:   60dc        str r4, [r3, #12]
 800139c:   3601        adds    r6, #1
 800139e:   2e10        cmp r6, #16
 80013a0:   f47f af73   bne.w   800128a <HAL_GPIO_Init+0x12>
 80013a4:   b003        add sp, #12
 80013a6:   e8bd 8ff0   ldmia.w sp!, {r4, r5, r6, r7, r8, r9, sl, fp, pc}
 80013aa:   2d03        cmp r5, #3
 80013ac:   d022        beq.n   80013f4 <HAL_GPIO_Init+0x17c>
 80013ae:   2d11        cmp r5, #17
 80013b0:   d184        bne.n   80012bc <HAL_GPIO_Init+0x44>
 80013b2:   68ca        ldr r2, [r1, #12]
 80013b4:   3204        adds    r2, #4
 80013b6:   e781        b.n 80012bc <HAL_GPIO_Init+0x44>
 80013b8:   4f1a        ldr r7, [pc, #104]  ; (8001424 <HAL_GPIO_Init+0x1ac>)
 80013ba:   42bd        cmp r5, r7
 80013bc:   d009        beq.n   80013d2 <HAL_GPIO_Init+0x15a>
 80013be:   d812        bhi.n   80013e6 <HAL_GPIO_Init+0x16e>
 80013c0:   f8df 906c   ldr.w   r9, [pc, #108]  ; 8001430 <HAL_GPIO_Init+0x1b8>
 80013c4:   454d        cmp r5, r9
 80013c6:   d004        beq.n   80013d2 <HAL_GPIO_Init+0x15a>
 80013c8:   f509 3980   add.w   r9, r9, #65536  ; 0x10000
 80013cc:   454d        cmp r5, r9
 80013ce:   f47f af75   bne.w   80012bc <HAL_GPIO_Init+0x44>
 80013d2:   688a        ldr r2, [r1, #8]
 80013d4:   b1c2        cbz r2, 8001408 <HAL_GPIO_Init+0x190>
 80013d6:   2a01        cmp r2, #1
 80013d8:   bf0c        ite eq
 80013da:   f8c0 8010   streq.w r8, [r0, #16]
 80013de:   f8c0 8014   strne.w r8, [r0, #20]
 80013e2:   2208        movs    r2, #8
 80013e4:   e76a        b.n 80012bc <HAL_GPIO_Init+0x44>
 80013e6:   4575        cmp r5, lr
 80013e8:   d0f3        beq.n   80013d2 <HAL_GPIO_Init+0x15a>
 80013ea:   4565        cmp r5, ip
 80013ec:   d0f1        beq.n   80013d2 <HAL_GPIO_Init+0x15a>
 80013ee:   f8df 9044   ldr.w   r9, [pc, #68]   ; 8001434 <HAL_GPIO_Init+0x1bc>
 80013f2:   e7eb        b.n 80013cc <HAL_GPIO_Init+0x154>
 80013f4:   2200        movs    r2, #0
 80013f6:   e761        b.n 80012bc <HAL_GPIO_Init+0x44>
 80013f8:   68ca        ldr r2, [r1, #12]
 80013fa:   e75f        b.n 80012bc <HAL_GPIO_Init+0x44>
 80013fc:   68ca        ldr r2, [r1, #12]
 80013fe:   3208        adds    r2, #8
 8001400:   e75c        b.n 80012bc <HAL_GPIO_Init+0x44>
 8001402:   68ca        ldr r2, [r1, #12]
 8001404:   320c        adds    r2, #12
 8001406:   e759        b.n 80012bc <HAL_GPIO_Init+0x44>
 8001408:   2204        movs    r2, #4
 800140a:   e757        b.n 80012bc <HAL_GPIO_Init+0x44>
 800140c:   2500        movs    r5, #0
 800140e:   e7a2        b.n 8001356 <HAL_GPIO_Init+0xde>
 8001410:   2501        movs    r5, #1
 8001412:   e7a0        b.n 8001356 <HAL_GPIO_Init+0xde>
 8001414:   2502        movs    r5, #2
 8001416:   e79e        b.n 8001356 <HAL_GPIO_Init+0xde>
 8001418:   40010400    .word   0x40010400
 800141c:   40021000    .word   0x40021000
 8001420:   40010800    .word   0x40010800
 8001424:   10210000    .word   0x10210000
 8001428:   10310000    .word   0x10310000
 800142c:   10320000    .word   0x10320000
 8001430:   10110000    .word   0x10110000
 8001434:   10220000    .word   0x10220000

08001438 <HAL_GPIO_WritePin>:
 8001438:   b10a        cbz r2, 800143e <HAL_GPIO_WritePin+0x6>
 800143a:   6101        str r1, [r0, #16]
 800143c:   4770        bx  lr
 800143e:   0409        lsls    r1, r1, #16
 8001440:   e7fb        b.n 800143a <HAL_GPIO_WritePin+0x2>

08001442 <HAL_GPIO_TogglePin>:
 8001442:   68c3        ldr r3, [r0, #12]
 8001444:   4059        eors    r1, r3
 8001446:   60c1        str r1, [r0, #12]
 8001448:   4770        bx  lr

0800144a <I2C_IsAcknowledgeFailed>:
 800144a:   6802        ldr r2, [r0, #0]
 800144c:   6953        ldr r3, [r2, #20]
 800144e:   f413 6380   ands.w  r3, r3, #1024   ; 0x400
 8001452:   d00d        beq.n   8001470 <I2C_IsAcknowledgeFailed+0x26>
 8001454:   6953        ldr r3, [r2, #20]
 8001456:   f423 6380   bic.w   r3, r3, #1024   ; 0x400
 800145a:   6153        str r3, [r2, #20]
 800145c:   2304        movs    r3, #4
 800145e:   6383        str r3, [r0, #56]   ; 0x38
 8001460:   2320        movs    r3, #32
 8001462:   f880 3035   strb.w  r3, [r0, #53]   ; 0x35
 8001466:   2300        movs    r3, #0
 8001468:   f880 3034   strb.w  r3, [r0, #52]   ; 0x34
 800146c:   2001        movs    r0, #1
 800146e:   4770        bx  lr
 8001470:   4618        mov r0, r3
 8001472:   4770        bx  lr

08001474 <I2C_WaitOnFlagUntilTimeout>:
 8001474:   e92d 41f0   stmdb   sp!, {r4, r5, r6, r7, r8, lr}
 8001478:   460c        mov r4, r1
 800147a:   4606        mov r6, r0
 800147c:   4615        mov r5, r2
 800147e:   461f        mov r7, r3
 8001480:   f7ff fe6c   bl  800115c <HAL_GetTick>
 8001484:   4680        mov r8, r0
 8001486:   0c20        lsrs    r0, r4, #16
 8001488:   b2a4        uxth    r4, r4
 800148a:   b315        cbz r5, 80014d2 <I2C_WaitOnFlagUntilTimeout+0x5e>
 800148c:   b2c5        uxtb    r5, r0
 800148e:   e02c        b.n 80014ea <I2C_WaitOnFlagUntilTimeout+0x76>
 8001490:   1c7a        adds    r2, r7, #1
 8001492:   d00f        beq.n   80014b4 <I2C_WaitOnFlagUntilTimeout+0x40>
 8001494:   b947        cbnz    r7, 80014a8 <I2C_WaitOnFlagUntilTimeout+0x34>
 8001496:   2320        movs    r3, #32
 8001498:   f886 3035   strb.w  r3, [r6, #53]   ; 0x35
 800149c:   2300        movs    r3, #0
 800149e:   2003        movs    r0, #3
 80014a0:   f886 3034   strb.w  r3, [r6, #52]   ; 0x34
 80014a4:   e8bd 81f0   ldmia.w sp!, {r4, r5, r6, r7, r8, pc}
 80014a8:   f7ff fe58   bl  800115c <HAL_GetTick>
 80014ac:   eba0 0008   sub.w   r0, r0, r8
 80014b0:   4287        cmp r7, r0
 80014b2:   d3f0        bcc.n   8001496 <I2C_WaitOnFlagUntilTimeout+0x22>
 80014b4:   6833        ldr r3, [r6, #0]
 80014b6:   2d01        cmp r5, #1
 80014b8:   bf0c        ite eq
 80014ba:   695b        ldreq   r3, [r3, #20]
 80014bc:   699b        ldrne   r3, [r3, #24]
 80014be:   ea34 0303   bics.w  r3, r4, r3
 80014c2:   bf14        ite ne
 80014c4:   2301        movne   r3, #1
 80014c6:   2300        moveq   r3, #0
 80014c8:   2b00        cmp r3, #0
 80014ca:   d1e1        bne.n   8001490 <I2C_WaitOnFlagUntilTimeout+0x1c>
 80014cc:   2000        movs    r0, #0
 80014ce:   e8bd 81f0   ldmia.w sp!, {r4, r5, r6, r7, r8, pc}
 80014d2:   b2c5        uxtb    r5, r0
 80014d4:   e7ee        b.n 80014b4 <I2C_WaitOnFlagUntilTimeout+0x40>
 80014d6:   1c7b        adds    r3, r7, #1
 80014d8:   d007        beq.n   80014ea <I2C_WaitOnFlagUntilTimeout+0x76>
 80014da:   2f00        cmp r7, #0
 80014dc:   d0db        beq.n   8001496 <I2C_WaitOnFlagUntilTimeout+0x22>
 80014de:   f7ff fe3d   bl  800115c <HAL_GetTick>
 80014e2:   eba0 0008   sub.w   r0, r0, r8
 80014e6:   4287        cmp r7, r0
 80014e8:   d3d5        bcc.n   8001496 <I2C_WaitOnFlagUntilTimeout+0x22>
 80014ea:   6833        ldr r3, [r6, #0]
 80014ec:   2d01        cmp r5, #1
 80014ee:   bf0c        ite eq
 80014f0:   695b        ldreq   r3, [r3, #20]
 80014f2:   699b        ldrne   r3, [r3, #24]
 80014f4:   ea34 0303   bics.w  r3, r4, r3
 80014f8:   bf0c        ite eq
 80014fa:   2301        moveq   r3, #1
 80014fc:   2300        movne   r3, #0
 80014fe:   2b00        cmp r3, #0
 8001500:   d1e9        bne.n   80014d6 <I2C_WaitOnFlagUntilTimeout+0x62>
 8001502:   e7e3        b.n 80014cc <I2C_WaitOnFlagUntilTimeout+0x58>

08001504 <I2C_WaitOnMasterAddressFlagUntilTimeout>:
 8001504:   e92d 41f0   stmdb   sp!, {r4, r5, r6, r7, r8, lr}
 8001508:   460d        mov r5, r1
 800150a:   4604        mov r4, r0
 800150c:   4616        mov r6, r2
 800150e:   f7ff fe25   bl  800115c <HAL_GetTick>
 8001512:   4607        mov r7, r0
 8001514:   f3c5 4807   ubfx    r8, r5, #16, #8
 8001518:   b2ad        uxth    r5, r5
 800151a:   6823        ldr r3, [r4, #0]
 800151c:   f1b8 0f01   cmp.w   r8, #1
 8001520:   bf0c        ite eq
 8001522:   695a        ldreq   r2, [r3, #20]
 8001524:   699a        ldrne   r2, [r3, #24]
 8001526:   ea35 0202   bics.w  r2, r5, r2
 800152a:   bf14        ite ne
 800152c:   2001        movne   r0, #1
 800152e:   2000        moveq   r0, #0
 8001530:   b908        cbnz    r0, 8001536 <I2C_WaitOnMasterAddressFlagUntilTimeout+0x32>
 8001532:   e8bd 81f0   ldmia.w sp!, {r4, r5, r6, r7, r8, pc}
 8001536:   695a        ldr r2, [r3, #20]
 8001538:   0552        lsls    r2, r2, #21
 800153a:   d512        bpl.n   8001562 <I2C_WaitOnMasterAddressFlagUntilTimeout+0x5e>
 800153c:   681a        ldr r2, [r3, #0]
 800153e:   2001        movs    r0, #1
 8001540:   f442 7200   orr.w   r2, r2, #512    ; 0x200
 8001544:   601a        str r2, [r3, #0]
 8001546:   695a        ldr r2, [r3, #20]
 8001548:   f422 6280   bic.w   r2, r2, #1024   ; 0x400
 800154c:   615a        str r2, [r3, #20]
 800154e:   2304        movs    r3, #4
 8001550:   63a3        str r3, [r4, #56]   ; 0x38
 8001552:   2320        movs    r3, #32
 8001554:   f884 3035   strb.w  r3, [r4, #53]   ; 0x35
 8001558:   2300        movs    r3, #0
 800155a:   f884 3034   strb.w  r3, [r4, #52]   ; 0x34
 800155e:   e8bd 81f0   ldmia.w sp!, {r4, r5, r6, r7, r8, pc}
 8001562:   1c73        adds    r3, r6, #1
 8001564:   d0d9        beq.n   800151a <I2C_WaitOnMasterAddressFlagUntilTimeout+0x16>
 8001566:   b946        cbnz    r6, 800157a <I2C_WaitOnMasterAddressFlagUntilTimeout+0x76>
 8001568:   2320        movs    r3, #32
 800156a:   f884 3035   strb.w  r3, [r4, #53]   ; 0x35
 800156e:   2300        movs    r3, #0
 8001570:   2003        movs    r0, #3
 8001572:   f884 3034   strb.w  r3, [r4, #52]   ; 0x34
 8001576:   e8bd 81f0   ldmia.w sp!, {r4, r5, r6, r7, r8, pc}
 800157a:   f7ff fdef   bl  800115c <HAL_GetTick>
 800157e:   1bc0        subs    r0, r0, r7
 8001580:   4286        cmp r6, r0
 8001582:   d2ca        bcs.n   800151a <I2C_WaitOnMasterAddressFlagUntilTimeout+0x16>
 8001584:   e7f0        b.n 8001568 <I2C_WaitOnMasterAddressFlagUntilTimeout+0x64>

08001586 <I2C_WaitOnTXEFlagUntilTimeout>:
 8001586:   b570        push    {r4, r5, r6, lr}
 8001588:   4604        mov r4, r0
 800158a:   460d        mov r5, r1
 800158c:   f7ff fde6   bl  800115c <HAL_GetTick>
 8001590:   4606        mov r6, r0
 8001592:   6823        ldr r3, [r4, #0]
 8001594:   695b        ldr r3, [r3, #20]
 8001596:   061b        lsls    r3, r3, #24
 8001598:   d501        bpl.n   800159e <I2C_WaitOnTXEFlagUntilTimeout+0x18>
 800159a:   2000        movs    r0, #0
 800159c:   bd70        pop {r4, r5, r6, pc}
 800159e:   4620        mov r0, r4
 80015a0:   f7ff ff53   bl  800144a <I2C_IsAcknowledgeFailed>
 80015a4:   b9a0        cbnz    r0, 80015d0 <I2C_WaitOnTXEFlagUntilTimeout+0x4a>
 80015a6:   1c6a        adds    r2, r5, #1
 80015a8:   d0f3        beq.n   8001592 <I2C_WaitOnTXEFlagUntilTimeout+0xc>
 80015aa:   b95d        cbnz    r5, 80015c4 <I2C_WaitOnTXEFlagUntilTimeout+0x3e>
 80015ac:   6ba3        ldr r3, [r4, #56]   ; 0x38
 80015ae:   2003        movs    r0, #3
 80015b0:   f043 0320   orr.w   r3, r3, #32
 80015b4:   63a3        str r3, [r4, #56]   ; 0x38
 80015b6:   2320        movs    r3, #32
 80015b8:   f884 3035   strb.w  r3, [r4, #53]   ; 0x35
 80015bc:   2300        movs    r3, #0
 80015be:   f884 3034   strb.w  r3, [r4, #52]   ; 0x34
 80015c2:   bd70        pop {r4, r5, r6, pc}
 80015c4:   f7ff fdca   bl  800115c <HAL_GetTick>
 80015c8:   1b80        subs    r0, r0, r6
 80015ca:   4285        cmp r5, r0
 80015cc:   d2e1        bcs.n   8001592 <I2C_WaitOnTXEFlagUntilTimeout+0xc>
 80015ce:   e7ed        b.n 80015ac <I2C_WaitOnTXEFlagUntilTimeout+0x26>
 80015d0:   2001        movs    r0, #1
 80015d2:   bd70        pop {r4, r5, r6, pc}

080015d4 <I2C_RequestMemoryWrite>:
 80015d4:   b5f7        push    {r0, r1, r2, r4, r5, r6, r7, lr}
 80015d6:   4615        mov r5, r2
 80015d8:   6802        ldr r2, [r0, #0]
 80015da:   461f        mov r7, r3
 80015dc:   6813        ldr r3, [r2, #0]
 80015de:   460e        mov r6, r1
 80015e0:   f443 7380   orr.w   r3, r3, #256    ; 0x100
 80015e4:   6013        str r3, [r2, #0]
 80015e6:   f04f 1101   mov.w   r1, #65537  ; 0x10001
 80015ea:   9b08        ldr r3, [sp, #32]
 80015ec:   2200        movs    r2, #0
 80015ee:   4604        mov r4, r0
 80015f0:   f7ff ff40   bl  8001474 <I2C_WaitOnFlagUntilTimeout>
 80015f4:   b960        cbnz    r0, 8001610 <I2C_RequestMemoryWrite+0x3c>
 80015f6:   6823        ldr r3, [r4, #0]
 80015f8:   f006 06fe   and.w   r6, r6, #254    ; 0xfe
 80015fc:   611e        str r6, [r3, #16]
 80015fe:   9a08        ldr r2, [sp, #32]
 8001600:   4917        ldr r1, [pc, #92]   ; (8001660 <I2C_RequestMemoryWrite+0x8c>)
 8001602:   4620        mov r0, r4
 8001604:   f7ff ff7e   bl  8001504 <I2C_WaitOnMasterAddressFlagUntilTimeout>
 8001608:   b128        cbz r0, 8001616 <I2C_RequestMemoryWrite+0x42>
 800160a:   6ba3        ldr r3, [r4, #56]   ; 0x38
 800160c:   2b04        cmp r3, #4
 800160e:   d015        beq.n   800163c <I2C_RequestMemoryWrite+0x68>
 8001610:   2003        movs    r0, #3
 8001612:   b003        add sp, #12
 8001614:   bdf0        pop {r4, r5, r6, r7, pc}
 8001616:   6823        ldr r3, [r4, #0]
 8001618:   9908        ldr r1, [sp, #32]
 800161a:   695a        ldr r2, [r3, #20]
 800161c:   4620        mov r0, r4
 800161e:   9201        str r2, [sp, #4]
 8001620:   699b        ldr r3, [r3, #24]
 8001622:   9301        str r3, [sp, #4]
 8001624:   9b01        ldr r3, [sp, #4]
 8001626:   f7ff ffae   bl  8001586 <I2C_WaitOnTXEFlagUntilTimeout>
 800162a:   b148        cbz r0, 8001640 <I2C_RequestMemoryWrite+0x6c>
 800162c:   6ba3        ldr r3, [r4, #56]   ; 0x38
 800162e:   2b04        cmp r3, #4
 8001630:   d1ee        bne.n   8001610 <I2C_RequestMemoryWrite+0x3c>
 8001632:   6822        ldr r2, [r4, #0]
 8001634:   6813        ldr r3, [r2, #0]
 8001636:   f443 7300   orr.w   r3, r3, #512    ; 0x200
 800163a:   6013        str r3, [r2, #0]
 800163c:   2001        movs    r0, #1
 800163e:   e7e8        b.n 8001612 <I2C_RequestMemoryWrite+0x3e>
 8001640:   2f01        cmp r7, #1
 8001642:   6823        ldr r3, [r4, #0]
 8001644:   d102        bne.n   800164c <I2C_RequestMemoryWrite+0x78>
 8001646:   b2ed        uxtb    r5, r5
 8001648:   611d        str r5, [r3, #16]
 800164a:   e7e2        b.n 8001612 <I2C_RequestMemoryWrite+0x3e>
 800164c:   0a2a        lsrs    r2, r5, #8
 800164e:   611a        str r2, [r3, #16]
 8001650:   9908        ldr r1, [sp, #32]
 8001652:   4620        mov r0, r4
 8001654:   f7ff ff97   bl  8001586 <I2C_WaitOnTXEFlagUntilTimeout>
 8001658:   2800        cmp r0, #0
 800165a:   d1e7        bne.n   800162c <I2C_RequestMemoryWrite+0x58>
 800165c:   6823        ldr r3, [r4, #0]
 800165e:   e7f2        b.n 8001646 <I2C_RequestMemoryWrite+0x72>
 8001660:   00010002    .word   0x00010002

08001664 <I2C_RequestMemoryRead>:
 8001664:   b5f7        push    {r0, r1, r2, r4, r5, r6, r7, lr}
 8001666:   461f        mov r7, r3
 8001668:   6803        ldr r3, [r0, #0]
 800166a:   4615        mov r5, r2
 800166c:   681a        ldr r2, [r3, #0]
 800166e:   460e        mov r6, r1
 8001670:   f442 6280   orr.w   r2, r2, #1024   ; 0x400
 8001674:   601a        str r2, [r3, #0]
 8001676:   681a        ldr r2, [r3, #0]
 8001678:   f04f 1101   mov.w   r1, #65537  ; 0x10001
 800167c:   f442 7280   orr.w   r2, r2, #256    ; 0x100
 8001680:   601a        str r2, [r3, #0]
 8001682:   9b08        ldr r3, [sp, #32]
 8001684:   2200        movs    r2, #0
 8001686:   4604        mov r4, r0
 8001688:   f7ff fef4   bl  8001474 <I2C_WaitOnFlagUntilTimeout>
 800168c:   b978        cbnz    r0, 80016ae <I2C_RequestMemoryRead+0x4a>
 800168e:   6823        ldr r3, [r4, #0]
 8001690:   b2f6        uxtb    r6, r6
 8001692:   f006 02fe   and.w   r2, r6, #254    ; 0xfe
 8001696:   611a        str r2, [r3, #16]
 8001698:   4928        ldr r1, [pc, #160]  ; (800173c <I2C_RequestMemoryRead+0xd8>)
 800169a:   9a08        ldr r2, [sp, #32]
 800169c:   4620        mov r0, r4
 800169e:   f7ff ff31   bl  8001504 <I2C_WaitOnMasterAddressFlagUntilTimeout>
 80016a2:   b138        cbz r0, 80016b4 <I2C_RequestMemoryRead+0x50>
 80016a4:   6ba3        ldr r3, [r4, #56]   ; 0x38
 80016a6:   2b04        cmp r3, #4
 80016a8:   d101        bne.n   80016ae <I2C_RequestMemoryRead+0x4a>
 80016aa:   2001        movs    r0, #1
 80016ac:   e000        b.n 80016b0 <I2C_RequestMemoryRead+0x4c>
 80016ae:   2003        movs    r0, #3
 80016b0:   b003        add sp, #12
 80016b2:   bdf0        pop {r4, r5, r6, r7, pc}
 80016b4:   6823        ldr r3, [r4, #0]
 80016b6:   9908        ldr r1, [sp, #32]
 80016b8:   695a        ldr r2, [r3, #20]
 80016ba:   4620        mov r0, r4
 80016bc:   9201        str r2, [sp, #4]
 80016be:   699b        ldr r3, [r3, #24]
 80016c0:   9301        str r3, [sp, #4]
 80016c2:   9b01        ldr r3, [sp, #4]
 80016c4:   f7ff ff5f   bl  8001586 <I2C_WaitOnTXEFlagUntilTimeout>
 80016c8:   b140        cbz r0, 80016dc <I2C_RequestMemoryRead+0x78>
 80016ca:   6ba3        ldr r3, [r4, #56]   ; 0x38
 80016cc:   2b04        cmp r3, #4
 80016ce:   d1ee        bne.n   80016ae <I2C_RequestMemoryRead+0x4a>
 80016d0:   6822        ldr r2, [r4, #0]
 80016d2:   6813        ldr r3, [r2, #0]
 80016d4:   f443 7300   orr.w   r3, r3, #512    ; 0x200
 80016d8:   6013        str r3, [r2, #0]
 80016da:   e7e6        b.n 80016aa <I2C_RequestMemoryRead+0x46>
 80016dc:   2f01        cmp r7, #1
 80016de:   6823        ldr r3, [r4, #0]
 80016e0:   d121        bne.n   8001726 <I2C_RequestMemoryRead+0xc2>
 80016e2:   b2ed        uxtb    r5, r5
 80016e4:   611d        str r5, [r3, #16]
 80016e6:   9908        ldr r1, [sp, #32]
 80016e8:   4620        mov r0, r4
 80016ea:   f7ff ff4c   bl  8001586 <I2C_WaitOnTXEFlagUntilTimeout>
 80016ee:   4602        mov r2, r0
 80016f0:   2800        cmp r0, #0
 80016f2:   d1ea        bne.n   80016ca <I2C_RequestMemoryRead+0x66>
 80016f4:   6821        ldr r1, [r4, #0]
 80016f6:   4620        mov r0, r4
 80016f8:   680b        ldr r3, [r1, #0]
 80016fa:   f443 7380   orr.w   r3, r3, #256    ; 0x100
 80016fe:   600b        str r3, [r1, #0]
 8001700:   9b08        ldr r3, [sp, #32]
 8001702:   f04f 1101   mov.w   r1, #65537  ; 0x10001
 8001706:   f7ff feb5   bl  8001474 <I2C_WaitOnFlagUntilTimeout>
 800170a:   2800        cmp r0, #0
 800170c:   d1cf        bne.n   80016ae <I2C_RequestMemoryRead+0x4a>
 800170e:   6823        ldr r3, [r4, #0]
 8001710:   f046 0601   orr.w   r6, r6, #1
 8001714:   611e        str r6, [r3, #16]
 8001716:   9a08        ldr r2, [sp, #32]
 8001718:   4908        ldr r1, [pc, #32]   ; (800173c <I2C_RequestMemoryRead+0xd8>)
 800171a:   4620        mov r0, r4
 800171c:   f7ff fef2   bl  8001504 <I2C_WaitOnMasterAddressFlagUntilTimeout>
 8001720:   2800        cmp r0, #0
 8001722:   d1bf        bne.n   80016a4 <I2C_RequestMemoryRead+0x40>
 8001724:   e7c4        b.n 80016b0 <I2C_RequestMemoryRead+0x4c>
 8001726:   0a2a        lsrs    r2, r5, #8
 8001728:   611a        str r2, [r3, #16]
 800172a:   9908        ldr r1, [sp, #32]
 800172c:   4620        mov r0, r4
 800172e:   f7ff ff2a   bl  8001586 <I2C_WaitOnTXEFlagUntilTimeout>
 8001732:   2800        cmp r0, #0
 8001734:   d1c9        bne.n   80016ca <I2C_RequestMemoryRead+0x66>
 8001736:   6823        ldr r3, [r4, #0]
 8001738:   e7d3        b.n 80016e2 <I2C_RequestMemoryRead+0x7e>
 800173a:   bf00        nop
 800173c:   00010002    .word   0x00010002

08001740 <I2C_WaitOnRXNEFlagUntilTimeout>:
 8001740:   b570        push    {r4, r5, r6, lr}
 8001742:   4604        mov r4, r0
 8001744:   460d        mov r5, r1
 8001746:   f7ff fd09   bl  800115c <HAL_GetTick>
 800174a:   4606        mov r6, r0
 800174c:   6822        ldr r2, [r4, #0]
 800174e:   6953        ldr r3, [r2, #20]
 8001750:   f013 0340   ands.w  r3, r3, #64 ; 0x40
 8001754:   d001        beq.n   800175a <I2C_WaitOnRXNEFlagUntilTimeout+0x1a>
 8001756:   2000        movs    r0, #0
 8001758:   bd70        pop {r4, r5, r6, pc}
 800175a:   6951        ldr r1, [r2, #20]
 800175c:   06c9        lsls    r1, r1, #27
 800175e:   d50b        bpl.n   8001778 <I2C_WaitOnRXNEFlagUntilTimeout+0x38>
 8001760:   6951        ldr r1, [r2, #20]
 8001762:   2001        movs    r0, #1
 8001764:   f021 0110   bic.w   r1, r1, #16
 8001768:   6151        str r1, [r2, #20]
 800176a:   2220        movs    r2, #32
 800176c:   63a3        str r3, [r4, #56]   ; 0x38
 800176e:   f884 3034   strb.w  r3, [r4, #52]   ; 0x34
 8001772:   f884 2035   strb.w  r2, [r4, #53]   ; 0x35
 8001776:   bd70        pop {r4, r5, r6, pc}
 8001778:   b95d        cbnz    r5, 8001792 <I2C_WaitOnRXNEFlagUntilTimeout+0x52>
 800177a:   6ba3        ldr r3, [r4, #56]   ; 0x38
 800177c:   2003        movs    r0, #3
 800177e:   f043 0320   orr.w   r3, r3, #32
 8001782:   63a3        str r3, [r4, #56]   ; 0x38
 8001784:   2320        movs    r3, #32
 8001786:   f884 3035   strb.w  r3, [r4, #53]   ; 0x35
 800178a:   2300        movs    r3, #0
 800178c:   f884 3034   strb.w  r3, [r4, #52]   ; 0x34
 8001790:   bd70        pop {r4, r5, r6, pc}
 8001792:   f7ff fce3   bl  800115c <HAL_GetTick>
 8001796:   1b80        subs    r0, r0, r6
 8001798:   4285        cmp r5, r0
 800179a:   d2d7        bcs.n   800174c <I2C_WaitOnRXNEFlagUntilTimeout+0xc>
 800179c:   e7ed        b.n 800177a <I2C_WaitOnRXNEFlagUntilTimeout+0x3a>
    ...

080017a0 <HAL_I2C_Init>:
 80017a0:   b570        push    {r4, r5, r6, lr}
 80017a2:   4604        mov r4, r0
 80017a4:   2800        cmp r0, #0
 80017a6:   d05f        beq.n   8001868 <HAL_I2C_Init+0xc8>
 80017a8:   f890 3035   ldrb.w  r3, [r0, #53]   ; 0x35
 80017ac:   f003 02ff   and.w   r2, r3, #255    ; 0xff
 80017b0:   b91b        cbnz    r3, 80017ba <HAL_I2C_Init+0x1a>
 80017b2:   f880 2034   strb.w  r2, [r0, #52]   ; 0x34
 80017b6:   f003 fc6d   bl  8005094 <HAL_I2C_MspInit>
 80017ba:   2324        movs    r3, #36 ; 0x24
 80017bc:   6822        ldr r2, [r4, #0]
 80017be:   f884 3035   strb.w  r3, [r4, #53]   ; 0x35
 80017c2:   6813        ldr r3, [r2, #0]
 80017c4:   4e29        ldr r6, [pc, #164]  ; (800186c <HAL_I2C_Init+0xcc>)
 80017c6:   f023 0301   bic.w   r3, r3, #1
 80017ca:   6013        str r3, [r2, #0]
 80017cc:   f000 fd0a   bl  80021e4 <HAL_RCC_GetPCLK1Freq>
 80017d0:   6863        ldr r3, [r4, #4]
 80017d2:   4d27        ldr r5, [pc, #156]  ; (8001870 <HAL_I2C_Init+0xd0>)
 80017d4:   42b3        cmp r3, r6
 80017d6:   fbb0 f5f5   udiv    r5, r0, r5
 80017da:   bf88        it  hi
 80017dc:   f44f 7196   movhi.w r1, #300    ; 0x12c
 80017e0:   6822        ldr r2, [r4, #0]
 80017e2:   bf88        it  hi
 80017e4:   4369        mulhi   r1, r5
 80017e6:   6055        str r5, [r2, #4]
 80017e8:   bf85        ittet   hi
 80017ea:   f44f 757a   movhi.w r5, #1000   ; 0x3e8
 80017ee:   fbb1 f1f5   udivhi  r1, r1, r5
 80017f2:   1c69        addls   r1, r5, #1
 80017f4:   3101        addhi   r1, #1
 80017f6:   42b3        cmp r3, r6
 80017f8:   6211        str r1, [r2, #32]
 80017fa:   d820        bhi.n   800183e <HAL_I2C_Init+0x9e>
 80017fc:   005b        lsls    r3, r3, #1
 80017fe:   fbb0 f0f3   udiv    r0, r0, r3
 8001802:   f3c0 030b   ubfx    r3, r0, #0, #12
 8001806:   2b03        cmp r3, #3
 8001808:   bf98        it  ls
 800180a:   2004        movls   r0, #4
 800180c:   6a21        ldr r1, [r4, #32]
 800180e:   69e3        ldr r3, [r4, #28]
 8001810:   61d0        str r0, [r2, #28]
 8001812:   430b        orrs    r3, r1
 8001814:   6013        str r3, [r2, #0]
 8001816:   68e1        ldr r1, [r4, #12]
 8001818:   6923        ldr r3, [r4, #16]
 800181a:   2000        movs    r0, #0
 800181c:   430b        orrs    r3, r1
 800181e:   6093        str r3, [r2, #8]
 8001820:   69a1        ldr r1, [r4, #24]
 8001822:   6963        ldr r3, [r4, #20]
 8001824:   430b        orrs    r3, r1
 8001826:   60d3        str r3, [r2, #12]
 8001828:   6813        ldr r3, [r2, #0]
 800182a:   f043 0301   orr.w   r3, r3, #1
 800182e:   6013        str r3, [r2, #0]
 8001830:   2320        movs    r3, #32
 8001832:   63a0        str r0, [r4, #56]   ; 0x38
 8001834:   f884 3035   strb.w  r3, [r4, #53]   ; 0x35
 8001838:   f884 0036   strb.w  r0, [r4, #54]   ; 0x36
 800183c:   bd70        pop {r4, r5, r6, pc}
 800183e:   68a1        ldr r1, [r4, #8]
 8001840:   b959        cbnz    r1, 800185a <HAL_I2C_Init+0xba>
 8001842:   eb03 0343   add.w   r3, r3, r3, lsl #1
 8001846:   fbb0 f0f3   udiv    r0, r0, r3
 800184a:   f440 4000   orr.w   r0, r0, #32768  ; 0x8000
 800184e:   f3c0 030b   ubfx    r3, r0, #0, #12
 8001852:   2b00        cmp r3, #0
 8001854:   bf08        it  eq
 8001856:   2001        moveq   r0, #1
 8001858:   e7d8        b.n 800180c <HAL_I2C_Init+0x6c>
 800185a:   2119        movs    r1, #25
 800185c:   434b        muls    r3, r1
 800185e:   fbb0 f0f3   udiv    r0, r0, r3
 8001862:   f440 4040   orr.w   r0, r0, #49152  ; 0xc000
 8001866:   e7f2        b.n 800184e <HAL_I2C_Init+0xae>
 8001868:   2001        movs    r0, #1
 800186a:   bd70        pop {r4, r5, r6, pc}
 800186c:   000186a0    .word   0x000186a0
 8001870:   000f4240    .word   0x000f4240

08001874 <HAL_I2C_Mem_Write>:
 8001874:   e92d 4ff7   stmdb   sp!, {r0, r1, r2, r4, r5, r6, r7, r8, r9, sl, fp, lr}
 8001878:   469b        mov fp, r3
 800187a:   f890 3035   ldrb.w  r3, [r0, #53]   ; 0x35
 800187e:   4604        mov r4, r0
 8001880:   2b20        cmp r3, #32
 8001882:   4689        mov r9, r1
 8001884:   4692        mov sl, r2
 8001886:   9f0c        ldr r7, [sp, #48]   ; 0x30
 8001888:   f8bd 6034   ldrh.w  r6, [sp, #52]   ; 0x34
 800188c:   d003        beq.n   8001896 <HAL_I2C_Mem_Write+0x22>
 800188e:   2002        movs    r0, #2
 8001890:   b003        add sp, #12
 8001892:   e8bd 8ff0   ldmia.w sp!, {r4, r5, r6, r7, r8, r9, sl, fp, pc}
 8001896:   b357        cbz r7, 80018ee <HAL_I2C_Mem_Write+0x7a>
 8001898:   b34e        cbz r6, 80018ee <HAL_I2C_Mem_Write+0x7a>
 800189a:   f242 7310   movw    r3, #10000  ; 0x2710
 800189e:   2201        movs    r2, #1
 80018a0:   492f        ldr r1, [pc, #188]  ; (8001960 <HAL_I2C_Mem_Write+0xec>)
 80018a2:   f7ff fde7   bl  8001474 <I2C_WaitOnFlagUntilTimeout>
 80018a6:   4680        mov r8, r0
 80018a8:   2800        cmp r0, #0
 80018aa:   d1f0        bne.n   800188e <HAL_I2C_Mem_Write+0x1a>
 80018ac:   f894 3034   ldrb.w  r3, [r4, #52]   ; 0x34
 80018b0:   2b01        cmp r3, #1
 80018b2:   d0ec        beq.n   800188e <HAL_I2C_Mem_Write+0x1a>
 80018b4:   2501        movs    r5, #1
 80018b6:   6822        ldr r2, [r4, #0]
 80018b8:   f884 5034   strb.w  r5, [r4, #52]   ; 0x34
 80018bc:   6813        ldr r3, [r2, #0]
 80018be:   4649        mov r1, r9
 80018c0:   f423 6300   bic.w   r3, r3, #2048   ; 0x800
 80018c4:   6013        str r3, [r2, #0]
 80018c6:   2321        movs    r3, #33 ; 0x21
 80018c8:   f884 3035   strb.w  r3, [r4, #53]   ; 0x35
 80018cc:   2340        movs    r3, #64 ; 0x40
 80018ce:   f884 3036   strb.w  r3, [r4, #54]   ; 0x36
 80018d2:   9b0e        ldr r3, [sp, #56]   ; 0x38
 80018d4:   63a0        str r0, [r4, #56]   ; 0x38
 80018d6:   9300        str r3, [sp, #0]
 80018d8:   4652        mov r2, sl
 80018da:   465b        mov r3, fp
 80018dc:   4620        mov r0, r4
 80018de:   f7ff fe79   bl  80015d4 <I2C_RequestMemoryWrite>
 80018e2:   b188        cbz r0, 8001908 <HAL_I2C_Mem_Write+0x94>
 80018e4:   6ba3        ldr r3, [r4, #56]   ; 0x38
 80018e6:   f884 8034   strb.w  r8, [r4, #52]   ; 0x34
 80018ea:   2b04        cmp r3, #4
 80018ec:   d115        bne.n   800191a <HAL_I2C_Mem_Write+0xa6>
 80018ee:   2001        movs    r0, #1
 80018f0:   e7ce        b.n 8001890 <HAL_I2C_Mem_Write+0x1c>
 80018f2:   6822        ldr r2, [r4, #0]
 80018f4:   783b        ldrb    r3, [r7, #0]
 80018f6:   6113        str r3, [r2, #16]
 80018f8:   6951        ldr r1, [r2, #20]
 80018fa:   1e73        subs    r3, r6, #1
 80018fc:   0749        lsls    r1, r1, #29
 80018fe:   b29b        uxth    r3, r3
 8001900:   d40d        bmi.n   800191e <HAL_I2C_Mem_Write+0xaa>
 8001902:   461e        mov r6, r3
 8001904:   3701        adds    r7, #1
 8001906:   b15e        cbz r6, 8001920 <HAL_I2C_Mem_Write+0xac>
 8001908:   990e        ldr r1, [sp, #56]   ; 0x38
 800190a:   4620        mov r0, r4
 800190c:   f7ff fe3b   bl  8001586 <I2C_WaitOnTXEFlagUntilTimeout>
 8001910:   2800        cmp r0, #0
 8001912:   d0ee        beq.n   80018f2 <HAL_I2C_Mem_Write+0x7e>
 8001914:   6ba3        ldr r3, [r4, #56]   ; 0x38
 8001916:   2b04        cmp r3, #4
 8001918:   d01b        beq.n   8001952 <HAL_I2C_Mem_Write+0xde>
 800191a:   2003        movs    r0, #3
 800191c:   e7b8        b.n 8001890 <HAL_I2C_Mem_Write+0x1c>
 800191e:   b993        cbnz    r3, 8001946 <HAL_I2C_Mem_Write+0xd2>
 8001920:   990e        ldr r1, [sp, #56]   ; 0x38
 8001922:   4620        mov r0, r4
 8001924:   f7ff fe2f   bl  8001586 <I2C_WaitOnTXEFlagUntilTimeout>
 8001928:   2800        cmp r0, #0
 800192a:   d1f3        bne.n   8001914 <HAL_I2C_Mem_Write+0xa0>
 800192c:   6822        ldr r2, [r4, #0]
 800192e:   6813        ldr r3, [r2, #0]
 8001930:   f443 7300   orr.w   r3, r3, #512    ; 0x200
 8001934:   6013        str r3, [r2, #0]
 8001936:   2320        movs    r3, #32
 8001938:   f884 0034   strb.w  r0, [r4, #52]   ; 0x34
 800193c:   f884 3035   strb.w  r3, [r4, #53]   ; 0x35
 8001940:   f884 0036   strb.w  r0, [r4, #54]   ; 0x36
 8001944:   e7a4        b.n 8001890 <HAL_I2C_Mem_Write+0x1c>
 8001946:   787b        ldrb    r3, [r7, #1]
 8001948:   3e02        subs    r6, #2
 800194a:   6113        str r3, [r2, #16]
 800194c:   b2b6        uxth    r6, r6
 800194e:   3702        adds    r7, #2
 8001950:   e7d9        b.n 8001906 <HAL_I2C_Mem_Write+0x92>
 8001952:   6822        ldr r2, [r4, #0]
 8001954:   6813        ldr r3, [r2, #0]
 8001956:   f443 7300   orr.w   r3, r3, #512    ; 0x200
 800195a:   6013        str r3, [r2, #0]
 800195c:   e7c7        b.n 80018ee <HAL_I2C_Mem_Write+0x7a>
 800195e:   bf00        nop
 8001960:   00100002    .word   0x00100002

08001964 <HAL_I2C_Mem_Read>:
 8001964:   e92d 4ff0   stmdb   sp!, {r4, r5, r6, r7, r8, r9, sl, fp, lr}
 8001968:   469b        mov fp, r3
 800196a:   f890 3035   ldrb.w  r3, [r0, #53]   ; 0x35
 800196e:   b089        sub sp, #36 ; 0x24
 8001970:   2b20        cmp r3, #32
 8001972:   4604        mov r4, r0
 8001974:   9103        str r1, [sp, #12]
 8001976:   4692        mov sl, r2
 8001978:   9e12        ldr r6, [sp, #72]   ; 0x48
 800197a:   f8bd 504c   ldrh.w  r5, [sp, #76]   ; 0x4c
 800197e:   9f14        ldr r7, [sp, #80]   ; 0x50
 8001980:   d005        beq.n   800198e <HAL_I2C_Mem_Read+0x2a>
 8001982:   f04f 0a02   mov.w   sl, #2
 8001986:   4650        mov r0, sl
 8001988:   b009        add sp, #36 ; 0x24
 800198a:   e8bd 8ff0   ldmia.w sp!, {r4, r5, r6, r7, r8, r9, sl, fp, pc}
 800198e:   b35e        cbz r6, 80019e8 <HAL_I2C_Mem_Read+0x84>
 8001990:   b355        cbz r5, 80019e8 <HAL_I2C_Mem_Read+0x84>
 8001992:   f242 7310   movw    r3, #10000  ; 0x2710
 8001996:   2201        movs    r2, #1
 8001998:   4962        ldr r1, [pc, #392]  ; (8001b24 <HAL_I2C_Mem_Read+0x1c0>)
 800199a:   f7ff fd6b   bl  8001474 <I2C_WaitOnFlagUntilTimeout>
 800199e:   4680        mov r8, r0
 80019a0:   2800        cmp r0, #0
 80019a2:   d1ee        bne.n   8001982 <HAL_I2C_Mem_Read+0x1e>
 80019a4:   f894 3034   ldrb.w  r3, [r4, #52]   ; 0x34
 80019a8:   2b01        cmp r3, #1
 80019aa:   d0ea        beq.n   8001982 <HAL_I2C_Mem_Read+0x1e>
 80019ac:   f04f 0901   mov.w   r9, #1
 80019b0:   6822        ldr r2, [r4, #0]
 80019b2:   f884 9034   strb.w  r9, [r4, #52]   ; 0x34
 80019b6:   6813        ldr r3, [r2, #0]
 80019b8:   9903        ldr r1, [sp, #12]
 80019ba:   f423 6300   bic.w   r3, r3, #2048   ; 0x800
 80019be:   6013        str r3, [r2, #0]
 80019c0:   2322        movs    r3, #34 ; 0x22
 80019c2:   f884 3035   strb.w  r3, [r4, #53]   ; 0x35
 80019c6:   2340        movs    r3, #64 ; 0x40
 80019c8:   4652        mov r2, sl
 80019ca:   f884 3036   strb.w  r3, [r4, #54]   ; 0x36
 80019ce:   9700        str r7, [sp, #0]
 80019d0:   63a0        str r0, [r4, #56]   ; 0x38
 80019d2:   465b        mov r3, fp
 80019d4:   4620        mov r0, r4
 80019d6:   f7ff fe45   bl  8001664 <I2C_RequestMemoryRead>
 80019da:   4682        mov sl, r0
 80019dc:   b138        cbz r0, 80019ee <HAL_I2C_Mem_Read+0x8a>
 80019de:   6ba3        ldr r3, [r4, #56]   ; 0x38
 80019e0:   f884 8034   strb.w  r8, [r4, #52]   ; 0x34
 80019e4:   2b04        cmp r3, #4
 80019e6:   d11e        bne.n   8001a26 <HAL_I2C_Mem_Read+0xc2>
 80019e8:   f04f 0a01   mov.w   sl, #1
 80019ec:   e7cb        b.n 8001986 <HAL_I2C_Mem_Read+0x22>
 80019ee:   6823        ldr r3, [r4, #0]
 80019f0:   2d01        cmp r5, #1
 80019f2:   681a        ldr r2, [r3, #0]
 80019f4:   d11a        bne.n   8001a2c <HAL_I2C_Mem_Read+0xc8>
 80019f6:   f422 6280   bic.w   r2, r2, #1024   ; 0x400
 80019fa:   601a        str r2, [r3, #0]
 80019fc:   b672        cpsid   i
 80019fe:   6823        ldr r3, [r4, #0]
 8001a00:   695a        ldr r2, [r3, #20]
 8001a02:   9205        str r2, [sp, #20]
 8001a04:   699a        ldr r2, [r3, #24]
 8001a06:   9205        str r2, [sp, #20]
 8001a08:   9a05        ldr r2, [sp, #20]
 8001a0a:   681a        ldr r2, [r3, #0]
 8001a0c:   f442 7200   orr.w   r2, r2, #512    ; 0x200
 8001a10:   601a        str r2, [r3, #0]
 8001a12:   b662        cpsie   i
 8001a14:   4639        mov r1, r7
 8001a16:   4620        mov r0, r4
 8001a18:   f7ff fe92   bl  8001740 <I2C_WaitOnRXNEFlagUntilTimeout>
 8001a1c:   2800        cmp r0, #0
 8001a1e:   d04d        beq.n   8001abc <HAL_I2C_Mem_Read+0x158>
 8001a20:   6ba3        ldr r3, [r4, #56]   ; 0x38
 8001a22:   2b20        cmp r3, #32
 8001a24:   d1e0        bne.n   80019e8 <HAL_I2C_Mem_Read+0x84>
 8001a26:   f04f 0a03   mov.w   sl, #3
 8001a2a:   e7ac        b.n 8001986 <HAL_I2C_Mem_Read+0x22>
 8001a2c:   2d02        cmp r5, #2
 8001a2e:   d123        bne.n   8001a78 <HAL_I2C_Mem_Read+0x114>
 8001a30:   f442 6200   orr.w   r2, r2, #2048   ; 0x800
 8001a34:   601a        str r2, [r3, #0]
 8001a36:   b672        cpsid   i
 8001a38:   6823        ldr r3, [r4, #0]
 8001a3a:   695a        ldr r2, [r3, #20]
 8001a3c:   9206        str r2, [sp, #24]
 8001a3e:   699a        ldr r2, [r3, #24]
 8001a40:   9206        str r2, [sp, #24]
 8001a42:   9a06        ldr r2, [sp, #24]
 8001a44:   681a        ldr r2, [r3, #0]
 8001a46:   f422 6280   bic.w   r2, r2, #1024   ; 0x400
 8001a4a:   601a        str r2, [r3, #0]
 8001a4c:   b662        cpsie   i
 8001a4e:   463b        mov r3, r7
 8001a50:   2200        movs    r2, #0
 8001a52:   4935        ldr r1, [pc, #212]  ; (8001b28 <HAL_I2C_Mem_Read+0x1c4>)
 8001a54:   4620        mov r0, r4
 8001a56:   f7ff fd0d   bl  8001474 <I2C_WaitOnFlagUntilTimeout>
 8001a5a:   2800        cmp r0, #0
 8001a5c:   d1e3        bne.n   8001a26 <HAL_I2C_Mem_Read+0xc2>
 8001a5e:   b672        cpsid   i
 8001a60:   6823        ldr r3, [r4, #0]
 8001a62:   681a        ldr r2, [r3, #0]
 8001a64:   f442 7200   orr.w   r2, r2, #512    ; 0x200
 8001a68:   601a        str r2, [r3, #0]
 8001a6a:   691b        ldr r3, [r3, #16]
 8001a6c:   7033        strb    r3, [r6, #0]
 8001a6e:   b662        cpsie   i
 8001a70:   6823        ldr r3, [r4, #0]
 8001a72:   691b        ldr r3, [r3, #16]
 8001a74:   7073        strb    r3, [r6, #1]
 8001a76:   e024        b.n 8001ac2 <HAL_I2C_Mem_Read+0x15e>
 8001a78:   f442 6280   orr.w   r2, r2, #1024   ; 0x400
 8001a7c:   601a        str r2, [r3, #0]
 8001a7e:   695a        ldr r2, [r3, #20]
 8001a80:   9207        str r2, [sp, #28]
 8001a82:   699b        ldr r3, [r3, #24]
 8001a84:   9307        str r3, [sp, #28]
 8001a86:   9b07        ldr r3, [sp, #28]
 8001a88:   2d03        cmp r5, #3
 8001a8a:   d923        bls.n   8001ad4 <HAL_I2C_Mem_Read+0x170>
 8001a8c:   4639        mov r1, r7
 8001a8e:   4620        mov r0, r4
 8001a90:   f7ff fe56   bl  8001740 <I2C_WaitOnRXNEFlagUntilTimeout>
 8001a94:   2800        cmp r0, #0
 8001a96:   d1c3        bne.n   8001a20 <HAL_I2C_Mem_Read+0xbc>
 8001a98:   6823        ldr r3, [r4, #0]
 8001a9a:   691b        ldr r3, [r3, #16]
 8001a9c:   7033        strb    r3, [r6, #0]
 8001a9e:   6822        ldr r2, [r4, #0]
 8001aa0:   6953        ldr r3, [r2, #20]
 8001aa2:   075b        lsls    r3, r3, #29
 8001aa4:   bf4d        iteet   mi
 8001aa6:   6912        ldrmi   r2, [r2, #16]
 8001aa8:   1c73        addpl   r3, r6, #1
 8001aaa:   f105 35ff   addpl.w r5, r5, #4294967295 ; 0xffffffff
 8001aae:   1cb3        addmi   r3, r6, #2
 8001ab0:   bf44        itt mi
 8001ab2:   3d02        submi   r5, #2
 8001ab4:   7072        strbmi  r2, [r6, #1]
 8001ab6:   b2ad        uxth    r5, r5
 8001ab8:   461e        mov r6, r3
 8001aba:   e7e5        b.n 8001a88 <HAL_I2C_Mem_Read+0x124>
 8001abc:   6823        ldr r3, [r4, #0]
 8001abe:   691b        ldr r3, [r3, #16]
 8001ac0:   7033        strb    r3, [r6, #0]
 8001ac2:   2320        movs    r3, #32
 8001ac4:   f884 3035   strb.w  r3, [r4, #53]   ; 0x35
 8001ac8:   2300        movs    r3, #0
 8001aca:   f884 3036   strb.w  r3, [r4, #54]   ; 0x36
 8001ace:   f884 3034   strb.w  r3, [r4, #52]   ; 0x34
 8001ad2:   e758        b.n 8001986 <HAL_I2C_Mem_Read+0x22>
 8001ad4:   2d02        cmp r5, #2
 8001ad6:   d0ba        beq.n   8001a4e <HAL_I2C_Mem_Read+0xea>
 8001ad8:   2200        movs    r2, #0
 8001ada:   463b        mov r3, r7
 8001adc:   4912        ldr r1, [pc, #72]   ; (8001b28 <HAL_I2C_Mem_Read+0x1c4>)
 8001ade:   4620        mov r0, r4
 8001ae0:   f7ff fcc8   bl  8001474 <I2C_WaitOnFlagUntilTimeout>
 8001ae4:   4602        mov r2, r0
 8001ae6:   2800        cmp r0, #0
 8001ae8:   d19d        bne.n   8001a26 <HAL_I2C_Mem_Read+0xc2>
 8001aea:   6821        ldr r1, [r4, #0]
 8001aec:   680b        ldr r3, [r1, #0]
 8001aee:   f423 6380   bic.w   r3, r3, #1024   ; 0x400
 8001af2:   600b        str r3, [r1, #0]
 8001af4:   b672        cpsid   i
 8001af6:   6823        ldr r3, [r4, #0]
 8001af8:   490b        ldr r1, [pc, #44]   ; (8001b28 <HAL_I2C_Mem_Read+0x1c4>)
 8001afa:   691b        ldr r3, [r3, #16]
 8001afc:   4620        mov r0, r4
 8001afe:   7033        strb    r3, [r6, #0]
 8001b00:   463b        mov r3, r7
 8001b02:   f7ff fcb7   bl  8001474 <I2C_WaitOnFlagUntilTimeout>
 8001b06:   2800        cmp r0, #0
 8001b08:   d18d        bne.n   8001a26 <HAL_I2C_Mem_Read+0xc2>
 8001b0a:   6823        ldr r3, [r4, #0]
 8001b0c:   681a        ldr r2, [r3, #0]
 8001b0e:   f442 7200   orr.w   r2, r2, #512    ; 0x200
 8001b12:   601a        str r2, [r3, #0]
 8001b14:   691b        ldr r3, [r3, #16]
 8001b16:   7073        strb    r3, [r6, #1]
 8001b18:   b662        cpsie   i
 8001b1a:   6823        ldr r3, [r4, #0]
 8001b1c:   691b        ldr r3, [r3, #16]
 8001b1e:   70b3        strb    r3, [r6, #2]
 8001b20:   e7cf        b.n 8001ac2 <HAL_I2C_Mem_Read+0x15e>
 8001b22:   bf00        nop
 8001b24:   00100002    .word   0x00100002
 8001b28:   00010004    .word   0x00010004

08001b2c <HAL_RCC_OscConfig>:
 8001b2c:   6803        ldr r3, [r0, #0]
 8001b2e:   e92d 43f7   stmdb   sp!, {r0, r1, r2, r4, r5, r6, r7, r8, r9, lr}
 8001b32:   07de        lsls    r6, r3, #31
 8001b34:   4605        mov r5, r0
 8001b36:   d434        bmi.n   8001ba2 <HAL_RCC_OscConfig+0x76>
 8001b38:   682b        ldr r3, [r5, #0]
 8001b3a:   079c        lsls    r4, r3, #30
 8001b3c:   f100 80a7   bmi.w   8001c8e <HAL_RCC_OscConfig+0x162>
 8001b40:   682b        ldr r3, [r5, #0]
 8001b42:   071a        lsls    r2, r3, #28
 8001b44:   d523        bpl.n   8001b8e <HAL_RCC_OscConfig+0x62>
 8001b46:   69aa        ldr r2, [r5, #24]
 8001b48:   4cbe        ldr r4, [pc, #760]  ; (8001e44 <HAL_RCC_OscConfig+0x318>)
 8001b4a:   2301        movs    r3, #1
 8001b4c:   49be        ldr r1, [pc, #760]  ; (8001e48 <HAL_RCC_OscConfig+0x31c>)
 8001b4e:   2a00        cmp r2, #0
 8001b50:   f000 8115   beq.w   8001d7e <HAL_RCC_OscConfig+0x252>
 8001b54:   fa93 f2a3   rbit    r2, r3
 8001b58:   fab2 f282   clz r2, r2
 8001b5c:   f841 3022   str.w   r3, [r1, r2, lsl #2]
 8001b60:   f7ff fafc   bl  800115c <HAL_GetTick>
 8001b64:   2602        movs    r6, #2
 8001b66:   4607        mov r7, r0
 8001b68:   fa96 f3a6   rbit    r3, r6
 8001b6c:   fa96 f3a6   rbit    r3, r6
 8001b70:   6a62        ldr r2, [r4, #36]   ; 0x24
 8001b72:   fa96 f3a6   rbit    r3, r6
 8001b76:   fab3 f383   clz r3, r3
 8001b7a:   f003 031f   and.w   r3, r3, #31
 8001b7e:   fa22 f303   lsr.w   r3, r2, r3
 8001b82:   07db        lsls    r3, r3, #31
 8001b84:   f140 80f4   bpl.w   8001d70 <HAL_RCC_OscConfig+0x244>
 8001b88:   2001        movs    r0, #1
 8001b8a:   f7ff faed   bl  8001168 <HAL_Delay>
 8001b8e:   682b        ldr r3, [r5, #0]
 8001b90:   0759        lsls    r1, r3, #29
 8001b92:   f100 8114   bmi.w   8001dbe <HAL_RCC_OscConfig+0x292>
 8001b96:   69ea        ldr r2, [r5, #28]
 8001b98:   2a00        cmp r2, #0
 8001b9a:   f040 8193   bne.w   8001ec4 <HAL_RCC_OscConfig+0x398>
 8001b9e:   2000        movs    r0, #0
 8001ba0:   e020        b.n 8001be4 <HAL_RCC_OscConfig+0xb8>
 8001ba2:   4ca8        ldr r4, [pc, #672]  ; (8001e44 <HAL_RCC_OscConfig+0x318>)
 8001ba4:   6863        ldr r3, [r4, #4]
 8001ba6:   f003 030c   and.w   r3, r3, #12
 8001baa:   2b04        cmp r3, #4
 8001bac:   d007        beq.n   8001bbe <HAL_RCC_OscConfig+0x92>
 8001bae:   6863        ldr r3, [r4, #4]
 8001bb0:   f003 030c   and.w   r3, r3, #12
 8001bb4:   2b08        cmp r3, #8
 8001bb6:   d118        bne.n   8001bea <HAL_RCC_OscConfig+0xbe>
 8001bb8:   6863        ldr r3, [r4, #4]
 8001bba:   03d8        lsls    r0, r3, #15
 8001bbc:   d515        bpl.n   8001bea <HAL_RCC_OscConfig+0xbe>
 8001bbe:   f44f 3300   mov.w   r3, #131072 ; 0x20000
 8001bc2:   fa93 f2a3   rbit    r2, r3
 8001bc6:   6822        ldr r2, [r4, #0]
 8001bc8:   fa93 f3a3   rbit    r3, r3
 8001bcc:   fab3 f383   clz r3, r3
 8001bd0:   f003 031f   and.w   r3, r3, #31
 8001bd4:   fa22 f303   lsr.w   r3, r2, r3
 8001bd8:   07d9        lsls    r1, r3, #31
 8001bda:   d5ad        bpl.n   8001b38 <HAL_RCC_OscConfig+0xc>
 8001bdc:   686b        ldr r3, [r5, #4]
 8001bde:   2b00        cmp r3, #0
 8001be0:   d1aa        bne.n   8001b38 <HAL_RCC_OscConfig+0xc>
 8001be2:   2001        movs    r0, #1
 8001be4:   b003        add sp, #12
 8001be6:   e8bd 83f0   ldmia.w sp!, {r4, r5, r6, r7, r8, r9, pc}
 8001bea:   686b        ldr r3, [r5, #4]
 8001bec:   f5b3 3f80   cmp.w   r3, #65536  ; 0x10000
 8001bf0:   d11c        bne.n   8001c2c <HAL_RCC_OscConfig+0x100>
 8001bf2:   6823        ldr r3, [r4, #0]
 8001bf4:   f443 3380   orr.w   r3, r3, #65536  ; 0x10000
 8001bf8:   6023        str r3, [r4, #0]
 8001bfa:   f7ff faaf   bl  800115c <HAL_GetTick>
 8001bfe:   f44f 3600   mov.w   r6, #131072 ; 0x20000
 8001c02:   4607        mov r7, r0
 8001c04:   fa96 f3a6   rbit    r3, r6
 8001c08:   6822        ldr r2, [r4, #0]
 8001c0a:   fa96 f3a6   rbit    r3, r6
 8001c0e:   fab3 f383   clz r3, r3
 8001c12:   f003 031f   and.w   r3, r3, #31
 8001c16:   fa22 f303   lsr.w   r3, r2, r3
 8001c1a:   07da        lsls    r2, r3, #31
 8001c1c:   d48c        bmi.n   8001b38 <HAL_RCC_OscConfig+0xc>
 8001c1e:   f7ff fa9d   bl  800115c <HAL_GetTick>
 8001c22:   1bc0        subs    r0, r0, r7
 8001c24:   2864        cmp r0, #100    ; 0x64
 8001c26:   d9ed        bls.n   8001c04 <HAL_RCC_OscConfig+0xd8>
 8001c28:   2003        movs    r0, #3
 8001c2a:   e7db        b.n 8001be4 <HAL_RCC_OscConfig+0xb8>
 8001c2c:   bb03        cbnz    r3, 8001c70 <HAL_RCC_OscConfig+0x144>
 8001c2e:   6823        ldr r3, [r4, #0]
 8001c30:   f44f 3600   mov.w   r6, #131072 ; 0x20000
 8001c34:   f423 3380   bic.w   r3, r3, #65536  ; 0x10000
 8001c38:   6023        str r3, [r4, #0]
 8001c3a:   6823        ldr r3, [r4, #0]
 8001c3c:   f423 2380   bic.w   r3, r3, #262144 ; 0x40000
 8001c40:   6023        str r3, [r4, #0]
 8001c42:   f7ff fa8b   bl  800115c <HAL_GetTick>
 8001c46:   4607        mov r7, r0
 8001c48:   fa96 f3a6   rbit    r3, r6
 8001c4c:   6822        ldr r2, [r4, #0]
 8001c4e:   fa96 f3a6   rbit    r3, r6
 8001c52:   fab3 f383   clz r3, r3
 8001c56:   f003 031f   and.w   r3, r3, #31
 8001c5a:   fa22 f303   lsr.w   r3, r2, r3
 8001c5e:   07db        lsls    r3, r3, #31
 8001c60:   f57f af6a   bpl.w   8001b38 <HAL_RCC_OscConfig+0xc>
 8001c64:   f7ff fa7a   bl  800115c <HAL_GetTick>
 8001c68:   1bc0        subs    r0, r0, r7
 8001c6a:   2864        cmp r0, #100    ; 0x64
 8001c6c:   d9ec        bls.n   8001c48 <HAL_RCC_OscConfig+0x11c>
 8001c6e:   e7db        b.n 8001c28 <HAL_RCC_OscConfig+0xfc>
 8001c70:   f5b3 2fa0   cmp.w   r3, #327680 ; 0x50000
 8001c74:   6823        ldr r3, [r4, #0]
 8001c76:   d103        bne.n   8001c80 <HAL_RCC_OscConfig+0x154>
 8001c78:   f443 2380   orr.w   r3, r3, #262144 ; 0x40000
 8001c7c:   6023        str r3, [r4, #0]
 8001c7e:   e7b8        b.n 8001bf2 <HAL_RCC_OscConfig+0xc6>
 8001c80:   f423 3380   bic.w   r3, r3, #65536  ; 0x10000
 8001c84:   6023        str r3, [r4, #0]
 8001c86:   6823        ldr r3, [r4, #0]
 8001c88:   f423 2380   bic.w   r3, r3, #262144 ; 0x40000
 8001c8c:   e7b4        b.n 8001bf8 <HAL_RCC_OscConfig+0xcc>
 8001c8e:   4c6d        ldr r4, [pc, #436]  ; (8001e44 <HAL_RCC_OscConfig+0x318>)
 8001c90:   6863        ldr r3, [r4, #4]
 8001c92:   f013 0f0c   tst.w   r3, #12
 8001c96:   d007        beq.n   8001ca8 <HAL_RCC_OscConfig+0x17c>
 8001c98:   6863        ldr r3, [r4, #4]
 8001c9a:   f003 030c   and.w   r3, r3, #12
 8001c9e:   2b08        cmp r3, #8
 8001ca0:   d120        bne.n   8001ce4 <HAL_RCC_OscConfig+0x1b8>
 8001ca2:   6863        ldr r3, [r4, #4]
 8001ca4:   03df        lsls    r7, r3, #15
 8001ca6:   d41d        bmi.n   8001ce4 <HAL_RCC_OscConfig+0x1b8>
 8001ca8:   2302        movs    r3, #2
 8001caa:   fa93 f2a3   rbit    r2, r3
 8001cae:   6822        ldr r2, [r4, #0]
 8001cb0:   fa93 f3a3   rbit    r3, r3
 8001cb4:   fab3 f383   clz r3, r3
 8001cb8:   f003 031f   and.w   r3, r3, #31
 8001cbc:   fa22 f303   lsr.w   r3, r2, r3
 8001cc0:   07de        lsls    r6, r3, #31
 8001cc2:   d502        bpl.n   8001cca <HAL_RCC_OscConfig+0x19e>
 8001cc4:   692b        ldr r3, [r5, #16]
 8001cc6:   2b01        cmp r3, #1
 8001cc8:   d18b        bne.n   8001be2 <HAL_RCC_OscConfig+0xb6>
 8001cca:   6821        ldr r1, [r4, #0]
 8001ccc:   23f8        movs    r3, #248    ; 0xf8
 8001cce:   fa93 f3a3   rbit    r3, r3
 8001cd2:   fab3 f283   clz r2, r3
 8001cd6:   696b        ldr r3, [r5, #20]
 8001cd8:   4093        lsls    r3, r2
 8001cda:   f021 02f8   bic.w   r2, r1, #248    ; 0xf8
 8001cde:   4313        orrs    r3, r2
 8001ce0:   6023        str r3, [r4, #0]
 8001ce2:   e72d        b.n 8001b40 <HAL_RCC_OscConfig+0x14>
 8001ce4:   692a        ldr r2, [r5, #16]
 8001ce6:   2301        movs    r3, #1
 8001ce8:   b302        cbz r2, 8001d2c <HAL_RCC_OscConfig+0x200>
 8001cea:   fa93 f2a3   rbit    r2, r3
 8001cee:   fab2 f282   clz r2, r2
 8001cf2:   0092        lsls    r2, r2, #2
 8001cf4:   f102 4284   add.w   r2, r2, #1107296256 ; 0x42000000
 8001cf8:   f502 0284   add.w   r2, r2, #4325376    ; 0x420000
 8001cfc:   6013        str r3, [r2, #0]
 8001cfe:   f7ff fa2d   bl  800115c <HAL_GetTick>
 8001d02:   2602        movs    r6, #2
 8001d04:   4607        mov r7, r0
 8001d06:   fa96 f3a6   rbit    r3, r6
 8001d0a:   6822        ldr r2, [r4, #0]
 8001d0c:   fa96 f3a6   rbit    r3, r6
 8001d10:   fab3 f383   clz r3, r3
 8001d14:   f003 031f   and.w   r3, r3, #31
 8001d18:   fa22 f303   lsr.w   r3, r2, r3
 8001d1c:   07d8        lsls    r0, r3, #31
 8001d1e:   d4d4        bmi.n   8001cca <HAL_RCC_OscConfig+0x19e>
 8001d20:   f7ff fa1c   bl  800115c <HAL_GetTick>
 8001d24:   1bc0        subs    r0, r0, r7
 8001d26:   2802        cmp r0, #2
 8001d28:   d9ed        bls.n   8001d06 <HAL_RCC_OscConfig+0x1da>
 8001d2a:   e77d        b.n 8001c28 <HAL_RCC_OscConfig+0xfc>
 8001d2c:   fa93 f3a3   rbit    r3, r3
 8001d30:   fab3 f383   clz r3, r3
 8001d34:   009b        lsls    r3, r3, #2
 8001d36:   f103 4384   add.w   r3, r3, #1107296256 ; 0x42000000
 8001d3a:   f503 0384   add.w   r3, r3, #4325376    ; 0x420000
 8001d3e:   601a        str r2, [r3, #0]
 8001d40:   f7ff fa0c   bl  800115c <HAL_GetTick>
 8001d44:   2602        movs    r6, #2
 8001d46:   4607        mov r7, r0
 8001d48:   fa96 f3a6   rbit    r3, r6
 8001d4c:   6822        ldr r2, [r4, #0]
 8001d4e:   fa96 f3a6   rbit    r3, r6
 8001d52:   fab3 f383   clz r3, r3
 8001d56:   f003 031f   and.w   r3, r3, #31
 8001d5a:   fa22 f303   lsr.w   r3, r2, r3
 8001d5e:   07d9        lsls    r1, r3, #31
 8001d60:   f57f aeee   bpl.w   8001b40 <HAL_RCC_OscConfig+0x14>
 8001d64:   f7ff f9fa   bl  800115c <HAL_GetTick>
 8001d68:   1bc0        subs    r0, r0, r7
 8001d6a:   2802        cmp r0, #2
 8001d6c:   d9ec        bls.n   8001d48 <HAL_RCC_OscConfig+0x21c>
 8001d6e:   e75b        b.n 8001c28 <HAL_RCC_OscConfig+0xfc>
 8001d70:   f7ff f9f4   bl  800115c <HAL_GetTick>
 8001d74:   1bc0        subs    r0, r0, r7
 8001d76:   2802        cmp r0, #2
 8001d78:   f67f aef6   bls.w   8001b68 <HAL_RCC_OscConfig+0x3c>
 8001d7c:   e754        b.n 8001c28 <HAL_RCC_OscConfig+0xfc>
 8001d7e:   fa93 f3a3   rbit    r3, r3
 8001d82:   fab3 f383   clz r3, r3
 8001d86:   f841 2023   str.w   r2, [r1, r3, lsl #2]
 8001d8a:   f7ff f9e7   bl  800115c <HAL_GetTick>
 8001d8e:   2602        movs    r6, #2
 8001d90:   4607        mov r7, r0
 8001d92:   fa96 f3a6   rbit    r3, r6
 8001d96:   fa96 f3a6   rbit    r3, r6
 8001d9a:   6a62        ldr r2, [r4, #36]   ; 0x24
 8001d9c:   fa96 f3a6   rbit    r3, r6
 8001da0:   fab3 f383   clz r3, r3
 8001da4:   f003 031f   and.w   r3, r3, #31
 8001da8:   fa22 f303   lsr.w   r3, r2, r3
 8001dac:   07d8        lsls    r0, r3, #31
 8001dae:   f57f aeee   bpl.w   8001b8e <HAL_RCC_OscConfig+0x62>
 8001db2:   f7ff f9d3   bl  800115c <HAL_GetTick>
 8001db6:   1bc0        subs    r0, r0, r7
 8001db8:   2802        cmp r0, #2
 8001dba:   d9ea        bls.n   8001d92 <HAL_RCC_OscConfig+0x266>
 8001dbc:   e734        b.n 8001c28 <HAL_RCC_OscConfig+0xfc>
 8001dbe:   4c21        ldr r4, [pc, #132]  ; (8001e44 <HAL_RCC_OscConfig+0x318>)
 8001dc0:   4e22        ldr r6, [pc, #136]  ; (8001e4c <HAL_RCC_OscConfig+0x320>)
 8001dc2:   69e3        ldr r3, [r4, #28]
 8001dc4:   f043 5380   orr.w   r3, r3, #268435456  ; 0x10000000
 8001dc8:   61e3        str r3, [r4, #28]
 8001dca:   69e3        ldr r3, [r4, #28]
 8001dcc:   f003 5380   and.w   r3, r3, #268435456  ; 0x10000000
 8001dd0:   9301        str r3, [sp, #4]
 8001dd2:   9b01        ldr r3, [sp, #4]
 8001dd4:   6833        ldr r3, [r6, #0]
 8001dd6:   f443 7380   orr.w   r3, r3, #256    ; 0x100
 8001dda:   6033        str r3, [r6, #0]
 8001ddc:   f7ff f9be   bl  800115c <HAL_GetTick>
 8001de0:   4607        mov r7, r0
 8001de2:   6833        ldr r3, [r6, #0]
 8001de4:   05da        lsls    r2, r3, #23
 8001de6:   d526        bpl.n   8001e36 <HAL_RCC_OscConfig+0x30a>
 8001de8:   68eb        ldr r3, [r5, #12]
 8001dea:   2b01        cmp r3, #1
 8001dec:   d130        bne.n   8001e50 <HAL_RCC_OscConfig+0x324>
 8001dee:   6a23        ldr r3, [r4, #32]
 8001df0:   f043 0301   orr.w   r3, r3, #1
 8001df4:   6223        str r3, [r4, #32]
 8001df6:   f7ff f9b1   bl  800115c <HAL_GetTick>
 8001dfa:   2602        movs    r6, #2
 8001dfc:   4681        mov r9, r0
 8001dfe:   46b0        mov r8, r6
 8001e00:   f241 3788   movw    r7, #5000   ; 0x1388
 8001e04:   fa96 f3a6   rbit    r3, r6
 8001e08:   fa96 f3a6   rbit    r3, r6
 8001e0c:   2b00        cmp r3, #0
 8001e0e:   d055        beq.n   8001ebc <HAL_RCC_OscConfig+0x390>
 8001e10:   6a22        ldr r2, [r4, #32]
 8001e12:   fa98 f3a8   rbit    r3, r8
 8001e16:   fab3 f383   clz r3, r3
 8001e1a:   f003 031f   and.w   r3, r3, #31
 8001e1e:   fa22 f303   lsr.w   r3, r2, r3
 8001e22:   07db        lsls    r3, r3, #31
 8001e24:   f53f aeb7   bmi.w   8001b96 <HAL_RCC_OscConfig+0x6a>
 8001e28:   f7ff f998   bl  800115c <HAL_GetTick>
 8001e2c:   eba0 0009   sub.w   r0, r0, r9
 8001e30:   42b8        cmp r0, r7
 8001e32:   d9e7        bls.n   8001e04 <HAL_RCC_OscConfig+0x2d8>
 8001e34:   e6f8        b.n 8001c28 <HAL_RCC_OscConfig+0xfc>
 8001e36:   f7ff f991   bl  800115c <HAL_GetTick>
 8001e3a:   1bc0        subs    r0, r0, r7
 8001e3c:   2864        cmp r0, #100    ; 0x64
 8001e3e:   d9d0        bls.n   8001de2 <HAL_RCC_OscConfig+0x2b6>
 8001e40:   e6f2        b.n 8001c28 <HAL_RCC_OscConfig+0xfc>
 8001e42:   bf00        nop
 8001e44:   40021000    .word   0x40021000
 8001e48:   42420480    .word   0x42420480
 8001e4c:   40007000    .word   0x40007000
 8001e50:   bb33        cbnz    r3, 8001ea0 <HAL_RCC_OscConfig+0x374>
 8001e52:   6a23        ldr r3, [r4, #32]
 8001e54:   2602        movs    r6, #2
 8001e56:   f023 0301   bic.w   r3, r3, #1
 8001e5a:   6223        str r3, [r4, #32]
 8001e5c:   6a23        ldr r3, [r4, #32]
 8001e5e:   4637        mov r7, r6
 8001e60:   f023 0304   bic.w   r3, r3, #4
 8001e64:   6223        str r3, [r4, #32]
 8001e66:   f7ff f979   bl  800115c <HAL_GetTick>
 8001e6a:   f241 3988   movw    r9, #5000   ; 0x1388
 8001e6e:   4680        mov r8, r0
 8001e70:   fa96 f3a6   rbit    r3, r6
 8001e74:   fa96 f3a6   rbit    r3, r6
 8001e78:   b313        cbz r3, 8001ec0 <HAL_RCC_OscConfig+0x394>
 8001e7a:   6a22        ldr r2, [r4, #32]
 8001e7c:   fa97 f3a7   rbit    r3, r7
 8001e80:   fab3 f383   clz r3, r3
 8001e84:   f003 031f   and.w   r3, r3, #31
 8001e88:   fa22 f303   lsr.w   r3, r2, r3
 8001e8c:   07d8        lsls    r0, r3, #31
 8001e8e:   f57f ae82   bpl.w   8001b96 <HAL_RCC_OscConfig+0x6a>
 8001e92:   f7ff f963   bl  800115c <HAL_GetTick>
 8001e96:   eba0 0008   sub.w   r0, r0, r8
 8001e9a:   4548        cmp r0, r9
 8001e9c:   d9e8        bls.n   8001e70 <HAL_RCC_OscConfig+0x344>
 8001e9e:   e6c3        b.n 8001c28 <HAL_RCC_OscConfig+0xfc>
 8001ea0:   2b05        cmp r3, #5
 8001ea2:   6a23        ldr r3, [r4, #32]
 8001ea4:   d103        bne.n   8001eae <HAL_RCC_OscConfig+0x382>
 8001ea6:   f043 0304   orr.w   r3, r3, #4
 8001eaa:   6223        str r3, [r4, #32]
 8001eac:   e79f        b.n 8001dee <HAL_RCC_OscConfig+0x2c2>
 8001eae:   f023 0301   bic.w   r3, r3, #1
 8001eb2:   6223        str r3, [r4, #32]
 8001eb4:   6a23        ldr r3, [r4, #32]
 8001eb6:   f023 0304   bic.w   r3, r3, #4
 8001eba:   e79b        b.n 8001df4 <HAL_RCC_OscConfig+0x2c8>
 8001ebc:   6a62        ldr r2, [r4, #36]   ; 0x24
 8001ebe:   e7a8        b.n 8001e12 <HAL_RCC_OscConfig+0x2e6>
 8001ec0:   6a62        ldr r2, [r4, #36]   ; 0x24
 8001ec2:   e7db        b.n 8001e7c <HAL_RCC_OscConfig+0x350>
 8001ec4:   4c44        ldr r4, [pc, #272]  ; (8001fd8 <HAL_RCC_OscConfig+0x4ac>)
 8001ec6:   6863        ldr r3, [r4, #4]
 8001ec8:   f003 030c   and.w   r3, r3, #12
 8001ecc:   2b08        cmp r3, #8
 8001ece:   f43f ae88   beq.w   8001be2 <HAL_RCC_OscConfig+0xb6>
 8001ed2:   2a02        cmp r2, #2
 8001ed4:   f04f 7380   mov.w   r3, #16777216   ; 0x1000000
 8001ed8:   d159        bne.n   8001f8e <HAL_RCC_OscConfig+0x462>
 8001eda:   fa93 f3a3   rbit    r3, r3
 8001ede:   fab3 f383   clz r3, r3
 8001ee2:   2200        movs    r2, #0
 8001ee4:   009b        lsls    r3, r3, #2
 8001ee6:   f103 4384   add.w   r3, r3, #1107296256 ; 0x42000000
 8001eea:   f503 0384   add.w   r3, r3, #4325376    ; 0x420000
 8001eee:   601a        str r2, [r3, #0]
 8001ef0:   f7ff f934   bl  800115c <HAL_GetTick>
 8001ef4:   f04f 7600   mov.w   r6, #33554432   ; 0x2000000
 8001ef8:   4607        mov r7, r0
 8001efa:   fa96 f3a6   rbit    r3, r6
 8001efe:   6822        ldr r2, [r4, #0]
 8001f00:   fa96 f3a6   rbit    r3, r6
 8001f04:   fab3 f383   clz r3, r3
 8001f08:   f003 031f   and.w   r3, r3, #31
 8001f0c:   fa22 f303   lsr.w   r3, r2, r3
 8001f10:   07d9        lsls    r1, r3, #31
 8001f12:   d436        bmi.n   8001f82 <HAL_RCC_OscConfig+0x456>
 8001f14:   6a2b        ldr r3, [r5, #32]
 8001f16:   f5b3 3f80   cmp.w   r3, #65536  ; 0x10000
 8001f1a:   d105        bne.n   8001f28 <HAL_RCC_OscConfig+0x3fc>
 8001f1c:   6862        ldr r2, [r4, #4]
 8001f1e:   68a9        ldr r1, [r5, #8]
 8001f20:   f422 3200   bic.w   r2, r2, #131072 ; 0x20000
 8001f24:   430a        orrs    r2, r1
 8001f26:   6062        str r2, [r4, #4]
 8001f28:   6862        ldr r2, [r4, #4]
 8001f2a:   6a69        ldr r1, [r5, #36]   ; 0x24
 8001f2c:   f422 1274   bic.w   r2, r2, #3997696    ; 0x3d0000
 8001f30:   430b        orrs    r3, r1
 8001f32:   4313        orrs    r3, r2
 8001f34:   6063        str r3, [r4, #4]
 8001f36:   f04f 7380   mov.w   r3, #16777216   ; 0x1000000
 8001f3a:   fa93 f3a3   rbit    r3, r3
 8001f3e:   fab3 f383   clz r3, r3
 8001f42:   2201        movs    r2, #1
 8001f44:   009b        lsls    r3, r3, #2
 8001f46:   f103 4384   add.w   r3, r3, #1107296256 ; 0x42000000
 8001f4a:   f503 0384   add.w   r3, r3, #4325376    ; 0x420000
 8001f4e:   601a        str r2, [r3, #0]
 8001f50:   f7ff f904   bl  800115c <HAL_GetTick>
 8001f54:   f04f 7500   mov.w   r5, #33554432   ; 0x2000000
 8001f58:   4606        mov r6, r0
 8001f5a:   fa95 f3a5   rbit    r3, r5
 8001f5e:   6822        ldr r2, [r4, #0]
 8001f60:   fa95 f3a5   rbit    r3, r5
 8001f64:   fab3 f383   clz r3, r3
 8001f68:   f003 031f   and.w   r3, r3, #31
 8001f6c:   fa22 f303   lsr.w   r3, r2, r3
 8001f70:   07da        lsls    r2, r3, #31
 8001f72:   f53f ae14   bmi.w   8001b9e <HAL_RCC_OscConfig+0x72>
 8001f76:   f7ff f8f1   bl  800115c <HAL_GetTick>
 8001f7a:   1b80        subs    r0, r0, r6
 8001f7c:   2802        cmp r0, #2
 8001f7e:   d9ec        bls.n   8001f5a <HAL_RCC_OscConfig+0x42e>
 8001f80:   e652        b.n 8001c28 <HAL_RCC_OscConfig+0xfc>
 8001f82:   f7ff f8eb   bl  800115c <HAL_GetTick>
 8001f86:   1bc0        subs    r0, r0, r7
 8001f88:   2802        cmp r0, #2
 8001f8a:   d9b6        bls.n   8001efa <HAL_RCC_OscConfig+0x3ce>
 8001f8c:   e64c        b.n 8001c28 <HAL_RCC_OscConfig+0xfc>
 8001f8e:   fa93 f3a3   rbit    r3, r3
 8001f92:   fab3 f383   clz r3, r3
 8001f96:   2200        movs    r2, #0
 8001f98:   009b        lsls    r3, r3, #2
 8001f9a:   f103 4384   add.w   r3, r3, #1107296256 ; 0x42000000
 8001f9e:   f503 0384   add.w   r3, r3, #4325376    ; 0x420000
 8001fa2:   601a        str r2, [r3, #0]
 8001fa4:   f7ff f8da   bl  800115c <HAL_GetTick>
 8001fa8:   f04f 7500   mov.w   r5, #33554432   ; 0x2000000
 8001fac:   4606        mov r6, r0
 8001fae:   fa95 f3a5   rbit    r3, r5
 8001fb2:   6822        ldr r2, [r4, #0]
 8001fb4:   fa95 f3a5   rbit    r3, r5
 8001fb8:   fab3 f383   clz r3, r3
 8001fbc:   f003 031f   and.w   r3, r3, #31
 8001fc0:   fa22 f303   lsr.w   r3, r2, r3
 8001fc4:   07db        lsls    r3, r3, #31
 8001fc6:   f57f adea   bpl.w   8001b9e <HAL_RCC_OscConfig+0x72>
 8001fca:   f7ff f8c7   bl  800115c <HAL_GetTick>
 8001fce:   1b80        subs    r0, r0, r6
 8001fd0:   2802        cmp r0, #2
 8001fd2:   d9ec        bls.n   8001fae <HAL_RCC_OscConfig+0x482>
 8001fd4:   e628        b.n 8001c28 <HAL_RCC_OscConfig+0xfc>
 8001fd6:   bf00        nop
 8001fd8:   40021000    .word   0x40021000

08001fdc <HAL_RCC_GetSysClockFreq>:
 8001fdc:   b530        push    {r4, r5, lr}
 8001fde:   4b20        ldr r3, [pc, #128]  ; (8002060 <HAL_RCC_GetSysClockFreq+0x84>)
 8001fe0:   b087        sub sp, #28
 8001fe2:   ac02        add r4, sp, #8
 8001fe4:   f103 0510   add.w   r5, r3, #16
 8001fe8:   4622        mov r2, r4
 8001fea:   6818        ldr r0, [r3, #0]
 8001fec:   6859        ldr r1, [r3, #4]
 8001fee:   3308        adds    r3, #8
 8001ff0:   c203        stmia   r2!, {r0, r1}
 8001ff2:   42ab        cmp r3, r5
 8001ff4:   4614        mov r4, r2
 8001ff6:   d1f7        bne.n   8001fe8 <HAL_RCC_GetSysClockFreq+0xc>
 8001ff8:   2301        movs    r3, #1
 8001ffa:   f88d 3004   strb.w  r3, [sp, #4]
 8001ffe:   2302        movs    r3, #2
 8002000:   4c18        ldr r4, [pc, #96]   ; (8002064 <HAL_RCC_GetSysClockFreq+0x88>)
 8002002:   f88d 3005   strb.w  r3, [sp, #5]
 8002006:   6861        ldr r1, [r4, #4]
 8002008:   f001 030c   and.w   r3, r1, #12
 800200c:   2b08        cmp r3, #8
 800200e:   d124        bne.n   800205a <HAL_RCC_GetSysClockFreq+0x7e>
 8002010:   f44f 1370   mov.w   r3, #3932160    ; 0x3c0000
 8002014:   fa93 f3a3   rbit    r3, r3
 8002018:   fab3 f283   clz r2, r3
 800201c:   f401 1370   and.w   r3, r1, #3932160    ; 0x3c0000
 8002020:   40d3        lsrs    r3, r2
 8002022:   aa06        add r2, sp, #24
 8002024:   4413        add r3, r2
 8002026:   f813 0c10   ldrb.w  r0, [r3, #-16]
 800202a:   03cb        lsls    r3, r1, #15
 800202c:   d513        bpl.n   8002056 <HAL_RCC_GetSysClockFreq+0x7a>
 800202e:   6863        ldr r3, [r4, #4]
 8002030:   f44f 3200   mov.w   r2, #131072 ; 0x20000
 8002034:   fa92 f2a2   rbit    r2, r2
 8002038:   fab2 f282   clz r2, r2
 800203c:   f403 3300   and.w   r3, r3, #131072 ; 0x20000
 8002040:   40d3        lsrs    r3, r2
 8002042:   aa06        add r2, sp, #24
 8002044:   4413        add r3, r2
 8002046:   f813 2c14   ldrb.w  r2, [r3, #-20]
 800204a:   4b07        ldr r3, [pc, #28]   ; (8002068 <HAL_RCC_GetSysClockFreq+0x8c>)
 800204c:   fbb3 f3f2   udiv    r3, r3, r2
 8002050:   4358        muls    r0, r3
 8002052:   b007        add sp, #28
 8002054:   bd30        pop {r4, r5, pc}
 8002056:   4b05        ldr r3, [pc, #20]   ; (800206c <HAL_RCC_GetSysClockFreq+0x90>)
 8002058:   e7fa        b.n 8002050 <HAL_RCC_GetSysClockFreq+0x74>
 800205a:   4803        ldr r0, [pc, #12]   ; (8002068 <HAL_RCC_GetSysClockFreq+0x8c>)
 800205c:   e7f9        b.n 8002052 <HAL_RCC_GetSysClockFreq+0x76>
 800205e:   bf00        nop
 8002060:   08007640    .word   0x08007640
 8002064:   40021000    .word   0x40021000
 8002068:   007a1200    .word   0x007a1200
 800206c:   003d0900    .word   0x003d0900

08002070 <HAL_RCC_ClockConfig>:
 8002070:   4a55        ldr r2, [pc, #340]  ; (80021c8 <HAL_RCC_ClockConfig+0x158>)
 8002072:   e92d 41f0   stmdb   sp!, {r4, r5, r6, r7, r8, lr}
 8002076:   6813        ldr r3, [r2, #0]
 8002078:   4606        mov r6, r0
 800207a:   f003 0307   and.w   r3, r3, #7
 800207e:   428b        cmp r3, r1
 8002080:   460d        mov r5, r1
 8002082:   d330        bcc.n   80020e6 <HAL_RCC_ClockConfig+0x76>
 8002084:   6832        ldr r2, [r6, #0]
 8002086:   0794        lsls    r4, r2, #30
 8002088:   d43a        bmi.n   8002100 <HAL_RCC_ClockConfig+0x90>
 800208a:   07d0        lsls    r0, r2, #31
 800208c:   d440        bmi.n   8002110 <HAL_RCC_ClockConfig+0xa0>
 800208e:   4a4e        ldr r2, [pc, #312]  ; (80021c8 <HAL_RCC_ClockConfig+0x158>)
 8002090:   6813        ldr r3, [r2, #0]
 8002092:   f003 0307   and.w   r3, r3, #7
 8002096:   429d        cmp r5, r3
 8002098:   f0c0 8084   bcc.w   80021a4 <HAL_RCC_ClockConfig+0x134>
 800209c:   6832        ldr r2, [r6, #0]
 800209e:   4c4b        ldr r4, [pc, #300]  ; (80021cc <HAL_RCC_ClockConfig+0x15c>)
 80020a0:   f012 0f04   tst.w   r2, #4
 80020a4:   f040 8089   bne.w   80021ba <HAL_RCC_ClockConfig+0x14a>
 80020a8:   0713        lsls    r3, r2, #28
 80020aa:   d506        bpl.n   80020ba <HAL_RCC_ClockConfig+0x4a>
 80020ac:   6863        ldr r3, [r4, #4]
 80020ae:   6932        ldr r2, [r6, #16]
 80020b0:   f423 5360   bic.w   r3, r3, #14336  ; 0x3800
 80020b4:   ea43 03c2   orr.w   r3, r3, r2, lsl #3
 80020b8:   6063        str r3, [r4, #4]
 80020ba:   f7ff ff8f   bl  8001fdc <HAL_RCC_GetSysClockFreq>
 80020be:   6863        ldr r3, [r4, #4]
 80020c0:   22f0        movs    r2, #240    ; 0xf0
 80020c2:   fa92 f2a2   rbit    r2, r2
 80020c6:   fab2 f282   clz r2, r2
 80020ca:   f003 03f0   and.w   r3, r3, #240    ; 0xf0
 80020ce:   40d3        lsrs    r3, r2
 80020d0:   4a3f        ldr r2, [pc, #252]  ; (80021d0 <HAL_RCC_ClockConfig+0x160>)
 80020d2:   5cd3        ldrb    r3, [r2, r3]
 80020d4:   40d8        lsrs    r0, r3
 80020d6:   4b3f        ldr r3, [pc, #252]  ; (80021d4 <HAL_RCC_ClockConfig+0x164>)
 80020d8:   6018        str r0, [r3, #0]
 80020da:   2000        movs    r0, #0
 80020dc:   f7ff f812   bl  8001104 <HAL_InitTick>
 80020e0:   2000        movs    r0, #0
 80020e2:   e8bd 81f0   ldmia.w sp!, {r4, r5, r6, r7, r8, pc}
 80020e6:   6813        ldr r3, [r2, #0]
 80020e8:   f023 0307   bic.w   r3, r3, #7
 80020ec:   430b        orrs    r3, r1
 80020ee:   6013        str r3, [r2, #0]
 80020f0:   6813        ldr r3, [r2, #0]
 80020f2:   f003 0307   and.w   r3, r3, #7
 80020f6:   4299        cmp r1, r3
 80020f8:   d0c4        beq.n   8002084 <HAL_RCC_ClockConfig+0x14>
 80020fa:   2001        movs    r0, #1
 80020fc:   e8bd 81f0   ldmia.w sp!, {r4, r5, r6, r7, r8, pc}
 8002100:   4932        ldr r1, [pc, #200]  ; (80021cc <HAL_RCC_ClockConfig+0x15c>)
 8002102:   68b0        ldr r0, [r6, #8]
 8002104:   684b        ldr r3, [r1, #4]
 8002106:   f023 03f0   bic.w   r3, r3, #240    ; 0xf0
 800210a:   4303        orrs    r3, r0
 800210c:   604b        str r3, [r1, #4]
 800210e:   e7bc        b.n 800208a <HAL_RCC_ClockConfig+0x1a>
 8002110:   6872        ldr r2, [r6, #4]
 8002112:   4c2e        ldr r4, [pc, #184]  ; (80021cc <HAL_RCC_ClockConfig+0x15c>)
 8002114:   2a01        cmp r2, #1
 8002116:   d128        bne.n   800216a <HAL_RCC_ClockConfig+0xfa>
 8002118:   f44f 3300   mov.w   r3, #131072 ; 0x20000
 800211c:   fa93 f1a3   rbit    r1, r3
 8002120:   6821        ldr r1, [r4, #0]
 8002122:   fa93 f3a3   rbit    r3, r3
 8002126:   fab3 f383   clz r3, r3
 800212a:   f003 031f   and.w   r3, r3, #31
 800212e:   fa21 f303   lsr.w   r3, r1, r3
 8002132:   07d9        lsls    r1, r3, #31
 8002134:   d5e1        bpl.n   80020fa <HAL_RCC_ClockConfig+0x8a>
 8002136:   6863        ldr r3, [r4, #4]
 8002138:   f241 3888   movw    r8, #5000   ; 0x1388
 800213c:   f023 0303   bic.w   r3, r3, #3
 8002140:   431a        orrs    r2, r3
 8002142:   6062        str r2, [r4, #4]
 8002144:   f7ff f80a   bl  800115c <HAL_GetTick>
 8002148:   6873        ldr r3, [r6, #4]
 800214a:   4607        mov r7, r0
 800214c:   2b01        cmp r3, #1
 800214e:   d112        bne.n   8002176 <HAL_RCC_ClockConfig+0x106>
 8002150:   6863        ldr r3, [r4, #4]
 8002152:   f003 030c   and.w   r3, r3, #12
 8002156:   2b04        cmp r3, #4
 8002158:   d099        beq.n   800208e <HAL_RCC_ClockConfig+0x1e>
 800215a:   f7fe ffff   bl  800115c <HAL_GetTick>
 800215e:   1bc0        subs    r0, r0, r7
 8002160:   4540        cmp r0, r8
 8002162:   d9f5        bls.n   8002150 <HAL_RCC_ClockConfig+0xe0>
 8002164:   2003        movs    r0, #3
 8002166:   e8bd 81f0   ldmia.w sp!, {r4, r5, r6, r7, r8, pc}
 800216a:   2a02        cmp r2, #2
 800216c:   bf0c        ite eq
 800216e:   f04f 7300   moveq.w r3, #33554432   ; 0x2000000
 8002172:   2302        movne   r3, #2
 8002174:   e7d2        b.n 800211c <HAL_RCC_ClockConfig+0xac>
 8002176:   2b02        cmp r3, #2
 8002178:   d10f        bne.n   800219a <HAL_RCC_ClockConfig+0x12a>
 800217a:   6863        ldr r3, [r4, #4]
 800217c:   f003 030c   and.w   r3, r3, #12
 8002180:   2b08        cmp r3, #8
 8002182:   d084        beq.n   800208e <HAL_RCC_ClockConfig+0x1e>
 8002184:   f7fe ffea   bl  800115c <HAL_GetTick>
 8002188:   1bc0        subs    r0, r0, r7
 800218a:   4540        cmp r0, r8
 800218c:   d9f5        bls.n   800217a <HAL_RCC_ClockConfig+0x10a>
 800218e:   e7e9        b.n 8002164 <HAL_RCC_ClockConfig+0xf4>
 8002190:   f7fe ffe4   bl  800115c <HAL_GetTick>
 8002194:   1bc0        subs    r0, r0, r7
 8002196:   4540        cmp r0, r8
 8002198:   d8e4        bhi.n   8002164 <HAL_RCC_ClockConfig+0xf4>
 800219a:   6863        ldr r3, [r4, #4]
 800219c:   f013 0f0c   tst.w   r3, #12
 80021a0:   d1f6        bne.n   8002190 <HAL_RCC_ClockConfig+0x120>
 80021a2:   e774        b.n 800208e <HAL_RCC_ClockConfig+0x1e>
 80021a4:   6813        ldr r3, [r2, #0]
 80021a6:   f023 0307   bic.w   r3, r3, #7
 80021aa:   432b        orrs    r3, r5
 80021ac:   6013        str r3, [r2, #0]
 80021ae:   6813        ldr r3, [r2, #0]
 80021b0:   f003 0307   and.w   r3, r3, #7
 80021b4:   429d        cmp r5, r3
 80021b6:   d1a0        bne.n   80020fa <HAL_RCC_ClockConfig+0x8a>
 80021b8:   e770        b.n 800209c <HAL_RCC_ClockConfig+0x2c>
 80021ba:   6863        ldr r3, [r4, #4]
 80021bc:   68f1        ldr r1, [r6, #12]
 80021be:   f423 63e0   bic.w   r3, r3, #1792   ; 0x700
 80021c2:   430b        orrs    r3, r1
 80021c4:   6063        str r3, [r4, #4]
 80021c6:   e76f        b.n 80020a8 <HAL_RCC_ClockConfig+0x38>
 80021c8:   40022000    .word   0x40022000
 80021cc:   40021000    .word   0x40021000
 80021d0:   080076b1    .word   0x080076b1
 80021d4:   200001bc    .word   0x200001bc

080021d8 <HAL_RCC_GetHCLKFreq>:
 80021d8:   4b01        ldr r3, [pc, #4]    ; (80021e0 <HAL_RCC_GetHCLKFreq+0x8>)
 80021da:   6818        ldr r0, [r3, #0]
 80021dc:   4770        bx  lr
 80021de:   bf00        nop
 80021e0:   200001bc    .word   0x200001bc

080021e4 <HAL_RCC_GetPCLK1Freq>:
 80021e4:   4b08        ldr r3, [pc, #32]   ; (8002208 <HAL_RCC_GetPCLK1Freq+0x24>)
 80021e6:   f44f 62e0   mov.w   r2, #1792   ; 0x700
 80021ea:   685b        ldr r3, [r3, #4]
 80021ec:   fa92 f2a2   rbit    r2, r2
 80021f0:   fab2 f282   clz r2, r2
 80021f4:   f403 63e0   and.w   r3, r3, #1792   ; 0x700
 80021f8:   40d3        lsrs    r3, r2
 80021fa:   4a04        ldr r2, [pc, #16]   ; (800220c <HAL_RCC_GetPCLK1Freq+0x28>)
 80021fc:   5cd3        ldrb    r3, [r2, r3]
 80021fe:   4a04        ldr r2, [pc, #16]   ; (8002210 <HAL_RCC_GetPCLK1Freq+0x2c>)
 8002200:   6810        ldr r0, [r2, #0]
 8002202:   40d8        lsrs    r0, r3
 8002204:   4770        bx  lr
 8002206:   bf00        nop
 8002208:   40021000    .word   0x40021000
 800220c:   080076c1    .word   0x080076c1
 8002210:   200001bc    .word   0x200001bc

08002214 <HAL_RCC_GetPCLK2Freq>:
 8002214:   4b08        ldr r3, [pc, #32]   ; (8002238 <HAL_RCC_GetPCLK2Freq+0x24>)
 8002216:   f44f 5260   mov.w   r2, #14336  ; 0x3800
 800221a:   685b        ldr r3, [r3, #4]
 800221c:   fa92 f2a2   rbit    r2, r2
 8002220:   fab2 f282   clz r2, r2
 8002224:   f403 5360   and.w   r3, r3, #14336  ; 0x3800
 8002228:   40d3        lsrs    r3, r2
 800222a:   4a04        ldr r2, [pc, #16]   ; (800223c <HAL_RCC_GetPCLK2Freq+0x28>)
 800222c:   5cd3        ldrb    r3, [r2, r3]
 800222e:   4a04        ldr r2, [pc, #16]   ; (8002240 <HAL_RCC_GetPCLK2Freq+0x2c>)
 8002230:   6810        ldr r0, [r2, #0]
 8002232:   40d8        lsrs    r0, r3
 8002234:   4770        bx  lr
 8002236:   bf00        nop
 8002238:   40021000    .word   0x40021000
 800223c:   080076c1    .word   0x080076c1
 8002240:   200001bc    .word   0x200001bc

08002244 <TIM_OC1_SetConfig>:
 8002244:   6a03        ldr r3, [r0, #32]
 8002246:   b570        push    {r4, r5, r6, lr}
 8002248:   f023 0301   bic.w   r3, r3, #1
 800224c:   6203        str r3, [r0, #32]
 800224e:   6a03        ldr r3, [r0, #32]
 8002250:   6844        ldr r4, [r0, #4]
 8002252:   6982        ldr r2, [r0, #24]
 8002254:   680d        ldr r5, [r1, #0]
 8002256:   f022 0273   bic.w   r2, r2, #115    ; 0x73
 800225a:   432a        orrs    r2, r5
 800225c:   688d        ldr r5, [r1, #8]
 800225e:   f023 0302   bic.w   r3, r3, #2
 8002262:   432b        orrs    r3, r5
 8002264:   4d0a        ldr r5, [pc, #40]   ; (8002290 <TIM_OC1_SetConfig+0x4c>)
 8002266:   42a8        cmp r0, r5
 8002268:   d10b        bne.n   8002282 <TIM_OC1_SetConfig+0x3e>
 800226a:   68cd        ldr r5, [r1, #12]
 800226c:   f023 0308   bic.w   r3, r3, #8
 8002270:   432b        orrs    r3, r5
 8002272:   698e        ldr r6, [r1, #24]
 8002274:   694d        ldr r5, [r1, #20]
 8002276:   f424 7440   bic.w   r4, r4, #768    ; 0x300
 800227a:   4335        orrs    r5, r6
 800227c:   f023 0304   bic.w   r3, r3, #4
 8002280:   432c        orrs    r4, r5
 8002282:   6044        str r4, [r0, #4]
 8002284:   6182        str r2, [r0, #24]
 8002286:   684a        ldr r2, [r1, #4]
 8002288:   6342        str r2, [r0, #52]   ; 0x34
 800228a:   6203        str r3, [r0, #32]
 800228c:   bd70        pop {r4, r5, r6, pc}
 800228e:   bf00        nop
 8002290:   40012c00    .word   0x40012c00

08002294 <TIM_OC3_SetConfig>:
 8002294:   6a03        ldr r3, [r0, #32]
 8002296:   b570        push    {r4, r5, r6, lr}
 8002298:   f423 7380   bic.w   r3, r3, #256    ; 0x100
 800229c:   6203        str r3, [r0, #32]
 800229e:   6a03        ldr r3, [r0, #32]
 80022a0:   6844        ldr r4, [r0, #4]
 80022a2:   69c2        ldr r2, [r0, #28]
 80022a4:   680d        ldr r5, [r1, #0]
 80022a6:   f022 0273   bic.w   r2, r2, #115    ; 0x73
 80022aa:   432a        orrs    r2, r5
 80022ac:   688d        ldr r5, [r1, #8]
 80022ae:   f423 7300   bic.w   r3, r3, #512    ; 0x200
 80022b2:   ea43 2305   orr.w   r3, r3, r5, lsl #8
 80022b6:   4d0b        ldr r5, [pc, #44]   ; (80022e4 <TIM_OC3_SetConfig+0x50>)
 80022b8:   42a8        cmp r0, r5
 80022ba:   d10d        bne.n   80022d8 <TIM_OC3_SetConfig+0x44>
 80022bc:   68cd        ldr r5, [r1, #12]
 80022be:   f423 6300   bic.w   r3, r3, #2048   ; 0x800
 80022c2:   ea43 2305   orr.w   r3, r3, r5, lsl #8
 80022c6:   698e        ldr r6, [r1, #24]
 80022c8:   694d        ldr r5, [r1, #20]
 80022ca:   f424 5440   bic.w   r4, r4, #12288  ; 0x3000
 80022ce:   4335        orrs    r5, r6
 80022d0:   f423 6380   bic.w   r3, r3, #1024   ; 0x400
 80022d4:   ea44 1405   orr.w   r4, r4, r5, lsl #4
 80022d8:   6044        str r4, [r0, #4]
 80022da:   61c2        str r2, [r0, #28]
 80022dc:   684a        ldr r2, [r1, #4]
 80022de:   63c2        str r2, [r0, #60]   ; 0x3c
 80022e0:   6203        str r3, [r0, #32]
 80022e2:   bd70        pop {r4, r5, r6, pc}
 80022e4:   40012c00    .word   0x40012c00

080022e8 <TIM_OC4_SetConfig>:
 80022e8:   6a03        ldr r3, [r0, #32]
 80022ea:   b530        push    {r4, r5, lr}
 80022ec:   f423 5380   bic.w   r3, r3, #4096   ; 0x1000
 80022f0:   6203        str r3, [r0, #32]
 80022f2:   6a03        ldr r3, [r0, #32]
 80022f4:   6844        ldr r4, [r0, #4]
 80022f6:   69c2        ldr r2, [r0, #28]
 80022f8:   680d        ldr r5, [r1, #0]
 80022fa:   f422 42e6   bic.w   r2, r2, #29440  ; 0x7300
 80022fe:   ea42 2205   orr.w   r2, r2, r5, lsl #8
 8002302:   688d        ldr r5, [r1, #8]
 8002304:   f423 5300   bic.w   r3, r3, #8192   ; 0x2000
 8002308:   ea43 3305   orr.w   r3, r3, r5, lsl #12
 800230c:   4d06        ldr r5, [pc, #24]   ; (8002328 <TIM_OC4_SetConfig+0x40>)
 800230e:   42a8        cmp r0, r5
 8002310:   bf02        ittt    eq
 8002312:   694d        ldreq   r5, [r1, #20]
 8002314:   f424 4480   biceq.w r4, r4, #16384  ; 0x4000
 8002318:   ea44 1485   orreq.w r4, r4, r5, lsl #6
 800231c:   6044        str r4, [r0, #4]
 800231e:   61c2        str r2, [r0, #28]
 8002320:   684a        ldr r2, [r1, #4]
 8002322:   6402        str r2, [r0, #64]   ; 0x40
 8002324:   6203        str r3, [r0, #32]
 8002326:   bd30        pop {r4, r5, pc}
 8002328:   40012c00    .word   0x40012c00

0800232c <TIM_Base_SetConfig>:
 800232c:   4a18        ldr r2, [pc, #96]   ; (8002390 <TIM_Base_SetConfig+0x64>)
 800232e:   6803        ldr r3, [r0, #0]
 8002330:   4290        cmp r0, r2
 8002332:   d00a        beq.n   800234a <TIM_Base_SetConfig+0x1e>
 8002334:   f1b0 4f80   cmp.w   r0, #1073741824 ; 0x40000000
 8002338:   d007        beq.n   800234a <TIM_Base_SetConfig+0x1e>
 800233a:   f5a2 3294   sub.w   r2, r2, #75776  ; 0x12800
 800233e:   4290        cmp r0, r2
 8002340:   d003        beq.n   800234a <TIM_Base_SetConfig+0x1e>
 8002342:   f502 6280   add.w   r2, r2, #1024   ; 0x400
 8002346:   4290        cmp r0, r2
 8002348:   d115        bne.n   8002376 <TIM_Base_SetConfig+0x4a>
 800234a:   684a        ldr r2, [r1, #4]
 800234c:   f023 0370   bic.w   r3, r3, #112    ; 0x70
 8002350:   4313        orrs    r3, r2
 8002352:   4a0f        ldr r2, [pc, #60]   ; (8002390 <TIM_Base_SetConfig+0x64>)
 8002354:   4290        cmp r0, r2
 8002356:   d00a        beq.n   800236e <TIM_Base_SetConfig+0x42>
 8002358:   f1b0 4f80   cmp.w   r0, #1073741824 ; 0x40000000
 800235c:   d007        beq.n   800236e <TIM_Base_SetConfig+0x42>
 800235e:   f5a2 3294   sub.w   r2, r2, #75776  ; 0x12800
 8002362:   4290        cmp r0, r2
 8002364:   d003        beq.n   800236e <TIM_Base_SetConfig+0x42>
 8002366:   f502 6280   add.w   r2, r2, #1024   ; 0x400
 800236a:   4290        cmp r0, r2
 800236c:   d103        bne.n   8002376 <TIM_Base_SetConfig+0x4a>
 800236e:   68ca        ldr r2, [r1, #12]
 8002370:   f423 7340   bic.w   r3, r3, #768    ; 0x300
 8002374:   4313        orrs    r3, r2
 8002376:   6003        str r3, [r0, #0]
 8002378:   688b        ldr r3, [r1, #8]
 800237a:   62c3        str r3, [r0, #44]   ; 0x2c
 800237c:   680b        ldr r3, [r1, #0]
 800237e:   6283        str r3, [r0, #40]   ; 0x28
 8002380:   4b03        ldr r3, [pc, #12]   ; (8002390 <TIM_Base_SetConfig+0x64>)
 8002382:   4298        cmp r0, r3
 8002384:   bf04        itt eq
 8002386:   690b        ldreq   r3, [r1, #16]
 8002388:   6303        streq   r3, [r0, #48]   ; 0x30
 800238a:   2301        movs    r3, #1
 800238c:   6143        str r3, [r0, #20]
 800238e:   4770        bx  lr
 8002390:   40012c00    .word   0x40012c00

08002394 <HAL_TIM_PWM_Init>:
 8002394:   b510        push    {r4, lr}
 8002396:   4604        mov r4, r0
 8002398:   b1a0        cbz r0, 80023c4 <HAL_TIM_PWM_Init+0x30>
 800239a:   f890 3039   ldrb.w  r3, [r0, #57]   ; 0x39
 800239e:   f003 02ff   and.w   r2, r3, #255    ; 0xff
 80023a2:   b91b        cbnz    r3, 80023ac <HAL_TIM_PWM_Init+0x18>
 80023a4:   f880 2038   strb.w  r2, [r0, #56]   ; 0x38
 80023a8:   f002 fe96   bl  80050d8 <HAL_TIM_PWM_MspInit>
 80023ac:   2302        movs    r3, #2
 80023ae:   6820        ldr r0, [r4, #0]
 80023b0:   f884 3039   strb.w  r3, [r4, #57]   ; 0x39
 80023b4:   1d21        adds    r1, r4, #4
 80023b6:   f7ff ffb9   bl  800232c <TIM_Base_SetConfig>
 80023ba:   2301        movs    r3, #1
 80023bc:   2000        movs    r0, #0
 80023be:   f884 3039   strb.w  r3, [r4, #57]   ; 0x39
 80023c2:   bd10        pop {r4, pc}
 80023c4:   2001        movs    r0, #1
 80023c6:   bd10        pop {r4, pc}

080023c8 <TIM_OC2_SetConfig>:
 80023c8:   6a03        ldr r3, [r0, #32]
 80023ca:   b570        push    {r4, r5, r6, lr}
 80023cc:   f023 0310   bic.w   r3, r3, #16
 80023d0:   6203        str r3, [r0, #32]
 80023d2:   6a03        ldr r3, [r0, #32]
 80023d4:   6844        ldr r4, [r0, #4]
 80023d6:   6982        ldr r2, [r0, #24]
 80023d8:   680d        ldr r5, [r1, #0]
 80023da:   f422 42e6   bic.w   r2, r2, #29440  ; 0x7300
 80023de:   ea42 2205   orr.w   r2, r2, r5, lsl #8
 80023e2:   688d        ldr r5, [r1, #8]
 80023e4:   f023 0320   bic.w   r3, r3, #32
 80023e8:   ea43 1305   orr.w   r3, r3, r5, lsl #4
 80023ec:   4d0b        ldr r5, [pc, #44]   ; (800241c <TIM_OC2_SetConfig+0x54>)
 80023ee:   42a8        cmp r0, r5
 80023f0:   d10d        bne.n   800240e <TIM_OC2_SetConfig+0x46>
 80023f2:   68cd        ldr r5, [r1, #12]
 80023f4:   f023 0380   bic.w   r3, r3, #128    ; 0x80
 80023f8:   ea43 1305   orr.w   r3, r3, r5, lsl #4
 80023fc:   698e        ldr r6, [r1, #24]
 80023fe:   694d        ldr r5, [r1, #20]
 8002400:   f424 6440   bic.w   r4, r4, #3072   ; 0xc00
 8002404:   4335        orrs    r5, r6
 8002406:   f023 0340   bic.w   r3, r3, #64 ; 0x40
 800240a:   ea44 0485   orr.w   r4, r4, r5, lsl #2
 800240e:   6044        str r4, [r0, #4]
 8002410:   6182        str r2, [r0, #24]
 8002412:   684a        ldr r2, [r1, #4]
 8002414:   6382        str r2, [r0, #56]   ; 0x38
 8002416:   6203        str r3, [r0, #32]
 8002418:   bd70        pop {r4, r5, r6, pc}
 800241a:   bf00        nop
 800241c:   40012c00    .word   0x40012c00

08002420 <HAL_TIM_PWM_ConfigChannel>:
 8002420:   b538        push    {r3, r4, r5, lr}
 8002422:   f890 3038   ldrb.w  r3, [r0, #56]   ; 0x38
 8002426:   4604        mov r4, r0
 8002428:   2b01        cmp r3, #1
 800242a:   f04f 0002   mov.w   r0, #2
 800242e:   d025        beq.n   800247c <HAL_TIM_PWM_ConfigChannel+0x5c>
 8002430:   2301        movs    r3, #1
 8002432:   f884 0039   strb.w  r0, [r4, #57]   ; 0x39
 8002436:   f884 3038   strb.w  r3, [r4, #56]   ; 0x38
 800243a:   2a0c        cmp r2, #12
 800243c:   d818        bhi.n   8002470 <HAL_TIM_PWM_ConfigChannel+0x50>
 800243e:   e8df f002   tbb [pc, r2]
 8002442:   1707        .short  0x1707
 8002444:   171e1717    .word   0x171e1717
 8002448:   172f1717    .word   0x172f1717
 800244c:   1717        .short  0x1717
 800244e:   40              .byte   0x40
 800244f:   00              .byte   0x00
 8002450:   6820        ldr r0, [r4, #0]
 8002452:   f7ff fef7   bl  8002244 <TIM_OC1_SetConfig>
 8002456:   6823        ldr r3, [r4, #0]
 8002458:   6909        ldr r1, [r1, #16]
 800245a:   699a        ldr r2, [r3, #24]
 800245c:   f042 0208   orr.w   r2, r2, #8
 8002460:   619a        str r2, [r3, #24]
 8002462:   699a        ldr r2, [r3, #24]
 8002464:   f022 0204   bic.w   r2, r2, #4
 8002468:   619a        str r2, [r3, #24]
 800246a:   699a        ldr r2, [r3, #24]
 800246c:   430a        orrs    r2, r1
 800246e:   619a        str r2, [r3, #24]
 8002470:   2301        movs    r3, #1
 8002472:   2000        movs    r0, #0
 8002474:   f884 3039   strb.w  r3, [r4, #57]   ; 0x39
 8002478:   f884 0038   strb.w  r0, [r4, #56]   ; 0x38
 800247c:   bd38        pop {r3, r4, r5, pc}
 800247e:   6820        ldr r0, [r4, #0]
 8002480:   f7ff ffa2   bl  80023c8 <TIM_OC2_SetConfig>
 8002484:   6823        ldr r3, [r4, #0]
 8002486:   6909        ldr r1, [r1, #16]
 8002488:   699a        ldr r2, [r3, #24]
 800248a:   f442 6200   orr.w   r2, r2, #2048   ; 0x800
 800248e:   619a        str r2, [r3, #24]
 8002490:   699a        ldr r2, [r3, #24]
 8002492:   f422 6280   bic.w   r2, r2, #1024   ; 0x400
 8002496:   619a        str r2, [r3, #24]
 8002498:   699a        ldr r2, [r3, #24]
 800249a:   ea42 2201   orr.w   r2, r2, r1, lsl #8
 800249e:   e7e6        b.n 800246e <HAL_TIM_PWM_ConfigChannel+0x4e>
 80024a0:   6820        ldr r0, [r4, #0]
 80024a2:   f7ff fef7   bl  8002294 <TIM_OC3_SetConfig>
 80024a6:   6823        ldr r3, [r4, #0]
 80024a8:   6909        ldr r1, [r1, #16]
 80024aa:   69da        ldr r2, [r3, #28]
 80024ac:   f042 0208   orr.w   r2, r2, #8
 80024b0:   61da        str r2, [r3, #28]
 80024b2:   69da        ldr r2, [r3, #28]
 80024b4:   f022 0204   bic.w   r2, r2, #4
 80024b8:   61da        str r2, [r3, #28]
 80024ba:   69da        ldr r2, [r3, #28]
 80024bc:   430a        orrs    r2, r1
 80024be:   61da        str r2, [r3, #28]
 80024c0:   e7d6        b.n 8002470 <HAL_TIM_PWM_ConfigChannel+0x50>
 80024c2:   6820        ldr r0, [r4, #0]
 80024c4:   f7ff ff10   bl  80022e8 <TIM_OC4_SetConfig>
 80024c8:   6823        ldr r3, [r4, #0]
 80024ca:   6909        ldr r1, [r1, #16]
 80024cc:   69da        ldr r2, [r3, #28]
 80024ce:   f442 6200   orr.w   r2, r2, #2048   ; 0x800
 80024d2:   61da        str r2, [r3, #28]
 80024d4:   69da        ldr r2, [r3, #28]
 80024d6:   f422 6280   bic.w   r2, r2, #1024   ; 0x400
 80024da:   61da        str r2, [r3, #28]
 80024dc:   69da        ldr r2, [r3, #28]
 80024de:   ea42 2201   orr.w   r2, r2, r1, lsl #8
 80024e2:   e7ec        b.n 80024be <HAL_TIM_PWM_ConfigChannel+0x9e>

080024e4 <TIM_CCxChannelCmd>:
 80024e4:   b510        push    {r4, lr}
 80024e6:   2401        movs    r4, #1
 80024e8:   6a03        ldr r3, [r0, #32]
 80024ea:   408c        lsls    r4, r1
 80024ec:   ea23 0304   bic.w   r3, r3, r4
 80024f0:   6203        str r3, [r0, #32]
 80024f2:   6a03        ldr r3, [r0, #32]
 80024f4:   408a        lsls    r2, r1
 80024f6:   431a        orrs    r2, r3
 80024f8:   6202        str r2, [r0, #32]
 80024fa:   bd10        pop {r4, pc}

080024fc <HAL_TIM_PWM_Start>:
 80024fc:   b510        push    {r4, lr}
 80024fe:   4604        mov r4, r0
 8002500:   2201        movs    r2, #1
 8002502:   6800        ldr r0, [r0, #0]
 8002504:   f7ff ffee   bl  80024e4 <TIM_CCxChannelCmd>
 8002508:   6823        ldr r3, [r4, #0]
 800250a:   4a06        ldr r2, [pc, #24]   ; (8002524 <HAL_TIM_PWM_Start+0x28>)
 800250c:   2000        movs    r0, #0
 800250e:   4293        cmp r3, r2
 8002510:   bf02        ittt    eq
 8002512:   6c5a        ldreq   r2, [r3, #68]   ; 0x44
 8002514:   f442 4200   orreq.w r2, r2, #32768  ; 0x8000
 8002518:   645a        streq   r2, [r3, #68]   ; 0x44
 800251a:   681a        ldr r2, [r3, #0]
 800251c:   f042 0201   orr.w   r2, r2, #1
 8002520:   601a        str r2, [r3, #0]
 8002522:   bd10        pop {r4, pc}
 8002524:   40012c00    .word   0x40012c00

08002528 <HAL_TIMEx_ConfigBreakDeadTime>:
 8002528:   f890 3038   ldrb.w  r3, [r0, #56]   ; 0x38
 800252c:   b510        push    {r4, lr}
 800252e:   2b01        cmp r3, #1
 8002530:   f04f 0302   mov.w   r3, #2
 8002534:   d016        beq.n   8002564 <HAL_TIMEx_ConfigBreakDeadTime+0x3c>
 8002536:   f880 3039   strb.w  r3, [r0, #57]   ; 0x39
 800253a:   e891 0018   ldmia.w r1, {r3, r4}
 800253e:   4323        orrs    r3, r4
 8002540:   688c        ldr r4, [r1, #8]
 8002542:   6802        ldr r2, [r0, #0]
 8002544:   4323        orrs    r3, r4
 8002546:   68cc        ldr r4, [r1, #12]
 8002548:   4323        orrs    r3, r4
 800254a:   690c        ldr r4, [r1, #16]
 800254c:   4323        orrs    r3, r4
 800254e:   694c        ldr r4, [r1, #20]
 8002550:   6989        ldr r1, [r1, #24]
 8002552:   4323        orrs    r3, r4
 8002554:   430b        orrs    r3, r1
 8002556:   6453        str r3, [r2, #68]   ; 0x44
 8002558:   2301        movs    r3, #1
 800255a:   f880 3039   strb.w  r3, [r0, #57]   ; 0x39
 800255e:   2300        movs    r3, #0
 8002560:   f880 3038   strb.w  r3, [r0, #56]   ; 0x38
 8002564:   4618        mov r0, r3
 8002566:   bd10        pop {r4, pc}

08002568 <HAL_TIMEx_MasterConfigSynchronization>:
 8002568:   f890 3038   ldrb.w  r3, [r0, #56]   ; 0x38
 800256c:   b510        push    {r4, lr}
 800256e:   2b01        cmp r3, #1
 8002570:   f04f 0302   mov.w   r3, #2
 8002574:   d018        beq.n   80025a8 <HAL_TIMEx_MasterConfigSynchronization+0x40>
 8002576:   f880 3039   strb.w  r3, [r0, #57]   ; 0x39
 800257a:   6803        ldr r3, [r0, #0]
 800257c:   680c        ldr r4, [r1, #0]
 800257e:   685a        ldr r2, [r3, #4]
 8002580:   6849        ldr r1, [r1, #4]
 8002582:   f022 0270   bic.w   r2, r2, #112    ; 0x70
 8002586:   605a        str r2, [r3, #4]
 8002588:   685a        ldr r2, [r3, #4]
 800258a:   4322        orrs    r2, r4
 800258c:   605a        str r2, [r3, #4]
 800258e:   689a        ldr r2, [r3, #8]
 8002590:   f022 0280   bic.w   r2, r2, #128    ; 0x80
 8002594:   609a        str r2, [r3, #8]
 8002596:   689a        ldr r2, [r3, #8]
 8002598:   430a        orrs    r2, r1
 800259a:   609a        str r2, [r3, #8]
 800259c:   2301        movs    r3, #1
 800259e:   f880 3039   strb.w  r3, [r0, #57]   ; 0x39
 80025a2:   2300        movs    r3, #0
 80025a4:   f880 3038   strb.w  r3, [r0, #56]   ; 0x38
 80025a8:   4618        mov r0, r3
 80025aa:   bd10        pop {r4, pc}

080025ac <UART_SetConfig>:
 80025ac:   e92d 47f0   stmdb   sp!, {r4, r5, r6, r7, r8, r9, sl, lr}
 80025b0:   6805        ldr r5, [r0, #0]
 80025b2:   68c2        ldr r2, [r0, #12]
 80025b4:   692b        ldr r3, [r5, #16]
 80025b6:   6901        ldr r1, [r0, #16]
 80025b8:   f423 5340   bic.w   r3, r3, #12288  ; 0x3000
 80025bc:   4313        orrs    r3, r2
 80025be:   612b        str r3, [r5, #16]
 80025c0:   6883        ldr r3, [r0, #8]
 80025c2:   68ea        ldr r2, [r5, #12]
 80025c4:   430b        orrs    r3, r1
 80025c6:   6941        ldr r1, [r0, #20]
 80025c8:   f422 52b0   bic.w   r2, r2, #5632   ; 0x1600
 80025cc:   f022 020c   bic.w   r2, r2, #12
 80025d0:   430b        orrs    r3, r1
 80025d2:   4313        orrs    r3, r2
 80025d4:   60eb        str r3, [r5, #12]
 80025d6:   696b        ldr r3, [r5, #20]
 80025d8:   6982        ldr r2, [r0, #24]
 80025da:   f423 7340   bic.w   r3, r3, #768    ; 0x300
 80025de:   4313        orrs    r3, r2
 80025e0:   616b        str r3, [r5, #20]
 80025e2:   4b40        ldr r3, [pc, #256]  ; (80026e4 <UART_SetConfig+0x138>)
 80025e4:   4681        mov r9, r0
 80025e6:   429d        cmp r5, r3
 80025e8:   f04f 0419   mov.w   r4, #25
 80025ec:   d146        bne.n   800267c <UART_SetConfig+0xd0>
 80025ee:   f7ff fe11   bl  8002214 <HAL_RCC_GetPCLK2Freq>
 80025f2:   fb04 f300   mul.w   r3, r4, r0
 80025f6:   f8d9 6004   ldr.w   r6, [r9, #4]
 80025fa:   f04f 0864   mov.w   r8, #100    ; 0x64
 80025fe:   00b6        lsls    r6, r6, #2
 8002600:   fbb3 f3f6   udiv    r3, r3, r6
 8002604:   fbb3 f3f8   udiv    r3, r3, r8
 8002608:   011e        lsls    r6, r3, #4
 800260a:   f7ff fe03   bl  8002214 <HAL_RCC_GetPCLK2Freq>
 800260e:   4360        muls    r0, r4
 8002610:   f8d9 3004   ldr.w   r3, [r9, #4]
 8002614:   009b        lsls    r3, r3, #2
 8002616:   fbb0 f7f3   udiv    r7, r0, r3
 800261a:   f7ff fdfb   bl  8002214 <HAL_RCC_GetPCLK2Freq>
 800261e:   4360        muls    r0, r4
 8002620:   f8d9 3004   ldr.w   r3, [r9, #4]
 8002624:   009b        lsls    r3, r3, #2
 8002626:   fbb0 f3f3   udiv    r3, r0, r3
 800262a:   fbb3 f3f8   udiv    r3, r3, r8
 800262e:   fb08 7313   mls r3, r8, r3, r7
 8002632:   011b        lsls    r3, r3, #4
 8002634:   3332        adds    r3, #50 ; 0x32
 8002636:   fbb3 f3f8   udiv    r3, r3, r8
 800263a:   f003 07f0   and.w   r7, r3, #240    ; 0xf0
 800263e:   f7ff fde9   bl  8002214 <HAL_RCC_GetPCLK2Freq>
 8002642:   4360        muls    r0, r4
 8002644:   f8d9 2004   ldr.w   r2, [r9, #4]
 8002648:   0092        lsls    r2, r2, #2
 800264a:   fbb0 faf2   udiv    sl, r0, r2
 800264e:   f7ff fde1   bl  8002214 <HAL_RCC_GetPCLK2Freq>
 8002652:   4360        muls    r0, r4
 8002654:   f8d9 3004   ldr.w   r3, [r9, #4]
 8002658:   009b        lsls    r3, r3, #2
 800265a:   fbb0 f3f3   udiv    r3, r0, r3
 800265e:   fbb3 f3f8   udiv    r3, r3, r8
 8002662:   fb08 a313   mls r3, r8, r3, sl
 8002666:   011b        lsls    r3, r3, #4
 8002668:   3332        adds    r3, #50 ; 0x32
 800266a:   fbb3 f3f8   udiv    r3, r3, r8
 800266e:   f003 030f   and.w   r3, r3, #15
 8002672:   433b        orrs    r3, r7
 8002674:   4433        add r3, r6
 8002676:   60ab        str r3, [r5, #8]
 8002678:   e8bd 87f0   ldmia.w sp!, {r4, r5, r6, r7, r8, r9, sl, pc}
 800267c:   f7ff fdb2   bl  80021e4 <HAL_RCC_GetPCLK1Freq>
 8002680:   fb04 f300   mul.w   r3, r4, r0
 8002684:   f8d9 6004   ldr.w   r6, [r9, #4]
 8002688:   f04f 0864   mov.w   r8, #100    ; 0x64
 800268c:   00b6        lsls    r6, r6, #2
 800268e:   fbb3 f3f6   udiv    r3, r3, r6
 8002692:   fbb3 f3f8   udiv    r3, r3, r8
 8002696:   011e        lsls    r6, r3, #4
 8002698:   f7ff fda4   bl  80021e4 <HAL_RCC_GetPCLK1Freq>
 800269c:   4360        muls    r0, r4
 800269e:   f8d9 3004   ldr.w   r3, [r9, #4]
 80026a2:   009b        lsls    r3, r3, #2
 80026a4:   fbb0 f7f3   udiv    r7, r0, r3
 80026a8:   f7ff fd9c   bl  80021e4 <HAL_RCC_GetPCLK1Freq>
 80026ac:   4360        muls    r0, r4
 80026ae:   f8d9 3004   ldr.w   r3, [r9, #4]
 80026b2:   009b        lsls    r3, r3, #2
 80026b4:   fbb0 f3f3   udiv    r3, r0, r3
 80026b8:   fbb3 f3f8   udiv    r3, r3, r8
 80026bc:   fb08 7313   mls r3, r8, r3, r7
 80026c0:   011b        lsls    r3, r3, #4
 80026c2:   3332        adds    r3, #50 ; 0x32
 80026c4:   fbb3 f3f8   udiv    r3, r3, r8
 80026c8:   f003 07f0   and.w   r7, r3, #240    ; 0xf0
 80026cc:   f7ff fd8a   bl  80021e4 <HAL_RCC_GetPCLK1Freq>
 80026d0:   4360        muls    r0, r4
 80026d2:   f8d9 2004   ldr.w   r2, [r9, #4]
 80026d6:   0092        lsls    r2, r2, #2
 80026d8:   fbb0 faf2   udiv    sl, r0, r2
 80026dc:   f7ff fd82   bl  80021e4 <HAL_RCC_GetPCLK1Freq>
 80026e0:   e7b7        b.n 8002652 <UART_SetConfig+0xa6>
 80026e2:   bf00        nop
 80026e4:   40013800    .word   0x40013800

080026e8 <UART_WaitOnFlagUntilTimeout.constprop.1>:
 80026e8:   b5f8        push    {r3, r4, r5, r6, r7, lr}
 80026ea:   4604        mov r4, r0
 80026ec:   460e        mov r6, r1
 80026ee:   4615        mov r5, r2
 80026f0:   f7fe fd34   bl  800115c <HAL_GetTick>
 80026f4:   4607        mov r7, r0
 80026f6:   6822        ldr r2, [r4, #0]
 80026f8:   6813        ldr r3, [r2, #0]
 80026fa:   ea36 0303   bics.w  r3, r6, r3
 80026fe:   d101        bne.n   8002704 <UART_WaitOnFlagUntilTimeout.constprop.1+0x1c>
 8002700:   2000        movs    r0, #0
 8002702:   bdf8        pop {r3, r4, r5, r6, r7, pc}
 8002704:   1c6b        adds    r3, r5, #1
 8002706:   d0f7        beq.n   80026f8 <UART_WaitOnFlagUntilTimeout.constprop.1+0x10>
 8002708:   b9c5        cbnz    r5, 800273c <UART_WaitOnFlagUntilTimeout.constprop.1+0x54>
 800270a:   6823        ldr r3, [r4, #0]
 800270c:   2003        movs    r0, #3
 800270e:   68da        ldr r2, [r3, #12]
 8002710:   f022 0280   bic.w   r2, r2, #128    ; 0x80
 8002714:   60da        str r2, [r3, #12]
 8002716:   68da        ldr r2, [r3, #12]
 8002718:   f022 0220   bic.w   r2, r2, #32
 800271c:   60da        str r2, [r3, #12]
 800271e:   68da        ldr r2, [r3, #12]
 8002720:   f422 7280   bic.w   r2, r2, #256    ; 0x100
 8002724:   60da        str r2, [r3, #12]
 8002726:   695a        ldr r2, [r3, #20]
 8002728:   f022 0201   bic.w   r2, r2, #1
 800272c:   615a        str r2, [r3, #20]
 800272e:   2301        movs    r3, #1
 8002730:   f884 3039   strb.w  r3, [r4, #57]   ; 0x39
 8002734:   2300        movs    r3, #0
 8002736:   f884 3038   strb.w  r3, [r4, #56]   ; 0x38
 800273a:   bdf8        pop {r3, r4, r5, r6, r7, pc}
 800273c:   f7fe fd0e   bl  800115c <HAL_GetTick>
 8002740:   1bc0        subs    r0, r0, r7
 8002742:   4285        cmp r5, r0
 8002744:   d2d7        bcs.n   80026f6 <UART_WaitOnFlagUntilTimeout.constprop.1+0xe>
 8002746:   e7e0        b.n 800270a <UART_WaitOnFlagUntilTimeout.constprop.1+0x22>

08002748 <HAL_UART_Init>:
 8002748:   b510        push    {r4, lr}
 800274a:   4604        mov r4, r0
 800274c:   b330        cbz r0, 800279c <HAL_UART_Init+0x54>
 800274e:   f890 3039   ldrb.w  r3, [r0, #57]   ; 0x39
 8002752:   f003 02ff   and.w   r2, r3, #255    ; 0xff
 8002756:   b91b        cbnz    r3, 8002760 <HAL_UART_Init+0x18>
 8002758:   f880 2038   strb.w  r2, [r0, #56]   ; 0x38
 800275c:   f002 fd34   bl  80051c8 <HAL_UART_MspInit>
 8002760:   2302        movs    r3, #2
 8002762:   6822        ldr r2, [r4, #0]
 8002764:   f884 3039   strb.w  r3, [r4, #57]   ; 0x39
 8002768:   68d3        ldr r3, [r2, #12]
 800276a:   4620        mov r0, r4
 800276c:   f423 5300   bic.w   r3, r3, #8192   ; 0x2000
 8002770:   60d3        str r3, [r2, #12]
 8002772:   f7ff ff1b   bl  80025ac <UART_SetConfig>
 8002776:   6823        ldr r3, [r4, #0]
 8002778:   2000        movs    r0, #0
 800277a:   691a        ldr r2, [r3, #16]
 800277c:   f422 4290   bic.w   r2, r2, #18432  ; 0x4800
 8002780:   611a        str r2, [r3, #16]
 8002782:   695a        ldr r2, [r3, #20]
 8002784:   f022 022a   bic.w   r2, r2, #42 ; 0x2a
 8002788:   615a        str r2, [r3, #20]
 800278a:   68da        ldr r2, [r3, #12]
 800278c:   f442 5200   orr.w   r2, r2, #8192   ; 0x2000
 8002790:   60da        str r2, [r3, #12]
 8002792:   2301        movs    r3, #1
 8002794:   63e0        str r0, [r4, #60]   ; 0x3c
 8002796:   f884 3039   strb.w  r3, [r4, #57]   ; 0x39
 800279a:   bd10        pop {r4, pc}
 800279c:   2001        movs    r0, #1
 800279e:   bd10        pop {r4, pc}

080027a0 <HAL_UART_Transmit>:
 80027a0:   b570        push    {r4, r5, r6, lr}
 80027a2:   460d        mov r5, r1
 80027a4:   f890 1039   ldrb.w  r1, [r0, #57]   ; 0x39
 80027a8:   4604        mov r4, r0
 80027aa:   b2c9        uxtb    r1, r1
 80027ac:   2901        cmp r1, #1
 80027ae:   461e        mov r6, r3
 80027b0:   d001        beq.n   80027b6 <HAL_UART_Transmit+0x16>
 80027b2:   2922        cmp r1, #34 ; 0x22
 80027b4:   d14d        bne.n   8002852 <HAL_UART_Transmit+0xb2>
 80027b6:   2d00        cmp r5, #0
 80027b8:   d049        beq.n   800284e <HAL_UART_Transmit+0xae>
 80027ba:   2a00        cmp r2, #0
 80027bc:   d047        beq.n   800284e <HAL_UART_Transmit+0xae>
 80027be:   f894 3038   ldrb.w  r3, [r4, #56]   ; 0x38
 80027c2:   2b01        cmp r3, #1
 80027c4:   d045        beq.n   8002852 <HAL_UART_Transmit+0xb2>
 80027c6:   2301        movs    r3, #1
 80027c8:   f884 3038   strb.w  r3, [r4, #56]   ; 0x38
 80027cc:   2300        movs    r3, #0
 80027ce:   63e3        str r3, [r4, #60]   ; 0x3c
 80027d0:   f894 3039   ldrb.w  r3, [r4, #57]   ; 0x39
 80027d4:   84a2        strh    r2, [r4, #36]   ; 0x24
 80027d6:   2b22        cmp r3, #34 ; 0x22
 80027d8:   bf0c        ite eq
 80027da:   2332        moveq   r3, #50 ; 0x32
 80027dc:   2312        movne   r3, #18
 80027de:   84e2        strh    r2, [r4, #38]   ; 0x26
 80027e0:   f884 3039   strb.w  r3, [r4, #57]   ; 0x39
 80027e4:   8ce2        ldrh    r2, [r4, #38]   ; 0x26
 80027e6:   b98a        cbnz    r2, 800280c <HAL_UART_Transmit+0x6c>
 80027e8:   4632        mov r2, r6
 80027ea:   2140        movs    r1, #64 ; 0x40
 80027ec:   4620        mov r0, r4
 80027ee:   f7ff ff7b   bl  80026e8 <UART_WaitOnFlagUntilTimeout.constprop.1>
 80027f2:   b9c0        cbnz    r0, 8002826 <HAL_UART_Transmit+0x86>
 80027f4:   f894 3039   ldrb.w  r3, [r4, #57]   ; 0x39
 80027f8:   2b32        cmp r3, #50 ; 0x32
 80027fa:   bf0c        ite eq
 80027fc:   2322        moveq   r3, #34 ; 0x22
 80027fe:   2301        movne   r3, #1
 8002800:   f884 3039   strb.w  r3, [r4, #57]   ; 0x39
 8002804:   2300        movs    r3, #0
 8002806:   f884 3038   strb.w  r3, [r4, #56]   ; 0x38
 800280a:   bd70        pop {r4, r5, r6, pc}
 800280c:   68a3        ldr r3, [r4, #8]
 800280e:   3a01        subs    r2, #1
 8002810:   f5b3 5f80   cmp.w   r3, #4096   ; 0x1000
 8002814:   84e2        strh    r2, [r4, #38]   ; 0x26
 8002816:   f04f 0180   mov.w   r1, #128    ; 0x80
 800281a:   4632        mov r2, r6
 800281c:   4620        mov r0, r4
 800281e:   d10d        bne.n   800283c <HAL_UART_Transmit+0x9c>
 8002820:   f7ff ff62   bl  80026e8 <UART_WaitOnFlagUntilTimeout.constprop.1>
 8002824:   b108        cbz r0, 800282a <HAL_UART_Transmit+0x8a>
 8002826:   2003        movs    r0, #3
 8002828:   bd70        pop {r4, r5, r6, pc}
 800282a:   882b        ldrh    r3, [r5, #0]
 800282c:   6822        ldr r2, [r4, #0]
 800282e:   f3c3 0308   ubfx    r3, r3, #0, #9
 8002832:   6053        str r3, [r2, #4]
 8002834:   6923        ldr r3, [r4, #16]
 8002836:   b943        cbnz    r3, 800284a <HAL_UART_Transmit+0xaa>
 8002838:   3502        adds    r5, #2
 800283a:   e7d3        b.n 80027e4 <HAL_UART_Transmit+0x44>
 800283c:   f7ff ff54   bl  80026e8 <UART_WaitOnFlagUntilTimeout.constprop.1>
 8002840:   2800        cmp r0, #0
 8002842:   d1f0        bne.n   8002826 <HAL_UART_Transmit+0x86>
 8002844:   6823        ldr r3, [r4, #0]
 8002846:   782a        ldrb    r2, [r5, #0]
 8002848:   605a        str r2, [r3, #4]
 800284a:   3501        adds    r5, #1
 800284c:   e7ca        b.n 80027e4 <HAL_UART_Transmit+0x44>
 800284e:   2001        movs    r0, #1
 8002850:   bd70        pop {r4, r5, r6, pc}
 8002852:   2002        movs    r0, #2
 8002854:   bd70        pop {r4, r5, r6, pc}

08002856 <HAL_UART_Receive_IT>:
 8002856:   f890 3039   ldrb.w  r3, [r0, #57]   ; 0x39
 800285a:   b2db        uxtb    r3, r3
 800285c:   2b01        cmp r3, #1
 800285e:   d001        beq.n   8002864 <HAL_UART_Receive_IT+0xe>
 8002860:   2b12        cmp r3, #18
 8002862:   d128        bne.n   80028b6 <HAL_UART_Receive_IT+0x60>
 8002864:   b329        cbz r1, 80028b2 <HAL_UART_Receive_IT+0x5c>
 8002866:   b322        cbz r2, 80028b2 <HAL_UART_Receive_IT+0x5c>
 8002868:   f890 3038   ldrb.w  r3, [r0, #56]   ; 0x38
 800286c:   2b01        cmp r3, #1
 800286e:   d022        beq.n   80028b6 <HAL_UART_Receive_IT+0x60>
 8002870:   2301        movs    r3, #1
 8002872:   f880 3038   strb.w  r3, [r0, #56]   ; 0x38
 8002876:   2300        movs    r3, #0
 8002878:   63c3        str r3, [r0, #60]   ; 0x3c
 800287a:   8582        strh    r2, [r0, #44]   ; 0x2c
 800287c:   85c2        strh    r2, [r0, #46]   ; 0x2e
 800287e:   f890 2039   ldrb.w  r2, [r0, #57]   ; 0x39
 8002882:   f880 3038   strb.w  r3, [r0, #56]   ; 0x38
 8002886:   2a12        cmp r2, #18
 8002888:   bf0c        ite eq
 800288a:   2232        moveq   r2, #50 ; 0x32
 800288c:   2222        movne   r2, #34 ; 0x22
 800288e:   6803        ldr r3, [r0, #0]
 8002890:   f880 2039   strb.w  r2, [r0, #57]   ; 0x39
 8002894:   68da        ldr r2, [r3, #12]
 8002896:   6281        str r1, [r0, #40]   ; 0x28
 8002898:   f442 7280   orr.w   r2, r2, #256    ; 0x100
 800289c:   60da        str r2, [r3, #12]
 800289e:   695a        ldr r2, [r3, #20]
 80028a0:   2000        movs    r0, #0
 80028a2:   f042 0201   orr.w   r2, r2, #1
 80028a6:   615a        str r2, [r3, #20]
 80028a8:   68da        ldr r2, [r3, #12]
 80028aa:   f042 0220   orr.w   r2, r2, #32
 80028ae:   60da        str r2, [r3, #12]
 80028b0:   4770        bx  lr
 80028b2:   2001        movs    r0, #1
 80028b4:   4770        bx  lr
 80028b6:   2002        movs    r0, #2
 80028b8:   4770        bx  lr

080028ba <HAL_UART_TxCpltCallback>:
 80028ba:   4770        bx  lr

080028bc <HAL_UART_ErrorCallback>:
 80028bc:   4770        bx  lr

080028be <HAL_UART_IRQHandler>:
 80028be:   6802        ldr r2, [r0, #0]
 80028c0:   b513        push    {r0, r1, r4, lr}
 80028c2:   6811        ldr r1, [r2, #0]
 80028c4:   4604        mov r4, r0
 80028c6:   07c9        lsls    r1, r1, #31
 80028c8:   68d3        ldr r3, [r2, #12]
 80028ca:   d505        bpl.n   80028d8 <HAL_UART_IRQHandler+0x1a>
 80028cc:   05db        lsls    r3, r3, #23
 80028ce:   bf42        ittt    mi
 80028d0:   6bc3        ldrmi   r3, [r0, #60]   ; 0x3c
 80028d2:   f043 0301   orrmi.w r3, r3, #1
 80028d6:   63c3        strmi   r3, [r0, #60]   ; 0x3c
 80028d8:   6811        ldr r1, [r2, #0]
 80028da:   6953        ldr r3, [r2, #20]
 80028dc:   0788        lsls    r0, r1, #30
 80028de:   f003 0301   and.w   r3, r3, #1
 80028e2:   d504        bpl.n   80028ee <HAL_UART_IRQHandler+0x30>
 80028e4:   b11b        cbz r3, 80028ee <HAL_UART_IRQHandler+0x30>
 80028e6:   6be1        ldr r1, [r4, #60]   ; 0x3c
 80028e8:   f041 0104   orr.w   r1, r1, #4
 80028ec:   63e1        str r1, [r4, #60]   ; 0x3c
 80028ee:   6811        ldr r1, [r2, #0]
 80028f0:   0749        lsls    r1, r1, #29
 80028f2:   d504        bpl.n   80028fe <HAL_UART_IRQHandler+0x40>
 80028f4:   b11b        cbz r3, 80028fe <HAL_UART_IRQHandler+0x40>
 80028f6:   6be1        ldr r1, [r4, #60]   ; 0x3c
 80028f8:   f041 0102   orr.w   r1, r1, #2
 80028fc:   63e1        str r1, [r4, #60]   ; 0x3c
 80028fe:   6811        ldr r1, [r2, #0]
 8002900:   0708        lsls    r0, r1, #28
 8002902:   d504        bpl.n   800290e <HAL_UART_IRQHandler+0x50>
 8002904:   b11b        cbz r3, 800290e <HAL_UART_IRQHandler+0x50>
 8002906:   6be3        ldr r3, [r4, #60]   ; 0x3c
 8002908:   f043 0308   orr.w   r3, r3, #8
 800290c:   63e3        str r3, [r4, #60]   ; 0x3c
 800290e:   6811        ldr r1, [r2, #0]
 8002910:   68d3        ldr r3, [r2, #12]
 8002912:   0689        lsls    r1, r1, #26
 8002914:   d533        bpl.n   800297e <HAL_UART_IRQHandler+0xc0>
 8002916:   0698        lsls    r0, r3, #26
 8002918:   d531        bpl.n   800297e <HAL_UART_IRQHandler+0xc0>
 800291a:   f894 3039   ldrb.w  r3, [r4, #57]   ; 0x39
 800291e:   f003 03ef   and.w   r3, r3, #239    ; 0xef
 8002922:   2b22        cmp r3, #34 ; 0x22
 8002924:   d12b        bne.n   800297e <HAL_UART_IRQHandler+0xc0>
 8002926:   68a3        ldr r3, [r4, #8]
 8002928:   6921        ldr r1, [r4, #16]
 800292a:   f5b3 5f80   cmp.w   r3, #4096   ; 0x1000
 800292e:   6aa3        ldr r3, [r4, #40]   ; 0x28
 8002930:   d176        bne.n   8002a20 <HAL_UART_IRQHandler+0x162>
 8002932:   6852        ldr r2, [r2, #4]
 8002934:   2900        cmp r1, #0
 8002936:   d16f        bne.n   8002a18 <HAL_UART_IRQHandler+0x15a>
 8002938:   f3c2 0208   ubfx    r2, r2, #0, #9
 800293c:   f823 2b02   strh.w  r2, [r3], #2
 8002940:   62a3        str r3, [r4, #40]   ; 0x28
 8002942:   8de3        ldrh    r3, [r4, #46]   ; 0x2e
 8002944:   3b01        subs    r3, #1
 8002946:   b29b        uxth    r3, r3
 8002948:   85e3        strh    r3, [r4, #46]   ; 0x2e
 800294a:   b9c3        cbnz    r3, 800297e <HAL_UART_IRQHandler+0xc0>
 800294c:   6823        ldr r3, [r4, #0]
 800294e:   4620        mov r0, r4
 8002950:   68da        ldr r2, [r3, #12]
 8002952:   f022 0220   bic.w   r2, r2, #32
 8002956:   60da        str r2, [r3, #12]
 8002958:   f894 2039   ldrb.w  r2, [r4, #57]   ; 0x39
 800295c:   2a32        cmp r2, #50 ; 0x32
 800295e:   bf17        itett   ne
 8002960:   68da        ldrne   r2, [r3, #12]
 8002962:   2312        moveq   r3, #18
 8002964:   f422 7280   bicne.w r2, r2, #256    ; 0x100
 8002968:   60da        strne   r2, [r3, #12]
 800296a:   bf1f        itttt   ne
 800296c:   695a        ldrne   r2, [r3, #20]
 800296e:   f022 0201   bicne.w r2, r2, #1
 8002972:   615a        strne   r2, [r3, #20]
 8002974:   2301        movne   r3, #1
 8002976:   f884 3039   strb.w  r3, [r4, #57]   ; 0x39
 800297a:   f002 faff   bl  8004f7c <HAL_UART_RxCpltCallback>
 800297e:   6823        ldr r3, [r4, #0]
 8002980:   6819        ldr r1, [r3, #0]
 8002982:   68da        ldr r2, [r3, #12]
 8002984:   0609        lsls    r1, r1, #24
 8002986:   d522        bpl.n   80029ce <HAL_UART_IRQHandler+0x110>
 8002988:   0610        lsls    r0, r2, #24
 800298a:   d520        bpl.n   80029ce <HAL_UART_IRQHandler+0x110>
 800298c:   f894 2039   ldrb.w  r2, [r4, #57]   ; 0x39
 8002990:   f002 02df   and.w   r2, r2, #223    ; 0xdf
 8002994:   2a12        cmp r2, #18
 8002996:   d11a        bne.n   80029ce <HAL_UART_IRQHandler+0x110>
 8002998:   68a2        ldr r2, [r4, #8]
 800299a:   f5b2 5f80   cmp.w   r2, #4096   ; 0x1000
 800299e:   6a22        ldr r2, [r4, #32]
 80029a0:   d14c        bne.n   8002a3c <HAL_UART_IRQHandler+0x17e>
 80029a2:   8811        ldrh    r1, [r2, #0]
 80029a4:   f3c1 0108   ubfx    r1, r1, #0, #9
 80029a8:   6059        str r1, [r3, #4]
 80029aa:   6921        ldr r1, [r4, #16]
 80029ac:   2900        cmp r1, #0
 80029ae:   d143        bne.n   8002a38 <HAL_UART_IRQHandler+0x17a>
 80029b0:   3202        adds    r2, #2
 80029b2:   6222        str r2, [r4, #32]
 80029b4:   8ce2        ldrh    r2, [r4, #38]   ; 0x26
 80029b6:   3a01        subs    r2, #1
 80029b8:   b292        uxth    r2, r2
 80029ba:   84e2        strh    r2, [r4, #38]   ; 0x26
 80029bc:   b93a        cbnz    r2, 80029ce <HAL_UART_IRQHandler+0x110>
 80029be:   68da        ldr r2, [r3, #12]
 80029c0:   f022 0280   bic.w   r2, r2, #128    ; 0x80
 80029c4:   60da        str r2, [r3, #12]
 80029c6:   68da        ldr r2, [r3, #12]
 80029c8:   f042 0240   orr.w   r2, r2, #64 ; 0x40
 80029cc:   60da        str r2, [r3, #12]
 80029ce:   6819        ldr r1, [r3, #0]
 80029d0:   68da        ldr r2, [r3, #12]
 80029d2:   0649        lsls    r1, r1, #25
 80029d4:   d510        bpl.n   80029f8 <HAL_UART_IRQHandler+0x13a>
 80029d6:   0652        lsls    r2, r2, #25
 80029d8:   d50e        bpl.n   80029f8 <HAL_UART_IRQHandler+0x13a>
 80029da:   68da        ldr r2, [r3, #12]
 80029dc:   4620        mov r0, r4
 80029de:   f022 0240   bic.w   r2, r2, #64 ; 0x40
 80029e2:   60da        str r2, [r3, #12]
 80029e4:   f894 3039   ldrb.w  r3, [r4, #57]   ; 0x39
 80029e8:   2b32        cmp r3, #50 ; 0x32
 80029ea:   bf0c        ite eq
 80029ec:   2322        moveq   r3, #34 ; 0x22
 80029ee:   2301        movne   r3, #1
 80029f0:   f884 3039   strb.w  r3, [r4, #57]   ; 0x39
 80029f4:   f7ff ff61   bl  80028ba <HAL_UART_TxCpltCallback>
 80029f8:   6be3        ldr r3, [r4, #60]   ; 0x3c
 80029fa:   b15b        cbz r3, 8002a14 <HAL_UART_IRQHandler+0x156>
 80029fc:   6823        ldr r3, [r4, #0]
 80029fe:   4620        mov r0, r4
 8002a00:   681a        ldr r2, [r3, #0]
 8002a02:   9201        str r2, [sp, #4]
 8002a04:   685b        ldr r3, [r3, #4]
 8002a06:   9301        str r3, [sp, #4]
 8002a08:   9b01        ldr r3, [sp, #4]
 8002a0a:   2301        movs    r3, #1
 8002a0c:   f884 3039   strb.w  r3, [r4, #57]   ; 0x39
 8002a10:   f7ff ff54   bl  80028bc <HAL_UART_ErrorCallback>
 8002a14:   b002        add sp, #8
 8002a16:   bd10        pop {r4, pc}
 8002a18:   b2d2        uxtb    r2, r2
 8002a1a:   f823 2b01   strh.w  r2, [r3], #1
 8002a1e:   e78f        b.n 8002940 <HAL_UART_IRQHandler+0x82>
 8002a20:   b921        cbnz    r1, 8002a2c <HAL_UART_IRQHandler+0x16e>
 8002a22:   1c59        adds    r1, r3, #1
 8002a24:   6852        ldr r2, [r2, #4]
 8002a26:   62a1        str r1, [r4, #40]   ; 0x28
 8002a28:   701a        strb    r2, [r3, #0]
 8002a2a:   e78a        b.n 8002942 <HAL_UART_IRQHandler+0x84>
 8002a2c:   6852        ldr r2, [r2, #4]
 8002a2e:   1c59        adds    r1, r3, #1
 8002a30:   62a1        str r1, [r4, #40]   ; 0x28
 8002a32:   f002 027f   and.w   r2, r2, #127    ; 0x7f
 8002a36:   e7f7        b.n 8002a28 <HAL_UART_IRQHandler+0x16a>
 8002a38:   3201        adds    r2, #1
 8002a3a:   e7ba        b.n 80029b2 <HAL_UART_IRQHandler+0xf4>
 8002a3c:   1c51        adds    r1, r2, #1
 8002a3e:   6221        str r1, [r4, #32]
 8002a40:   7812        ldrb    r2, [r2, #0]
 8002a42:   605a        str r2, [r3, #4]
 8002a44:   e7b6        b.n 80029b4 <HAL_UART_IRQHandler+0xf6>
    ...

08002a48 <MPU9250_Init>:
 8002a48:   b510        push    {r4, lr}
 8002a4a:   233b        movs    r3, #59 ; 0x3b
 8002a4c:   4a1e        ldr r2, [pc, #120]  ; (8002ac8 <MPU9250_Init+0x80>)
 8002a4e:   2175        movs    r1, #117    ; 0x75
 8002a50:   20d0        movs    r0, #208    ; 0xd0
 8002a52:   f001 faeb   bl  800402c <I2C_ReadByte>
 8002a56:   2871        cmp r0, #113    ; 0x71
 8002a58:   d003        beq.n   8002a62 <MPU9250_Init+0x1a>
 8002a5a:   213c        movs    r1, #60 ; 0x3c
 8002a5c:   481a        ldr r0, [pc, #104]  ; (8002ac8 <MPU9250_Init+0x80>)
 8002a5e:   f001 fea7   bl  80047b0 <_Error_Handler>
 8002a62:   2301        movs    r3, #1
 8002a64:   2280        movs    r2, #128    ; 0x80
 8002a66:   216b        movs    r1, #107    ; 0x6b
 8002a68:   20d0        movs    r0, #208    ; 0xd0
 8002a6a:   f001 fabf   bl  8003fec <I2C_WriteByte>
 8002a6e:   2301        movs    r3, #1
 8002a70:   216b        movs    r1, #107    ; 0x6b
 8002a72:   461a        mov r2, r3
 8002a74:   20d0        movs    r0, #208    ; 0xd0
 8002a76:   f001 fab9   bl  8003fec <I2C_WriteByte>
 8002a7a:   2301        movs    r3, #1
 8002a7c:   2200        movs    r2, #0
 8002a7e:   216c        movs    r1, #108    ; 0x6c
 8002a80:   20d0        movs    r0, #208    ; 0xd0
 8002a82:   f001 fab3   bl  8003fec <I2C_WriteByte>
 8002a86:   2301        movs    r3, #1
 8002a88:   2200        movs    r2, #0
 8002a8a:   2119        movs    r1, #25
 8002a8c:   20d0        movs    r0, #208    ; 0xd0
 8002a8e:   f001 faad   bl  8003fec <I2C_WriteByte>
 8002a92:   2301        movs    r3, #1
 8002a94:   2203        movs    r2, #3
 8002a96:   211d        movs    r1, #29
 8002a98:   20d0        movs    r0, #208    ; 0xd0
 8002a9a:   f001 faa7   bl  8003fec <I2C_WriteByte>
 8002a9e:   2301        movs    r3, #1
 8002aa0:   2203        movs    r2, #3
 8002aa2:   211a        movs    r1, #26
 8002aa4:   20d0        movs    r0, #208    ; 0xd0
 8002aa6:   f001 faa1   bl  8003fec <I2C_WriteByte>
 8002aaa:   2301        movs    r3, #1
 8002aac:   2210        movs    r2, #16
 8002aae:   211b        movs    r1, #27
 8002ab0:   20d0        movs    r0, #208    ; 0xd0
 8002ab2:   f001 fa9b   bl  8003fec <I2C_WriteByte>
 8002ab6:   e8bd 4010   ldmia.w sp!, {r4, lr}
 8002aba:   2301        movs    r3, #1
 8002abc:   2208        movs    r2, #8
 8002abe:   211c        movs    r1, #28
 8002ac0:   20d0        movs    r0, #208    ; 0xd0
 8002ac2:   f001 ba93   b.w 8003fec <I2C_WriteByte>
 8002ac6:   bf00        nop
 8002ac8:   08007650    .word   0x08007650

08002acc <MPU9250_ReadAccelData>:
 8002acc:   b57f        push    {r0, r1, r2, r3, r4, r5, r6, lr}
 8002ace:   2300        movs    r3, #0
 8002ad0:   9302        str r3, [sp, #8]
 8002ad2:   f8ad 300c   strh.w  r3, [sp, #12]
 8002ad6:   2358        movs    r3, #88 ; 0x58
 8002ad8:   9301        str r3, [sp, #4]
 8002ada:   4b23        ldr r3, [pc, #140]  ; (8002b68 <MPU9250_ReadAccelData+0x9c>)
 8002adc:   aa02        add r2, sp, #8
 8002ade:   9300        str r3, [sp, #0]
 8002ae0:   213b        movs    r1, #59 ; 0x3b
 8002ae2:   2306        movs    r3, #6
 8002ae4:   20d0        movs    r0, #208    ; 0xd0
 8002ae6:   f001 fad7   bl  8004098 <I2C_ReadByteArray>
 8002aea:   f89d 200a   ldrb.w  r2, [sp, #10]
 8002aee:   f89d 500b   ldrb.w  r5, [sp, #11]
 8002af2:   f89d 3008   ldrb.w  r3, [sp, #8]
 8002af6:   f89d 0009   ldrb.w  r0, [sp, #9]
 8002afa:   ea45 2502   orr.w   r5, r5, r2, lsl #8
 8002afe:   f89d 400d   ldrb.w  r4, [sp, #13]
 8002b02:   f89d 200c   ldrb.w  r2, [sp, #12]
 8002b06:   ea40 2003   orr.w   r0, r0, r3, lsl #8
 8002b0a:   ea44 2402   orr.w   r4, r4, r2, lsl #8
 8002b0e:   4b17        ldr r3, [pc, #92]   ; (8002b6c <MPU9250_ReadAccelData+0xa0>)
 8002b10:   b22d        sxth    r5, r5
 8002b12:   b224        sxth    r4, r4
 8002b14:   b200        sxth    r0, r0
 8002b16:   8018        strh    r0, [r3, #0]
 8002b18:   805d        strh    r5, [r3, #2]
 8002b1a:   809c        strh    r4, [r3, #4]
 8002b1c:   f7fe f892   bl  8000c44 <__aeabi_i2f>
 8002b20:   f04f 4181   mov.w   r1, #1082130432 ; 0x40800000
 8002b24:   f7fe f8e2   bl  8000cec <__aeabi_fmul>
 8002b28:   f04f 5160   mov.w   r1, #939524096  ; 0x38000000
 8002b2c:   f7fe f8de   bl  8000cec <__aeabi_fmul>
 8002b30:   4e0f        ldr r6, [pc, #60]   ; (8002b70 <MPU9250_ReadAccelData+0xa4>)
 8002b32:   6030        str r0, [r6, #0]
 8002b34:   4628        mov r0, r5
 8002b36:   f7fe f885   bl  8000c44 <__aeabi_i2f>
 8002b3a:   f04f 4181   mov.w   r1, #1082130432 ; 0x40800000
 8002b3e:   f7fe f8d5   bl  8000cec <__aeabi_fmul>
 8002b42:   f04f 5160   mov.w   r1, #939524096  ; 0x38000000
 8002b46:   f7fe f8d1   bl  8000cec <__aeabi_fmul>
 8002b4a:   6070        str r0, [r6, #4]
 8002b4c:   4620        mov r0, r4
 8002b4e:   f7fe f879   bl  8000c44 <__aeabi_i2f>
 8002b52:   f04f 4181   mov.w   r1, #1082130432 ; 0x40800000
 8002b56:   f7fe f8c9   bl  8000cec <__aeabi_fmul>
 8002b5a:   f04f 5160   mov.w   r1, #939524096  ; 0x38000000
 8002b5e:   f7fe f8c5   bl  8000cec <__aeabi_fmul>
 8002b62:   60b0        str r0, [r6, #8]
 8002b64:   b004        add sp, #16
 8002b66:   bd70        pop {r4, r5, r6, pc}
 8002b68:   08007650    .word   0x08007650
 8002b6c:   200002f0    .word   0x200002f0
 8002b70:   200002cc    .word   0x200002cc

08002b74 <MPU9250_ReadGyroData>:
 8002b74:   2300        movs    r3, #0
 8002b76:   b5f0        push    {r4, r5, r6, r7, lr}
 8002b78:   b085        sub sp, #20
 8002b7a:   9302        str r3, [sp, #8]
 8002b7c:   f8ad 300c   strh.w  r3, [sp, #12]
 8002b80:   237b        movs    r3, #123    ; 0x7b
 8002b82:   9301        str r3, [sp, #4]
 8002b84:   4b26        ldr r3, [pc, #152]  ; (8002c20 <MPU9250_ReadGyroData+0xac>)
 8002b86:   aa02        add r2, sp, #8
 8002b88:   9300        str r3, [sp, #0]
 8002b8a:   2143        movs    r1, #67 ; 0x43
 8002b8c:   2306        movs    r3, #6
 8002b8e:   20d0        movs    r0, #208    ; 0xd0
 8002b90:   f001 fa82   bl  8004098 <I2C_ReadByteArray>
 8002b94:   f89d 200a   ldrb.w  r2, [sp, #10]
 8002b98:   f89d 500b   ldrb.w  r5, [sp, #11]
 8002b9c:   f89d 3008   ldrb.w  r3, [sp, #8]
 8002ba0:   f89d 0009   ldrb.w  r0, [sp, #9]
 8002ba4:   ea45 2502   orr.w   r5, r5, r2, lsl #8
 8002ba8:   f89d 400d   ldrb.w  r4, [sp, #13]
 8002bac:   f89d 200c   ldrb.w  r2, [sp, #12]
 8002bb0:   ea40 2003   orr.w   r0, r0, r3, lsl #8
 8002bb4:   ea44 2402   orr.w   r4, r4, r2, lsl #8
 8002bb8:   4b1a        ldr r3, [pc, #104]  ; (8002c24 <MPU9250_ReadGyroData+0xb0>)
 8002bba:   b22d        sxth    r5, r5
 8002bbc:   b224        sxth    r4, r4
 8002bbe:   b200        sxth    r0, r0
 8002bc0:   8018        strh    r0, [r3, #0]
 8002bc2:   805d        strh    r5, [r3, #2]
 8002bc4:   809c        strh    r4, [r3, #4]
 8002bc6:   f7fe f83d   bl  8000c44 <__aeabi_i2f>
 8002bca:   4f17        ldr r7, [pc, #92]   ; (8002c28 <MPU9250_ReadGyroData+0xb4>)
 8002bcc:   4917        ldr r1, [pc, #92]   ; (8002c2c <MPU9250_ReadGyroData+0xb8>)
 8002bce:   f7fe f88d   bl  8000cec <__aeabi_fmul>
 8002bd2:   f04f 5160   mov.w   r1, #939524096  ; 0x38000000
 8002bd6:   f7fe f889   bl  8000cec <__aeabi_fmul>
 8002bda:   6839        ldr r1, [r7, #0]
 8002bdc:   f7fd ff7c   bl  8000ad8 <__aeabi_fsub>
 8002be0:   4e13        ldr r6, [pc, #76]   ; (8002c30 <MPU9250_ReadGyroData+0xbc>)
 8002be2:   6030        str r0, [r6, #0]
 8002be4:   4628        mov r0, r5
 8002be6:   f7fe f82d   bl  8000c44 <__aeabi_i2f>
 8002bea:   4910        ldr r1, [pc, #64]   ; (8002c2c <MPU9250_ReadGyroData+0xb8>)
 8002bec:   f7fe f87e   bl  8000cec <__aeabi_fmul>
 8002bf0:   f04f 5160   mov.w   r1, #939524096  ; 0x38000000
 8002bf4:   f7fe f87a   bl  8000cec <__aeabi_fmul>
 8002bf8:   6879        ldr r1, [r7, #4]
 8002bfa:   f7fd ff6d   bl  8000ad8 <__aeabi_fsub>
 8002bfe:   6070        str r0, [r6, #4]
 8002c00:   4620        mov r0, r4
 8002c02:   f7fe f81f   bl  8000c44 <__aeabi_i2f>
 8002c06:   4909        ldr r1, [pc, #36]   ; (8002c2c <MPU9250_ReadGyroData+0xb8>)
 8002c08:   f7fe f870   bl  8000cec <__aeabi_fmul>
 8002c0c:   f04f 5160   mov.w   r1, #939524096  ; 0x38000000
 8002c10:   f7fe f86c   bl  8000cec <__aeabi_fmul>
 8002c14:   68b9        ldr r1, [r7, #8]
 8002c16:   f7fd ff5f   bl  8000ad8 <__aeabi_fsub>
 8002c1a:   60b0        str r0, [r6, #8]
 8002c1c:   b005        add sp, #20
 8002c1e:   bdf0        pop {r4, r5, r6, r7, pc}
 8002c20:   08007650    .word   0x08007650
 8002c24:   200002ba    .word   0x200002ba
 8002c28:   20000000    .word   0x20000000
 8002c2c:   447a0000    .word   0x447a0000
 8002c30:   200002c0    .word   0x200002c0

08002c34 <AK8963_Init>:
 8002c34:   b51f        push    {r0, r1, r2, r3, r4, lr}
 8002c36:   2301        movs    r3, #1
 8002c38:   2222        movs    r2, #34 ; 0x22
 8002c3a:   2137        movs    r1, #55 ; 0x37
 8002c3c:   20d0        movs    r0, #208    ; 0xd0
 8002c3e:   f001 f9d5   bl  8003fec <I2C_WriteByte>
 8002c42:   2301        movs    r3, #1
 8002c44:   216a        movs    r1, #106    ; 0x6a
 8002c46:   461a        mov r2, r3
 8002c48:   20d0        movs    r0, #208    ; 0xd0
 8002c4a:   f001 f9cf   bl  8003fec <I2C_WriteByte>
 8002c4e:   23ad        movs    r3, #173    ; 0xad
 8002c50:   4a2f        ldr r2, [pc, #188]  ; (8002d10 <AK8963_Init+0xdc>)
 8002c52:   2100        movs    r1, #0
 8002c54:   2018        movs    r0, #24
 8002c56:   f001 f9e9   bl  800402c <I2C_ReadByte>
 8002c5a:   2848        cmp r0, #72 ; 0x48
 8002c5c:   4c2c        ldr r4, [pc, #176]  ; (8002d10 <AK8963_Init+0xdc>)
 8002c5e:   d003        beq.n   8002c68 <AK8963_Init+0x34>
 8002c60:   21ae        movs    r1, #174    ; 0xae
 8002c62:   4620        mov r0, r4
 8002c64:   f001 fda4   bl  80047b0 <_Error_Handler>
 8002c68:   2301        movs    r3, #1
 8002c6a:   210b        movs    r1, #11
 8002c6c:   461a        mov r2, r3
 8002c6e:   2018        movs    r0, #24
 8002c70:   f001 f9bc   bl  8003fec <I2C_WriteByte>
 8002c74:   2301        movs    r3, #1
 8002c76:   2200        movs    r2, #0
 8002c78:   210a        movs    r1, #10
 8002c7a:   2018        movs    r0, #24
 8002c7c:   f001 f9b6   bl  8003fec <I2C_WriteByte>
 8002c80:   2301        movs    r3, #1
 8002c82:   220f        movs    r2, #15
 8002c84:   210a        movs    r1, #10
 8002c86:   2018        movs    r0, #24
 8002c88:   f001 f9b0   bl  8003fec <I2C_WriteByte>
 8002c8c:   23b6        movs    r3, #182    ; 0xb6
 8002c8e:   aa03        add r2, sp, #12
 8002c90:   9301        str r3, [sp, #4]
 8002c92:   9400        str r4, [sp, #0]
 8002c94:   2303        movs    r3, #3
 8002c96:   2110        movs    r1, #16
 8002c98:   2018        movs    r0, #24
 8002c9a:   f001 f9fd   bl  8004098 <I2C_ReadByteArray>
 8002c9e:   f89d 000c   ldrb.w  r0, [sp, #12]
 8002ca2:   4c1c        ldr r4, [pc, #112]  ; (8002d14 <AK8963_Init+0xe0>)
 8002ca4:   3880        subs    r0, #128    ; 0x80
 8002ca6:   f7fd ffcd   bl  8000c44 <__aeabi_i2f>
 8002caa:   f04f 516e   mov.w   r1, #998244352  ; 0x3b800000
 8002cae:   f7fe f81d   bl  8000cec <__aeabi_fmul>
 8002cb2:   f04f 517e   mov.w   r1, #1065353216 ; 0x3f800000
 8002cb6:   f7fd ff11   bl  8000adc <__addsf3>
 8002cba:   6020        str r0, [r4, #0]
 8002cbc:   f89d 000d   ldrb.w  r0, [sp, #13]
 8002cc0:   3880        subs    r0, #128    ; 0x80
 8002cc2:   f7fd ffbf   bl  8000c44 <__aeabi_i2f>
 8002cc6:   f04f 516e   mov.w   r1, #998244352  ; 0x3b800000
 8002cca:   f7fe f80f   bl  8000cec <__aeabi_fmul>
 8002cce:   f04f 517e   mov.w   r1, #1065353216 ; 0x3f800000
 8002cd2:   f7fd ff03   bl  8000adc <__addsf3>
 8002cd6:   6060        str r0, [r4, #4]
 8002cd8:   f89d 000e   ldrb.w  r0, [sp, #14]
 8002cdc:   3880        subs    r0, #128    ; 0x80
 8002cde:   f7fd ffb1   bl  8000c44 <__aeabi_i2f>
 8002ce2:   f04f 516e   mov.w   r1, #998244352  ; 0x3b800000
 8002ce6:   f7fe f801   bl  8000cec <__aeabi_fmul>
 8002cea:   f04f 517e   mov.w   r1, #1065353216 ; 0x3f800000
 8002cee:   f7fd fef5   bl  8000adc <__addsf3>
 8002cf2:   2301        movs    r3, #1
 8002cf4:   60a0        str r0, [r4, #8]
 8002cf6:   2200        movs    r2, #0
 8002cf8:   210a        movs    r1, #10
 8002cfa:   2018        movs    r0, #24
 8002cfc:   f001 f976   bl  8003fec <I2C_WriteByte>
 8002d00:   2301        movs    r3, #1
 8002d02:   2216        movs    r2, #22
 8002d04:   210a        movs    r1, #10
 8002d06:   2018        movs    r0, #24
 8002d08:   f001 f970   bl  8003fec <I2C_WriteByte>
 8002d0c:   b004        add sp, #16
 8002d0e:   bd10        pop {r4, pc}
 8002d10:   08007650    .word   0x08007650
 8002d14:   200002e4    .word   0x200002e4

08002d18 <AK8963_ReadData>:
 8002d18:   e92d 47ff   stmdb   sp!, {r0, r1, r2, r3, r4, r5, r6, r7, r8, r9, sl, lr}
 8002d1c:   2300        movs    r3, #0
 8002d1e:   4c3c        ldr r4, [pc, #240]  ; (8002e10 <AK8963_ReadData+0xf8>)
 8002d20:   9302        str r3, [sp, #8]
 8002d22:   4622        mov r2, r4
 8002d24:   f8cd 300b   str.w   r3, [sp, #11]
 8002d28:   2102        movs    r1, #2
 8002d2a:   23d7        movs    r3, #215    ; 0xd7
 8002d2c:   2018        movs    r0, #24
 8002d2e:   f001 f97d   bl  800402c <I2C_ReadByte>
 8002d32:   07c2        lsls    r2, r0, #31
 8002d34:   d563        bpl.n   8002dfe <AK8963_ReadData+0xe6>
 8002d36:   23da        movs    r3, #218    ; 0xda
 8002d38:   9400        str r4, [sp, #0]
 8002d3a:   9301        str r3, [sp, #4]
 8002d3c:   aa02        add r2, sp, #8
 8002d3e:   2307        movs    r3, #7
 8002d40:   2103        movs    r1, #3
 8002d42:   2018        movs    r0, #24
 8002d44:   f001 f9a8   bl  8004098 <I2C_ReadByteArray>
 8002d48:   f89d 300e   ldrb.w  r3, [sp, #14]
 8002d4c:   071b        lsls    r3, r3, #28
 8002d4e:   d459        bmi.n   8002e04 <AK8963_ReadData+0xec>
 8002d50:   f89d 200b   ldrb.w  r2, [sp, #11]
 8002d54:   f89d 500a   ldrb.w  r5, [sp, #10]
 8002d58:   f89d 3009   ldrb.w  r3, [sp, #9]
 8002d5c:   ea45 2502   orr.w   r5, r5, r2, lsl #8
 8002d60:   f89d 0008   ldrb.w  r0, [sp, #8]
 8002d64:   f89d 200d   ldrb.w  r2, [sp, #13]
 8002d68:   f89d 400c   ldrb.w  r4, [sp, #12]
 8002d6c:   ea40 2003   orr.w   r0, r0, r3, lsl #8
 8002d70:   ea44 2402   orr.w   r4, r4, r2, lsl #8
 8002d74:   4b27        ldr r3, [pc, #156]  ; (8002e14 <AK8963_ReadData+0xfc>)
 8002d76:   b200        sxth    r0, r0
 8002d78:   b22d        sxth    r5, r5
 8002d7a:   b224        sxth    r4, r4
 8002d7c:   8018        strh    r0, [r3, #0]
 8002d7e:   805d        strh    r5, [r3, #2]
 8002d80:   809c        strh    r4, [r3, #4]
 8002d82:   4b25        ldr r3, [pc, #148]  ; (8002e18 <AK8963_ReadData+0x100>)
 8002d84:   f8df 90a0   ldr.w   r9, [pc, #160]  ; 8002e28 <AK8963_ReadData+0x110>
 8002d88:   f8d3 a000   ldr.w   sl, [r3]
 8002d8c:   f8df 809c   ldr.w   r8, [pc, #156]  ; 8002e2c <AK8963_ReadData+0x114>
 8002d90:   f7fd ff58   bl  8000c44 <__aeabi_i2f>
 8002d94:   4651        mov r1, sl
 8002d96:   f7fd ffa9   bl  8000cec <__aeabi_fmul>
 8002d9a:   4f20        ldr r7, [pc, #128]  ; (8002e1c <AK8963_ReadData+0x104>)
 8002d9c:   f8d9 1000   ldr.w   r1, [r9]
 8002da0:   f7fd ffa4   bl  8000cec <__aeabi_fmul>
 8002da4:   f8d8 1000   ldr.w   r1, [r8]
 8002da8:   f7fd fe96   bl  8000ad8 <__aeabi_fsub>
 8002dac:   6839        ldr r1, [r7, #0]
 8002dae:   f7fd ff9d   bl  8000cec <__aeabi_fmul>
 8002db2:   4e1b        ldr r6, [pc, #108]  ; (8002e20 <AK8963_ReadData+0x108>)
 8002db4:   6030        str r0, [r6, #0]
 8002db6:   4628        mov r0, r5
 8002db8:   f7fd ff44   bl  8000c44 <__aeabi_i2f>
 8002dbc:   4651        mov r1, sl
 8002dbe:   f7fd ff95   bl  8000cec <__aeabi_fmul>
 8002dc2:   f8d9 1004   ldr.w   r1, [r9, #4]
 8002dc6:   f7fd ff91   bl  8000cec <__aeabi_fmul>
 8002dca:   f8d8 1004   ldr.w   r1, [r8, #4]
 8002dce:   f7fd fe83   bl  8000ad8 <__aeabi_fsub>
 8002dd2:   6879        ldr r1, [r7, #4]
 8002dd4:   f7fd ff8a   bl  8000cec <__aeabi_fmul>
 8002dd8:   6070        str r0, [r6, #4]
 8002dda:   4620        mov r0, r4
 8002ddc:   f7fd ff32   bl  8000c44 <__aeabi_i2f>
 8002de0:   4651        mov r1, sl
 8002de2:   f7fd ff83   bl  8000cec <__aeabi_fmul>
 8002de6:   f8d9 1008   ldr.w   r1, [r9, #8]
 8002dea:   f7fd ff7f   bl  8000cec <__aeabi_fmul>
 8002dee:   f8d8 1008   ldr.w   r1, [r8, #8]
 8002df2:   f7fd fe71   bl  8000ad8 <__aeabi_fsub>
 8002df6:   68b9        ldr r1, [r7, #8]
 8002df8:   f7fd ff78   bl  8000cec <__aeabi_fmul>
 8002dfc:   60b0        str r0, [r6, #8]
 8002dfe:   b004        add sp, #16
 8002e00:   e8bd 87f0   ldmia.w sp!, {r4, r5, r6, r7, r8, r9, sl, pc}
 8002e04:   4a07        ldr r2, [pc, #28]   ; (8002e24 <AK8963_ReadData+0x10c>)
 8002e06:   8853        ldrh    r3, [r2, #2]
 8002e08:   3301        adds    r3, #1
 8002e0a:   8053        strh    r3, [r2, #2]
 8002e0c:   e7f7        b.n 8002dfe <AK8963_ReadData+0xe6>
 8002e0e:   bf00        nop
 8002e10:   08007650    .word   0x08007650
 8002e14:   200002b4    .word   0x200002b4
 8002e18:   2000001c    .word   0x2000001c
 8002e1c:   2000002c    .word   0x2000002c
 8002e20:   200002d8    .word   0x200002d8
 8002e24:   200013b5    .word   0x200013b5
 8002e28:   200002e4    .word   0x200002e4
 8002e2c:   20000020    .word   0x20000020

08002e30 <IMU_Init>:
 8002e30:   b508        push    {r3, lr}
 8002e32:   f7ff fe09   bl  8002a48 <MPU9250_Init>
 8002e36:   f7ff fefd   bl  8002c34 <AK8963_Init>
 8002e3a:   4804        ldr r0, [pc, #16]   ; (8002e4c <IMU_Init+0x1c>)
 8002e3c:   f000 fa32   bl  80032a4 <MadgwickSetBeta>
 8002e40:   e8bd 4008   ldmia.w sp!, {r3, lr}
 8002e44:   2000        movs    r0, #0
 8002e46:   f000 ba33   b.w 80032b0 <MadgwickSetDelta>
 8002e4a:   bf00        nop
 8002e4c:   3f19999a    .word   0x3f19999a

08002e50 <AHRS_GetPitch>:
 8002e50:   4b02        ldr r3, [pc, #8]    ; (8002e5c <AHRS_GetPitch+0xc>)
 8002e52:   4803        ldr r0, [pc, #12]   ; (8002e60 <AHRS_GetPitch+0x10>)
 8002e54:   6859        ldr r1, [r3, #4]
 8002e56:   f001 b833   b.w 8003ec0 <lowPassFilter>
 8002e5a:   bf00        nop
 8002e5c:   20000248    .word   0x20000248
 8002e60:   2000000c    .word   0x2000000c

08002e64 <AHRS_GetRoll>:
 8002e64:   4b02        ldr r3, [pc, #8]    ; (8002e70 <AHRS_GetRoll+0xc>)
 8002e66:   4803        ldr r0, [pc, #12]   ; (8002e74 <AHRS_GetRoll+0x10>)
 8002e68:   6819        ldr r1, [r3, #0]
 8002e6a:   f001 b829   b.w 8003ec0 <lowPassFilter>
 8002e6e:   bf00        nop
 8002e70:   20000248    .word   0x20000248
 8002e74:   20000014    .word   0x20000014

08002e78 <AHRS_GetYaw>:
 8002e78:   4b0b        ldr r3, [pc, #44]   ; (8002ea8 <AHRS_GetYaw+0x30>)
 8002e7a:   b510        push    {r4, lr}
 8002e7c:   689c        ldr r4, [r3, #8]
 8002e7e:   490b        ldr r1, [pc, #44]   ; (8002eac <AHRS_GetYaw+0x34>)
 8002e80:   4620        mov r0, r4
 8002e82:   f7fe f8e5   bl  8001050 <__aeabi_fcmpge>
 8002e86:   b148        cbz r0, 8002e9c <AHRS_GetYaw+0x24>
 8002e88:   4909        ldr r1, [pc, #36]   ; (8002eb0 <AHRS_GetYaw+0x38>)
 8002e8a:   4620        mov r0, r4
 8002e8c:   f7fe f8cc   bl  8001028 <__aeabi_fcmplt>
 8002e90:   b120        cbz r0, 8002e9c <AHRS_GetYaw+0x24>
 8002e92:   4907        ldr r1, [pc, #28]   ; (8002eb0 <AHRS_GetYaw+0x38>)
 8002e94:   4620        mov r0, r4
 8002e96:   f7fd fe21   bl  8000adc <__addsf3>
 8002e9a:   bd10        pop {r4, pc}
 8002e9c:   4905        ldr r1, [pc, #20]   ; (8002eb4 <AHRS_GetYaw+0x3c>)
 8002e9e:   4620        mov r0, r4
 8002ea0:   f7fd fe1a   bl  8000ad8 <__aeabi_fsub>
 8002ea4:   bd10        pop {r4, pc}
 8002ea6:   bf00        nop
 8002ea8:   20000248    .word   0x20000248
 8002eac:   c3340000    .word   0xc3340000
 8002eb0:   42b40000    .word   0x42b40000
 8002eb4:   43870000    .word   0x43870000

08002eb8 <AHRS_ComputeAngles>:
 8002eb8:   b530        push    {r4, r5, lr}
 8002eba:   b087        sub sp, #28
 8002ebc:   f7ff fe06   bl  8002acc <MPU9250_ReadAccelData>
 8002ec0:   f7ff fe58   bl  8002b74 <MPU9250_ReadGyroData>
 8002ec4:   f7ff ff28   bl  8002d18 <AK8963_ReadData>
 8002ec8:   f002 f9f0   bl  80052ac <micros>
 8002ecc:   4c30        ldr r4, [pc, #192]  ; (8002f90 <AHRS_ComputeAngles+0xd8>)
 8002ece:   4d31        ldr r5, [pc, #196]  ; (8002f94 <AHRS_ComputeAngles+0xdc>)
 8002ed0:   6823        ldr r3, [r4, #0]
 8002ed2:   6028        str r0, [r5, #0]
 8002ed4:   1ac0        subs    r0, r0, r3
 8002ed6:   f7fd feb1   bl  8000c3c <__aeabi_ui2f>
 8002eda:   492f        ldr r1, [pc, #188]  ; (8002f98 <AHRS_ComputeAngles+0xe0>)
 8002edc:   f7fd ffba   bl  8000e54 <__aeabi_fdiv>
 8002ee0:   f000 f9e6   bl  80032b0 <MadgwickSetDelta>
 8002ee4:   682b        ldr r3, [r5, #0]
 8002ee6:   4a2d        ldr r2, [pc, #180]  ; (8002f9c <AHRS_ComputeAngles+0xe4>)
 8002ee8:   6023        str r3, [r4, #0]
 8002eea:   4c2d        ldr r4, [pc, #180]  ; (8002fa0 <AHRS_ComputeAngles+0xe8>)
 8002eec:   6811        ldr r1, [r2, #0]
 8002eee:   6850        ldr r0, [r2, #4]
 8002ef0:   9405        str r4, [sp, #20]
 8002ef2:   4c2c        ldr r4, [pc, #176]  ; (8002fa4 <AHRS_ComputeAngles+0xec>)
 8002ef4:   4b2c        ldr r3, [pc, #176]  ; (8002fa8 <AHRS_ComputeAngles+0xf0>)
 8002ef6:   68a5        ldr r5, [r4, #8]
 8002ef8:   f101 4100   add.w   r1, r1, #2147483648 ; 0x80000000
 8002efc:   9504        str r5, [sp, #16]
 8002efe:   6865        ldr r5, [r4, #4]
 8002f00:   f100 4000   add.w   r0, r0, #2147483648 ; 0x80000000
 8002f04:   9503        str r5, [sp, #12]
 8002f06:   6824        ldr r4, [r4, #0]
 8002f08:   9402        str r4, [sp, #8]
 8002f0a:   689c        ldr r4, [r3, #8]
 8002f0c:   f104 4400   add.w   r4, r4, #2147483648 ; 0x80000000
 8002f10:   9401        str r4, [sp, #4]
 8002f12:   681c        ldr r4, [r3, #0]
 8002f14:   9400        str r4, [sp, #0]
 8002f16:   685b        ldr r3, [r3, #4]
 8002f18:   6892        ldr r2, [r2, #8]
 8002f1a:   f000 f9d1   bl  80032c0 <MadgwickQuaternionUpdate>
 8002f1e:   2164        movs    r1, #100    ; 0x64
 8002f20:   4a22        ldr r2, [pc, #136]  ; (8002fac <AHRS_ComputeAngles+0xf4>)
 8002f22:   4b23        ldr r3, [pc, #140]  ; (8002fb0 <AHRS_ComputeAngles+0xf8>)
 8002f24:   f9b2 0000   ldrsh.w r0, [r2]
 8002f28:   4c22        ldr r4, [pc, #136]  ; (8002fb4 <AHRS_ComputeAngles+0xfc>)
 8002f2a:   fb90 f0f1   sdiv    r0, r0, r1
 8002f2e:   8018        strh    r0, [r3, #0]
 8002f30:   f9b2 0002   ldrsh.w r0, [r2, #2]
 8002f34:   f9b2 2004   ldrsh.w r2, [r2, #4]
 8002f38:   fb90 f0f1   sdiv    r0, r0, r1
 8002f3c:   fb92 f2f1   sdiv    r2, r2, r1
 8002f40:   809a        strh    r2, [r3, #4]
 8002f42:   4a1d        ldr r2, [pc, #116]  ; (8002fb8 <AHRS_ComputeAngles+0x100>)
 8002f44:   8058        strh    r0, [r3, #2]
 8002f46:   8811        ldrh    r1, [r2, #0]
 8002f48:   80d9        strh    r1, [r3, #6]
 8002f4a:   8851        ldrh    r1, [r2, #2]
 8002f4c:   8892        ldrh    r2, [r2, #4]
 8002f4e:   8119        strh    r1, [r3, #8]
 8002f50:   815a        strh    r2, [r3, #10]
 8002f52:   4a1a        ldr r2, [pc, #104]  ; (8002fbc <AHRS_ComputeAngles+0x104>)
 8002f54:   8811        ldrh    r1, [r2, #0]
 8002f56:   8199        strh    r1, [r3, #12]
 8002f58:   8851        ldrh    r1, [r2, #2]
 8002f5a:   8892        ldrh    r2, [r2, #4]
 8002f5c:   81d9        strh    r1, [r3, #14]
 8002f5e:   821a        strh    r2, [r3, #16]
 8002f60:   f7ff ff80   bl  8002e64 <AHRS_GetRoll>
 8002f64:   4916        ldr r1, [pc, #88]   ; (8002fc0 <AHRS_ComputeAngles+0x108>)
 8002f66:   f7fd fec1   bl  8000cec <__aeabi_fmul>
 8002f6a:   f7fe f885   bl  8001078 <__aeabi_f2iz>
 8002f6e:   8020        strh    r0, [r4, #0]
 8002f70:   f7ff ff6e   bl  8002e50 <AHRS_GetPitch>
 8002f74:   4912        ldr r1, [pc, #72]   ; (8002fc0 <AHRS_ComputeAngles+0x108>)
 8002f76:   f7fd feb9   bl  8000cec <__aeabi_fmul>
 8002f7a:   f7fe f87d   bl  8001078 <__aeabi_f2iz>
 8002f7e:   8060        strh    r0, [r4, #2]
 8002f80:   f7ff ff7a   bl  8002e78 <AHRS_GetYaw>
 8002f84:   f7fe f878   bl  8001078 <__aeabi_f2iz>
 8002f88:   80a0        strh    r0, [r4, #4]
 8002f8a:   b007        add sp, #28
 8002f8c:   bd30        pop {r4, r5, pc}
 8002f8e:   bf00        nop
 8002f90:   20000254    .word   0x20000254
 8002f94:   20000258    .word   0x20000258
 8002f98:   447a0000    .word   0x447a0000
 8002f9c:   200002cc    .word   0x200002cc
 8002fa0:   20000248    .word   0x20000248
 8002fa4:   200002d8    .word   0x200002d8
 8002fa8:   200002c0    .word   0x200002c0
 8002fac:   200002f0    .word   0x200002f0
 8002fb0:   20001426    .word   0x20001426
 8002fb4:   20001391    .word   0x20001391
 8002fb8:   200002ba    .word   0x200002ba
 8002fbc:   200002b4    .word   0x200002b4
 8002fc0:   41200000    .word   0x41200000

08002fc4 <MS5611_ReadADC>:
 8002fc4:   b51f        push    {r0, r1, r2, r3, r4, lr}
 8002fc6:   238c        movs    r3, #140    ; 0x8c
 8002fc8:   9301        str r3, [sp, #4]
 8002fca:   4b0a        ldr r3, [pc, #40]   ; (8002ff4 <MS5611_ReadADC+0x30>)
 8002fcc:   aa03        add r2, sp, #12
 8002fce:   9300        str r3, [sp, #0]
 8002fd0:   2100        movs    r1, #0
 8002fd2:   2303        movs    r3, #3
 8002fd4:   20ee        movs    r0, #238    ; 0xee
 8002fd6:   f001 f847   bl  8004068 <I2C_ReadBytes>
 8002fda:   f89d 000d   ldrb.w  r0, [sp, #13]
 8002fde:   f89d 300e   ldrb.w  r3, [sp, #14]
 8002fe2:   ea43 2300   orr.w   r3, r3, r0, lsl #8
 8002fe6:   f89d 000c   ldrb.w  r0, [sp, #12]
 8002fea:   ea43 4000   orr.w   r0, r3, r0, lsl #16
 8002fee:   b005        add sp, #20
 8002ff0:   f85d fb04   ldr.w   pc, [sp], #4
 8002ff4:   08007661    .word   0x08007661

08002ff8 <MS5611_GetFilteredAltitude>:
 8002ff8:   4b01        ldr r3, [pc, #4]    ; (8003000 <MS5611_GetFilteredAltitude+0x8>)
 8002ffa:   6818        ldr r0, [r3, #0]
 8002ffc:   4770        bx  lr
 8002ffe:   bf00        nop
 8003000:   200002f8    .word   0x200002f8
 8003004:   00000000    .word   0x00000000

08003008 <MS5611_Update>:
 8003008:   e92d 47f0   stmdb   sp!, {r4, r5, r6, r7, r8, r9, sl, lr}
 800300c:   4e74        ldr r6, [pc, #464]  ; (80031e0 <MS5611_Update+0x1d8>)
 800300e:   7833        ldrb    r3, [r6, #0]
 8003010:   2b00        cmp r3, #0
 8003012:   f000 80ad   beq.w   8003170 <MS5611_Update+0x168>
 8003016:   4b73        ldr r3, [pc, #460]  ; (80031e4 <MS5611_Update+0x1dc>)
 8003018:   781a        ldrb    r2, [r3, #0]
 800301a:   469a        mov sl, r3
 800301c:   2a00        cmp r2, #0
 800301e:   f000 80a7   beq.w   8003170 <MS5611_Update+0x168>
 8003022:   4a71        ldr r2, [pc, #452]  ; (80031e8 <MS5611_Update+0x1e0>)
 8003024:   4971        ldr r1, [pc, #452]  ; (80031ec <MS5611_Update+0x1e4>)
 8003026:   8953        ldrh    r3, [r2, #10]
 8003028:   6809        ldr r1, [r1, #0]
 800302a:   8990        ldrh    r0, [r2, #12]
 800302c:   eba1 2e03   sub.w   lr, r1, r3, lsl #8
 8003030:   fb80 010e   smull   r0, r1, r0, lr
 8003034:   0dc3        lsrs    r3, r0, #23
 8003036:   8910        ldrh    r0, [r2, #8]
 8003038:   ea43 2341   orr.w   r3, r3, r1, lsl #9
 800303c:   fb80 010e   smull   r0, r1, r0, lr
 8003040:   f8b2 8006   ldrh.w  r8, [r2, #6]
 8003044:   09c4        lsrs    r4, r0, #7
 8003046:   fb88 890e   smull   r8, r9, r8, lr
 800304a:   ea44 6441   orr.w   r4, r4, r1, lsl #25
 800304e:   11cd        asrs    r5, r1, #7
 8003050:   8891        ldrh    r1, [r2, #4]
 8003052:   8852        ldrh    r2, [r2, #2]
 8003054:   0409        lsls    r1, r1, #16
 8003056:   ea4f 2018   mov.w   r0, r8, lsr #8
 800305a:   1864        adds    r4, r4, r1
 800305c:   ea40 6009   orr.w   r0, r0, r9, lsl #24
 8003060:   ea4f 32c2   mov.w   r2, r2, lsl #15
 8003064:   f503 67fa   add.w   r7, r3, #2000   ; 0x7d0
 8003068:   f145 0500   adc.w   r5, r5, #0
 800306c:   ea4f 2129   mov.w   r1, r9, asr #8
 8003070:   1880        adds    r0, r0, r2
 8003072:   f141 0100   adc.w   r1, r1, #0
 8003076:   f5b7 6ffa   cmp.w   r7, #2000   ; 0x7d0
 800307a:   bfa7        ittee   ge
 800307c:   2300        movge   r3, #0
 800307e:   469e        movge   lr, r3
 8003080:   435b        mullt   r3, r3
 8003082:   eb03 0383   addlt.w r3, r3, r3, lsl #2
 8003086:   bfbc        itt lt
 8003088:   ea4f 0e63   movlt.w lr, r3, asr #1
 800308c:   109b        asrlt   r3, r3, #2
 800308e:   1ac0        subs    r0, r0, r3
 8003090:   eb61 71e3   sbc.w   r1, r1, r3, asr #31
 8003094:   4b56        ldr r3, [pc, #344]  ; (80031f0 <MS5611_Update+0x1e8>)
 8003096:   ebb4 040e   subs.w  r4, r4, lr
 800309a:   681b        ldr r3, [r3, #0]
 800309c:   eb65 75ee   sbc.w   r5, r5, lr, asr #31
 80030a0:   fba0 8903   umull   r8, r9, r0, r3
 80030a4:   fb03 9901   mla r9, r3, r1, r9
 80030a8:   ea4f 5258   mov.w   r2, r8, lsr #21
 80030ac:   ea42 22c9   orr.w   r2, r2, r9, lsl #11
 80030b0:   1b12        subs    r2, r2, r4
 80030b2:   ea4f 5369   mov.w   r3, r9, asr #21
 80030b6:   eb63 0305   sbc.w   r3, r3, r5
 80030ba:   0bd0        lsrs    r0, r2, #15
 80030bc:   ea40 4043   orr.w   r0, r0, r3, lsl #17
 80030c0:   f7fd fdc0   bl  8000c44 <__aeabi_i2f>
 80030c4:   494b        ldr r1, [pc, #300]  ; (80031f4 <MS5611_Update+0x1ec>)
 80030c6:   f7fd fec5   bl  8000e54 <__aeabi_fdiv>
 80030ca:   4b4b        ldr r3, [pc, #300]  ; (80031f8 <MS5611_Update+0x1f0>)
 80030cc:   4604        mov r4, r0
 80030ce:   6018        str r0, [r3, #0]
 80030d0:   4638        mov r0, r7
 80030d2:   f7fd fdb7   bl  8000c44 <__aeabi_i2f>
 80030d6:   4947        ldr r1, [pc, #284]  ; (80031f4 <MS5611_Update+0x1ec>)
 80030d8:   f7fd febc   bl  8000e54 <__aeabi_fdiv>
 80030dc:   4b47        ldr r3, [pc, #284]  ; (80031fc <MS5611_Update+0x1f4>)
 80030de:   4948        ldr r1, [pc, #288]  ; (8003200 <MS5611_Update+0x1f8>)
 80030e0:   6018        str r0, [r3, #0]
 80030e2:   4620        mov r0, r4
 80030e4:   f7fd feb6   bl  8000e54 <__aeabi_fdiv>
 80030e8:   f7fd f99e   bl  8000428 <__aeabi_f2d>
 80030ec:   a338        add r3, pc, #224    ; (adr r3, 80031d0 <MS5611_Update+0x1c8>)
 80030ee:   e9d3 2300   ldrd    r2, r3, [r3]
 80030f2:   f002 fdab   bl  8005c4c <pow>
 80030f6:   4602        mov r2, r0
 80030f8:   460b        mov r3, r1
 80030fa:   2000        movs    r0, #0
 80030fc:   4941        ldr r1, [pc, #260]  ; (8003204 <MS5611_Update+0x1fc>)
 80030fe:   f7fd f833   bl  8000168 <__aeabi_dsub>
 8003102:   a335        add r3, pc, #212    ; (adr r3, 80031d8 <MS5611_Update+0x1d0>)
 8003104:   e9d3 2300   ldrd    r2, r3, [r3]
 8003108:   f7fd f9e2   bl  80004d0 <__aeabi_dmul>
 800310c:   f7fd fc90   bl  8000a30 <__aeabi_d2f>
 8003110:   4c3d        ldr r4, [pc, #244]  ; (8003208 <MS5611_Update+0x200>)
 8003112:   4b3e        ldr r3, [pc, #248]  ; (800320c <MS5611_Update+0x204>)
 8003114:   4605        mov r5, r0
 8003116:   6018        str r0, [r3, #0]
 8003118:   4627        mov r7, r4
 800311a:   2300        movs    r3, #0
 800311c:   f104 084c   add.w   r8, r4, #76 ; 0x4c
 8003120:   f854 1f04   ldr.w   r1, [r4, #4]!
 8003124:   4618        mov r0, r3
 8003126:   f844 1c04   str.w   r1, [r4, #-4]
 800312a:   f7fd fcd7   bl  8000adc <__addsf3>
 800312e:   45a0        cmp r8, r4
 8003130:   4603        mov r3, r0
 8003132:   d1f5        bne.n   8003120 <MS5611_Update+0x118>
 8003134:   4629        mov r1, r5
 8003136:   64fd        str r5, [r7, #76]   ; 0x4c
 8003138:   f7fd fcd0   bl  8000adc <__addsf3>
 800313c:   4934        ldr r1, [pc, #208]  ; (8003210 <MS5611_Update+0x208>)
 800313e:   f7fd fe89   bl  8000e54 <__aeabi_fdiv>
 8003142:   4b34        ldr r3, [pc, #208]  ; (8003214 <MS5611_Update+0x20c>)
 8003144:   6018        str r0, [r3, #0]
 8003146:   f7fd ff97   bl  8001078 <__aeabi_f2iz>
 800314a:   2364        movs    r3, #100    ; 0x64
 800314c:   4358        muls    r0, r3
 800314e:   4b32        ldr r3, [pc, #200]  ; (8003218 <MS5611_Update+0x210>)
 8003150:   4a32        ldr r2, [pc, #200]  ; (800321c <MS5611_Update+0x214>)
 8003152:   6018        str r0, [r3, #0]
 8003154:   2300        movs    r3, #0
 8003156:   7811        ldrb    r1, [r2, #0]
 8003158:   20ee        movs    r0, #238    ; 0xee
 800315a:   2201        movs    r2, #1
 800315c:   3150        adds    r1, #80 ; 0x50
 800315e:   7033        strb    r3, [r6, #0]
 8003160:   f88a 3000   strb.w  r3, [sl]
 8003164:   f000 ff42   bl  8003fec <I2C_WriteByte>
 8003168:   f002 f89e   bl  80052a8 <millis>
 800316c:   4b2c        ldr r3, [pc, #176]  ; (8003220 <MS5611_Update+0x218>)
 800316e:   6018        str r0, [r3, #0]
 8003170:   f002 f89a   bl  80052a8 <millis>
 8003174:   4b2a        ldr r3, [pc, #168]  ; (8003220 <MS5611_Update+0x218>)
 8003176:   4c2b        ldr r4, [pc, #172]  ; (8003224 <MS5611_Update+0x21c>)
 8003178:   681b        ldr r3, [r3, #0]
 800317a:   1ac0        subs    r0, r0, r3
 800317c:   280a        cmp r0, #10
 800317e:   d914        bls.n   80031aa <MS5611_Update+0x1a2>
 8003180:   7833        ldrb    r3, [r6, #0]
 8003182:   b993        cbnz    r3, 80031aa <MS5611_Update+0x1a2>
 8003184:   4b17        ldr r3, [pc, #92]   ; (80031e4 <MS5611_Update+0x1dc>)
 8003186:   781d        ldrb    r5, [r3, #0]
 8003188:   b97d        cbnz    r5, 80031aa <MS5611_Update+0x1a2>
 800318a:   f7ff ff1b   bl  8002fc4 <MS5611_ReadADC>
 800318e:   2201        movs    r2, #1
 8003190:   4b16        ldr r3, [pc, #88]   ; (80031ec <MS5611_Update+0x1e4>)
 8003192:   7032        strb    r2, [r6, #0]
 8003194:   6018        str r0, [r3, #0]
 8003196:   4b21        ldr r3, [pc, #132]  ; (800321c <MS5611_Update+0x214>)
 8003198:   20ee        movs    r0, #238    ; 0xee
 800319a:   7819        ldrb    r1, [r3, #0]
 800319c:   462b        mov r3, r5
 800319e:   3140        adds    r1, #64 ; 0x40
 80031a0:   f000 ff24   bl  8003fec <I2C_WriteByte>
 80031a4:   f002 f880   bl  80052a8 <millis>
 80031a8:   6020        str r0, [r4, #0]
 80031aa:   f002 f87d   bl  80052a8 <millis>
 80031ae:   6823        ldr r3, [r4, #0]
 80031b0:   1ac0        subs    r0, r0, r3
 80031b2:   280a        cmp r0, #10
 80031b4:   d90a        bls.n   80031cc <MS5611_Update+0x1c4>
 80031b6:   7833        ldrb    r3, [r6, #0]
 80031b8:   b143        cbz r3, 80031cc <MS5611_Update+0x1c4>
 80031ba:   4c0a        ldr r4, [pc, #40]   ; (80031e4 <MS5611_Update+0x1dc>)
 80031bc:   7823        ldrb    r3, [r4, #0]
 80031be:   b92b        cbnz    r3, 80031cc <MS5611_Update+0x1c4>
 80031c0:   f7ff ff00   bl  8002fc4 <MS5611_ReadADC>
 80031c4:   4b0a        ldr r3, [pc, #40]   ; (80031f0 <MS5611_Update+0x1e8>)
 80031c6:   6018        str r0, [r3, #0]
 80031c8:   2301        movs    r3, #1
 80031ca:   7023        strb    r3, [r4, #0]
 80031cc:   e8bd 87f0   ldmia.w sp!, {r4, r5, r6, r7, r8, r9, sl, pc}
 80031d0:   60000000    .word   0x60000000
 80031d4:   3fc85b95    .word   0x3fc85b95
 80031d8:   00000000    .word   0x00000000
 80031dc:   40e5a540    .word   0x40e5a540
 80031e0:   20000275    .word   0x20000275
 80031e4:   20000274    .word   0x20000274
 80031e8:   2000025c    .word   0x2000025c
 80031ec:   20000270    .word   0x20000270
 80031f0:   2000026c    .word   0x2000026c
 80031f4:   42c80000    .word   0x42c80000
 80031f8:   20000350    .word   0x20000350
 80031fc:   20000354    .word   0x20000354
 8003200:   447d5000    .word   0x447d5000
 8003204:   3ff00000    .word   0x3ff00000
 8003208:   200002fc    .word   0x200002fc
 800320c:   2000034c    .word   0x2000034c
 8003210:   41a00000    .word   0x41a00000
 8003214:   200002f8    .word   0x200002f8
 8003218:   200014a7    .word   0x200014a7
 800321c:   20000038    .word   0x20000038
 8003220:   2000027c    .word   0x2000027c
 8003224:   20000278    .word   0x20000278

08003228 <MS5611_Init>:
 8003228:   2301        movs    r3, #1
 800322a:   b5f0        push    {r4, r5, r6, r7, lr}
 800322c:   2400        movs    r4, #0
 800322e:   461a        mov r2, r3
 8003230:   b085        sub sp, #20
 8003232:   211e        movs    r1, #30
 8003234:   20ee        movs    r0, #238    ; 0xee
 8003236:   f000 fed9   bl  8003fec <I2C_WriteByte>
 800323a:   200a        movs    r0, #10
 800323c:   f002 f838   bl  80052b0 <delay_ms>
 8003240:   2208        movs    r2, #8
 8003242:   4625        mov r5, r4
 8003244:   4b13        ldr r3, [pc, #76]   ; (8003294 <MS5611_Init+0x6c>)
 8003246:   4f14        ldr r7, [pc, #80]   ; (8003298 <MS5611_Init+0x70>)
 8003248:   4e14        ldr r6, [pc, #80]   ; (800329c <MS5611_Init+0x74>)
 800324a:   701a        strb    r2, [r3, #0]
 800324c:   237c        movs    r3, #124    ; 0x7c
 800324e:   f104 01a0   add.w   r1, r4, #160    ; 0xa0
 8003252:   9301        str r3, [sp, #4]
 8003254:   aa03        add r2, sp, #12
 8003256:   2302        movs    r3, #2
 8003258:   9700        str r7, [sp, #0]
 800325a:   b289        uxth    r1, r1
 800325c:   20ee        movs    r0, #238    ; 0xee
 800325e:   f88d 500c   strb.w  r5, [sp, #12]
 8003262:   f88d 500d   strb.w  r5, [sp, #13]
 8003266:   f000 ff17   bl  8004098 <I2C_ReadByteArray>
 800326a:   f89d 200c   ldrb.w  r2, [sp, #12]
 800326e:   f89d 300d   ldrb.w  r3, [sp, #13]
 8003272:   ea43 2302   orr.w   r3, r3, r2, lsl #8
 8003276:   53a3        strh    r3, [r4, r6]
 8003278:   3402        adds    r4, #2
 800327a:   2c10        cmp r4, #16
 800327c:   d1e6        bne.n   800324c <MS5611_Init+0x24>
 800327e:   2300        movs    r3, #0
 8003280:   2100        movs    r1, #0
 8003282:   4a07        ldr r2, [pc, #28]   ; (80032a0 <MS5611_Init+0x78>)
 8003284:   f842 1023   str.w   r1, [r2, r3, lsl #2]
 8003288:   3301        adds    r3, #1
 800328a:   2b14        cmp r3, #20
 800328c:   d1fa        bne.n   8003284 <MS5611_Init+0x5c>
 800328e:   b005        add sp, #20
 8003290:   bdf0        pop {r4, r5, r6, r7, pc}
 8003292:   bf00        nop
 8003294:   20000038    .word   0x20000038
 8003298:   08007661    .word   0x08007661
 800329c:   2000025c    .word   0x2000025c
 80032a0:   200002fc    .word   0x200002fc

080032a4 <MadgwickSetBeta>:
 80032a4:   4b01        ldr r3, [pc, #4]    ; (80032ac <MadgwickSetBeta+0x8>)
 80032a6:   6018        str r0, [r3, #0]
 80032a8:   4770        bx  lr
 80032aa:   bf00        nop
 80032ac:   20000358    .word   0x20000358

080032b0 <MadgwickSetDelta>:
 80032b0:   4b01        ldr r3, [pc, #4]    ; (80032b8 <MadgwickSetDelta+0x8>)
 80032b2:   6018        str r0, [r3, #0]
 80032b4:   4770        bx  lr
 80032b6:   bf00        nop
 80032b8:   2000035c    .word   0x2000035c
 80032bc:   00000000    .word   0x00000000

080032c0 <MadgwickQuaternionUpdate>:
 80032c0:   e92d 4ff0   stmdb   sp!, {r4, r5, r6, r7, r8, r9, sl, fp, lr}
 80032c4:   4698        mov r8, r3
 80032c6:   4ba8        ldr r3, [pc, #672]  ; (8003568 <MadgwickQuaternionUpdate+0x2a8>)
 80032c8:   b099        sub sp, #100    ; 0x64
 80032ca:   681b        ldr r3, [r3, #0]
 80032cc:   910e        str r1, [sp, #56]   ; 0x38
 80032ce:   9302        str r3, [sp, #8]
 80032d0:   4ba5        ldr r3, [pc, #660]  ; (8003568 <MadgwickQuaternionUpdate+0x2a8>)
 80032d2:   4601        mov r1, r0
 80032d4:   685b        ldr r3, [r3, #4]
 80032d6:   9210        str r2, [sp, #64]   ; 0x40
 80032d8:   9301        str r3, [sp, #4]
 80032da:   4ba3        ldr r3, [pc, #652]  ; (8003568 <MadgwickQuaternionUpdate+0x2a8>)
 80032dc:   900d        str r0, [sp, #52]   ; 0x34
 80032de:   689d        ldr r5, [r3, #8]
 80032e0:   68dc        ldr r4, [r3, #12]
 80032e2:   f7fd fd03   bl  8000cec <__aeabi_fmul>
 80032e6:   990e        ldr r1, [sp, #56]   ; 0x38
 80032e8:   4606        mov r6, r0
 80032ea:   4608        mov r0, r1
 80032ec:   f7fd fcfe   bl  8000cec <__aeabi_fmul>
 80032f0:   4601        mov r1, r0
 80032f2:   4630        mov r0, r6
 80032f4:   f7fd fbf2   bl  8000adc <__addsf3>
 80032f8:   9910        ldr r1, [sp, #64]   ; 0x40
 80032fa:   4606        mov r6, r0
 80032fc:   4608        mov r0, r1
 80032fe:   f7fd fcf5   bl  8000cec <__aeabi_fmul>
 8003302:   4601        mov r1, r0
 8003304:   4630        mov r0, r6
 8003306:   f7fd fbe9   bl  8000adc <__addsf3>
 800330a:   f7fd f88d   bl  8000428 <__aeabi_f2d>
 800330e:   f002 fe01   bl  8005f14 <sqrt>
 8003312:   f7fd fb8d   bl  8000a30 <__aeabi_d2f>
 8003316:   2100        movs    r1, #0
 8003318:   4607        mov r7, r0
 800331a:   f7fd fe7b   bl  8001014 <__aeabi_fcmpeq>
 800331e:   2800        cmp r0, #0
 8003320:   f040 8580   bne.w   8003e24 <MadgwickQuaternionUpdate+0xb64>
 8003324:   9924        ldr r1, [sp, #144]  ; 0x90
 8003326:   4608        mov r0, r1
 8003328:   f7fd fce0   bl  8000cec <__aeabi_fmul>
 800332c:   9925        ldr r1, [sp, #148]  ; 0x94
 800332e:   4606        mov r6, r0
 8003330:   4608        mov r0, r1
 8003332:   f7fd fcdb   bl  8000cec <__aeabi_fmul>
 8003336:   4601        mov r1, r0
 8003338:   4630        mov r0, r6
 800333a:   f7fd fbcf   bl  8000adc <__addsf3>
 800333e:   9926        ldr r1, [sp, #152]  ; 0x98
 8003340:   4606        mov r6, r0
 8003342:   4608        mov r0, r1
 8003344:   f7fd fcd2   bl  8000cec <__aeabi_fmul>
 8003348:   4601        mov r1, r0
 800334a:   4630        mov r0, r6
 800334c:   f7fd fbc6   bl  8000adc <__addsf3>
 8003350:   f7fd f86a   bl  8000428 <__aeabi_f2d>
 8003354:   f002 fdde   bl  8005f14 <sqrt>
 8003358:   f7fd fb6a   bl  8000a30 <__aeabi_d2f>
 800335c:   2100        movs    r1, #0
 800335e:   4606        mov r6, r0
 8003360:   f7fd fe58   bl  8001014 <__aeabi_fcmpeq>
 8003364:   2800        cmp r0, #0
 8003366:   f040 855d   bne.w   8003e24 <MadgwickQuaternionUpdate+0xb64>
 800336a:   4640        mov r0, r8
 800336c:   f7fd f85c   bl  8000428 <__aeabi_f2d>
 8003370:   a37b        add r3, pc, #492    ; (adr r3, 8003560 <MadgwickQuaternionUpdate+0x2a0>)
 8003372:   e9d3 2300   ldrd    r2, r3, [r3]
 8003376:   f7fd f8ab   bl  80004d0 <__aeabi_dmul>
 800337a:   f7fd fb59   bl  8000a30 <__aeabi_d2f>
 800337e:   9008        str r0, [sp, #32]
 8003380:   9822        ldr r0, [sp, #136]  ; 0x88
 8003382:   f7fd f851   bl  8000428 <__aeabi_f2d>
 8003386:   a376        add r3, pc, #472    ; (adr r3, 8003560 <MadgwickQuaternionUpdate+0x2a0>)
 8003388:   e9d3 2300   ldrd    r2, r3, [r3]
 800338c:   f7fd f8a0   bl  80004d0 <__aeabi_dmul>
 8003390:   f7fd fb4e   bl  8000a30 <__aeabi_d2f>
 8003394:   9009        str r0, [sp, #36]   ; 0x24
 8003396:   9823        ldr r0, [sp, #140]  ; 0x8c
 8003398:   f7fd f846   bl  8000428 <__aeabi_f2d>
 800339c:   a370        add r3, pc, #448    ; (adr r3, 8003560 <MadgwickQuaternionUpdate+0x2a0>)
 800339e:   e9d3 2300   ldrd    r2, r3, [r3]
 80033a2:   f7fd f895   bl  80004d0 <__aeabi_dmul>
 80033a6:   f7fd fb43   bl  8000a30 <__aeabi_d2f>
 80033aa:   9902        ldr r1, [sp, #8]
 80033ac:   900a        str r0, [sp, #40]   ; 0x28
 80033ae:   4608        mov r0, r1
 80033b0:   f7fd fb94   bl  8000adc <__addsf3>
 80033b4:   9901        ldr r1, [sp, #4]
 80033b6:   9003        str r0, [sp, #12]
 80033b8:   4608        mov r0, r1
 80033ba:   f7fd fb8f   bl  8000adc <__addsf3>
 80033be:   4629        mov r1, r5
 80033c0:   9005        str r0, [sp, #20]
 80033c2:   4628        mov r0, r5
 80033c4:   f7fd fb8a   bl  8000adc <__addsf3>
 80033c8:   4621        mov r1, r4
 80033ca:   9006        str r0, [sp, #24]
 80033cc:   4620        mov r0, r4
 80033ce:   f7fd fb85   bl  8000adc <__addsf3>
 80033d2:   9902        ldr r1, [sp, #8]
 80033d4:   9014        str r0, [sp, #80]   ; 0x50
 80033d6:   4608        mov r0, r1
 80033d8:   f7fd fc88   bl  8000cec <__aeabi_fmul>
 80033dc:   9901        ldr r1, [sp, #4]
 80033de:   4680        mov r8, r0
 80033e0:   9802        ldr r0, [sp, #8]
 80033e2:   f7fd fc83   bl  8000cec <__aeabi_fmul>
 80033e6:   4629        mov r1, r5
 80033e8:   900f        str r0, [sp, #60]   ; 0x3c
 80033ea:   9802        ldr r0, [sp, #8]
 80033ec:   f7fd fc7e   bl  8000cec <__aeabi_fmul>
 80033f0:   9901        ldr r1, [sp, #4]
 80033f2:   9012        str r0, [sp, #72]   ; 0x48
 80033f4:   4608        mov r0, r1
 80033f6:   f7fd fc79   bl  8000cec <__aeabi_fmul>
 80033fa:   4621        mov r1, r4
 80033fc:   9007        str r0, [sp, #28]
 80033fe:   9801        ldr r0, [sp, #4]
 8003400:   f7fd fc74   bl  8000cec <__aeabi_fmul>
 8003404:   4629        mov r1, r5
 8003406:   900b        str r0, [sp, #44]   ; 0x2c
 8003408:   4628        mov r0, r5
 800340a:   f7fd fc6f   bl  8000cec <__aeabi_fmul>
 800340e:   4621        mov r1, r4
 8003410:   9004        str r0, [sp, #16]
 8003412:   4620        mov r0, r4
 8003414:   f7fd fc6a   bl  8000cec <__aeabi_fmul>
 8003418:   4639        mov r1, r7
 800341a:   900c        str r0, [sp, #48]   ; 0x30
 800341c:   f04f 507e   mov.w   r0, #1065353216 ; 0x3f800000
 8003420:   f7fd fd18   bl  8000e54 <__aeabi_fdiv>
 8003424:   4631        mov r1, r6
 8003426:   9011        str r0, [sp, #68]   ; 0x44
 8003428:   f04f 507e   mov.w   r0, #1065353216 ; 0x3f800000
 800342c:   f7fd fd12   bl  8000e54 <__aeabi_fdiv>
 8003430:   4606        mov r6, r0
 8003432:   4601        mov r1, r0
 8003434:   9824        ldr r0, [sp, #144]  ; 0x90
 8003436:   f7fd fc59   bl  8000cec <__aeabi_fmul>
 800343a:   4631        mov r1, r6
 800343c:   4682        mov sl, r0
 800343e:   9825        ldr r0, [sp, #148]  ; 0x94
 8003440:   f7fd fc54   bl  8000cec <__aeabi_fmul>
 8003444:   4631        mov r1, r6
 8003446:   4607        mov r7, r0
 8003448:   9826        ldr r0, [sp, #152]  ; 0x98
 800344a:   f7fd fc4f   bl  8000cec <__aeabi_fmul>
 800344e:   4651        mov r1, sl
 8003450:   4681        mov r9, r0
 8003452:   9803        ldr r0, [sp, #12]
 8003454:   f7fd fc4a   bl  8000cec <__aeabi_fmul>
 8003458:   4639        mov r1, r7
 800345a:   9013        str r0, [sp, #76]   ; 0x4c
 800345c:   9803        ldr r0, [sp, #12]
 800345e:   f7fd fc45   bl  8000cec <__aeabi_fmul>
 8003462:   4649        mov r1, r9
 8003464:   4683        mov fp, r0
 8003466:   9803        ldr r0, [sp, #12]
 8003468:   f7fd fc40   bl  8000cec <__aeabi_fmul>
 800346c:   4651        mov r1, sl
 800346e:   4606        mov r6, r0
 8003470:   9805        ldr r0, [sp, #20]
 8003472:   f7fd fc3b   bl  8000cec <__aeabi_fmul>
 8003476:   4651        mov r1, sl
 8003478:   9015        str r0, [sp, #84]   ; 0x54
 800347a:   4640        mov r0, r8
 800347c:   f7fd fc36   bl  8000cec <__aeabi_fmul>
 8003480:   4659        mov r1, fp
 8003482:   9016        str r0, [sp, #88]   ; 0x58
 8003484:   4620        mov r0, r4
 8003486:   f7fd fc31   bl  8000cec <__aeabi_fmul>
 800348a:   9b16        ldr r3, [sp, #88]   ; 0x58
 800348c:   4601        mov r1, r0
 800348e:   4618        mov r0, r3
 8003490:   f7fd fb22   bl  8000ad8 <__aeabi_fsub>
 8003494:   4631        mov r1, r6
 8003496:   9016        str r0, [sp, #88]   ; 0x58
 8003498:   4628        mov r0, r5
 800349a:   f7fd fc27   bl  8000cec <__aeabi_fmul>
 800349e:   9b16        ldr r3, [sp, #88]   ; 0x58
 80034a0:   4601        mov r1, r0
 80034a2:   4618        mov r0, r3
 80034a4:   f7fd fb1a   bl  8000adc <__addsf3>
 80034a8:   4651        mov r1, sl
 80034aa:   9016        str r0, [sp, #88]   ; 0x58
 80034ac:   9807        ldr r0, [sp, #28]
 80034ae:   f7fd fc1d   bl  8000cec <__aeabi_fmul>
 80034b2:   9b16        ldr r3, [sp, #88]   ; 0x58
 80034b4:   4601        mov r1, r0
 80034b6:   4618        mov r0, r3
 80034b8:   f7fd fb10   bl  8000adc <__addsf3>
 80034bc:   4639        mov r1, r7
 80034be:   9016        str r0, [sp, #88]   ; 0x58
 80034c0:   9805        ldr r0, [sp, #20]
 80034c2:   f7fd fc13   bl  8000cec <__aeabi_fmul>
 80034c6:   4629        mov r1, r5
 80034c8:   f7fd fc10   bl  8000cec <__aeabi_fmul>
 80034cc:   9b16        ldr r3, [sp, #88]   ; 0x58
 80034ce:   4601        mov r1, r0
 80034d0:   4618        mov r0, r3
 80034d2:   f7fd fb03   bl  8000adc <__addsf3>
 80034d6:   4649        mov r1, r9
 80034d8:   9016        str r0, [sp, #88]   ; 0x58
 80034da:   9805        ldr r0, [sp, #20]
 80034dc:   f7fd fc06   bl  8000cec <__aeabi_fmul>
 80034e0:   4621        mov r1, r4
 80034e2:   f7fd fc03   bl  8000cec <__aeabi_fmul>
 80034e6:   9b16        ldr r3, [sp, #88]   ; 0x58
 80034e8:   4601        mov r1, r0
 80034ea:   4618        mov r0, r3
 80034ec:   f7fd faf6   bl  8000adc <__addsf3>
 80034f0:   4651        mov r1, sl
 80034f2:   9016        str r0, [sp, #88]   ; 0x58
 80034f4:   9804        ldr r0, [sp, #16]
 80034f6:   f7fd fbf9   bl  8000cec <__aeabi_fmul>
 80034fa:   9b16        ldr r3, [sp, #88]   ; 0x58
 80034fc:   4601        mov r1, r0
 80034fe:   4618        mov r0, r3
 8003500:   f7fd faea   bl  8000ad8 <__aeabi_fsub>
 8003504:   4651        mov r1, sl
 8003506:   9016        str r0, [sp, #88]   ; 0x58
 8003508:   980c        ldr r0, [sp, #48]   ; 0x30
 800350a:   f7fd fbef   bl  8000cec <__aeabi_fmul>
 800350e:   9b16        ldr r3, [sp, #88]   ; 0x58
 8003510:   4601        mov r1, r0
 8003512:   4618        mov r0, r3
 8003514:   f7fd fae0   bl  8000ad8 <__aeabi_fsub>
 8003518:   9913        ldr r1, [sp, #76]   ; 0x4c
 800351a:   9017        str r0, [sp, #92]   ; 0x5c
 800351c:   4620        mov r0, r4
 800351e:   f7fd fbe5   bl  8000cec <__aeabi_fmul>
 8003522:   4639        mov r1, r7
 8003524:   9016        str r0, [sp, #88]   ; 0x58
 8003526:   4640        mov r0, r8
 8003528:   f7fd fbe0   bl  8000cec <__aeabi_fmul>
 800352c:   9b16        ldr r3, [sp, #88]   ; 0x58
 800352e:   4601        mov r1, r0
 8003530:   4618        mov r0, r3
 8003532:   f7fd fad3   bl  8000adc <__addsf3>
 8003536:   4631        mov r1, r6
 8003538:   9016        str r0, [sp, #88]   ; 0x58
 800353a:   9801        ldr r0, [sp, #4]
 800353c:   f7fd fbd6   bl  8000cec <__aeabi_fmul>
 8003540:   9b16        ldr r3, [sp, #88]   ; 0x58
 8003542:   4601        mov r1, r0
 8003544:   4618        mov r0, r3
 8003546:   f7fd fac7   bl  8000ad8 <__aeabi_fsub>
 800354a:   9915        ldr r1, [sp, #84]   ; 0x54
 800354c:   4606        mov r6, r0
 800354e:   4628        mov r0, r5
 8003550:   f7fd fbcc   bl  8000cec <__aeabi_fmul>
 8003554:   4601        mov r1, r0
 8003556:   4630        mov r0, r6
 8003558:   e008        b.n 800356c <MadgwickQuaternionUpdate+0x2ac>
 800355a:   bf00        nop
 800355c:   f3af 8000   nop.w
 8003560:   a2529d39    .word   0xa2529d39
 8003564:   3f91df46    .word   0x3f91df46
 8003568:   2000003c    .word   0x2000003c
 800356c:   f7fd fab6   bl  8000adc <__addsf3>
 8003570:   4639        mov r1, r7
 8003572:   4606        mov r6, r0
 8003574:   9807        ldr r0, [sp, #28]
 8003576:   f7fd fbb9   bl  8000cec <__aeabi_fmul>
 800357a:   4601        mov r1, r0
 800357c:   4630        mov r0, r6
 800357e:   f7fd faab   bl  8000ad8 <__aeabi_fsub>
 8003582:   4639        mov r1, r7
 8003584:   4606        mov r6, r0
 8003586:   9804        ldr r0, [sp, #16]
 8003588:   f7fd fbb0   bl  8000cec <__aeabi_fmul>
 800358c:   4601        mov r1, r0
 800358e:   4630        mov r0, r6
 8003590:   f7fd faa4   bl  8000adc <__addsf3>
 8003594:   4649        mov r1, r9
 8003596:   4606        mov r6, r0
 8003598:   9806        ldr r0, [sp, #24]
 800359a:   f7fd fba7   bl  8000cec <__aeabi_fmul>
 800359e:   4621        mov r1, r4
 80035a0:   f7fd fba4   bl  8000cec <__aeabi_fmul>
 80035a4:   4601        mov r1, r0
 80035a6:   4630        mov r0, r6
 80035a8:   f7fd fa98   bl  8000adc <__addsf3>
 80035ac:   4639        mov r1, r7
 80035ae:   4606        mov r6, r0
 80035b0:   980c        ldr r0, [sp, #48]   ; 0x30
 80035b2:   f7fd fb9b   bl  8000cec <__aeabi_fmul>
 80035b6:   4601        mov r1, r0
 80035b8:   4630        mov r0, r6
 80035ba:   f7fd fa8d   bl  8000ad8 <__aeabi_fsub>
 80035be:   9a17        ldr r2, [sp, #92]   ; 0x5c
 80035c0:   9016        str r0, [sp, #88]   ; 0x58
 80035c2:   4611        mov r1, r2
 80035c4:   4610        mov r0, r2
 80035c6:   f7fd fb91   bl  8000cec <__aeabi_fmul>
 80035ca:   9b16        ldr r3, [sp, #88]   ; 0x58
 80035cc:   4606        mov r6, r0
 80035ce:   4619        mov r1, r3
 80035d0:   4618        mov r0, r3
 80035d2:   f7fd fb8b   bl  8000cec <__aeabi_fmul>
 80035d6:   4601        mov r1, r0
 80035d8:   4630        mov r0, r6
 80035da:   f7fd fa7f   bl  8000adc <__addsf3>
 80035de:   f7fc ff23   bl  8000428 <__aeabi_f2d>
 80035e2:   f002 fc97   bl  8005f14 <sqrt>
 80035e6:   f7fd fa23   bl  8000a30 <__aeabi_d2f>
 80035ea:   9b13        ldr r3, [sp, #76]   ; 0x4c
 80035ec:   4606        mov r6, r0
 80035ee:   4629        mov r1, r5
 80035f0:   f103 4000   add.w   r0, r3, #2147483648 ; 0x80000000
 80035f4:   f7fd fb7a   bl  8000cec <__aeabi_fmul>
 80035f8:   4659        mov r1, fp
 80035fa:   9013        str r0, [sp, #76]   ; 0x4c
 80035fc:   9801        ldr r0, [sp, #4]
 80035fe:   f7fd fb75   bl  8000cec <__aeabi_fmul>
 8003602:   9b13        ldr r3, [sp, #76]   ; 0x4c
 8003604:   4601        mov r1, r0
 8003606:   4618        mov r0, r3
 8003608:   f7fd fa68   bl  8000adc <__addsf3>
 800360c:   4649        mov r1, r9
 800360e:   4683        mov fp, r0
 8003610:   4640        mov r0, r8
 8003612:   f7fd fb6b   bl  8000cec <__aeabi_fmul>
 8003616:   4601        mov r1, r0
 8003618:   4658        mov r0, fp
 800361a:   f7fd fa5f   bl  8000adc <__addsf3>
 800361e:   9915        ldr r1, [sp, #84]   ; 0x54
 8003620:   4680        mov r8, r0
 8003622:   4620        mov r0, r4
 8003624:   f7fd fb62   bl  8000cec <__aeabi_fmul>
 8003628:   4601        mov r1, r0
 800362a:   4640        mov r0, r8
 800362c:   f7fd fa56   bl  8000adc <__addsf3>
 8003630:   4649        mov r1, r9
 8003632:   4680        mov r8, r0
 8003634:   9807        ldr r0, [sp, #28]
 8003636:   f7fd fb59   bl  8000cec <__aeabi_fmul>
 800363a:   4601        mov r1, r0
 800363c:   4640        mov r0, r8
 800363e:   f7fd fa4b   bl  8000ad8 <__aeabi_fsub>
 8003642:   4639        mov r1, r7
 8003644:   4680        mov r8, r0
 8003646:   9806        ldr r0, [sp, #24]
 8003648:   f7fd fb50   bl  8000cec <__aeabi_fmul>
 800364c:   4621        mov r1, r4
 800364e:   f7fd fb4d   bl  8000cec <__aeabi_fmul>
 8003652:   4601        mov r1, r0
 8003654:   4640        mov r0, r8
 8003656:   f7fd fa41   bl  8000adc <__addsf3>
 800365a:   4649        mov r1, r9
 800365c:   4680        mov r8, r0
 800365e:   9804        ldr r0, [sp, #16]
 8003660:   f7fd fb44   bl  8000cec <__aeabi_fmul>
 8003664:   4601        mov r1, r0
 8003666:   4640        mov r0, r8
 8003668:   f7fd fa36   bl  8000ad8 <__aeabi_fsub>
 800366c:   4649        mov r1, r9
 800366e:   4680        mov r8, r0
 8003670:   980c        ldr r0, [sp, #48]   ; 0x30
 8003672:   f7fd fb3b   bl  8000cec <__aeabi_fmul>
 8003676:   4601        mov r1, r0
 8003678:   4640        mov r0, r8
 800367a:   f7fd fa2f   bl  8000adc <__addsf3>
 800367e:   4601        mov r1, r0
 8003680:   4680        mov r8, r0
 8003682:   f7fd fa2b   bl  8000adc <__addsf3>
 8003686:   990b        ldr r1, [sp, #44]   ; 0x2c
 8003688:   9015        str r0, [sp, #84]   ; 0x54
 800368a:   4608        mov r0, r1
 800368c:   f7fd fa26   bl  8000adc <__addsf3>
 8003690:   9903        ldr r1, [sp, #12]
 8003692:   4683        mov fp, r0
 8003694:   4628        mov r0, r5
 8003696:   f7fd fb29   bl  8000cec <__aeabi_fmul>
 800369a:   4601        mov r1, r0
 800369c:   4658        mov r0, fp
 800369e:   f7fd fa1b   bl  8000ad8 <__aeabi_fsub>
 80036a2:   9911        ldr r1, [sp, #68]   ; 0x44
 80036a4:   4683        mov fp, r0
 80036a6:   980d        ldr r0, [sp, #52]   ; 0x34
 80036a8:   f7fd fb20   bl  8000cec <__aeabi_fmul>
 80036ac:   4601        mov r1, r0
 80036ae:   4658        mov r0, fp
 80036b0:   f7fd fa12   bl  8000ad8 <__aeabi_fsub>
 80036b4:   9906        ldr r1, [sp, #24]
 80036b6:   900d        str r0, [sp, #52]   ; 0x34
 80036b8:   4620        mov r0, r4
 80036ba:   f7fd fb17   bl  8000cec <__aeabi_fmul>
 80036be:   990f        ldr r1, [sp, #60]   ; 0x3c
 80036c0:   4683        mov fp, r0
 80036c2:   4608        mov r0, r1
 80036c4:   f7fd fa0a   bl  8000adc <__addsf3>
 80036c8:   4601        mov r1, r0
 80036ca:   4658        mov r0, fp
 80036cc:   f7fd fa06   bl  8000adc <__addsf3>
 80036d0:   9911        ldr r1, [sp, #68]   ; 0x44
 80036d2:   4683        mov fp, r0
 80036d4:   980e        ldr r0, [sp, #56]   ; 0x38
 80036d6:   f7fd fb09   bl  8000cec <__aeabi_fmul>
 80036da:   4601        mov r1, r0
 80036dc:   4658        mov r0, fp
 80036de:   f7fd f9fb   bl  8000ad8 <__aeabi_fsub>
 80036e2:   4641        mov r1, r8
 80036e4:   900e        str r0, [sp, #56]   ; 0x38
 80036e6:   4628        mov r0, r5
 80036e8:   f7fd fb00   bl  8000cec <__aeabi_fmul>
 80036ec:   9904        ldr r1, [sp, #16]
 80036ee:   9016        str r0, [sp, #88]   ; 0x58
 80036f0:   f04f 507c   mov.w   r0, #1056964608 ; 0x3f000000
 80036f4:   f7fd f9f0   bl  8000ad8 <__aeabi_fsub>
 80036f8:   990c        ldr r1, [sp, #48]   ; 0x30
 80036fa:   f7fd f9ed   bl  8000ad8 <__aeabi_fsub>
 80036fe:   4631        mov r1, r6
 8003700:   f7fd faf4   bl  8000cec <__aeabi_fmul>
 8003704:   9912        ldr r1, [sp, #72]   ; 0x48
 8003706:   4683        mov fp, r0
 8003708:   980b        ldr r0, [sp, #44]   ; 0x2c
 800370a:   f7fd f9e5   bl  8000ad8 <__aeabi_fsub>
 800370e:   4641        mov r1, r8
 8003710:   f7fd faec   bl  8000cec <__aeabi_fmul>
 8003714:   4601        mov r1, r0
 8003716:   4658        mov r0, fp
 8003718:   f7fd f9e0   bl  8000adc <__addsf3>
 800371c:   4651        mov r1, sl
 800371e:   f7fd f9db   bl  8000ad8 <__aeabi_fsub>
 8003722:   f106 4300   add.w   r3, r6, #2147483648 ; 0x80000000
 8003726:   4641        mov r1, r8
 8003728:   900c        str r0, [sp, #48]   ; 0x30
 800372a:   9801        ldr r0, [sp, #4]
 800372c:   9313        str r3, [sp, #76]   ; 0x4c
 800372e:   f7fd fadd   bl  8000cec <__aeabi_fmul>
 8003732:   4629        mov r1, r5
 8003734:   9017        str r0, [sp, #92]   ; 0x5c
 8003736:   9801        ldr r0, [sp, #4]
 8003738:   f7fd fad8   bl  8000cec <__aeabi_fmul>
 800373c:   4621        mov r1, r4
 800373e:   4682        mov sl, r0
 8003740:   9802        ldr r0, [sp, #8]
 8003742:   f7fd fad3   bl  8000cec <__aeabi_fmul>
 8003746:   4601        mov r1, r0
 8003748:   4650        mov r0, sl
 800374a:   f7fd f9c5   bl  8000ad8 <__aeabi_fsub>
 800374e:   4631        mov r1, r6
 8003750:   f7fd facc   bl  8000cec <__aeabi_fmul>
 8003754:   4621        mov r1, r4
 8003756:   4682        mov sl, r0
 8003758:   4628        mov r0, r5
 800375a:   f7fd fac7   bl  8000cec <__aeabi_fmul>
 800375e:   990f        ldr r1, [sp, #60]   ; 0x3c
 8003760:   f7fd f9bc   bl  8000adc <__addsf3>
 8003764:   4641        mov r1, r8
 8003766:   f7fd fac1   bl  8000cec <__aeabi_fmul>
 800376a:   4601        mov r1, r0
 800376c:   4650        mov r0, sl
 800376e:   f7fd f9b5   bl  8000adc <__addsf3>
 8003772:   4639        mov r1, r7
 8003774:   f7fd f9b0   bl  8000ad8 <__aeabi_fsub>
 8003778:   4631        mov r1, r6
 800377a:   900f        str r0, [sp, #60]   ; 0x3c
 800377c:   4628        mov r0, r5
 800377e:   f7fd fab5   bl  8000cec <__aeabi_fmul>
 8003782:   9907        ldr r1, [sp, #28]
 8003784:   4607        mov r7, r0
 8003786:   f04f 507c   mov.w   r0, #1056964608 ; 0x3f000000
 800378a:   f7fd f9a5   bl  8000ad8 <__aeabi_fsub>
 800378e:   9904        ldr r1, [sp, #16]
 8003790:   f7fd f9a2   bl  8000ad8 <__aeabi_fsub>
 8003794:   4641        mov r1, r8
 8003796:   f7fd faa9   bl  8000cec <__aeabi_fmul>
 800379a:   990b        ldr r1, [sp, #44]   ; 0x2c
 800379c:   4682        mov sl, r0
 800379e:   9812        ldr r0, [sp, #72]   ; 0x48
 80037a0:   f7fd f99c   bl  8000adc <__addsf3>
 80037a4:   4631        mov r1, r6
 80037a6:   f7fd faa1   bl  8000cec <__aeabi_fmul>
 80037aa:   4601        mov r1, r0
 80037ac:   4650        mov r0, sl
 80037ae:   f7fd f995   bl  8000adc <__addsf3>
 80037b2:   4649        mov r1, r9
 80037b4:   f7fd f990   bl  8000ad8 <__aeabi_fsub>
 80037b8:   9b06        ldr r3, [sp, #24]
 80037ba:   990d        ldr r1, [sp, #52]   ; 0x34
 80037bc:   900b        str r0, [sp, #44]   ; 0x2c
 80037be:   f103 4000   add.w   r0, r3, #2147483648 ; 0x80000000
 80037c2:   f7fd fa93   bl  8000cec <__aeabi_fmul>
 80037c6:   990e        ldr r1, [sp, #56]   ; 0x38
 80037c8:   4681        mov r9, r0
 80037ca:   9805        ldr r0, [sp, #20]
 80037cc:   f7fd fa8e   bl  8000cec <__aeabi_fmul>
 80037d0:   4601        mov r1, r0
 80037d2:   4648        mov r0, r9
 80037d4:   f7fd f982   bl  8000adc <__addsf3>
 80037d8:   990c        ldr r1, [sp, #48]   ; 0x30
 80037da:   4681        mov r9, r0
 80037dc:   9816        ldr r0, [sp, #88]   ; 0x58
 80037de:   f7fd fa85   bl  8000cec <__aeabi_fmul>
 80037e2:   4601        mov r1, r0
 80037e4:   4648        mov r0, r9
 80037e6:   f7fd f977   bl  8000ad8 <__aeabi_fsub>
 80037ea:   9913        ldr r1, [sp, #76]   ; 0x4c
 80037ec:   4681        mov r9, r0
 80037ee:   4620        mov r0, r4
 80037f0:   f7fd fa7c   bl  8000cec <__aeabi_fmul>
 80037f4:   9917        ldr r1, [sp, #92]   ; 0x5c
 80037f6:   f7fd f971   bl  8000adc <__addsf3>
 80037fa:   990f        ldr r1, [sp, #60]   ; 0x3c
 80037fc:   f7fd fa76   bl  8000cec <__aeabi_fmul>
 8003800:   4601        mov r1, r0
 8003802:   4648        mov r0, r9
 8003804:   f7fd f96a   bl  8000adc <__addsf3>
 8003808:   990b        ldr r1, [sp, #44]   ; 0x2c
 800380a:   4681        mov r9, r0
 800380c:   4638        mov r0, r7
 800380e:   f7fd fa6d   bl  8000cec <__aeabi_fmul>
 8003812:   4601        mov r1, r0
 8003814:   4648        mov r0, r9
 8003816:   f7fd f961   bl  8000adc <__addsf3>
 800381a:   9907        ldr r1, [sp, #28]
 800381c:   9012        str r0, [sp, #72]   ; 0x48
 800381e:   4608        mov r0, r1
 8003820:   f7fd f95c   bl  8000adc <__addsf3>
 8003824:   4601        mov r1, r0
 8003826:   f04f 507e   mov.w   r0, #1065353216 ; 0x3f800000
 800382a:   f7fd f955   bl  8000ad8 <__aeabi_fsub>
 800382e:   9904        ldr r1, [sp, #16]
 8003830:   4681        mov r9, r0
 8003832:   4608        mov r0, r1
 8003834:   f7fd f952   bl  8000adc <__addsf3>
 8003838:   4601        mov r1, r0
 800383a:   4648        mov r0, r9
 800383c:   f7fd f94c   bl  8000ad8 <__aeabi_fsub>
 8003840:   9911        ldr r1, [sp, #68]   ; 0x44
 8003842:   4681        mov r9, r0
 8003844:   9810        ldr r0, [sp, #64]   ; 0x40
 8003846:   f7fd fa51   bl  8000cec <__aeabi_fmul>
 800384a:   4601        mov r1, r0
 800384c:   4648        mov r0, r9
 800384e:   f7fd f943   bl  8000ad8 <__aeabi_fsub>
 8003852:   4641        mov r1, r8
 8003854:   4683        mov fp, r0
 8003856:   4620        mov r0, r4
 8003858:   f7fd fa48   bl  8000cec <__aeabi_fmul>
 800385c:   4641        mov r1, r8
 800385e:   4681        mov r9, r0
 8003860:   9802        ldr r0, [sp, #8]
 8003862:   f7fd fa43   bl  8000cec <__aeabi_fmul>
 8003866:   990d        ldr r1, [sp, #52]   ; 0x34
 8003868:   4682        mov sl, r0
 800386a:   9814        ldr r0, [sp, #80]   ; 0x50
 800386c:   f7fd fa3e   bl  8000cec <__aeabi_fmul>
 8003870:   990e        ldr r1, [sp, #56]   ; 0x38
 8003872:   4680        mov r8, r0
 8003874:   9803        ldr r0, [sp, #12]
 8003876:   f7fd fa39   bl  8000cec <__aeabi_fmul>
 800387a:   4601        mov r1, r0
 800387c:   4640        mov r0, r8
 800387e:   f7fd f92d   bl  8000adc <__addsf3>
 8003882:   f04f 4181   mov.w   r1, #1082130432 ; 0x40800000
 8003886:   4680        mov r8, r0
 8003888:   9801        ldr r0, [sp, #4]
 800388a:   f7fd fa2f   bl  8000cec <__aeabi_fmul>
 800388e:   4659        mov r1, fp
 8003890:   f7fd fa2c   bl  8000cec <__aeabi_fmul>
 8003894:   4601        mov r1, r0
 8003896:   4640        mov r0, r8
 8003898:   f7fd f91e   bl  8000ad8 <__aeabi_fsub>
 800389c:   4649        mov r1, r9
 800389e:   4680        mov r8, r0
 80038a0:   980c        ldr r0, [sp, #48]   ; 0x30
 80038a2:   f7fd fa23   bl  8000cec <__aeabi_fmul>
 80038a6:   4601        mov r1, r0
 80038a8:   4640        mov r0, r8
 80038aa:   f7fd f917   bl  8000adc <__addsf3>
 80038ae:   4651        mov r1, sl
 80038b0:   4680        mov r8, r0
 80038b2:   4638        mov r0, r7
 80038b4:   f7fd f912   bl  8000adc <__addsf3>
 80038b8:   990f        ldr r1, [sp, #60]   ; 0x3c
 80038ba:   f7fd fa17   bl  8000cec <__aeabi_fmul>
 80038be:   4601        mov r1, r0
 80038c0:   4640        mov r0, r8
 80038c2:   f7fd f90b   bl  8000adc <__addsf3>
 80038c6:   4631        mov r1, r6
 80038c8:   4607        mov r7, r0
 80038ca:   4620        mov r0, r4
 80038cc:   f7fd fa0e   bl  8000cec <__aeabi_fmul>
 80038d0:   9915        ldr r1, [sp, #84]   ; 0x54
 80038d2:   4680        mov r8, r0
 80038d4:   9801        ldr r0, [sp, #4]
 80038d6:   f7fd fa09   bl  8000cec <__aeabi_fmul>
 80038da:   4601        mov r1, r0
 80038dc:   4640        mov r0, r8
 80038de:   f7fd f8fb   bl  8000ad8 <__aeabi_fsub>
 80038e2:   990b        ldr r1, [sp, #44]   ; 0x2c
 80038e4:   f7fd fa02   bl  8000cec <__aeabi_fmul>
 80038e8:   4601        mov r1, r0
 80038ea:   4638        mov r0, r7
 80038ec:   f7fd f8f6   bl  8000adc <__addsf3>
 80038f0:   4631        mov r1, r6
 80038f2:   9004        str r0, [sp, #16]
 80038f4:   4630        mov r0, r6
 80038f6:   f7fd f8f1   bl  8000adc <__addsf3>
 80038fa:   4631        mov r1, r6
 80038fc:   f100 4800   add.w   r8, r0, #2147483648 ; 0x80000000
 8003900:   9801        ldr r0, [sp, #4]
 8003902:   f7fd f9f3   bl  8000cec <__aeabi_fmul>
 8003906:   9b03        ldr r3, [sp, #12]
 8003908:   4607        mov r7, r0
 800390a:   990d        ldr r1, [sp, #52]   ; 0x34
 800390c:   f103 4000   add.w   r0, r3, #2147483648 ; 0x80000000
 8003910:   f7fd f9ec   bl  8000cec <__aeabi_fmul>
 8003914:   990e        ldr r1, [sp, #56]   ; 0x38
 8003916:   9003        str r0, [sp, #12]
 8003918:   9814        ldr r0, [sp, #80]   ; 0x50
 800391a:   f7fd f9e7   bl  8000cec <__aeabi_fmul>
 800391e:   9b03        ldr r3, [sp, #12]
 8003920:   4601        mov r1, r0
 8003922:   4618        mov r0, r3
 8003924:   f7fd f8da   bl  8000adc <__addsf3>
 8003928:   f04f 4181   mov.w   r1, #1082130432 ; 0x40800000
 800392c:   9003        str r0, [sp, #12]
 800392e:   4628        mov r0, r5
 8003930:   f7fd f9dc   bl  8000cec <__aeabi_fmul>
 8003934:   4659        mov r1, fp
 8003936:   f7fd f9d9   bl  8000cec <__aeabi_fmul>
 800393a:   9b03        ldr r3, [sp, #12]
 800393c:   4601        mov r1, r0
 800393e:   4618        mov r0, r3
 8003940:   f7fd f8ca   bl  8000ad8 <__aeabi_fsub>
 8003944:   4641        mov r1, r8
 8003946:   4683        mov fp, r0
 8003948:   4628        mov r0, r5
 800394a:   f7fd f9cf   bl  8000cec <__aeabi_fmul>
 800394e:   4651        mov r1, sl
 8003950:   f7fd f8c2   bl  8000ad8 <__aeabi_fsub>
 8003954:   990c        ldr r1, [sp, #48]   ; 0x30
 8003956:   f7fd f9c9   bl  8000cec <__aeabi_fmul>
 800395a:   4601        mov r1, r0
 800395c:   4658        mov r0, fp
 800395e:   f7fd f8bd   bl  8000adc <__addsf3>
 8003962:   4639        mov r1, r7
 8003964:   4682        mov sl, r0
 8003966:   4648        mov r0, r9
 8003968:   f7fd f8b8   bl  8000adc <__addsf3>
 800396c:   990f        ldr r1, [sp, #60]   ; 0x3c
 800396e:   f7fd f9bd   bl  8000cec <__aeabi_fmul>
 8003972:   4601        mov r1, r0
 8003974:   4650        mov r0, sl
 8003976:   f7fd f8b1   bl  8000adc <__addsf3>
 800397a:   4631        mov r1, r6
 800397c:   4681        mov r9, r0
 800397e:   9802        ldr r0, [sp, #8]
 8003980:   f7fd f9b4   bl  8000cec <__aeabi_fmul>
 8003984:   9915        ldr r1, [sp, #84]   ; 0x54
 8003986:   4606        mov r6, r0
 8003988:   4628        mov r0, r5
 800398a:   f7fd f9af   bl  8000cec <__aeabi_fmul>
 800398e:   4601        mov r1, r0
 8003990:   4630        mov r0, r6
 8003992:   f7fd f8a1   bl  8000ad8 <__aeabi_fsub>
 8003996:   990b        ldr r1, [sp, #44]   ; 0x2c
 8003998:   f7fd f9a8   bl  8000cec <__aeabi_fmul>
 800399c:   4601        mov r1, r0
 800399e:   4648        mov r0, r9
 80039a0:   f7fd f89c   bl  8000adc <__addsf3>
 80039a4:   990d        ldr r1, [sp, #52]   ; 0x34
 80039a6:   4683        mov fp, r0
 80039a8:   9805        ldr r0, [sp, #20]
 80039aa:   f7fd f99f   bl  8000cec <__aeabi_fmul>
 80039ae:   990e        ldr r1, [sp, #56]   ; 0x38
 80039b0:   4606        mov r6, r0
 80039b2:   9806        ldr r0, [sp, #24]
 80039b4:   f7fd f99a   bl  8000cec <__aeabi_fmul>
 80039b8:   4601        mov r1, r0
 80039ba:   4630        mov r0, r6
 80039bc:   f7fd f88e   bl  8000adc <__addsf3>
 80039c0:   4641        mov r1, r8
 80039c2:   4606        mov r6, r0
 80039c4:   4620        mov r0, r4
 80039c6:   f7fd f991   bl  8000cec <__aeabi_fmul>
 80039ca:   9917        ldr r1, [sp, #92]   ; 0x5c
 80039cc:   f7fd f886   bl  8000adc <__addsf3>
 80039d0:   990c        ldr r1, [sp, #48]   ; 0x30
 80039d2:   f7fd f98b   bl  8000cec <__aeabi_fmul>
 80039d6:   4601        mov r1, r0
 80039d8:   4630        mov r0, r6
 80039da:   f7fd f87f   bl  8000adc <__addsf3>
 80039de:   9913        ldr r1, [sp, #76]   ; 0x4c
 80039e0:   4606        mov r6, r0
 80039e2:   9802        ldr r0, [sp, #8]
 80039e4:   f7fd f982   bl  8000cec <__aeabi_fmul>
 80039e8:   9916        ldr r1, [sp, #88]   ; 0x58
 80039ea:   f7fd f877   bl  8000adc <__addsf3>
 80039ee:   990f        ldr r1, [sp, #60]   ; 0x3c
 80039f0:   f7fd f97c   bl  8000cec <__aeabi_fmul>
 80039f4:   4601        mov r1, r0
 80039f6:   4630        mov r0, r6
 80039f8:   f7fd f870   bl  8000adc <__addsf3>
 80039fc:   4639        mov r1, r7
 80039fe:   4606        mov r6, r0
 8003a00:   980b        ldr r0, [sp, #44]   ; 0x2c
 8003a02:   f7fd f973   bl  8000cec <__aeabi_fmul>
 8003a06:   4601        mov r1, r0
 8003a08:   4630        mov r0, r6
 8003a0a:   f7fd f867   bl  8000adc <__addsf3>
 8003a0e:   9912        ldr r1, [sp, #72]   ; 0x48
 8003a10:   4682        mov sl, r0
 8003a12:   4608        mov r0, r1
 8003a14:   f7fd f96a   bl  8000cec <__aeabi_fmul>
 8003a18:   9904        ldr r1, [sp, #16]
 8003a1a:   4606        mov r6, r0
 8003a1c:   4608        mov r0, r1
 8003a1e:   f7fd f965   bl  8000cec <__aeabi_fmul>
 8003a22:   4601        mov r1, r0
 8003a24:   4630        mov r0, r6
 8003a26:   f7fd f859   bl  8000adc <__addsf3>
 8003a2a:   4659        mov r1, fp
 8003a2c:   4606        mov r6, r0
 8003a2e:   4658        mov r0, fp
 8003a30:   f7fd f95c   bl  8000cec <__aeabi_fmul>
 8003a34:   4601        mov r1, r0
 8003a36:   4630        mov r0, r6
 8003a38:   f7fd f850   bl  8000adc <__addsf3>
 8003a3c:   4651        mov r1, sl
 8003a3e:   4606        mov r6, r0
 8003a40:   4650        mov r0, sl
 8003a42:   f7fd f953   bl  8000cec <__aeabi_fmul>
 8003a46:   4601        mov r1, r0
 8003a48:   4630        mov r0, r6
 8003a4a:   f7fd f847   bl  8000adc <__addsf3>
 8003a4e:   f7fc fceb   bl  8000428 <__aeabi_f2d>
 8003a52:   f002 fa5f   bl  8005f14 <sqrt>
 8003a56:   f7fc ffeb   bl  8000a30 <__aeabi_d2f>
 8003a5a:   4601        mov r1, r0
 8003a5c:   f04f 507e   mov.w   r0, #1065353216 ; 0x3f800000
 8003a60:   f7fd f9f8   bl  8000e54 <__aeabi_fdiv>
 8003a64:   49aa        ldr r1, [pc, #680]  ; (8003d10 <MadgwickQuaternionUpdate+0xa50>)
 8003a66:   4606        mov r6, r0
 8003a68:   680b        ldr r3, [r1, #0]
 8003a6a:   680a        ldr r2, [r1, #0]
 8003a6c:   9306        str r3, [sp, #24]
 8003a6e:   680b        ldr r3, [r1, #0]
 8003a70:   9207        str r2, [sp, #28]
 8003a72:   9303        str r3, [sp, #12]
 8003a74:   680b        ldr r3, [r1, #0]
 8003a76:   9908        ldr r1, [sp, #32]
 8003a78:   9305        str r3, [sp, #20]
 8003a7a:   9b01        ldr r3, [sp, #4]
 8003a7c:   4fa5        ldr r7, [pc, #660]  ; (8003d14 <MadgwickQuaternionUpdate+0xa54>)
 8003a7e:   f103 4000   add.w   r0, r3, #2147483648 ; 0x80000000
 8003a82:   f7fd f933   bl  8000cec <__aeabi_fmul>
 8003a86:   9909        ldr r1, [sp, #36]   ; 0x24
 8003a88:   4681        mov r9, r0
 8003a8a:   4628        mov r0, r5
 8003a8c:   f7fd f92e   bl  8000cec <__aeabi_fmul>
 8003a90:   4601        mov r1, r0
 8003a92:   4648        mov r0, r9
 8003a94:   f7fd f820   bl  8000ad8 <__aeabi_fsub>
 8003a98:   990a        ldr r1, [sp, #40]   ; 0x28
 8003a9a:   4681        mov r9, r0
 8003a9c:   4620        mov r0, r4
 8003a9e:   f7fd f925   bl  8000cec <__aeabi_fmul>
 8003aa2:   4601        mov r1, r0
 8003aa4:   4648        mov r0, r9
 8003aa6:   f7fd f817   bl  8000ad8 <__aeabi_fsub>
 8003aaa:   f04f 517c   mov.w   r1, #1056964608 ; 0x3f000000
 8003aae:   f7fd f91d   bl  8000cec <__aeabi_fmul>
 8003ab2:   4631        mov r1, r6
 8003ab4:   4681        mov r9, r0
 8003ab6:   9812        ldr r0, [sp, #72]   ; 0x48
 8003ab8:   f7fd f918   bl  8000cec <__aeabi_fmul>
 8003abc:   9b06        ldr r3, [sp, #24]
 8003abe:   f8d7 8000   ldr.w   r8, [r7]
 8003ac2:   4619        mov r1, r3
 8003ac4:   f7fd f912   bl  8000cec <__aeabi_fmul>
 8003ac8:   4601        mov r1, r0
 8003aca:   4648        mov r0, r9
 8003acc:   f7fd f804   bl  8000ad8 <__aeabi_fsub>
 8003ad0:   4641        mov r1, r8
 8003ad2:   f7fd f90b   bl  8000cec <__aeabi_fmul>
 8003ad6:   9902        ldr r1, [sp, #8]
 8003ad8:   f7fd f800   bl  8000adc <__addsf3>
 8003adc:   9908        ldr r1, [sp, #32]
 8003ade:   4681        mov r9, r0
 8003ae0:   9802        ldr r0, [sp, #8]
 8003ae2:   f7fd f903   bl  8000cec <__aeabi_fmul>
 8003ae6:   990a        ldr r1, [sp, #40]   ; 0x28
 8003ae8:   9006        str r0, [sp, #24]
 8003aea:   4628        mov r0, r5
 8003aec:   f7fd f8fe   bl  8000cec <__aeabi_fmul>
 8003af0:   9b06        ldr r3, [sp, #24]
 8003af2:   4601        mov r1, r0
 8003af4:   4618        mov r0, r3
 8003af6:   f8d7 8000   ldr.w   r8, [r7]
 8003afa:   f7fc ffef   bl  8000adc <__addsf3>
 8003afe:   9909        ldr r1, [sp, #36]   ; 0x24
 8003b00:   9006        str r0, [sp, #24]
 8003b02:   4620        mov r0, r4
 8003b04:   f7fd f8f2   bl  8000cec <__aeabi_fmul>
 8003b08:   9b06        ldr r3, [sp, #24]
 8003b0a:   4601        mov r1, r0
 8003b0c:   4618        mov r0, r3
 8003b0e:   f7fc ffe3   bl  8000ad8 <__aeabi_fsub>
 8003b12:   f04f 517c   mov.w   r1, #1056964608 ; 0x3f000000
 8003b16:   f7fd f8e9   bl  8000cec <__aeabi_fmul>
 8003b1a:   4631        mov r1, r6
 8003b1c:   9006        str r0, [sp, #24]
 8003b1e:   9804        ldr r0, [sp, #16]
 8003b20:   f7fd f8e4   bl  8000cec <__aeabi_fmul>
 8003b24:   9a07        ldr r2, [sp, #28]
 8003b26:   4611        mov r1, r2
 8003b28:   f7fd f8e0   bl  8000cec <__aeabi_fmul>
 8003b2c:   9b06        ldr r3, [sp, #24]
 8003b2e:   4601        mov r1, r0
 8003b30:   4618        mov r0, r3
 8003b32:   f7fc ffd1   bl  8000ad8 <__aeabi_fsub>
 8003b36:   4641        mov r1, r8
 8003b38:   f7fd f8d8   bl  8000cec <__aeabi_fmul>
 8003b3c:   9901        ldr r1, [sp, #4]
 8003b3e:   f7fc ffcd   bl  8000adc <__addsf3>
 8003b42:   683b        ldr r3, [r7, #0]
 8003b44:   4680        mov r8, r0
 8003b46:   9909        ldr r1, [sp, #36]   ; 0x24
 8003b48:   9802        ldr r0, [sp, #8]
 8003b4a:   9306        str r3, [sp, #24]
 8003b4c:   f7fd f8ce   bl  8000cec <__aeabi_fmul>
 8003b50:   990a        ldr r1, [sp, #40]   ; 0x28
 8003b52:   9004        str r0, [sp, #16]
 8003b54:   9801        ldr r0, [sp, #4]
 8003b56:   f7fd f8c9   bl  8000cec <__aeabi_fmul>
 8003b5a:   9a04        ldr r2, [sp, #16]
 8003b5c:   4601        mov r1, r0
 8003b5e:   4610        mov r0, r2
 8003b60:   f7fc ffba   bl  8000ad8 <__aeabi_fsub>
 8003b64:   9908        ldr r1, [sp, #32]
 8003b66:   9004        str r0, [sp, #16]
 8003b68:   4620        mov r0, r4
 8003b6a:   f7fd f8bf   bl  8000cec <__aeabi_fmul>
 8003b6e:   9a04        ldr r2, [sp, #16]
 8003b70:   4601        mov r1, r0
 8003b72:   4610        mov r0, r2
 8003b74:   f7fc ffb2   bl  8000adc <__addsf3>
 8003b78:   f04f 517c   mov.w   r1, #1056964608 ; 0x3f000000
 8003b7c:   f7fd f8b6   bl  8000cec <__aeabi_fmul>
 8003b80:   4631        mov r1, r6
 8003b82:   9004        str r0, [sp, #16]
 8003b84:   4658        mov r0, fp
 8003b86:   f7fd f8b1   bl  8000cec <__aeabi_fmul>
 8003b8a:   9903        ldr r1, [sp, #12]
 8003b8c:   f7fd f8ae   bl  8000cec <__aeabi_fmul>
 8003b90:   9a04        ldr r2, [sp, #16]
 8003b92:   4601        mov r1, r0
 8003b94:   4610        mov r0, r2
 8003b96:   f7fc ff9f   bl  8000ad8 <__aeabi_fsub>
 8003b9a:   9b06        ldr r3, [sp, #24]
 8003b9c:   4619        mov r1, r3
 8003b9e:   f7fd f8a5   bl  8000cec <__aeabi_fmul>
 8003ba2:   4629        mov r1, r5
 8003ba4:   f7fc ff9a   bl  8000adc <__addsf3>
 8003ba8:   990a        ldr r1, [sp, #40]   ; 0x28
 8003baa:   4683        mov fp, r0
 8003bac:   9802        ldr r0, [sp, #8]
 8003bae:   f7fd f89d   bl  8000cec <__aeabi_fmul>
 8003bb2:   9909        ldr r1, [sp, #36]   ; 0x24
 8003bb4:   9002        str r0, [sp, #8]
 8003bb6:   9801        ldr r0, [sp, #4]
 8003bb8:   f7fd f898   bl  8000cec <__aeabi_fmul>
 8003bbc:   9b02        ldr r3, [sp, #8]
 8003bbe:   4601        mov r1, r0
 8003bc0:   4618        mov r0, r3
 8003bc2:   f7fc ff8b   bl  8000adc <__addsf3>
 8003bc6:   9908        ldr r1, [sp, #32]
 8003bc8:   9001        str r0, [sp, #4]
 8003bca:   4628        mov r0, r5
 8003bcc:   f7fd f88e   bl  8000cec <__aeabi_fmul>
 8003bd0:   9b01        ldr r3, [sp, #4]
 8003bd2:   4601        mov r1, r0
 8003bd4:   4618        mov r0, r3
 8003bd6:   f7fc ff7f   bl  8000ad8 <__aeabi_fsub>
 8003bda:   f04f 517c   mov.w   r1, #1056964608 ; 0x3f000000
 8003bde:   f7fd f885   bl  8000cec <__aeabi_fmul>
 8003be2:   4631        mov r1, r6
 8003be4:   4605        mov r5, r0
 8003be6:   4650        mov r0, sl
 8003be8:   f7fd f880   bl  8000cec <__aeabi_fmul>
 8003bec:   9905        ldr r1, [sp, #20]
 8003bee:   f7fd f87d   bl  8000cec <__aeabi_fmul>
 8003bf2:   683f        ldr r7, [r7, #0]
 8003bf4:   4601        mov r1, r0
 8003bf6:   4628        mov r0, r5
 8003bf8:   f7fc ff6e   bl  8000ad8 <__aeabi_fsub>
 8003bfc:   4639        mov r1, r7
 8003bfe:   f7fd f875   bl  8000cec <__aeabi_fmul>
 8003c02:   4621        mov r1, r4
 8003c04:   f7fc ff6a   bl  8000adc <__addsf3>
 8003c08:   4649        mov r1, r9
 8003c0a:   4606        mov r6, r0
 8003c0c:   4648        mov r0, r9
 8003c0e:   f7fd f86d   bl  8000cec <__aeabi_fmul>
 8003c12:   4641        mov r1, r8
 8003c14:   4604        mov r4, r0
 8003c16:   4640        mov r0, r8
 8003c18:   f7fd f868   bl  8000cec <__aeabi_fmul>
 8003c1c:   4601        mov r1, r0
 8003c1e:   4620        mov r0, r4
 8003c20:   f7fc ff5c   bl  8000adc <__addsf3>
 8003c24:   4659        mov r1, fp
 8003c26:   4604        mov r4, r0
 8003c28:   4658        mov r0, fp
 8003c2a:   f7fd f85f   bl  8000cec <__aeabi_fmul>
 8003c2e:   4601        mov r1, r0
 8003c30:   4620        mov r0, r4
 8003c32:   f7fc ff53   bl  8000adc <__addsf3>
 8003c36:   4631        mov r1, r6
 8003c38:   4604        mov r4, r0
 8003c3a:   4630        mov r0, r6
 8003c3c:   f7fd f856   bl  8000cec <__aeabi_fmul>
 8003c40:   4601        mov r1, r0
 8003c42:   4620        mov r0, r4
 8003c44:   f7fc ff4a   bl  8000adc <__addsf3>
 8003c48:   f7fc fbee   bl  8000428 <__aeabi_f2d>
 8003c4c:   f002 f962   bl  8005f14 <sqrt>
 8003c50:   f7fc feee   bl  8000a30 <__aeabi_d2f>
 8003c54:   4601        mov r1, r0
 8003c56:   f04f 507e   mov.w   r0, #1065353216 ; 0x3f800000
 8003c5a:   f7fd f8fb   bl  8000e54 <__aeabi_fdiv>
 8003c5e:   4605        mov r5, r0
 8003c60:   4601        mov r1, r0
 8003c62:   4648        mov r0, r9
 8003c64:   f7fd f842   bl  8000cec <__aeabi_fmul>
 8003c68:   4c2b        ldr r4, [pc, #172]  ; (8003d18 <MadgwickQuaternionUpdate+0xa58>)
 8003c6a:   4607        mov r7, r0
 8003c6c:   6020        str r0, [r4, #0]
 8003c6e:   4629        mov r1, r5
 8003c70:   4640        mov r0, r8
 8003c72:   f7fd f83b   bl  8000cec <__aeabi_fmul>
 8003c76:   4629        mov r1, r5
 8003c78:   4681        mov r9, r0
 8003c7a:   6060        str r0, [r4, #4]
 8003c7c:   4658        mov r0, fp
 8003c7e:   f7fd f835   bl  8000cec <__aeabi_fmul>
 8003c82:   4629        mov r1, r5
 8003c84:   4680        mov r8, r0
 8003c86:   60a0        str r0, [r4, #8]
 8003c88:   4630        mov r0, r6
 8003c8a:   f7fd f82f   bl  8000cec <__aeabi_fmul>
 8003c8e:   4601        mov r1, r0
 8003c90:   60e0        str r0, [r4, #12]
 8003c92:   4648        mov r0, r9
 8003c94:   f7fd f82a   bl  8000cec <__aeabi_fmul>
 8003c98:   4641        mov r1, r8
 8003c9a:   4605        mov r5, r0
 8003c9c:   4638        mov r0, r7
 8003c9e:   f7fd f825   bl  8000cec <__aeabi_fmul>
 8003ca2:   4601        mov r1, r0
 8003ca4:   4628        mov r0, r5
 8003ca6:   f7fc ff17   bl  8000ad8 <__aeabi_fsub>
 8003caa:   4601        mov r1, r0
 8003cac:   f7fc ff16   bl  8000adc <__addsf3>
 8003cb0:   f7fc fbba   bl  8000428 <__aeabi_f2d>
 8003cb4:   f001 ff74   bl  8005ba0 <asin>
 8003cb8:   2200        movs    r2, #0
 8003cba:   4b18        ldr r3, [pc, #96]   ; (8003d1c <MadgwickQuaternionUpdate+0xa5c>)
 8003cbc:   f7fc fc08   bl  80004d0 <__aeabi_dmul>
 8003cc0:   a311        add r3, pc, #68 ; (adr r3, 8003d08 <MadgwickQuaternionUpdate+0xa48>)
 8003cc2:   e9d3 2300   ldrd    r2, r3, [r3]
 8003cc6:   f7fc fd2d   bl  8000724 <__aeabi_ddiv>
 8003cca:   f7fc feb1   bl  8000a30 <__aeabi_d2f>
 8003cce:   9b27        ldr r3, [sp, #156]  ; 0x9c
 8003cd0:   6018        str r0, [r3, #0]
 8003cd2:   f8d4 9000   ldr.w   r9, [r4]
 8003cd6:   f8d4 a004   ldr.w   sl, [r4, #4]
 8003cda:   4649        mov r1, r9
 8003cdc:   4648        mov r0, r9
 8003cde:   f7fd f805   bl  8000cec <__aeabi_fmul>
 8003ce2:   4651        mov r1, sl
 8003ce4:   4606        mov r6, r0
 8003ce6:   4650        mov r0, sl
 8003ce8:   f7fd f800   bl  8000cec <__aeabi_fmul>
 8003cec:   4601        mov r1, r0
 8003cee:   4630        mov r0, r6
 8003cf0:   f7fc fef2   bl  8000ad8 <__aeabi_fsub>
 8003cf4:   68a5        ldr r5, [r4, #8]
 8003cf6:   4606        mov r6, r0
 8003cf8:   4629        mov r1, r5
 8003cfa:   4628        mov r0, r5
 8003cfc:   f7fc fff6   bl  8000cec <__aeabi_fmul>
 8003d00:   e00e        b.n 8003d20 <MadgwickQuaternionUpdate+0xa60>
 8003d02:   bf00        nop
 8003d04:   f3af 8000   nop.w
 8003d08:   54442d18    .word   0x54442d18
 8003d0c:   400921fb    .word   0x400921fb
 8003d10:   20000358    .word   0x20000358
 8003d14:   2000035c    .word   0x2000035c
 8003d18:   2000003c    .word   0x2000003c
 8003d1c:   40668000    .word   0x40668000
 8003d20:   4601        mov r1, r0
 8003d22:   4630        mov r0, r6
 8003d24:   f7fc fed8   bl  8000ad8 <__aeabi_fsub>
 8003d28:   f8d4 800c   ldr.w   r8, [r4, #12]
 8003d2c:   4606        mov r6, r0
 8003d2e:   4641        mov r1, r8
 8003d30:   4640        mov r0, r8
 8003d32:   f7fc ffdb   bl  8000cec <__aeabi_fmul>
 8003d36:   4601        mov r1, r0
 8003d38:   4630        mov r0, r6
 8003d3a:   f7fc fecf   bl  8000adc <__addsf3>
 8003d3e:   f7fc fb73   bl  8000428 <__aeabi_f2d>
 8003d42:   4606        mov r6, r0
 8003d44:   460f        mov r7, r1
 8003d46:   4648        mov r0, r9
 8003d48:   4651        mov r1, sl
 8003d4a:   f7fc ffcf   bl  8000cec <__aeabi_fmul>
 8003d4e:   4641        mov r1, r8
 8003d50:   4681        mov r9, r0
 8003d52:   4628        mov r0, r5
 8003d54:   f7fc ffca   bl  8000cec <__aeabi_fmul>
 8003d58:   4601        mov r1, r0
 8003d5a:   4648        mov r0, r9
 8003d5c:   f7fc febe   bl  8000adc <__addsf3>
 8003d60:   4601        mov r1, r0
 8003d62:   f7fc febb   bl  8000adc <__addsf3>
 8003d66:   f7fc fb5f   bl  8000428 <__aeabi_f2d>
 8003d6a:   4632        mov r2, r6
 8003d6c:   463b        mov r3, r7
 8003d6e:   f001 ff6b   bl  8005c48 <atan2>
 8003d72:   2200        movs    r2, #0
 8003d74:   4b30        ldr r3, [pc, #192]  ; (8003e38 <MadgwickQuaternionUpdate+0xb78>)
 8003d76:   f7fc fbab   bl  80004d0 <__aeabi_dmul>
 8003d7a:   a32d        add r3, pc, #180    ; (adr r3, 8003e30 <MadgwickQuaternionUpdate+0xb70>)
 8003d7c:   e9d3 2300   ldrd    r2, r3, [r3]
 8003d80:   f7fc fcd0   bl  8000724 <__aeabi_ddiv>
 8003d84:   f7fc fe54   bl  8000a30 <__aeabi_d2f>
 8003d88:   9b27        ldr r3, [sp, #156]  ; 0x9c
 8003d8a:   6058        str r0, [r3, #4]
 8003d8c:   6825        ldr r5, [r4, #0]
 8003d8e:   f8d4 8004   ldr.w   r8, [r4, #4]
 8003d92:   4629        mov r1, r5
 8003d94:   4628        mov r0, r5
 8003d96:   f7fc ffa9   bl  8000cec <__aeabi_fmul>
 8003d9a:   4641        mov r1, r8
 8003d9c:   4606        mov r6, r0
 8003d9e:   4640        mov r0, r8
 8003da0:   f7fc ffa4   bl  8000cec <__aeabi_fmul>
 8003da4:   4601        mov r1, r0
 8003da6:   4630        mov r0, r6
 8003da8:   f7fc fe98   bl  8000adc <__addsf3>
 8003dac:   f8d4 9008   ldr.w   r9, [r4, #8]
 8003db0:   4606        mov r6, r0
 8003db2:   4649        mov r1, r9
 8003db4:   4648        mov r0, r9
 8003db6:   f7fc ff99   bl  8000cec <__aeabi_fmul>
 8003dba:   4601        mov r1, r0
 8003dbc:   4630        mov r0, r6
 8003dbe:   f7fc fe8b   bl  8000ad8 <__aeabi_fsub>
 8003dc2:   68e4        ldr r4, [r4, #12]
 8003dc4:   4606        mov r6, r0
 8003dc6:   4621        mov r1, r4
 8003dc8:   4620        mov r0, r4
 8003dca:   f7fc ff8f   bl  8000cec <__aeabi_fmul>
 8003dce:   4601        mov r1, r0
 8003dd0:   4630        mov r0, r6
 8003dd2:   f7fc fe81   bl  8000ad8 <__aeabi_fsub>
 8003dd6:   f7fc fb27   bl  8000428 <__aeabi_f2d>
 8003dda:   4606        mov r6, r0
 8003ddc:   460f        mov r7, r1
 8003dde:   4640        mov r0, r8
 8003de0:   4649        mov r1, r9
 8003de2:   f7fc ff83   bl  8000cec <__aeabi_fmul>
 8003de6:   4621        mov r1, r4
 8003de8:   4680        mov r8, r0
 8003dea:   4628        mov r0, r5
 8003dec:   f7fc ff7e   bl  8000cec <__aeabi_fmul>
 8003df0:   4601        mov r1, r0
 8003df2:   4640        mov r0, r8
 8003df4:   f7fc fe72   bl  8000adc <__addsf3>
 8003df8:   4601        mov r1, r0
 8003dfa:   f7fc fe6f   bl  8000adc <__addsf3>
 8003dfe:   f7fc fb13   bl  8000428 <__aeabi_f2d>
 8003e02:   4632        mov r2, r6
 8003e04:   463b        mov r3, r7
 8003e06:   f001 ff1f   bl  8005c48 <atan2>
 8003e0a:   2200        movs    r2, #0
 8003e0c:   4b0a        ldr r3, [pc, #40]   ; (8003e38 <MadgwickQuaternionUpdate+0xb78>)
 8003e0e:   f7fc fb5f   bl  80004d0 <__aeabi_dmul>
 8003e12:   a307        add r3, pc, #28 ; (adr r3, 8003e30 <MadgwickQuaternionUpdate+0xb70>)
 8003e14:   e9d3 2300   ldrd    r2, r3, [r3]
 8003e18:   f7fc fc84   bl  8000724 <__aeabi_ddiv>
 8003e1c:   f7fc fe08   bl  8000a30 <__aeabi_d2f>
 8003e20:   9b27        ldr r3, [sp, #156]  ; 0x9c
 8003e22:   6098        str r0, [r3, #8]
 8003e24:   b019        add sp, #100    ; 0x64
 8003e26:   e8bd 8ff0   ldmia.w sp!, {r4, r5, r6, r7, r8, r9, sl, fp, pc}
 8003e2a:   bf00        nop
 8003e2c:   f3af 8000   nop.w
 8003e30:   54442d18    .word   0x54442d18
 8003e34:   400921fb    .word   0x400921fb
 8003e38:   40668000    .word   0x40668000

08003e3c <CB_Write>:
 8003e3c:   f8b0 3804   ldrh.w  r3, [r0, #2052] ; 0x804
 8003e40:   f8b0 3804   ldrh.w  r3, [r0, #2052] ; 0x804
 8003e44:   3301        adds    r3, #1
 8003e46:   b29b        uxth    r3, r3
 8003e48:   f8a0 3804   strh.w  r3, [r0, #2052] ; 0x804
 8003e4c:   f8b0 3802   ldrh.w  r3, [r0, #2050] ; 0x802
 8003e50:   b29b        uxth    r3, r3
 8003e52:   54c1        strb    r1, [r0, r3]
 8003e54:   f8b0 3802   ldrh.w  r3, [r0, #2050] ; 0x802
 8003e58:   3301        adds    r3, #1
 8003e5a:   f3c3 030a   ubfx    r3, r3, #0, #11
 8003e5e:   f8a0 3802   strh.w  r3, [r0, #2050] ; 0x802
 8003e62:   2001        movs    r0, #1
 8003e64:   4770        bx  lr

08003e66 <CB_Read>:
 8003e66:   f8b0 3804   ldrh.w  r3, [r0, #2052] ; 0x804
 8003e6a:   b29b        uxth    r3, r3
 8003e6c:   b1a3        cbz r3, 8003e98 <CB_Read+0x32>
 8003e6e:   f8b0 3804   ldrh.w  r3, [r0, #2052] ; 0x804
 8003e72:   3b01        subs    r3, #1
 8003e74:   b29b        uxth    r3, r3
 8003e76:   f8a0 3804   strh.w  r3, [r0, #2052] ; 0x804
 8003e7a:   f8b0 3800   ldrh.w  r3, [r0, #2048] ; 0x800
 8003e7e:   b29b        uxth    r3, r3
 8003e80:   5cc3        ldrb    r3, [r0, r3]
 8003e82:   b2db        uxtb    r3, r3
 8003e84:   700b        strb    r3, [r1, #0]
 8003e86:   f8b0 3800   ldrh.w  r3, [r0, #2048] ; 0x800
 8003e8a:   3301        adds    r3, #1
 8003e8c:   f3c3 030a   ubfx    r3, r3, #0, #11
 8003e90:   f8a0 3800   strh.w  r3, [r0, #2048] ; 0x800
 8003e94:   2001        movs    r0, #1
 8003e96:   4770        bx  lr
 8003e98:   4618        mov r0, r3
 8003e9a:   4770        bx  lr

08003e9c <CB_Size>:
 8003e9c:   f8b0 0804   ldrh.w  r0, [r0, #2052] ; 0x804
 8003ea0:   b280        uxth    r0, r0
 8003ea2:   4770        bx  lr

08003ea4 <CB_Init>:
 8003ea4:   2300        movs    r3, #0
 8003ea6:   461a        mov r2, r3
 8003ea8:   f8a0 3800   strh.w  r3, [r0, #2048] ; 0x800
 8003eac:   f8a0 3802   strh.w  r3, [r0, #2050] ; 0x802
 8003eb0:   f8a0 3804   strh.w  r3, [r0, #2052] ; 0x804
 8003eb4:   54c2        strb    r2, [r0, r3]
 8003eb6:   3301        adds    r3, #1
 8003eb8:   f5b3 6f00   cmp.w   r3, #2048   ; 0x800
 8003ebc:   d1fa        bne.n   8003eb4 <CB_Init+0x10>
 8003ebe:   4770        bx  lr

08003ec0 <lowPassFilter>:
 8003ec0:   b570        push    {r4, r5, r6, lr}
 8003ec2:   460e        mov r6, r1
 8003ec4:   6845        ldr r5, [r0, #4]
 8003ec6:   4604        mov r4, r0
 8003ec8:   4629        mov r1, r5
 8003eca:   f04f 507e   mov.w   r0, #1065353216 ; 0x3f800000
 8003ece:   f7fc fe03   bl  8000ad8 <__aeabi_fsub>
 8003ed2:   4631        mov r1, r6
 8003ed4:   f7fc ff0a   bl  8000cec <__aeabi_fmul>
 8003ed8:   4606        mov r6, r0
 8003eda:   6821        ldr r1, [r4, #0]
 8003edc:   4628        mov r0, r5
 8003ede:   f7fc ff05   bl  8000cec <__aeabi_fmul>
 8003ee2:   4631        mov r1, r6
 8003ee4:   f7fc fdfa   bl  8000adc <__addsf3>
 8003ee8:   6020        str r0, [r4, #0]
 8003eea:   bd70        pop {r4, r5, r6, pc}

08003eec <toggleLED>:
 8003eec:   b570        push    {r4, r5, r6, lr}
 8003eee:   4615        mov r5, r2
 8003ef0:   fab0 f280   clz r2, r0
 8003ef4:   460e        mov r6, r1
 8003ef6:   4c0c        ldr r4, [pc, #48]   ; (8003f28 <toggleLED+0x3c>)
 8003ef8:   0952        lsrs    r2, r2, #5
 8003efa:   4620        mov r0, r4
 8003efc:   f44f 4100   mov.w   r1, #32768  ; 0x8000
 8003f00:   f7fd fa9a   bl  8001438 <HAL_GPIO_WritePin>
 8003f04:   fab6 f286   clz r2, r6
 8003f08:   4620        mov r0, r4
 8003f0a:   0952        lsrs    r2, r2, #5
 8003f0c:   f44f 4180   mov.w   r1, #16384  ; 0x4000
 8003f10:   f7fd fa92   bl  8001438 <HAL_GPIO_WritePin>
 8003f14:   fab5 f285   clz r2, r5
 8003f18:   4620        mov r0, r4
 8003f1a:   e8bd 4070   ldmia.w sp!, {r4, r5, r6, lr}
 8003f1e:   0952        lsrs    r2, r2, #5
 8003f20:   f44f 5100   mov.w   r1, #8192   ; 0x2000
 8003f24:   f7fd ba88   b.w 8001438 <HAL_GPIO_WritePin>
 8003f28:   40011000    .word   0x40011000

08003f2c <LED_StartupSequence>:
 8003f2c:   b510        push    {r4, lr}
 8003f2e:   2403        movs    r4, #3
 8003f30:   2200        movs    r2, #0
 8003f32:   2001        movs    r0, #1
 8003f34:   4611        mov r1, r2
 8003f36:   f7ff ffd9   bl  8003eec <toggleLED>
 8003f3a:   2064        movs    r0, #100    ; 0x64
 8003f3c:   f001 f9b8   bl  80052b0 <delay_ms>
 8003f40:   2200        movs    r2, #0
 8003f42:   2101        movs    r1, #1
 8003f44:   4610        mov r0, r2
 8003f46:   f7ff ffd1   bl  8003eec <toggleLED>
 8003f4a:   2064        movs    r0, #100    ; 0x64
 8003f4c:   f001 f9b0   bl  80052b0 <delay_ms>
 8003f50:   2100        movs    r1, #0
 8003f52:   2201        movs    r2, #1
 8003f54:   4608        mov r0, r1
 8003f56:   f7ff ffc9   bl  8003eec <toggleLED>
 8003f5a:   2064        movs    r0, #100    ; 0x64
 8003f5c:   f001 f9a8   bl  80052b0 <delay_ms>
 8003f60:   3c01        subs    r4, #1
 8003f62:   d1e5        bne.n   8003f30 <LED_StartupSequence+0x4>
 8003f64:   e8bd 4010   ldmia.w sp!, {r4, lr}
 8003f68:   2201        movs    r2, #1
 8003f6a:   4611        mov r1, r2
 8003f6c:   4610        mov r0, r2
 8003f6e:   f7ff bfbd   b.w 8003eec <toggleLED>
    ...

08003f74 <Motor1_SetPWM>:
 8003f74:   4b01        ldr r3, [pc, #4]    ; (8003f7c <Motor1_SetPWM+0x8>)
 8003f76:   681b        ldr r3, [r3, #0]
 8003f78:   6418        str r0, [r3, #64]   ; 0x40
 8003f7a:   4770        bx  lr
 8003f7c:   200014c4    .word   0x200014c4

08003f80 <Motor2_SetPWM>:
 8003f80:   4b01        ldr r3, [pc, #4]    ; (8003f88 <Motor2_SetPWM+0x8>)
 8003f82:   681b        ldr r3, [r3, #0]
 8003f84:   63d8        str r0, [r3, #60]   ; 0x3c
 8003f86:   4770        bx  lr
 8003f88:   200014c4    .word   0x200014c4

08003f8c <Motor3_SetPWM>:
 8003f8c:   4b01        ldr r3, [pc, #4]    ; (8003f94 <Motor3_SetPWM+0x8>)
 8003f8e:   681b        ldr r3, [r3, #0]
 8003f90:   6398        str r0, [r3, #56]   ; 0x38
 8003f92:   4770        bx  lr
 8003f94:   200015f4    .word   0x200015f4

08003f98 <Motor4_SetPWM>:
 8003f98:   4b01        ldr r3, [pc, #4]    ; (8003fa0 <Motor4_SetPWM+0x8>)
 8003f9a:   681b        ldr r3, [r3, #0]
 8003f9c:   63d8        str r0, [r3, #60]   ; 0x3c
 8003f9e:   4770        bx  lr
 8003fa0:   2000153c    .word   0x2000153c

08003fa4 <PWM_Init>:
 8003fa4:   b510        push    {r4, lr}
 8003fa6:   2104        movs    r1, #4
 8003fa8:   4c08        ldr r4, [pc, #32]   ; (8003fcc <PWM_Init+0x28>)
 8003faa:   4809        ldr r0, [pc, #36]   ; (8003fd0 <PWM_Init+0x2c>)
 8003fac:   f7fe faa6   bl  80024fc <HAL_TIM_PWM_Start>
 8003fb0:   2108        movs    r1, #8
 8003fb2:   4808        ldr r0, [pc, #32]   ; (8003fd4 <PWM_Init+0x30>)
 8003fb4:   f7fe faa2   bl  80024fc <HAL_TIM_PWM_Start>
 8003fb8:   2108        movs    r1, #8
 8003fba:   4620        mov r0, r4
 8003fbc:   f7fe fa9e   bl  80024fc <HAL_TIM_PWM_Start>
 8003fc0:   4620        mov r0, r4
 8003fc2:   e8bd 4010   ldmia.w sp!, {r4, lr}
 8003fc6:   210c        movs    r1, #12
 8003fc8:   f7fe ba98   b.w 80024fc <HAL_TIM_PWM_Start>
 8003fcc:   200014c4    .word   0x200014c4
 8003fd0:   200015f4    .word   0x200015f4
 8003fd4:   2000153c    .word   0x2000153c

08003fd8 <Devices_Init>:
 8003fd8:   b508        push    {r3, lr}
 8003fda:   f000 fc67   bl  80048ac <Peripherals_Init>
 8003fde:   f7ff ffe1   bl  8003fa4 <PWM_Init>
 8003fe2:   e8bd 4008   ldmia.w sp!, {r3, lr}
 8003fe6:   f7ff bfa1   b.w 8003f2c <LED_StartupSequence>
    ...

08003fec <I2C_WriteByte>:
 8003fec:   b530        push    {r4, r5, lr}
 8003fee:   461d        mov r5, r3
 8003ff0:   23c8        movs    r3, #200    ; 0xc8
 8003ff2:   b087        sub sp, #28
 8003ff4:   ac06        add r4, sp, #24
 8003ff6:   f804 2d04   strb.w  r2, [r4, #-4]!
 8003ffa:   9302        str r3, [sp, #8]
 8003ffc:   2301        movs    r3, #1
 8003ffe:   460a        mov r2, r1
 8004000:   9301        str r3, [sp, #4]
 8004002:   4601        mov r1, r0
 8004004:   9400        str r4, [sp, #0]
 8004006:   4807        ldr r0, [pc, #28]   ; (8004024 <I2C_WriteByte+0x38>)
 8004008:   f7fd fc34   bl  8001874 <HAL_I2C_Mem_Write>
 800400c:   b118        cbz r0, 8004016 <I2C_WriteByte+0x2a>
 800400e:   211b        movs    r1, #27
 8004010:   4805        ldr r0, [pc, #20]   ; (8004028 <I2C_WriteByte+0x3c>)
 8004012:   f000 fbcd   bl  80047b0 <_Error_Handler>
 8004016:   b115        cbz r5, 800401e <I2C_WriteByte+0x32>
 8004018:   2032        movs    r0, #50 ; 0x32
 800401a:   f001 f949   bl  80052b0 <delay_ms>
 800401e:   b007        add sp, #28
 8004020:   bd30        pop {r4, r5, pc}
 8004022:   bf00        nop
 8004024:   20001500    .word   0x20001500
 8004028:   08007671    .word   0x08007671

0800402c <I2C_ReadByte>:
 800402c:   b530        push    {r4, r5, lr}
 800402e:   461d        mov r5, r3
 8004030:   2300        movs    r3, #0
 8004032:   b087        sub sp, #28
 8004034:   4614        mov r4, r2
 8004036:   aa06        add r2, sp, #24
 8004038:   f802 3d04   strb.w  r3, [r2, #-4]!
 800403c:   23c8        movs    r3, #200    ; 0xc8
 800403e:   9302        str r3, [sp, #8]
 8004040:   2301        movs    r3, #1
 8004042:   e88d 000c   stmia.w sp, {r2, r3}
 8004046:   460a        mov r2, r1
 8004048:   4601        mov r1, r0
 800404a:   4806        ldr r0, [pc, #24]   ; (8004064 <I2C_ReadByte+0x38>)
 800404c:   f7fd fc8a   bl  8001964 <HAL_I2C_Mem_Read>
 8004050:   b118        cbz r0, 800405a <I2C_ReadByte+0x2e>
 8004052:   4629        mov r1, r5
 8004054:   4620        mov r0, r4
 8004056:   f000 fbab   bl  80047b0 <_Error_Handler>
 800405a:   f89d 0014   ldrb.w  r0, [sp, #20]
 800405e:   b007        add sp, #28
 8004060:   bd30        pop {r4, r5, pc}
 8004062:   bf00        nop
 8004064:   20001500    .word   0x20001500

08004068 <I2C_ReadBytes>:
 8004068:   b57f        push    {r0, r1, r2, r3, r4, r5, r6, lr}
 800406a:   26c8        movs    r6, #200    ; 0xc8
 800406c:   e88d 004c   stmia.w sp, {r2, r3, r6}
 8004070:   460a        mov r2, r1
 8004072:   2301        movs    r3, #1
 8004074:   4601        mov r1, r0
 8004076:   4807        ldr r0, [pc, #28]   ; (8004094 <I2C_ReadBytes+0x2c>)
 8004078:   9c08        ldr r4, [sp, #32]
 800407a:   9d09        ldr r5, [sp, #36]   ; 0x24
 800407c:   f7fd fc72   bl  8001964 <HAL_I2C_Mem_Read>
 8004080:   b130        cbz r0, 8004090 <I2C_ReadBytes+0x28>
 8004082:   4629        mov r1, r5
 8004084:   4620        mov r0, r4
 8004086:   b004        add sp, #16
 8004088:   e8bd 4070   ldmia.w sp!, {r4, r5, r6, lr}
 800408c:   f000 bb90   b.w 80047b0 <_Error_Handler>
 8004090:   b004        add sp, #16
 8004092:   bd70        pop {r4, r5, r6, pc}
 8004094:   20001500    .word   0x20001500

08004098 <I2C_ReadByteArray>:
 8004098:   e92d 43f8   stmdb   sp!, {r3, r4, r5, r6, r7, r8, r9, lr}
 800409c:   4680        mov r8, r0
 800409e:   460f        mov r7, r1
 80040a0:   461e        mov r6, r3
 80040a2:   2400        movs    r4, #0
 80040a4:   f8df 9020   ldr.w   r9, [pc, #32]   ; 80040c8 <I2C_ReadByteArray+0x30>
 80040a8:   1e55        subs    r5, r2, #1
 80040aa:   1939        adds    r1, r7, r4
 80040ac:   42b4        cmp r4, r6
 80040ae:   b289        uxth    r1, r1
 80040b0:   db01        blt.n   80040b6 <I2C_ReadByteArray+0x1e>
 80040b2:   e8bd 83f8   ldmia.w sp!, {r3, r4, r5, r6, r7, r8, r9, pc}
 80040b6:   234c        movs    r3, #76 ; 0x4c
 80040b8:   464a        mov r2, r9
 80040ba:   4640        mov r0, r8
 80040bc:   f7ff ffb6   bl  800402c <I2C_ReadByte>
 80040c0:   3401        adds    r4, #1
 80040c2:   f805 0f01   strb.w  r0, [r5, #1]!
 80040c6:   e7f0        b.n 80040aa <I2C_ReadByteArray+0x12>
 80040c8:   08007671    .word   0x08007671

080040cc <MSP_SetPID_Callback>:
 80040cc:   b538        push    {r3, r4, r5, lr}
 80040ce:   4c3f        ldr r4, [pc, #252]  ; (80041cc <MSP_SetPID_Callback+0x100>)
 80040d0:   4d3f        ldr r5, [pc, #252]  ; (80041d0 <MSP_SetPID_Callback+0x104>)
 80040d2:   78e0        ldrb    r0, [r4, #3]
 80040d4:   f7fc f996   bl  8000404 <__aeabi_i2d>
 80040d8:   2200        movs    r2, #0
 80040da:   4b3e        ldr r3, [pc, #248]  ; (80041d4 <MSP_SetPID_Callback+0x108>)
 80040dc:   f7fc fb22   bl  8000724 <__aeabi_ddiv>
 80040e0:   f7fc fca6   bl  8000a30 <__aeabi_d2f>
 80040e4:   6068        str r0, [r5, #4]
 80040e6:   7920        ldrb    r0, [r4, #4]
 80040e8:   f7fc f98c   bl  8000404 <__aeabi_i2d>
 80040ec:   2200        movs    r2, #0
 80040ee:   4b3a        ldr r3, [pc, #232]  ; (80041d8 <MSP_SetPID_Callback+0x10c>)
 80040f0:   f7fc fb18   bl  8000724 <__aeabi_ddiv>
 80040f4:   f7fc fc9c   bl  8000a30 <__aeabi_d2f>
 80040f8:   60a8        str r0, [r5, #8]
 80040fa:   7960        ldrb    r0, [r4, #5]
 80040fc:   f7fc f982   bl  8000404 <__aeabi_i2d>
 8004100:   2200        movs    r2, #0
 8004102:   4b36        ldr r3, [pc, #216]  ; (80041dc <MSP_SetPID_Callback+0x110>)
 8004104:   f7fc f9e4   bl  80004d0 <__aeabi_dmul>
 8004108:   f7fc fc92   bl  8000a30 <__aeabi_d2f>
 800410c:   60e8        str r0, [r5, #12]
 800410e:   7820        ldrb    r0, [r4, #0]
 8004110:   f7fc f978   bl  8000404 <__aeabi_i2d>
 8004114:   2200        movs    r2, #0
 8004116:   4b2f        ldr r3, [pc, #188]  ; (80041d4 <MSP_SetPID_Callback+0x108>)
 8004118:   f7fc fb04   bl  8000724 <__aeabi_ddiv>
 800411c:   f7fc fc88   bl  8000a30 <__aeabi_d2f>
 8004120:   4d2f        ldr r5, [pc, #188]  ; (80041e0 <MSP_SetPID_Callback+0x114>)
 8004122:   6068        str r0, [r5, #4]
 8004124:   7860        ldrb    r0, [r4, #1]
 8004126:   f7fc f96d   bl  8000404 <__aeabi_i2d>
 800412a:   2200        movs    r2, #0
 800412c:   4b2a        ldr r3, [pc, #168]  ; (80041d8 <MSP_SetPID_Callback+0x10c>)
 800412e:   f7fc faf9   bl  8000724 <__aeabi_ddiv>
 8004132:   f7fc fc7d   bl  8000a30 <__aeabi_d2f>
 8004136:   60a8        str r0, [r5, #8]
 8004138:   78a0        ldrb    r0, [r4, #2]
 800413a:   f7fc f963   bl  8000404 <__aeabi_i2d>
 800413e:   2200        movs    r2, #0
 8004140:   4b26        ldr r3, [pc, #152]  ; (80041dc <MSP_SetPID_Callback+0x110>)
 8004142:   f7fc f9c5   bl  80004d0 <__aeabi_dmul>
 8004146:   f7fc fc73   bl  8000a30 <__aeabi_d2f>
 800414a:   60e8        str r0, [r5, #12]
 800414c:   79a0        ldrb    r0, [r4, #6]
 800414e:   f7fc f959   bl  8000404 <__aeabi_i2d>
 8004152:   2200        movs    r2, #0
 8004154:   4b1f        ldr r3, [pc, #124]  ; (80041d4 <MSP_SetPID_Callback+0x108>)
 8004156:   f7fc fae5   bl  8000724 <__aeabi_ddiv>
 800415a:   f7fc fc69   bl  8000a30 <__aeabi_d2f>
 800415e:   4d21        ldr r5, [pc, #132]  ; (80041e4 <MSP_SetPID_Callback+0x118>)
 8004160:   6068        str r0, [r5, #4]
 8004162:   79e0        ldrb    r0, [r4, #7]
 8004164:   f7fc f94e   bl  8000404 <__aeabi_i2d>
 8004168:   2200        movs    r2, #0
 800416a:   4b1b        ldr r3, [pc, #108]  ; (80041d8 <MSP_SetPID_Callback+0x10c>)
 800416c:   f7fc fada   bl  8000724 <__aeabi_ddiv>
 8004170:   f7fc fc5e   bl  8000a30 <__aeabi_d2f>
 8004174:   60a8        str r0, [r5, #8]
 8004176:   7a20        ldrb    r0, [r4, #8]
 8004178:   f7fc f944   bl  8000404 <__aeabi_i2d>
 800417c:   2200        movs    r2, #0
 800417e:   4b17        ldr r3, [pc, #92]   ; (80041dc <MSP_SetPID_Callback+0x110>)
 8004180:   f7fc f9a6   bl  80004d0 <__aeabi_dmul>
 8004184:   f7fc fc54   bl  8000a30 <__aeabi_d2f>
 8004188:   60e8        str r0, [r5, #12]
 800418a:   7a60        ldrb    r0, [r4, #9]
 800418c:   f7fc f93a   bl  8000404 <__aeabi_i2d>
 8004190:   2200        movs    r2, #0
 8004192:   4b10        ldr r3, [pc, #64]   ; (80041d4 <MSP_SetPID_Callback+0x108>)
 8004194:   f7fc fac6   bl  8000724 <__aeabi_ddiv>
 8004198:   f7fc fc4a   bl  8000a30 <__aeabi_d2f>
 800419c:   4d12        ldr r5, [pc, #72]   ; (80041e8 <MSP_SetPID_Callback+0x11c>)
 800419e:   6068        str r0, [r5, #4]
 80041a0:   7aa0        ldrb    r0, [r4, #10]
 80041a2:   f7fc f92f   bl  8000404 <__aeabi_i2d>
 80041a6:   2200        movs    r2, #0
 80041a8:   4b0b        ldr r3, [pc, #44]   ; (80041d8 <MSP_SetPID_Callback+0x10c>)
 80041aa:   f7fc fabb   bl  8000724 <__aeabi_ddiv>
 80041ae:   f7fc fc3f   bl  8000a30 <__aeabi_d2f>
 80041b2:   60a8        str r0, [r5, #8]
 80041b4:   7ae0        ldrb    r0, [r4, #11]
 80041b6:   f7fc f925   bl  8000404 <__aeabi_i2d>
 80041ba:   2200        movs    r2, #0
 80041bc:   4b07        ldr r3, [pc, #28]   ; (80041dc <MSP_SetPID_Callback+0x110>)
 80041be:   f7fc f987   bl  80004d0 <__aeabi_dmul>
 80041c2:   f7fc fc35   bl  8000a30 <__aeabi_d2f>
 80041c6:   60e8        str r0, [r5, #12]
 80041c8:   bd38        pop {r3, r4, r5, pc}
 80041ca:   bf00        nop
 80041cc:   20001373    .word   0x20001373
 80041d0:   200000a8    .word   0x200000a8
 80041d4:   40240000    .word   0x40240000
 80041d8:   40690000    .word   0x40690000
 80041dc:   40100000    .word   0x40100000
 80041e0:   20000104    .word   0x20000104
 80041e4:   20000160    .word   0x20000160
 80041e8:   2000004c    .word   0x2000004c

080041ec <MSP_SetRawRC_Callback>:
 80041ec:   e92d 41f0   stmdb   sp!, {r4, r5, r6, r7, r8, lr}
 80041f0:   4c33        ldr r4, [pc, #204]  ; (80042c0 <MSP_SetRawRC_Callback+0xd4>)
 80041f2:   4d34        ldr r5, [pc, #208]  ; (80042c4 <MSP_SetRawRC_Callback+0xd8>)
 80041f4:   8923        ldrh    r3, [r4, #8]
 80041f6:   f5b3 6fc8   cmp.w   r3, #1600   ; 0x640
 80041fa:   bf8c        ite hi
 80041fc:   2301        movhi   r3, #1
 80041fe:   2300        movls   r3, #0
 8004200:   702b        strb    r3, [r5, #0]
 8004202:   8963        ldrh    r3, [r4, #10]
 8004204:   f5b3 6fc8   cmp.w   r3, #1600   ; 0x640
 8004208:   bf8c        ite hi
 800420a:   2301        movhi   r3, #1
 800420c:   2300        movls   r3, #0
 800420e:   706b        strb    r3, [r5, #1]
 8004210:   f9b4 0002   ldrsh.w r0, [r4, #2]
 8004214:   f7fc fd16   bl  8000c44 <__aeabi_i2f>
 8004218:   492b        ldr r1, [pc, #172]  ; (80042c8 <MSP_SetRawRC_Callback+0xdc>)
 800421a:   f7fc fc5d   bl  8000ad8 <__aeabi_fsub>
 800421e:   492b        ldr r1, [pc, #172]  ; (80042cc <MSP_SetRawRC_Callback+0xe0>)
 8004220:   4606        mov r6, r0
 8004222:   f7fc ff01   bl  8001028 <__aeabi_fcmplt>
 8004226:   2800        cmp r0, #0
 8004228:   d142        bne.n   80042b0 <MSP_SetRawRC_Callback+0xc4>
 800422a:   4927        ldr r1, [pc, #156]  ; (80042c8 <MSP_SetRawRC_Callback+0xdc>)
 800422c:   4630        mov r0, r6
 800422e:   f7fc ff19   bl  8001064 <__aeabi_fcmpgt>
 8004232:   2800        cmp r0, #0
 8004234:   d13e        bne.n   80042b4 <MSP_SetRawRC_Callback+0xc8>
 8004236:   f8df 80a4   ldr.w   r8, [pc, #164]  ; 80042dc <MSP_SetRawRC_Callback+0xf0>
 800423a:   f9b4 0000   ldrsh.w r0, [r4]
 800423e:   f8c8 601c   str.w   r6, [r8, #28]
 8004242:   f7fc fcff   bl  8000c44 <__aeabi_i2f>
 8004246:   4920        ldr r1, [pc, #128]  ; (80042c8 <MSP_SetRawRC_Callback+0xdc>)
 8004248:   f7fc fc46   bl  8000ad8 <__aeabi_fsub>
 800424c:   491f        ldr r1, [pc, #124]  ; (80042cc <MSP_SetRawRC_Callback+0xe0>)
 800424e:   4607        mov r7, r0
 8004250:   f7fc feea   bl  8001028 <__aeabi_fcmplt>
 8004254:   bb80        cbnz    r0, 80042b8 <MSP_SetRawRC_Callback+0xcc>
 8004256:   491c        ldr r1, [pc, #112]  ; (80042c8 <MSP_SetRawRC_Callback+0xdc>)
 8004258:   4638        mov r0, r7
 800425a:   f7fc ff03   bl  8001064 <__aeabi_fcmpgt>
 800425e:   bb68        cbnz    r0, 80042bc <MSP_SetRawRC_Callback+0xd0>
 8004260:   4e1b        ldr r6, [pc, #108]  ; (80042d0 <MSP_SetRawRC_Callback+0xe4>)
 8004262:   61f7        str r7, [r6, #28]
 8004264:   f9b4 0004   ldrsh.w r0, [r4, #4]
 8004268:   f7fc fcec   bl  8000c44 <__aeabi_i2f>
 800426c:   4919        ldr r1, [pc, #100]  ; (80042d4 <MSP_SetRawRC_Callback+0xe8>)
 800426e:   f7fc fc33   bl  8000ad8 <__aeabi_fsub>
 8004272:   4b19        ldr r3, [pc, #100]  ; (80042d8 <MSP_SetRawRC_Callback+0xec>)
 8004274:   61d8        str r0, [r3, #28]
 8004276:   786b        ldrb    r3, [r5, #1]
 8004278:   b91b        cbnz    r3, 8004282 <MSP_SetRawRC_Callback+0x96>
 800427a:   88e0        ldrh    r0, [r4, #6]
 800427c:   f7fc fcde   bl  8000c3c <__aeabi_ui2f>
 8004280:   6068        str r0, [r5, #4]
 8004282:   89a0        ldrh    r0, [r4, #12]
 8004284:   f7fc fcda   bl  8000c3c <__aeabi_ui2f>
 8004288:   490f        ldr r1, [pc, #60]   ; (80042c8 <MSP_SetRawRC_Callback+0xdc>)
 800428a:   f7fc fde3   bl  8000e54 <__aeabi_fdiv>
 800428e:   490e        ldr r1, [pc, #56]   ; (80042c8 <MSP_SetRawRC_Callback+0xdc>)
 8004290:   f7fc fc22   bl  8000ad8 <__aeabi_fsub>
 8004294:   f8c8 0024   str.w   r0, [r8, #36]   ; 0x24
 8004298:   89e0        ldrh    r0, [r4, #14]
 800429a:   f7fc fccf   bl  8000c3c <__aeabi_ui2f>
 800429e:   490a        ldr r1, [pc, #40]   ; (80042c8 <MSP_SetRawRC_Callback+0xdc>)
 80042a0:   f7fc fdd8   bl  8000e54 <__aeabi_fdiv>
 80042a4:   4908        ldr r1, [pc, #32]   ; (80042c8 <MSP_SetRawRC_Callback+0xdc>)
 80042a6:   f7fc fc17   bl  8000ad8 <__aeabi_fsub>
 80042aa:   6270        str r0, [r6, #36]   ; 0x24
 80042ac:   e8bd 81f0   ldmia.w sp!, {r4, r5, r6, r7, r8, pc}
 80042b0:   4e06        ldr r6, [pc, #24]   ; (80042cc <MSP_SetRawRC_Callback+0xe0>)
 80042b2:   e7c0        b.n 8004236 <MSP_SetRawRC_Callback+0x4a>
 80042b4:   4e04        ldr r6, [pc, #16]   ; (80042c8 <MSP_SetRawRC_Callback+0xdc>)
 80042b6:   e7be        b.n 8004236 <MSP_SetRawRC_Callback+0x4a>
 80042b8:   4f04        ldr r7, [pc, #16]   ; (80042cc <MSP_SetRawRC_Callback+0xe0>)
 80042ba:   e7d1        b.n 8004260 <MSP_SetRawRC_Callback+0x74>
 80042bc:   4f02        ldr r7, [pc, #8]    ; (80042c8 <MSP_SetRawRC_Callback+0xdc>)
 80042be:   e7cf        b.n 8004260 <MSP_SetRawRC_Callback+0x74>
 80042c0:   200013c9    .word   0x200013c9
 80042c4:   20000280    .word   0x20000280
 80042c8:   41200000    .word   0x41200000
 80042cc:   c1200000    .word   0xc1200000
 80042d0:   20000104    .word   0x20000104
 80042d4:   43340000    .word   0x43340000
 80042d8:   20000160    .word   0x20000160
 80042dc:   200000a8    .word   0x200000a8

080042e0 <taskScheduler>:
 80042e0:   b510        push    {r4, lr}
 80042e2:   f000 ffe1   bl  80052a8 <millis>
 80042e6:   4c13        ldr r4, [pc, #76]   ; (8004334 <taskScheduler+0x54>)
 80042e8:   6823        ldr r3, [r4, #0]
 80042ea:   1ac0        subs    r0, r0, r3
 80042ec:   2801        cmp r0, #1
 80042ee:   d904        bls.n   80042fa <taskScheduler+0x1a>
 80042f0:   f000 ffda   bl  80052a8 <millis>
 80042f4:   6020        str r0, [r4, #0]
 80042f6:   f7fe fddf   bl  8002eb8 <AHRS_ComputeAngles>
 80042fa:   f000 ffd5   bl  80052a8 <millis>
 80042fe:   4c0e        ldr r4, [pc, #56]   ; (8004338 <taskScheduler+0x58>)
 8004300:   6823        ldr r3, [r4, #0]
 8004302:   1ac0        subs    r0, r0, r3
 8004304:   2802        cmp r0, #2
 8004306:   d904        bls.n   8004312 <taskScheduler+0x32>
 8004308:   f000 ffce   bl  80052a8 <millis>
 800430c:   6020        str r0, [r4, #0]
 800430e:   f000 fd49   bl  8004da4 <PID_Update>
 8004312:   f000 ffc9   bl  80052a8 <millis>
 8004316:   4c09        ldr r4, [pc, #36]   ; (800433c <taskScheduler+0x5c>)
 8004318:   6823        ldr r3, [r4, #0]
 800431a:   1ac0        subs    r0, r0, r3
 800431c:   2864        cmp r0, #100    ; 0x64
 800431e:   d902        bls.n   8004326 <taskScheduler+0x46>
 8004320:   f000 ffc2   bl  80052a8 <millis>
 8004324:   6020        str r0, [r4, #0]
 8004326:   f7fe fe6f   bl  8003008 <MS5611_Update>
 800432a:   e8bd 4010   ldmia.w sp!, {r4, lr}
 800432e:   f000 b9d7   b.w 80046e0 <MSP_Update>
 8004332:   bf00        nop
 8004334:   20000288    .word   0x20000288
 8004338:   20000290    .word   0x20000290
 800433c:   2000028c    .word   0x2000028c

08004340 <setup>:
 8004340:   b508        push    {r3, lr}
 8004342:   f7ff fe49   bl  8003fd8 <Devices_Init>
 8004346:   f000 fe39   bl  8004fbc <serialBegin>
 800434a:   f7fe fd71   bl  8002e30 <IMU_Init>
 800434e:   f7fe ff6b   bl  8003228 <MS5611_Init>
 8004352:   e8bd 4008   ldmia.w sp!, {r3, lr}
 8004356:   f000 bc9f   b.w 8004c98 <PID_Init>

0800435a <main>:
 800435a:   b508        push    {r3, lr}
 800435c:   f7ff fff0   bl  8004340 <setup>
 8004360:   f7ff ffbe   bl  80042e0 <taskScheduler>
 8004364:   e7fc        b.n 8004360 <main+0x6>

08004366 <Motor_StopAll>:
 8004366:   b508        push    {r3, lr}
 8004368:   2000        movs    r0, #0
 800436a:   f7ff fe03   bl  8003f74 <Motor1_SetPWM>
 800436e:   2000        movs    r0, #0
 8004370:   f7ff fe06   bl  8003f80 <Motor2_SetPWM>
 8004374:   2000        movs    r0, #0
 8004376:   f7ff fe09   bl  8003f8c <Motor3_SetPWM>
 800437a:   e8bd 4008   ldmia.w sp!, {r3, lr}
 800437e:   2000        movs    r0, #0
 8004380:   f7ff be0a   b.w 8003f98 <Motor4_SetPWM>

08004384 <Motor_SetSpeed>:
 8004384:   f5b0 7f7a   cmp.w   r0, #1000   ; 0x3e8
 8004388:   bfa8        it  ge
 800438a:   f44f 707a   movge.w r0, #1000   ; 0x3e8
 800438e:   f5b1 7f7a   cmp.w   r1, #1000   ; 0x3e8
 8004392:   bfa8        it  ge
 8004394:   f44f 717a   movge.w r1, #1000   ; 0x3e8
 8004398:   f5b2 7f7a   cmp.w   r2, #1000   ; 0x3e8
 800439c:   bfa8        it  ge
 800439e:   f44f 727a   movge.w r2, #1000   ; 0x3e8
 80043a2:   f5b3 7f7a   cmp.w   r3, #1000   ; 0x3e8
 80043a6:   bfa8        it  ge
 80043a8:   f44f 737a   movge.w r3, #1000   ; 0x3e8
 80043ac:   b510        push    {r4, lr}
 80043ae:   4c15        ldr r4, [pc, #84]   ; (8004404 <Motor_SetSpeed+0x80>)
 80043b0:   ea22 72e2   bic.w   r2, r2, r2, asr #31
 80043b4:   ea23 73e3   bic.w   r3, r3, r3, asr #31
 80043b8:   ea21 71e1   bic.w   r1, r1, r1, asr #31
 80043bc:   ea20 70e0   bic.w   r0, r0, r0, asr #31
 80043c0:   60a2        str r2, [r4, #8]
 80043c2:   60e3        str r3, [r4, #12]
 80043c4:   6061        str r1, [r4, #4]
 80043c6:   6020        str r0, [r4, #0]
 80043c8:   f7ff fdd4   bl  8003f74 <Motor1_SetPWM>
 80043cc:   6860        ldr r0, [r4, #4]
 80043ce:   f7ff fdd7   bl  8003f80 <Motor2_SetPWM>
 80043d2:   68a0        ldr r0, [r4, #8]
 80043d4:   f7ff fdda   bl  8003f8c <Motor3_SetPWM>
 80043d8:   68e0        ldr r0, [r4, #12]
 80043da:   f7ff fddd   bl  8003f98 <Motor4_SetPWM>
 80043de:   6822        ldr r2, [r4, #0]
 80043e0:   4b09        ldr r3, [pc, #36]   ; (8004408 <Motor_SetSpeed+0x84>)
 80043e2:   f502 727a   add.w   r2, r2, #1000   ; 0x3e8
 80043e6:   801a        strh    r2, [r3, #0]
 80043e8:   6862        ldr r2, [r4, #4]
 80043ea:   f502 727a   add.w   r2, r2, #1000   ; 0x3e8
 80043ee:   805a        strh    r2, [r3, #2]
 80043f0:   68a2        ldr r2, [r4, #8]
 80043f2:   f502 727a   add.w   r2, r2, #1000   ; 0x3e8
 80043f6:   809a        strh    r2, [r3, #4]
 80043f8:   68e2        ldr r2, [r4, #12]
 80043fa:   f502 727a   add.w   r2, r2, #1000   ; 0x3e8
 80043fe:   80da        strh    r2, [r3, #6]
 8004400:   bd10        pop {r4, pc}
 8004402:   bf00        nop
 8004404:   20000294    .word   0x20000294
 8004408:   200013d9    .word   0x200013d9

0800440c <Motor_DistributeSpeed>:
 800440c:   e92d 47f0   stmdb   sp!, {r4, r5, r6, r7, r8, r9, sl, lr}
 8004410:   4615        mov r5, r2
 8004412:   461c        mov r4, r3
 8004414:   4606        mov r6, r0
 8004416:   4688        mov r8, r1
 8004418:   f7fc fb5e   bl  8000ad8 <__aeabi_fsub>
 800441c:   4641        mov r1, r8
 800441e:   4607        mov r7, r0
 8004420:   4630        mov r0, r6
 8004422:   f7fc fb5b   bl  8000adc <__addsf3>
 8004426:   4629        mov r1, r5
 8004428:   4606        mov r6, r0
 800442a:   4638        mov r0, r7
 800442c:   f7fc fb54   bl  8000ad8 <__aeabi_fsub>
 8004430:   4621        mov r1, r4
 8004432:   f7fc fb53   bl  8000adc <__addsf3>
 8004436:   4919        ldr r1, [pc, #100]  ; (800449c <Motor_DistributeSpeed+0x90>)
 8004438:   f7fc fb4e   bl  8000ad8 <__aeabi_fsub>
 800443c:   f7fc fe1c   bl  8001078 <__aeabi_f2iz>
 8004440:   4629        mov r1, r5
 8004442:   4681        mov r9, r0
 8004444:   4630        mov r0, r6
 8004446:   f7fc fb47   bl  8000ad8 <__aeabi_fsub>
 800444a:   4621        mov r1, r4
 800444c:   f7fc fb44   bl  8000ad8 <__aeabi_fsub>
 8004450:   4912        ldr r1, [pc, #72]   ; (800449c <Motor_DistributeSpeed+0x90>)
 8004452:   f7fc fb41   bl  8000ad8 <__aeabi_fsub>
 8004456:   f7fc fe0f   bl  8001078 <__aeabi_f2iz>
 800445a:   4629        mov r1, r5
 800445c:   4680        mov r8, r0
 800445e:   4638        mov r0, r7
 8004460:   f7fc fb3c   bl  8000adc <__addsf3>
 8004464:   4621        mov r1, r4
 8004466:   f7fc fb37   bl  8000ad8 <__aeabi_fsub>
 800446a:   490c        ldr r1, [pc, #48]   ; (800449c <Motor_DistributeSpeed+0x90>)
 800446c:   f7fc fb34   bl  8000ad8 <__aeabi_fsub>
 8004470:   f7fc fe02   bl  8001078 <__aeabi_f2iz>
 8004474:   4607        mov r7, r0
 8004476:   4631        mov r1, r6
 8004478:   4628        mov r0, r5
 800447a:   f7fc fb2f   bl  8000adc <__addsf3>
 800447e:   4621        mov r1, r4
 8004480:   f7fc fb2c   bl  8000adc <__addsf3>
 8004484:   4905        ldr r1, [pc, #20]   ; (800449c <Motor_DistributeSpeed+0x90>)
 8004486:   f7fc fb27   bl  8000ad8 <__aeabi_fsub>
 800448a:   f7fc fdf5   bl  8001078 <__aeabi_f2iz>
 800448e:   464b        mov r3, r9
 8004490:   4642        mov r2, r8
 8004492:   4639        mov r1, r7
 8004494:   e8bd 47f0   ldmia.w sp!, {r4, r5, r6, r7, r8, r9, sl, lr}
 8004498:   f7ff bf74   b.w 8004384 <Motor_SetSpeed>
 800449c:   447a0000    .word   0x447a0000

080044a0 <MSP_SendFrame>:
 80044a0:   e92d 41f0   stmdb   sp!, {r4, r5, r6, r7, r8, lr}
 80044a4:   4616        mov r6, r2
 80044a6:   4605        mov r5, r0
 80044a8:   460f        mov r7, r1
 80044aa:   480e        ldr r0, [pc, #56]   ; (80044e4 <MSP_SendFrame+0x44>)
 80044ac:   b2f4        uxtb    r4, r6
 80044ae:   f000 fd93   bl  8004fd8 <serialPrint>
 80044b2:   4620        mov r0, r4
 80044b4:   f000 fd48   bl  8004f48 <serialWrite>
 80044b8:   4628        mov r0, r5
 80044ba:   406c        eors    r4, r5
 80044bc:   f000 fd44   bl  8004f48 <serialWrite>
 80044c0:   463d        mov r5, r7
 80044c2:   1beb        subs    r3, r5, r7
 80044c4:   429e        cmp r6, r3
 80044c6:   dc04        bgt.n   80044d2 <MSP_SendFrame+0x32>
 80044c8:   4620        mov r0, r4
 80044ca:   e8bd 41f0   ldmia.w sp!, {r4, r5, r6, r7, r8, lr}
 80044ce:   f000 bd3b   b.w 8004f48 <serialWrite>
 80044d2:   46a8        mov r8, r5
 80044d4:   f815 0b01   ldrb.w  r0, [r5], #1
 80044d8:   f000 fd36   bl  8004f48 <serialWrite>
 80044dc:   f898 3000   ldrb.w  r3, [r8]
 80044e0:   405c        eors    r4, r3
 80044e2:   e7ee        b.n 80044c2 <MSP_SendFrame+0x22>
 80044e4:   0800767e    .word   0x0800767e

080044e8 <MSP_SendIdent>:
 80044e8:   b507        push    {r0, r1, r2, lr}
 80044ea:   22e9        movs    r2, #233    ; 0xe9
 80044ec:   4b0c        ldr r3, [pc, #48]   ; (8004520 <MSP_SendIdent+0x38>)
 80044ee:   2104        movs    r1, #4
 80044f0:   701a        strb    r2, [r3, #0]
 80044f2:   2203        movs    r2, #3
 80044f4:   705a        strb    r2, [r3, #1]
 80044f6:   2200        movs    r2, #0
 80044f8:   70d9        strb    r1, [r3, #3]
 80044fa:   709a        strb    r2, [r3, #2]
 80044fc:   6818        ldr r0, [r3, #0]
 80044fe:   711a        strb    r2, [r3, #4]
 8004500:   715a        strb    r2, [r3, #5]
 8004502:   719a        strb    r2, [r3, #6]
 8004504:   889b        ldrh    r3, [r3, #4]
 8004506:   9000        str r0, [sp, #0]
 8004508:   f88d 2006   strb.w  r2, [sp, #6]
 800450c:   4669        mov r1, sp
 800450e:   2207        movs    r2, #7
 8004510:   2064        movs    r0, #100    ; 0x64
 8004512:   f8ad 3004   strh.w  r3, [sp, #4]
 8004516:   f7ff ffc3   bl  80044a0 <MSP_SendFrame>
 800451a:   b003        add sp, #12
 800451c:   f85d fb04   ldr.w   pc, [sp], #4
 8004520:   2000141f    .word   0x2000141f

08004524 <MSP_SendStatus>:
 8004524:   b51f        push    {r0, r1, r2, r3, r4, lr}
 8004526:   2207        movs    r2, #7
 8004528:   4b0b        ldr r3, [pc, #44]   ; (8004558 <MSP_SendStatus+0x34>)
 800452a:   2400        movs    r4, #0
 800452c:   711a        strb    r2, [r3, #4]
 800452e:   222a        movs    r2, #42 ; 0x2a
 8004530:   715c        strb    r4, [r3, #5]
 8004532:   719a        strb    r2, [r3, #6]
 8004534:   71dc        strb    r4, [r3, #7]
 8004536:   6818        ldr r0, [r3, #0]
 8004538:   6859        ldr r1, [r3, #4]
 800453a:   aa01        add r2, sp, #4
 800453c:   c203        stmia   r2!, {r0, r1}
 800453e:   721c        strb    r4, [r3, #8]
 8004540:   725c        strb    r4, [r3, #9]
 8004542:   729c        strb    r4, [r3, #10]
 8004544:   891b        ldrh    r3, [r3, #8]
 8004546:   7094        strb    r4, [r2, #2]
 8004548:   8013        strh    r3, [r2, #0]
 800454a:   a901        add r1, sp, #4
 800454c:   220b        movs    r2, #11
 800454e:   2065        movs    r0, #101    ; 0x65
 8004550:   f7ff ffa6   bl  80044a0 <MSP_SendFrame>
 8004554:   b004        add sp, #16
 8004556:   bd10        pop {r4, pc}
 8004558:   200013b5    .word   0x200013b5

0800455c <MSP_SendRawIMU>:
 800455c:   b570        push    {r4, r5, r6, lr}
 800455e:   b086        sub sp, #24
 8004560:   aa01        add r2, sp, #4
 8004562:   4615        mov r5, r2
 8004564:   4b09        ldr r3, [pc, #36]   ; (800458c <MSP_SendRawIMU+0x30>)
 8004566:   f103 0610   add.w   r6, r3, #16
 800456a:   4614        mov r4, r2
 800456c:   6818        ldr r0, [r3, #0]
 800456e:   6859        ldr r1, [r3, #4]
 8004570:   3308        adds    r3, #8
 8004572:   c403        stmia   r4!, {r0, r1}
 8004574:   42b3        cmp r3, r6
 8004576:   4622        mov r2, r4
 8004578:   d1f7        bne.n   800456a <MSP_SendRawIMU+0xe>
 800457a:   881b        ldrh    r3, [r3, #0]
 800457c:   2212        movs    r2, #18
 800457e:   8023        strh    r3, [r4, #0]
 8004580:   4629        mov r1, r5
 8004582:   2066        movs    r0, #102    ; 0x66
 8004584:   f7ff ff8c   bl  80044a0 <MSP_SendFrame>
 8004588:   b006        add sp, #24
 800458a:   bd70        pop {r4, r5, r6, pc}
 800458c:   20001426    .word   0x20001426

08004590 <MSP_SendMotor>:
 8004590:   b507        push    {r0, r1, r2, lr}
 8004592:   466b        mov r3, sp
 8004594:   4a05        ldr r2, [pc, #20]   ; (80045ac <MSP_SendMotor+0x1c>)
 8004596:   6810        ldr r0, [r2, #0]
 8004598:   6851        ldr r1, [r2, #4]
 800459a:   2208        movs    r2, #8
 800459c:   c303        stmia   r3!, {r0, r1}
 800459e:   4669        mov r1, sp
 80045a0:   2068        movs    r0, #104    ; 0x68
 80045a2:   f7ff ff7d   bl  80044a0 <MSP_SendFrame>
 80045a6:   b003        add sp, #12
 80045a8:   f85d fb04   ldr.w   pc, [sp], #4
 80045ac:   200013d9    .word   0x200013d9

080045b0 <MSP_SendRC>:
 80045b0:   b57f        push    {r0, r1, r2, r3, r4, r5, r6, lr}
 80045b2:   466a        mov r2, sp
 80045b4:   466d        mov r5, sp
 80045b6:   4b09        ldr r3, [pc, #36]   ; (80045dc <MSP_SendRC+0x2c>)
 80045b8:   f103 0610   add.w   r6, r3, #16
 80045bc:   4614        mov r4, r2
 80045be:   6818        ldr r0, [r3, #0]
 80045c0:   6859        ldr r1, [r3, #4]
 80045c2:   3308        adds    r3, #8
 80045c4:   c403        stmia   r4!, {r0, r1}
 80045c6:   42b3        cmp r3, r6
 80045c8:   4622        mov r2, r4
 80045ca:   d1f7        bne.n   80045bc <MSP_SendRC+0xc>
 80045cc:   2210        movs    r2, #16
 80045ce:   4629        mov r1, r5
 80045d0:   2069        movs    r0, #105    ; 0x69
 80045d2:   f7ff ff65   bl  80044a0 <MSP_SendFrame>
 80045d6:   b004        add sp, #16
 80045d8:   bd70        pop {r4, r5, r6, pc}
 80045da:   bf00        nop
 80045dc:   200014b4    .word   0x200014b4

080045e0 <MSP_SendAttitude>:
 80045e0:   b507        push    {r0, r1, r2, lr}
 80045e2:   4b07        ldr r3, [pc, #28]   ; (8004600 <MSP_SendAttitude+0x20>)
 80045e4:   2206        movs    r2, #6
 80045e6:   6818        ldr r0, [r3, #0]
 80045e8:   889b        ldrh    r3, [r3, #4]
 80045ea:   9000        str r0, [sp, #0]
 80045ec:   4669        mov r1, sp
 80045ee:   206c        movs    r0, #108    ; 0x6c
 80045f0:   f8ad 3004   strh.w  r3, [sp, #4]
 80045f4:   f7ff ff54   bl  80044a0 <MSP_SendFrame>
 80045f8:   b003        add sp, #12
 80045fa:   f85d fb04   ldr.w   pc, [sp], #4
 80045fe:   bf00        nop
 8004600:   20001391    .word   0x20001391

08004604 <MSP_SendAltitude>:
 8004604:   b507        push    {r0, r1, r2, lr}
 8004606:   4b07        ldr r3, [pc, #28]   ; (8004624 <MSP_SendAltitude+0x20>)
 8004608:   2206        movs    r2, #6
 800460a:   6818        ldr r0, [r3, #0]
 800460c:   889b        ldrh    r3, [r3, #4]
 800460e:   9000        str r0, [sp, #0]
 8004610:   4669        mov r1, sp
 8004612:   206d        movs    r0, #109    ; 0x6d
 8004614:   f8ad 3004   strh.w  r3, [sp, #4]
 8004618:   f7ff ff42   bl  80044a0 <MSP_SendFrame>
 800461c:   b003        add sp, #12
 800461e:   f85d fb04   ldr.w   pc, [sp], #4
 8004622:   bf00        nop
 8004624:   200014a7    .word   0x200014a7

08004628 <MSP_ParseFrame.isra.0>:
 8004628:   2869        cmp r0, #105    ; 0x69
 800462a:   b508        push    {r3, lr}
 800462c:   d02a        beq.n   8004684 <MSP_ParseFrame.isra.0+0x5c>
 800462e:   d80a        bhi.n   8004646 <MSP_ParseFrame.isra.0+0x1e>
 8004630:   2865        cmp r0, #101    ; 0x65
 8004632:   d018        beq.n   8004666 <MSP_ParseFrame.isra.0+0x3e>
 8004634:   d802        bhi.n   800463c <MSP_ParseFrame.isra.0+0x14>
 8004636:   2864        cmp r0, #100    ; 0x64
 8004638:   d010        beq.n   800465c <MSP_ParseFrame.isra.0+0x34>
 800463a:   bd08        pop {r3, pc}
 800463c:   2866        cmp r0, #102    ; 0x66
 800463e:   d017        beq.n   8004670 <MSP_ParseFrame.isra.0+0x48>
 8004640:   2868        cmp r0, #104    ; 0x68
 8004642:   d01a        beq.n   800467a <MSP_ParseFrame.isra.0+0x52>
 8004644:   bd08        pop {r3, pc}
 8004646:   286d        cmp r0, #109    ; 0x6d
 8004648:   d026        beq.n   8004698 <MSP_ParseFrame.isra.0+0x70>
 800464a:   d802        bhi.n   8004652 <MSP_ParseFrame.isra.0+0x2a>
 800464c:   286c        cmp r0, #108    ; 0x6c
 800464e:   d01e        beq.n   800468e <MSP_ParseFrame.isra.0+0x66>
 8004650:   bd08        pop {r3, pc}
 8004652:   28c8        cmp r0, #200    ; 0xc8
 8004654:   d025        beq.n   80046a2 <MSP_ParseFrame.isra.0+0x7a>
 8004656:   28ca        cmp r0, #202    ; 0xca
 8004658:   d02f        beq.n   80046ba <MSP_ParseFrame.isra.0+0x92>
 800465a:   bd08        pop {r3, pc}
 800465c:   b3d2        cbz r2, 80046d4 <MSP_ParseFrame.isra.0+0xac>
 800465e:   e8bd 4008   ldmia.w sp!, {r3, lr}
 8004662:   f7ff bf41   b.w 80044e8 <MSP_SendIdent>
 8004666:   b3aa        cbz r2, 80046d4 <MSP_ParseFrame.isra.0+0xac>
 8004668:   e8bd 4008   ldmia.w sp!, {r3, lr}
 800466c:   f7ff bf5a   b.w 8004524 <MSP_SendStatus>
 8004670:   b382        cbz r2, 80046d4 <MSP_ParseFrame.isra.0+0xac>
 8004672:   e8bd 4008   ldmia.w sp!, {r3, lr}
 8004676:   f7ff bf71   b.w 800455c <MSP_SendRawIMU>
 800467a:   b35a        cbz r2, 80046d4 <MSP_ParseFrame.isra.0+0xac>
 800467c:   e8bd 4008   ldmia.w sp!, {r3, lr}
 8004680:   f7ff bf86   b.w 8004590 <MSP_SendMotor>
 8004684:   b332        cbz r2, 80046d4 <MSP_ParseFrame.isra.0+0xac>
 8004686:   e8bd 4008   ldmia.w sp!, {r3, lr}
 800468a:   f7ff bf91   b.w 80045b0 <MSP_SendRC>
 800468e:   b30a        cbz r2, 80046d4 <MSP_ParseFrame.isra.0+0xac>
 8004690:   e8bd 4008   ldmia.w sp!, {r3, lr}
 8004694:   f7ff bfa4   b.w 80045e0 <MSP_SendAttitude>
 8004698:   b1e2        cbz r2, 80046d4 <MSP_ParseFrame.isra.0+0xac>
 800469a:   e8bd 4008   ldmia.w sp!, {r3, lr}
 800469e:   f7ff bfb1   b.w 8004604 <MSP_SendAltitude>
 80046a2:   4b0d        ldr r3, [pc, #52]   ; (80046d8 <MSP_ParseFrame.isra.0+0xb0>)
 80046a4:   f101 0210   add.w   r2, r1, #16
 80046a8:   f851 0b04   ldr.w   r0, [r1], #4
 80046ac:   4291        cmp r1, r2
 80046ae:   f843 0b04   str.w   r0, [r3], #4
 80046b2:   d1f9        bne.n   80046a8 <MSP_ParseFrame.isra.0+0x80>
 80046b4:   f7ff fd9a   bl  80041ec <MSP_SetRawRC_Callback>
 80046b8:   bd08        pop {r3, pc}
 80046ba:   4b08        ldr r3, [pc, #32]   ; (80046dc <MSP_ParseFrame.isra.0+0xb4>)
 80046bc:   f101 021c   add.w   r2, r1, #28
 80046c0:   f851 0b04   ldr.w   r0, [r1], #4
 80046c4:   4291        cmp r1, r2
 80046c6:   f843 0b04   str.w   r0, [r3], #4
 80046ca:   d1f9        bne.n   80046c0 <MSP_ParseFrame.isra.0+0x98>
 80046cc:   880a        ldrh    r2, [r1, #0]
 80046ce:   801a        strh    r2, [r3, #0]
 80046d0:   f7ff fcfc   bl  80040cc <MSP_SetPID_Callback>
 80046d4:   bd08        pop {r3, pc}
 80046d6:   bf00        nop
 80046d8:   200013c9    .word   0x200013c9
 80046dc:   20001373    .word   0x20001373

080046e0 <MSP_Update>:
 80046e0:   b570        push    {r4, r5, r6, lr}
 80046e2:   f000 fc29   bl  8004f38 <serialAvailable>
 80046e6:   b1c8        cbz r0, 800471c <MSP_Update+0x3c>
 80046e8:   4c30        ldr r4, [pc, #192]  ; (80047ac <MSP_Update+0xcc>)
 80046ea:   7823        ldrb    r3, [r4, #0]
 80046ec:   4625        mov r5, r4
 80046ee:   b95b        cbnz    r3, 8004708 <MSP_Update+0x28>
 80046f0:   8063        strh    r3, [r4, #2]
 80046f2:   7123        strb    r3, [r4, #4]
 80046f4:   7163        strb    r3, [r4, #5]
 80046f6:   71a3        strb    r3, [r4, #6]
 80046f8:   f000 fc32   bl  8004f60 <serialRead>
 80046fc:   f1a0 0324   sub.w   r3, r0, #36 ; 0x24
 8004700:   4258        negs    r0, r3
 8004702:   4158        adcs    r0, r3
 8004704:   7020        strb    r0, [r4, #0]
 8004706:   bd70        pop {r4, r5, r6, pc}
 8004708:   2b01        cmp r3, #1
 800470a:   d108        bne.n   800471e <MSP_Update+0x3e>
 800470c:   f000 fc28   bl  8004f60 <serialRead>
 8004710:   284d        cmp r0, #77 ; 0x4d
 8004712:   bf08        it  eq
 8004714:   2302        moveq   r3, #2
 8004716:   bf18        it  ne
 8004718:   2300        movne   r3, #0
 800471a:   7023        strb    r3, [r4, #0]
 800471c:   bd70        pop {r4, r5, r6, pc}
 800471e:   2b02        cmp r3, #2
 8004720:   d105        bne.n   800472e <MSP_Update+0x4e>
 8004722:   f000 fc1d   bl  8004f60 <serialRead>
 8004726:   283c        cmp r0, #60 ; 0x3c
 8004728:   bf08        it  eq
 800472a:   2303        moveq   r3, #3
 800472c:   e7f3        b.n 8004716 <MSP_Update+0x36>
 800472e:   2b03        cmp r3, #3
 8004730:   d10a        bne.n   8004748 <MSP_Update+0x68>
 8004732:   f000 fc15   bl  8004f60 <serialRead>
 8004736:   b280        uxth    r0, r0
 8004738:   8060        strh    r0, [r4, #2]
 800473a:   b908        cbnz    r0, 8004740 <MSP_Update+0x60>
 800473c:   2301        movs    r3, #1
 800473e:   71a3        strb    r3, [r4, #6]
 8004740:   782b        ldrb    r3, [r5, #0]
 8004742:   3301        adds    r3, #1
 8004744:   702b        strb    r3, [r5, #0]
 8004746:   bd70        pop {r4, r5, r6, pc}
 8004748:   2b04        cmp r3, #4
 800474a:   d108        bne.n   800475e <MSP_Update+0x7e>
 800474c:   f000 fc08   bl  8004f60 <serialRead>
 8004750:   78a3        ldrb    r3, [r4, #2]
 8004752:   7120        strb    r0, [r4, #4]
 8004754:   4058        eors    r0, r3
 8004756:   7823        ldrb    r3, [r4, #0]
 8004758:   7160        strb    r0, [r4, #5]
 800475a:   3301        adds    r3, #1
 800475c:   e7dd        b.n 800471a <MSP_Update+0x3a>
 800475e:   2b05        cmp r3, #5
 8004760:   d114        bne.n   800478c <MSP_Update+0xac>
 8004762:   79a6        ldrb    r6, [r4, #6]
 8004764:   b10e        cbz r6, 800476a <MSP_Update+0x8a>
 8004766:   2306        movs    r3, #6
 8004768:   e7d7        b.n 800471a <MSP_Update+0x3a>
 800476a:   f000 fbe5   bl  8004f38 <serialAvailable>
 800476e:   8863        ldrh    r3, [r4, #2]
 8004770:   4298        cmp r0, r3
 8004772:   dbd3        blt.n   800471c <MSP_Update+0x3c>
 8004774:   886b        ldrh    r3, [r5, #2]
 8004776:   429e        cmp r6, r3
 8004778:   dae2        bge.n   8004740 <MSP_Update+0x60>
 800477a:   f000 fbf1   bl  8004f60 <serialRead>
 800477e:   19ab        adds    r3, r5, r6
 8004780:   71d8        strb    r0, [r3, #7]
 8004782:   796b        ldrb    r3, [r5, #5]
 8004784:   3601        adds    r6, #1
 8004786:   4058        eors    r0, r3
 8004788:   7168        strb    r0, [r5, #5]
 800478a:   e7f3        b.n 8004774 <MSP_Update+0x94>
 800478c:   2b06        cmp r3, #6
 800478e:   d104        bne.n   800479a <MSP_Update+0xba>
 8004790:   7966        ldrb    r6, [r4, #5]
 8004792:   f000 fbe5   bl  8004f60 <serialRead>
 8004796:   4286        cmp r6, r0
 8004798:   d001        beq.n   800479e <MSP_Update+0xbe>
 800479a:   2300        movs    r3, #0
 800479c:   e7d2        b.n 8004744 <MSP_Update+0x64>
 800479e:   79a2        ldrb    r2, [r4, #6]
 80047a0:   1de1        adds    r1, r4, #7
 80047a2:   7920        ldrb    r0, [r4, #4]
 80047a4:   f7ff ff40   bl  8004628 <MSP_ParseFrame.isra.0>
 80047a8:   2300        movs    r3, #0
 80047aa:   e7b6        b.n 800471a <MSP_Update+0x3a>
 80047ac:   20001438    .word   0x20001438

080047b0 <_Error_Handler>:
 80047b0:   b580        push    {r7, lr}
 80047b2:   2201        movs    r2, #1
 80047b4:   4607        mov r7, r0
 80047b6:   460d        mov r5, r1
 80047b8:   481b        ldr r0, [pc, #108]  ; (8004828 <_Error_Handler+0x78>)
 80047ba:   f44f 4180   mov.w   r1, #16384  ; 0x4000
 80047be:   f7fc fe3b   bl  8001438 <HAL_GPIO_WritePin>
 80047c2:   2200        movs    r2, #0
 80047c4:   f44f 4100   mov.w   r1, #32768  ; 0x8000
 80047c8:   4817        ldr r0, [pc, #92]   ; (8004828 <_Error_Handler+0x78>)
 80047ca:   f7fc fe35   bl  8001438 <HAL_GPIO_WritePin>
 80047ce:   2200        movs    r2, #0
 80047d0:   f44f 5100   mov.w   r1, #8192   ; 0x2000
 80047d4:   4814        ldr r0, [pc, #80]   ; (8004828 <_Error_Handler+0x78>)
 80047d6:   f7fc fe2f   bl  8001438 <HAL_GPIO_WritePin>
 80047da:   4c13        ldr r4, [pc, #76]   ; (8004828 <_Error_Handler+0x78>)
 80047dc:   f8df 8050   ldr.w   r8, [pc, #80]   ; 8004830 <_Error_Handler+0x80>
 80047e0:   4e12        ldr r6, [pc, #72]   ; (800482c <_Error_Handler+0x7c>)
 80047e2:   4620        mov r0, r4
 80047e4:   f44f 4180   mov.w   r1, #16384  ; 0x4000
 80047e8:   f7fc fe2b   bl  8001442 <HAL_GPIO_TogglePin>
 80047ec:   4620        mov r0, r4
 80047ee:   f44f 4100   mov.w   r1, #32768  ; 0x8000
 80047f2:   f7fc fe26   bl  8001442 <HAL_GPIO_TogglePin>
 80047f6:   f44f 5100   mov.w   r1, #8192   ; 0x2000
 80047fa:   4620        mov r0, r4
 80047fc:   f7fc fe21   bl  8001442 <HAL_GPIO_TogglePin>
 8004800:   4640        mov r0, r8
 8004802:   f000 fbe9   bl  8004fd8 <serialPrint>
 8004806:   4638        mov r0, r7
 8004808:   f000 fbe6   bl  8004fd8 <serialPrint>
 800480c:   4630        mov r0, r6
 800480e:   f000 fbe3   bl  8004fd8 <serialPrint>
 8004812:   4628        mov r0, r5
 8004814:   f000 fbf0   bl  8004ff8 <serialInt>
 8004818:   200a        movs    r0, #10
 800481a:   f000 fb95   bl  8004f48 <serialWrite>
 800481e:   f44f 70fa   mov.w   r0, #500    ; 0x1f4
 8004822:   f000 fd45   bl  80052b0 <delay_ms>
 8004826:   e7dc        b.n 80047e2 <_Error_Handler+0x32>
 8004828:   40011000    .word   0x40011000
 800482c:   080076a3    .word   0x080076a3
 8004830:   08007697    .word   0x08007697

08004834 <SystemClock_Config>:
 8004834:   2301        movs    r3, #1
 8004836:   b510        push    {r4, lr}
 8004838:   b090        sub sp, #64 ; 0x40
 800483a:   930a        str r3, [sp, #40]   ; 0x28
 800483c:   2310        movs    r3, #16
 800483e:   930b        str r3, [sp, #44]   ; 0x2c
 8004840:   2300        movs    r3, #0
 8004842:   2402        movs    r4, #2
 8004844:   930e        str r3, [sp, #56]   ; 0x38
 8004846:   f44f 1360   mov.w   r3, #3670016    ; 0x380000
 800484a:   a806        add r0, sp, #24
 800484c:   9406        str r4, [sp, #24]
 800484e:   940d        str r4, [sp, #52]   ; 0x34
 8004850:   930f        str r3, [sp, #60]   ; 0x3c
 8004852:   f7fd f96b   bl  8001b2c <HAL_RCC_OscConfig>
 8004856:   b118        cbz r0, 8004860 <SystemClock_Config+0x2c>
 8004858:   213c        movs    r1, #60 ; 0x3c
 800485a:   4813        ldr r0, [pc, #76]   ; (80048a8 <SystemClock_Config+0x74>)
 800485c:   f7ff ffa8   bl  80047b0 <_Error_Handler>
 8004860:   230f        movs    r3, #15
 8004862:   9301        str r3, [sp, #4]
 8004864:   f44f 6380   mov.w   r3, #1024   ; 0x400
 8004868:   9003        str r0, [sp, #12]
 800486a:   9005        str r0, [sp, #20]
 800486c:   4621        mov r1, r4
 800486e:   a801        add r0, sp, #4
 8004870:   9402        str r4, [sp, #8]
 8004872:   9304        str r3, [sp, #16]
 8004874:   f7fd fbfc   bl  8002070 <HAL_RCC_ClockConfig>
 8004878:   4604        mov r4, r0
 800487a:   b108        cbz r0, 8004880 <SystemClock_Config+0x4c>
 800487c:   2149        movs    r1, #73 ; 0x49
 800487e:   e7ec        b.n 800485a <SystemClock_Config+0x26>
 8004880:   f7fd fcaa   bl  80021d8 <HAL_RCC_GetHCLKFreq>
 8004884:   f44f 737a   mov.w   r3, #1000   ; 0x3e8
 8004888:   fbb0 f0f3   udiv    r0, r0, r3
 800488c:   f7fc fccc   bl  8001228 <HAL_SYSTICK_Config>
 8004890:   2004        movs    r0, #4
 8004892:   f7fc fcdf   bl  8001254 <HAL_SYSTICK_CLKSourceConfig>
 8004896:   4622        mov r2, r4
 8004898:   4621        mov r1, r4
 800489a:   f04f 30ff   mov.w   r0, #4294967295 ; 0xffffffff
 800489e:   f7fc fc83   bl  80011a8 <HAL_NVIC_SetPriority>
 80048a2:   b010        add sp, #64 ; 0x40
 80048a4:   bd10        pop {r4, pc}
 80048a6:   bf00        nop
 80048a8:   08007682    .word   0x08007682

080048ac <Peripherals_Init>:
 80048ac:   e92d 41f0   stmdb   sp!, {r4, r5, r6, r7, r8, lr}
 80048b0:   b094        sub sp, #80 ; 0x50
 80048b2:   f7fc fc39   bl  8001128 <HAL_Init>
 80048b6:   f7ff ffbd   bl  8004834 <SystemClock_Config>
 80048ba:   4b98        ldr r3, [pc, #608]  ; (8004b1c <Peripherals_Init+0x270>)
 80048bc:   f44f 4160   mov.w   r1, #57344  ; 0xe000
 80048c0:   699a        ldr r2, [r3, #24]
 80048c2:   4897        ldr r0, [pc, #604]  ; (8004b20 <Peripherals_Init+0x274>)
 80048c4:   f042 0210   orr.w   r2, r2, #16
 80048c8:   619a        str r2, [r3, #24]
 80048ca:   699a        ldr r2, [r3, #24]
 80048cc:   2401        movs    r4, #1
 80048ce:   f002 0210   and.w   r2, r2, #16
 80048d2:   9201        str r2, [sp, #4]
 80048d4:   9a01        ldr r2, [sp, #4]
 80048d6:   699a        ldr r2, [r3, #24]
 80048d8:   2502        movs    r5, #2
 80048da:   f042 0204   orr.w   r2, r2, #4
 80048de:   619a        str r2, [r3, #24]
 80048e0:   699a        ldr r2, [r3, #24]
 80048e2:   4f90        ldr r7, [pc, #576]  ; (8004b24 <Peripherals_Init+0x278>)
 80048e4:   f002 0204   and.w   r2, r2, #4
 80048e8:   9202        str r2, [sp, #8]
 80048ea:   9a02        ldr r2, [sp, #8]
 80048ec:   699a        ldr r2, [r3, #24]
 80048ee:   f042 0208   orr.w   r2, r2, #8
 80048f2:   619a        str r2, [r3, #24]
 80048f4:   699b        ldr r3, [r3, #24]
 80048f6:   2200        movs    r2, #0
 80048f8:   f003 0308   and.w   r3, r3, #8
 80048fc:   9303        str r3, [sp, #12]
 80048fe:   9b03        ldr r3, [sp, #12]
 8004900:   f7fc fd9a   bl  8001438 <HAL_GPIO_WritePin>
 8004904:   2200        movs    r2, #0
 8004906:   2120        movs    r1, #32
 8004908:   4887        ldr r0, [pc, #540]  ; (8004b28 <Peripherals_Init+0x27c>)
 800490a:   f7fc fd95   bl  8001438 <HAL_GPIO_WritePin>
 800490e:   f44f 4360   mov.w   r3, #57344  ; 0xe000
 8004912:   a90d        add r1, sp, #52 ; 0x34
 8004914:   4882        ldr r0, [pc, #520]  ; (8004b20 <Peripherals_Init+0x274>)
 8004916:   930d        str r3, [sp, #52]   ; 0x34
 8004918:   940e        str r4, [sp, #56]   ; 0x38
 800491a:   9510        str r5, [sp, #64]   ; 0x40
 800491c:   f7fc fcac   bl  8001278 <HAL_GPIO_Init>
 8004920:   2320        movs    r3, #32
 8004922:   4881        ldr r0, [pc, #516]  ; (8004b28 <Peripherals_Init+0x27c>)
 8004924:   a90d        add r1, sp, #52 ; 0x34
 8004926:   930d        str r3, [sp, #52]   ; 0x34
 8004928:   940e        str r4, [sp, #56]   ; 0x38
 800492a:   9510        str r5, [sp, #64]   ; 0x40
 800492c:   f7fc fca4   bl  8001278 <HAL_GPIO_Init>
 8004930:   487e        ldr r0, [pc, #504]  ; (8004b2c <Peripherals_Init+0x280>)
 8004932:   4b7f        ldr r3, [pc, #508]  ; (8004b30 <Peripherals_Init+0x284>)
 8004934:   f44f 4280   mov.w   r2, #16384  ; 0x4000
 8004938:   e880 0088   stmia.w r0, {r3, r7}
 800493c:   2300        movs    r3, #0
 800493e:   6102        str r2, [r0, #16]
 8004940:   6083        str r3, [r0, #8]
 8004942:   60c3        str r3, [r0, #12]
 8004944:   6143        str r3, [r0, #20]
 8004946:   6183        str r3, [r0, #24]
 8004948:   61c3        str r3, [r0, #28]
 800494a:   6203        str r3, [r0, #32]
 800494c:   f7fc ff28   bl  80017a0 <HAL_I2C_Init>
 8004950:   b118        cbz r0, 800495a <Peripherals_Init+0xae>
 8004952:   216b        movs    r1, #107    ; 0x6b
 8004954:   4877        ldr r0, [pc, #476]  ; (8004b34 <Peripherals_Init+0x288>)
 8004956:   f7ff ff2b   bl  80047b0 <_Error_Handler>
 800495a:   f44f 32e1   mov.w   r2, #115200 ; 0x1c200
 800495e:   f04f 080c   mov.w   r8, #12
 8004962:   4b75        ldr r3, [pc, #468]  ; (8004b38 <Peripherals_Init+0x28c>)
 8004964:   4975        ldr r1, [pc, #468]  ; (8004b3c <Peripherals_Init+0x290>)
 8004966:   6098        str r0, [r3, #8]
 8004968:   60d8        str r0, [r3, #12]
 800496a:   6118        str r0, [r3, #16]
 800496c:   6198        str r0, [r3, #24]
 800496e:   61d8        str r0, [r3, #28]
 8004970:   4618        mov r0, r3
 8004972:   e883 0006   stmia.w r3, {r1, r2}
 8004976:   f8c3 8014   str.w   r8, [r3, #20]
 800497a:   f7fd fee5   bl  8002748 <HAL_UART_Init>
 800497e:   b110        cbz r0, 8004986 <Peripherals_Init+0xda>
 8004980:   f240 1151   movw    r1, #337    ; 0x151
 8004984:   e7e6        b.n 8004954 <Peripherals_Init+0xa8>
 8004986:   f44f 767a   mov.w   r6, #1000   ; 0x3e8
 800498a:   4c6d        ldr r4, [pc, #436]  ; (8004b40 <Peripherals_Init+0x294>)
 800498c:   4b6d        ldr r3, [pc, #436]  ; (8004b44 <Peripherals_Init+0x298>)
 800498e:   60a0        str r0, [r4, #8]
 8004990:   6120        str r0, [r4, #16]
 8004992:   6160        str r0, [r4, #20]
 8004994:   4620        mov r0, r4
 8004996:   e884 0028   stmia.w r4, {r3, r5}
 800499a:   60e6        str r6, [r4, #12]
 800499c:   f7fd fcfa   bl  8002394 <HAL_TIM_PWM_Init>
 80049a0:   b108        cbz r0, 80049a6 <Peripherals_Init+0xfa>
 80049a2:   2188        movs    r1, #136    ; 0x88
 80049a4:   e7d6        b.n 8004954 <Peripherals_Init+0xa8>
 80049a6:   9004        str r0, [sp, #16]
 80049a8:   9005        str r0, [sp, #20]
 80049aa:   a904        add r1, sp, #16
 80049ac:   4620        mov r0, r4
 80049ae:   f7fd fddb   bl  8002568 <HAL_TIMEx_MasterConfigSynchronization>
 80049b2:   b108        cbz r0, 80049b8 <Peripherals_Init+0x10c>
 80049b4:   218f        movs    r1, #143    ; 0x8f
 80049b6:   e7cd        b.n 8004954 <Peripherals_Init+0xa8>
 80049b8:   2760        movs    r7, #96 ; 0x60
 80049ba:   9007        str r0, [sp, #28]
 80049bc:   9008        str r0, [sp, #32]
 80049be:   900a        str r0, [sp, #40]   ; 0x28
 80049c0:   900b        str r0, [sp, #44]   ; 0x2c
 80049c2:   900c        str r0, [sp, #48]   ; 0x30
 80049c4:   4642        mov r2, r8
 80049c6:   a906        add r1, sp, #24
 80049c8:   4620        mov r0, r4
 80049ca:   9706        str r7, [sp, #24]
 80049cc:   f7fd fd28   bl  8002420 <HAL_TIM_PWM_ConfigChannel>
 80049d0:   b108        cbz r0, 80049d6 <Peripherals_Init+0x12a>
 80049d2:   219a        movs    r1, #154    ; 0x9a
 80049d4:   e7be        b.n 8004954 <Peripherals_Init+0xa8>
 80049d6:   f44f 5300   mov.w   r3, #8192   ; 0x2000
 80049da:   900d        str r0, [sp, #52]   ; 0x34
 80049dc:   900e        str r0, [sp, #56]   ; 0x38
 80049de:   900f        str r0, [sp, #60]   ; 0x3c
 80049e0:   9010        str r0, [sp, #64]   ; 0x40
 80049e2:   9011        str r0, [sp, #68]   ; 0x44
 80049e4:   9013        str r0, [sp, #76]   ; 0x4c
 80049e6:   a90d        add r1, sp, #52 ; 0x34
 80049e8:   4620        mov r0, r4
 80049ea:   9312        str r3, [sp, #72]   ; 0x48
 80049ec:   f7fd fd9c   bl  8002528 <HAL_TIMEx_ConfigBreakDeadTime>
 80049f0:   4680        mov r8, r0
 80049f2:   b108        cbz r0, 80049f8 <Peripherals_Init+0x14c>
 80049f4:   21a6        movs    r1, #166    ; 0xa6
 80049f6:   e7ad        b.n 8004954 <Peripherals_Init+0xa8>
 80049f8:   4620        mov r0, r4
 80049fa:   f000 fbb1   bl  8005160 <HAL_TIM_MspPostInit>
 80049fe:   f04f 4380   mov.w   r3, #1073741824 ; 0x40000000
 8004a02:   4c51        ldr r4, [pc, #324]  ; (8004b48 <Peripherals_Init+0x29c>)
 8004a04:   4620        mov r0, r4
 8004a06:   e884 0128   stmia.w r4, {r3, r5, r8}
 8004a0a:   60e6        str r6, [r4, #12]
 8004a0c:   f8c4 8010   str.w   r8, [r4, #16]
 8004a10:   f7fd fcc0   bl  8002394 <HAL_TIM_PWM_Init>
 8004a14:   b108        cbz r0, 8004a1a <Peripherals_Init+0x16e>
 8004a16:   21c3        movs    r1, #195    ; 0xc3
 8004a18:   e79c        b.n 8004954 <Peripherals_Init+0xa8>
 8004a1a:   9006        str r0, [sp, #24]
 8004a1c:   9007        str r0, [sp, #28]
 8004a1e:   a906        add r1, sp, #24
 8004a20:   4620        mov r0, r4
 8004a22:   f7fd fda1   bl  8002568 <HAL_TIMEx_MasterConfigSynchronization>
 8004a26:   b108        cbz r0, 8004a2c <Peripherals_Init+0x180>
 8004a28:   21ca        movs    r1, #202    ; 0xca
 8004a2a:   e793        b.n 8004954 <Peripherals_Init+0xa8>
 8004a2c:   900e        str r0, [sp, #56]   ; 0x38
 8004a2e:   900f        str r0, [sp, #60]   ; 0x3c
 8004a30:   9011        str r0, [sp, #68]   ; 0x44
 8004a32:   2204        movs    r2, #4
 8004a34:   a90d        add r1, sp, #52 ; 0x34
 8004a36:   4620        mov r0, r4
 8004a38:   970d        str r7, [sp, #52]   ; 0x34
 8004a3a:   f7fd fcf1   bl  8002420 <HAL_TIM_PWM_ConfigChannel>
 8004a3e:   4607        mov r7, r0
 8004a40:   b108        cbz r0, 8004a46 <Peripherals_Init+0x19a>
 8004a42:   21d3        movs    r1, #211    ; 0xd3
 8004a44:   e786        b.n 8004954 <Peripherals_Init+0xa8>
 8004a46:   4620        mov r0, r4
 8004a48:   f000 fb8a   bl  8005160 <HAL_TIM_MspPostInit>
 8004a4c:   483f        ldr r0, [pc, #252]  ; (8004b4c <Peripherals_Init+0x2a0>)
 8004a4e:   4b40        ldr r3, [pc, #256]  ; (8004b50 <Peripherals_Init+0x2a4>)
 8004a50:   60c6        str r6, [r0, #12]
 8004a52:   e880 00a8   stmia.w r0, {r3, r5, r7}
 8004a56:   6107        str r7, [r0, #16]
 8004a58:   f7fd fc9c   bl  8002394 <HAL_TIM_PWM_Init>
 8004a5c:   b108        cbz r0, 8004a62 <Peripherals_Init+0x1b6>
 8004a5e:   21f0        movs    r1, #240    ; 0xf0
 8004a60:   e778        b.n 8004954 <Peripherals_Init+0xa8>
 8004a62:   2300        movs    r3, #0
 8004a64:   a906        add r1, sp, #24
 8004a66:   4839        ldr r0, [pc, #228]  ; (8004b4c <Peripherals_Init+0x2a0>)
 8004a68:   9306        str r3, [sp, #24]
 8004a6a:   9307        str r3, [sp, #28]
 8004a6c:   f7fd fd7c   bl  8002568 <HAL_TIMEx_MasterConfigSynchronization>
 8004a70:   b108        cbz r0, 8004a76 <Peripherals_Init+0x1ca>
 8004a72:   21f7        movs    r1, #247    ; 0xf7
 8004a74:   e76e        b.n 8004954 <Peripherals_Init+0xa8>
 8004a76:   2660        movs    r6, #96 ; 0x60
 8004a78:   900e        str r0, [sp, #56]   ; 0x38
 8004a7a:   900f        str r0, [sp, #60]   ; 0x3c
 8004a7c:   9011        str r0, [sp, #68]   ; 0x44
 8004a7e:   2208        movs    r2, #8
 8004a80:   a90d        add r1, sp, #52 ; 0x34
 8004a82:   4832        ldr r0, [pc, #200]  ; (8004b4c <Peripherals_Init+0x2a0>)
 8004a84:   960d        str r6, [sp, #52]   ; 0x34
 8004a86:   f7fd fccb   bl  8002420 <HAL_TIM_PWM_ConfigChannel>
 8004a8a:   b110        cbz r0, 8004a92 <Peripherals_Init+0x1e6>
 8004a8c:   f44f 7180   mov.w   r1, #256    ; 0x100
 8004a90:   e760        b.n 8004954 <Peripherals_Init+0xa8>
 8004a92:   220c        movs    r2, #12
 8004a94:   a90d        add r1, sp, #52 ; 0x34
 8004a96:   482d        ldr r0, [pc, #180]  ; (8004b4c <Peripherals_Init+0x2a0>)
 8004a98:   f7fd fcc2   bl  8002420 <HAL_TIM_PWM_ConfigChannel>
 8004a9c:   4605        mov r5, r0
 8004a9e:   b110        cbz r0, 8004aa6 <Peripherals_Init+0x1fa>
 8004aa0:   f240 1105   movw    r1, #261    ; 0x105
 8004aa4:   e756        b.n 8004954 <Peripherals_Init+0xa8>
 8004aa6:   4829        ldr r0, [pc, #164]  ; (8004b4c <Peripherals_Init+0x2a0>)
 8004aa8:   f000 fb5a   bl  8005160 <HAL_TIM_MspPostInit>
 8004aac:   2302        movs    r3, #2
 8004aae:   4c29        ldr r4, [pc, #164]  ; (8004b54 <Peripherals_Init+0x2a8>)
 8004ab0:   4a29        ldr r2, [pc, #164]  ; (8004b58 <Peripherals_Init+0x2ac>)
 8004ab2:   4620        mov r0, r4
 8004ab4:   e884 000c   stmia.w r4, {r2, r3}
 8004ab8:   f44f 737a   mov.w   r3, #1000   ; 0x3e8
 8004abc:   60a5        str r5, [r4, #8]
 8004abe:   60e3        str r3, [r4, #12]
 8004ac0:   6125        str r5, [r4, #16]
 8004ac2:   f7fd fc67   bl  8002394 <HAL_TIM_PWM_Init>
 8004ac6:   b110        cbz r0, 8004ace <Peripherals_Init+0x222>
 8004ac8:   f44f 7191   mov.w   r1, #290    ; 0x122
 8004acc:   e742        b.n 8004954 <Peripherals_Init+0xa8>
 8004ace:   9006        str r0, [sp, #24]
 8004ad0:   9007        str r0, [sp, #28]
 8004ad2:   a906        add r1, sp, #24
 8004ad4:   4620        mov r0, r4
 8004ad6:   f7fd fd47   bl  8002568 <HAL_TIMEx_MasterConfigSynchronization>
 8004ada:   b110        cbz r0, 8004ae2 <Peripherals_Init+0x236>
 8004adc:   f240 1129   movw    r1, #297    ; 0x129
 8004ae0:   e738        b.n 8004954 <Peripherals_Init+0xa8>
 8004ae2:   900e        str r0, [sp, #56]   ; 0x38
 8004ae4:   900f        str r0, [sp, #60]   ; 0x3c
 8004ae6:   9011        str r0, [sp, #68]   ; 0x44
 8004ae8:   2208        movs    r2, #8
 8004aea:   a90d        add r1, sp, #52 ; 0x34
 8004aec:   4620        mov r0, r4
 8004aee:   960d        str r6, [sp, #52]   ; 0x34
 8004af0:   f7fd fc96   bl  8002420 <HAL_TIM_PWM_ConfigChannel>
 8004af4:   b110        cbz r0, 8004afc <Peripherals_Init+0x250>
 8004af6:   f44f 7199   mov.w   r1, #306    ; 0x132
 8004afa:   e72b        b.n 8004954 <Peripherals_Init+0xa8>
 8004afc:   220c        movs    r2, #12
 8004afe:   a90d        add r1, sp, #52 ; 0x34
 8004b00:   4620        mov r0, r4
 8004b02:   f7fd fc8d   bl  8002420 <HAL_TIM_PWM_ConfigChannel>
 8004b06:   b110        cbz r0, 8004b0e <Peripherals_Init+0x262>
 8004b08:   f240 1137   movw    r1, #311    ; 0x137
 8004b0c:   e722        b.n 8004954 <Peripherals_Init+0xa8>
 8004b0e:   4620        mov r0, r4
 8004b10:   f000 fb26   bl  8005160 <HAL_TIM_MspPostInit>
 8004b14:   b014        add sp, #80 ; 0x50
 8004b16:   e8bd 81f0   ldmia.w sp!, {r4, r5, r6, r7, r8, pc}
 8004b1a:   bf00        nop
 8004b1c:   40021000    .word   0x40021000
 8004b20:   40011000    .word   0x40011000
 8004b24:   00061a80    .word   0x00061a80
 8004b28:   40010800    .word   0x40010800
 8004b2c:   20001500    .word   0x20001500
 8004b30:   40005400    .word   0x40005400
 8004b34:   08007682    .word   0x08007682
 8004b38:   20001578    .word   0x20001578
 8004b3c:   40013800    .word   0x40013800
 8004b40:   200015b8    .word   0x200015b8
 8004b44:   40012c00    .word   0x40012c00
 8004b48:   200015f4    .word   0x200015f4
 8004b4c:   2000153c    .word   0x2000153c
 8004b50:   40000400    .word   0x40000400
 8004b54:   200014c4    .word   0x200014c4
 8004b58:   40000800    .word   0x40000800

08004b5c <PID_Compute>:
 8004b5c:   e92d 41f0   stmdb   sp!, {r4, r5, r6, r7, r8, lr}
 8004b60:   4604        mov r4, r0
 8004b62:   69c0        ldr r0, [r0, #28]
 8004b64:   6a61        ldr r1, [r4, #36]   ; 0x24
 8004b66:   6b25        ldr r5, [r4, #48]   ; 0x30
 8004b68:   f7fb ffb8   bl  8000adc <__addsf3>
 8004b6c:   4629        mov r1, r5
 8004b6e:   f7fb ffb3   bl  8000ad8 <__aeabi_fsub>
 8004b72:   6823        ldr r3, [r4, #0]
 8004b74:   62a0        str r0, [r4, #40]   ; 0x28
 8004b76:   2b03        cmp r3, #3
 8004b78:   d124        bne.n   8004bc4 <PID_Compute+0x68>
 8004b7a:   6aa0        ldr r0, [r4, #40]   ; 0x28
 8004b7c:   2100        movs    r1, #0
 8004b7e:   f7fc fa71   bl  8001064 <__aeabi_fcmpgt>
 8004b82:   2800        cmp r0, #0
 8004b84:   d06c        beq.n   8004c60 <PID_Compute+0x104>
 8004b86:   6aa0        ldr r0, [r4, #40]   ; 0x28
 8004b88:   493e        ldr r1, [pc, #248]  ; (8004c84 <PID_Compute+0x128>)
 8004b8a:   f04f 0501   mov.w   r5, #1
 8004b8e:   f7fc fa69   bl  8001064 <__aeabi_fcmpgt>
 8004b92:   b900        cbnz    r0, 8004b96 <PID_Compute+0x3a>
 8004b94:   4605        mov r5, r0
 8004b96:   b2ed        uxtb    r5, r5
 8004b98:   b1a5        cbz r5, 8004bc4 <PID_Compute+0x68>
 8004b9a:   6aa5        ldr r5, [r4, #40]   ; 0x28
 8004b9c:   493a        ldr r1, [pc, #232]  ; (8004c88 <PID_Compute+0x12c>)
 8004b9e:   6aa0        ldr r0, [r4, #40]   ; 0x28
 8004ba0:   f7fc f8a4   bl  8000cec <__aeabi_fmul>
 8004ba4:   2100        movs    r1, #0
 8004ba6:   4606        mov r6, r0
 8004ba8:   6aa0        ldr r0, [r4, #40]   ; 0x28
 8004baa:   f7fc fa5b   bl  8001064 <__aeabi_fcmpgt>
 8004bae:   6aa1        ldr r1, [r4, #40]   ; 0x28
 8004bb0:   2800        cmp r0, #0
 8004bb2:   d05c        beq.n   8004c6e <PID_Compute+0x112>
 8004bb4:   4630        mov r0, r6
 8004bb6:   f7fc f94d   bl  8000e54 <__aeabi_fdiv>
 8004bba:   4601        mov r1, r0
 8004bbc:   4628        mov r0, r5
 8004bbe:   f7fb ff8b   bl  8000ad8 <__aeabi_fsub>
 8004bc2:   62a0        str r0, [r4, #40]   ; 0x28
 8004bc4:   6860        ldr r0, [r4, #4]
 8004bc6:   f8d4 8008   ldr.w   r8, [r4, #8]
 8004bca:   68e6        ldr r6, [r4, #12]
 8004bcc:   6aa1        ldr r1, [r4, #40]   ; 0x28
 8004bce:   f7fc f88d   bl  8000cec <__aeabi_fmul>
 8004bd2:   63a0        str r0, [r4, #56]   ; 0x38
 8004bd4:   6aa0        ldr r0, [r4, #40]   ; 0x28
 8004bd6:   6be1        ldr r1, [r4, #60]   ; 0x3c
 8004bd8:   f7fb ff80   bl  8000adc <__addsf3>
 8004bdc:   63e0        str r0, [r4, #60]   ; 0x3c
 8004bde:   6be0        ldr r0, [r4, #60]   ; 0x3c
 8004be0:   492a        ldr r1, [pc, #168]  ; (8004c8c <PID_Compute+0x130>)
 8004be2:   f7fc fa21   bl  8001028 <__aeabi_fcmplt>
 8004be6:   2800        cmp r0, #0
 8004be8:   d144        bne.n   8004c74 <PID_Compute+0x118>
 8004bea:   6be0        ldr r0, [r4, #60]   ; 0x3c
 8004bec:   4928        ldr r1, [pc, #160]  ; (8004c90 <PID_Compute+0x134>)
 8004bee:   f7fc fa39   bl  8001064 <__aeabi_fcmpgt>
 8004bf2:   2800        cmp r0, #0
 8004bf4:   d140        bne.n   8004c78 <PID_Compute+0x11c>
 8004bf6:   6be3        ldr r3, [r4, #60]   ; 0x3c
 8004bf8:   63e3        str r3, [r4, #60]   ; 0x3c
 8004bfa:   6b20        ldr r0, [r4, #48]   ; 0x30
 8004bfc:   6b61        ldr r1, [r4, #52]   ; 0x34
 8004bfe:   f7fb ff6b   bl  8000ad8 <__aeabi_fsub>
 8004c02:   6420        str r0, [r4, #64]   ; 0x40
 8004c04:   6ba5        ldr r5, [r4, #56]   ; 0x38
 8004c06:   4640        mov r0, r8
 8004c08:   6be1        ldr r1, [r4, #60]   ; 0x3c
 8004c0a:   f7fc f86f   bl  8000cec <__aeabi_fmul>
 8004c0e:   4629        mov r1, r5
 8004c10:   f7fb ff64   bl  8000adc <__addsf3>
 8004c14:   6c27        ldr r7, [r4, #64]   ; 0x40
 8004c16:   4605        mov r5, r0
 8004c18:   4639        mov r1, r7
 8004c1a:   4630        mov r0, r6
 8004c1c:   f7fc f866   bl  8000cec <__aeabi_fmul>
 8004c20:   4601        mov r1, r0
 8004c22:   4628        mov r0, r5
 8004c24:   f7fb ff58   bl  8000ad8 <__aeabi_fsub>
 8004c28:   64a0        str r0, [r4, #72]   ; 0x48
 8004c2a:   6ce0        ldr r0, [r4, #76]   ; 0x4c
 8004c2c:   f7fc f80a   bl  8000c44 <__aeabi_i2f>
 8004c30:   4916        ldr r1, [pc, #88]   ; (8004c8c <PID_Compute+0x130>)
 8004c32:   4605        mov r5, r0
 8004c34:   6ca0        ldr r0, [r4, #72]   ; 0x48
 8004c36:   f7fc f9f7   bl  8001028 <__aeabi_fcmplt>
 8004c3a:   b9f8        cbnz    r0, 8004c7c <PID_Compute+0x120>
 8004c3c:   6ca0        ldr r0, [r4, #72]   ; 0x48
 8004c3e:   4914        ldr r1, [pc, #80]   ; (8004c90 <PID_Compute+0x134>)
 8004c40:   f7fc fa10   bl  8001064 <__aeabi_fcmpgt>
 8004c44:   b9e0        cbnz    r0, 8004c80 <PID_Compute+0x124>
 8004c46:   6ca0        ldr r0, [r4, #72]   ; 0x48
 8004c48:   4629        mov r1, r5
 8004c4a:   f7fc f84f   bl  8000cec <__aeabi_fmul>
 8004c4e:   64a0        str r0, [r4, #72]   ; 0x48
 8004c50:   6b23        ldr r3, [r4, #48]   ; 0x30
 8004c52:   6363        str r3, [r4, #52]   ; 0x34
 8004c54:   6aa3        ldr r3, [r4, #40]   ; 0x28
 8004c56:   62e3        str r3, [r4, #44]   ; 0x2c
 8004c58:   6d23        ldr r3, [r4, #80]   ; 0x50
 8004c5a:   6563        str r3, [r4, #84]   ; 0x54
 8004c5c:   e8bd 81f0   ldmia.w sp!, {r4, r5, r6, r7, r8, pc}
 8004c60:   6aa0        ldr r0, [r4, #40]   ; 0x28
 8004c62:   490c        ldr r1, [pc, #48]   ; (8004c94 <PID_Compute+0x138>)
 8004c64:   f04f 0501   mov.w   r5, #1
 8004c68:   f7fc f9de   bl  8001028 <__aeabi_fcmplt>
 8004c6c:   e791        b.n 8004b92 <PID_Compute+0x36>
 8004c6e:   f101 4100   add.w   r1, r1, #2147483648 ; 0x80000000
 8004c72:   e79f        b.n 8004bb4 <PID_Compute+0x58>
 8004c74:   4b05        ldr r3, [pc, #20]   ; (8004c8c <PID_Compute+0x130>)
 8004c76:   e7bf        b.n 8004bf8 <PID_Compute+0x9c>
 8004c78:   4b05        ldr r3, [pc, #20]   ; (8004c90 <PID_Compute+0x134>)
 8004c7a:   e7bd        b.n 8004bf8 <PID_Compute+0x9c>
 8004c7c:   4803        ldr r0, [pc, #12]   ; (8004c8c <PID_Compute+0x130>)
 8004c7e:   e7e3        b.n 8004c48 <PID_Compute+0xec>
 8004c80:   4803        ldr r0, [pc, #12]   ; (8004c90 <PID_Compute+0x134>)
 8004c82:   e7e1        b.n 8004c48 <PID_Compute+0xec>
 8004c84:   43340000    .word   0x43340000
 8004c88:   43b40000    .word   0x43b40000
 8004c8c:   c3fa0000    .word   0xc3fa0000
 8004c90:   43fa0000    .word   0x43fa0000
 8004c94:   c3340000    .word   0xc3340000

08004c98 <PID_Init>:
 8004c98:   2301        movs    r3, #1
 8004c9a:   f04f 32ff   mov.w   r2, #4294967295 ; 0xffffffff
 8004c9e:   b5f0        push    {r4, r5, r6, r7, lr}
 8004ca0:   4819        ldr r0, [pc, #100]  ; (8004d08 <PID_Init+0x70>)
 8004ca2:   4c1a        ldr r4, [pc, #104]  ; (8004d0c <PID_Init+0x74>)
 8004ca4:   491a        ldr r1, [pc, #104]  ; (8004d10 <PID_Init+0x78>)
 8004ca6:   64e3        str r3, [r4, #76]   ; 0x4c
 8004ca8:   64c3        str r3, [r0, #76]   ; 0x4c
 8004caa:   64ca        str r2, [r1, #76]   ; 0x4c
 8004cac:   4a19        ldr r2, [pc, #100]  ; (8004d14 <PID_Init+0x7c>)
 8004cae:   4d1a        ldr r5, [pc, #104]  ; (8004d18 <PID_Init+0x80>)
 8004cb0:   64d3        str r3, [r2, #76]   ; 0x4c
 8004cb2:   4b1a        ldr r3, [pc, #104]  ; (8004d1c <PID_Init+0x84>)
 8004cb4:   4e1a        ldr r6, [pc, #104]  ; (8004d20 <PID_Init+0x88>)
 8004cb6:   6223        str r3, [r4, #32]
 8004cb8:   4b1a        ldr r3, [pc, #104]  ; (8004d24 <PID_Init+0x8c>)
 8004cba:   4f1b        ldr r7, [pc, #108]  ; (8004d28 <PID_Init+0x90>)
 8004cbc:   6203        str r3, [r0, #32]
 8004cbe:   4b1b        ldr r3, [pc, #108]  ; (8004d2c <PID_Init+0x94>)
 8004cc0:   620b        str r3, [r1, #32]
 8004cc2:   2300        movs    r3, #0
 8004cc4:   6213        str r3, [r2, #32]
 8004cc6:   6065        str r5, [r4, #4]
 8004cc8:   4d19        ldr r5, [pc, #100]  ; (8004d30 <PID_Init+0x98>)
 8004cca:   60a5        str r5, [r4, #8]
 8004ccc:   60e6        str r6, [r4, #12]
 8004cce:   6127        str r7, [r4, #16]
 8004cd0:   4f18        ldr r7, [pc, #96]   ; (8004d34 <PID_Init+0x9c>)
 8004cd2:   6165        str r5, [r4, #20]
 8004cd4:   61a7        str r7, [r4, #24]
 8004cd6:   4c18        ldr r4, [pc, #96]   ; (8004d38 <PID_Init+0xa0>)
 8004cd8:   4f18        ldr r7, [pc, #96]   ; (8004d3c <PID_Init+0xa4>)
 8004cda:   6044        str r4, [r0, #4]
 8004cdc:   6085        str r5, [r0, #8]
 8004cde:   60c7        str r7, [r0, #12]
 8004ce0:   6104        str r4, [r0, #16]
 8004ce2:   4c17        ldr r4, [pc, #92]   ; (8004d40 <PID_Init+0xa8>)
 8004ce4:   6145        str r5, [r0, #20]
 8004ce6:   6184        str r4, [r0, #24]
 8004ce8:   4816        ldr r0, [pc, #88]   ; (8004d44 <PID_Init+0xac>)
 8004cea:   6048        str r0, [r1, #4]
 8004cec:   4816        ldr r0, [pc, #88]   ; (8004d48 <PID_Init+0xb0>)
 8004cee:   6088        str r0, [r1, #8]
 8004cf0:   60ce        str r6, [r1, #12]
 8004cf2:   610b        str r3, [r1, #16]
 8004cf4:   614b        str r3, [r1, #20]
 8004cf6:   618b        str r3, [r1, #24]
 8004cf8:   4914        ldr r1, [pc, #80]   ; (8004d4c <PID_Init+0xb4>)
 8004cfa:   6051        str r1, [r2, #4]
 8004cfc:   6093        str r3, [r2, #8]
 8004cfe:   60d3        str r3, [r2, #12]
 8004d00:   6113        str r3, [r2, #16]
 8004d02:   6153        str r3, [r2, #20]
 8004d04:   6193        str r3, [r2, #24]
 8004d06:   bdf0        pop {r4, r5, r6, r7, pc}
 8004d08:   20000104    .word   0x20000104
 8004d0c:   200000a8    .word   0x200000a8
 8004d10:   20000160    .word   0x20000160
 8004d14:   2000004c    .word   0x2000004c
 8004d18:   408ccccd    .word   0x408ccccd
 8004d1c:   44bb8000    .word   0x44bb8000
 8004d20:   438c0000    .word   0x438c0000
 8004d24:   44b54000    .word   0x44b54000
 8004d28:   40900000    .word   0x40900000
 8004d2c:   44fa0000    .word   0x44fa0000
 8004d30:   3ca3d70a    .word   0x3ca3d70a
 8004d34:   43b40000    .word   0x43b40000
 8004d38:   40733333    .word   0x40733333
 8004d3c:   43820000    .word   0x43820000
 8004d40:   43a00000    .word   0x43a00000
 8004d44:   40400000    .word   0x40400000
 8004d48:   3c23d70a    .word   0x3c23d70a
 8004d4c:   41200000    .word   0x41200000

08004d50 <PID_UpdateAltitude>:
 8004d50:   b570        push    {r4, r5, r6, lr}
 8004d52:   4c10        ldr r4, [pc, #64]   ; (8004d94 <PID_UpdateAltitude+0x44>)
 8004d54:   7863        ldrb    r3, [r4, #1]
 8004d56:   b15b        cbz r3, 8004d70 <PID_UpdateAltitude+0x20>
 8004d58:   4e0f        ldr r6, [pc, #60]   ; (8004d98 <PID_UpdateAltitude+0x48>)
 8004d5a:   4d10        ldr r5, [pc, #64]   ; (8004d9c <PID_UpdateAltitude+0x4c>)
 8004d5c:   7833        ldrb    r3, [r6, #0]
 8004d5e:   b98b        cbnz    r3, 8004d84 <PID_UpdateAltitude+0x34>
 8004d60:   f7fe f94a   bl  8002ff8 <MS5611_GetFilteredAltitude>
 8004d64:   490e        ldr r1, [pc, #56]   ; (8004da0 <PID_UpdateAltitude+0x50>)
 8004d66:   f7fb ffc1   bl  8000cec <__aeabi_fmul>
 8004d6a:   2301        movs    r3, #1
 8004d6c:   61e8        str r0, [r5, #28]
 8004d6e:   7033        strb    r3, [r6, #0]
 8004d70:   7862        ldrb    r2, [r4, #1]
 8004d72:   b932        cbnz    r2, 8004d82 <PID_UpdateAltitude+0x32>
 8004d74:   4b08        ldr r3, [pc, #32]   ; (8004d98 <PID_UpdateAltitude+0x48>)
 8004d76:   7819        ldrb    r1, [r3, #0]
 8004d78:   b101        cbz r1, 8004d7c <PID_UpdateAltitude+0x2c>
 8004d7a:   701a        strb    r2, [r3, #0]
 8004d7c:   6862        ldr r2, [r4, #4]
 8004d7e:   4b07        ldr r3, [pc, #28]   ; (8004d9c <PID_UpdateAltitude+0x4c>)
 8004d80:   649a        str r2, [r3, #72]   ; 0x48
 8004d82:   bd70        pop {r4, r5, r6, pc}
 8004d84:   f7fe f938   bl  8002ff8 <MS5611_GetFilteredAltitude>
 8004d88:   4905        ldr r1, [pc, #20]   ; (8004da0 <PID_UpdateAltitude+0x50>)
 8004d8a:   f7fb ffaf   bl  8000cec <__aeabi_fmul>
 8004d8e:   6328        str r0, [r5, #48]   ; 0x30
 8004d90:   e7ee        b.n 8004d70 <PID_UpdateAltitude+0x20>
 8004d92:   bf00        nop
 8004d94:   20000280    .word   0x20000280
 8004d98:   200002a4    .word   0x200002a4
 8004d9c:   2000004c    .word   0x2000004c
 8004da0:   42c80000    .word   0x42c80000

08004da4 <PID_Update>:
 8004da4:   e92d 41f0   stmdb   sp!, {r4, r5, r6, r7, r8, lr}
 8004da8:   f7fe f852   bl  8002e50 <AHRS_GetPitch>
 8004dac:   4f58        ldr r7, [pc, #352]  ; (8004f10 <PID_Update+0x16c>)
 8004dae:   4d59        ldr r5, [pc, #356]  ; (8004f14 <PID_Update+0x170>)
 8004db0:   6338        str r0, [r7, #48]   ; 0x30
 8004db2:   f7fe f857   bl  8002e64 <AHRS_GetRoll>
 8004db6:   6328        str r0, [r5, #48]   ; 0x30
 8004db8:   f7fe f85e   bl  8002e78 <AHRS_GetYaw>
 8004dbc:   4e56        ldr r6, [pc, #344]  ; (8004f18 <PID_Update+0x174>)
 8004dbe:   6330        str r0, [r6, #48]   ; 0x30
 8004dc0:   f7ff ffc6   bl  8004d50 <PID_UpdateAltitude>
 8004dc4:   6b38        ldr r0, [r7, #48]   ; 0x30
 8004dc6:   2100        movs    r1, #0
 8004dc8:   f7fc f94c   bl  8001064 <__aeabi_fcmpgt>
 8004dcc:   46b0        mov r8, r6
 8004dce:   b1b8        cbz r0, 8004e00 <PID_Update+0x5c>
 8004dd0:   6b38        ldr r0, [r7, #48]   ; 0x30
 8004dd2:   4952        ldr r1, [pc, #328]  ; (8004f1c <PID_Update+0x178>)
 8004dd4:   f7fc f946   bl  8001064 <__aeabi_fcmpgt>
 8004dd8:   b948        cbnz    r0, 8004dee <PID_Update+0x4a>
 8004dda:   6b28        ldr r0, [r5, #48]   ; 0x30
 8004ddc:   2100        movs    r1, #0
 8004dde:   f7fc f941   bl  8001064 <__aeabi_fcmpgt>
 8004de2:   b190        cbz r0, 8004e0a <PID_Update+0x66>
 8004de4:   6b28        ldr r0, [r5, #48]   ; 0x30
 8004de6:   494d        ldr r1, [pc, #308]  ; (8004f1c <PID_Update+0x178>)
 8004de8:   f7fc f93c   bl  8001064 <__aeabi_fcmpgt>
 8004dec:   b190        cbz r0, 8004e14 <PID_Update+0x70>
 8004dee:   f7ff faba   bl  8004366 <Motor_StopAll>
 8004df2:   e8bd 41f0   ldmia.w sp!, {r4, r5, r6, r7, r8, lr}
 8004df6:   2200        movs    r2, #0
 8004df8:   2101        movs    r1, #1
 8004dfa:   4610        mov r0, r2
 8004dfc:   f7ff b876   b.w 8003eec <toggleLED>
 8004e00:   6b38        ldr r0, [r7, #48]   ; 0x30
 8004e02:   4947        ldr r1, [pc, #284]  ; (8004f20 <PID_Update+0x17c>)
 8004e04:   f7fc f910   bl  8001028 <__aeabi_fcmplt>
 8004e08:   e7e6        b.n 8004dd8 <PID_Update+0x34>
 8004e0a:   6b28        ldr r0, [r5, #48]   ; 0x30
 8004e0c:   4944        ldr r1, [pc, #272]  ; (8004f20 <PID_Update+0x17c>)
 8004e0e:   f7fc f90b   bl  8001028 <__aeabi_fcmplt>
 8004e12:   e7eb        b.n 8004dec <PID_Update+0x48>
 8004e14:   2201        movs    r2, #1
 8004e16:   4610        mov r0, r2
 8004e18:   4611        mov r1, r2
 8004e1a:   f7ff f867   bl  8003eec <toggleLED>
 8004e1e:   483c        ldr r0, [pc, #240]  ; (8004f10 <PID_Update+0x16c>)
 8004e20:   f7ff fe9c   bl  8004b5c <PID_Compute>
 8004e24:   4c3f        ldr r4, [pc, #252]  ; (8004f24 <PID_Update+0x180>)
 8004e26:   483b        ldr r0, [pc, #236]  ; (8004f14 <PID_Update+0x170>)
 8004e28:   f7ff fe98   bl  8004b5c <PID_Compute>
 8004e2c:   483a        ldr r0, [pc, #232]  ; (8004f18 <PID_Update+0x174>)
 8004e2e:   f7ff fe95   bl  8004b5c <PID_Compute>
 8004e32:   7863        ldrb    r3, [r4, #1]
 8004e34:   4e3c        ldr r6, [pc, #240]  ; (8004f28 <PID_Update+0x184>)
 8004e36:   b13b        cbz r3, 8004e48 <PID_Update+0xa4>
 8004e38:   4630        mov r0, r6
 8004e3a:   f7ff fe8f   bl  8004b5c <PID_Compute>
 8004e3e:   6cb0        ldr r0, [r6, #72]   ; 0x48
 8004e40:   493a        ldr r1, [pc, #232]  ; (8004f2c <PID_Update+0x188>)
 8004e42:   f7fb fe4b   bl  8000adc <__addsf3>
 8004e46:   64b0        str r0, [r6, #72]   ; 0x48
 8004e48:   6863        ldr r3, [r4, #4]
 8004e4a:   64b3        str r3, [r6, #72]   ; 0x48
 8004e4c:   7823        ldrb    r3, [r4, #0]
 8004e4e:   2b00        cmp r3, #0
 8004e50:   d05a        beq.n   8004f08 <PID_Update+0x164>
 8004e52:   6cb0        ldr r0, [r6, #72]   ; 0x48
 8004e54:   6cb9        ldr r1, [r7, #72]   ; 0x48
 8004e56:   6caa        ldr r2, [r5, #72]   ; 0x48
 8004e58:   f8d8 3048   ldr.w   r3, [r8, #72]   ; 0x48
 8004e5c:   f7ff fad6   bl  800440c <Motor_DistributeSpeed>
 8004e60:   6878        ldr r0, [r7, #4]
 8004e62:   4933        ldr r1, [pc, #204]  ; (8004f30 <PID_Update+0x18c>)
 8004e64:   f7fb ff42   bl  8000cec <__aeabi_fmul>
 8004e68:   f7fc f92c   bl  80010c4 <__aeabi_f2uiz>
 8004e6c:   4c31        ldr r4, [pc, #196]  ; (8004f34 <PID_Update+0x190>)
 8004e6e:   4930        ldr r1, [pc, #192]  ; (8004f30 <PID_Update+0x18c>)
 8004e70:   70e0        strb    r0, [r4, #3]
 8004e72:   68b8        ldr r0, [r7, #8]
 8004e74:   f7fb ff3a   bl  8000cec <__aeabi_fmul>
 8004e78:   f7fc f924   bl  80010c4 <__aeabi_f2uiz>
 8004e7c:   68fb        ldr r3, [r7, #12]
 8004e7e:   492c        ldr r1, [pc, #176]  ; (8004f30 <PID_Update+0x18c>)
 8004e80:   7120        strb    r0, [r4, #4]
 8004e82:   6868        ldr r0, [r5, #4]
 8004e84:   f7fb ff32   bl  8000cec <__aeabi_fmul>
 8004e88:   f7fc f91c   bl  80010c4 <__aeabi_f2uiz>
 8004e8c:   4928        ldr r1, [pc, #160]  ; (8004f30 <PID_Update+0x18c>)
 8004e8e:   7020        strb    r0, [r4, #0]
 8004e90:   68a8        ldr r0, [r5, #8]
 8004e92:   f7fb ff2b   bl  8000cec <__aeabi_fmul>
 8004e96:   f7fc f915   bl  80010c4 <__aeabi_f2uiz>
 8004e9a:   4925        ldr r1, [pc, #148]  ; (8004f30 <PID_Update+0x18c>)
 8004e9c:   7060        strb    r0, [r4, #1]
 8004e9e:   68e8        ldr r0, [r5, #12]
 8004ea0:   f7fb ff24   bl  8000cec <__aeabi_fmul>
 8004ea4:   f7fc f90e   bl  80010c4 <__aeabi_f2uiz>
 8004ea8:   4921        ldr r1, [pc, #132]  ; (8004f30 <PID_Update+0x18c>)
 8004eaa:   70a0        strb    r0, [r4, #2]
 8004eac:   f8d8 0004   ldr.w   r0, [r8, #4]
 8004eb0:   f7fb ff1c   bl  8000cec <__aeabi_fmul>
 8004eb4:   f7fc f906   bl  80010c4 <__aeabi_f2uiz>
 8004eb8:   491d        ldr r1, [pc, #116]  ; (8004f30 <PID_Update+0x18c>)
 8004eba:   71a0        strb    r0, [r4, #6]
 8004ebc:   f8d8 0008   ldr.w   r0, [r8, #8]
 8004ec0:   f7fb ff14   bl  8000cec <__aeabi_fmul>
 8004ec4:   f7fc f8fe   bl  80010c4 <__aeabi_f2uiz>
 8004ec8:   4919        ldr r1, [pc, #100]  ; (8004f30 <PID_Update+0x18c>)
 8004eca:   71e0        strb    r0, [r4, #7]
 8004ecc:   f8d8 000c   ldr.w   r0, [r8, #12]
 8004ed0:   f7fb ff0c   bl  8000cec <__aeabi_fmul>
 8004ed4:   f7fc f8f6   bl  80010c4 <__aeabi_f2uiz>
 8004ed8:   4915        ldr r1, [pc, #84]   ; (8004f30 <PID_Update+0x18c>)
 8004eda:   7220        strb    r0, [r4, #8]
 8004edc:   6870        ldr r0, [r6, #4]
 8004ede:   f7fb ff05   bl  8000cec <__aeabi_fmul>
 8004ee2:   f7fc f8ef   bl  80010c4 <__aeabi_f2uiz>
 8004ee6:   4912        ldr r1, [pc, #72]   ; (8004f30 <PID_Update+0x18c>)
 8004ee8:   7260        strb    r0, [r4, #9]
 8004eea:   68b0        ldr r0, [r6, #8]
 8004eec:   f7fb fefe   bl  8000cec <__aeabi_fmul>
 8004ef0:   f7fc f8e8   bl  80010c4 <__aeabi_f2uiz>
 8004ef4:   490e        ldr r1, [pc, #56]   ; (8004f30 <PID_Update+0x18c>)
 8004ef6:   72a0        strb    r0, [r4, #10]
 8004ef8:   68f0        ldr r0, [r6, #12]
 8004efa:   f7fb fef7   bl  8000cec <__aeabi_fmul>
 8004efe:   f7fc f8e1   bl  80010c4 <__aeabi_f2uiz>
 8004f02:   72e0        strb    r0, [r4, #11]
 8004f04:   e8bd 81f0   ldmia.w sp!, {r4, r5, r6, r7, r8, pc}
 8004f08:   f7ff fa2d   bl  8004366 <Motor_StopAll>
 8004f0c:   e7a8        b.n 8004e60 <PID_Update+0xbc>
 8004f0e:   bf00        nop
 8004f10:   200000a8    .word   0x200000a8
 8004f14:   20000104    .word   0x20000104
 8004f18:   20000160    .word   0x20000160
 8004f1c:   42a00000    .word   0x42a00000
 8004f20:   c2a00000    .word   0xc2a00000
 8004f24:   20000280    .word   0x20000280
 8004f28:   2000004c    .word   0x2000004c
 8004f2c:   44bb8000    .word   0x44bb8000
 8004f30:   437f0000    .word   0x437f0000
 8004f34:   20001397    .word   0x20001397

08004f38 <serialAvailable>:
 8004f38:   b508        push    {r3, lr}
 8004f3a:   4802        ldr r0, [pc, #8]    ; (8004f44 <serialAvailable+0xc>)
 8004f3c:   f7fe ffae   bl  8003e9c <CB_Size>
 8004f40:   bd08        pop {r3, pc}
 8004f42:   bf00        nop
 8004f44:   20000360    .word   0x20000360

08004f48 <serialWrite>:
 8004f48:   4903        ldr r1, [pc, #12]   ; (8004f58 <serialWrite+0x10>)
 8004f4a:   2305        movs    r3, #5
 8004f4c:   7008        strb    r0, [r1, #0]
 8004f4e:   2201        movs    r2, #1
 8004f50:   4802        ldr r0, [pc, #8]    ; (8004f5c <serialWrite+0x14>)
 8004f52:   f7fd bc25   b.w 80027a0 <HAL_UART_Transmit>
 8004f56:   bf00        nop
 8004f58:   20001632    .word   0x20001632
 8004f5c:   20001578    .word   0x20001578

08004f60 <serialRead>:
 8004f60:   b507        push    {r0, r1, r2, lr}
 8004f62:   4805        ldr r0, [pc, #20]   ; (8004f78 <serialRead+0x18>)
 8004f64:   f10d 0107   add.w   r1, sp, #7
 8004f68:   f7fe ff7d   bl  8003e66 <CB_Read>
 8004f6c:   f89d 0007   ldrb.w  r0, [sp, #7]
 8004f70:   b003        add sp, #12
 8004f72:   f85d fb04   ldr.w   pc, [sp], #4
 8004f76:   bf00        nop
 8004f78:   20000360    .word   0x20000360

08004f7c <HAL_UART_RxCpltCallback>:
 8004f7c:   6802        ldr r2, [r0, #0]
 8004f7e:   4b08        ldr r3, [pc, #32]   ; (8004fa0 <HAL_UART_RxCpltCallback+0x24>)
 8004f80:   b510        push    {r4, lr}
 8004f82:   429a        cmp r2, r3
 8004f84:   d10b        bne.n   8004f9e <HAL_UART_RxCpltCallback+0x22>
 8004f86:   4c07        ldr r4, [pc, #28]   ; (8004fa4 <HAL_UART_RxCpltCallback+0x28>)
 8004f88:   4807        ldr r0, [pc, #28]   ; (8004fa8 <HAL_UART_RxCpltCallback+0x2c>)
 8004f8a:   7821        ldrb    r1, [r4, #0]
 8004f8c:   f7fe ff56   bl  8003e3c <CB_Write>
 8004f90:   4621        mov r1, r4
 8004f92:   e8bd 4010   ldmia.w sp!, {r4, lr}
 8004f96:   2201        movs    r2, #1
 8004f98:   4804        ldr r0, [pc, #16]   ; (8004fac <HAL_UART_RxCpltCallback+0x30>)
 8004f9a:   f7fd bc5c   b.w 8002856 <HAL_UART_Receive_IT>
 8004f9e:   bd10        pop {r4, pc}
 8004fa0:   40013800    .word   0x40013800
 8004fa4:   20001630    .word   0x20001630
 8004fa8:   20000360    .word   0x20000360
 8004fac:   20001578    .word   0x20001578

08004fb0 <serialFlush>:
 8004fb0:   4801        ldr r0, [pc, #4]    ; (8004fb8 <serialFlush+0x8>)
 8004fb2:   f7fe bf77   b.w 8003ea4 <CB_Init>
 8004fb6:   bf00        nop
 8004fb8:   20000360    .word   0x20000360

08004fbc <serialBegin>:
 8004fbc:   b508        push    {r3, lr}
 8004fbe:   f7ff fff7   bl  8004fb0 <serialFlush>
 8004fc2:   e8bd 4008   ldmia.w sp!, {r3, lr}
 8004fc6:   2201        movs    r2, #1
 8004fc8:   4901        ldr r1, [pc, #4]    ; (8004fd0 <serialBegin+0x14>)
 8004fca:   4802        ldr r0, [pc, #8]    ; (8004fd4 <serialBegin+0x18>)
 8004fcc:   f7fd bc43   b.w 8002856 <HAL_UART_Receive_IT>
 8004fd0:   20001630    .word   0x20001630
 8004fd4:   20001578    .word   0x20001578

08004fd8 <serialPrint>:
 8004fd8:   b538        push    {r3, r4, r5, lr}
 8004fda:   4604        mov r4, r0
 8004fdc:   4605        mov r5, r0
 8004fde:   4620        mov r0, r4
 8004fe0:   f7fb f8b6   bl  8000150 <strlen>
 8004fe4:   1b2b        subs    r3, r5, r4
 8004fe6:   4298        cmp r0, r3
 8004fe8:   d800        bhi.n   8004fec <serialPrint+0x14>
 8004fea:   bd38        pop {r3, r4, r5, pc}
 8004fec:   f815 0b01   ldrb.w  r0, [r5], #1
 8004ff0:   f7ff ffaa   bl  8004f48 <serialWrite>
 8004ff4:   e7f3        b.n 8004fde <serialPrint+0x6>
    ...

08004ff8 <serialInt>:
 8004ff8:   b510        push    {r4, lr}
 8004ffa:   4c05        ldr r4, [pc, #20]   ; (8005010 <serialInt+0x18>)
 8004ffc:   4602        mov r2, r0
 8004ffe:   4905        ldr r1, [pc, #20]   ; (8005014 <serialInt+0x1c>)
 8005000:   4620        mov r0, r4
 8005002:   f000 f9a1   bl  8005348 <siprintf>
 8005006:   4620        mov r0, r4
 8005008:   e8bd 4010   ldmia.w sp!, {r4, lr}
 800500c:   f7ff bfe4   b.w 8004fd8 <serialPrint>
 8005010:   20001632    .word   0x20001632
 8005014:   080076ae    .word   0x080076ae

08005018 <HAL_MspInit>:
 8005018:   4b1d        ldr r3, [pc, #116]  ; (8005090 <HAL_MspInit+0x78>)
 800501a:   b507        push    {r0, r1, r2, lr}
 800501c:   699a        ldr r2, [r3, #24]
 800501e:   2003        movs    r0, #3
 8005020:   f042 0201   orr.w   r2, r2, #1
 8005024:   619a        str r2, [r3, #24]
 8005026:   699b        ldr r3, [r3, #24]
 8005028:   f003 0301   and.w   r3, r3, #1
 800502c:   9301        str r3, [sp, #4]
 800502e:   9b01        ldr r3, [sp, #4]
 8005030:   f7fc f8a8   bl  8001184 <HAL_NVIC_SetPriorityGrouping>
 8005034:   2200        movs    r2, #0
 8005036:   f06f 000b   mvn.w   r0, #11
 800503a:   4611        mov r1, r2
 800503c:   f7fc f8b4   bl  80011a8 <HAL_NVIC_SetPriority>
 8005040:   2200        movs    r2, #0
 8005042:   f06f 000a   mvn.w   r0, #10
 8005046:   4611        mov r1, r2
 8005048:   f7fc f8ae   bl  80011a8 <HAL_NVIC_SetPriority>
 800504c:   2200        movs    r2, #0
 800504e:   f06f 0009   mvn.w   r0, #9
 8005052:   4611        mov r1, r2
 8005054:   f7fc f8a8   bl  80011a8 <HAL_NVIC_SetPriority>
 8005058:   2200        movs    r2, #0
 800505a:   f06f 0004   mvn.w   r0, #4
 800505e:   4611        mov r1, r2
 8005060:   f7fc f8a2   bl  80011a8 <HAL_NVIC_SetPriority>
 8005064:   2200        movs    r2, #0
 8005066:   f06f 0003   mvn.w   r0, #3
 800506a:   4611        mov r1, r2
 800506c:   f7fc f89c   bl  80011a8 <HAL_NVIC_SetPriority>
 8005070:   2200        movs    r2, #0
 8005072:   f06f 0001   mvn.w   r0, #1
 8005076:   4611        mov r1, r2
 8005078:   f7fc f896   bl  80011a8 <HAL_NVIC_SetPriority>
 800507c:   2200        movs    r2, #0
 800507e:   f04f 30ff   mov.w   r0, #4294967295 ; 0xffffffff
 8005082:   4611        mov r1, r2
 8005084:   f7fc f890   bl  80011a8 <HAL_NVIC_SetPriority>
 8005088:   b003        add sp, #12
 800508a:   f85d fb04   ldr.w   pc, [sp], #4
 800508e:   bf00        nop
 8005090:   40021000    .word   0x40021000

08005094 <HAL_I2C_MspInit>:
 8005094:   b57f        push    {r0, r1, r2, r3, r4, r5, r6, lr}
 8005096:   6802        ldr r2, [r0, #0]
 8005098:   4b0c        ldr r3, [pc, #48]   ; (80050cc <HAL_I2C_MspInit+0x38>)
 800509a:   429a        cmp r2, r3
 800509c:   d113        bne.n   80050c6 <HAL_I2C_MspInit+0x32>
 800509e:   23c0        movs    r3, #192    ; 0xc0
 80050a0:   9302        str r3, [sp, #8]
 80050a2:   2312        movs    r3, #18
 80050a4:   9303        str r3, [sp, #12]
 80050a6:   2303        movs    r3, #3
 80050a8:   a902        add r1, sp, #8
 80050aa:   4809        ldr r0, [pc, #36]   ; (80050d0 <HAL_I2C_MspInit+0x3c>)
 80050ac:   9305        str r3, [sp, #20]
 80050ae:   f7fc f8e3   bl  8001278 <HAL_GPIO_Init>
 80050b2:   4b08        ldr r3, [pc, #32]   ; (80050d4 <HAL_I2C_MspInit+0x40>)
 80050b4:   69da        ldr r2, [r3, #28]
 80050b6:   f442 1200   orr.w   r2, r2, #2097152    ; 0x200000
 80050ba:   61da        str r2, [r3, #28]
 80050bc:   69db        ldr r3, [r3, #28]
 80050be:   f403 1300   and.w   r3, r3, #2097152    ; 0x200000
 80050c2:   9301        str r3, [sp, #4]
 80050c4:   9b01        ldr r3, [sp, #4]
 80050c6:   b007        add sp, #28
 80050c8:   f85d fb04   ldr.w   pc, [sp], #4
 80050cc:   40005400    .word   0x40005400
 80050d0:   40010c00    .word   0x40010c00
 80050d4:   40021000    .word   0x40021000

080050d8 <HAL_TIM_PWM_MspInit>:
 80050d8:   6803        ldr r3, [r0, #0]
 80050da:   4a1d        ldr r2, [pc, #116]  ; (8005150 <HAL_TIM_PWM_MspInit+0x78>)
 80050dc:   b084        sub sp, #16
 80050de:   4293        cmp r3, r2
 80050e0:   d10b        bne.n   80050fa <HAL_TIM_PWM_MspInit+0x22>
 80050e2:   4b1c        ldr r3, [pc, #112]  ; (8005154 <HAL_TIM_PWM_MspInit+0x7c>)
 80050e4:   699a        ldr r2, [r3, #24]
 80050e6:   f442 6200   orr.w   r2, r2, #2048   ; 0x800
 80050ea:   619a        str r2, [r3, #24]
 80050ec:   699b        ldr r3, [r3, #24]
 80050ee:   f403 6300   and.w   r3, r3, #2048   ; 0x800
 80050f2:   9300        str r3, [sp, #0]
 80050f4:   9b00        ldr r3, [sp, #0]
 80050f6:   b004        add sp, #16
 80050f8:   4770        bx  lr
 80050fa:   f1b3 4f80   cmp.w   r3, #1073741824 ; 0x40000000
 80050fe:   d10b        bne.n   8005118 <HAL_TIM_PWM_MspInit+0x40>
 8005100:   f503 3304   add.w   r3, r3, #135168 ; 0x21000
 8005104:   69da        ldr r2, [r3, #28]
 8005106:   f042 0201   orr.w   r2, r2, #1
 800510a:   61da        str r2, [r3, #28]
 800510c:   69db        ldr r3, [r3, #28]
 800510e:   f003 0301   and.w   r3, r3, #1
 8005112:   9301        str r3, [sp, #4]
 8005114:   9b01        ldr r3, [sp, #4]
 8005116:   e7ee        b.n 80050f6 <HAL_TIM_PWM_MspInit+0x1e>
 8005118:   4a0f        ldr r2, [pc, #60]   ; (8005158 <HAL_TIM_PWM_MspInit+0x80>)
 800511a:   4293        cmp r3, r2
 800511c:   d10a        bne.n   8005134 <HAL_TIM_PWM_MspInit+0x5c>
 800511e:   4b0d        ldr r3, [pc, #52]   ; (8005154 <HAL_TIM_PWM_MspInit+0x7c>)
 8005120:   69da        ldr r2, [r3, #28]
 8005122:   f042 0202   orr.w   r2, r2, #2
 8005126:   61da        str r2, [r3, #28]
 8005128:   69db        ldr r3, [r3, #28]
 800512a:   f003 0302   and.w   r3, r3, #2
 800512e:   9302        str r3, [sp, #8]
 8005130:   9b02        ldr r3, [sp, #8]
 8005132:   e7e0        b.n 80050f6 <HAL_TIM_PWM_MspInit+0x1e>
 8005134:   4a09        ldr r2, [pc, #36]   ; (800515c <HAL_TIM_PWM_MspInit+0x84>)
 8005136:   4293        cmp r3, r2
 8005138:   d1dd        bne.n   80050f6 <HAL_TIM_PWM_MspInit+0x1e>
 800513a:   4b06        ldr r3, [pc, #24]   ; (8005154 <HAL_TIM_PWM_MspInit+0x7c>)
 800513c:   69da        ldr r2, [r3, #28]
 800513e:   f042 0204   orr.w   r2, r2, #4
 8005142:   61da        str r2, [r3, #28]
 8005144:   69db        ldr r3, [r3, #28]
 8005146:   f003 0304   and.w   r3, r3, #4
 800514a:   9303        str r3, [sp, #12]
 800514c:   9b03        ldr r3, [sp, #12]
 800514e:   e7d2        b.n 80050f6 <HAL_TIM_PWM_MspInit+0x1e>
 8005150:   40012c00    .word   0x40012c00
 8005154:   40021000    .word   0x40021000
 8005158:   40000400    .word   0x40000400
 800515c:   40000800    .word   0x40000800

08005160 <HAL_TIM_MspPostInit>:
 8005160:   b51f        push    {r0, r1, r2, r3, r4, lr}
 8005162:   6803        ldr r3, [r0, #0]
 8005164:   4a13        ldr r2, [pc, #76]   ; (80051b4 <HAL_TIM_MspPostInit+0x54>)
 8005166:   4293        cmp r3, r2
 8005168:   d10c        bne.n   8005184 <HAL_TIM_MspPostInit+0x24>
 800516a:   f44f 6300   mov.w   r3, #2048   ; 0x800
 800516e:   9300        str r3, [sp, #0]
 8005170:   2302        movs    r3, #2
 8005172:   4669        mov r1, sp
 8005174:   4810        ldr r0, [pc, #64]   ; (80051b8 <HAL_TIM_MspPostInit+0x58>)
 8005176:   9301        str r3, [sp, #4]
 8005178:   9303        str r3, [sp, #12]
 800517a:   f7fc f87d   bl  8001278 <HAL_GPIO_Init>
 800517e:   b005        add sp, #20
 8005180:   f85d fb04   ldr.w   pc, [sp], #4
 8005184:   f1b3 4f80   cmp.w   r3, #1073741824 ; 0x40000000
 8005188:   d102        bne.n   8005190 <HAL_TIM_MspPostInit+0x30>
 800518a:   2302        movs    r3, #2
 800518c:   9300        str r3, [sp, #0]
 800518e:   e7f0        b.n 8005172 <HAL_TIM_MspPostInit+0x12>
 8005190:   4a0a        ldr r2, [pc, #40]   ; (80051bc <HAL_TIM_MspPostInit+0x5c>)
 8005192:   4293        cmp r3, r2
 8005194:   d107        bne.n   80051a6 <HAL_TIM_MspPostInit+0x46>
 8005196:   2303        movs    r3, #3
 8005198:   9300        str r3, [sp, #0]
 800519a:   2302        movs    r3, #2
 800519c:   4669        mov r1, sp
 800519e:   9301        str r3, [sp, #4]
 80051a0:   9303        str r3, [sp, #12]
 80051a2:   4807        ldr r0, [pc, #28]   ; (80051c0 <HAL_TIM_MspPostInit+0x60>)
 80051a4:   e7e9        b.n 800517a <HAL_TIM_MspPostInit+0x1a>
 80051a6:   4a07        ldr r2, [pc, #28]   ; (80051c4 <HAL_TIM_MspPostInit+0x64>)
 80051a8:   4293        cmp r3, r2
 80051aa:   d1e8        bne.n   800517e <HAL_TIM_MspPostInit+0x1e>
 80051ac:   f44f 7340   mov.w   r3, #768    ; 0x300
 80051b0:   e7f2        b.n 8005198 <HAL_TIM_MspPostInit+0x38>
 80051b2:   bf00        nop
 80051b4:   40012c00    .word   0x40012c00
 80051b8:   40010800    .word   0x40010800
 80051bc:   40000400    .word   0x40000400
 80051c0:   40010c00    .word   0x40010c00
 80051c4:   40000800    .word   0x40000800

080051c8 <HAL_UART_MspInit>:
 80051c8:   b510        push    {r4, lr}
 80051ca:   6802        ldr r2, [r0, #0]
 80051cc:   4b16        ldr r3, [pc, #88]   ; (8005228 <HAL_UART_MspInit+0x60>)
 80051ce:   b086        sub sp, #24
 80051d0:   429a        cmp r2, r3
 80051d2:   d127        bne.n   8005224 <HAL_UART_MspInit+0x5c>
 80051d4:   f503 4358   add.w   r3, r3, #55296  ; 0xd800
 80051d8:   699a        ldr r2, [r3, #24]
 80051da:   a902        add r1, sp, #8
 80051dc:   f442 4280   orr.w   r2, r2, #16384  ; 0x4000
 80051e0:   619a        str r2, [r3, #24]
 80051e2:   699b        ldr r3, [r3, #24]
 80051e4:   4811        ldr r0, [pc, #68]   ; (800522c <HAL_UART_MspInit+0x64>)
 80051e6:   f403 4380   and.w   r3, r3, #16384  ; 0x4000
 80051ea:   9301        str r3, [sp, #4]
 80051ec:   9b01        ldr r3, [sp, #4]
 80051ee:   f44f 7300   mov.w   r3, #512    ; 0x200
 80051f2:   9302        str r3, [sp, #8]
 80051f4:   2302        movs    r3, #2
 80051f6:   9303        str r3, [sp, #12]
 80051f8:   2303        movs    r3, #3
 80051fa:   2400        movs    r4, #0
 80051fc:   9305        str r3, [sp, #20]
 80051fe:   f7fc f83b   bl  8001278 <HAL_GPIO_Init>
 8005202:   f44f 6380   mov.w   r3, #1024   ; 0x400
 8005206:   a902        add r1, sp, #8
 8005208:   4808        ldr r0, [pc, #32]   ; (800522c <HAL_UART_MspInit+0x64>)
 800520a:   9302        str r3, [sp, #8]
 800520c:   9403        str r4, [sp, #12]
 800520e:   9404        str r4, [sp, #16]
 8005210:   f7fc f832   bl  8001278 <HAL_GPIO_Init>
 8005214:   2025        movs    r0, #37 ; 0x25
 8005216:   4622        mov r2, r4
 8005218:   4621        mov r1, r4
 800521a:   f7fb ffc5   bl  80011a8 <HAL_NVIC_SetPriority>
 800521e:   2025        movs    r0, #37 ; 0x25
 8005220:   f7fb fff6   bl  8001210 <HAL_NVIC_EnableIRQ>
 8005224:   b006        add sp, #24
 8005226:   bd10        pop {r4, pc}
 8005228:   40013800    .word   0x40013800
 800522c:   40010800    .word   0x40010800

08005230 <NMI_Handler>:
 8005230:   4770        bx  lr

08005232 <HardFault_Handler>:
 8005232:   e7fe        b.n 8005232 <HardFault_Handler>

08005234 <MemManage_Handler>:
 8005234:   e7fe        b.n 8005234 <MemManage_Handler>

08005236 <BusFault_Handler>:
 8005236:   e7fe        b.n 8005236 <BusFault_Handler>

08005238 <UsageFault_Handler>:
 8005238:   e7fe        b.n 8005238 <UsageFault_Handler>

0800523a <SVC_Handler>:
 800523a:   4770        bx  lr

0800523c <DebugMon_Handler>:
 800523c:   4770        bx  lr

0800523e <PendSV_Handler>:
 800523e:   4770        bx  lr

08005240 <SysTick_Handler>:
 8005240:   b508        push    {r3, lr}
 8005242:   f7fb ff83   bl  800114c <HAL_IncTick>
 8005246:   e8bd 4008   ldmia.w sp!, {r3, lr}
 800524a:   f7fc b810   b.w 800126e <HAL_SYSTICK_IRQHandler>
    ...

08005250 <USART1_IRQHandler>:
 8005250:   4801        ldr r0, [pc, #4]    ; (8005258 <USART1_IRQHandler+0x8>)
 8005252:   f7fd bb34   b.w 80028be <HAL_UART_IRQHandler>
 8005256:   bf00        nop
 8005258:   20001578    .word   0x20001578

0800525c <SystemInit>:
 800525c:   4b0f        ldr r3, [pc, #60]   ; (800529c <SystemInit+0x40>)
 800525e:   681a        ldr r2, [r3, #0]
 8005260:   f042 0201   orr.w   r2, r2, #1
 8005264:   601a        str r2, [r3, #0]
 8005266:   6859        ldr r1, [r3, #4]
 8005268:   4a0d        ldr r2, [pc, #52]   ; (80052a0 <SystemInit+0x44>)
 800526a:   400a        ands    r2, r1
 800526c:   605a        str r2, [r3, #4]
 800526e:   681a        ldr r2, [r3, #0]
 8005270:   f022 7284   bic.w   r2, r2, #17301504   ; 0x1080000
 8005274:   f422 3280   bic.w   r2, r2, #65536  ; 0x10000
 8005278:   601a        str r2, [r3, #0]
 800527a:   681a        ldr r2, [r3, #0]
 800527c:   f422 2280   bic.w   r2, r2, #262144 ; 0x40000
 8005280:   601a        str r2, [r3, #0]
 8005282:   685a        ldr r2, [r3, #4]
 8005284:   f422 02fe   bic.w   r2, r2, #8323072    ; 0x7f0000
 8005288:   605a        str r2, [r3, #4]
 800528a:   f44f 021f   mov.w   r2, #10420224   ; 0x9f0000
 800528e:   609a        str r2, [r3, #8]
 8005290:   f04f 6200   mov.w   r2, #134217728  ; 0x8000000
 8005294:   4b03        ldr r3, [pc, #12]   ; (80052a4 <SystemInit+0x48>)
 8005296:   609a        str r2, [r3, #8]
 8005298:   4770        bx  lr
 800529a:   bf00        nop
 800529c:   40021000    .word   0x40021000
 80052a0:   f8ff0000    .word   0xf8ff0000
 80052a4:   e000ed00    .word   0xe000ed00

080052a8 <millis>:
 80052a8:   f7fb bf58   b.w 800115c <HAL_GetTick>

080052ac <micros>:
 80052ac:   f7fb bf56   b.w 800115c <HAL_GetTick>

080052b0 <delay_ms>:
 80052b0:   f7fb bf5a   b.w 8001168 <HAL_Delay>

080052b4 <Reset_Handler>:
 80052b4:   2100        movs    r1, #0
 80052b6:   e003        b.n 80052c0 <LoopCopyDataInit>

080052b8 <CopyDataInit>:
 80052b8:   4b0b        ldr r3, [pc, #44]   ; (80052e8 <LoopFillZerobss+0x14>)
 80052ba:   585b        ldr r3, [r3, r1]
 80052bc:   5043        str r3, [r0, r1]
 80052be:   3104        adds    r1, #4

080052c0 <LoopCopyDataInit>:
 80052c0:   480a        ldr r0, [pc, #40]   ; (80052ec <LoopFillZerobss+0x18>)
 80052c2:   4b0b        ldr r3, [pc, #44]   ; (80052f0 <LoopFillZerobss+0x1c>)
 80052c4:   1842        adds    r2, r0, r1
 80052c6:   429a        cmp r2, r3
 80052c8:   d3f6        bcc.n   80052b8 <CopyDataInit>
 80052ca:   4a0a        ldr r2, [pc, #40]   ; (80052f4 <LoopFillZerobss+0x20>)
 80052cc:   e002        b.n 80052d4 <LoopFillZerobss>

080052ce <FillZerobss>:
 80052ce:   2300        movs    r3, #0
 80052d0:   f842 3b04   str.w   r3, [r2], #4

080052d4 <LoopFillZerobss>:
 80052d4:   4b08        ldr r3, [pc, #32]   ; (80052f8 <LoopFillZerobss+0x24>)
 80052d6:   429a        cmp r2, r3
 80052d8:   d3f9        bcc.n   80052ce <FillZerobss>
 80052da:   f7ff ffbf   bl  800525c <SystemInit>
 80052de:   f000 f80f   bl  8005300 <__libc_init_array>
 80052e2:   f7ff f83a   bl  800435a <main>
 80052e6:   4770        bx  lr
 80052e8:   08007798    .word   0x08007798
 80052ec:   20000000    .word   0x20000000
 80052f0:   20000228    .word   0x20000228
 80052f4:   20000228    .word   0x20000228
 80052f8:   2000169c    .word   0x2000169c

080052fc <ADC1_2_IRQHandler>:
 80052fc:   e7fe        b.n 80052fc <ADC1_2_IRQHandler>
    ...

08005300 <__libc_init_array>:
 8005300:   b570        push    {r4, r5, r6, lr}
 8005302:   2500        movs    r5, #0
 8005304:   4e0c        ldr r6, [pc, #48]   ; (8005338 <__libc_init_array+0x38>)
 8005306:   4c0d        ldr r4, [pc, #52]   ; (800533c <__libc_init_array+0x3c>)
 8005308:   1ba4        subs    r4, r4, r6
 800530a:   10a4        asrs    r4, r4, #2
 800530c:   42a5        cmp r5, r4
 800530e:   d109        bne.n   8005324 <__libc_init_array+0x24>
 8005310:   f002 f988   bl  8007624 <_init>
 8005314:   2500        movs    r5, #0
 8005316:   4e0a        ldr r6, [pc, #40]   ; (8005340 <__libc_init_array+0x40>)
 8005318:   4c0a        ldr r4, [pc, #40]   ; (8005344 <__libc_init_array+0x44>)
 800531a:   1ba4        subs    r4, r4, r6
 800531c:   10a4        asrs    r4, r4, #2
 800531e:   42a5        cmp r5, r4
 8005320:   d105        bne.n   800532e <__libc_init_array+0x2e>
 8005322:   bd70        pop {r4, r5, r6, pc}
 8005324:   f856 3025   ldr.w   r3, [r6, r5, lsl #2]
 8005328:   4798        blx r3
 800532a:   3501        adds    r5, #1
 800532c:   e7ee        b.n 800530c <__libc_init_array+0xc>
 800532e:   f856 3025   ldr.w   r3, [r6, r5, lsl #2]
 8005332:   4798        blx r3
 8005334:   3501        adds    r5, #1
 8005336:   e7f2        b.n 800531e <__libc_init_array+0x1e>
 8005338:   08007790    .word   0x08007790
 800533c:   08007790    .word   0x08007790
 8005340:   08007790    .word   0x08007790
 8005344:   08007794    .word   0x08007794

08005348 <siprintf>:
 8005348:   b40e        push    {r1, r2, r3}
 800534a:   f44f 7102   mov.w   r1, #520    ; 0x208
 800534e:   b500        push    {lr}
 8005350:   b09c        sub sp, #112    ; 0x70
 8005352:   f8ad 1014   strh.w  r1, [sp, #20]
 8005356:   f06f 4100   mvn.w   r1, #2147483648 ; 0x80000000
 800535a:   9104        str r1, [sp, #16]
 800535c:   9107        str r1, [sp, #28]
 800535e:   f64f 71ff   movw    r1, #65535  ; 0xffff
 8005362:   ab1d        add r3, sp, #116    ; 0x74
 8005364:   9002        str r0, [sp, #8]
 8005366:   9006        str r0, [sp, #24]
 8005368:   4808        ldr r0, [pc, #32]   ; (800538c <siprintf+0x44>)
 800536a:   f853 2b04   ldr.w   r2, [r3], #4
 800536e:   f8ad 1016   strh.w  r1, [sp, #22]
 8005372:   6800        ldr r0, [r0, #0]
 8005374:   a902        add r1, sp, #8
 8005376:   9301        str r3, [sp, #4]
 8005378:   f000 f866   bl  8005448 <_svfiprintf_r>
 800537c:   2200        movs    r2, #0
 800537e:   9b02        ldr r3, [sp, #8]
 8005380:   701a        strb    r2, [r3, #0]
 8005382:   b01c        add sp, #112    ; 0x70
 8005384:   f85d eb04   ldr.w   lr, [sp], #4
 8005388:   b003        add sp, #12
 800538a:   4770        bx  lr
 800538c:   200001c0    .word   0x200001c0

08005390 <__ssputs_r>:
 8005390:   e92d 47f0   stmdb   sp!, {r4, r5, r6, r7, r8, r9, sl, lr}
 8005394:   688e        ldr r6, [r1, #8]
 8005396:   4682        mov sl, r0
 8005398:   429e        cmp r6, r3
 800539a:   460c        mov r4, r1
 800539c:   4691        mov r9, r2
 800539e:   4698        mov r8, r3
 80053a0:   d835        bhi.n   800540e <__ssputs_r+0x7e>
 80053a2:   898a        ldrh    r2, [r1, #12]
 80053a4:   f412 6f90   tst.w   r2, #1152   ; 0x480
 80053a8:   d031        beq.n   800540e <__ssputs_r+0x7e>
 80053aa:   2302        movs    r3, #2
 80053ac:   6825        ldr r5, [r4, #0]
 80053ae:   6909        ldr r1, [r1, #16]
 80053b0:   1a6f        subs    r7, r5, r1
 80053b2:   6965        ldr r5, [r4, #20]
 80053b4:   eb05 0545   add.w   r5, r5, r5, lsl #1
 80053b8:   fb95 f5f3   sdiv    r5, r5, r3
 80053bc:   f108 0301   add.w   r3, r8, #1
 80053c0:   443b        add r3, r7
 80053c2:   429d        cmp r5, r3
 80053c4:   bf38        it  cc
 80053c6:   461d        movcc   r5, r3
 80053c8:   0553        lsls    r3, r2, #21
 80053ca:   d531        bpl.n   8005430 <__ssputs_r+0xa0>
 80053cc:   4629        mov r1, r5
 80053ce:   f000 fb47   bl  8005a60 <_malloc_r>
 80053d2:   4606        mov r6, r0
 80053d4:   b950        cbnz    r0, 80053ec <__ssputs_r+0x5c>
 80053d6:   230c        movs    r3, #12
 80053d8:   f8ca 3000   str.w   r3, [sl]
 80053dc:   89a3        ldrh    r3, [r4, #12]
 80053de:   f04f 30ff   mov.w   r0, #4294967295 ; 0xffffffff
 80053e2:   f043 0340   orr.w   r3, r3, #64 ; 0x40
 80053e6:   81a3        strh    r3, [r4, #12]
 80053e8:   e8bd 87f0   ldmia.w sp!, {r4, r5, r6, r7, r8, r9, sl, pc}
 80053ec:   463a        mov r2, r7
 80053ee:   6921        ldr r1, [r4, #16]
 80053f0:   f000 fac4   bl  800597c <memcpy>
 80053f4:   89a3        ldrh    r3, [r4, #12]
 80053f6:   f423 6390   bic.w   r3, r3, #1152   ; 0x480
 80053fa:   f043 0380   orr.w   r3, r3, #128    ; 0x80
 80053fe:   81a3        strh    r3, [r4, #12]
 8005400:   6126        str r6, [r4, #16]
 8005402:   443e        add r6, r7
 8005404:   6026        str r6, [r4, #0]
 8005406:   4646        mov r6, r8
 8005408:   6165        str r5, [r4, #20]
 800540a:   1bed        subs    r5, r5, r7
 800540c:   60a5        str r5, [r4, #8]
 800540e:   4546        cmp r6, r8
 8005410:   bf28        it  cs
 8005412:   4646        movcs   r6, r8
 8005414:   4649        mov r1, r9
 8005416:   4632        mov r2, r6
 8005418:   6820        ldr r0, [r4, #0]
 800541a:   f000 faba   bl  8005992 <memmove>
 800541e:   68a3        ldr r3, [r4, #8]
 8005420:   2000        movs    r0, #0
 8005422:   1b9b        subs    r3, r3, r6
 8005424:   60a3        str r3, [r4, #8]
 8005426:   6823        ldr r3, [r4, #0]
 8005428:   441e        add r6, r3
 800542a:   6026        str r6, [r4, #0]
 800542c:   e8bd 87f0   ldmia.w sp!, {r4, r5, r6, r7, r8, r9, sl, pc}
 8005430:   462a        mov r2, r5
 8005432:   f000 fb73   bl  8005b1c <_realloc_r>
 8005436:   4606        mov r6, r0
 8005438:   2800        cmp r0, #0
 800543a:   d1e1        bne.n   8005400 <__ssputs_r+0x70>
 800543c:   6921        ldr r1, [r4, #16]
 800543e:   4650        mov r0, sl
 8005440:   f000 fac2   bl  80059c8 <_free_r>
 8005444:   e7c7        b.n 80053d6 <__ssputs_r+0x46>
    ...

08005448 <_svfiprintf_r>:
 8005448:   e92d 4ff0   stmdb   sp!, {r4, r5, r6, r7, r8, r9, sl, fp, lr}
 800544c:   b09d        sub sp, #116    ; 0x74
 800544e:   9303        str r3, [sp, #12]
 8005450:   898b        ldrh    r3, [r1, #12]
 8005452:   4680        mov r8, r0
 8005454:   061c        lsls    r4, r3, #24
 8005456:   460d        mov r5, r1
 8005458:   4616        mov r6, r2
 800545a:   d50f        bpl.n   800547c <_svfiprintf_r+0x34>
 800545c:   690b        ldr r3, [r1, #16]
 800545e:   b96b        cbnz    r3, 800547c <_svfiprintf_r+0x34>
 8005460:   2140        movs    r1, #64 ; 0x40
 8005462:   f000 fafd   bl  8005a60 <_malloc_r>
 8005466:   6028        str r0, [r5, #0]
 8005468:   6128        str r0, [r5, #16]
 800546a:   b928        cbnz    r0, 8005478 <_svfiprintf_r+0x30>
 800546c:   230c        movs    r3, #12
 800546e:   f8c8 3000   str.w   r3, [r8]
 8005472:   f04f 30ff   mov.w   r0, #4294967295 ; 0xffffffff
 8005476:   e0c4        b.n 8005602 <_svfiprintf_r+0x1ba>
 8005478:   2340        movs    r3, #64 ; 0x40
 800547a:   616b        str r3, [r5, #20]
 800547c:   2300        movs    r3, #0
 800547e:   9309        str r3, [sp, #36]   ; 0x24
 8005480:   2320        movs    r3, #32
 8005482:   f88d 3029   strb.w  r3, [sp, #41]   ; 0x29
 8005486:   2330        movs    r3, #48 ; 0x30
 8005488:   f04f 0b01   mov.w   fp, #1
 800548c:   f88d 302a   strb.w  r3, [sp, #42]   ; 0x2a
 8005490:   4637        mov r7, r6
 8005492:   463c        mov r4, r7
 8005494:   f814 3b01   ldrb.w  r3, [r4], #1
 8005498:   2b00        cmp r3, #0
 800549a:   d13c        bne.n   8005516 <_svfiprintf_r+0xce>
 800549c:   ebb7 0a06   subs.w  sl, r7, r6
 80054a0:   d00b        beq.n   80054ba <_svfiprintf_r+0x72>
 80054a2:   4653        mov r3, sl
 80054a4:   4632        mov r2, r6
 80054a6:   4629        mov r1, r5
 80054a8:   4640        mov r0, r8
 80054aa:   f7ff ff71   bl  8005390 <__ssputs_r>
 80054ae:   3001        adds    r0, #1
 80054b0:   f000 80a2   beq.w   80055f8 <_svfiprintf_r+0x1b0>
 80054b4:   9b09        ldr r3, [sp, #36]   ; 0x24
 80054b6:   4453        add r3, sl
 80054b8:   9309        str r3, [sp, #36]   ; 0x24
 80054ba:   783b        ldrb    r3, [r7, #0]
 80054bc:   2b00        cmp r3, #0
 80054be:   f000 809b   beq.w   80055f8 <_svfiprintf_r+0x1b0>
 80054c2:   2300        movs    r3, #0
 80054c4:   f04f 32ff   mov.w   r2, #4294967295 ; 0xffffffff
 80054c8:   9304        str r3, [sp, #16]
 80054ca:   9307        str r3, [sp, #28]
 80054cc:   9205        str r2, [sp, #20]
 80054ce:   9306        str r3, [sp, #24]
 80054d0:   f88d 3053   strb.w  r3, [sp, #83]   ; 0x53
 80054d4:   931a        str r3, [sp, #104]  ; 0x68
 80054d6:   2205        movs    r2, #5
 80054d8:   7821        ldrb    r1, [r4, #0]
 80054da:   4850        ldr r0, [pc, #320]  ; (800561c <_svfiprintf_r+0x1d4>)
 80054dc:   f000 fa40   bl  8005960 <memchr>
 80054e0:   1c67        adds    r7, r4, #1
 80054e2:   9b04        ldr r3, [sp, #16]
 80054e4:   b9d8        cbnz    r0, 800551e <_svfiprintf_r+0xd6>
 80054e6:   06d9        lsls    r1, r3, #27
 80054e8:   bf44        itt mi
 80054ea:   2220        movmi   r2, #32
 80054ec:   f88d 2053   strbmi.w    r2, [sp, #83]   ; 0x53
 80054f0:   071a        lsls    r2, r3, #28
 80054f2:   bf44        itt mi
 80054f4:   222b        movmi   r2, #43 ; 0x2b
 80054f6:   f88d 2053   strbmi.w    r2, [sp, #83]   ; 0x53
 80054fa:   7822        ldrb    r2, [r4, #0]
 80054fc:   2a2a        cmp r2, #42 ; 0x2a
 80054fe:   d016        beq.n   800552e <_svfiprintf_r+0xe6>
 8005500:   2100        movs    r1, #0
 8005502:   200a        movs    r0, #10
 8005504:   9a07        ldr r2, [sp, #28]
 8005506:   4627        mov r7, r4
 8005508:   783b        ldrb    r3, [r7, #0]
 800550a:   3401        adds    r4, #1
 800550c:   3b30        subs    r3, #48 ; 0x30
 800550e:   2b09        cmp r3, #9
 8005510:   d950        bls.n   80055b4 <_svfiprintf_r+0x16c>
 8005512:   b1c9        cbz r1, 8005548 <_svfiprintf_r+0x100>
 8005514:   e011        b.n 800553a <_svfiprintf_r+0xf2>
 8005516:   2b25        cmp r3, #37 ; 0x25
 8005518:   d0c0        beq.n   800549c <_svfiprintf_r+0x54>
 800551a:   4627        mov r7, r4
 800551c:   e7b9        b.n 8005492 <_svfiprintf_r+0x4a>
 800551e:   4a3f        ldr r2, [pc, #252]  ; (800561c <_svfiprintf_r+0x1d4>)
 8005520:   463c        mov r4, r7
 8005522:   1a80        subs    r0, r0, r2
 8005524:   fa0b f000   lsl.w   r0, fp, r0
 8005528:   4318        orrs    r0, r3
 800552a:   9004        str r0, [sp, #16]
 800552c:   e7d3        b.n 80054d6 <_svfiprintf_r+0x8e>
 800552e:   9a03        ldr r2, [sp, #12]
 8005530:   1d11        adds    r1, r2, #4
 8005532:   6812        ldr r2, [r2, #0]
 8005534:   9103        str r1, [sp, #12]
 8005536:   2a00        cmp r2, #0
 8005538:   db01        blt.n   800553e <_svfiprintf_r+0xf6>
 800553a:   9207        str r2, [sp, #28]
 800553c:   e004        b.n 8005548 <_svfiprintf_r+0x100>
 800553e:   4252        negs    r2, r2
 8005540:   f043 0302   orr.w   r3, r3, #2
 8005544:   9207        str r2, [sp, #28]
 8005546:   9304        str r3, [sp, #16]
 8005548:   783b        ldrb    r3, [r7, #0]
 800554a:   2b2e        cmp r3, #46 ; 0x2e
 800554c:   d10d        bne.n   800556a <_svfiprintf_r+0x122>
 800554e:   787b        ldrb    r3, [r7, #1]
 8005550:   1c79        adds    r1, r7, #1
 8005552:   2b2a        cmp r3, #42 ; 0x2a
 8005554:   d132        bne.n   80055bc <_svfiprintf_r+0x174>
 8005556:   9b03        ldr r3, [sp, #12]
 8005558:   3702        adds    r7, #2
 800555a:   1d1a        adds    r2, r3, #4
 800555c:   681b        ldr r3, [r3, #0]
 800555e:   9203        str r2, [sp, #12]
 8005560:   2b00        cmp r3, #0
 8005562:   bfb8        it  lt
 8005564:   f04f 33ff   movlt.w r3, #4294967295 ; 0xffffffff
 8005568:   9305        str r3, [sp, #20]
 800556a:   4c2d        ldr r4, [pc, #180]  ; (8005620 <_svfiprintf_r+0x1d8>)
 800556c:   2203        movs    r2, #3
 800556e:   7839        ldrb    r1, [r7, #0]
 8005570:   4620        mov r0, r4
 8005572:   f000 f9f5   bl  8005960 <memchr>
 8005576:   b138        cbz r0, 8005588 <_svfiprintf_r+0x140>
 8005578:   2340        movs    r3, #64 ; 0x40
 800557a:   1b00        subs    r0, r0, r4
 800557c:   fa03 f000   lsl.w   r0, r3, r0
 8005580:   9b04        ldr r3, [sp, #16]
 8005582:   3701        adds    r7, #1
 8005584:   4303        orrs    r3, r0
 8005586:   9304        str r3, [sp, #16]
 8005588:   7839        ldrb    r1, [r7, #0]
 800558a:   2206        movs    r2, #6
 800558c:   4825        ldr r0, [pc, #148]  ; (8005624 <_svfiprintf_r+0x1dc>)
 800558e:   1c7e        adds    r6, r7, #1
 8005590:   f88d 1028   strb.w  r1, [sp, #40]   ; 0x28
 8005594:   f000 f9e4   bl  8005960 <memchr>
 8005598:   2800        cmp r0, #0
 800559a:   d035        beq.n   8005608 <_svfiprintf_r+0x1c0>
 800559c:   4b22        ldr r3, [pc, #136]  ; (8005628 <_svfiprintf_r+0x1e0>)
 800559e:   b9fb        cbnz    r3, 80055e0 <_svfiprintf_r+0x198>
 80055a0:   9b03        ldr r3, [sp, #12]
 80055a2:   3307        adds    r3, #7
 80055a4:   f023 0307   bic.w   r3, r3, #7
 80055a8:   3308        adds    r3, #8
 80055aa:   9303        str r3, [sp, #12]
 80055ac:   9b09        ldr r3, [sp, #36]   ; 0x24
 80055ae:   444b        add r3, r9
 80055b0:   9309        str r3, [sp, #36]   ; 0x24
 80055b2:   e76d        b.n 8005490 <_svfiprintf_r+0x48>
 80055b4:   fb00 3202   mla r2, r0, r2, r3
 80055b8:   2101        movs    r1, #1
 80055ba:   e7a4        b.n 8005506 <_svfiprintf_r+0xbe>
 80055bc:   2300        movs    r3, #0
 80055be:   240a        movs    r4, #10
 80055c0:   4618        mov r0, r3
 80055c2:   9305        str r3, [sp, #20]
 80055c4:   460f        mov r7, r1
 80055c6:   783a        ldrb    r2, [r7, #0]
 80055c8:   3101        adds    r1, #1
 80055ca:   3a30        subs    r2, #48 ; 0x30
 80055cc:   2a09        cmp r2, #9
 80055ce:   d903        bls.n   80055d8 <_svfiprintf_r+0x190>
 80055d0:   2b00        cmp r3, #0
 80055d2:   d0ca        beq.n   800556a <_svfiprintf_r+0x122>
 80055d4:   9005        str r0, [sp, #20]
 80055d6:   e7c8        b.n 800556a <_svfiprintf_r+0x122>
 80055d8:   fb04 2000   mla r0, r4, r0, r2
 80055dc:   2301        movs    r3, #1
 80055de:   e7f1        b.n 80055c4 <_svfiprintf_r+0x17c>
 80055e0:   ab03        add r3, sp, #12
 80055e2:   9300        str r3, [sp, #0]
 80055e4:   462a        mov r2, r5
 80055e6:   4b11        ldr r3, [pc, #68]   ; (800562c <_svfiprintf_r+0x1e4>)
 80055e8:   a904        add r1, sp, #16
 80055ea:   4640        mov r0, r8
 80055ec:   f3af 8000   nop.w
 80055f0:   f1b0 3fff   cmp.w   r0, #4294967295 ; 0xffffffff
 80055f4:   4681        mov r9, r0
 80055f6:   d1d9        bne.n   80055ac <_svfiprintf_r+0x164>
 80055f8:   89ab        ldrh    r3, [r5, #12]
 80055fa:   065b        lsls    r3, r3, #25
 80055fc:   f53f af39   bmi.w   8005472 <_svfiprintf_r+0x2a>
 8005600:   9809        ldr r0, [sp, #36]   ; 0x24
 8005602:   b01d        add sp, #116    ; 0x74
 8005604:   e8bd 8ff0   ldmia.w sp!, {r4, r5, r6, r7, r8, r9, sl, fp, pc}
 8005608:   ab03        add r3, sp, #12
 800560a:   9300        str r3, [sp, #0]
 800560c:   462a        mov r2, r5
 800560e:   4b07        ldr r3, [pc, #28]   ; (800562c <_svfiprintf_r+0x1e4>)
 8005610:   a904        add r1, sp, #16
 8005612:   4640        mov r0, r8
 8005614:   f000 f884   bl  8005720 <_printf_i>
 8005618:   e7ea        b.n 80055f0 <_svfiprintf_r+0x1a8>
 800561a:   bf00        nop
 800561c:   080076c9    .word   0x080076c9
 8005620:   080076cf    .word   0x080076cf
 8005624:   080076d3    .word   0x080076d3
 8005628:   00000000    .word   0x00000000
 800562c:   08005391    .word   0x08005391

08005630 <_printf_common>:
 8005630:   e92d 47f0   stmdb   sp!, {r4, r5, r6, r7, r8, r9, sl, lr}
 8005634:   4691        mov r9, r2
 8005636:   461f        mov r7, r3
 8005638:   688a        ldr r2, [r1, #8]
 800563a:   690b        ldr r3, [r1, #16]
 800563c:   4606        mov r6, r0
 800563e:   4293        cmp r3, r2
 8005640:   bfb8        it  lt
 8005642:   4613        movlt   r3, r2
 8005644:   f8c9 3000   str.w   r3, [r9]
 8005648:   f891 2043   ldrb.w  r2, [r1, #67]   ; 0x43
 800564c:   460c        mov r4, r1
 800564e:   f8dd 8020   ldr.w   r8, [sp, #32]
 8005652:   b112        cbz r2, 800565a <_printf_common+0x2a>
 8005654:   3301        adds    r3, #1
 8005656:   f8c9 3000   str.w   r3, [r9]
 800565a:   6823        ldr r3, [r4, #0]
 800565c:   0699        lsls    r1, r3, #26
 800565e:   bf42        ittt    mi
 8005660:   f8d9 3000   ldrmi.w r3, [r9]
 8005664:   3302        addmi   r3, #2
 8005666:   f8c9 3000   strmi.w r3, [r9]
 800566a:   6825        ldr r5, [r4, #0]
 800566c:   f015 0506   ands.w  r5, r5, #6
 8005670:   d107        bne.n   8005682 <_printf_common+0x52>
 8005672:   f104 0a19   add.w   sl, r4, #25
 8005676:   68e3        ldr r3, [r4, #12]
 8005678:   f8d9 2000   ldr.w   r2, [r9]
 800567c:   1a9b        subs    r3, r3, r2
 800567e:   429d        cmp r5, r3
 8005680:   db2a        blt.n   80056d8 <_printf_common+0xa8>
 8005682:   f894 3043   ldrb.w  r3, [r4, #67]   ; 0x43
 8005686:   6822        ldr r2, [r4, #0]
 8005688:   3300        adds    r3, #0
 800568a:   bf18        it  ne
 800568c:   2301        movne   r3, #1
 800568e:   0692        lsls    r2, r2, #26
 8005690:   d42f        bmi.n   80056f2 <_printf_common+0xc2>
 8005692:   f104 0243   add.w   r2, r4, #67 ; 0x43
 8005696:   4639        mov r1, r7
 8005698:   4630        mov r0, r6
 800569a:   47c0        blx r8
 800569c:   3001        adds    r0, #1
 800569e:   d022        beq.n   80056e6 <_printf_common+0xb6>
 80056a0:   6823        ldr r3, [r4, #0]
 80056a2:   68e5        ldr r5, [r4, #12]
 80056a4:   f003 0306   and.w   r3, r3, #6
 80056a8:   2b04        cmp r3, #4
 80056aa:   bf18        it  ne
 80056ac:   2500        movne   r5, #0
 80056ae:   f8d9 2000   ldr.w   r2, [r9]
 80056b2:   f04f 0900   mov.w   r9, #0
 80056b6:   bf08        it  eq
 80056b8:   1aad        subeq   r5, r5, r2
 80056ba:   68a3        ldr r3, [r4, #8]
 80056bc:   6922        ldr r2, [r4, #16]
 80056be:   bf08        it  eq
 80056c0:   ea25 75e5   biceq.w r5, r5, r5, asr #31
 80056c4:   4293        cmp r3, r2
 80056c6:   bfc4        itt gt
 80056c8:   1a9b        subgt   r3, r3, r2
 80056ca:   18ed        addgt   r5, r5, r3
 80056cc:   341a        adds    r4, #26
 80056ce:   454d        cmp r5, r9
 80056d0:   d11b        bne.n   800570a <_printf_common+0xda>
 80056d2:   2000        movs    r0, #0
 80056d4:   e8bd 87f0   ldmia.w sp!, {r4, r5, r6, r7, r8, r9, sl, pc}
 80056d8:   2301        movs    r3, #1
 80056da:   4652        mov r2, sl
 80056dc:   4639        mov r1, r7
 80056de:   4630        mov r0, r6
 80056e0:   47c0        blx r8
 80056e2:   3001        adds    r0, #1
 80056e4:   d103        bne.n   80056ee <_printf_common+0xbe>
 80056e6:   f04f 30ff   mov.w   r0, #4294967295 ; 0xffffffff
 80056ea:   e8bd 87f0   ldmia.w sp!, {r4, r5, r6, r7, r8, r9, sl, pc}
 80056ee:   3501        adds    r5, #1
 80056f0:   e7c1        b.n 8005676 <_printf_common+0x46>
 80056f2:   2030        movs    r0, #48 ; 0x30
 80056f4:   18e1        adds    r1, r4, r3
 80056f6:   f881 0043   strb.w  r0, [r1, #67]   ; 0x43
 80056fa:   1c5a        adds    r2, r3, #1
 80056fc:   f894 1045   ldrb.w  r1, [r4, #69]   ; 0x45
 8005700:   4422        add r2, r4
 8005702:   3302        adds    r3, #2
 8005704:   f882 1043   strb.w  r1, [r2, #67]   ; 0x43
 8005708:   e7c3        b.n 8005692 <_printf_common+0x62>
 800570a:   2301        movs    r3, #1
 800570c:   4622        mov r2, r4
 800570e:   4639        mov r1, r7
 8005710:   4630        mov r0, r6
 8005712:   47c0        blx r8
 8005714:   3001        adds    r0, #1
 8005716:   d0e6        beq.n   80056e6 <_printf_common+0xb6>
 8005718:   f109 0901   add.w   r9, r9, #1
 800571c:   e7d7        b.n 80056ce <_printf_common+0x9e>
    ...

08005720 <_printf_i>:
 8005720:   e92d 43f0   stmdb   sp!, {r4, r5, r6, r7, r8, r9, lr}
 8005724:   4617        mov r7, r2
 8005726:   7e0a        ldrb    r2, [r1, #24]
 8005728:   b085        sub sp, #20
 800572a:   2a6e        cmp r2, #110    ; 0x6e
 800572c:   4698        mov r8, r3
 800572e:   4606        mov r6, r0
 8005730:   460c        mov r4, r1
 8005732:   9b0c        ldr r3, [sp, #48]   ; 0x30
 8005734:   f101 0e43   add.w   lr, r1, #67 ; 0x43
 8005738:   f000 80bc   beq.w   80058b4 <_printf_i+0x194>
 800573c:   d81a        bhi.n   8005774 <_printf_i+0x54>
 800573e:   2a63        cmp r2, #99 ; 0x63
 8005740:   d02e        beq.n   80057a0 <_printf_i+0x80>
 8005742:   d80a        bhi.n   800575a <_printf_i+0x3a>
 8005744:   2a00        cmp r2, #0
 8005746:   f000 80c8   beq.w   80058da <_printf_i+0x1ba>
 800574a:   2a58        cmp r2, #88 ; 0x58
 800574c:   f000 808a   beq.w   8005864 <_printf_i+0x144>
 8005750:   f104 0542   add.w   r5, r4, #66 ; 0x42
 8005754:   f884 2042   strb.w  r2, [r4, #66]   ; 0x42
 8005758:   e02a        b.n 80057b0 <_printf_i+0x90>
 800575a:   2a64        cmp r2, #100    ; 0x64
 800575c:   d001        beq.n   8005762 <_printf_i+0x42>
 800575e:   2a69        cmp r2, #105    ; 0x69
 8005760:   d1f6        bne.n   8005750 <_printf_i+0x30>
 8005762:   6821        ldr r1, [r4, #0]
 8005764:   681a        ldr r2, [r3, #0]
 8005766:   f011 0f80   tst.w   r1, #128    ; 0x80
 800576a:   d023        beq.n   80057b4 <_printf_i+0x94>
 800576c:   1d11        adds    r1, r2, #4
 800576e:   6019        str r1, [r3, #0]
 8005770:   6813        ldr r3, [r2, #0]
 8005772:   e027        b.n 80057c4 <_printf_i+0xa4>
 8005774:   2a73        cmp r2, #115    ; 0x73
 8005776:   f000 80b4   beq.w   80058e2 <_printf_i+0x1c2>
 800577a:   d808        bhi.n   800578e <_printf_i+0x6e>
 800577c:   2a6f        cmp r2, #111    ; 0x6f
 800577e:   d02a        beq.n   80057d6 <_printf_i+0xb6>
 8005780:   2a70        cmp r2, #112    ; 0x70
 8005782:   d1e5        bne.n   8005750 <_printf_i+0x30>
 8005784:   680a        ldr r2, [r1, #0]
 8005786:   f042 0220   orr.w   r2, r2, #32
 800578a:   600a        str r2, [r1, #0]
 800578c:   e003        b.n 8005796 <_printf_i+0x76>
 800578e:   2a75        cmp r2, #117    ; 0x75
 8005790:   d021        beq.n   80057d6 <_printf_i+0xb6>
 8005792:   2a78        cmp r2, #120    ; 0x78
 8005794:   d1dc        bne.n   8005750 <_printf_i+0x30>
 8005796:   2278        movs    r2, #120    ; 0x78
 8005798:   496f        ldr r1, [pc, #444]  ; (8005958 <_printf_i+0x238>)
 800579a:   f884 2045   strb.w  r2, [r4, #69]   ; 0x45
 800579e:   e064        b.n 800586a <_printf_i+0x14a>
 80057a0:   681a        ldr r2, [r3, #0]
 80057a2:   f101 0542   add.w   r5, r1, #66 ; 0x42
 80057a6:   1d11        adds    r1, r2, #4
 80057a8:   6019        str r1, [r3, #0]
 80057aa:   6813        ldr r3, [r2, #0]
 80057ac:   f884 3042   strb.w  r3, [r4, #66]   ; 0x42
 80057b0:   2301        movs    r3, #1
 80057b2:   e0a3        b.n 80058fc <_printf_i+0x1dc>
 80057b4:   f011 0f40   tst.w   r1, #64 ; 0x40
 80057b8:   f102 0104   add.w   r1, r2, #4
 80057bc:   6019        str r1, [r3, #0]
 80057be:   d0d7        beq.n   8005770 <_printf_i+0x50>
 80057c0:   f9b2 3000   ldrsh.w r3, [r2]
 80057c4:   2b00        cmp r3, #0
 80057c6:   da03        bge.n   80057d0 <_printf_i+0xb0>
 80057c8:   222d        movs    r2, #45 ; 0x2d
 80057ca:   425b        negs    r3, r3
 80057cc:   f884 2043   strb.w  r2, [r4, #67]   ; 0x43
 80057d0:   4962        ldr r1, [pc, #392]  ; (800595c <_printf_i+0x23c>)
 80057d2:   220a        movs    r2, #10
 80057d4:   e017        b.n 8005806 <_printf_i+0xe6>
 80057d6:   6820        ldr r0, [r4, #0]
 80057d8:   6819        ldr r1, [r3, #0]
 80057da:   f010 0f80   tst.w   r0, #128    ; 0x80
 80057de:   d003        beq.n   80057e8 <_printf_i+0xc8>
 80057e0:   1d08        adds    r0, r1, #4
 80057e2:   6018        str r0, [r3, #0]
 80057e4:   680b        ldr r3, [r1, #0]
 80057e6:   e006        b.n 80057f6 <_printf_i+0xd6>
 80057e8:   f010 0f40   tst.w   r0, #64 ; 0x40
 80057ec:   f101 0004   add.w   r0, r1, #4
 80057f0:   6018        str r0, [r3, #0]
 80057f2:   d0f7        beq.n   80057e4 <_printf_i+0xc4>
 80057f4:   880b        ldrh    r3, [r1, #0]
 80057f6:   2a6f        cmp r2, #111    ; 0x6f
 80057f8:   bf14        ite ne
 80057fa:   220a        movne   r2, #10
 80057fc:   2208        moveq   r2, #8
 80057fe:   4957        ldr r1, [pc, #348]  ; (800595c <_printf_i+0x23c>)
 8005800:   2000        movs    r0, #0
 8005802:   f884 0043   strb.w  r0, [r4, #67]   ; 0x43
 8005806:   6865        ldr r5, [r4, #4]
 8005808:   2d00        cmp r5, #0
 800580a:   60a5        str r5, [r4, #8]
 800580c:   f2c0 809c   blt.w   8005948 <_printf_i+0x228>
 8005810:   6820        ldr r0, [r4, #0]
 8005812:   f020 0004   bic.w   r0, r0, #4
 8005816:   6020        str r0, [r4, #0]
 8005818:   2b00        cmp r3, #0
 800581a:   d13f        bne.n   800589c <_printf_i+0x17c>
 800581c:   2d00        cmp r5, #0
 800581e:   f040 8095   bne.w   800594c <_printf_i+0x22c>
 8005822:   4675        mov r5, lr
 8005824:   2a08        cmp r2, #8
 8005826:   d10b        bne.n   8005840 <_printf_i+0x120>
 8005828:   6823        ldr r3, [r4, #0]
 800582a:   07da        lsls    r2, r3, #31
 800582c:   d508        bpl.n   8005840 <_printf_i+0x120>
 800582e:   6923        ldr r3, [r4, #16]
 8005830:   6862        ldr r2, [r4, #4]
 8005832:   429a        cmp r2, r3
 8005834:   bfde        ittt    le
 8005836:   2330        movle   r3, #48 ; 0x30
 8005838:   f805 3c01   strble.w    r3, [r5, #-1]
 800583c:   f105 35ff   addle.w r5, r5, #4294967295 ; 0xffffffff
 8005840:   ebae 0305   sub.w   r3, lr, r5
 8005844:   6123        str r3, [r4, #16]
 8005846:   f8cd 8000   str.w   r8, [sp]
 800584a:   463b        mov r3, r7
 800584c:   aa03        add r2, sp, #12
 800584e:   4621        mov r1, r4
 8005850:   4630        mov r0, r6
 8005852:   f7ff feed   bl  8005630 <_printf_common>
 8005856:   3001        adds    r0, #1
 8005858:   d155        bne.n   8005906 <_printf_i+0x1e6>
 800585a:   f04f 30ff   mov.w   r0, #4294967295 ; 0xffffffff
 800585e:   b005        add sp, #20
 8005860:   e8bd 83f0   ldmia.w sp!, {r4, r5, r6, r7, r8, r9, pc}
 8005864:   f881 2045   strb.w  r2, [r1, #69]   ; 0x45
 8005868:   493c        ldr r1, [pc, #240]  ; (800595c <_printf_i+0x23c>)
 800586a:   6822        ldr r2, [r4, #0]
 800586c:   6818        ldr r0, [r3, #0]
 800586e:   f012 0f80   tst.w   r2, #128    ; 0x80
 8005872:   f100 0504   add.w   r5, r0, #4
 8005876:   601d        str r5, [r3, #0]
 8005878:   d001        beq.n   800587e <_printf_i+0x15e>
 800587a:   6803        ldr r3, [r0, #0]
 800587c:   e002        b.n 8005884 <_printf_i+0x164>
 800587e:   0655        lsls    r5, r2, #25
 8005880:   d5fb        bpl.n   800587a <_printf_i+0x15a>
 8005882:   8803        ldrh    r3, [r0, #0]
 8005884:   07d0        lsls    r0, r2, #31
 8005886:   bf44        itt mi
 8005888:   f042 0220   orrmi.w r2, r2, #32
 800588c:   6022        strmi   r2, [r4, #0]
 800588e:   b91b        cbnz    r3, 8005898 <_printf_i+0x178>
 8005890:   6822        ldr r2, [r4, #0]
 8005892:   f022 0220   bic.w   r2, r2, #32
 8005896:   6022        str r2, [r4, #0]
 8005898:   2210        movs    r2, #16
 800589a:   e7b1        b.n 8005800 <_printf_i+0xe0>
 800589c:   4675        mov r5, lr
 800589e:   fbb3 f0f2   udiv    r0, r3, r2
 80058a2:   fb02 3310   mls r3, r2, r0, r3
 80058a6:   5ccb        ldrb    r3, [r1, r3]
 80058a8:   f805 3d01   strb.w  r3, [r5, #-1]!
 80058ac:   4603        mov r3, r0
 80058ae:   2800        cmp r0, #0
 80058b0:   d1f5        bne.n   800589e <_printf_i+0x17e>
 80058b2:   e7b7        b.n 8005824 <_printf_i+0x104>
 80058b4:   6808        ldr r0, [r1, #0]
 80058b6:   681a        ldr r2, [r3, #0]
 80058b8:   f010 0f80   tst.w   r0, #128    ; 0x80
 80058bc:   6949        ldr r1, [r1, #20]
 80058be:   d004        beq.n   80058ca <_printf_i+0x1aa>
 80058c0:   1d10        adds    r0, r2, #4
 80058c2:   6018        str r0, [r3, #0]
 80058c4:   6813        ldr r3, [r2, #0]
 80058c6:   6019        str r1, [r3, #0]
 80058c8:   e007        b.n 80058da <_printf_i+0x1ba>
 80058ca:   f010 0f40   tst.w   r0, #64 ; 0x40
 80058ce:   f102 0004   add.w   r0, r2, #4
 80058d2:   6018        str r0, [r3, #0]
 80058d4:   6813        ldr r3, [r2, #0]
 80058d6:   d0f6        beq.n   80058c6 <_printf_i+0x1a6>
 80058d8:   8019        strh    r1, [r3, #0]
 80058da:   2300        movs    r3, #0
 80058dc:   4675        mov r5, lr
 80058de:   6123        str r3, [r4, #16]
 80058e0:   e7b1        b.n 8005846 <_printf_i+0x126>
 80058e2:   681a        ldr r2, [r3, #0]
 80058e4:   1d11        adds    r1, r2, #4
 80058e6:   6019        str r1, [r3, #0]
 80058e8:   6815        ldr r5, [r2, #0]
 80058ea:   2100        movs    r1, #0
 80058ec:   6862        ldr r2, [r4, #4]
 80058ee:   4628        mov r0, r5
 80058f0:   f000 f836   bl  8005960 <memchr>
 80058f4:   b108        cbz r0, 80058fa <_printf_i+0x1da>
 80058f6:   1b40        subs    r0, r0, r5
 80058f8:   6060        str r0, [r4, #4]
 80058fa:   6863        ldr r3, [r4, #4]
 80058fc:   6123        str r3, [r4, #16]
 80058fe:   2300        movs    r3, #0
 8005900:   f884 3043   strb.w  r3, [r4, #67]   ; 0x43
 8005904:   e79f        b.n 8005846 <_printf_i+0x126>
 8005906:   6923        ldr r3, [r4, #16]
 8005908:   462a        mov r2, r5
 800590a:   4639        mov r1, r7
 800590c:   4630        mov r0, r6
 800590e:   47c0        blx r8
 8005910:   3001        adds    r0, #1
 8005912:   d0a2        beq.n   800585a <_printf_i+0x13a>
 8005914:   6823        ldr r3, [r4, #0]
 8005916:   079b        lsls    r3, r3, #30
 8005918:   d507        bpl.n   800592a <_printf_i+0x20a>
 800591a:   2500        movs    r5, #0
 800591c:   f104 0919   add.w   r9, r4, #25
 8005920:   68e3        ldr r3, [r4, #12]
 8005922:   9a03        ldr r2, [sp, #12]
 8005924:   1a9b        subs    r3, r3, r2
 8005926:   429d        cmp r5, r3
 8005928:   db05        blt.n   8005936 <_printf_i+0x216>
 800592a:   68e0        ldr r0, [r4, #12]
 800592c:   9b03        ldr r3, [sp, #12]
 800592e:   4298        cmp r0, r3
 8005930:   bfb8        it  lt
 8005932:   4618        movlt   r0, r3
 8005934:   e793        b.n 800585e <_printf_i+0x13e>
 8005936:   2301        movs    r3, #1
 8005938:   464a        mov r2, r9
 800593a:   4639        mov r1, r7
 800593c:   4630        mov r0, r6
 800593e:   47c0        blx r8
 8005940:   3001        adds    r0, #1
 8005942:   d08a        beq.n   800585a <_printf_i+0x13a>
 8005944:   3501        adds    r5, #1
 8005946:   e7eb        b.n 8005920 <_printf_i+0x200>
 8005948:   2b00        cmp r3, #0
 800594a:   d1a7        bne.n   800589c <_printf_i+0x17c>
 800594c:   780b        ldrb    r3, [r1, #0]
 800594e:   f104 0542   add.w   r5, r4, #66 ; 0x42
 8005952:   f884 3042   strb.w  r3, [r4, #66]   ; 0x42
 8005956:   e765        b.n 8005824 <_printf_i+0x104>
 8005958:   080076eb    .word   0x080076eb
 800595c:   080076da    .word   0x080076da

08005960 <memchr>:
 8005960:   b510        push    {r4, lr}
 8005962:   b2c9        uxtb    r1, r1
 8005964:   4402        add r2, r0
 8005966:   4290        cmp r0, r2
 8005968:   4603        mov r3, r0
 800596a:   d101        bne.n   8005970 <memchr+0x10>
 800596c:   2000        movs    r0, #0
 800596e:   bd10        pop {r4, pc}
 8005970:   781c        ldrb    r4, [r3, #0]
 8005972:   3001        adds    r0, #1
 8005974:   428c        cmp r4, r1
 8005976:   d1f6        bne.n   8005966 <memchr+0x6>
 8005978:   4618        mov r0, r3
 800597a:   bd10        pop {r4, pc}

0800597c <memcpy>:
 800597c:   b510        push    {r4, lr}
 800597e:   1e43        subs    r3, r0, #1
 8005980:   440a        add r2, r1
 8005982:   4291        cmp r1, r2
 8005984:   d100        bne.n   8005988 <memcpy+0xc>
 8005986:   bd10        pop {r4, pc}
 8005988:   f811 4b01   ldrb.w  r4, [r1], #1
 800598c:   f803 4f01   strb.w  r4, [r3, #1]!
 8005990:   e7f7        b.n 8005982 <memcpy+0x6>

08005992 <memmove>:
 8005992:   4288        cmp r0, r1
 8005994:   b510        push    {r4, lr}
 8005996:   eb01 0302   add.w   r3, r1, r2
 800599a:   d803        bhi.n   80059a4 <memmove+0x12>
 800599c:   1e42        subs    r2, r0, #1
 800599e:   4299        cmp r1, r3
 80059a0:   d10c        bne.n   80059bc <memmove+0x2a>
 80059a2:   bd10        pop {r4, pc}
 80059a4:   4298        cmp r0, r3
 80059a6:   d2f9        bcs.n   800599c <memmove+0xa>
 80059a8:   1881        adds    r1, r0, r2
 80059aa:   1ad2        subs    r2, r2, r3
 80059ac:   42d3        cmn r3, r2
 80059ae:   d100        bne.n   80059b2 <memmove+0x20>
 80059b0:   bd10        pop {r4, pc}
 80059b2:   f813 4d01   ldrb.w  r4, [r3, #-1]!
 80059b6:   f801 4d01   strb.w  r4, [r1, #-1]!
 80059ba:   e7f7        b.n 80059ac <memmove+0x1a>
 80059bc:   f811 4b01   ldrb.w  r4, [r1], #1
 80059c0:   f802 4f01   strb.w  r4, [r2, #1]!
 80059c4:   e7eb        b.n 800599e <memmove+0xc>
    ...

080059c8 <_free_r>:
 80059c8:   b538        push    {r3, r4, r5, lr}
 80059ca:   4605        mov r5, r0
 80059cc:   2900        cmp r1, #0
 80059ce:   d043        beq.n   8005a58 <_free_r+0x90>
 80059d0:   f851 3c04   ldr.w   r3, [r1, #-4]
 80059d4:   1f0c        subs    r4, r1, #4
 80059d6:   2b00        cmp r3, #0
 80059d8:   bfb8        it  lt
 80059da:   18e4        addlt   r4, r4, r3
 80059dc:   f000 f8d4   bl  8005b88 <__malloc_lock>
 80059e0:   4a1e        ldr r2, [pc, #120]  ; (8005a5c <_free_r+0x94>)
 80059e2:   6813        ldr r3, [r2, #0]
 80059e4:   4610        mov r0, r2
 80059e6:   b933        cbnz    r3, 80059f6 <_free_r+0x2e>
 80059e8:   6063        str r3, [r4, #4]
 80059ea:   6014        str r4, [r2, #0]
 80059ec:   4628        mov r0, r5
 80059ee:   e8bd 4038   ldmia.w sp!, {r3, r4, r5, lr}
 80059f2:   f000 b8ca   b.w 8005b8a <__malloc_unlock>
 80059f6:   42a3        cmp r3, r4
 80059f8:   d90b        bls.n   8005a12 <_free_r+0x4a>
 80059fa:   6821        ldr r1, [r4, #0]
 80059fc:   1862        adds    r2, r4, r1
 80059fe:   4293        cmp r3, r2
 8005a00:   bf01        itttt   eq
 8005a02:   681a        ldreq   r2, [r3, #0]
 8005a04:   685b        ldreq   r3, [r3, #4]
 8005a06:   1852        addeq   r2, r2, r1
 8005a08:   6022        streq   r2, [r4, #0]
 8005a0a:   6063        str r3, [r4, #4]
 8005a0c:   6004        str r4, [r0, #0]
 8005a0e:   e7ed        b.n 80059ec <_free_r+0x24>
 8005a10:   4613        mov r3, r2
 8005a12:   685a        ldr r2, [r3, #4]
 8005a14:   b10a        cbz r2, 8005a1a <_free_r+0x52>
 8005a16:   42a2        cmp r2, r4
 8005a18:   d9fa        bls.n   8005a10 <_free_r+0x48>
 8005a1a:   6819        ldr r1, [r3, #0]
 8005a1c:   1858        adds    r0, r3, r1
 8005a1e:   42a0        cmp r0, r4
 8005a20:   d10b        bne.n   8005a3a <_free_r+0x72>
 8005a22:   6820        ldr r0, [r4, #0]
 8005a24:   4401        add r1, r0
 8005a26:   1858        adds    r0, r3, r1
 8005a28:   4282        cmp r2, r0
 8005a2a:   6019        str r1, [r3, #0]
 8005a2c:   d1de        bne.n   80059ec <_free_r+0x24>
 8005a2e:   6810        ldr r0, [r2, #0]
 8005a30:   6852        ldr r2, [r2, #4]
 8005a32:   4401        add r1, r0
 8005a34:   6019        str r1, [r3, #0]
 8005a36:   605a        str r2, [r3, #4]
 8005a38:   e7d8        b.n 80059ec <_free_r+0x24>
 8005a3a:   d902        bls.n   8005a42 <_free_r+0x7a>
 8005a3c:   230c        movs    r3, #12
 8005a3e:   602b        str r3, [r5, #0]
 8005a40:   e7d4        b.n 80059ec <_free_r+0x24>
 8005a42:   6820        ldr r0, [r4, #0]
 8005a44:   1821        adds    r1, r4, r0
 8005a46:   428a        cmp r2, r1
 8005a48:   bf01        itttt   eq
 8005a4a:   6811        ldreq   r1, [r2, #0]
 8005a4c:   6852        ldreq   r2, [r2, #4]
 8005a4e:   1809        addeq   r1, r1, r0
 8005a50:   6021        streq   r1, [r4, #0]
 8005a52:   6062        str r2, [r4, #4]
 8005a54:   605c        str r4, [r3, #4]
 8005a56:   e7c9        b.n 80059ec <_free_r+0x24>
 8005a58:   bd38        pop {r3, r4, r5, pc}
 8005a5a:   bf00        nop
 8005a5c:   200002a8    .word   0x200002a8

08005a60 <_malloc_r>:
 8005a60:   b570        push    {r4, r5, r6, lr}
 8005a62:   1ccd        adds    r5, r1, #3
 8005a64:   f025 0503   bic.w   r5, r5, #3
 8005a68:   3508        adds    r5, #8
 8005a6a:   2d0c        cmp r5, #12
 8005a6c:   bf38        it  cc
 8005a6e:   250c        movcc   r5, #12
 8005a70:   2d00        cmp r5, #0
 8005a72:   4606        mov r6, r0
 8005a74:   db01        blt.n   8005a7a <_malloc_r+0x1a>
 8005a76:   42a9        cmp r1, r5
 8005a78:   d903        bls.n   8005a82 <_malloc_r+0x22>
 8005a7a:   230c        movs    r3, #12
 8005a7c:   6033        str r3, [r6, #0]
 8005a7e:   2000        movs    r0, #0
 8005a80:   bd70        pop {r4, r5, r6, pc}
 8005a82:   f000 f881   bl  8005b88 <__malloc_lock>
 8005a86:   4a23        ldr r2, [pc, #140]  ; (8005b14 <_malloc_r+0xb4>)
 8005a88:   6814        ldr r4, [r2, #0]
 8005a8a:   4621        mov r1, r4
 8005a8c:   b991        cbnz    r1, 8005ab4 <_malloc_r+0x54>
 8005a8e:   4c22        ldr r4, [pc, #136]  ; (8005b18 <_malloc_r+0xb8>)
 8005a90:   6823        ldr r3, [r4, #0]
 8005a92:   b91b        cbnz    r3, 8005a9c <_malloc_r+0x3c>
 8005a94:   4630        mov r0, r6
 8005a96:   f000 f867   bl  8005b68 <_sbrk_r>
 8005a9a:   6020        str r0, [r4, #0]
 8005a9c:   4629        mov r1, r5
 8005a9e:   4630        mov r0, r6
 8005aa0:   f000 f862   bl  8005b68 <_sbrk_r>
 8005aa4:   1c43        adds    r3, r0, #1
 8005aa6:   d126        bne.n   8005af6 <_malloc_r+0x96>
 8005aa8:   230c        movs    r3, #12
 8005aaa:   4630        mov r0, r6
 8005aac:   6033        str r3, [r6, #0]
 8005aae:   f000 f86c   bl  8005b8a <__malloc_unlock>
 8005ab2:   e7e4        b.n 8005a7e <_malloc_r+0x1e>
 8005ab4:   680b        ldr r3, [r1, #0]
 8005ab6:   1b5b        subs    r3, r3, r5
 8005ab8:   d41a        bmi.n   8005af0 <_malloc_r+0x90>
 8005aba:   2b0b        cmp r3, #11
 8005abc:   d90f        bls.n   8005ade <_malloc_r+0x7e>
 8005abe:   600b        str r3, [r1, #0]
 8005ac0:   18cc        adds    r4, r1, r3
 8005ac2:   50cd        str r5, [r1, r3]
 8005ac4:   4630        mov r0, r6
 8005ac6:   f000 f860   bl  8005b8a <__malloc_unlock>
 8005aca:   f104 000b   add.w   r0, r4, #11
 8005ace:   1d23        adds    r3, r4, #4
 8005ad0:   f020 0007   bic.w   r0, r0, #7
 8005ad4:   1ac3        subs    r3, r0, r3
 8005ad6:   d01b        beq.n   8005b10 <_malloc_r+0xb0>
 8005ad8:   425a        negs    r2, r3
 8005ada:   50e2        str r2, [r4, r3]
 8005adc:   bd70        pop {r4, r5, r6, pc}
 8005ade:   428c        cmp r4, r1
 8005ae0:   bf0b        itete   eq
 8005ae2:   6863        ldreq   r3, [r4, #4]
 8005ae4:   684b        ldrne   r3, [r1, #4]
 8005ae6:   6013        streq   r3, [r2, #0]
 8005ae8:   6063        strne   r3, [r4, #4]
 8005aea:   bf18        it  ne
 8005aec:   460c        movne   r4, r1
 8005aee:   e7e9        b.n 8005ac4 <_malloc_r+0x64>
 8005af0:   460c        mov r4, r1
 8005af2:   6849        ldr r1, [r1, #4]
 8005af4:   e7ca        b.n 8005a8c <_malloc_r+0x2c>
 8005af6:   1cc4        adds    r4, r0, #3
 8005af8:   f024 0403   bic.w   r4, r4, #3
 8005afc:   42a0        cmp r0, r4
 8005afe:   d005        beq.n   8005b0c <_malloc_r+0xac>
 8005b00:   1a21        subs    r1, r4, r0
 8005b02:   4630        mov r0, r6
 8005b04:   f000 f830   bl  8005b68 <_sbrk_r>
 8005b08:   3001        adds    r0, #1
 8005b0a:   d0cd        beq.n   8005aa8 <_malloc_r+0x48>
 8005b0c:   6025        str r5, [r4, #0]
 8005b0e:   e7d9        b.n 8005ac4 <_malloc_r+0x64>
 8005b10:   bd70        pop {r4, r5, r6, pc}
 8005b12:   bf00        nop
 8005b14:   200002a8    .word   0x200002a8
 8005b18:   200002ac    .word   0x200002ac

08005b1c <_realloc_r>:
 8005b1c:   b5f8        push    {r3, r4, r5, r6, r7, lr}
 8005b1e:   4607        mov r7, r0
 8005b20:   4614        mov r4, r2
 8005b22:   460e        mov r6, r1
 8005b24:   b921        cbnz    r1, 8005b30 <_realloc_r+0x14>
 8005b26:   4611        mov r1, r2
 8005b28:   e8bd 40f8   ldmia.w sp!, {r3, r4, r5, r6, r7, lr}
 8005b2c:   f7ff bf98   b.w 8005a60 <_malloc_r>
 8005b30:   b922        cbnz    r2, 8005b3c <_realloc_r+0x20>
 8005b32:   f7ff ff49   bl  80059c8 <_free_r>
 8005b36:   4625        mov r5, r4
 8005b38:   4628        mov r0, r5
 8005b3a:   bdf8        pop {r3, r4, r5, r6, r7, pc}
 8005b3c:   f000 f826   bl  8005b8c <_malloc_usable_size_r>
 8005b40:   4284        cmp r4, r0
 8005b42:   d90f        bls.n   8005b64 <_realloc_r+0x48>
 8005b44:   4621        mov r1, r4
 8005b46:   4638        mov r0, r7
 8005b48:   f7ff ff8a   bl  8005a60 <_malloc_r>
 8005b4c:   4605        mov r5, r0
 8005b4e:   2800        cmp r0, #0
 8005b50:   d0f2        beq.n   8005b38 <_realloc_r+0x1c>
 8005b52:   4631        mov r1, r6
 8005b54:   4622        mov r2, r4
 8005b56:   f7ff ff11   bl  800597c <memcpy>
 8005b5a:   4631        mov r1, r6
 8005b5c:   4638        mov r0, r7
 8005b5e:   f7ff ff33   bl  80059c8 <_free_r>
 8005b62:   e7e9        b.n 8005b38 <_realloc_r+0x1c>
 8005b64:   4635        mov r5, r6
 8005b66:   e7e7        b.n 8005b38 <_realloc_r+0x1c>

08005b68 <_sbrk_r>:
 8005b68:   b538        push    {r3, r4, r5, lr}
 8005b6a:   2300        movs    r3, #0
 8005b6c:   4c05        ldr r4, [pc, #20]   ; (8005b84 <_sbrk_r+0x1c>)
 8005b6e:   4605        mov r5, r0
 8005b70:   4608        mov r0, r1
 8005b72:   6023        str r3, [r4, #0]
 8005b74:   f001 fd48   bl  8007608 <_sbrk>
 8005b78:   1c43        adds    r3, r0, #1
 8005b7a:   d102        bne.n   8005b82 <_sbrk_r+0x1a>
 8005b7c:   6823        ldr r3, [r4, #0]
 8005b7e:   b103        cbz r3, 8005b82 <_sbrk_r+0x1a>
 8005b80:   602b        str r3, [r5, #0]
 8005b82:   bd38        pop {r3, r4, r5, pc}
 8005b84:   20001698    .word   0x20001698

08005b88 <__malloc_lock>:
 8005b88:   4770        bx  lr

08005b8a <__malloc_unlock>:
 8005b8a:   4770        bx  lr

08005b8c <_malloc_usable_size_r>:
 8005b8c:   f851 0c04   ldr.w   r0, [r1, #-4]
 8005b90:   2800        cmp r0, #0
 8005b92:   f1a0 0004   sub.w   r0, r0, #4
 8005b96:   bfbc        itt lt
 8005b98:   580b        ldrlt   r3, [r1, r0]
 8005b9a:   18c0        addlt   r0, r0, r3
 8005b9c:   4770        bx  lr
    ...

08005ba0 <asin>:
 8005ba0:   e92d 43f0   stmdb   sp!, {r4, r5, r6, r7, r8, r9, lr}
 8005ba4:   b08b        sub sp, #44 ; 0x2c
 8005ba6:   4604        mov r4, r0
 8005ba8:   460d        mov r5, r1
 8005baa:   f000 fa09   bl  8005fc0 <__ieee754_asin>
 8005bae:   f8df 8094   ldr.w   r8, [pc, #148]  ; 8005c44 <asin+0xa4>
 8005bb2:   4606        mov r6, r0
 8005bb4:   f998 3000   ldrsb.w r3, [r8]
 8005bb8:   460f        mov r7, r1
 8005bba:   3301        adds    r3, #1
 8005bbc:   d036        beq.n   8005c2c <asin+0x8c>
 8005bbe:   4622        mov r2, r4
 8005bc0:   462b        mov r3, r5
 8005bc2:   4620        mov r0, r4
 8005bc4:   4629        mov r1, r5
 8005bc6:   f7fa ff1d   bl  8000a04 <__aeabi_dcmpun>
 8005bca:   4681        mov r9, r0
 8005bcc:   2800        cmp r0, #0
 8005bce:   d12d        bne.n   8005c2c <asin+0x8c>
 8005bd0:   4620        mov r0, r4
 8005bd2:   4629        mov r1, r5
 8005bd4:   f001 fc02   bl  80073dc <fabs>
 8005bd8:   2200        movs    r2, #0
 8005bda:   4b17        ldr r3, [pc, #92]   ; (8005c38 <asin+0x98>)
 8005bdc:   f7fa ff08   bl  80009f0 <__aeabi_dcmpgt>
 8005be0:   b320        cbz r0, 8005c2c <asin+0x8c>
 8005be2:   2301        movs    r3, #1
 8005be4:   9300        str r3, [sp, #0]
 8005be6:   4b15        ldr r3, [pc, #84]   ; (8005c3c <asin+0x9c>)
 8005be8:   4815        ldr r0, [pc, #84]   ; (8005c40 <asin+0xa0>)
 8005bea:   9301        str r3, [sp, #4]
 8005bec:   f8cd 9020   str.w   r9, [sp, #32]
 8005bf0:   e9cd 4504   strd    r4, r5, [sp, #16]
 8005bf4:   e9cd 4502   strd    r4, r5, [sp, #8]
 8005bf8:   f001 fbfc   bl  80073f4 <nan>
 8005bfc:   f998 3000   ldrsb.w r3, [r8]
 8005c00:   e9cd 0106   strd    r0, r1, [sp, #24]
 8005c04:   2b02        cmp r3, #2
 8005c06:   d104        bne.n   8005c12 <asin+0x72>
 8005c08:   f001 fcf8   bl  80075fc <__errno>
 8005c0c:   2321        movs    r3, #33 ; 0x21
 8005c0e:   6003        str r3, [r0, #0]
 8005c10:   e004        b.n 8005c1c <asin+0x7c>
 8005c12:   4668        mov r0, sp
 8005c14:   f001 fbeb   bl  80073ee <matherr>
 8005c18:   2800        cmp r0, #0
 8005c1a:   d0f5        beq.n   8005c08 <asin+0x68>
 8005c1c:   9b08        ldr r3, [sp, #32]
 8005c1e:   b11b        cbz r3, 8005c28 <asin+0x88>
 8005c20:   f001 fcec   bl  80075fc <__errno>
 8005c24:   9b08        ldr r3, [sp, #32]
 8005c26:   6003        str r3, [r0, #0]
 8005c28:   e9dd 6706   ldrd    r6, r7, [sp, #24]
 8005c2c:   4630        mov r0, r6
 8005c2e:   4639        mov r1, r7
 8005c30:   b00b        add sp, #44 ; 0x2c
 8005c32:   e8bd 83f0   ldmia.w sp!, {r4, r5, r6, r7, r8, r9, pc}
 8005c36:   bf00        nop
 8005c38:   3ff00000    .word   0x3ff00000
 8005c3c:   080076fc    .word   0x080076fc
 8005c40:   080076ce    .word   0x080076ce
 8005c44:   20000224    .word   0x20000224

08005c48 <atan2>:
 8005c48:   f000 bbba   b.w 80063c0 <__ieee754_atan2>

08005c4c <pow>:
 8005c4c:   e92d 4ff0   stmdb   sp!, {r4, r5, r6, r7, r8, r9, sl, fp, lr}
 8005c50:   b08f        sub sp, #60 ; 0x3c
 8005c52:   461d        mov r5, r3
 8005c54:   4680        mov r8, r0
 8005c56:   4689        mov r9, r1
 8005c58:   4614        mov r4, r2
 8005c5a:   f000 fc8d   bl  8006578 <__ieee754_pow>
 8005c5e:   4fa5        ldr r7, [pc, #660]  ; (8005ef4 <pow+0x2a8>)
 8005c60:   e9cd 0100   strd    r0, r1, [sp]
 8005c64:   f997 3000   ldrsb.w r3, [r7]
 8005c68:   463e        mov r6, r7
 8005c6a:   9302        str r3, [sp, #8]
 8005c6c:   3301        adds    r3, #1
 8005c6e:   d05f        beq.n   8005d30 <pow+0xe4>
 8005c70:   4622        mov r2, r4
 8005c72:   462b        mov r3, r5
 8005c74:   4620        mov r0, r4
 8005c76:   4629        mov r1, r5
 8005c78:   f7fa fec4   bl  8000a04 <__aeabi_dcmpun>
 8005c7c:   4682        mov sl, r0
 8005c7e:   2800        cmp r0, #0
 8005c80:   d156        bne.n   8005d30 <pow+0xe4>
 8005c82:   4642        mov r2, r8
 8005c84:   464b        mov r3, r9
 8005c86:   4640        mov r0, r8
 8005c88:   4649        mov r1, r9
 8005c8a:   f7fa febb   bl  8000a04 <__aeabi_dcmpun>
 8005c8e:   9003        str r0, [sp, #12]
 8005c90:   b1e8        cbz r0, 8005cce <pow+0x82>
 8005c92:   2200        movs    r2, #0
 8005c94:   2300        movs    r3, #0
 8005c96:   4620        mov r0, r4
 8005c98:   4629        mov r1, r5
 8005c9a:   f7fa fe81   bl  80009a0 <__aeabi_dcmpeq>
 8005c9e:   2800        cmp r0, #0
 8005ca0:   d046        beq.n   8005d30 <pow+0xe4>
 8005ca2:   2301        movs    r3, #1
 8005ca4:   2200        movs    r2, #0
 8005ca6:   9304        str r3, [sp, #16]
 8005ca8:   4b93        ldr r3, [pc, #588]  ; (8005ef8 <pow+0x2ac>)
 8005caa:   f8cd a030   str.w   sl, [sp, #48]   ; 0x30
 8005cae:   9305        str r3, [sp, #20]
 8005cb0:   4b92        ldr r3, [pc, #584]  ; (8005efc <pow+0x2b0>)
 8005cb2:   e9cd 8906   strd    r8, r9, [sp, #24]
 8005cb6:   e9cd 230a   strd    r2, r3, [sp, #40]   ; 0x28
 8005cba:   9b02        ldr r3, [sp, #8]
 8005cbc:   e9cd 4508   strd    r4, r5, [sp, #32]
 8005cc0:   2b02        cmp r3, #2
 8005cc2:   d031        beq.n   8005d28 <pow+0xdc>
 8005cc4:   a804        add r0, sp, #16
 8005cc6:   f001 fb92   bl  80073ee <matherr>
 8005cca:   bb38        cbnz    r0, 8005d1c <pow+0xd0>
 8005ccc:   e058        b.n 8005d80 <pow+0x134>
 8005cce:   f04f 0a00   mov.w   sl, #0
 8005cd2:   f04f 0b00   mov.w   fp, #0
 8005cd6:   4652        mov r2, sl
 8005cd8:   465b        mov r3, fp
 8005cda:   4640        mov r0, r8
 8005cdc:   4649        mov r1, r9
 8005cde:   f7fa fe5f   bl  80009a0 <__aeabi_dcmpeq>
 8005ce2:   2800        cmp r0, #0
 8005ce4:   d051        beq.n   8005d8a <pow+0x13e>
 8005ce6:   4652        mov r2, sl
 8005ce8:   465b        mov r3, fp
 8005cea:   4620        mov r0, r4
 8005cec:   4629        mov r1, r5
 8005cee:   f7fa fe57   bl  80009a0 <__aeabi_dcmpeq>
 8005cf2:   4606        mov r6, r0
 8005cf4:   b308        cbz r0, 8005d3a <pow+0xee>
 8005cf6:   2301        movs    r3, #1
 8005cf8:   9304        str r3, [sp, #16]
 8005cfa:   4b7f        ldr r3, [pc, #508]  ; (8005ef8 <pow+0x2ac>)
 8005cfc:   e9cd 8906   strd    r8, r9, [sp, #24]
 8005d00:   9305        str r3, [sp, #20]
 8005d02:   9b03        ldr r3, [sp, #12]
 8005d04:   e9cd 4508   strd    r4, r5, [sp, #32]
 8005d08:   930c        str r3, [sp, #48]   ; 0x30
 8005d0a:   9b02        ldr r3, [sp, #8]
 8005d0c:   e9cd ab0a   strd    sl, fp, [sp, #40]   ; 0x28
 8005d10:   2b00        cmp r3, #0
 8005d12:   d0d7        beq.n   8005cc4 <pow+0x78>
 8005d14:   2200        movs    r2, #0
 8005d16:   4b79        ldr r3, [pc, #484]  ; (8005efc <pow+0x2b0>)
 8005d18:   e9cd 230a   strd    r2, r3, [sp, #40]   ; 0x28
 8005d1c:   9b0c        ldr r3, [sp, #48]   ; 0x30
 8005d1e:   b11b        cbz r3, 8005d28 <pow+0xdc>
 8005d20:   f001 fc6c   bl  80075fc <__errno>
 8005d24:   9b0c        ldr r3, [sp, #48]   ; 0x30
 8005d26:   6003        str r3, [r0, #0]
 8005d28:   e9dd 340a   ldrd    r3, r4, [sp, #40]   ; 0x28
 8005d2c:   e88d 0018   stmia.w sp, {r3, r4}
 8005d30:   e9dd 0100   ldrd    r0, r1, [sp]
 8005d34:   b00f        add sp, #60 ; 0x3c
 8005d36:   e8bd 8ff0   ldmia.w sp!, {r4, r5, r6, r7, r8, r9, sl, fp, pc}
 8005d3a:   4620        mov r0, r4
 8005d3c:   4629        mov r1, r5
 8005d3e:   f001 fb50   bl  80073e2 <finite>
 8005d42:   2800        cmp r0, #0
 8005d44:   d0f4        beq.n   8005d30 <pow+0xe4>
 8005d46:   4652        mov r2, sl
 8005d48:   465b        mov r3, fp
 8005d4a:   4620        mov r0, r4
 8005d4c:   4629        mov r1, r5
 8005d4e:   f7fa fe31   bl  80009b4 <__aeabi_dcmplt>
 8005d52:   2800        cmp r0, #0
 8005d54:   d0ec        beq.n   8005d30 <pow+0xe4>
 8005d56:   2301        movs    r3, #1
 8005d58:   9304        str r3, [sp, #16]
 8005d5a:   4b67        ldr r3, [pc, #412]  ; (8005ef8 <pow+0x2ac>)
 8005d5c:   960c        str r6, [sp, #48]   ; 0x30
 8005d5e:   9305        str r3, [sp, #20]
 8005d60:   f997 3000   ldrsb.w r3, [r7]
 8005d64:   e9cd 8906   strd    r8, r9, [sp, #24]
 8005d68:   e9cd 4508   strd    r4, r5, [sp, #32]
 8005d6c:   b913        cbnz    r3, 8005d74 <pow+0x128>
 8005d6e:   e9cd ab0a   strd    sl, fp, [sp, #40]   ; 0x28
 8005d72:   e7a7        b.n 8005cc4 <pow+0x78>
 8005d74:   2000        movs    r0, #0
 8005d76:   4962        ldr r1, [pc, #392]  ; (8005f00 <pow+0x2b4>)
 8005d78:   2b02        cmp r3, #2
 8005d7a:   e9cd 010a   strd    r0, r1, [sp, #40]   ; 0x28
 8005d7e:   d1a1        bne.n   8005cc4 <pow+0x78>
 8005d80:   f001 fc3c   bl  80075fc <__errno>
 8005d84:   2321        movs    r3, #33 ; 0x21
 8005d86:   6003        str r3, [r0, #0]
 8005d88:   e7c8        b.n 8005d1c <pow+0xd0>
 8005d8a:   e9dd 0100   ldrd    r0, r1, [sp]
 8005d8e:   f001 fb28   bl  80073e2 <finite>
 8005d92:   9002        str r0, [sp, #8]
 8005d94:   2800        cmp r0, #0
 8005d96:   d17f        bne.n   8005e98 <pow+0x24c>
 8005d98:   4640        mov r0, r8
 8005d9a:   4649        mov r1, r9
 8005d9c:   f001 fb21   bl  80073e2 <finite>
 8005da0:   2800        cmp r0, #0
 8005da2:   d079        beq.n   8005e98 <pow+0x24c>
 8005da4:   4620        mov r0, r4
 8005da6:   4629        mov r1, r5
 8005da8:   f001 fb1b   bl  80073e2 <finite>
 8005dac:   2800        cmp r0, #0
 8005dae:   d073        beq.n   8005e98 <pow+0x24c>
 8005db0:   e9dd 2300   ldrd    r2, r3, [sp]
 8005db4:   4619        mov r1, r3
 8005db6:   4610        mov r0, r2
 8005db8:   f7fa fe24   bl  8000a04 <__aeabi_dcmpun>
 8005dbc:   f997 7000   ldrsb.w r7, [r7]
 8005dc0:   4b4d        ldr r3, [pc, #308]  ; (8005ef8 <pow+0x2ac>)
 8005dc2:   b1a0        cbz r0, 8005dee <pow+0x1a2>
 8005dc4:   2201        movs    r2, #1
 8005dc6:   9305        str r3, [sp, #20]
 8005dc8:   9b02        ldr r3, [sp, #8]
 8005dca:   9204        str r2, [sp, #16]
 8005dcc:   930c        str r3, [sp, #48]   ; 0x30
 8005dce:   e9cd 8906   strd    r8, r9, [sp, #24]
 8005dd2:   e9cd 4508   strd    r4, r5, [sp, #32]
 8005dd6:   2f00        cmp r7, #0
 8005dd8:   d0c9        beq.n   8005d6e <pow+0x122>
 8005dda:   4652        mov r2, sl
 8005ddc:   465b        mov r3, fp
 8005dde:   4650        mov r0, sl
 8005de0:   4659        mov r1, fp
 8005de2:   f7fa fc9f   bl  8000724 <__aeabi_ddiv>
 8005de6:   2f02        cmp r7, #2
 8005de8:   e9cd 010a   strd    r0, r1, [sp, #40]   ; 0x28
 8005dec:   e7c7        b.n 8005d7e <pow+0x132>
 8005dee:   2203        movs    r2, #3
 8005df0:   9305        str r3, [sp, #20]
 8005df2:   9204        str r2, [sp, #16]
 8005df4:   900c        str r0, [sp, #48]   ; 0x30
 8005df6:   e9cd 8906   strd    r8, r9, [sp, #24]
 8005dfa:   e9cd 4508   strd    r4, r5, [sp, #32]
 8005dfe:   bb57        cbnz    r7, 8005e56 <pow+0x20a>
 8005e00:   f04f 4260   mov.w   r2, #3758096384 ; 0xe0000000
 8005e04:   4b3f        ldr r3, [pc, #252]  ; (8005f04 <pow+0x2b8>)
 8005e06:   4640        mov r0, r8
 8005e08:   e9cd 230a   strd    r2, r3, [sp, #40]   ; 0x28
 8005e0c:   4649        mov r1, r9
 8005e0e:   4652        mov r2, sl
 8005e10:   465b        mov r3, fp
 8005e12:   f7fa fdcf   bl  80009b4 <__aeabi_dcmplt>
 8005e16:   2800        cmp r0, #0
 8005e18:   d064        beq.n   8005ee4 <pow+0x298>
 8005e1a:   2200        movs    r2, #0
 8005e1c:   4b3a        ldr r3, [pc, #232]  ; (8005f08 <pow+0x2bc>)
 8005e1e:   4620        mov r0, r4
 8005e20:   4629        mov r1, r5
 8005e22:   f7fa fb55   bl  80004d0 <__aeabi_dmul>
 8005e26:   4604        mov r4, r0
 8005e28:   460d        mov r5, r1
 8005e2a:   f001 fae9   bl  8007400 <rint>
 8005e2e:   4602        mov r2, r0
 8005e30:   460b        mov r3, r1
 8005e32:   4620        mov r0, r4
 8005e34:   4629        mov r1, r5
 8005e36:   f7fa fdb3   bl  80009a0 <__aeabi_dcmpeq>
 8005e3a:   b920        cbnz    r0, 8005e46 <pow+0x1fa>
 8005e3c:   f04f 4260   mov.w   r2, #3758096384 ; 0xe0000000
 8005e40:   4b32        ldr r3, [pc, #200]  ; (8005f0c <pow+0x2c0>)
 8005e42:   e9cd 230a   strd    r2, r3, [sp, #40]   ; 0x28
 8005e46:   f996 3000   ldrsb.w r3, [r6]
 8005e4a:   2b02        cmp r3, #2
 8005e4c:   d14a        bne.n   8005ee4 <pow+0x298>
 8005e4e:   f001 fbd5   bl  80075fc <__errno>
 8005e52:   2322        movs    r3, #34 ; 0x22
 8005e54:   e797        b.n 8005d86 <pow+0x13a>
 8005e56:   2200        movs    r2, #0
 8005e58:   4b2d        ldr r3, [pc, #180]  ; (8005f10 <pow+0x2c4>)
 8005e5a:   4640        mov r0, r8
 8005e5c:   e9cd 230a   strd    r2, r3, [sp, #40]   ; 0x28
 8005e60:   4649        mov r1, r9
 8005e62:   4652        mov r2, sl
 8005e64:   465b        mov r3, fp
 8005e66:   f7fa fda5   bl  80009b4 <__aeabi_dcmplt>
 8005e6a:   2800        cmp r0, #0
 8005e6c:   d0eb        beq.n   8005e46 <pow+0x1fa>
 8005e6e:   2200        movs    r2, #0
 8005e70:   4b25        ldr r3, [pc, #148]  ; (8005f08 <pow+0x2bc>)
 8005e72:   4620        mov r0, r4
 8005e74:   4629        mov r1, r5
 8005e76:   f7fa fb2b   bl  80004d0 <__aeabi_dmul>
 8005e7a:   4604        mov r4, r0
 8005e7c:   460d        mov r5, r1
 8005e7e:   f001 fabf   bl  8007400 <rint>
 8005e82:   4602        mov r2, r0
 8005e84:   460b        mov r3, r1
 8005e86:   4620        mov r0, r4
 8005e88:   4629        mov r1, r5
 8005e8a:   f7fa fd89   bl  80009a0 <__aeabi_dcmpeq>
 8005e8e:   2800        cmp r0, #0
 8005e90:   d1d9        bne.n   8005e46 <pow+0x1fa>
 8005e92:   2200        movs    r2, #0
 8005e94:   4b1a        ldr r3, [pc, #104]  ; (8005f00 <pow+0x2b4>)
 8005e96:   e7d4        b.n 8005e42 <pow+0x1f6>
 8005e98:   2200        movs    r2, #0
 8005e9a:   e9dd 0100   ldrd    r0, r1, [sp]
 8005e9e:   2300        movs    r3, #0
 8005ea0:   f7fa fd7e   bl  80009a0 <__aeabi_dcmpeq>
 8005ea4:   2800        cmp r0, #0
 8005ea6:   f43f af43   beq.w   8005d30 <pow+0xe4>
 8005eaa:   4640        mov r0, r8
 8005eac:   4649        mov r1, r9
 8005eae:   f001 fa98   bl  80073e2 <finite>
 8005eb2:   2800        cmp r0, #0
 8005eb4:   f43f af3c   beq.w   8005d30 <pow+0xe4>
 8005eb8:   4620        mov r0, r4
 8005eba:   4629        mov r1, r5
 8005ebc:   f001 fa91   bl  80073e2 <finite>
 8005ec0:   2800        cmp r0, #0
 8005ec2:   f43f af35   beq.w   8005d30 <pow+0xe4>
 8005ec6:   2304        movs    r3, #4
 8005ec8:   9304        str r3, [sp, #16]
 8005eca:   4b0b        ldr r3, [pc, #44]   ; (8005ef8 <pow+0x2ac>)
 8005ecc:   e9cd 4508   strd    r4, r5, [sp, #32]
 8005ed0:   9305        str r3, [sp, #20]
 8005ed2:   2300        movs    r3, #0
 8005ed4:   2400        movs    r4, #0
 8005ed6:   930c        str r3, [sp, #48]   ; 0x30
 8005ed8:   2300        movs    r3, #0
 8005eda:   e9cd 8906   strd    r8, r9, [sp, #24]
 8005ede:   e9cd 340a   strd    r3, r4, [sp, #40]   ; 0x28
 8005ee2:   e7b0        b.n 8005e46 <pow+0x1fa>
 8005ee4:   a804        add r0, sp, #16
 8005ee6:   f001 fa82   bl  80073ee <matherr>
 8005eea:   2800        cmp r0, #0
 8005eec:   f47f af16   bne.w   8005d1c <pow+0xd0>
 8005ef0:   e7ad        b.n 8005e4e <pow+0x202>
 8005ef2:   bf00        nop
 8005ef4:   20000224    .word   0x20000224
 8005ef8:   08007701    .word   0x08007701
 8005efc:   3ff00000    .word   0x3ff00000
 8005f00:   fff00000    .word   0xfff00000
 8005f04:   47efffff    .word   0x47efffff
 8005f08:   3fe00000    .word   0x3fe00000
 8005f0c:   c7efffff    .word   0xc7efffff
 8005f10:   7ff00000    .word   0x7ff00000

08005f14 <sqrt>:
 8005f14:   e92d 4ff0   stmdb   sp!, {r4, r5, r6, r7, r8, r9, sl, fp, lr}
 8005f18:   b08b        sub sp, #44 ; 0x2c
 8005f1a:   4604        mov r4, r0
 8005f1c:   460d        mov r5, r1
 8005f1e:   f001 f81d   bl  8006f5c <__ieee754_sqrt>
 8005f22:   4b24        ldr r3, [pc, #144]  ; (8005fb4 <sqrt+0xa0>)
 8005f24:   4680        mov r8, r0
 8005f26:   f993 a000   ldrsb.w sl, [r3]
 8005f2a:   4689        mov r9, r1
 8005f2c:   f1ba 3fff   cmp.w   sl, #4294967295 ; 0xffffffff
 8005f30:   d02b        beq.n   8005f8a <sqrt+0x76>
 8005f32:   4622        mov r2, r4
 8005f34:   462b        mov r3, r5
 8005f36:   4620        mov r0, r4
 8005f38:   4629        mov r1, r5
 8005f3a:   f7fa fd63   bl  8000a04 <__aeabi_dcmpun>
 8005f3e:   4683        mov fp, r0
 8005f40:   bb18        cbnz    r0, 8005f8a <sqrt+0x76>
 8005f42:   2600        movs    r6, #0
 8005f44:   2700        movs    r7, #0
 8005f46:   4632        mov r2, r6
 8005f48:   463b        mov r3, r7
 8005f4a:   4620        mov r0, r4
 8005f4c:   4629        mov r1, r5
 8005f4e:   f7fa fd31   bl  80009b4 <__aeabi_dcmplt>
 8005f52:   b1d0        cbz r0, 8005f8a <sqrt+0x76>
 8005f54:   2301        movs    r3, #1
 8005f56:   9300        str r3, [sp, #0]
 8005f58:   4b17        ldr r3, [pc, #92]   ; (8005fb8 <sqrt+0xa4>)
 8005f5a:   f8cd b020   str.w   fp, [sp, #32]
 8005f5e:   9301        str r3, [sp, #4]
 8005f60:   e9cd 4504   strd    r4, r5, [sp, #16]
 8005f64:   e9cd 4502   strd    r4, r5, [sp, #8]
 8005f68:   f1ba 0f00   cmp.w   sl, #0
 8005f6c:   d112        bne.n   8005f94 <sqrt+0x80>
 8005f6e:   e9cd 6706   strd    r6, r7, [sp, #24]
 8005f72:   4668        mov r0, sp
 8005f74:   f001 fa3b   bl  80073ee <matherr>
 8005f78:   b1b8        cbz r0, 8005faa <sqrt+0x96>
 8005f7a:   9b08        ldr r3, [sp, #32]
 8005f7c:   b11b        cbz r3, 8005f86 <sqrt+0x72>
 8005f7e:   f001 fb3d   bl  80075fc <__errno>
 8005f82:   9b08        ldr r3, [sp, #32]
 8005f84:   6003        str r3, [r0, #0]
 8005f86:   e9dd 8906   ldrd    r8, r9, [sp, #24]
 8005f8a:   4640        mov r0, r8
 8005f8c:   4649        mov r1, r9
 8005f8e:   b00b        add sp, #44 ; 0x2c
 8005f90:   e8bd 8ff0   ldmia.w sp!, {r4, r5, r6, r7, r8, r9, sl, fp, pc}
 8005f94:   4632        mov r2, r6
 8005f96:   463b        mov r3, r7
 8005f98:   4630        mov r0, r6
 8005f9a:   4639        mov r1, r7
 8005f9c:   f7fa fbc2   bl  8000724 <__aeabi_ddiv>
 8005fa0:   f1ba 0f02   cmp.w   sl, #2
 8005fa4:   e9cd 0106   strd    r0, r1, [sp, #24]
 8005fa8:   d1e3        bne.n   8005f72 <sqrt+0x5e>
 8005faa:   f001 fb27   bl  80075fc <__errno>
 8005fae:   2321        movs    r3, #33 ; 0x21
 8005fb0:   6003        str r3, [r0, #0]
 8005fb2:   e7e2        b.n 8005f7a <sqrt+0x66>
 8005fb4:   20000224    .word   0x20000224
 8005fb8:   08007705    .word   0x08007705
 8005fbc:   00000000    .word   0x00000000

08005fc0 <__ieee754_asin>:
 8005fc0:   e92d 4ff0   stmdb   sp!, {r4, r5, r6, r7, r8, r9, sl, fp, lr}
 8005fc4:   4bc6        ldr r3, [pc, #792]  ; (80062e0 <__ieee754_asin+0x320>)
 8005fc6:   f021 4b00   bic.w   fp, r1, #2147483648 ; 0x80000000
 8005fca:   b085        sub sp, #20
 8005fcc:   459b        cmp fp, r3
 8005fce:   4604        mov r4, r0
 8005fd0:   460d        mov r5, r1
 8005fd2:   9101        str r1, [sp, #4]
 8005fd4:   dd2b        ble.n   800602e <__ieee754_asin+0x6e>
 8005fd6:   4603        mov r3, r0
 8005fd8:   f10b 4b40   add.w   fp, fp, #3221225472 ; 0xc0000000
 8005fdc:   f50b 1b80   add.w   fp, fp, #1048576    ; 0x100000
 8005fe0:   ea5b 0303   orrs.w  r3, fp, r3
 8005fe4:   d114        bne.n   8006010 <__ieee754_asin+0x50>
 8005fe6:   a3a4        add r3, pc, #656    ; (adr r3, 8006278 <__ieee754_asin+0x2b8>)
 8005fe8:   e9d3 2300   ldrd    r2, r3, [r3]
 8005fec:   f7fa fa70   bl  80004d0 <__aeabi_dmul>
 8005ff0:   a3a3        add r3, pc, #652    ; (adr r3, 8006280 <__ieee754_asin+0x2c0>)
 8005ff2:   e9d3 2300   ldrd    r2, r3, [r3]
 8005ff6:   4606        mov r6, r0
 8005ff8:   460f        mov r7, r1
 8005ffa:   4620        mov r0, r4
 8005ffc:   4629        mov r1, r5
 8005ffe:   f7fa fa67   bl  80004d0 <__aeabi_dmul>
 8006002:   4602        mov r2, r0
 8006004:   460b        mov r3, r1
 8006006:   4630        mov r0, r6
 8006008:   4639        mov r1, r7
 800600a:   f7fa f8af   bl  800016c <__adddf3>
 800600e:   e007        b.n 8006020 <__ieee754_asin+0x60>
 8006010:   4602        mov r2, r0
 8006012:   460b        mov r3, r1
 8006014:   f7fa f8a8   bl  8000168 <__aeabi_dsub>
 8006018:   4602        mov r2, r0
 800601a:   460b        mov r3, r1
 800601c:   f7fa fb82   bl  8000724 <__aeabi_ddiv>
 8006020:   4604        mov r4, r0
 8006022:   460d        mov r5, r1
 8006024:   4620        mov r0, r4
 8006026:   4629        mov r1, r5
 8006028:   b005        add sp, #20
 800602a:   e8bd 8ff0   ldmia.w sp!, {r4, r5, r6, r7, r8, r9, sl, fp, pc}
 800602e:   4bad        ldr r3, [pc, #692]  ; (80062e4 <__ieee754_asin+0x324>)
 8006030:   459b        cmp fp, r3
 8006032:   dc0e        bgt.n   8006052 <__ieee754_asin+0x92>
 8006034:   f1bb 5f79   cmp.w   fp, #1044381696 ; 0x3e400000
 8006038:   f280 80ad   bge.w   8006196 <__ieee754_asin+0x1d6>
 800603c:   a392        add r3, pc, #584    ; (adr r3, 8006288 <__ieee754_asin+0x2c8>)
 800603e:   e9d3 2300   ldrd    r2, r3, [r3]
 8006042:   f7fa f893   bl  800016c <__adddf3>
 8006046:   2200        movs    r2, #0
 8006048:   4ba7        ldr r3, [pc, #668]  ; (80062e8 <__ieee754_asin+0x328>)
 800604a:   f7fa fcd1   bl  80009f0 <__aeabi_dcmpgt>
 800604e:   2800        cmp r0, #0
 8006050:   d1e8        bne.n   8006024 <__ieee754_asin+0x64>
 8006052:   4620        mov r0, r4
 8006054:   4629        mov r1, r5
 8006056:   f001 f9c1   bl  80073dc <fabs>
 800605a:   4602        mov r2, r0
 800605c:   460b        mov r3, r1
 800605e:   2000        movs    r0, #0
 8006060:   49a1        ldr r1, [pc, #644]  ; (80062e8 <__ieee754_asin+0x328>)
 8006062:   f7fa f881   bl  8000168 <__aeabi_dsub>
 8006066:   2200        movs    r2, #0
 8006068:   4ba0        ldr r3, [pc, #640]  ; (80062ec <__ieee754_asin+0x32c>)
 800606a:   f7fa fa31   bl  80004d0 <__aeabi_dmul>
 800606e:   a388        add r3, pc, #544    ; (adr r3, 8006290 <__ieee754_asin+0x2d0>)
 8006070:   e9d3 2300   ldrd    r2, r3, [r3]
 8006074:   4604        mov r4, r0
 8006076:   460d        mov r5, r1
 8006078:   f7fa fa2a   bl  80004d0 <__aeabi_dmul>
 800607c:   a386        add r3, pc, #536    ; (adr r3, 8006298 <__ieee754_asin+0x2d8>)
 800607e:   e9d3 2300   ldrd    r2, r3, [r3]
 8006082:   f7fa f873   bl  800016c <__adddf3>
 8006086:   4622        mov r2, r4
 8006088:   462b        mov r3, r5
 800608a:   f7fa fa21   bl  80004d0 <__aeabi_dmul>
 800608e:   a384        add r3, pc, #528    ; (adr r3, 80062a0 <__ieee754_asin+0x2e0>)
 8006090:   e9d3 2300   ldrd    r2, r3, [r3]
 8006094:   f7fa f868   bl  8000168 <__aeabi_dsub>
 8006098:   4622        mov r2, r4
 800609a:   462b        mov r3, r5
 800609c:   f7fa fa18   bl  80004d0 <__aeabi_dmul>
 80060a0:   a381        add r3, pc, #516    ; (adr r3, 80062a8 <__ieee754_asin+0x2e8>)
 80060a2:   e9d3 2300   ldrd    r2, r3, [r3]
 80060a6:   f7fa f861   bl  800016c <__adddf3>
 80060aa:   4622        mov r2, r4
 80060ac:   462b        mov r3, r5
 80060ae:   f7fa fa0f   bl  80004d0 <__aeabi_dmul>
 80060b2:   a37f        add r3, pc, #508    ; (adr r3, 80062b0 <__ieee754_asin+0x2f0>)
 80060b4:   e9d3 2300   ldrd    r2, r3, [r3]
 80060b8:   f7fa f856   bl  8000168 <__aeabi_dsub>
 80060bc:   4622        mov r2, r4
 80060be:   462b        mov r3, r5
 80060c0:   f7fa fa06   bl  80004d0 <__aeabi_dmul>
 80060c4:   a37c        add r3, pc, #496    ; (adr r3, 80062b8 <__ieee754_asin+0x2f8>)
 80060c6:   e9d3 2300   ldrd    r2, r3, [r3]
 80060ca:   f7fa f84f   bl  800016c <__adddf3>
 80060ce:   4622        mov r2, r4
 80060d0:   462b        mov r3, r5
 80060d2:   f7fa f9fd   bl  80004d0 <__aeabi_dmul>
 80060d6:   a37a        add r3, pc, #488    ; (adr r3, 80062c0 <__ieee754_asin+0x300>)
 80060d8:   e9d3 2300   ldrd    r2, r3, [r3]
 80060dc:   4680        mov r8, r0
 80060de:   4689        mov r9, r1
 80060e0:   4620        mov r0, r4
 80060e2:   4629        mov r1, r5
 80060e4:   f7fa f9f4   bl  80004d0 <__aeabi_dmul>
 80060e8:   a377        add r3, pc, #476    ; (adr r3, 80062c8 <__ieee754_asin+0x308>)
 80060ea:   e9d3 2300   ldrd    r2, r3, [r3]
 80060ee:   f7fa f83b   bl  8000168 <__aeabi_dsub>
 80060f2:   4622        mov r2, r4
 80060f4:   462b        mov r3, r5
 80060f6:   f7fa f9eb   bl  80004d0 <__aeabi_dmul>
 80060fa:   a375        add r3, pc, #468    ; (adr r3, 80062d0 <__ieee754_asin+0x310>)
 80060fc:   e9d3 2300   ldrd    r2, r3, [r3]
 8006100:   f7fa f834   bl  800016c <__adddf3>
 8006104:   4622        mov r2, r4
 8006106:   462b        mov r3, r5
 8006108:   f7fa f9e2   bl  80004d0 <__aeabi_dmul>
 800610c:   a372        add r3, pc, #456    ; (adr r3, 80062d8 <__ieee754_asin+0x318>)
 800610e:   e9d3 2300   ldrd    r2, r3, [r3]
 8006112:   f7fa f829   bl  8000168 <__aeabi_dsub>
 8006116:   4622        mov r2, r4
 8006118:   462b        mov r3, r5
 800611a:   f7fa f9d9   bl  80004d0 <__aeabi_dmul>
 800611e:   2200        movs    r2, #0
 8006120:   4b71        ldr r3, [pc, #452]  ; (80062e8 <__ieee754_asin+0x328>)
 8006122:   f7fa f823   bl  800016c <__adddf3>
 8006126:   4602        mov r2, r0
 8006128:   460b        mov r3, r1
 800612a:   4620        mov r0, r4
 800612c:   4629        mov r1, r5
 800612e:   e9cd 2302   strd    r2, r3, [sp, #8]
 8006132:   f000 ff13   bl  8006f5c <__ieee754_sqrt>
 8006136:   e9dd 2302   ldrd    r2, r3, [sp, #8]
 800613a:   460f        mov r7, r1
 800613c:   496c        ldr r1, [pc, #432]  ; (80062f0 <__ieee754_asin+0x330>)
 800613e:   4606        mov r6, r0
 8006140:   458b        cmp fp, r1
 8006142:   f340 80d7   ble.w   80062f4 <__ieee754_asin+0x334>
 8006146:   4640        mov r0, r8
 8006148:   4649        mov r1, r9
 800614a:   f7fa faeb   bl  8000724 <__aeabi_ddiv>
 800614e:   4632        mov r2, r6
 8006150:   463b        mov r3, r7
 8006152:   f7fa f9bd   bl  80004d0 <__aeabi_dmul>
 8006156:   4632        mov r2, r6
 8006158:   463b        mov r3, r7
 800615a:   f7fa f807   bl  800016c <__adddf3>
 800615e:   4602        mov r2, r0
 8006160:   460b        mov r3, r1
 8006162:   f7fa f803   bl  800016c <__adddf3>
 8006166:   a346        add r3, pc, #280    ; (adr r3, 8006280 <__ieee754_asin+0x2c0>)
 8006168:   e9d3 2300   ldrd    r2, r3, [r3]
 800616c:   f7f9 fffc   bl  8000168 <__aeabi_dsub>
 8006170:   4602        mov r2, r0
 8006172:   460b        mov r3, r1
 8006174:   a140        add r1, pc, #256    ; (adr r1, 8006278 <__ieee754_asin+0x2b8>)
 8006176:   e9d1 0100   ldrd    r0, r1, [r1]
 800617a:   f7f9 fff5   bl  8000168 <__aeabi_dsub>
 800617e:   9b01        ldr r3, [sp, #4]
 8006180:   4604        mov r4, r0
 8006182:   2b00        cmp r3, #0
 8006184:   bfdc        itt le
 8006186:   4602        movle   r2, r0
 8006188:   f101 4300   addle.w r3, r1, #2147483648 ; 0x80000000
 800618c:   460d        mov r5, r1
 800618e:   bfdc        itt le
 8006190:   4614        movle   r4, r2
 8006192:   461d        movle   r5, r3
 8006194:   e746        b.n 8006024 <__ieee754_asin+0x64>
 8006196:   4602        mov r2, r0
 8006198:   460b        mov r3, r1
 800619a:   f7fa f999   bl  80004d0 <__aeabi_dmul>
 800619e:   a33c        add r3, pc, #240    ; (adr r3, 8006290 <__ieee754_asin+0x2d0>)
 80061a0:   e9d3 2300   ldrd    r2, r3, [r3]
 80061a4:   4606        mov r6, r0
 80061a6:   460f        mov r7, r1
 80061a8:   f7fa f992   bl  80004d0 <__aeabi_dmul>
 80061ac:   a33a        add r3, pc, #232    ; (adr r3, 8006298 <__ieee754_asin+0x2d8>)
 80061ae:   e9d3 2300   ldrd    r2, r3, [r3]
 80061b2:   f7f9 ffdb   bl  800016c <__adddf3>
 80061b6:   4632        mov r2, r6
 80061b8:   463b        mov r3, r7
 80061ba:   f7fa f989   bl  80004d0 <__aeabi_dmul>
 80061be:   a338        add r3, pc, #224    ; (adr r3, 80062a0 <__ieee754_asin+0x2e0>)
 80061c0:   e9d3 2300   ldrd    r2, r3, [r3]
 80061c4:   f7f9 ffd0   bl  8000168 <__aeabi_dsub>
 80061c8:   4632        mov r2, r6
 80061ca:   463b        mov r3, r7
 80061cc:   f7fa f980   bl  80004d0 <__aeabi_dmul>
 80061d0:   a335        add r3, pc, #212    ; (adr r3, 80062a8 <__ieee754_asin+0x2e8>)
 80061d2:   e9d3 2300   ldrd    r2, r3, [r3]
 80061d6:   f7f9 ffc9   bl  800016c <__adddf3>
 80061da:   4632        mov r2, r6
 80061dc:   463b        mov r3, r7
 80061de:   f7fa f977   bl  80004d0 <__aeabi_dmul>
 80061e2:   a333        add r3, pc, #204    ; (adr r3, 80062b0 <__ieee754_asin+0x2f0>)
 80061e4:   e9d3 2300   ldrd    r2, r3, [r3]
 80061e8:   f7f9 ffbe   bl  8000168 <__aeabi_dsub>
 80061ec:   4632        mov r2, r6
 80061ee:   463b        mov r3, r7
 80061f0:   f7fa f96e   bl  80004d0 <__aeabi_dmul>
 80061f4:   a330        add r3, pc, #192    ; (adr r3, 80062b8 <__ieee754_asin+0x2f8>)
 80061f6:   e9d3 2300   ldrd    r2, r3, [r3]
 80061fa:   f7f9 ffb7   bl  800016c <__adddf3>
 80061fe:   4632        mov r2, r6
 8006200:   463b        mov r3, r7
 8006202:   f7fa f965   bl  80004d0 <__aeabi_dmul>
 8006206:   a32e        add r3, pc, #184    ; (adr r3, 80062c0 <__ieee754_asin+0x300>)
 8006208:   e9d3 2300   ldrd    r2, r3, [r3]
 800620c:   4680        mov r8, r0
 800620e:   4689        mov r9, r1
 8006210:   4630        mov r0, r6
 8006212:   4639        mov r1, r7
 8006214:   f7fa f95c   bl  80004d0 <__aeabi_dmul>
 8006218:   a32b        add r3, pc, #172    ; (adr r3, 80062c8 <__ieee754_asin+0x308>)
 800621a:   e9d3 2300   ldrd    r2, r3, [r3]
 800621e:   f7f9 ffa3   bl  8000168 <__aeabi_dsub>
 8006222:   4632        mov r2, r6
 8006224:   463b        mov r3, r7
 8006226:   f7fa f953   bl  80004d0 <__aeabi_dmul>
 800622a:   a329        add r3, pc, #164    ; (adr r3, 80062d0 <__ieee754_asin+0x310>)
 800622c:   e9d3 2300   ldrd    r2, r3, [r3]
 8006230:   f7f9 ff9c   bl  800016c <__adddf3>
 8006234:   4632        mov r2, r6
 8006236:   463b        mov r3, r7
 8006238:   f7fa f94a   bl  80004d0 <__aeabi_dmul>
 800623c:   a326        add r3, pc, #152    ; (adr r3, 80062d8 <__ieee754_asin+0x318>)
 800623e:   e9d3 2300   ldrd    r2, r3, [r3]
 8006242:   f7f9 ff91   bl  8000168 <__aeabi_dsub>
 8006246:   4632        mov r2, r6
 8006248:   463b        mov r3, r7
 800624a:   f7fa f941   bl  80004d0 <__aeabi_dmul>
 800624e:   2200        movs    r2, #0
 8006250:   4b25        ldr r3, [pc, #148]  ; (80062e8 <__ieee754_asin+0x328>)
 8006252:   f7f9 ff8b   bl  800016c <__adddf3>
 8006256:   4602        mov r2, r0
 8006258:   460b        mov r3, r1
 800625a:   4640        mov r0, r8
 800625c:   4649        mov r1, r9
 800625e:   f7fa fa61   bl  8000724 <__aeabi_ddiv>
 8006262:   4622        mov r2, r4
 8006264:   462b        mov r3, r5
 8006266:   f7fa f933   bl  80004d0 <__aeabi_dmul>
 800626a:   4602        mov r2, r0
 800626c:   460b        mov r3, r1
 800626e:   4620        mov r0, r4
 8006270:   4629        mov r1, r5
 8006272:   e6ca        b.n 800600a <__ieee754_asin+0x4a>
 8006274:   f3af 8000   nop.w
 8006278:   54442d18    .word   0x54442d18
 800627c:   3ff921fb    .word   0x3ff921fb
 8006280:   33145c07    .word   0x33145c07
 8006284:   3c91a626    .word   0x3c91a626
 8006288:   8800759c    .word   0x8800759c
 800628c:   7e37e43c    .word   0x7e37e43c
 8006290:   0dfdf709    .word   0x0dfdf709
 8006294:   3f023de1    .word   0x3f023de1
 8006298:   7501b288    .word   0x7501b288
 800629c:   3f49efe0    .word   0x3f49efe0
 80062a0:   b5688f3b    .word   0xb5688f3b
 80062a4:   3fa48228    .word   0x3fa48228
 80062a8:   0e884455    .word   0x0e884455
 80062ac:   3fc9c155    .word   0x3fc9c155
 80062b0:   03eb6f7d    .word   0x03eb6f7d
 80062b4:   3fd4d612    .word   0x3fd4d612
 80062b8:   55555555    .word   0x55555555
 80062bc:   3fc55555    .word   0x3fc55555
 80062c0:   b12e9282    .word   0xb12e9282
 80062c4:   3fb3b8c5    .word   0x3fb3b8c5
 80062c8:   1b8d0159    .word   0x1b8d0159
 80062cc:   3fe6066c    .word   0x3fe6066c
 80062d0:   9c598ac8    .word   0x9c598ac8
 80062d4:   40002ae5    .word   0x40002ae5
 80062d8:   1c8a2d4b    .word   0x1c8a2d4b
 80062dc:   40033a27    .word   0x40033a27
 80062e0:   3fefffff    .word   0x3fefffff
 80062e4:   3fdfffff    .word   0x3fdfffff
 80062e8:   3ff00000    .word   0x3ff00000
 80062ec:   3fe00000    .word   0x3fe00000
 80062f0:   3fef3332    .word   0x3fef3332
 80062f4:   4640        mov r0, r8
 80062f6:   4649        mov r1, r9
 80062f8:   f7fa fa14   bl  8000724 <__aeabi_ddiv>
 80062fc:   4632        mov r2, r6
 80062fe:   4680        mov r8, r0
 8006300:   4689        mov r9, r1
 8006302:   463b        mov r3, r7
 8006304:   4630        mov r0, r6
 8006306:   4639        mov r1, r7
 8006308:   f7f9 ff30   bl  800016c <__adddf3>
 800630c:   4602        mov r2, r0
 800630e:   460b        mov r3, r1
 8006310:   4640        mov r0, r8
 8006312:   4649        mov r1, r9
 8006314:   f7fa f8dc   bl  80004d0 <__aeabi_dmul>
 8006318:   f04f 0a00   mov.w   sl, #0
 800631c:   4680        mov r8, r0
 800631e:   4689        mov r9, r1
 8006320:   4652        mov r2, sl
 8006322:   463b        mov r3, r7
 8006324:   4650        mov r0, sl
 8006326:   4639        mov r1, r7
 8006328:   f7fa f8d2   bl  80004d0 <__aeabi_dmul>
 800632c:   4602        mov r2, r0
 800632e:   460b        mov r3, r1
 8006330:   4620        mov r0, r4
 8006332:   4629        mov r1, r5
 8006334:   f7f9 ff18   bl  8000168 <__aeabi_dsub>
 8006338:   4652        mov r2, sl
 800633a:   4604        mov r4, r0
 800633c:   460d        mov r5, r1
 800633e:   463b        mov r3, r7
 8006340:   4630        mov r0, r6
 8006342:   4639        mov r1, r7
 8006344:   f7f9 ff12   bl  800016c <__adddf3>
 8006348:   4602        mov r2, r0
 800634a:   460b        mov r3, r1
 800634c:   4620        mov r0, r4
 800634e:   4629        mov r1, r5
 8006350:   f7fa f9e8   bl  8000724 <__aeabi_ddiv>
 8006354:   4602        mov r2, r0
 8006356:   460b        mov r3, r1
 8006358:   f7f9 ff08   bl  800016c <__adddf3>
 800635c:   4602        mov r2, r0
 800635e:   460b        mov r3, r1
 8006360:   a113        add r1, pc, #76 ; (adr r1, 80063b0 <__ieee754_asin+0x3f0>)
 8006362:   e9d1 0100   ldrd    r0, r1, [r1]
 8006366:   f7f9 feff   bl  8000168 <__aeabi_dsub>
 800636a:   4602        mov r2, r0
 800636c:   460b        mov r3, r1
 800636e:   4640        mov r0, r8
 8006370:   4649        mov r1, r9
 8006372:   f7f9 fef9   bl  8000168 <__aeabi_dsub>
 8006376:   4652        mov r2, sl
 8006378:   4604        mov r4, r0
 800637a:   460d        mov r5, r1
 800637c:   463b        mov r3, r7
 800637e:   4650        mov r0, sl
 8006380:   4639        mov r1, r7
 8006382:   f7f9 fef3   bl  800016c <__adddf3>
 8006386:   4602        mov r2, r0
 8006388:   460b        mov r3, r1
 800638a:   a10b        add r1, pc, #44 ; (adr r1, 80063b8 <__ieee754_asin+0x3f8>)
 800638c:   e9d1 0100   ldrd    r0, r1, [r1]
 8006390:   f7f9 feea   bl  8000168 <__aeabi_dsub>
 8006394:   4602        mov r2, r0
 8006396:   460b        mov r3, r1
 8006398:   4620        mov r0, r4
 800639a:   4629        mov r1, r5
 800639c:   f7f9 fee4   bl  8000168 <__aeabi_dsub>
 80063a0:   4602        mov r2, r0
 80063a2:   460b        mov r3, r1
 80063a4:   a104        add r1, pc, #16 ; (adr r1, 80063b8 <__ieee754_asin+0x3f8>)
 80063a6:   e9d1 0100   ldrd    r0, r1, [r1]
 80063aa:   e6e6        b.n 800617a <__ieee754_asin+0x1ba>
 80063ac:   f3af 8000   nop.w
 80063b0:   33145c07    .word   0x33145c07
 80063b4:   3c91a626    .word   0x3c91a626
 80063b8:   54442d18    .word   0x54442d18
 80063bc:   3fe921fb    .word   0x3fe921fb

080063c0 <__ieee754_atan2>:
 80063c0:   e92d 4ff8   stmdb   sp!, {r3, r4, r5, r6, r7, r8, r9, sl, fp, lr}
 80063c4:   4256        negs    r6, r2
 80063c6:   f023 4e00   bic.w   lr, r3, #2147483648 ; 0x80000000
 80063ca:   4316        orrs    r6, r2
 80063cc:   f8df 91a0   ldr.w   r9, [pc, #416]  ; 8006570 <__ieee754_atan2+0x1b0>
 80063d0:   ea4e 76d6   orr.w   r6, lr, r6, lsr #31
 80063d4:   454e        cmp r6, r9
 80063d6:   4604        mov r4, r0
 80063d8:   460d        mov r5, r1
 80063da:   4688        mov r8, r1
 80063dc:   d807        bhi.n   80063ee <__ieee754_atan2+0x2e>
 80063de:   4246        negs    r6, r0
 80063e0:   f021 4700   bic.w   r7, r1, #2147483648 ; 0x80000000
 80063e4:   4306        orrs    r6, r0
 80063e6:   ea47 76d6   orr.w   r6, r7, r6, lsr #31
 80063ea:   454e        cmp r6, r9
 80063ec:   d906        bls.n   80063fc <__ieee754_atan2+0x3c>
 80063ee:   4620        mov r0, r4
 80063f0:   4629        mov r1, r5
 80063f2:   f7f9 febb   bl  800016c <__adddf3>
 80063f6:   4604        mov r4, r0
 80063f8:   460d        mov r5, r1
 80063fa:   e015        b.n 8006428 <__ieee754_atan2+0x68>
 80063fc:   f103 4640   add.w   r6, r3, #3221225472 ; 0xc0000000
 8006400:   f506 1680   add.w   r6, r6, #1048576    ; 0x100000
 8006404:   4316        orrs    r6, r2
 8006406:   d103        bne.n   8006410 <__ieee754_atan2+0x50>
 8006408:   e8bd 4ff8   ldmia.w sp!, {r3, r4, r5, r6, r7, r8, r9, sl, fp, lr}
 800640c:   f000 be54   b.w 80070b8 <atan>
 8006410:   179e        asrs    r6, r3, #30
 8006412:   f006 0602   and.w   r6, r6, #2
 8006416:   ea46 76d1   orr.w   r6, r6, r1, lsr #31
 800641a:   ea50 0107   orrs.w  r1, r0, r7
 800641e:   d107        bne.n   8006430 <__ieee754_atan2+0x70>
 8006420:   2e02        cmp r6, #2
 8006422:   d030        beq.n   8006486 <__ieee754_atan2+0xc6>
 8006424:   2e03        cmp r6, #3
 8006426:   d032        beq.n   800648e <__ieee754_atan2+0xce>
 8006428:   4620        mov r0, r4
 800642a:   4629        mov r1, r5
 800642c:   e8bd 8ff8   ldmia.w sp!, {r3, r4, r5, r6, r7, r8, r9, sl, fp, pc}
 8006430:   ea52 010e   orrs.w  r1, r2, lr
 8006434:   d106        bne.n   8006444 <__ieee754_atan2+0x84>
 8006436:   f1b8 0f00   cmp.w   r8, #0
 800643a:   da71        bge.n   8006520 <__ieee754_atan2+0x160>
 800643c:   a53a        add r5, pc, #232    ; (adr r5, 8006528 <__ieee754_atan2+0x168>)
 800643e:   e9d5 4500   ldrd    r4, r5, [r5]
 8006442:   e7f1        b.n 8006428 <__ieee754_atan2+0x68>
 8006444:   45ce        cmp lr, r9
 8006446:   d126        bne.n   8006496 <__ieee754_atan2+0xd6>
 8006448:   4577        cmp r7, lr
 800644a:   d111        bne.n   8006470 <__ieee754_atan2+0xb0>
 800644c:   2e02        cmp r6, #2
 800644e:   d007        beq.n   8006460 <__ieee754_atan2+0xa0>
 8006450:   2e03        cmp r6, #3
 8006452:   d009        beq.n   8006468 <__ieee754_atan2+0xa8>
 8006454:   2e01        cmp r6, #1
 8006456:   d15d        bne.n   8006514 <__ieee754_atan2+0x154>
 8006458:   a535        add r5, pc, #212    ; (adr r5, 8006530 <__ieee754_atan2+0x170>)
 800645a:   e9d5 4500   ldrd    r4, r5, [r5]
 800645e:   e7e3        b.n 8006428 <__ieee754_atan2+0x68>
 8006460:   a535        add r5, pc, #212    ; (adr r5, 8006538 <__ieee754_atan2+0x178>)
 8006462:   e9d5 4500   ldrd    r4, r5, [r5]
 8006466:   e7df        b.n 8006428 <__ieee754_atan2+0x68>
 8006468:   a535        add r5, pc, #212    ; (adr r5, 8006540 <__ieee754_atan2+0x180>)
 800646a:   e9d5 4500   ldrd    r4, r5, [r5]
 800646e:   e7db        b.n 8006428 <__ieee754_atan2+0x68>
 8006470:   2e02        cmp r6, #2
 8006472:   d008        beq.n   8006486 <__ieee754_atan2+0xc6>
 8006474:   2e03        cmp r6, #3
 8006476:   d00a        beq.n   800648e <__ieee754_atan2+0xce>
 8006478:   2e01        cmp r6, #1
 800647a:   f04f 0400   mov.w   r4, #0
 800647e:   d14d        bne.n   800651c <__ieee754_atan2+0x15c>
 8006480:   f04f 4500   mov.w   r5, #2147483648 ; 0x80000000
 8006484:   e7d0        b.n 8006428 <__ieee754_atan2+0x68>
 8006486:   a530        add r5, pc, #192    ; (adr r5, 8006548 <__ieee754_atan2+0x188>)
 8006488:   e9d5 4500   ldrd    r4, r5, [r5]
 800648c:   e7cc        b.n 8006428 <__ieee754_atan2+0x68>
 800648e:   a530        add r5, pc, #192    ; (adr r5, 8006550 <__ieee754_atan2+0x190>)
 8006490:   e9d5 4500   ldrd    r4, r5, [r5]
 8006494:   e7c8        b.n 8006428 <__ieee754_atan2+0x68>
 8006496:   454f        cmp r7, r9
 8006498:   d0cd        beq.n   8006436 <__ieee754_atan2+0x76>
 800649a:   eba7 070e   sub.w   r7, r7, lr
 800649e:   153f        asrs    r7, r7, #20
 80064a0:   2f3c        cmp r7, #60 ; 0x3c
 80064a2:   dc1e        bgt.n   80064e2 <__ieee754_atan2+0x122>
 80064a4:   2b00        cmp r3, #0
 80064a6:   da01        bge.n   80064ac <__ieee754_atan2+0xec>
 80064a8:   373c        adds    r7, #60 ; 0x3c
 80064aa:   db1e        blt.n   80064ea <__ieee754_atan2+0x12a>
 80064ac:   4620        mov r0, r4
 80064ae:   4629        mov r1, r5
 80064b0:   f7fa f938   bl  8000724 <__aeabi_ddiv>
 80064b4:   f000 ff92   bl  80073dc <fabs>
 80064b8:   f000 fdfe   bl  80070b8 <atan>
 80064bc:   4604        mov r4, r0
 80064be:   460d        mov r5, r1
 80064c0:   2e01        cmp r6, #1
 80064c2:   d015        beq.n   80064f0 <__ieee754_atan2+0x130>
 80064c4:   2e02        cmp r6, #2
 80064c6:   d016        beq.n   80064f6 <__ieee754_atan2+0x136>
 80064c8:   2e00        cmp r6, #0
 80064ca:   d0ad        beq.n   8006428 <__ieee754_atan2+0x68>
 80064cc:   a322        add r3, pc, #136    ; (adr r3, 8006558 <__ieee754_atan2+0x198>)
 80064ce:   e9d3 2300   ldrd    r2, r3, [r3]
 80064d2:   4620        mov r0, r4
 80064d4:   4629        mov r1, r5
 80064d6:   f7f9 fe47   bl  8000168 <__aeabi_dsub>
 80064da:   a31b        add r3, pc, #108    ; (adr r3, 8006548 <__ieee754_atan2+0x188>)
 80064dc:   e9d3 2300   ldrd    r2, r3, [r3]
 80064e0:   e015        b.n 800650e <__ieee754_atan2+0x14e>
 80064e2:   a51f        add r5, pc, #124    ; (adr r5, 8006560 <__ieee754_atan2+0x1a0>)
 80064e4:   e9d5 4500   ldrd    r4, r5, [r5]
 80064e8:   e7ea        b.n 80064c0 <__ieee754_atan2+0x100>
 80064ea:   2400        movs    r4, #0
 80064ec:   2500        movs    r5, #0
 80064ee:   e7e7        b.n 80064c0 <__ieee754_atan2+0x100>
 80064f0:   f105 4500   add.w   r5, r5, #2147483648 ; 0x80000000
 80064f4:   e798        b.n 8006428 <__ieee754_atan2+0x68>
 80064f6:   a318        add r3, pc, #96 ; (adr r3, 8006558 <__ieee754_atan2+0x198>)
 80064f8:   e9d3 2300   ldrd    r2, r3, [r3]
 80064fc:   4620        mov r0, r4
 80064fe:   4629        mov r1, r5
 8006500:   f7f9 fe32   bl  8000168 <__aeabi_dsub>
 8006504:   4602        mov r2, r0
 8006506:   460b        mov r3, r1
 8006508:   a10f        add r1, pc, #60 ; (adr r1, 8006548 <__ieee754_atan2+0x188>)
 800650a:   e9d1 0100   ldrd    r0, r1, [r1]
 800650e:   f7f9 fe2b   bl  8000168 <__aeabi_dsub>
 8006512:   e770        b.n 80063f6 <__ieee754_atan2+0x36>
 8006514:   a514        add r5, pc, #80 ; (adr r5, 8006568 <__ieee754_atan2+0x1a8>)
 8006516:   e9d5 4500   ldrd    r4, r5, [r5]
 800651a:   e785        b.n 8006428 <__ieee754_atan2+0x68>
 800651c:   2500        movs    r5, #0
 800651e:   e783        b.n 8006428 <__ieee754_atan2+0x68>
 8006520:   a50f        add r5, pc, #60 ; (adr r5, 8006560 <__ieee754_atan2+0x1a0>)
 8006522:   e9d5 4500   ldrd    r4, r5, [r5]
 8006526:   e77f        b.n 8006428 <__ieee754_atan2+0x68>
 8006528:   54442d18    .word   0x54442d18
 800652c:   bff921fb    .word   0xbff921fb
 8006530:   54442d18    .word   0x54442d18
 8006534:   bfe921fb    .word   0xbfe921fb
 8006538:   7f3321d2    .word   0x7f3321d2
 800653c:   4002d97c    .word   0x4002d97c
 8006540:   7f3321d2    .word   0x7f3321d2
 8006544:   c002d97c    .word   0xc002d97c
 8006548:   54442d18    .word   0x54442d18
 800654c:   400921fb    .word   0x400921fb
 8006550:   54442d18    .word   0x54442d18
 8006554:   c00921fb    .word   0xc00921fb
 8006558:   33145c07    .word   0x33145c07
 800655c:   3ca1a626    .word   0x3ca1a626
 8006560:   54442d18    .word   0x54442d18
 8006564:   3ff921fb    .word   0x3ff921fb
 8006568:   54442d18    .word   0x54442d18
 800656c:   3fe921fb    .word   0x3fe921fb
 8006570:   7ff00000    .word   0x7ff00000
 8006574:   00000000    .word   0x00000000

08006578 <__ieee754_pow>:
 8006578:   e92d 4ff0   stmdb   sp!, {r4, r5, r6, r7, r8, r9, sl, fp, lr}
 800657c:   b093        sub sp, #76 ; 0x4c
 800657e:   e9cd 2302   strd    r2, r3, [sp, #8]
 8006582:   9e03        ldr r6, [sp, #12]
 8006584:   9a02        ldr r2, [sp, #8]
 8006586:   f026 4500   bic.w   r5, r6, #2147483648 ; 0x80000000
 800658a:   ea55 0302   orrs.w  r3, r5, r2
 800658e:   4607        mov r7, r0
 8006590:   4688        mov r8, r1
 8006592:   4682        mov sl, r0
 8006594:   4689        mov r9, r1
 8006596:   f000 849e   beq.w   8006ed6 <__ieee754_pow+0x95e>
 800659a:   4b77        ldr r3, [pc, #476]  ; (8006778 <__ieee754_pow+0x200>)
 800659c:   f021 4400   bic.w   r4, r1, #2147483648 ; 0x80000000
 80065a0:   429c        cmp r4, r3
 80065a2:   dc09        bgt.n   80065b8 <__ieee754_pow+0x40>
 80065a4:   d103        bne.n   80065ae <__ieee754_pow+0x36>
 80065a6:   b938        cbnz    r0, 80065b8 <__ieee754_pow+0x40>
 80065a8:   42a5        cmp r5, r4
 80065aa:   dc0d        bgt.n   80065c8 <__ieee754_pow+0x50>
 80065ac:   e001        b.n 80065b2 <__ieee754_pow+0x3a>
 80065ae:   429d        cmp r5, r3
 80065b0:   dc02        bgt.n   80065b8 <__ieee754_pow+0x40>
 80065b2:   429d        cmp r5, r3
 80065b4:   d10e        bne.n   80065d4 <__ieee754_pow+0x5c>
 80065b6:   b16a        cbz r2, 80065d4 <__ieee754_pow+0x5c>
 80065b8:   f104 4440   add.w   r4, r4, #3221225472 ; 0xc0000000
 80065bc:   f504 1480   add.w   r4, r4, #1048576    ; 0x100000
 80065c0:   ea54 030a   orrs.w  r3, r4, sl
 80065c4:   f000 8487   beq.w   8006ed6 <__ieee754_pow+0x95e>
 80065c8:   486c        ldr r0, [pc, #432]  ; (800677c <__ieee754_pow+0x204>)
 80065ca:   b013        add sp, #76 ; 0x4c
 80065cc:   e8bd 4ff0   ldmia.w sp!, {r4, r5, r6, r7, r8, r9, sl, fp, lr}
 80065d0:   f000 bf10   b.w 80073f4 <nan>
 80065d4:   f1b9 0f00   cmp.w   r9, #0
 80065d8:   da4f        bge.n   800667a <__ieee754_pow+0x102>
 80065da:   4b69        ldr r3, [pc, #420]  ; (8006780 <__ieee754_pow+0x208>)
 80065dc:   429d        cmp r5, r3
 80065de:   dc4a        bgt.n   8006676 <__ieee754_pow+0xfe>
 80065e0:   f1a3 7354   sub.w   r3, r3, #55574528   ; 0x3500000
 80065e4:   429d        cmp r5, r3
 80065e6:   dd48        ble.n   800667a <__ieee754_pow+0x102>
 80065e8:   152b        asrs    r3, r5, #20
 80065ea:   f2a3 33ff   subw    r3, r3, #1023   ; 0x3ff
 80065ee:   2b14        cmp r3, #20
 80065f0:   dd24        ble.n   800663c <__ieee754_pow+0xc4>
 80065f2:   f1c3 0334   rsb r3, r3, #52 ; 0x34
 80065f6:   fa22 f103   lsr.w   r1, r2, r3
 80065fa:   fa01 f303   lsl.w   r3, r1, r3
 80065fe:   429a        cmp r2, r3
 8006600:   d13b        bne.n   800667a <__ieee754_pow+0x102>
 8006602:   f001 0101   and.w   r1, r1, #1
 8006606:   f1c1 0302   rsb r3, r1, #2
 800660a:   9300        str r3, [sp, #0]
 800660c:   2a00        cmp r2, #0
 800660e:   d156        bne.n   80066be <__ieee754_pow+0x146>
 8006610:   4b59        ldr r3, [pc, #356]  ; (8006778 <__ieee754_pow+0x200>)
 8006612:   429d        cmp r5, r3
 8006614:   d122        bne.n   800665c <__ieee754_pow+0xe4>
 8006616:   f104 4340   add.w   r3, r4, #3221225472 ; 0xc0000000
 800661a:   f503 1380   add.w   r3, r3, #1048576    ; 0x100000
 800661e:   ea53 030a   orrs.w  r3, r3, sl
 8006622:   f000 8458   beq.w   8006ed6 <__ieee754_pow+0x95e>
 8006626:   4b57        ldr r3, [pc, #348]  ; (8006784 <__ieee754_pow+0x20c>)
 8006628:   429c        cmp r4, r3
 800662a:   dd28        ble.n   800667e <__ieee754_pow+0x106>
 800662c:   2e00        cmp r6, #0
 800662e:   f280 8456   bge.w   8006ede <__ieee754_pow+0x966>
 8006632:   2000        movs    r0, #0
 8006634:   2100        movs    r1, #0
 8006636:   b013        add sp, #76 ; 0x4c
 8006638:   e8bd 8ff0   ldmia.w sp!, {r4, r5, r6, r7, r8, r9, sl, fp, pc}
 800663c:   2a00        cmp r2, #0
 800663e:   d13c        bne.n   80066ba <__ieee754_pow+0x142>
 8006640:   f1c3 0314   rsb r3, r3, #20
 8006644:   fa45 f103   asr.w   r1, r5, r3
 8006648:   fa01 f303   lsl.w   r3, r1, r3
 800664c:   429d        cmp r5, r3
 800664e:   f040 844e   bne.w   8006eee <__ieee754_pow+0x976>
 8006652:   f001 0101   and.w   r1, r1, #1
 8006656:   f1c1 0302   rsb r3, r1, #2
 800665a:   9300        str r3, [sp, #0]
 800665c:   4b4a        ldr r3, [pc, #296]  ; (8006788 <__ieee754_pow+0x210>)
 800665e:   429d        cmp r5, r3
 8006660:   d114        bne.n   800668c <__ieee754_pow+0x114>
 8006662:   2e00        cmp r6, #0
 8006664:   f280 843f   bge.w   8006ee6 <__ieee754_pow+0x96e>
 8006668:   463a        mov r2, r7
 800666a:   4643        mov r3, r8
 800666c:   2000        movs    r0, #0
 800666e:   4946        ldr r1, [pc, #280]  ; (8006788 <__ieee754_pow+0x210>)
 8006670:   f7fa f858   bl  8000724 <__aeabi_ddiv>
 8006674:   e7df        b.n 8006636 <__ieee754_pow+0xbe>
 8006676:   2302        movs    r3, #2
 8006678:   e7c7        b.n 800660a <__ieee754_pow+0x92>
 800667a:   2300        movs    r3, #0
 800667c:   e7c5        b.n 800660a <__ieee754_pow+0x92>
 800667e:   2e00        cmp r6, #0
 8006680:   dad7        bge.n   8006632 <__ieee754_pow+0xba>
 8006682:   9b03        ldr r3, [sp, #12]
 8006684:   9802        ldr r0, [sp, #8]
 8006686:   f103 4100   add.w   r1, r3, #2147483648 ; 0x80000000
 800668a:   e7d4        b.n 8006636 <__ieee754_pow+0xbe>
 800668c:   f1b6 4f80   cmp.w   r6, #1073741824 ; 0x40000000
 8006690:   d106        bne.n   80066a0 <__ieee754_pow+0x128>
 8006692:   463a        mov r2, r7
 8006694:   4643        mov r3, r8
 8006696:   4638        mov r0, r7
 8006698:   4641        mov r1, r8
 800669a:   f7f9 ff19   bl  80004d0 <__aeabi_dmul>
 800669e:   e7ca        b.n 8006636 <__ieee754_pow+0xbe>
 80066a0:   4b3a        ldr r3, [pc, #232]  ; (800678c <__ieee754_pow+0x214>)
 80066a2:   429e        cmp r6, r3
 80066a4:   d10b        bne.n   80066be <__ieee754_pow+0x146>
 80066a6:   f1b9 0f00   cmp.w   r9, #0
 80066aa:   db08        blt.n   80066be <__ieee754_pow+0x146>
 80066ac:   4638        mov r0, r7
 80066ae:   4641        mov r1, r8
 80066b0:   b013        add sp, #76 ; 0x4c
 80066b2:   e8bd 4ff0   ldmia.w sp!, {r4, r5, r6, r7, r8, r9, sl, fp, lr}
 80066b6:   f000 bc51   b.w 8006f5c <__ieee754_sqrt>
 80066ba:   2300        movs    r3, #0
 80066bc:   9300        str r3, [sp, #0]
 80066be:   4638        mov r0, r7
 80066c0:   4641        mov r1, r8
 80066c2:   f000 fe8b   bl  80073dc <fabs>
 80066c6:   f1ba 0f00   cmp.w   sl, #0
 80066ca:   d125        bne.n   8006718 <__ieee754_pow+0x1a0>
 80066cc:   b124        cbz r4, 80066d8 <__ieee754_pow+0x160>
 80066ce:   4b2e        ldr r3, [pc, #184]  ; (8006788 <__ieee754_pow+0x210>)
 80066d0:   f029 4240   bic.w   r2, r9, #3221225472 ; 0xc0000000
 80066d4:   429a        cmp r2, r3
 80066d6:   d11f        bne.n   8006718 <__ieee754_pow+0x1a0>
 80066d8:   2e00        cmp r6, #0
 80066da:   da05        bge.n   80066e8 <__ieee754_pow+0x170>
 80066dc:   4602        mov r2, r0
 80066de:   460b        mov r3, r1
 80066e0:   2000        movs    r0, #0
 80066e2:   4929        ldr r1, [pc, #164]  ; (8006788 <__ieee754_pow+0x210>)
 80066e4:   f7fa f81e   bl  8000724 <__aeabi_ddiv>
 80066e8:   f1b9 0f00   cmp.w   r9, #0
 80066ec:   daa3        bge.n   8006636 <__ieee754_pow+0xbe>
 80066ee:   f104 4440   add.w   r4, r4, #3221225472 ; 0xc0000000
 80066f2:   9b00        ldr r3, [sp, #0]
 80066f4:   f504 1480   add.w   r4, r4, #1048576    ; 0x100000
 80066f8:   4323        orrs    r3, r4
 80066fa:   d106        bne.n   800670a <__ieee754_pow+0x192>
 80066fc:   4602        mov r2, r0
 80066fe:   460b        mov r3, r1
 8006700:   f7f9 fd32   bl  8000168 <__aeabi_dsub>
 8006704:   4602        mov r2, r0
 8006706:   460b        mov r3, r1
 8006708:   e7b2        b.n 8006670 <__ieee754_pow+0xf8>
 800670a:   9b00        ldr r3, [sp, #0]
 800670c:   2b01        cmp r3, #1
 800670e:   d192        bne.n   8006636 <__ieee754_pow+0xbe>
 8006710:   f101 4300   add.w   r3, r1, #2147483648 ; 0x80000000
 8006714:   4619        mov r1, r3
 8006716:   e78e        b.n 8006636 <__ieee754_pow+0xbe>
 8006718:   ea4f 79d9   mov.w   r9, r9, lsr #31
 800671c:   f109 33ff   add.w   r3, r9, #4294967295 ; 0xffffffff
 8006720:   930c        str r3, [sp, #48]   ; 0x30
 8006722:   9a0c        ldr r2, [sp, #48]   ; 0x30
 8006724:   9b00        ldr r3, [sp, #0]
 8006726:   4313        orrs    r3, r2
 8006728:   d104        bne.n   8006734 <__ieee754_pow+0x1bc>
 800672a:   463a        mov r2, r7
 800672c:   4643        mov r3, r8
 800672e:   4638        mov r0, r7
 8006730:   4641        mov r1, r8
 8006732:   e7e5        b.n 8006700 <__ieee754_pow+0x188>
 8006734:   4b16        ldr r3, [pc, #88]   ; (8006790 <__ieee754_pow+0x218>)
 8006736:   429d        cmp r5, r3
 8006738:   f340 80fc   ble.w   8006934 <__ieee754_pow+0x3bc>
 800673c:   f103 7304   add.w   r3, r3, #34603008   ; 0x2100000
 8006740:   429d        cmp r5, r3
 8006742:   dd0b        ble.n   800675c <__ieee754_pow+0x1e4>
 8006744:   4b0f        ldr r3, [pc, #60]   ; (8006784 <__ieee754_pow+0x20c>)
 8006746:   429c        cmp r4, r3
 8006748:   dc0e        bgt.n   8006768 <__ieee754_pow+0x1f0>
 800674a:   2e00        cmp r6, #0
 800674c:   f6bf af71   bge.w   8006632 <__ieee754_pow+0xba>
 8006750:   a307        add r3, pc, #28 ; (adr r3, 8006770 <__ieee754_pow+0x1f8>)
 8006752:   e9d3 2300   ldrd    r2, r3, [r3]
 8006756:   4610        mov r0, r2
 8006758:   4619        mov r1, r3
 800675a:   e79e        b.n 800669a <__ieee754_pow+0x122>
 800675c:   4b0d        ldr r3, [pc, #52]   ; (8006794 <__ieee754_pow+0x21c>)
 800675e:   429c        cmp r4, r3
 8006760:   ddf3        ble.n   800674a <__ieee754_pow+0x1d2>
 8006762:   4b09        ldr r3, [pc, #36]   ; (8006788 <__ieee754_pow+0x210>)
 8006764:   429c        cmp r4, r3
 8006766:   dd17        ble.n   8006798 <__ieee754_pow+0x220>
 8006768:   2e00        cmp r6, #0
 800676a:   dcf1        bgt.n   8006750 <__ieee754_pow+0x1d8>
 800676c:   e761        b.n 8006632 <__ieee754_pow+0xba>
 800676e:   bf00        nop
 8006770:   8800759c    .word   0x8800759c
 8006774:   7e37e43c    .word   0x7e37e43c
 8006778:   7ff00000    .word   0x7ff00000
 800677c:   080076ce    .word   0x080076ce
 8006780:   433fffff    .word   0x433fffff
 8006784:   3fefffff    .word   0x3fefffff
 8006788:   3ff00000    .word   0x3ff00000
 800678c:   3fe00000    .word   0x3fe00000
 8006790:   41e00000    .word   0x41e00000
 8006794:   3feffffe    .word   0x3feffffe
 8006798:   2200        movs    r2, #0
 800679a:   4b61        ldr r3, [pc, #388]  ; (8006920 <__ieee754_pow+0x3a8>)
 800679c:   f7f9 fce4   bl  8000168 <__aeabi_dsub>
 80067a0:   a355        add r3, pc, #340    ; (adr r3, 80068f8 <__ieee754_pow+0x380>)
 80067a2:   e9d3 2300   ldrd    r2, r3, [r3]
 80067a6:   4604        mov r4, r0
 80067a8:   460d        mov r5, r1
 80067aa:   f7f9 fe91   bl  80004d0 <__aeabi_dmul>
 80067ae:   a354        add r3, pc, #336    ; (adr r3, 8006900 <__ieee754_pow+0x388>)
 80067b0:   e9d3 2300   ldrd    r2, r3, [r3]
 80067b4:   4606        mov r6, r0
 80067b6:   460f        mov r7, r1
 80067b8:   4620        mov r0, r4
 80067ba:   4629        mov r1, r5
 80067bc:   f7f9 fe88   bl  80004d0 <__aeabi_dmul>
 80067c0:   2200        movs    r2, #0
 80067c2:   4682        mov sl, r0
 80067c4:   468b        mov fp, r1
 80067c6:   4b57        ldr r3, [pc, #348]  ; (8006924 <__ieee754_pow+0x3ac>)
 80067c8:   4620        mov r0, r4
 80067ca:   4629        mov r1, r5
 80067cc:   f7f9 fe80   bl  80004d0 <__aeabi_dmul>
 80067d0:   4602        mov r2, r0
 80067d2:   460b        mov r3, r1
 80067d4:   a14c        add r1, pc, #304    ; (adr r1, 8006908 <__ieee754_pow+0x390>)
 80067d6:   e9d1 0100   ldrd    r0, r1, [r1]
 80067da:   f7f9 fcc5   bl  8000168 <__aeabi_dsub>
 80067de:   4622        mov r2, r4
 80067e0:   462b        mov r3, r5
 80067e2:   f7f9 fe75   bl  80004d0 <__aeabi_dmul>
 80067e6:   4602        mov r2, r0
 80067e8:   460b        mov r3, r1
 80067ea:   2000        movs    r0, #0
 80067ec:   494e        ldr r1, [pc, #312]  ; (8006928 <__ieee754_pow+0x3b0>)
 80067ee:   f7f9 fcbb   bl  8000168 <__aeabi_dsub>
 80067f2:   4622        mov r2, r4
 80067f4:   462b        mov r3, r5
 80067f6:   4680        mov r8, r0
 80067f8:   4689        mov r9, r1
 80067fa:   4620        mov r0, r4
 80067fc:   4629        mov r1, r5
 80067fe:   f7f9 fe67   bl  80004d0 <__aeabi_dmul>
 8006802:   4602        mov r2, r0
 8006804:   460b        mov r3, r1
 8006806:   4640        mov r0, r8
 8006808:   4649        mov r1, r9
 800680a:   f7f9 fe61   bl  80004d0 <__aeabi_dmul>
 800680e:   a340        add r3, pc, #256    ; (adr r3, 8006910 <__ieee754_pow+0x398>)
 8006810:   e9d3 2300   ldrd    r2, r3, [r3]
 8006814:   f7f9 fe5c   bl  80004d0 <__aeabi_dmul>
 8006818:   4602        mov r2, r0
 800681a:   460b        mov r3, r1
 800681c:   4650        mov r0, sl
 800681e:   4659        mov r1, fp
 8006820:   f7f9 fca2   bl  8000168 <__aeabi_dsub>
 8006824:   4602        mov r2, r0
 8006826:   460b        mov r3, r1
 8006828:   4604        mov r4, r0
 800682a:   460d        mov r5, r1
 800682c:   4630        mov r0, r6
 800682e:   4639        mov r1, r7
 8006830:   f7f9 fc9c   bl  800016c <__adddf3>
 8006834:   2000        movs    r0, #0
 8006836:   468b        mov fp, r1
 8006838:   4682        mov sl, r0
 800683a:   4632        mov r2, r6
 800683c:   463b        mov r3, r7
 800683e:   f7f9 fc93   bl  8000168 <__aeabi_dsub>
 8006842:   4602        mov r2, r0
 8006844:   460b        mov r3, r1
 8006846:   4620        mov r0, r4
 8006848:   4629        mov r1, r5
 800684a:   f7f9 fc8d   bl  8000168 <__aeabi_dsub>
 800684e:   9b00        ldr r3, [sp, #0]
 8006850:   9a0c        ldr r2, [sp, #48]   ; 0x30
 8006852:   3b01        subs    r3, #1
 8006854:   4313        orrs    r3, r2
 8006856:   f04f 0300   mov.w   r3, #0
 800685a:   bf0c        ite eq
 800685c:   4c33        ldreq   r4, [pc, #204]  ; (800692c <__ieee754_pow+0x3b4>)
 800685e:   4c30        ldrne   r4, [pc, #192]  ; (8006920 <__ieee754_pow+0x3a8>)
 8006860:   4606        mov r6, r0
 8006862:   e88d 0018   stmia.w sp, {r3, r4}
 8006866:   e9dd 4502   ldrd    r4, r5, [sp, #8]
 800686a:   2400        movs    r4, #0
 800686c:   460f        mov r7, r1
 800686e:   e9dd 0102   ldrd    r0, r1, [sp, #8]
 8006872:   4622        mov r2, r4
 8006874:   462b        mov r3, r5
 8006876:   f7f9 fc77   bl  8000168 <__aeabi_dsub>
 800687a:   4652        mov r2, sl
 800687c:   465b        mov r3, fp
 800687e:   f7f9 fe27   bl  80004d0 <__aeabi_dmul>
 8006882:   e9dd 2302   ldrd    r2, r3, [sp, #8]
 8006886:   4680        mov r8, r0
 8006888:   4689        mov r9, r1
 800688a:   4630        mov r0, r6
 800688c:   4639        mov r1, r7
 800688e:   f7f9 fe1f   bl  80004d0 <__aeabi_dmul>
 8006892:   4602        mov r2, r0
 8006894:   460b        mov r3, r1
 8006896:   4640        mov r0, r8
 8006898:   4649        mov r1, r9
 800689a:   f7f9 fc67   bl  800016c <__adddf3>
 800689e:   4622        mov r2, r4
 80068a0:   462b        mov r3, r5
 80068a2:   4680        mov r8, r0
 80068a4:   4689        mov r9, r1
 80068a6:   4650        mov r0, sl
 80068a8:   4659        mov r1, fp
 80068aa:   f7f9 fe11   bl  80004d0 <__aeabi_dmul>
 80068ae:   4604        mov r4, r0
 80068b0:   460d        mov r5, r1
 80068b2:   460b        mov r3, r1
 80068b4:   4602        mov r2, r0
 80068b6:   4649        mov r1, r9
 80068b8:   4640        mov r0, r8
 80068ba:   e9cd 4502   strd    r4, r5, [sp, #8]
 80068be:   f7f9 fc55   bl  800016c <__adddf3>
 80068c2:   4b1b        ldr r3, [pc, #108]  ; (8006930 <__ieee754_pow+0x3b8>)
 80068c4:   4682        mov sl, r0
 80068c6:   4299        cmp r1, r3
 80068c8:   460f        mov r7, r1
 80068ca:   460e        mov r6, r1
 80068cc:   f340 82da   ble.w   8006e84 <__ieee754_pow+0x90c>
 80068d0:   f101 433f   add.w   r3, r1, #3204448256 ; 0xbf000000
 80068d4:   f503 03e0   add.w   r3, r3, #7340032    ; 0x700000
 80068d8:   4303        orrs    r3, r0
 80068da:   f000 81d5   beq.w   8006c88 <__ieee754_pow+0x710>
 80068de:   a30e        add r3, pc, #56 ; (adr r3, 8006918 <__ieee754_pow+0x3a0>)
 80068e0:   e9d3 2300   ldrd    r2, r3, [r3]
 80068e4:   e9dd 0100   ldrd    r0, r1, [sp]
 80068e8:   f7f9 fdf2   bl  80004d0 <__aeabi_dmul>
 80068ec:   a30a        add r3, pc, #40 ; (adr r3, 8006918 <__ieee754_pow+0x3a0>)
 80068ee:   e9d3 2300   ldrd    r2, r3, [r3]
 80068f2:   e6d2        b.n 800669a <__ieee754_pow+0x122>
 80068f4:   f3af 8000   nop.w
 80068f8:   60000000    .word   0x60000000
 80068fc:   3ff71547    .word   0x3ff71547
 8006900:   f85ddf44    .word   0xf85ddf44
 8006904:   3e54ae0b    .word   0x3e54ae0b
 8006908:   55555555    .word   0x55555555
 800690c:   3fd55555    .word   0x3fd55555
 8006910:   652b82fe    .word   0x652b82fe
 8006914:   3ff71547    .word   0x3ff71547
 8006918:   8800759c    .word   0x8800759c
 800691c:   7e37e43c    .word   0x7e37e43c
 8006920:   3ff00000    .word   0x3ff00000
 8006924:   3fd00000    .word   0x3fd00000
 8006928:   3fe00000    .word   0x3fe00000
 800692c:   bff00000    .word   0xbff00000
 8006930:   408fffff    .word   0x408fffff
 8006934:   f5b4 1f80   cmp.w   r4, #1048576    ; 0x100000
 8006938:   f04f 0200   mov.w   r2, #0
 800693c:   da05        bge.n   800694a <__ieee754_pow+0x3d2>
 800693e:   4bca        ldr r3, [pc, #808]  ; (8006c68 <__ieee754_pow+0x6f0>)
 8006940:   f7f9 fdc6   bl  80004d0 <__aeabi_dmul>
 8006944:   f06f 0234   mvn.w   r2, #52 ; 0x34
 8006948:   460c        mov r4, r1
 800694a:   1523        asrs    r3, r4, #20
 800694c:   f2a3 33ff   subw    r3, r3, #1023   ; 0x3ff
 8006950:   4413        add r3, r2
 8006952:   9307        str r3, [sp, #28]
 8006954:   4bc5        ldr r3, [pc, #788]  ; (8006c6c <__ieee754_pow+0x6f4>)
 8006956:   f3c4 0413   ubfx    r4, r4, #0, #20
 800695a:   f044 557f   orr.w   r5, r4, #1069547520 ; 0x3fc00000
 800695e:   429c        cmp r4, r3
 8006960:   f445 1540   orr.w   r5, r5, #3145728    ; 0x300000
 8006964:   dd08        ble.n   8006978 <__ieee754_pow+0x400>
 8006966:   4bc2        ldr r3, [pc, #776]  ; (8006c70 <__ieee754_pow+0x6f8>)
 8006968:   429c        cmp r4, r3
 800696a:   f340 8154   ble.w   8006c16 <__ieee754_pow+0x69e>
 800696e:   9b07        ldr r3, [sp, #28]
 8006970:   f5a5 1580   sub.w   r5, r5, #1048576    ; 0x100000
 8006974:   3301        adds    r3, #1
 8006976:   9307        str r3, [sp, #28]
 8006978:   2600        movs    r6, #0
 800697a:   4629        mov r1, r5
 800697c:   00f3        lsls    r3, r6, #3
 800697e:   930d        str r3, [sp, #52]   ; 0x34
 8006980:   4bbc        ldr r3, [pc, #752]  ; (8006c74 <__ieee754_pow+0x6fc>)
 8006982:   00f2        lsls    r2, r6, #3
 8006984:   4413        add r3, r2
 8006986:   cb18        ldmia   r3, {r3, r4}
 8006988:   e9cd 340a   strd    r3, r4, [sp, #40]   ; 0x28
 800698c:   461a        mov r2, r3
 800698e:   4623        mov r3, r4
 8006990:   e9cd 0108   strd    r0, r1, [sp, #32]
 8006994:   f7f9 fbe8   bl  8000168 <__aeabi_dsub>
 8006998:   e9dd 230a   ldrd    r2, r3, [sp, #40]   ; 0x28
 800699c:   e9cd 010e   strd    r0, r1, [sp, #56]   ; 0x38
 80069a0:   e9dd 0108   ldrd    r0, r1, [sp, #32]
 80069a4:   f7f9 fbe2   bl  800016c <__adddf3>
 80069a8:   4602        mov r2, r0
 80069aa:   460b        mov r3, r1
 80069ac:   2000        movs    r0, #0
 80069ae:   49b2        ldr r1, [pc, #712]  ; (8006c78 <__ieee754_pow+0x700>)
 80069b0:   f7f9 feb8   bl  8000724 <__aeabi_ddiv>
 80069b4:   4602        mov r2, r0
 80069b6:   460b        mov r3, r1
 80069b8:   e9cd 0110   strd    r0, r1, [sp, #64]   ; 0x40
 80069bc:   e9dd 010e   ldrd    r0, r1, [sp, #56]   ; 0x38
 80069c0:   f7f9 fd86   bl  80004d0 <__aeabi_dmul>
 80069c4:   e9cd 0104   strd    r0, r1, [sp, #16]
 80069c8:   e9dd ab04   ldrd    sl, fp, [sp, #16]
 80069cc:   f04f 0a00   mov.w   sl, #0
 80069d0:   2200        movs    r2, #0
 80069d2:   106d        asrs    r5, r5, #1
 80069d4:   f045 5500   orr.w   r5, r5, #536870912  ; 0x20000000
 80069d8:   f505 2500   add.w   r5, r5, #524288 ; 0x80000
 80069dc:   eb05 4386   add.w   r3, r5, r6, lsl #18
 80069e0:   4659        mov r1, fp
 80069e2:   4650        mov r0, sl
 80069e4:   4614        mov r4, r2
 80069e6:   461d        mov r5, r3
 80069e8:   f7f9 fd72   bl  80004d0 <__aeabi_dmul>
 80069ec:   4602        mov r2, r0
 80069ee:   460b        mov r3, r1
 80069f0:   e9dd 010e   ldrd    r0, r1, [sp, #56]   ; 0x38
 80069f4:   f7f9 fbb8   bl  8000168 <__aeabi_dsub>
 80069f8:   e9dd 230a   ldrd    r2, r3, [sp, #40]   ; 0x28
 80069fc:   4606        mov r6, r0
 80069fe:   460f        mov r7, r1
 8006a00:   4620        mov r0, r4
 8006a02:   4629        mov r1, r5
 8006a04:   f7f9 fbb0   bl  8000168 <__aeabi_dsub>
 8006a08:   4602        mov r2, r0
 8006a0a:   460b        mov r3, r1
 8006a0c:   e9dd 0108   ldrd    r0, r1, [sp, #32]
 8006a10:   f7f9 fbaa   bl  8000168 <__aeabi_dsub>
 8006a14:   465b        mov r3, fp
 8006a16:   4652        mov r2, sl
 8006a18:   f7f9 fd5a   bl  80004d0 <__aeabi_dmul>
 8006a1c:   4602        mov r2, r0
 8006a1e:   460b        mov r3, r1
 8006a20:   4630        mov r0, r6
 8006a22:   4639        mov r1, r7
 8006a24:   f7f9 fba0   bl  8000168 <__aeabi_dsub>
 8006a28:   e9dd 2310   ldrd    r2, r3, [sp, #64]   ; 0x40
 8006a2c:   f7f9 fd50   bl  80004d0 <__aeabi_dmul>
 8006a30:   e9dd 2304   ldrd    r2, r3, [sp, #16]
 8006a34:   e9cd 0108   strd    r0, r1, [sp, #32]
 8006a38:   4610        mov r0, r2
 8006a3a:   4619        mov r1, r3
 8006a3c:   f7f9 fd48   bl  80004d0 <__aeabi_dmul>
 8006a40:   a377        add r3, pc, #476    ; (adr r3, 8006c20 <__ieee754_pow+0x6a8>)
 8006a42:   e9d3 2300   ldrd    r2, r3, [r3]
 8006a46:   4604        mov r4, r0
 8006a48:   460d        mov r5, r1
 8006a4a:   f7f9 fd41   bl  80004d0 <__aeabi_dmul>
 8006a4e:   a376        add r3, pc, #472    ; (adr r3, 8006c28 <__ieee754_pow+0x6b0>)
 8006a50:   e9d3 2300   ldrd    r2, r3, [r3]
 8006a54:   f7f9 fb8a   bl  800016c <__adddf3>
 8006a58:   4622        mov r2, r4
 8006a5a:   462b        mov r3, r5
 8006a5c:   f7f9 fd38   bl  80004d0 <__aeabi_dmul>
 8006a60:   a373        add r3, pc, #460    ; (adr r3, 8006c30 <__ieee754_pow+0x6b8>)
 8006a62:   e9d3 2300   ldrd    r2, r3, [r3]
 8006a66:   f7f9 fb81   bl  800016c <__adddf3>
 8006a6a:   4622        mov r2, r4
 8006a6c:   462b        mov r3, r5
 8006a6e:   f7f9 fd2f   bl  80004d0 <__aeabi_dmul>
 8006a72:   a371        add r3, pc, #452    ; (adr r3, 8006c38 <__ieee754_pow+0x6c0>)
 8006a74:   e9d3 2300   ldrd    r2, r3, [r3]
 8006a78:   f7f9 fb78   bl  800016c <__adddf3>
 8006a7c:   4622        mov r2, r4
 8006a7e:   462b        mov r3, r5
 8006a80:   f7f9 fd26   bl  80004d0 <__aeabi_dmul>
 8006a84:   a36e        add r3, pc, #440    ; (adr r3, 8006c40 <__ieee754_pow+0x6c8>)
 8006a86:   e9d3 2300   ldrd    r2, r3, [r3]
 8006a8a:   f7f9 fb6f   bl  800016c <__adddf3>
 8006a8e:   4622        mov r2, r4
 8006a90:   462b        mov r3, r5
 8006a92:   f7f9 fd1d   bl  80004d0 <__aeabi_dmul>
 8006a96:   a36c        add r3, pc, #432    ; (adr r3, 8006c48 <__ieee754_pow+0x6d0>)
 8006a98:   e9d3 2300   ldrd    r2, r3, [r3]
 8006a9c:   f7f9 fb66   bl  800016c <__adddf3>
 8006aa0:   4622        mov r2, r4
 8006aa2:   4606        mov r6, r0
 8006aa4:   460f        mov r7, r1
 8006aa6:   462b        mov r3, r5
 8006aa8:   4620        mov r0, r4
 8006aaa:   4629        mov r1, r5
 8006aac:   f7f9 fd10   bl  80004d0 <__aeabi_dmul>
 8006ab0:   4602        mov r2, r0
 8006ab2:   460b        mov r3, r1
 8006ab4:   4630        mov r0, r6
 8006ab6:   4639        mov r1, r7
 8006ab8:   f7f9 fd0a   bl  80004d0 <__aeabi_dmul>
 8006abc:   4604        mov r4, r0
 8006abe:   460d        mov r5, r1
 8006ac0:   e9dd 0104   ldrd    r0, r1, [sp, #16]
 8006ac4:   465b        mov r3, fp
 8006ac6:   4652        mov r2, sl
 8006ac8:   f7f9 fb50   bl  800016c <__adddf3>
 8006acc:   e9dd 2308   ldrd    r2, r3, [sp, #32]
 8006ad0:   f7f9 fcfe   bl  80004d0 <__aeabi_dmul>
 8006ad4:   4622        mov r2, r4
 8006ad6:   462b        mov r3, r5
 8006ad8:   f7f9 fb48   bl  800016c <__adddf3>
 8006adc:   465b        mov r3, fp
 8006ade:   4606        mov r6, r0
 8006ae0:   460f        mov r7, r1
 8006ae2:   4652        mov r2, sl
 8006ae4:   4659        mov r1, fp
 8006ae6:   4650        mov r0, sl
 8006ae8:   f7f9 fcf2   bl  80004d0 <__aeabi_dmul>
 8006aec:   2200        movs    r2, #0
 8006aee:   4b63        ldr r3, [pc, #396]  ; (8006c7c <__ieee754_pow+0x704>)
 8006af0:   e9cd 010a   strd    r0, r1, [sp, #40]   ; 0x28
 8006af4:   f7f9 fb3a   bl  800016c <__adddf3>
 8006af8:   4632        mov r2, r6
 8006afa:   463b        mov r3, r7
 8006afc:   f7f9 fb36   bl  800016c <__adddf3>
 8006b00:   4650        mov r0, sl
 8006b02:   460d        mov r5, r1
 8006b04:   4602        mov r2, r0
 8006b06:   460b        mov r3, r1
 8006b08:   4650        mov r0, sl
 8006b0a:   4659        mov r1, fp
 8006b0c:   f7f9 fce0   bl  80004d0 <__aeabi_dmul>
 8006b10:   2200        movs    r2, #0
 8006b12:   4680        mov r8, r0
 8006b14:   4689        mov r9, r1
 8006b16:   4b59        ldr r3, [pc, #356]  ; (8006c7c <__ieee754_pow+0x704>)
 8006b18:   4629        mov r1, r5
 8006b1a:   4650        mov r0, sl
 8006b1c:   f7f9 fb24   bl  8000168 <__aeabi_dsub>
 8006b20:   e9dd 230a   ldrd    r2, r3, [sp, #40]   ; 0x28
 8006b24:   f7f9 fb20   bl  8000168 <__aeabi_dsub>
 8006b28:   4602        mov r2, r0
 8006b2a:   460b        mov r3, r1
 8006b2c:   4630        mov r0, r6
 8006b2e:   4639        mov r1, r7
 8006b30:   f7f9 fb1a   bl  8000168 <__aeabi_dsub>
 8006b34:   e9dd 2304   ldrd    r2, r3, [sp, #16]
 8006b38:   f7f9 fcca   bl  80004d0 <__aeabi_dmul>
 8006b3c:   462b        mov r3, r5
 8006b3e:   4606        mov r6, r0
 8006b40:   460f        mov r7, r1
 8006b42:   e9dd 0108   ldrd    r0, r1, [sp, #32]
 8006b46:   4652        mov r2, sl
 8006b48:   f7f9 fcc2   bl  80004d0 <__aeabi_dmul>
 8006b4c:   4602        mov r2, r0
 8006b4e:   460b        mov r3, r1
 8006b50:   4630        mov r0, r6
 8006b52:   4639        mov r1, r7
 8006b54:   f7f9 fb0a   bl  800016c <__adddf3>
 8006b58:   4606        mov r6, r0
 8006b5a:   460f        mov r7, r1
 8006b5c:   4602        mov r2, r0
 8006b5e:   460b        mov r3, r1
 8006b60:   4640        mov r0, r8
 8006b62:   4649        mov r1, r9
 8006b64:   f7f9 fb02   bl  800016c <__adddf3>
 8006b68:   a339        add r3, pc, #228    ; (adr r3, 8006c50 <__ieee754_pow+0x6d8>)
 8006b6a:   e9d3 2300   ldrd    r2, r3, [r3]
 8006b6e:   4650        mov r0, sl
 8006b70:   460d        mov r5, r1
 8006b72:   f7f9 fcad   bl  80004d0 <__aeabi_dmul>
 8006b76:   4642        mov r2, r8
 8006b78:   e9cd 0104   strd    r0, r1, [sp, #16]
 8006b7c:   464b        mov r3, r9
 8006b7e:   4629        mov r1, r5
 8006b80:   4650        mov r0, sl
 8006b82:   f7f9 faf1   bl  8000168 <__aeabi_dsub>
 8006b86:   4602        mov r2, r0
 8006b88:   460b        mov r3, r1
 8006b8a:   4630        mov r0, r6
 8006b8c:   4639        mov r1, r7
 8006b8e:   f7f9 faeb   bl  8000168 <__aeabi_dsub>
 8006b92:   a331        add r3, pc, #196    ; (adr r3, 8006c58 <__ieee754_pow+0x6e0>)
 8006b94:   e9d3 2300   ldrd    r2, r3, [r3]
 8006b98:   f7f9 fc9a   bl  80004d0 <__aeabi_dmul>
 8006b9c:   a330        add r3, pc, #192    ; (adr r3, 8006c60 <__ieee754_pow+0x6e8>)
 8006b9e:   e9d3 2300   ldrd    r2, r3, [r3]
 8006ba2:   4606        mov r6, r0
 8006ba4:   460f        mov r7, r1
 8006ba6:   4650        mov r0, sl
 8006ba8:   4629        mov r1, r5
 8006baa:   f7f9 fc91   bl  80004d0 <__aeabi_dmul>
 8006bae:   4602        mov r2, r0
 8006bb0:   460b        mov r3, r1
 8006bb2:   4630        mov r0, r6
 8006bb4:   4639        mov r1, r7
 8006bb6:   f7f9 fad9   bl  800016c <__adddf3>
 8006bba:   9a0d        ldr r2, [sp, #52]   ; 0x34
 8006bbc:   4b30        ldr r3, [pc, #192]  ; (8006c80 <__ieee754_pow+0x708>)
 8006bbe:   4413        add r3, r2
 8006bc0:   e9d3 2300   ldrd    r2, r3, [r3]
 8006bc4:   f7f9 fad2   bl  800016c <__adddf3>
 8006bc8:   4604        mov r4, r0
 8006bca:   9807        ldr r0, [sp, #28]
 8006bcc:   460d        mov r5, r1
 8006bce:   f7f9 fc19   bl  8000404 <__aeabi_i2d>
 8006bd2:   4606        mov r6, r0
 8006bd4:   460f        mov r7, r1
 8006bd6:   9a0d        ldr r2, [sp, #52]   ; 0x34
 8006bd8:   4b2a        ldr r3, [pc, #168]  ; (8006c84 <__ieee754_pow+0x70c>)
 8006bda:   e9dd 0104   ldrd    r0, r1, [sp, #16]
 8006bde:   4413        add r3, r2
 8006be0:   e9d3 8900   ldrd    r8, r9, [r3]
 8006be4:   4622        mov r2, r4
 8006be6:   462b        mov r3, r5
 8006be8:   f7f9 fac0   bl  800016c <__adddf3>
 8006bec:   4642        mov r2, r8
 8006bee:   464b        mov r3, r9
 8006bf0:   f7f9 fabc   bl  800016c <__adddf3>
 8006bf4:   4632        mov r2, r6
 8006bf6:   463b        mov r3, r7
 8006bf8:   f7f9 fab8   bl  800016c <__adddf3>
 8006bfc:   4632        mov r2, r6
 8006bfe:   463b        mov r3, r7
 8006c00:   4650        mov r0, sl
 8006c02:   468b        mov fp, r1
 8006c04:   f7f9 fab0   bl  8000168 <__aeabi_dsub>
 8006c08:   4642        mov r2, r8
 8006c0a:   464b        mov r3, r9
 8006c0c:   f7f9 faac   bl  8000168 <__aeabi_dsub>
 8006c10:   e9dd 2304   ldrd    r2, r3, [sp, #16]
 8006c14:   e613        b.n 800683e <__ieee754_pow+0x2c6>
 8006c16:   2601        movs    r6, #1
 8006c18:   e6af        b.n 800697a <__ieee754_pow+0x402>
 8006c1a:   bf00        nop
 8006c1c:   f3af 8000   nop.w
 8006c20:   4a454eef    .word   0x4a454eef
 8006c24:   3fca7e28    .word   0x3fca7e28
 8006c28:   93c9db65    .word   0x93c9db65
 8006c2c:   3fcd864a    .word   0x3fcd864a
 8006c30:   a91d4101    .word   0xa91d4101
 8006c34:   3fd17460    .word   0x3fd17460
 8006c38:   518f264d    .word   0x518f264d
 8006c3c:   3fd55555    .word   0x3fd55555
 8006c40:   db6fabff    .word   0xdb6fabff
 8006c44:   3fdb6db6    .word   0x3fdb6db6
 8006c48:   33333303    .word   0x33333303
 8006c4c:   3fe33333    .word   0x3fe33333
 8006c50:   e0000000    .word   0xe0000000
 8006c54:   3feec709    .word   0x3feec709
 8006c58:   dc3a03fd    .word   0xdc3a03fd
 8006c5c:   3feec709    .word   0x3feec709
 8006c60:   145b01f5    .word   0x145b01f5
 8006c64:   be3e2fe0    .word   0xbe3e2fe0
 8006c68:   43400000    .word   0x43400000
 8006c6c:   0003988e    .word   0x0003988e
 8006c70:   000bb679    .word   0x000bb679
 8006c74:   08007710    .word   0x08007710
 8006c78:   3ff00000    .word   0x3ff00000
 8006c7c:   40080000    .word   0x40080000
 8006c80:   08007730    .word   0x08007730
 8006c84:   08007720    .word   0x08007720
 8006c88:   a39b        add r3, pc, #620    ; (adr r3, 8006ef8 <__ieee754_pow+0x980>)
 8006c8a:   e9d3 2300   ldrd    r2, r3, [r3]
 8006c8e:   4640        mov r0, r8
 8006c90:   4649        mov r1, r9
 8006c92:   f7f9 fa6b   bl  800016c <__adddf3>
 8006c96:   4622        mov r2, r4
 8006c98:   e9cd 0104   strd    r0, r1, [sp, #16]
 8006c9c:   462b        mov r3, r5
 8006c9e:   4650        mov r0, sl
 8006ca0:   4639        mov r1, r7
 8006ca2:   f7f9 fa61   bl  8000168 <__aeabi_dsub>
 8006ca6:   4602        mov r2, r0
 8006ca8:   460b        mov r3, r1
 8006caa:   e9dd 0104   ldrd    r0, r1, [sp, #16]
 8006cae:   f7f9 fe9f   bl  80009f0 <__aeabi_dcmpgt>
 8006cb2:   2800        cmp r0, #0
 8006cb4:   f47f ae13   bne.w   80068de <__ieee754_pow+0x366>
 8006cb8:   4aa3        ldr r2, [pc, #652]  ; (8006f48 <__ieee754_pow+0x9d0>)
 8006cba:   f026 4300   bic.w   r3, r6, #2147483648 ; 0x80000000
 8006cbe:   4293        cmp r3, r2
 8006cc0:   f340 8104   ble.w   8006ecc <__ieee754_pow+0x954>
 8006cc4:   f44f 1a80   mov.w   sl, #1048576    ; 0x100000
 8006cc8:   2000        movs    r0, #0
 8006cca:   151b        asrs    r3, r3, #20
 8006ccc:   f2a3 33fe   subw    r3, r3, #1022   ; 0x3fe
 8006cd0:   fa4a f303   asr.w   r3, sl, r3
 8006cd4:   4433        add r3, r6
 8006cd6:   f3c3 520a   ubfx    r2, r3, #20, #11
 8006cda:   4f9c        ldr r7, [pc, #624]  ; (8006f4c <__ieee754_pow+0x9d4>)
 8006cdc:   f2a2 32ff   subw    r2, r2, #1023   ; 0x3ff
 8006ce0:   4117        asrs    r7, r2
 8006ce2:   f3c3 0a13   ubfx    sl, r3, #0, #20
 8006ce6:   ea23 0107   bic.w   r1, r3, r7
 8006cea:   f1c2 0214   rsb r2, r2, #20
 8006cee:   f44a 1a80   orr.w   sl, sl, #1048576    ; 0x100000
 8006cf2:   fa4a fa02   asr.w   sl, sl, r2
 8006cf6:   2e00        cmp r6, #0
 8006cf8:   4602        mov r2, r0
 8006cfa:   460b        mov r3, r1
 8006cfc:   4620        mov r0, r4
 8006cfe:   4629        mov r1, r5
 8006d00:   bfb8        it  lt
 8006d02:   f1ca 0a00   rsblt   sl, sl, #0
 8006d06:   f7f9 fa2f   bl  8000168 <__aeabi_dsub>
 8006d0a:   e9cd 0102   strd    r0, r1, [sp, #8]
 8006d0e:   e9dd 0102   ldrd    r0, r1, [sp, #8]
 8006d12:   4642        mov r2, r8
 8006d14:   464b        mov r3, r9
 8006d16:   f7f9 fa29   bl  800016c <__adddf3>
 8006d1a:   a379        add r3, pc, #484    ; (adr r3, 8006f00 <__ieee754_pow+0x988>)
 8006d1c:   e9d3 2300   ldrd    r2, r3, [r3]
 8006d20:   2000        movs    r0, #0
 8006d22:   460d        mov r5, r1
 8006d24:   4604        mov r4, r0
 8006d26:   f7f9 fbd3   bl  80004d0 <__aeabi_dmul>
 8006d2a:   e9dd 2302   ldrd    r2, r3, [sp, #8]
 8006d2e:   4606        mov r6, r0
 8006d30:   460f        mov r7, r1
 8006d32:   4620        mov r0, r4
 8006d34:   4629        mov r1, r5
 8006d36:   f7f9 fa17   bl  8000168 <__aeabi_dsub>
 8006d3a:   4602        mov r2, r0
 8006d3c:   460b        mov r3, r1
 8006d3e:   4640        mov r0, r8
 8006d40:   4649        mov r1, r9
 8006d42:   f7f9 fa11   bl  8000168 <__aeabi_dsub>
 8006d46:   a370        add r3, pc, #448    ; (adr r3, 8006f08 <__ieee754_pow+0x990>)
 8006d48:   e9d3 2300   ldrd    r2, r3, [r3]
 8006d4c:   f7f9 fbc0   bl  80004d0 <__aeabi_dmul>
 8006d50:   a36f        add r3, pc, #444    ; (adr r3, 8006f10 <__ieee754_pow+0x998>)
 8006d52:   e9d3 2300   ldrd    r2, r3, [r3]
 8006d56:   4680        mov r8, r0
 8006d58:   4689        mov r9, r1
 8006d5a:   4620        mov r0, r4
 8006d5c:   4629        mov r1, r5
 8006d5e:   f7f9 fbb7   bl  80004d0 <__aeabi_dmul>
 8006d62:   4602        mov r2, r0
 8006d64:   460b        mov r3, r1
 8006d66:   4640        mov r0, r8
 8006d68:   4649        mov r1, r9
 8006d6a:   f7f9 f9ff   bl  800016c <__adddf3>
 8006d6e:   4604        mov r4, r0
 8006d70:   460d        mov r5, r1
 8006d72:   4602        mov r2, r0
 8006d74:   460b        mov r3, r1
 8006d76:   4630        mov r0, r6
 8006d78:   4639        mov r1, r7
 8006d7a:   f7f9 f9f7   bl  800016c <__adddf3>
 8006d7e:   4632        mov r2, r6
 8006d80:   463b        mov r3, r7
 8006d82:   4680        mov r8, r0
 8006d84:   4689        mov r9, r1
 8006d86:   f7f9 f9ef   bl  8000168 <__aeabi_dsub>
 8006d8a:   4602        mov r2, r0
 8006d8c:   460b        mov r3, r1
 8006d8e:   4620        mov r0, r4
 8006d90:   4629        mov r1, r5
 8006d92:   f7f9 f9e9   bl  8000168 <__aeabi_dsub>
 8006d96:   4642        mov r2, r8
 8006d98:   4606        mov r6, r0
 8006d9a:   460f        mov r7, r1
 8006d9c:   464b        mov r3, r9
 8006d9e:   4640        mov r0, r8
 8006da0:   4649        mov r1, r9
 8006da2:   f7f9 fb95   bl  80004d0 <__aeabi_dmul>
 8006da6:   a35c        add r3, pc, #368    ; (adr r3, 8006f18 <__ieee754_pow+0x9a0>)
 8006da8:   e9d3 2300   ldrd    r2, r3, [r3]
 8006dac:   4604        mov r4, r0
 8006dae:   460d        mov r5, r1
 8006db0:   f7f9 fb8e   bl  80004d0 <__aeabi_dmul>
 8006db4:   a35a        add r3, pc, #360    ; (adr r3, 8006f20 <__ieee754_pow+0x9a8>)
 8006db6:   e9d3 2300   ldrd    r2, r3, [r3]
 8006dba:   f7f9 f9d5   bl  8000168 <__aeabi_dsub>
 8006dbe:   4622        mov r2, r4
 8006dc0:   462b        mov r3, r5
 8006dc2:   f7f9 fb85   bl  80004d0 <__aeabi_dmul>
 8006dc6:   a358        add r3, pc, #352    ; (adr r3, 8006f28 <__ieee754_pow+0x9b0>)
 8006dc8:   e9d3 2300   ldrd    r2, r3, [r3]
 8006dcc:   f7f9 f9ce   bl  800016c <__adddf3>
 8006dd0:   4622        mov r2, r4
 8006dd2:   462b        mov r3, r5
 8006dd4:   f7f9 fb7c   bl  80004d0 <__aeabi_dmul>
 8006dd8:   a355        add r3, pc, #340    ; (adr r3, 8006f30 <__ieee754_pow+0x9b8>)
 8006dda:   e9d3 2300   ldrd    r2, r3, [r3]
 8006dde:   f7f9 f9c3   bl  8000168 <__aeabi_dsub>
 8006de2:   4622        mov r2, r4
 8006de4:   462b        mov r3, r5
 8006de6:   f7f9 fb73   bl  80004d0 <__aeabi_dmul>
 8006dea:   a353        add r3, pc, #332    ; (adr r3, 8006f38 <__ieee754_pow+0x9c0>)
 8006dec:   e9d3 2300   ldrd    r2, r3, [r3]
 8006df0:   f7f9 f9bc   bl  800016c <__adddf3>
 8006df4:   4622        mov r2, r4
 8006df6:   462b        mov r3, r5
 8006df8:   f7f9 fb6a   bl  80004d0 <__aeabi_dmul>
 8006dfc:   4602        mov r2, r0
 8006dfe:   460b        mov r3, r1
 8006e00:   4640        mov r0, r8
 8006e02:   4649        mov r1, r9
 8006e04:   f7f9 f9b0   bl  8000168 <__aeabi_dsub>
 8006e08:   4604        mov r4, r0
 8006e0a:   460d        mov r5, r1
 8006e0c:   4602        mov r2, r0
 8006e0e:   460b        mov r3, r1
 8006e10:   4640        mov r0, r8
 8006e12:   4649        mov r1, r9
 8006e14:   f7f9 fb5c   bl  80004d0 <__aeabi_dmul>
 8006e18:   2200        movs    r2, #0
 8006e1a:   e9cd 0102   strd    r0, r1, [sp, #8]
 8006e1e:   f04f 4380   mov.w   r3, #1073741824 ; 0x40000000
 8006e22:   4620        mov r0, r4
 8006e24:   4629        mov r1, r5
 8006e26:   f7f9 f99f   bl  8000168 <__aeabi_dsub>
 8006e2a:   4602        mov r2, r0
 8006e2c:   460b        mov r3, r1
 8006e2e:   e9dd 0102   ldrd    r0, r1, [sp, #8]
 8006e32:   f7f9 fc77   bl  8000724 <__aeabi_ddiv>
 8006e36:   4632        mov r2, r6
 8006e38:   4604        mov r4, r0
 8006e3a:   460d        mov r5, r1
 8006e3c:   463b        mov r3, r7
 8006e3e:   4640        mov r0, r8
 8006e40:   4649        mov r1, r9
 8006e42:   f7f9 fb45   bl  80004d0 <__aeabi_dmul>
 8006e46:   4632        mov r2, r6
 8006e48:   463b        mov r3, r7
 8006e4a:   f7f9 f98f   bl  800016c <__adddf3>
 8006e4e:   4602        mov r2, r0
 8006e50:   460b        mov r3, r1
 8006e52:   4620        mov r0, r4
 8006e54:   4629        mov r1, r5
 8006e56:   f7f9 f987   bl  8000168 <__aeabi_dsub>
 8006e5a:   4642        mov r2, r8
 8006e5c:   464b        mov r3, r9
 8006e5e:   f7f9 f983   bl  8000168 <__aeabi_dsub>
 8006e62:   4602        mov r2, r0
 8006e64:   460b        mov r3, r1
 8006e66:   2000        movs    r0, #0
 8006e68:   4939        ldr r1, [pc, #228]  ; (8006f50 <__ieee754_pow+0x9d8>)
 8006e6a:   f7f9 f97d   bl  8000168 <__aeabi_dsub>
 8006e6e:   eb01 540a   add.w   r4, r1, sl, lsl #20
 8006e72:   f5b4 1f80   cmp.w   r4, #1048576    ; 0x100000
 8006e76:   da2c        bge.n   8006ed2 <__ieee754_pow+0x95a>
 8006e78:   4652        mov r2, sl
 8006e7a:   f000 fb49   bl  8007510 <scalbn>
 8006e7e:   e9dd 2300   ldrd    r2, r3, [sp]
 8006e82:   e40a        b.n 800669a <__ieee754_pow+0x122>
 8006e84:   4b33        ldr r3, [pc, #204]  ; (8006f54 <__ieee754_pow+0x9dc>)
 8006e86:   f021 4700   bic.w   r7, r1, #2147483648 ; 0x80000000
 8006e8a:   429f        cmp r7, r3
 8006e8c:   f77f af14   ble.w   8006cb8 <__ieee754_pow+0x740>
 8006e90:   4b31        ldr r3, [pc, #196]  ; (8006f58 <__ieee754_pow+0x9e0>)
 8006e92:   440b        add r3, r1
 8006e94:   4303        orrs    r3, r0
 8006e96:   d00b        beq.n   8006eb0 <__ieee754_pow+0x938>
 8006e98:   a329        add r3, pc, #164    ; (adr r3, 8006f40 <__ieee754_pow+0x9c8>)
 8006e9a:   e9d3 2300   ldrd    r2, r3, [r3]
 8006e9e:   e9dd 0100   ldrd    r0, r1, [sp]
 8006ea2:   f7f9 fb15   bl  80004d0 <__aeabi_dmul>
 8006ea6:   a326        add r3, pc, #152    ; (adr r3, 8006f40 <__ieee754_pow+0x9c8>)
 8006ea8:   e9d3 2300   ldrd    r2, r3, [r3]
 8006eac:   f7ff bbf5   b.w 800669a <__ieee754_pow+0x122>
 8006eb0:   4622        mov r2, r4
 8006eb2:   462b        mov r3, r5
 8006eb4:   f7f9 f958   bl  8000168 <__aeabi_dsub>
 8006eb8:   4602        mov r2, r0
 8006eba:   460b        mov r3, r1
 8006ebc:   4640        mov r0, r8
 8006ebe:   4649        mov r1, r9
 8006ec0:   f7f9 fd82   bl  80009c8 <__aeabi_dcmple>
 8006ec4:   2800        cmp r0, #0
 8006ec6:   f43f aef7   beq.w   8006cb8 <__ieee754_pow+0x740>
 8006eca:   e7e5        b.n 8006e98 <__ieee754_pow+0x920>
 8006ecc:   f04f 0a00   mov.w   sl, #0
 8006ed0:   e71d        b.n 8006d0e <__ieee754_pow+0x796>
 8006ed2:   4621        mov r1, r4
 8006ed4:   e7d3        b.n 8006e7e <__ieee754_pow+0x906>
 8006ed6:   2000        movs    r0, #0
 8006ed8:   491d        ldr r1, [pc, #116]  ; (8006f50 <__ieee754_pow+0x9d8>)
 8006eda:   f7ff bbac   b.w 8006636 <__ieee754_pow+0xbe>
 8006ede:   e9dd 0102   ldrd    r0, r1, [sp, #8]
 8006ee2:   f7ff bba8   b.w 8006636 <__ieee754_pow+0xbe>
 8006ee6:   4638        mov r0, r7
 8006ee8:   4641        mov r1, r8
 8006eea:   f7ff bba4   b.w 8006636 <__ieee754_pow+0xbe>
 8006eee:   9200        str r2, [sp, #0]
 8006ef0:   f7ff bbb4   b.w 800665c <__ieee754_pow+0xe4>
 8006ef4:   f3af 8000   nop.w
 8006ef8:   652b82fe    .word   0x652b82fe
 8006efc:   3c971547    .word   0x3c971547
 8006f00:   00000000    .word   0x00000000
 8006f04:   3fe62e43    .word   0x3fe62e43
 8006f08:   fefa39ef    .word   0xfefa39ef
 8006f0c:   3fe62e42    .word   0x3fe62e42
 8006f10:   0ca86c39    .word   0x0ca86c39
 8006f14:   be205c61    .word   0xbe205c61
 8006f18:   72bea4d0    .word   0x72bea4d0
 8006f1c:   3e663769    .word   0x3e663769
 8006f20:   c5d26bf1    .word   0xc5d26bf1
 8006f24:   3ebbbd41    .word   0x3ebbbd41
 8006f28:   af25de2c    .word   0xaf25de2c
 8006f2c:   3f11566a    .word   0x3f11566a
 8006f30:   16bebd93    .word   0x16bebd93
 8006f34:   3f66c16c    .word   0x3f66c16c
 8006f38:   5555553e    .word   0x5555553e
 8006f3c:   3fc55555    .word   0x3fc55555
 8006f40:   c2f8f359    .word   0xc2f8f359
 8006f44:   01a56e1f    .word   0x01a56e1f
 8006f48:   3fe00000    .word   0x3fe00000
 8006f4c:   000fffff    .word   0x000fffff
 8006f50:   3ff00000    .word   0x3ff00000
 8006f54:   4090cbff    .word   0x4090cbff
 8006f58:   3f6f3400    .word   0x3f6f3400

08006f5c <__ieee754_sqrt>:
 8006f5c:   e92d 41f0   stmdb   sp!, {r4, r5, r6, r7, r8, lr}
 8006f60:   f8df e14c   ldr.w   lr, [pc, #332]  ; 80070b0 <__ieee754_sqrt+0x154>
 8006f64:   4606        mov r6, r0
 8006f66:   ea3e 0e01   bics.w  lr, lr, r1
 8006f6a:   460d        mov r5, r1
 8006f6c:   4607        mov r7, r0
 8006f6e:   460a        mov r2, r1
 8006f70:   460c        mov r4, r1
 8006f72:   4603        mov r3, r0
 8006f74:   d10f        bne.n   8006f96 <__ieee754_sqrt+0x3a>
 8006f76:   4602        mov r2, r0
 8006f78:   460b        mov r3, r1
 8006f7a:   f7f9 faa9   bl  80004d0 <__aeabi_dmul>
 8006f7e:   4602        mov r2, r0
 8006f80:   460b        mov r3, r1
 8006f82:   4630        mov r0, r6
 8006f84:   4629        mov r1, r5
 8006f86:   f7f9 f8f1   bl  800016c <__adddf3>
 8006f8a:   4606        mov r6, r0
 8006f8c:   460d        mov r5, r1
 8006f8e:   4630        mov r0, r6
 8006f90:   4629        mov r1, r5
 8006f92:   e8bd 81f0   ldmia.w sp!, {r4, r5, r6, r7, r8, pc}
 8006f96:   2900        cmp r1, #0
 8006f98:   dc0e        bgt.n   8006fb8 <__ieee754_sqrt+0x5c>
 8006f9a:   f021 4e00   bic.w   lr, r1, #2147483648 ; 0x80000000
 8006f9e:   ea5e 0707   orrs.w  r7, lr, r7
 8006fa2:   d0f4        beq.n   8006f8e <__ieee754_sqrt+0x32>
 8006fa4:   b141        cbz r1, 8006fb8 <__ieee754_sqrt+0x5c>
 8006fa6:   4602        mov r2, r0
 8006fa8:   460b        mov r3, r1
 8006faa:   f7f9 f8dd   bl  8000168 <__aeabi_dsub>
 8006fae:   4602        mov r2, r0
 8006fb0:   460b        mov r3, r1
 8006fb2:   f7f9 fbb7   bl  8000724 <__aeabi_ddiv>
 8006fb6:   e7e8        b.n 8006f8a <__ieee754_sqrt+0x2e>
 8006fb8:   1512        asrs    r2, r2, #20
 8006fba:   d10c        bne.n   8006fd6 <__ieee754_sqrt+0x7a>
 8006fbc:   2c00        cmp r4, #0
 8006fbe:   d06e        beq.n   800709e <__ieee754_sqrt+0x142>
 8006fc0:   2100        movs    r1, #0
 8006fc2:   02e6        lsls    r6, r4, #11
 8006fc4:   d56f        bpl.n   80070a6 <__ieee754_sqrt+0x14a>
 8006fc6:   1e48        subs    r0, r1, #1
 8006fc8:   1a12        subs    r2, r2, r0
 8006fca:   f1c1 0020   rsb r0, r1, #32
 8006fce:   fa23 f000   lsr.w   r0, r3, r0
 8006fd2:   4304        orrs    r4, r0
 8006fd4:   408b        lsls    r3, r1
 8006fd6:   f2a2 32ff   subw    r2, r2, #1023   ; 0x3ff
 8006fda:   07d5        lsls    r5, r2, #31
 8006fdc:   f04f 0500   mov.w   r5, #0
 8006fe0:   f3c4 0413   ubfx    r4, r4, #0, #20
 8006fe4:   f444 1480   orr.w   r4, r4, #1048576    ; 0x100000
 8006fe8:   bf42        ittt    mi
 8006fea:   0064        lslmi   r4, r4, #1
 8006fec:   eb04 74d3   addmi.w r4, r4, r3, lsr #31
 8006ff0:   005b        lslmi   r3, r3, #1
 8006ff2:   eb04 71d3   add.w   r1, r4, r3, lsr #31
 8006ff6:   1050        asrs    r0, r2, #1
 8006ff8:   4421        add r1, r4
 8006ffa:   2216        movs    r2, #22
 8006ffc:   462c        mov r4, r5
 8006ffe:   f44f 1600   mov.w   r6, #2097152    ; 0x200000
 8007002:   005b        lsls    r3, r3, #1
 8007004:   19a7        adds    r7, r4, r6
 8007006:   428f        cmp r7, r1
 8007008:   bfde        ittt    le
 800700a:   1bc9        suble   r1, r1, r7
 800700c:   19bc        addle   r4, r7, r6
 800700e:   19ad        addle   r5, r5, r6
 8007010:   0049        lsls    r1, r1, #1
 8007012:   3a01        subs    r2, #1
 8007014:   eb01 71d3   add.w   r1, r1, r3, lsr #31
 8007018:   ea4f 0656   mov.w   r6, r6, lsr #1
 800701c:   ea4f 0343   mov.w   r3, r3, lsl #1
 8007020:   d1f0        bne.n   8007004 <__ieee754_sqrt+0xa8>
 8007022:   f04f 0e20   mov.w   lr, #32
 8007026:   4694        mov ip, r2
 8007028:   f04f 4600   mov.w   r6, #2147483648 ; 0x80000000
 800702c:   42a1        cmp r1, r4
 800702e:   eb06 070c   add.w   r7, r6, ip
 8007032:   dc02        bgt.n   800703a <__ieee754_sqrt+0xde>
 8007034:   d112        bne.n   800705c <__ieee754_sqrt+0x100>
 8007036:   429f        cmp r7, r3
 8007038:   d810        bhi.n   800705c <__ieee754_sqrt+0x100>
 800703a:   2f00        cmp r7, #0
 800703c:   eb07 0c06   add.w   ip, r7, r6
 8007040:   da34        bge.n   80070ac <__ieee754_sqrt+0x150>
 8007042:   f1bc 0f00   cmp.w   ip, #0
 8007046:   db31        blt.n   80070ac <__ieee754_sqrt+0x150>
 8007048:   f104 0801   add.w   r8, r4, #1
 800704c:   1b09        subs    r1, r1, r4
 800704e:   4644        mov r4, r8
 8007050:   429f        cmp r7, r3
 8007052:   bf88        it  hi
 8007054:   f101 31ff   addhi.w r1, r1, #4294967295 ; 0xffffffff
 8007058:   1bdb        subs    r3, r3, r7
 800705a:   4432        add r2, r6
 800705c:   eb01 77d3   add.w   r7, r1, r3, lsr #31
 8007060:   f1be 0e01   subs.w  lr, lr, #1
 8007064:   4439        add r1, r7
 8007066:   ea4f 0343   mov.w   r3, r3, lsl #1
 800706a:   ea4f 0656   mov.w   r6, r6, lsr #1
 800706e:   d1dd        bne.n   800702c <__ieee754_sqrt+0xd0>
 8007070:   430b        orrs    r3, r1
 8007072:   d006        beq.n   8007082 <__ieee754_sqrt+0x126>
 8007074:   1c54        adds    r4, r2, #1
 8007076:   bf0b        itete   eq
 8007078:   4672        moveq   r2, lr
 800707a:   3201        addne   r2, #1
 800707c:   3501        addeq   r5, #1
 800707e:   f022 0201   bicne.w r2, r2, #1
 8007082:   106b        asrs    r3, r5, #1
 8007084:   0852        lsrs    r2, r2, #1
 8007086:   07e9        lsls    r1, r5, #31
 8007088:   f103 537f   add.w   r3, r3, #1069547520 ; 0x3fc00000
 800708c:   f503 1300   add.w   r3, r3, #2097152    ; 0x200000
 8007090:   bf48        it  mi
 8007092:   f042 4200   orrmi.w r2, r2, #2147483648 ; 0x80000000
 8007096:   eb03 5500   add.w   r5, r3, r0, lsl #20
 800709a:   4616        mov r6, r2
 800709c:   e777        b.n 8006f8e <__ieee754_sqrt+0x32>
 800709e:   0adc        lsrs    r4, r3, #11
 80070a0:   3a15        subs    r2, #21
 80070a2:   055b        lsls    r3, r3, #21
 80070a4:   e78a        b.n 8006fbc <__ieee754_sqrt+0x60>
 80070a6:   0064        lsls    r4, r4, #1
 80070a8:   3101        adds    r1, #1
 80070aa:   e78a        b.n 8006fc2 <__ieee754_sqrt+0x66>
 80070ac:   46a0        mov r8, r4
 80070ae:   e7cd        b.n 800704c <__ieee754_sqrt+0xf0>
 80070b0:   7ff00000    .word   0x7ff00000
 80070b4:   00000000    .word   0x00000000

080070b8 <atan>:
 80070b8:   e92d 4ff8   stmdb   sp!, {r3, r4, r5, r6, r7, r8, r9, sl, fp, lr}
 80070bc:   4bba        ldr r3, [pc, #744]  ; (80073a8 <atan+0x2f0>)
 80070be:   f021 4600   bic.w   r6, r1, #2147483648 ; 0x80000000
 80070c2:   429e        cmp r6, r3
 80070c4:   4604        mov r4, r0
 80070c6:   460d        mov r5, r1
 80070c8:   468b        mov fp, r1
 80070ca:   dd17        ble.n   80070fc <atan+0x44>
 80070cc:   4ab7        ldr r2, [pc, #732]  ; (80073ac <atan+0x2f4>)
 80070ce:   4296        cmp r6, r2
 80070d0:   dc01        bgt.n   80070d6 <atan+0x1e>
 80070d2:   d109        bne.n   80070e8 <atan+0x30>
 80070d4:   b140        cbz r0, 80070e8 <atan+0x30>
 80070d6:   4622        mov r2, r4
 80070d8:   462b        mov r3, r5
 80070da:   4620        mov r0, r4
 80070dc:   4629        mov r1, r5
 80070de:   f7f9 f845   bl  800016c <__adddf3>
 80070e2:   4604        mov r4, r0
 80070e4:   460d        mov r5, r1
 80070e6:   e005        b.n 80070f4 <atan+0x3c>
 80070e8:   f1bb 0f00   cmp.w   fp, #0
 80070ec:   4cb0        ldr r4, [pc, #704]  ; (80073b0 <atan+0x2f8>)
 80070ee:   f300 8129   bgt.w   8007344 <atan+0x28c>
 80070f2:   4db0        ldr r5, [pc, #704]  ; (80073b4 <atan+0x2fc>)
 80070f4:   4620        mov r0, r4
 80070f6:   4629        mov r1, r5
 80070f8:   e8bd 8ff8   ldmia.w sp!, {r3, r4, r5, r6, r7, r8, r9, sl, fp, pc}
 80070fc:   4bae        ldr r3, [pc, #696]  ; (80073b8 <atan+0x300>)
 80070fe:   429e        cmp r6, r3
 8007100:   dc11        bgt.n   8007126 <atan+0x6e>
 8007102:   f1a3 73de   sub.w   r3, r3, #29097984   ; 0x1bc0000
 8007106:   429e        cmp r6, r3
 8007108:   dc0a        bgt.n   8007120 <atan+0x68>
 800710a:   a38f        add r3, pc, #572    ; (adr r3, 8007348 <atan+0x290>)
 800710c:   e9d3 2300   ldrd    r2, r3, [r3]
 8007110:   f7f9 f82c   bl  800016c <__adddf3>
 8007114:   2200        movs    r2, #0
 8007116:   4ba9        ldr r3, [pc, #676]  ; (80073bc <atan+0x304>)
 8007118:   f7f9 fc6a   bl  80009f0 <__aeabi_dcmpgt>
 800711c:   2800        cmp r0, #0
 800711e:   d1e9        bne.n   80070f4 <atan+0x3c>
 8007120:   f04f 3aff   mov.w   sl, #4294967295 ; 0xffffffff
 8007124:   e027        b.n 8007176 <atan+0xbe>
 8007126:   f000 f959   bl  80073dc <fabs>
 800712a:   4ba5        ldr r3, [pc, #660]  ; (80073c0 <atan+0x308>)
 800712c:   4604        mov r4, r0
 800712e:   429e        cmp r6, r3
 8007130:   460d        mov r5, r1
 8007132:   f300 80b8   bgt.w   80072a6 <atan+0x1ee>
 8007136:   f5a3 2350   sub.w   r3, r3, #851968 ; 0xd0000
 800713a:   429e        cmp r6, r3
 800713c:   f300 809c   bgt.w   8007278 <atan+0x1c0>
 8007140:   4602        mov r2, r0
 8007142:   460b        mov r3, r1
 8007144:   f7f9 f812   bl  800016c <__adddf3>
 8007148:   2200        movs    r2, #0
 800714a:   4b9c        ldr r3, [pc, #624]  ; (80073bc <atan+0x304>)
 800714c:   f7f9 f80c   bl  8000168 <__aeabi_dsub>
 8007150:   2200        movs    r2, #0
 8007152:   4606        mov r6, r0
 8007154:   460f        mov r7, r1
 8007156:   f04f 4380   mov.w   r3, #1073741824 ; 0x40000000
 800715a:   4620        mov r0, r4
 800715c:   4629        mov r1, r5
 800715e:   f7f9 f805   bl  800016c <__adddf3>
 8007162:   4602        mov r2, r0
 8007164:   460b        mov r3, r1
 8007166:   4630        mov r0, r6
 8007168:   4639        mov r1, r7
 800716a:   f7f9 fadb   bl  8000724 <__aeabi_ddiv>
 800716e:   f04f 0a00   mov.w   sl, #0
 8007172:   4604        mov r4, r0
 8007174:   460d        mov r5, r1
 8007176:   4622        mov r2, r4
 8007178:   462b        mov r3, r5
 800717a:   4620        mov r0, r4
 800717c:   4629        mov r1, r5
 800717e:   f7f9 f9a7   bl  80004d0 <__aeabi_dmul>
 8007182:   4602        mov r2, r0
 8007184:   460b        mov r3, r1
 8007186:   4680        mov r8, r0
 8007188:   4689        mov r9, r1
 800718a:   f7f9 f9a1   bl  80004d0 <__aeabi_dmul>
 800718e:   a370        add r3, pc, #448    ; (adr r3, 8007350 <atan+0x298>)
 8007190:   e9d3 2300   ldrd    r2, r3, [r3]
 8007194:   4606        mov r6, r0
 8007196:   460f        mov r7, r1
 8007198:   f7f9 f99a   bl  80004d0 <__aeabi_dmul>
 800719c:   a36e        add r3, pc, #440    ; (adr r3, 8007358 <atan+0x2a0>)
 800719e:   e9d3 2300   ldrd    r2, r3, [r3]
 80071a2:   f7f8 ffe3   bl  800016c <__adddf3>
 80071a6:   4632        mov r2, r6
 80071a8:   463b        mov r3, r7
 80071aa:   f7f9 f991   bl  80004d0 <__aeabi_dmul>
 80071ae:   a36c        add r3, pc, #432    ; (adr r3, 8007360 <atan+0x2a8>)
 80071b0:   e9d3 2300   ldrd    r2, r3, [r3]
 80071b4:   f7f8 ffda   bl  800016c <__adddf3>
 80071b8:   4632        mov r2, r6
 80071ba:   463b        mov r3, r7
 80071bc:   f7f9 f988   bl  80004d0 <__aeabi_dmul>
 80071c0:   a369        add r3, pc, #420    ; (adr r3, 8007368 <atan+0x2b0>)
 80071c2:   e9d3 2300   ldrd    r2, r3, [r3]
 80071c6:   f7f8 ffd1   bl  800016c <__adddf3>
 80071ca:   4632        mov r2, r6
 80071cc:   463b        mov r3, r7
 80071ce:   f7f9 f97f   bl  80004d0 <__aeabi_dmul>
 80071d2:   a367        add r3, pc, #412    ; (adr r3, 8007370 <atan+0x2b8>)
 80071d4:   e9d3 2300   ldrd    r2, r3, [r3]
 80071d8:   f7f8 ffc8   bl  800016c <__adddf3>
 80071dc:   4632        mov r2, r6
 80071de:   463b        mov r3, r7
 80071e0:   f7f9 f976   bl  80004d0 <__aeabi_dmul>
 80071e4:   a364        add r3, pc, #400    ; (adr r3, 8007378 <atan+0x2c0>)
 80071e6:   e9d3 2300   ldrd    r2, r3, [r3]
 80071ea:   f7f8 ffbf   bl  800016c <__adddf3>
 80071ee:   4642        mov r2, r8
 80071f0:   464b        mov r3, r9
 80071f2:   f7f9 f96d   bl  80004d0 <__aeabi_dmul>
 80071f6:   a362        add r3, pc, #392    ; (adr r3, 8007380 <atan+0x2c8>)
 80071f8:   e9d3 2300   ldrd    r2, r3, [r3]
 80071fc:   4680        mov r8, r0
 80071fe:   4689        mov r9, r1
 8007200:   4630        mov r0, r6
 8007202:   4639        mov r1, r7
 8007204:   f7f9 f964   bl  80004d0 <__aeabi_dmul>
 8007208:   a35f        add r3, pc, #380    ; (adr r3, 8007388 <atan+0x2d0>)
 800720a:   e9d3 2300   ldrd    r2, r3, [r3]
 800720e:   f7f8 ffab   bl  8000168 <__aeabi_dsub>
 8007212:   4632        mov r2, r6
 8007214:   463b        mov r3, r7
 8007216:   f7f9 f95b   bl  80004d0 <__aeabi_dmul>
 800721a:   a35d        add r3, pc, #372    ; (adr r3, 8007390 <atan+0x2d8>)
 800721c:   e9d3 2300   ldrd    r2, r3, [r3]
 8007220:   f7f8 ffa2   bl  8000168 <__aeabi_dsub>
 8007224:   4632        mov r2, r6
 8007226:   463b        mov r3, r7
 8007228:   f7f9 f952   bl  80004d0 <__aeabi_dmul>
 800722c:   a35a        add r3, pc, #360    ; (adr r3, 8007398 <atan+0x2e0>)
 800722e:   e9d3 2300   ldrd    r2, r3, [r3]
 8007232:   f7f8 ff99   bl  8000168 <__aeabi_dsub>
 8007236:   4632        mov r2, r6
 8007238:   463b        mov r3, r7
 800723a:   f7f9 f949   bl  80004d0 <__aeabi_dmul>
 800723e:   a358        add r3, pc, #352    ; (adr r3, 80073a0 <atan+0x2e8>)
 8007240:   e9d3 2300   ldrd    r2, r3, [r3]
 8007244:   f7f8 ff90   bl  8000168 <__aeabi_dsub>
 8007248:   4632        mov r2, r6
 800724a:   463b        mov r3, r7
 800724c:   f7f9 f940   bl  80004d0 <__aeabi_dmul>
 8007250:   f1ba 3fff   cmp.w   sl, #4294967295 ; 0xffffffff
 8007254:   4602        mov r2, r0
 8007256:   460b        mov r3, r1
 8007258:   d14e        bne.n   80072f8 <atan+0x240>
 800725a:   4640        mov r0, r8
 800725c:   4649        mov r1, r9
 800725e:   f7f8 ff85   bl  800016c <__adddf3>
 8007262:   4622        mov r2, r4
 8007264:   462b        mov r3, r5
 8007266:   f7f9 f933   bl  80004d0 <__aeabi_dmul>
 800726a:   4602        mov r2, r0
 800726c:   460b        mov r3, r1
 800726e:   4620        mov r0, r4
 8007270:   4629        mov r1, r5
 8007272:   f7f8 ff79   bl  8000168 <__aeabi_dsub>
 8007276:   e734        b.n 80070e2 <atan+0x2a>
 8007278:   2200        movs    r2, #0
 800727a:   4b50        ldr r3, [pc, #320]  ; (80073bc <atan+0x304>)
 800727c:   f7f8 ff74   bl  8000168 <__aeabi_dsub>
 8007280:   2200        movs    r2, #0
 8007282:   4606        mov r6, r0
 8007284:   460f        mov r7, r1
 8007286:   4b4d        ldr r3, [pc, #308]  ; (80073bc <atan+0x304>)
 8007288:   4620        mov r0, r4
 800728a:   4629        mov r1, r5
 800728c:   f7f8 ff6e   bl  800016c <__adddf3>
 8007290:   4602        mov r2, r0
 8007292:   460b        mov r3, r1
 8007294:   4630        mov r0, r6
 8007296:   4639        mov r1, r7
 8007298:   f7f9 fa44   bl  8000724 <__aeabi_ddiv>
 800729c:   f04f 0a01   mov.w   sl, #1
 80072a0:   4604        mov r4, r0
 80072a2:   460d        mov r5, r1
 80072a4:   e767        b.n 8007176 <atan+0xbe>
 80072a6:   4b47        ldr r3, [pc, #284]  ; (80073c4 <atan+0x30c>)
 80072a8:   429e        cmp r6, r3
 80072aa:   dc1a        bgt.n   80072e2 <atan+0x22a>
 80072ac:   2200        movs    r2, #0
 80072ae:   4b46        ldr r3, [pc, #280]  ; (80073c8 <atan+0x310>)
 80072b0:   f7f8 ff5a   bl  8000168 <__aeabi_dsub>
 80072b4:   2200        movs    r2, #0
 80072b6:   4606        mov r6, r0
 80072b8:   460f        mov r7, r1
 80072ba:   4b43        ldr r3, [pc, #268]  ; (80073c8 <atan+0x310>)
 80072bc:   4620        mov r0, r4
 80072be:   4629        mov r1, r5
 80072c0:   f7f9 f906   bl  80004d0 <__aeabi_dmul>
 80072c4:   2200        movs    r2, #0
 80072c6:   4b3d        ldr r3, [pc, #244]  ; (80073bc <atan+0x304>)
 80072c8:   f7f8 ff50   bl  800016c <__adddf3>
 80072cc:   4602        mov r2, r0
 80072ce:   460b        mov r3, r1
 80072d0:   4630        mov r0, r6
 80072d2:   4639        mov r1, r7
 80072d4:   f7f9 fa26   bl  8000724 <__aeabi_ddiv>
 80072d8:   f04f 0a02   mov.w   sl, #2
 80072dc:   4604        mov r4, r0
 80072de:   460d        mov r5, r1
 80072e0:   e749        b.n 8007176 <atan+0xbe>
 80072e2:   4602        mov r2, r0
 80072e4:   460b        mov r3, r1
 80072e6:   2000        movs    r0, #0
 80072e8:   4938        ldr r1, [pc, #224]  ; (80073cc <atan+0x314>)
 80072ea:   f7f9 fa1b   bl  8000724 <__aeabi_ddiv>
 80072ee:   f04f 0a03   mov.w   sl, #3
 80072f2:   4604        mov r4, r0
 80072f4:   460d        mov r5, r1
 80072f6:   e73e        b.n 8007176 <atan+0xbe>
 80072f8:   4640        mov r0, r8
 80072fa:   4649        mov r1, r9
 80072fc:   f7f8 ff36   bl  800016c <__adddf3>
 8007300:   4622        mov r2, r4
 8007302:   462b        mov r3, r5
 8007304:   f7f9 f8e4   bl  80004d0 <__aeabi_dmul>
 8007308:   4e31        ldr r6, [pc, #196]  ; (80073d0 <atan+0x318>)
 800730a:   4b32        ldr r3, [pc, #200]  ; (80073d4 <atan+0x31c>)
 800730c:   ea4f 0aca   mov.w   sl, sl, lsl #3
 8007310:   4456        add r6, sl
 8007312:   449a        add sl, r3
 8007314:   e9da 2300   ldrd    r2, r3, [sl]
 8007318:   f7f8 ff26   bl  8000168 <__aeabi_dsub>
 800731c:   4622        mov r2, r4
 800731e:   462b        mov r3, r5
 8007320:   f7f8 ff22   bl  8000168 <__aeabi_dsub>
 8007324:   4602        mov r2, r0
 8007326:   460b        mov r3, r1
 8007328:   e9d6 0100   ldrd    r0, r1, [r6]
 800732c:   f7f8 ff1c   bl  8000168 <__aeabi_dsub>
 8007330:   f1bb 0f00   cmp.w   fp, #0
 8007334:   4604        mov r4, r0
 8007336:   460d        mov r5, r1
 8007338:   f6bf aedc   bge.w   80070f4 <atan+0x3c>
 800733c:   f101 4300   add.w   r3, r1, #2147483648 ; 0x80000000
 8007340:   461d        mov r5, r3
 8007342:   e6d7        b.n 80070f4 <atan+0x3c>
 8007344:   4d24        ldr r5, [pc, #144]  ; (80073d8 <atan+0x320>)
 8007346:   e6d5        b.n 80070f4 <atan+0x3c>
 8007348:   8800759c    .word   0x8800759c
 800734c:   7e37e43c    .word   0x7e37e43c
 8007350:   e322da11    .word   0xe322da11
 8007354:   3f90ad3a    .word   0x3f90ad3a
 8007358:   24760deb    .word   0x24760deb
 800735c:   3fa97b4b    .word   0x3fa97b4b
 8007360:   a0d03d51    .word   0xa0d03d51
 8007364:   3fb10d66    .word   0x3fb10d66
 8007368:   c54c206e    .word   0xc54c206e
 800736c:   3fb745cd    .word   0x3fb745cd
 8007370:   920083ff    .word   0x920083ff
 8007374:   3fc24924    .word   0x3fc24924
 8007378:   5555550d    .word   0x5555550d
 800737c:   3fd55555    .word   0x3fd55555
 8007380:   2c6a6c2f    .word   0x2c6a6c2f
 8007384:   bfa2b444    .word   0xbfa2b444
 8007388:   52defd9a    .word   0x52defd9a
 800738c:   3fadde2d    .word   0x3fadde2d
 8007390:   af749a6d    .word   0xaf749a6d
 8007394:   3fb3b0f2    .word   0x3fb3b0f2
 8007398:   fe231671    .word   0xfe231671
 800739c:   3fbc71c6    .word   0x3fbc71c6
 80073a0:   9998ebc4    .word   0x9998ebc4
 80073a4:   3fc99999    .word   0x3fc99999
 80073a8:   440fffff    .word   0x440fffff
 80073ac:   7ff00000    .word   0x7ff00000
 80073b0:   54442d18    .word   0x54442d18
 80073b4:   bff921fb    .word   0xbff921fb
 80073b8:   3fdbffff    .word   0x3fdbffff
 80073bc:   3ff00000    .word   0x3ff00000
 80073c0:   3ff2ffff    .word   0x3ff2ffff
 80073c4:   40037fff    .word   0x40037fff
 80073c8:   3ff80000    .word   0x3ff80000
 80073cc:   bff00000    .word   0xbff00000
 80073d0:   08007740    .word   0x08007740
 80073d4:   08007760    .word   0x08007760
 80073d8:   3ff921fb    .word   0x3ff921fb

080073dc <fabs>:
 80073dc:   f021 4100   bic.w   r1, r1, #2147483648 ; 0x80000000
 80073e0:   4770        bx  lr

080073e2 <finite>:
 80073e2:   f041 4100   orr.w   r1, r1, #2147483648 ; 0x80000000
 80073e6:   f501 1080   add.w   r0, r1, #1048576    ; 0x100000
 80073ea:   0fc0        lsrs    r0, r0, #31
 80073ec:   4770        bx  lr

080073ee <matherr>:
 80073ee:   2000        movs    r0, #0
 80073f0:   4770        bx  lr
    ...

080073f4 <nan>:
 80073f4:   2000        movs    r0, #0
 80073f6:   4901        ldr r1, [pc, #4]    ; (80073fc <nan+0x8>)
 80073f8:   4770        bx  lr
 80073fa:   bf00        nop
 80073fc:   7ff80000    .word   0x7ff80000

08007400 <rint>:
 8007400:   b5f7        push    {r0, r1, r2, r4, r5, r6, r7, lr}
 8007402:   f3c1 5e0a   ubfx    lr, r1, #20, #11
 8007406:   f2ae 37ff   subw    r7, lr, #1023   ; 0x3ff
 800740a:   2f13        cmp r7, #19
 800740c:   4602        mov r2, r0
 800740e:   460b        mov r3, r1
 8007410:   4684        mov ip, r0
 8007412:   460c        mov r4, r1
 8007414:   4605        mov r5, r0
 8007416:   ea4f 76d1   mov.w   r6, r1, lsr #31
 800741a:   dc56        bgt.n   80074ca <rint+0xca>
 800741c:   2f00        cmp r7, #0
 800741e:   da29        bge.n   8007474 <rint+0x74>
 8007420:   f021 4100   bic.w   r1, r1, #2147483648 ; 0x80000000
 8007424:   4301        orrs    r1, r0
 8007426:   d021        beq.n   800746c <rint+0x6c>
 8007428:   f3c3 0513   ubfx    r5, r3, #0, #20
 800742c:   4305        orrs    r5, r0
 800742e:   426b        negs    r3, r5
 8007430:   432b        orrs    r3, r5
 8007432:   0b1b        lsrs    r3, r3, #12
 8007434:   0c64        lsrs    r4, r4, #17
 8007436:   f403 2300   and.w   r3, r3, #524288 ; 0x80000
 800743a:   0464        lsls    r4, r4, #17
 800743c:   ea43 0104   orr.w   r1, r3, r4
 8007440:   4b31        ldr r3, [pc, #196]  ; (8007508 <rint+0x108>)
 8007442:   eb03 03c6   add.w   r3, r3, r6, lsl #3
 8007446:   e9d3 4500   ldrd    r4, r5, [r3]
 800744a:   4622        mov r2, r4
 800744c:   462b        mov r3, r5
 800744e:   f7f8 fe8d   bl  800016c <__adddf3>
 8007452:   e9cd 0100   strd    r0, r1, [sp]
 8007456:   e9dd 0100   ldrd    r0, r1, [sp]
 800745a:   4622        mov r2, r4
 800745c:   462b        mov r3, r5
 800745e:   f7f8 fe83   bl  8000168 <__aeabi_dsub>
 8007462:   4602        mov r2, r0
 8007464:   f021 4100   bic.w   r1, r1, #2147483648 ; 0x80000000
 8007468:   ea41 73c6   orr.w   r3, r1, r6, lsl #31
 800746c:   4610        mov r0, r2
 800746e:   4619        mov r1, r3
 8007470:   b003        add sp, #12
 8007472:   bdf0        pop {r4, r5, r6, r7, pc}
 8007474:   4925        ldr r1, [pc, #148]  ; (800750c <rint+0x10c>)
 8007476:   4139        asrs    r1, r7
 8007478:   ea03 0001   and.w   r0, r3, r1
 800747c:   4310        orrs    r0, r2
 800747e:   d0f5        beq.n   800746c <rint+0x6c>
 8007480:   084b        lsrs    r3, r1, #1
 8007482:   ea04 0203   and.w   r2, r4, r3
 8007486:   ea52 050c   orrs.w  r5, r2, ip
 800748a:   d00a        beq.n   80074a2 <rint+0xa2>
 800748c:   ea24 0303   bic.w   r3, r4, r3
 8007490:   f44f 2480   mov.w   r4, #262144 ; 0x40000
 8007494:   2f13        cmp r7, #19
 8007496:   bf0c        ite eq
 8007498:   f04f 4500   moveq.w r5, #2147483648 ; 0x80000000
 800749c:   2500        movne   r5, #0
 800749e:   413c        asrs    r4, r7
 80074a0:   431c        orrs    r4, r3
 80074a2:   4b19        ldr r3, [pc, #100]  ; (8007508 <rint+0x108>)
 80074a4:   4621        mov r1, r4
 80074a6:   eb03 06c6   add.w   r6, r3, r6, lsl #3
 80074aa:   4628        mov r0, r5
 80074ac:   e9d6 4500   ldrd    r4, r5, [r6]
 80074b0:   4622        mov r2, r4
 80074b2:   462b        mov r3, r5
 80074b4:   f7f8 fe5a   bl  800016c <__adddf3>
 80074b8:   e9cd 0100   strd    r0, r1, [sp]
 80074bc:   e9dd 0100   ldrd    r0, r1, [sp]
 80074c0:   4622        mov r2, r4
 80074c2:   462b        mov r3, r5
 80074c4:   f7f8 fe50   bl  8000168 <__aeabi_dsub>
 80074c8:   e006        b.n 80074d8 <rint+0xd8>
 80074ca:   2f33        cmp r7, #51 ; 0x33
 80074cc:   dd07        ble.n   80074de <rint+0xde>
 80074ce:   f5b7 6f80   cmp.w   r7, #1024   ; 0x400
 80074d2:   d1cb        bne.n   800746c <rint+0x6c>
 80074d4:   f7f8 fe4a   bl  800016c <__adddf3>
 80074d8:   4602        mov r2, r0
 80074da:   460b        mov r3, r1
 80074dc:   e7c6        b.n 800746c <rint+0x6c>
 80074de:   f04f 31ff   mov.w   r1, #4294967295 ; 0xffffffff
 80074e2:   f2ae 4e13   subw    lr, lr, #1043   ; 0x413
 80074e6:   fa21 f10e   lsr.w   r1, r1, lr
 80074ea:   4208        tst r0, r1
 80074ec:   d0be        beq.n   800746c <rint+0x6c>
 80074ee:   084b        lsrs    r3, r1, #1
 80074f0:   4218        tst r0, r3
 80074f2:   bf1f        itttt   ne
 80074f4:   f04f 4580   movne.w r5, #1073741824 ; 0x40000000
 80074f8:   ea20 0303   bicne.w r3, r0, r3
 80074fc:   fa45 fe0e   asrne.w lr, r5, lr
 8007500:   ea4e 0503   orrne.w r5, lr, r3
 8007504:   e7cd        b.n 80074a2 <rint+0xa2>
 8007506:   bf00        nop
 8007508:   08007780    .word   0x08007780
 800750c:   000fffff    .word   0x000fffff

08007510 <scalbn>:
 8007510:   b5f8        push    {r3, r4, r5, r6, r7, lr}
 8007512:   4616        mov r6, r2
 8007514:   f3c1 520a   ubfx    r2, r1, #20, #11
 8007518:   4604        mov r4, r0
 800751a:   460d        mov r5, r1
 800751c:   460b        mov r3, r1
 800751e:   b98a        cbnz    r2, 8007544 <scalbn+0x34>
 8007520:   f021 4300   bic.w   r3, r1, #2147483648 ; 0x80000000
 8007524:   4303        orrs    r3, r0
 8007526:   d035        beq.n   8007594 <scalbn+0x84>
 8007528:   2200        movs    r2, #0
 800752a:   4b2d        ldr r3, [pc, #180]  ; (80075e0 <scalbn+0xd0>)
 800752c:   f7f8 ffd0   bl  80004d0 <__aeabi_dmul>
 8007530:   4a2c        ldr r2, [pc, #176]  ; (80075e4 <scalbn+0xd4>)
 8007532:   4604        mov r4, r0
 8007534:   4296        cmp r6, r2
 8007536:   460d        mov r5, r1
 8007538:   460b        mov r3, r1
 800753a:   da0e        bge.n   800755a <scalbn+0x4a>
 800753c:   a324        add r3, pc, #144    ; (adr r3, 80075d0 <scalbn+0xc0>)
 800753e:   e9d3 2300   ldrd    r2, r3, [r3]
 8007542:   e01c        b.n 800757e <scalbn+0x6e>
 8007544:   f240 77ff   movw    r7, #2047   ; 0x7ff
 8007548:   42ba        cmp r2, r7
 800754a:   d109        bne.n   8007560 <scalbn+0x50>
 800754c:   4602        mov r2, r0
 800754e:   460b        mov r3, r1
 8007550:   f7f8 fe0c   bl  800016c <__adddf3>
 8007554:   4604        mov r4, r0
 8007556:   460d        mov r5, r1
 8007558:   e01c        b.n 8007594 <scalbn+0x84>
 800755a:   f3c1 520a   ubfx    r2, r1, #20, #11
 800755e:   3a36        subs    r2, #54 ; 0x36
 8007560:   f240 71fe   movw    r1, #2046   ; 0x7fe
 8007564:   4432        add r2, r6
 8007566:   428a        cmp r2, r1
 8007568:   dd0c        ble.n   8007584 <scalbn+0x74>
 800756a:   4622        mov r2, r4
 800756c:   462b        mov r3, r5
 800756e:   a11a        add r1, pc, #104    ; (adr r1, 80075d8 <scalbn+0xc8>)
 8007570:   e9d1 0100   ldrd    r0, r1, [r1]
 8007574:   f000 f83a   bl  80075ec <copysign>
 8007578:   a317        add r3, pc, #92 ; (adr r3, 80075d8 <scalbn+0xc8>)
 800757a:   e9d3 2300   ldrd    r2, r3, [r3]
 800757e:   f7f8 ffa7   bl  80004d0 <__aeabi_dmul>
 8007582:   e7e7        b.n 8007554 <scalbn+0x44>
 8007584:   2a00        cmp r2, #0
 8007586:   dd08        ble.n   800759a <scalbn+0x8a>
 8007588:   f023 43ff   bic.w   r3, r3, #2139095040 ; 0x7f800000
 800758c:   f423 03e0   bic.w   r3, r3, #7340032    ; 0x700000
 8007590:   ea43 5502   orr.w   r5, r3, r2, lsl #20
 8007594:   4620        mov r0, r4
 8007596:   4629        mov r1, r5
 8007598:   bdf8        pop {r3, r4, r5, r6, r7, pc}
 800759a:   f112 0f35   cmn.w   r2, #53 ; 0x35
 800759e:   da0b        bge.n   80075b8 <scalbn+0xa8>
 80075a0:   f24c 3350   movw    r3, #50000  ; 0xc350
 80075a4:   429e        cmp r6, r3
 80075a6:   4622        mov r2, r4
 80075a8:   462b        mov r3, r5
 80075aa:   dce0        bgt.n   800756e <scalbn+0x5e>
 80075ac:   a108        add r1, pc, #32 ; (adr r1, 80075d0 <scalbn+0xc0>)
 80075ae:   e9d1 0100   ldrd    r0, r1, [r1]
 80075b2:   f000 f81b   bl  80075ec <copysign>
 80075b6:   e7c1        b.n 800753c <scalbn+0x2c>
 80075b8:   f023 43ff   bic.w   r3, r3, #2139095040 ; 0x7f800000
 80075bc:   3236        adds    r2, #54 ; 0x36
 80075be:   f423 03e0   bic.w   r3, r3, #7340032    ; 0x700000
 80075c2:   ea43 5502   orr.w   r5, r3, r2, lsl #20
 80075c6:   4620        mov r0, r4
 80075c8:   4629        mov r1, r5
 80075ca:   2200        movs    r2, #0
 80075cc:   4b06        ldr r3, [pc, #24]   ; (80075e8 <scalbn+0xd8>)
 80075ce:   e7d6        b.n 800757e <scalbn+0x6e>
 80075d0:   c2f8f359    .word   0xc2f8f359
 80075d4:   01a56e1f    .word   0x01a56e1f
 80075d8:   8800759c    .word   0x8800759c
 80075dc:   7e37e43c    .word   0x7e37e43c
 80075e0:   43500000    .word   0x43500000
 80075e4:   ffff3cb0    .word   0xffff3cb0
 80075e8:   3c900000    .word   0x3c900000

080075ec <copysign>:
 80075ec:   f021 4200   bic.w   r2, r1, #2147483648 ; 0x80000000
 80075f0:   f003 4300   and.w   r3, r3, #2147483648 ; 0x80000000
 80075f4:   ea42 0103   orr.w   r1, r2, r3
 80075f8:   4770        bx  lr
    ...

080075fc <__errno>:
 80075fc:   4b01        ldr r3, [pc, #4]    ; (8007604 <__errno+0x8>)
 80075fe:   6818        ldr r0, [r3, #0]
 8007600:   4770        bx  lr
 8007602:   bf00        nop
 8007604:   200001c0    .word   0x200001c0

08007608 <_sbrk>:
 8007608:   4b04        ldr r3, [pc, #16]   ; (800761c <_sbrk+0x14>)
 800760a:   4602        mov r2, r0
 800760c:   6819        ldr r1, [r3, #0]
 800760e:   b909        cbnz    r1, 8007614 <_sbrk+0xc>
 8007610:   4903        ldr r1, [pc, #12]   ; (8007620 <_sbrk+0x18>)
 8007612:   6019        str r1, [r3, #0]
 8007614:   6818        ldr r0, [r3, #0]
 8007616:   4402        add r2, r0
 8007618:   601a        str r2, [r3, #0]
 800761a:   4770        bx  lr
 800761c:   200002b0    .word   0x200002b0
 8007620:   2000169c    .word   0x2000169c

08007624 <_init>:
 8007624:   b5f8        push    {r3, r4, r5, r6, r7, lr}
 8007626:   bf00        nop
 8007628:   bcf8        pop {r3, r4, r5, r6, r7}
 800762a:   bc08        pop {r3}
 800762c:   469e        mov lr, r3
 800762e:   4770        bx  lr

08007630 <_fini>:
 8007630:   b5f8        push    {r3, r4, r5, r6, r7, lr}
 8007632:   bf00        nop
 8007634:   bcf8        pop {r3, r4, r5, r6, r7}
 8007636:   bc08        pop {r3}
 8007638:   469e        mov lr, r3
 800763a:   4770        bx  lr
