
i2s-o3.elf:     file format elf32-littlearm


Disassembly of section .text:

00000000 <__isr_vector>:
       0:	20010000 	.word	0x20010000
       4:	000002b1 	.word	0x000002b1
       8:	000002d9 	.word	0x000002d9
       c:	000002db 	.word	0x000002db
      10:	000002dd 	.word	0x000002dd
      14:	000002df 	.word	0x000002df
      18:	000002e1 	.word	0x000002e1
	...
      2c:	000002e3 	.word	0x000002e3
      30:	000002e5 	.word	0x000002e5
      34:	00000000 	.word	0x00000000
      38:	000002e7 	.word	0x000002e7
      3c:	000002e9 	.word	0x000002e9
      40:	000002eb 	.word	0x000002eb
      44:	000002eb 	.word	0x000002eb
      48:	00001e9d 	.word	0x00001e9d
      4c:	000002eb 	.word	0x000002eb
      50:	000002eb 	.word	0x000002eb
      54:	000002eb 	.word	0x000002eb
      58:	000002eb 	.word	0x000002eb
      5c:	000002eb 	.word	0x000002eb
      60:	000002eb 	.word	0x000002eb
      64:	000002eb 	.word	0x000002eb
      68:	000002eb 	.word	0x000002eb
      6c:	000002eb 	.word	0x000002eb
      70:	000002eb 	.word	0x000002eb
      74:	000002eb 	.word	0x000002eb
      78:	000002eb 	.word	0x000002eb
      7c:	000002eb 	.word	0x000002eb
      80:	000002eb 	.word	0x000002eb
      84:	000002eb 	.word	0x000002eb
      88:	000002eb 	.word	0x000002eb
      8c:	000002eb 	.word	0x000002eb
      90:	000002eb 	.word	0x000002eb
      94:	000002eb 	.word	0x000002eb
      98:	000002eb 	.word	0x000002eb
      9c:	000002eb 	.word	0x000002eb
      a0:	000002eb 	.word	0x000002eb
      a4:	000002eb 	.word	0x000002eb
      a8:	000002eb 	.word	0x000002eb
      ac:	000002eb 	.word	0x000002eb
      b0:	000002eb 	.word	0x000002eb
      b4:	000002eb 	.word	0x000002eb
	...
      c0:	000002eb 	.word	0x000002eb
      c4:	000002eb 	.word	0x000002eb
      c8:	000002eb 	.word	0x000002eb
      cc:	000002eb 	.word	0x000002eb
      d0:	000002eb 	.word	0x000002eb
      d4:	00001d81 	.word	0x00001d81
      d8:	000002eb 	.word	0x000002eb
	...

00000200 <__do_global_dtors_aux>:
     200:	b510      	push	{r4, lr}
     202:	4c05      	ldr	r4, [pc, #20]	; (218 <__do_global_dtors_aux+0x18>)
     204:	7823      	ldrb	r3, [r4, #0]
     206:	b933      	cbnz	r3, 216 <__do_global_dtors_aux+0x16>
     208:	4b04      	ldr	r3, [pc, #16]	; (21c <__do_global_dtors_aux+0x1c>)
     20a:	b113      	cbz	r3, 212 <__do_global_dtors_aux+0x12>
     20c:	4804      	ldr	r0, [pc, #16]	; (220 <__do_global_dtors_aux+0x20>)
     20e:	f3af 8000 	nop.w
     212:	2301      	movs	r3, #1
     214:	7023      	strb	r3, [r4, #0]
     216:	bd10      	pop	{r4, pc}
     218:	20000030 	.word	0x20000030
     21c:	00000000 	.word	0x00000000
     220:	00003598 	.word	0x00003598

00000224 <frame_dummy>:
     224:	b508      	push	{r3, lr}
     226:	4b03      	ldr	r3, [pc, #12]	; (234 <frame_dummy+0x10>)
     228:	b11b      	cbz	r3, 232 <frame_dummy+0xe>
     22a:	4903      	ldr	r1, [pc, #12]	; (238 <frame_dummy+0x14>)
     22c:	4803      	ldr	r0, [pc, #12]	; (23c <frame_dummy+0x18>)
     22e:	f3af 8000 	nop.w
     232:	bd08      	pop	{r3, pc}
     234:	00000000 	.word	0x00000000
     238:	20000034 	.word	0x20000034
     23c:	00003598 	.word	0x00003598

00000240 <_stack_init>:
     240:	f5a3 3a80 	sub.w	sl, r3, #65536	; 0x10000
     244:	4770      	bx	lr
     246:	bf00      	nop

00000248 <_mainCRTStartup>:
     248:	4b15      	ldr	r3, [pc, #84]	; (2a0 <_mainCRTStartup+0x58>)
     24a:	2b00      	cmp	r3, #0
     24c:	bf08      	it	eq
     24e:	4b11      	ldreq	r3, [pc, #68]	; (294 <_mainCRTStartup+0x4c>)
     250:	469d      	mov	sp, r3
     252:	f7ff fff5 	bl	240 <_stack_init>
     256:	2100      	movs	r1, #0
     258:	468b      	mov	fp, r1
     25a:	460f      	mov	r7, r1
     25c:	4811      	ldr	r0, [pc, #68]	; (2a4 <_mainCRTStartup+0x5c>)
     25e:	4a12      	ldr	r2, [pc, #72]	; (2a8 <_mainCRTStartup+0x60>)
     260:	1a12      	subs	r2, r2, r0
     262:	f002 fef9 	bl	3058 <memset>
     266:	4b0c      	ldr	r3, [pc, #48]	; (298 <_mainCRTStartup+0x50>)
     268:	2b00      	cmp	r3, #0
     26a:	d000      	beq.n	26e <_mainCRTStartup+0x26>
     26c:	4798      	blx	r3
     26e:	4b0b      	ldr	r3, [pc, #44]	; (29c <_mainCRTStartup+0x54>)
     270:	2b00      	cmp	r3, #0
     272:	d000      	beq.n	276 <_mainCRTStartup+0x2e>
     274:	4798      	blx	r3
     276:	2000      	movs	r0, #0
     278:	2100      	movs	r1, #0
     27a:	0004      	movs	r4, r0
     27c:	000d      	movs	r5, r1
     27e:	480b      	ldr	r0, [pc, #44]	; (2ac <_mainCRTStartup+0x64>)
     280:	f002 fed2 	bl	3028 <atexit>
     284:	f002 fef0 	bl	3068 <__libc_init_array>
     288:	0020      	movs	r0, r4
     28a:	0029      	movs	r1, r5
     28c:	f002 fba4 	bl	29d8 <main>
     290:	f002 fed0 	bl	3034 <exit>
     294:	00080000 	.word	0x00080000
	...
     2a0:	20010000 	.word	0x20010000
     2a4:	20000030 	.word	0x20000030
     2a8:	20002770 	.word	0x20002770
     2ac:	000030b1 	.word	0x000030b1

000002b0 <Reset_Handler>:
     2b0:	4906      	ldr	r1, [pc, #24]	; (2cc <Reset_Handler+0x1c>)
     2b2:	4a07      	ldr	r2, [pc, #28]	; (2d0 <Reset_Handler+0x20>)
     2b4:	4b07      	ldr	r3, [pc, #28]	; (2d4 <Reset_Handler+0x24>)
     2b6:	1a9b      	subs	r3, r3, r2
     2b8:	dd03      	ble.n	2c2 <Reset_Handler+0x12>
     2ba:	3b04      	subs	r3, #4
     2bc:	58c8      	ldr	r0, [r1, r3]
     2be:	50d0      	str	r0, [r2, r3]
     2c0:	dcfb      	bgt.n	2ba <Reset_Handler+0xa>
     2c2:	f002 fceb 	bl	2c9c <SystemInit>
     2c6:	f7ff ffbf 	bl	248 <_mainCRTStartup>
     2ca:	0000      	.short	0x0000
     2cc:	000035f0 	.word	0x000035f0
     2d0:	20000000 	.word	0x20000000
     2d4:	20000030 	.word	0x20000030

000002d8 <NMI_Handler>:
     2d8:	e7fe      	b.n	2d8 <NMI_Handler>

000002da <HardFault_Handler>:
     2da:	e7fe      	b.n	2da <HardFault_Handler>

000002dc <MemoryManagement_Handler>:
     2dc:	e7fe      	b.n	2dc <MemoryManagement_Handler>

000002de <BusFault_Handler>:
     2de:	e7fe      	b.n	2de <BusFault_Handler>

000002e0 <UsageFault_Handler>:
     2e0:	e7fe      	b.n	2e0 <UsageFault_Handler>

000002e2 <SVC_Handler>:
     2e2:	e7fe      	b.n	2e2 <SVC_Handler>

000002e4 <DebugMon_Handler>:
     2e4:	e7fe      	b.n	2e4 <DebugMon_Handler>

000002e6 <PendSV_Handler>:
     2e6:	e7fe      	b.n	2e6 <PendSV_Handler>

000002e8 <SysTick_Handler>:
     2e8:	e7fe      	b.n	2e8 <SysTick_Handler>

000002ea <Default_Handler>:
     2ea:	e7fe      	b.n	2ea <Default_Handler>

000002ec <nrf_log_backend_serial_put>:
     2ec:	b5f0      	push	{r4, r5, r6, r7, lr}
     2ee:	b095      	sub	sp, #84	; 0x54
     2f0:	4608      	mov	r0, r1
     2f2:	2400      	movs	r4, #0
     2f4:	460e      	mov	r6, r1
     2f6:	4617      	mov	r7, r2
     2f8:	461d      	mov	r5, r3
     2fa:	f001 fab9 	bl	1870 <nrf_memobj_get>
     2fe:	9a1a      	ldr	r2, [sp, #104]	; 0x68
     300:	920d      	str	r2, [sp, #52]	; 0x34
     302:	4623      	mov	r3, r4
     304:	2208      	movs	r2, #8
     306:	a905      	add	r1, sp, #20
     308:	4630      	mov	r0, r6
     30a:	e9cd 5409 	strd	r5, r4, [sp, #36]	; 0x24
     30e:	9708      	str	r7, [sp, #32]
     310:	f88d 402c 	strb.w	r4, [sp, #44]	; 0x2c
     314:	940c      	str	r4, [sp, #48]	; 0x30
     316:	f001 fb0f 	bl	1938 <nrf_memobj_read>
     31a:	e9dd 2106 	ldrd	r2, r1, [sp, #24]
     31e:	f89d 3014 	ldrb.w	r3, [sp, #20]
     322:	f88d 4011 	strb.w	r4, [sp, #17]
     326:	e9cd 1202 	strd	r1, r2, [sp, #8]
     32a:	f003 0203 	and.w	r2, r3, #3
     32e:	2a01      	cmp	r2, #1
     330:	d028      	beq.n	384 <nrf_log_backend_serial_put+0x98>
     332:	2a02      	cmp	r2, #2
     334:	d004      	beq.n	340 <nrf_log_backend_serial_put+0x54>
     336:	4630      	mov	r0, r6
     338:	f001 fa9e 	bl	1878 <nrf_memobj_put>
     33c:	b015      	add	sp, #84	; 0x54
     33e:	bdf0      	pop	{r4, r5, r6, r7, pc}
     340:	f8bd 5016 	ldrh.w	r5, [sp, #22]
     344:	f3c3 03c2 	ubfx	r3, r3, #3, #3
     348:	f3c5 1589 	ubfx	r5, r5, #6, #10
     34c:	f88d 3010 	strb.w	r3, [sp, #16]
     350:	2708      	movs	r7, #8
     352:	2d08      	cmp	r5, #8
     354:	462c      	mov	r4, r5
     356:	bf28      	it	cs
     358:	2408      	movcs	r4, #8
     35a:	463b      	mov	r3, r7
     35c:	4622      	mov	r2, r4
     35e:	a90e      	add	r1, sp, #56	; 0x38
     360:	4630      	mov	r0, r6
     362:	f001 fae9 	bl	1938 <nrf_memobj_read>
     366:	1b2d      	subs	r5, r5, r4
     368:	ab08      	add	r3, sp, #32
     36a:	aa02      	add	r2, sp, #8
     36c:	4621      	mov	r1, r4
     36e:	a80e      	add	r0, sp, #56	; 0x38
     370:	4427      	add	r7, r4
     372:	f000 fcd3 	bl	d1c <nrf_log_hexdump_entry_process>
     376:	2d00      	cmp	r5, #0
     378:	d1eb      	bne.n	352 <nrf_log_backend_serial_put+0x66>
     37a:	4630      	mov	r0, r6
     37c:	f001 fa7c 	bl	1878 <nrf_memobj_put>
     380:	b015      	add	sp, #84	; 0x54
     382:	bdf0      	pop	{r4, r5, r6, r7, pc}
     384:	f8bd 1014 	ldrh.w	r1, [sp, #20]
     388:	9805      	ldr	r0, [sp, #20]
     38a:	f3c1 1283 	ubfx	r2, r1, #6, #4
     38e:	f3c3 03c2 	ubfx	r3, r3, #3, #3
     392:	f3c0 2595 	ubfx	r5, r0, #10, #22
     396:	f3c1 1483 	ubfx	r4, r1, #6, #4
     39a:	f88d 3010 	strb.w	r3, [sp, #16]
     39e:	a90e      	add	r1, sp, #56	; 0x38
     3a0:	4630      	mov	r0, r6
     3a2:	0092      	lsls	r2, r2, #2
     3a4:	2308      	movs	r3, #8
     3a6:	f001 fac7 	bl	1938 <nrf_memobj_read>
     3aa:	ab08      	add	r3, sp, #32
     3ac:	9300      	str	r3, [sp, #0]
     3ae:	4622      	mov	r2, r4
     3b0:	ab02      	add	r3, sp, #8
     3b2:	a90e      	add	r1, sp, #56	; 0x38
     3b4:	4628      	mov	r0, r5
     3b6:	f000 fc3b 	bl	c30 <nrf_log_std_entry_process>
     3ba:	4630      	mov	r0, r6
     3bc:	f001 fa5c 	bl	1878 <nrf_memobj_put>
     3c0:	b015      	add	sp, #84	; 0x54
     3c2:	bdf0      	pop	{r4, r5, r6, r7, pc}

000003c4 <uart_evt_handler>:
     3c4:	4b01      	ldr	r3, [pc, #4]	; (3cc <uart_evt_handler+0x8>)
     3c6:	2201      	movs	r2, #1
     3c8:	701a      	strb	r2, [r3, #0]
     3ca:	4770      	bx	lr
     3cc:	20000090 	.word	0x20000090

000003d0 <nrf_log_backend_uart_flush>:
     3d0:	4770      	bx	lr
     3d2:	bf00      	nop

000003d4 <nrf_log_backend_uart_put>:
     3d4:	b500      	push	{lr}
     3d6:	b083      	sub	sp, #12
     3d8:	4b04      	ldr	r3, [pc, #16]	; (3ec <nrf_log_backend_uart_put+0x18>)
     3da:	9300      	str	r3, [sp, #0]
     3dc:	4a04      	ldr	r2, [pc, #16]	; (3f0 <nrf_log_backend_uart_put+0x1c>)
     3de:	2340      	movs	r3, #64	; 0x40
     3e0:	f7ff ff84 	bl	2ec <nrf_log_backend_serial_put>
     3e4:	b003      	add	sp, #12
     3e6:	f85d fb04 	ldr.w	pc, [sp], #4
     3ea:	bf00      	nop
     3ec:	000003f5 	.word	0x000003f5
     3f0:	20000050 	.word	0x20000050

000003f4 <serial_tx>:
     3f4:	b538      	push	{r3, r4, r5, lr}
     3f6:	480f      	ldr	r0, [pc, #60]	; (434 <serial_tx+0x40>)
     3f8:	4d0f      	ldr	r5, [pc, #60]	; (438 <serial_tx+0x44>)
     3fa:	7803      	ldrb	r3, [r0, #0]
     3fc:	4c0f      	ldr	r4, [pc, #60]	; (43c <serial_tx+0x48>)
     3fe:	5ceb      	ldrb	r3, [r5, r3]
     400:	f04f 0c00 	mov.w	ip, #0
     404:	f884 c000 	strb.w	ip, [r4]
     408:	b2d2      	uxtb	r2, r2
     40a:	b153      	cbz	r3, 422 <serial_tx+0x2e>
     40c:	3004      	adds	r0, #4
     40e:	f002 fa4b 	bl	28a8 <nrfx_uarte_tx>
     412:	b958      	cbnz	r0, 42c <serial_tx+0x38>
     414:	4b0a      	ldr	r3, [pc, #40]	; (440 <serial_tx+0x4c>)
     416:	781b      	ldrb	r3, [r3, #0]
     418:	b113      	cbz	r3, 420 <serial_tx+0x2c>
     41a:	7823      	ldrb	r3, [r4, #0]
     41c:	2b00      	cmp	r3, #0
     41e:	d0fc      	beq.n	41a <serial_tx+0x26>
     420:	bd38      	pop	{r3, r4, r5, pc}
     422:	300c      	adds	r0, #12
     424:	f001 ff90 	bl	2348 <nrfx_uart_tx>
     428:	2800      	cmp	r0, #0
     42a:	d0f3      	beq.n	414 <serial_tx+0x20>
     42c:	f000 fd70 	bl	f10 <app_error_handler_bare>
     430:	e7f0      	b.n	414 <serial_tx+0x20>
     432:	bf00      	nop
     434:	20000000 	.word	0x20000000
     438:	20000648 	.word	0x20000648
     43c:	20000090 	.word	0x20000090
     440:	2000004c 	.word	0x2000004c

00000444 <nrf_log_backend_uart_panic_set>:
     444:	b510      	push	{r4, lr}
     446:	4815      	ldr	r0, [pc, #84]	; (49c <nrf_log_backend_uart_panic_set+0x58>)
     448:	4a15      	ldr	r2, [pc, #84]	; (4a0 <nrf_log_backend_uart_panic_set+0x5c>)
     44a:	7803      	ldrb	r3, [r0, #0]
     44c:	5cd3      	ldrb	r3, [r2, r3]
     44e:	b088      	sub	sp, #32
     450:	b1c3      	cbz	r3, 484 <nrf_log_backend_uart_panic_set+0x40>
     452:	3004      	adds	r0, #4
     454:	f002 f988 	bl	2768 <nrfx_uarte_uninit>
     458:	4c12      	ldr	r4, [pc, #72]	; (4a4 <nrf_log_backend_uart_panic_set+0x60>)
     45a:	cc0f      	ldmia	r4!, {r0, r1, r2, r3}
     45c:	46ec      	mov	ip, sp
     45e:	e8ac 000f 	stmia.w	ip!, {r0, r1, r2, r3}
     462:	e894 000f 	ldmia.w	r4, {r0, r1, r2, r3}
     466:	e88c 000f 	stmia.w	ip, {r0, r1, r2, r3}
     46a:	2306      	movs	r3, #6
     46c:	480b      	ldr	r0, [pc, #44]	; (49c <nrf_log_backend_uart_panic_set+0x58>)
     46e:	9300      	str	r3, [sp, #0]
     470:	2200      	movs	r2, #0
     472:	4669      	mov	r1, sp
     474:	f001 fad6 	bl	1a24 <nrf_drv_uart_init>
     478:	b940      	cbnz	r0, 48c <nrf_log_backend_uart_panic_set+0x48>
     47a:	4b0b      	ldr	r3, [pc, #44]	; (4a8 <nrf_log_backend_uart_panic_set+0x64>)
     47c:	2200      	movs	r2, #0
     47e:	701a      	strb	r2, [r3, #0]
     480:	b008      	add	sp, #32
     482:	bd10      	pop	{r4, pc}
     484:	300c      	adds	r0, #12
     486:	f001 fef1 	bl	226c <nrfx_uart_uninit>
     48a:	e7e5      	b.n	458 <nrf_log_backend_uart_panic_set+0x14>
     48c:	f000 fd40 	bl	f10 <app_error_handler_bare>
     490:	4b05      	ldr	r3, [pc, #20]	; (4a8 <nrf_log_backend_uart_panic_set+0x64>)
     492:	2200      	movs	r2, #0
     494:	701a      	strb	r2, [r3, #0]
     496:	b008      	add	sp, #32
     498:	bd10      	pop	{r4, pc}
     49a:	bf00      	nop
     49c:	20000000 	.word	0x20000000
     4a0:	20000648 	.word	0x20000648
     4a4:	00003298 	.word	0x00003298
     4a8:	2000004c 	.word	0x2000004c

000004ac <nrf_log_backend_uart_init>:
     4ac:	b510      	push	{r4, lr}
     4ae:	4c0f      	ldr	r4, [pc, #60]	; (4ec <nrf_log_backend_uart_init+0x40>)
     4b0:	cc0f      	ldmia	r4!, {r0, r1, r2, r3}
     4b2:	b088      	sub	sp, #32
     4b4:	46ec      	mov	ip, sp
     4b6:	e8ac 000f 	stmia.w	ip!, {r0, r1, r2, r3}
     4ba:	e894 000f 	ldmia.w	r4, {r0, r1, r2, r3}
     4be:	e88c 000f 	stmia.w	ip, {r0, r1, r2, r3}
     4c2:	2306      	movs	r3, #6
     4c4:	4a0a      	ldr	r2, [pc, #40]	; (4f0 <nrf_log_backend_uart_init+0x44>)
     4c6:	480b      	ldr	r0, [pc, #44]	; (4f4 <nrf_log_backend_uart_init+0x48>)
     4c8:	9300      	str	r3, [sp, #0]
     4ca:	4669      	mov	r1, sp
     4cc:	f001 faaa 	bl	1a24 <nrf_drv_uart_init>
     4d0:	b920      	cbnz	r0, 4dc <nrf_log_backend_uart_init+0x30>
     4d2:	4b09      	ldr	r3, [pc, #36]	; (4f8 <nrf_log_backend_uart_init+0x4c>)
     4d4:	2201      	movs	r2, #1
     4d6:	701a      	strb	r2, [r3, #0]
     4d8:	b008      	add	sp, #32
     4da:	bd10      	pop	{r4, pc}
     4dc:	f000 fd18 	bl	f10 <app_error_handler_bare>
     4e0:	4b05      	ldr	r3, [pc, #20]	; (4f8 <nrf_log_backend_uart_init+0x4c>)
     4e2:	2201      	movs	r2, #1
     4e4:	701a      	strb	r2, [r3, #0]
     4e6:	b008      	add	sp, #32
     4e8:	bd10      	pop	{r4, pc}
     4ea:	bf00      	nop
     4ec:	00003298 	.word	0x00003298
     4f0:	000003c5 	.word	0x000003c5
     4f4:	20000000 	.word	0x20000000
     4f8:	2000004c 	.word	0x2000004c

000004fc <nrf_log_default_backends_init>:
     4fc:	b508      	push	{r3, lr}
     4fe:	f7ff ffd5 	bl	4ac <nrf_log_backend_uart_init>
     502:	4804      	ldr	r0, [pc, #16]	; (514 <nrf_log_default_backends_init+0x18>)
     504:	2104      	movs	r1, #4
     506:	f000 fb21 	bl	b4c <nrf_log_backend_add>
     50a:	4b03      	ldr	r3, [pc, #12]	; (518 <nrf_log_default_backends_init+0x1c>)
     50c:	2201      	movs	r2, #1
     50e:	715a      	strb	r2, [r3, #5]
     510:	bd08      	pop	{r3, pc}
     512:	bf00      	nop
     514:	000035c4 	.word	0x000035c4
     518:	20000014 	.word	0x20000014

0000051c <log_skip>:
     51c:	b570      	push	{r4, r5, r6, lr}
     51e:	4d30      	ldr	r5, [pc, #192]	; (5e0 <log_skip+0xc4>)
     520:	b084      	sub	sp, #16
     522:	f505 6083 	add.w	r0, r5, #1048	; 0x418
     526:	f000 fd69 	bl	ffc <nrf_atomic_flag_set>
     52a:	f205 4014 	addw	r0, r5, #1044	; 0x414
     52e:	f000 fd65 	bl	ffc <nrf_atomic_flag_set>
     532:	68ab      	ldr	r3, [r5, #8]
     534:	b2da      	uxtb	r2, r3
     536:	1cd1      	adds	r1, r2, #3
     538:	eb05 0081 	add.w	r0, r5, r1, lsl #2
     53c:	f815 1021 	ldrb.w	r1, [r5, r1, lsl #2]
     540:	074c      	lsls	r4, r1, #29
     542:	d510      	bpl.n	566 <log_skip+0x4a>
     544:	f001 0404 	and.w	r4, r1, #4
     548:	7801      	ldrb	r1, [r0, #0]
     54a:	f001 0103 	and.w	r1, r1, #3
     54e:	2901      	cmp	r1, #1
     550:	d038      	beq.n	5c4 <log_skip+0xa8>
     552:	2902      	cmp	r1, #2
     554:	f103 0602 	add.w	r6, r3, #2
     558:	f102 0103 	add.w	r1, r2, #3
     55c:	d026      	beq.n	5ac <log_skip+0x90>
     55e:	eb05 0081 	add.w	r0, r5, r1, lsl #2
     562:	2c00      	cmp	r4, #0
     564:	d1f0      	bne.n	548 <log_skip+0x2c>
     566:	eb05 0182 	add.w	r1, r5, r2, lsl #2
     56a:	1c5a      	adds	r2, r3, #1
     56c:	68c8      	ldr	r0, [r1, #12]
     56e:	9001      	str	r0, [sp, #4]
     570:	b2d2      	uxtb	r2, r2
     572:	eb05 0282 	add.w	r2, r5, r2, lsl #2
     576:	f000 0103 	and.w	r1, r0, #3
     57a:	2901      	cmp	r1, #1
     57c:	68d6      	ldr	r6, [r2, #12]
     57e:	f103 0402 	add.w	r4, r3, #2
     582:	d025      	beq.n	5d0 <log_skip+0xb4>
     584:	2902      	cmp	r1, #2
     586:	d10f      	bne.n	5a8 <log_skip+0x8c>
     588:	f8bd 3006 	ldrh.w	r3, [sp, #6]
     58c:	f3c3 1389 	ubfx	r3, r3, #6, #10
     590:	3303      	adds	r3, #3
     592:	0c36      	lsrs	r6, r6, #16
     594:	eb04 0493 	add.w	r4, r4, r3, lsr #2
     598:	4812      	ldr	r0, [pc, #72]	; (5e4 <log_skip+0xc8>)
     59a:	f000 fd3b 	bl	1014 <nrf_atomic_flag_clear_fetch>
     59e:	b100      	cbz	r0, 5a2 <log_skip+0x86>
     5a0:	60ac      	str	r4, [r5, #8]
     5a2:	4630      	mov	r0, r6
     5a4:	b004      	add	sp, #16
     5a6:	bd70      	pop	{r4, r5, r6, pc}
     5a8:	2600      	movs	r6, #0
     5aa:	e7f5      	b.n	598 <log_skip+0x7c>
     5ac:	8843      	ldrh	r3, [r0, #2]
     5ae:	eb06 1393 	add.w	r3, r6, r3, lsr #6
     5b2:	b2da      	uxtb	r2, r3
     5b4:	1cd1      	adds	r1, r2, #3
     5b6:	eb05 0081 	add.w	r0, r5, r1, lsl #2
     5ba:	f815 1021 	ldrb.w	r1, [r5, r1, lsl #2]
     5be:	f001 0404 	and.w	r4, r1, #4
     5c2:	e7ce      	b.n	562 <log_skip+0x46>
     5c4:	8802      	ldrh	r2, [r0, #0]
     5c6:	3302      	adds	r3, #2
     5c8:	f3c2 1283 	ubfx	r2, r2, #6, #4
     5cc:	4413      	add	r3, r2
     5ce:	e7f0      	b.n	5b2 <log_skip+0x96>
     5d0:	f8bd 3004 	ldrh.w	r3, [sp, #4]
     5d4:	f3c3 1383 	ubfx	r3, r3, #6, #4
     5d8:	0c36      	lsrs	r6, r6, #16
     5da:	441c      	add	r4, r3
     5dc:	e7dc      	b.n	598 <log_skip+0x7c>
     5de:	bf00      	nop
     5e0:	20000164 	.word	0x20000164
     5e4:	20000578 	.word	0x20000578

000005e8 <nrf_log_init>:
     5e8:	4b06      	ldr	r3, [pc, #24]	; (604 <nrf_log_init+0x1c>)
     5ea:	4807      	ldr	r0, [pc, #28]	; (608 <nrf_log_init+0x20>)
     5ec:	b510      	push	{r4, lr}
     5ee:	2200      	movs	r2, #0
     5f0:	701a      	strb	r2, [r3, #0]
     5f2:	f001 f8f1 	bl	17d8 <nrf_memobj_pool_init>
     5f6:	4604      	mov	r4, r0
     5f8:	b910      	cbnz	r0, 600 <nrf_log_init+0x18>
     5fa:	4804      	ldr	r0, [pc, #16]	; (60c <nrf_log_init+0x24>)
     5fc:	f001 f9d0 	bl	19a0 <nrf_ringbuf_init>
     600:	4620      	mov	r0, r4
     602:	bd10      	pop	{r4, pc}
     604:	20000164 	.word	0x20000164
     608:	000035d4 	.word	0x000035d4
     60c:	000032f0 	.word	0x000032f0

00000610 <nrf_log_module_name_get>:
     610:	b430      	push	{r4, r5}
     612:	b199      	cbz	r1, 63c <nrf_log_module_name_get+0x2c>
     614:	490d      	ldr	r1, [pc, #52]	; (64c <nrf_log_module_name_get+0x3c>)
     616:	4d0e      	ldr	r5, [pc, #56]	; (650 <nrf_log_module_name_get+0x40>)
     618:	1b49      	subs	r1, r1, r5
     61a:	08c9      	lsrs	r1, r1, #3
     61c:	d013      	beq.n	646 <nrf_log_module_name_get+0x36>
     61e:	4c0d      	ldr	r4, [pc, #52]	; (654 <nrf_log_module_name_get+0x44>)
     620:	2300      	movs	r3, #0
     622:	e002      	b.n	62a <nrf_log_module_name_get+0x1a>
     624:	3301      	adds	r3, #1
     626:	4299      	cmp	r1, r3
     628:	d00a      	beq.n	640 <nrf_log_module_name_get+0x30>
     62a:	f834 2023 	ldrh.w	r2, [r4, r3, lsl #2]
     62e:	4282      	cmp	r2, r0
     630:	d1f8      	bne.n	624 <nrf_log_module_name_get+0x14>
     632:	4618      	mov	r0, r3
     634:	f855 0030 	ldr.w	r0, [r5, r0, lsl #3]
     638:	bc30      	pop	{r4, r5}
     63a:	4770      	bx	lr
     63c:	4d04      	ldr	r5, [pc, #16]	; (650 <nrf_log_module_name_get+0x40>)
     63e:	e7f9      	b.n	634 <nrf_log_module_name_get+0x24>
     640:	2000      	movs	r0, #0
     642:	bc30      	pop	{r4, r5}
     644:	4770      	bx	lr
     646:	4608      	mov	r0, r1
     648:	e7f6      	b.n	638 <nrf_log_module_name_get+0x28>
     64a:	bf00      	nop
     64c:	000035c4 	.word	0x000035c4
     650:	0000359c 	.word	0x0000359c
     654:	2000002c 	.word	0x2000002c

00000658 <nrf_log_color_id_get>:
     658:	4b09      	ldr	r3, [pc, #36]	; (680 <nrf_log_color_id_get+0x28>)
     65a:	3901      	subs	r1, #1
     65c:	eb03 00c0 	add.w	r0, r3, r0, lsl #3
     660:	2903      	cmp	r1, #3
     662:	d80b      	bhi.n	67c <nrf_log_color_id_get+0x24>
     664:	e8df f001 	tbb	[pc, r1]
     668:	06080204 	.word	0x06080204
     66c:	2004      	movs	r0, #4
     66e:	4770      	bx	lr
     670:	2002      	movs	r0, #2
     672:	4770      	bx	lr
     674:	7940      	ldrb	r0, [r0, #5]
     676:	4770      	bx	lr
     678:	7900      	ldrb	r0, [r0, #4]
     67a:	4770      	bx	lr
     67c:	2000      	movs	r0, #0
     67e:	4770      	bx	lr
     680:	0000359c 	.word	0x0000359c

00000684 <nrf_log_frontend_dequeue>:
     684:	e92d 43f0 	stmdb	sp!, {r4, r5, r6, r7, r8, r9, lr}
     688:	4c8a      	ldr	r4, [pc, #552]	; (8b4 <nrf_log_frontend_dequeue+0x230>)
     68a:	e9d4 2301 	ldrd	r2, r3, [r4, #4]
     68e:	429a      	cmp	r2, r3
     690:	b085      	sub	sp, #20
     692:	d060      	beq.n	756 <nrf_log_frontend_dequeue+0xd2>
     694:	2300      	movs	r3, #0
     696:	f8c4 3418 	str.w	r3, [r4, #1048]	; 0x418
     69a:	f3bf 8f4f 	dsb	sy
     69e:	68a5      	ldr	r5, [r4, #8]
     6a0:	b2ea      	uxtb	r2, r5
     6a2:	1cd3      	adds	r3, r2, #3
     6a4:	eb04 0183 	add.w	r1, r4, r3, lsl #2
     6a8:	f814 3023 	ldrb.w	r3, [r4, r3, lsl #2]
     6ac:	0758      	lsls	r0, r3, #29
     6ae:	d518      	bpl.n	6e2 <nrf_log_frontend_dequeue+0x5e>
     6b0:	6866      	ldr	r6, [r4, #4]
     6b2:	780b      	ldrb	r3, [r1, #0]
     6b4:	f003 0303 	and.w	r3, r3, #3
     6b8:	2b01      	cmp	r3, #1
     6ba:	d042      	beq.n	742 <nrf_log_frontend_dequeue+0xbe>
     6bc:	2b02      	cmp	r3, #2
     6be:	d103      	bne.n	6c8 <nrf_log_frontend_dequeue+0x44>
     6c0:	884b      	ldrh	r3, [r1, #2]
     6c2:	3502      	adds	r5, #2
     6c4:	eb05 1593 	add.w	r5, r5, r3, lsr #6
     6c8:	b2ea      	uxtb	r2, r5
     6ca:	f8d4 0418 	ldr.w	r0, [r4, #1048]	; 0x418
     6ce:	1cd3      	adds	r3, r2, #3
     6d0:	eb04 0183 	add.w	r1, r4, r3, lsl #2
     6d4:	b928      	cbnz	r0, 6e2 <nrf_log_frontend_dequeue+0x5e>
     6d6:	42ae      	cmp	r6, r5
     6d8:	d939      	bls.n	74e <nrf_log_frontend_dequeue+0xca>
     6da:	f814 3023 	ldrb.w	r3, [r4, r3, lsl #2]
     6de:	075b      	lsls	r3, r3, #29
     6e0:	d4e7      	bmi.n	6b2 <nrf_log_frontend_dequeue+0x2e>
     6e2:	eb04 0282 	add.w	r2, r4, r2, lsl #2
     6e6:	1c6b      	adds	r3, r5, #1
     6e8:	b2db      	uxtb	r3, r3
     6ea:	68d2      	ldr	r2, [r2, #12]
     6ec:	eb04 0383 	add.w	r3, r4, r3, lsl #2
     6f0:	f002 0103 	and.w	r1, r2, #3
     6f4:	68db      	ldr	r3, [r3, #12]
     6f6:	2902      	cmp	r1, #2
     6f8:	e9cd 2301 	strd	r2, r3, [sp, #4]
     6fc:	f105 0602 	add.w	r6, r5, #2
     700:	d02d      	beq.n	75e <nrf_log_frontend_dequeue+0xda>
     702:	2901      	cmp	r1, #1
     704:	f000 8088 	beq.w	818 <nrf_log_frontend_dequeue+0x194>
     708:	f8d4 5410 	ldr.w	r5, [r4, #1040]	; 0x410
     70c:	b13d      	cbz	r5, 71e <nrf_log_frontend_dequeue+0x9a>
     70e:	682b      	ldr	r3, [r5, #0]
     710:	4628      	mov	r0, r5
     712:	689b      	ldr	r3, [r3, #8]
     714:	4798      	blx	r3
     716:	68eb      	ldr	r3, [r5, #12]
     718:	681d      	ldr	r5, [r3, #0]
     71a:	2d00      	cmp	r5, #0
     71c:	d1f7      	bne.n	70e <nrf_log_frontend_dequeue+0x8a>
     71e:	4866      	ldr	r0, [pc, #408]	; (8b8 <nrf_log_frontend_dequeue+0x234>)
     720:	4b66      	ldr	r3, [pc, #408]	; (8bc <nrf_log_frontend_dequeue+0x238>)
     722:	4967      	ldr	r1, [pc, #412]	; (8c0 <nrf_log_frontend_dequeue+0x23c>)
     724:	1ac0      	subs	r0, r0, r3
     726:	08c0      	lsrs	r0, r0, #3
     728:	0400      	lsls	r0, r0, #16
     72a:	f040 0002 	orr.w	r0, r0, #2
     72e:	f000 f8cd 	bl	8cc <nrf_log_frontend_std_0>
     732:	e9d4 3001 	ldrd	r3, r0, [r4, #4]
     736:	1ac0      	subs	r0, r0, r3
     738:	bf18      	it	ne
     73a:	2001      	movne	r0, #1
     73c:	b005      	add	sp, #20
     73e:	e8bd 83f0 	ldmia.w	sp!, {r4, r5, r6, r7, r8, r9, pc}
     742:	880b      	ldrh	r3, [r1, #0]
     744:	3502      	adds	r5, #2
     746:	f3c3 1383 	ubfx	r3, r3, #6, #4
     74a:	441d      	add	r5, r3
     74c:	e7bc      	b.n	6c8 <nrf_log_frontend_dequeue+0x44>
     74e:	60a6      	str	r6, [r4, #8]
     750:	b005      	add	sp, #20
     752:	e8bd 83f0 	ldmia.w	sp!, {r4, r5, r6, r7, r8, r9, pc}
     756:	2000      	movs	r0, #0
     758:	b005      	add	sp, #20
     75a:	e8bd 83f0 	ldmia.w	sp!, {r4, r5, r6, r7, r8, r9, pc}
     75e:	f8bd 3006 	ldrh.w	r3, [sp, #6]
     762:	4858      	ldr	r0, [pc, #352]	; (8c4 <nrf_log_frontend_dequeue+0x240>)
     764:	f3c3 1889 	ubfx	r8, r3, #6, #10
     768:	4645      	mov	r5, r8
     76a:	2d50      	cmp	r5, #80	; 0x50
     76c:	bf28      	it	cs
     76e:	2550      	movcs	r5, #80	; 0x50
     770:	f365 138f 	bfi	r3, r5, #6, #10
     774:	f105 0108 	add.w	r1, r5, #8
     778:	f8ad 3006 	strh.w	r3, [sp, #6]
     77c:	f001 f82e 	bl	17dc <nrf_memobj_alloc>
     780:	4607      	mov	r7, r0
     782:	2800      	cmp	r0, #0
     784:	d0c0      	beq.n	708 <nrf_log_frontend_dequeue+0x84>
     786:	f001 f873 	bl	1870 <nrf_memobj_get>
     78a:	2300      	movs	r3, #0
     78c:	2208      	movs	r2, #8
     78e:	a901      	add	r1, sp, #4
     790:	4638      	mov	r0, r7
     792:	f001 f89d 	bl	18d0 <nrf_memobj_write>
     796:	43f3      	mvns	r3, r6
     798:	b2db      	uxtb	r3, r3
     79a:	3301      	adds	r3, #1
     79c:	ebb5 0f83 	cmp.w	r5, r3, lsl #2
     7a0:	ea4f 0983 	mov.w	r9, r3, lsl #2
     7a4:	d97a      	bls.n	89c <nrf_log_frontend_dequeue+0x218>
     7a6:	b2f1      	uxtb	r1, r6
     7a8:	eba5 0509 	sub.w	r5, r5, r9
     7ac:	3103      	adds	r1, #3
     7ae:	eb04 0181 	add.w	r1, r4, r1, lsl #2
     7b2:	464a      	mov	r2, r9
     7b4:	4638      	mov	r0, r7
     7b6:	2308      	movs	r3, #8
     7b8:	b2ed      	uxtb	r5, r5
     7ba:	f001 f889 	bl	18d0 <nrf_memobj_write>
     7be:	4942      	ldr	r1, [pc, #264]	; (8c8 <nrf_log_frontend_dequeue+0x244>)
     7c0:	f109 0308 	add.w	r3, r9, #8
     7c4:	462a      	mov	r2, r5
     7c6:	4638      	mov	r0, r7
     7c8:	f001 f882 	bl	18d0 <nrf_memobj_write>
     7cc:	f108 0803 	add.w	r8, r8, #3
     7d0:	eb06 0698 	add.w	r6, r6, r8, lsr #2
     7d4:	f8d4 3418 	ldr.w	r3, [r4, #1048]	; 0x418
     7d8:	f8d4 5410 	ldr.w	r5, [r4, #1040]	; 0x410
     7dc:	2b00      	cmp	r3, #0
     7de:	d159      	bne.n	894 <nrf_log_frontend_dequeue+0x210>
     7e0:	b165      	cbz	r5, 7fc <nrf_log_frontend_dequeue+0x178>
     7e2:	68eb      	ldr	r3, [r5, #12]
     7e4:	795a      	ldrb	r2, [r3, #5]
     7e6:	4628      	mov	r0, r5
     7e8:	4639      	mov	r1, r7
     7ea:	2a00      	cmp	r2, #0
     7ec:	d060      	beq.n	8b0 <nrf_log_frontend_dequeue+0x22c>
     7ee:	682b      	ldr	r3, [r5, #0]
     7f0:	681b      	ldr	r3, [r3, #0]
     7f2:	4798      	blx	r3
     7f4:	68eb      	ldr	r3, [r5, #12]
     7f6:	681d      	ldr	r5, [r3, #0]
     7f8:	2d00      	cmp	r5, #0
     7fa:	d1f2      	bne.n	7e2 <nrf_log_frontend_dequeue+0x15e>
     7fc:	4638      	mov	r0, r7
     7fe:	f001 f83b 	bl	1878 <nrf_memobj_put>
     802:	2000      	movs	r0, #0
     804:	f000 fbc6 	bl	f94 <app_util_critical_region_enter>
     808:	f8d4 3418 	ldr.w	r3, [r4, #1048]	; 0x418
     80c:	b903      	cbnz	r3, 810 <nrf_log_frontend_dequeue+0x18c>
     80e:	60a6      	str	r6, [r4, #8]
     810:	2000      	movs	r0, #0
     812:	f000 fbc7 	bl	fa4 <app_util_critical_region_exit>
     816:	e78c      	b.n	732 <nrf_log_frontend_dequeue+0xae>
     818:	f8bd 2004 	ldrh.w	r2, [sp, #4]
     81c:	4829      	ldr	r0, [pc, #164]	; (8c4 <nrf_log_frontend_dequeue+0x240>)
     81e:	f3c2 1383 	ubfx	r3, r2, #6, #4
     822:	2b06      	cmp	r3, #6
     824:	bf28      	it	cs
     826:	2306      	movcs	r3, #6
     828:	f363 1289 	bfi	r2, r3, #6, #4
     82c:	3302      	adds	r3, #2
     82e:	f003 010f 	and.w	r1, r3, #15
     832:	0089      	lsls	r1, r1, #2
     834:	f8ad 2004 	strh.w	r2, [sp, #4]
     838:	f000 ffd0 	bl	17dc <nrf_memobj_alloc>
     83c:	4607      	mov	r7, r0
     83e:	2800      	cmp	r0, #0
     840:	f43f af62 	beq.w	708 <nrf_log_frontend_dequeue+0x84>
     844:	f001 f814 	bl	1870 <nrf_memobj_get>
     848:	2300      	movs	r3, #0
     84a:	2208      	movs	r2, #8
     84c:	a901      	add	r1, sp, #4
     84e:	4638      	mov	r0, r7
     850:	f001 f83e 	bl	18d0 <nrf_memobj_write>
     854:	f8bd 3004 	ldrh.w	r3, [sp, #4]
     858:	f413 7f70 	tst.w	r3, #960	; 0x3c0
     85c:	d0ba      	beq.n	7d4 <nrf_log_frontend_dequeue+0x150>
     85e:	f06f 0901 	mvn.w	r9, #1
     862:	f04f 0808 	mov.w	r8, #8
     866:	eba9 0905 	sub.w	r9, r9, r5
     86a:	b2f1      	uxtb	r1, r6
     86c:	3103      	adds	r1, #3
     86e:	4643      	mov	r3, r8
     870:	2204      	movs	r2, #4
     872:	eb04 0181 	add.w	r1, r4, r1, lsl #2
     876:	4638      	mov	r0, r7
     878:	f001 f82a 	bl	18d0 <nrf_memobj_write>
     87c:	f8bd 3004 	ldrh.w	r3, [sp, #4]
     880:	3601      	adds	r6, #1
     882:	f3c3 1383 	ubfx	r3, r3, #6, #4
     886:	eb09 0206 	add.w	r2, r9, r6
     88a:	4293      	cmp	r3, r2
     88c:	f108 0804 	add.w	r8, r8, #4
     890:	d8eb      	bhi.n	86a <nrf_log_frontend_dequeue+0x1e6>
     892:	e79f      	b.n	7d4 <nrf_log_frontend_dequeue+0x150>
     894:	4638      	mov	r0, r7
     896:	f000 ffef 	bl	1878 <nrf_memobj_put>
     89a:	e74a      	b.n	732 <nrf_log_frontend_dequeue+0xae>
     89c:	b2f1      	uxtb	r1, r6
     89e:	3103      	adds	r1, #3
     8a0:	462a      	mov	r2, r5
     8a2:	eb04 0181 	add.w	r1, r4, r1, lsl #2
     8a6:	2308      	movs	r3, #8
     8a8:	4638      	mov	r0, r7
     8aa:	f001 f811 	bl	18d0 <nrf_memobj_write>
     8ae:	e78d      	b.n	7cc <nrf_log_frontend_dequeue+0x148>
     8b0:	681d      	ldr	r5, [r3, #0]
     8b2:	e795      	b.n	7e0 <nrf_log_frontend_dequeue+0x15c>
     8b4:	20000164 	.word	0x20000164
     8b8:	000035bc 	.word	0x000035bc
     8bc:	0000359c 	.word	0x0000359c
     8c0:	000032d8 	.word	0x000032d8
     8c4:	000035d4 	.word	0x000035d4
     8c8:	20000170 	.word	0x20000170

000008cc <nrf_log_frontend_std_0>:
     8cc:	e92d 41f0 	stmdb	sp!, {r4, r5, r6, r7, r8, lr}
     8d0:	4c28      	ldr	r4, [pc, #160]	; (974 <nrf_log_frontend_std_0+0xa8>)
     8d2:	4606      	mov	r6, r0
     8d4:	2000      	movs	r0, #0
     8d6:	4688      	mov	r8, r1
     8d8:	f000 fb5c 	bl	f94 <app_util_critical_region_enter>
     8dc:	e9d4 7301 	ldrd	r7, r3, [r4, #4]
     8e0:	f503 7380 	add.w	r3, r3, #256	; 0x100
     8e4:	1bdb      	subs	r3, r3, r7
     8e6:	2b01      	cmp	r3, #1
     8e8:	d842      	bhi.n	970 <nrf_log_frontend_std_0+0xa4>
     8ea:	f204 451c 	addw	r5, r4, #1052	; 0x41c
     8ee:	2101      	movs	r1, #1
     8f0:	4628      	mov	r0, r5
     8f2:	f000 fb6b 	bl	fcc <nrf_atomic_u32_add>
     8f6:	f7ff fe11 	bl	51c <log_skip>
     8fa:	4601      	mov	r1, r0
     8fc:	4628      	mov	r0, r5
     8fe:	f000 fb65 	bl	fcc <nrf_atomic_u32_add>
     902:	e9d4 2301 	ldrd	r2, r3, [r4, #4]
     906:	f503 7380 	add.w	r3, r3, #256	; 0x100
     90a:	1a9b      	subs	r3, r3, r2
     90c:	2b01      	cmp	r3, #1
     90e:	d9ee      	bls.n	8ee <nrf_log_frontend_std_0+0x22>
     910:	b2d3      	uxtb	r3, r2
     912:	3303      	adds	r3, #3
     914:	3202      	adds	r2, #2
     916:	2105      	movs	r1, #5
     918:	2000      	movs	r0, #0
     91a:	f844 1023 	str.w	r1, [r4, r3, lsl #2]
     91e:	6062      	str	r2, [r4, #4]
     920:	f000 fb40 	bl	fa4 <app_util_critical_region_exit>
     924:	2100      	movs	r1, #0
     926:	4814      	ldr	r0, [pc, #80]	; (978 <nrf_log_frontend_std_0+0xac>)
     928:	f000 fb46 	bl	fb8 <nrf_atomic_u32_fetch_store>
     92c:	f380 0210 	usat	r2, #16, r0
     930:	1c79      	adds	r1, r7, #1
     932:	00f3      	lsls	r3, r6, #3
     934:	f003 0338 	and.w	r3, r3, #56	; 0x38
     938:	b2c9      	uxtb	r1, r1
     93a:	b2ff      	uxtb	r7, r7
     93c:	0412      	lsls	r2, r2, #16
     93e:	f043 0301 	orr.w	r3, r3, #1
     942:	eb04 0181 	add.w	r1, r4, r1, lsl #2
     946:	3703      	adds	r7, #3
     948:	ea43 2388 	orr.w	r3, r3, r8, lsl #10
     94c:	ea42 4216 	orr.w	r2, r2, r6, lsr #16
     950:	60ca      	str	r2, [r1, #12]
     952:	f844 3027 	str.w	r3, [r4, r7, lsl #2]
     956:	7823      	ldrb	r3, [r4, #0]
     958:	b90b      	cbnz	r3, 95e <nrf_log_frontend_std_0+0x92>
     95a:	e8bd 81f0 	ldmia.w	sp!, {r4, r5, r6, r7, r8, pc}
     95e:	f7ff fe91 	bl	684 <nrf_log_frontend_dequeue>
     962:	2800      	cmp	r0, #0
     964:	d0f9      	beq.n	95a <nrf_log_frontend_std_0+0x8e>
     966:	f7ff fe8d 	bl	684 <nrf_log_frontend_dequeue>
     96a:	2800      	cmp	r0, #0
     96c:	d1f7      	bne.n	95e <nrf_log_frontend_std_0+0x92>
     96e:	e7f4      	b.n	95a <nrf_log_frontend_std_0+0x8e>
     970:	463a      	mov	r2, r7
     972:	e7cd      	b.n	910 <nrf_log_frontend_std_0+0x44>
     974:	20000164 	.word	0x20000164
     978:	20000580 	.word	0x20000580

0000097c <nrf_log_frontend_std_1>:
     97c:	e92d 43f8 	stmdb	sp!, {r3, r4, r5, r6, r7, r8, r9, lr}
     980:	f8df 90b8 	ldr.w	r9, [pc, #184]	; a3c <nrf_log_frontend_std_1+0xc0>
     984:	4605      	mov	r5, r0
     986:	2000      	movs	r0, #0
     988:	460f      	mov	r7, r1
     98a:	4690      	mov	r8, r2
     98c:	f000 fb02 	bl	f94 <app_util_critical_region_enter>
     990:	e9d9 6301 	ldrd	r6, r3, [r9, #4]
     994:	f503 7380 	add.w	r3, r3, #256	; 0x100
     998:	1b9b      	subs	r3, r3, r6
     99a:	2b02      	cmp	r3, #2
     99c:	d84a      	bhi.n	a34 <nrf_log_frontend_std_1+0xb8>
     99e:	f209 441c 	addw	r4, r9, #1052	; 0x41c
     9a2:	2101      	movs	r1, #1
     9a4:	4620      	mov	r0, r4
     9a6:	f000 fb11 	bl	fcc <nrf_atomic_u32_add>
     9aa:	f7ff fdb7 	bl	51c <log_skip>
     9ae:	4601      	mov	r1, r0
     9b0:	4620      	mov	r0, r4
     9b2:	f000 fb0b 	bl	fcc <nrf_atomic_u32_add>
     9b6:	e9d9 2301 	ldrd	r2, r3, [r9, #4]
     9ba:	f503 7380 	add.w	r3, r3, #256	; 0x100
     9be:	1a9b      	subs	r3, r3, r2
     9c0:	2b02      	cmp	r3, #2
     9c2:	d9ee      	bls.n	9a2 <nrf_log_frontend_std_1+0x26>
     9c4:	b2d3      	uxtb	r3, r2
     9c6:	3303      	adds	r3, #3
     9c8:	3203      	adds	r2, #3
     9ca:	2145      	movs	r1, #69	; 0x45
     9cc:	2000      	movs	r0, #0
     9ce:	f849 1023 	str.w	r1, [r9, r3, lsl #2]
     9d2:	f8c9 2004 	str.w	r2, [r9, #4]
     9d6:	f000 fae5 	bl	fa4 <app_util_critical_region_exit>
     9da:	1cb3      	adds	r3, r6, #2
     9dc:	b2db      	uxtb	r3, r3
     9de:	eb09 0383 	add.w	r3, r9, r3, lsl #2
     9e2:	2100      	movs	r1, #0
     9e4:	f8c3 800c 	str.w	r8, [r3, #12]
     9e8:	4813      	ldr	r0, [pc, #76]	; (a38 <nrf_log_frontend_std_1+0xbc>)
     9ea:	f000 fae5 	bl	fb8 <nrf_atomic_u32_fetch_store>
     9ee:	f380 0210 	usat	r2, #16, r0
     9f2:	1c71      	adds	r1, r6, #1
     9f4:	00eb      	lsls	r3, r5, #3
     9f6:	f003 0338 	and.w	r3, r3, #56	; 0x38
     9fa:	b2c9      	uxtb	r1, r1
     9fc:	b2f6      	uxtb	r6, r6
     9fe:	0412      	lsls	r2, r2, #16
     a00:	f043 0341 	orr.w	r3, r3, #65	; 0x41
     a04:	eb09 0181 	add.w	r1, r9, r1, lsl #2
     a08:	3603      	adds	r6, #3
     a0a:	ea43 2387 	orr.w	r3, r3, r7, lsl #10
     a0e:	ea42 4215 	orr.w	r2, r2, r5, lsr #16
     a12:	60ca      	str	r2, [r1, #12]
     a14:	f849 3026 	str.w	r3, [r9, r6, lsl #2]
     a18:	f899 3000 	ldrb.w	r3, [r9]
     a1c:	b90b      	cbnz	r3, a22 <nrf_log_frontend_std_1+0xa6>
     a1e:	e8bd 83f8 	ldmia.w	sp!, {r3, r4, r5, r6, r7, r8, r9, pc}
     a22:	f7ff fe2f 	bl	684 <nrf_log_frontend_dequeue>
     a26:	2800      	cmp	r0, #0
     a28:	d0f9      	beq.n	a1e <nrf_log_frontend_std_1+0xa2>
     a2a:	f7ff fe2b 	bl	684 <nrf_log_frontend_dequeue>
     a2e:	2800      	cmp	r0, #0
     a30:	d1f7      	bne.n	a22 <nrf_log_frontend_std_1+0xa6>
     a32:	e7f4      	b.n	a1e <nrf_log_frontend_std_1+0xa2>
     a34:	4632      	mov	r2, r6
     a36:	e7c5      	b.n	9c4 <nrf_log_frontend_std_1+0x48>
     a38:	20000580 	.word	0x20000580
     a3c:	20000164 	.word	0x20000164

00000a40 <nrf_log_frontend_std_6>:
     a40:	e92d 47f0 	stmdb	sp!, {r4, r5, r6, r7, r8, r9, sl, lr}
     a44:	f8df a100 	ldr.w	sl, [pc, #256]	; b48 <nrf_log_frontend_std_6+0x108>
     a48:	4605      	mov	r5, r0
     a4a:	2000      	movs	r0, #0
     a4c:	4698      	mov	r8, r3
     a4e:	460f      	mov	r7, r1
     a50:	4691      	mov	r9, r2
     a52:	f000 fa9f 	bl	f94 <app_util_critical_region_enter>
     a56:	f8da 3008 	ldr.w	r3, [sl, #8]
     a5a:	f8da 6004 	ldr.w	r6, [sl, #4]
     a5e:	f503 7380 	add.w	r3, r3, #256	; 0x100
     a62:	1b9b      	subs	r3, r3, r6
     a64:	2b07      	cmp	r3, #7
     a66:	d86b      	bhi.n	b40 <nrf_log_frontend_std_6+0x100>
     a68:	f20a 441c 	addw	r4, sl, #1052	; 0x41c
     a6c:	2101      	movs	r1, #1
     a6e:	4620      	mov	r0, r4
     a70:	f000 faac 	bl	fcc <nrf_atomic_u32_add>
     a74:	f7ff fd52 	bl	51c <log_skip>
     a78:	4601      	mov	r1, r0
     a7a:	4620      	mov	r0, r4
     a7c:	f000 faa6 	bl	fcc <nrf_atomic_u32_add>
     a80:	e9da 2301 	ldrd	r2, r3, [sl, #4]
     a84:	f503 7380 	add.w	r3, r3, #256	; 0x100
     a88:	1a9b      	subs	r3, r3, r2
     a8a:	2b07      	cmp	r3, #7
     a8c:	d9ee      	bls.n	a6c <nrf_log_frontend_std_6+0x2c>
     a8e:	b2d3      	uxtb	r3, r2
     a90:	3303      	adds	r3, #3
     a92:	3208      	adds	r2, #8
     a94:	f240 1185 	movw	r1, #389	; 0x185
     a98:	2000      	movs	r0, #0
     a9a:	f84a 1023 	str.w	r1, [sl, r3, lsl #2]
     a9e:	f8ca 2004 	str.w	r2, [sl, #4]
     aa2:	f000 fa7f 	bl	fa4 <app_util_critical_region_exit>
     aa6:	1cb3      	adds	r3, r6, #2
     aa8:	b2db      	uxtb	r3, r3
     aaa:	eb0a 0383 	add.w	r3, sl, r3, lsl #2
     aae:	9a08      	ldr	r2, [sp, #32]
     ab0:	f8c3 900c 	str.w	r9, [r3, #12]
     ab4:	1cf3      	adds	r3, r6, #3
     ab6:	b2db      	uxtb	r3, r3
     ab8:	eb0a 0383 	add.w	r3, sl, r3, lsl #2
     abc:	4821      	ldr	r0, [pc, #132]	; (b44 <nrf_log_frontend_std_6+0x104>)
     abe:	f8c3 800c 	str.w	r8, [r3, #12]
     ac2:	1d33      	adds	r3, r6, #4
     ac4:	b2db      	uxtb	r3, r3
     ac6:	eb0a 0383 	add.w	r3, sl, r3, lsl #2
     aca:	2100      	movs	r1, #0
     acc:	60da      	str	r2, [r3, #12]
     ace:	1d73      	adds	r3, r6, #5
     ad0:	b2db      	uxtb	r3, r3
     ad2:	eb0a 0383 	add.w	r3, sl, r3, lsl #2
     ad6:	9a09      	ldr	r2, [sp, #36]	; 0x24
     ad8:	60da      	str	r2, [r3, #12]
     ada:	1db3      	adds	r3, r6, #6
     adc:	b2db      	uxtb	r3, r3
     ade:	eb0a 0383 	add.w	r3, sl, r3, lsl #2
     ae2:	9a0a      	ldr	r2, [sp, #40]	; 0x28
     ae4:	60da      	str	r2, [r3, #12]
     ae6:	1df3      	adds	r3, r6, #7
     ae8:	b2db      	uxtb	r3, r3
     aea:	eb0a 0383 	add.w	r3, sl, r3, lsl #2
     aee:	9a0b      	ldr	r2, [sp, #44]	; 0x2c
     af0:	60da      	str	r2, [r3, #12]
     af2:	f000 fa61 	bl	fb8 <nrf_atomic_u32_fetch_store>
     af6:	f380 0310 	usat	r3, #16, r0
     afa:	041b      	lsls	r3, r3, #16
     afc:	ea43 4315 	orr.w	r3, r3, r5, lsr #16
     b00:	00ed      	lsls	r5, r5, #3
     b02:	1c72      	adds	r2, r6, #1
     b04:	f005 0538 	and.w	r5, r5, #56	; 0x38
     b08:	f445 75c0 	orr.w	r5, r5, #384	; 0x180
     b0c:	b2d2      	uxtb	r2, r2
     b0e:	b2f6      	uxtb	r6, r6
     b10:	f045 0501 	orr.w	r5, r5, #1
     b14:	eb0a 0282 	add.w	r2, sl, r2, lsl #2
     b18:	3603      	adds	r6, #3
     b1a:	ea45 2587 	orr.w	r5, r5, r7, lsl #10
     b1e:	60d3      	str	r3, [r2, #12]
     b20:	f84a 5026 	str.w	r5, [sl, r6, lsl #2]
     b24:	f89a 3000 	ldrb.w	r3, [sl]
     b28:	b90b      	cbnz	r3, b2e <nrf_log_frontend_std_6+0xee>
     b2a:	e8bd 87f0 	ldmia.w	sp!, {r4, r5, r6, r7, r8, r9, sl, pc}
     b2e:	f7ff fda9 	bl	684 <nrf_log_frontend_dequeue>
     b32:	2800      	cmp	r0, #0
     b34:	d0f9      	beq.n	b2a <nrf_log_frontend_std_6+0xea>
     b36:	f7ff fda5 	bl	684 <nrf_log_frontend_dequeue>
     b3a:	2800      	cmp	r0, #0
     b3c:	d1f7      	bne.n	b2e <nrf_log_frontend_std_6+0xee>
     b3e:	e7f4      	b.n	b2a <nrf_log_frontend_std_6+0xea>
     b40:	4632      	mov	r2, r6
     b42:	e7a4      	b.n	a8e <nrf_log_frontend_std_6+0x4e>
     b44:	20000580 	.word	0x20000580
     b48:	20000164 	.word	0x20000164

00000b4c <nrf_log_backend_add>:
     b4c:	b430      	push	{r4, r5}
     b4e:	4d16      	ldr	r5, [pc, #88]	; (ba8 <nrf_log_backend_add+0x5c>)
     b50:	f8d5 4410 	ldr.w	r4, [r5, #1040]	; 0x410
     b54:	2100      	movs	r1, #0
     b56:	b17c      	cbz	r4, b78 <nrf_log_backend_add+0x2c>
     b58:	4623      	mov	r3, r4
     b5a:	e001      	b.n	b60 <nrf_log_backend_add+0x14>
     b5c:	681b      	ldr	r3, [r3, #0]
     b5e:	b15b      	cbz	r3, b78 <nrf_log_backend_add+0x2c>
     b60:	68db      	ldr	r3, [r3, #12]
     b62:	791a      	ldrb	r2, [r3, #4]
     b64:	428a      	cmp	r2, r1
     b66:	d1f9      	bne.n	b5c <nrf_log_backend_add+0x10>
     b68:	3101      	adds	r1, #1
     b6a:	290a      	cmp	r1, #10
     b6c:	d1f3      	bne.n	b56 <nrf_log_backend_add+0xa>
     b6e:	f04f 31ff 	mov.w	r1, #4294967295	; 0xffffffff
     b72:	4608      	mov	r0, r1
     b74:	bc30      	pop	{r4, r5}
     b76:	4770      	bx	lr
     b78:	68c3      	ldr	r3, [r0, #12]
     b7a:	7119      	strb	r1, [r3, #4]
     b7c:	f8d5 3410 	ldr.w	r3, [r5, #1040]	; 0x410
     b80:	b153      	cbz	r3, b98 <nrf_log_backend_add+0x4c>
     b82:	68da      	ldr	r2, [r3, #12]
     b84:	68c3      	ldr	r3, [r0, #12]
     b86:	6812      	ldr	r2, [r2, #0]
     b88:	601a      	str	r2, [r3, #0]
     b8a:	f8d5 3410 	ldr.w	r3, [r5, #1040]	; 0x410
     b8e:	68db      	ldr	r3, [r3, #12]
     b90:	6018      	str	r0, [r3, #0]
     b92:	bc30      	pop	{r4, r5}
     b94:	4608      	mov	r0, r1
     b96:	4770      	bx	lr
     b98:	f8c5 0410 	str.w	r0, [r5, #1040]	; 0x410
     b9c:	68c2      	ldr	r2, [r0, #12]
     b9e:	6013      	str	r3, [r2, #0]
     ba0:	4608      	mov	r0, r1
     ba2:	bc30      	pop	{r4, r5}
     ba4:	4770      	bx	lr
     ba6:	bf00      	nop
     ba8:	20000164 	.word	0x20000164

00000bac <prefix_process.constprop.0>:
     bac:	b530      	push	{r4, r5, lr}
     bae:	88c3      	ldrh	r3, [r0, #6]
     bb0:	b085      	sub	sp, #20
     bb2:	4604      	mov	r4, r0
     bb4:	460d      	mov	r5, r1
     bb6:	bb23      	cbnz	r3, c02 <prefix_process.constprop.0+0x56>
     bb8:	7a23      	ldrb	r3, [r4, #8]
     bba:	2b05      	cmp	r3, #5
     bbc:	d01f      	beq.n	bfe <prefix_process.constprop.0+0x52>
     bbe:	7a62      	ldrb	r2, [r4, #9]
     bc0:	b982      	cbnz	r2, be4 <prefix_process.constprop.0+0x38>
     bc2:	4a14      	ldr	r2, [pc, #80]	; (c14 <prefix_process.constprop.0+0x68>)
     bc4:	88a0      	ldrh	r0, [r4, #4]
     bc6:	f852 2023 	ldr.w	r2, [r2, r3, lsl #2]
     bca:	9203      	str	r2, [sp, #12]
     bcc:	2100      	movs	r1, #0
     bce:	f7ff fd1f 	bl	610 <nrf_log_module_name_get>
     bd2:	9a03      	ldr	r2, [sp, #12]
     bd4:	4910      	ldr	r1, [pc, #64]	; (c18 <prefix_process.constprop.0+0x6c>)
     bd6:	4603      	mov	r3, r0
     bd8:	4628      	mov	r0, r5
     bda:	b005      	add	sp, #20
     bdc:	e8bd 4030 	ldmia.w	sp!, {r4, r5, lr}
     be0:	f000 ba8a 	b.w	10f8 <nrf_fprintf>
     be4:	4619      	mov	r1, r3
     be6:	88a0      	ldrh	r0, [r4, #4]
     be8:	f7ff fd36 	bl	658 <nrf_log_color_id_get>
     bec:	4b0b      	ldr	r3, [pc, #44]	; (c1c <prefix_process.constprop.0+0x70>)
     bee:	490c      	ldr	r1, [pc, #48]	; (c20 <prefix_process.constprop.0+0x74>)
     bf0:	f853 2020 	ldr.w	r2, [r3, r0, lsl #2]
     bf4:	4628      	mov	r0, r5
     bf6:	f000 fa7f 	bl	10f8 <nrf_fprintf>
     bfa:	7a23      	ldrb	r3, [r4, #8]
     bfc:	e7e1      	b.n	bc2 <prefix_process.constprop.0+0x16>
     bfe:	b005      	add	sp, #20
     c00:	bd30      	pop	{r4, r5, pc}
     c02:	4908      	ldr	r1, [pc, #32]	; (c24 <prefix_process.constprop.0+0x78>)
     c04:	9100      	str	r1, [sp, #0]
     c06:	4a08      	ldr	r2, [pc, #32]	; (c28 <prefix_process.constprop.0+0x7c>)
     c08:	4908      	ldr	r1, [pc, #32]	; (c2c <prefix_process.constprop.0+0x80>)
     c0a:	4628      	mov	r0, r5
     c0c:	f000 fa74 	bl	10f8 <nrf_fprintf>
     c10:	e7d2      	b.n	bb8 <prefix_process.constprop.0+0xc>
     c12:	bf00      	nop
     c14:	000033c8 	.word	0x000033c8
     c18:	00003328 	.word	0x00003328
     c1c:	000033a4 	.word	0x000033a4
     c20:	00003324 	.word	0x00003324
     c24:	0000331c 	.word	0x0000331c
     c28:	000032fc 	.word	0x000032fc
     c2c:	00003304 	.word	0x00003304

00000c30 <nrf_log_std_entry_process>:
     c30:	e92d 43f0 	stmdb	sp!, {r4, r5, r6, r7, r8, r9, lr}
     c34:	b085      	sub	sp, #20
     c36:	461d      	mov	r5, r3
     c38:	9c0c      	ldr	r4, [sp, #48]	; 0x30
     c3a:	2300      	movs	r3, #0
     c3c:	f894 900c 	ldrb.w	r9, [r4, #12]
     c40:	7323      	strb	r3, [r4, #12]
     c42:	4680      	mov	r8, r0
     c44:	460e      	mov	r6, r1
     c46:	4617      	mov	r7, r2
     c48:	4621      	mov	r1, r4
     c4a:	4628      	mov	r0, r5
     c4c:	f7ff ffae 	bl	bac <prefix_process.constprop.0>
     c50:	2f06      	cmp	r7, #6
     c52:	d809      	bhi.n	c68 <nrf_log_std_entry_process+0x38>
     c54:	e8df f007 	tbb	[pc, r7]
     c58:	3b342e04 	.word	0x3b342e04
     c5c:	4f44      	.short	0x4f44
     c5e:	1f          	.byte	0x1f
     c5f:	00          	.byte	0x00
     c60:	4641      	mov	r1, r8
     c62:	4620      	mov	r0, r4
     c64:	f000 fa48 	bl	10f8 <nrf_fprintf>
     c68:	7a2b      	ldrb	r3, [r5, #8]
     c6a:	2b05      	cmp	r3, #5
     c6c:	d005      	beq.n	c7a <nrf_log_std_entry_process+0x4a>
     c6e:	7a6b      	ldrb	r3, [r5, #9]
     c70:	b95b      	cbnz	r3, c8a <nrf_log_std_entry_process+0x5a>
     c72:	4927      	ldr	r1, [pc, #156]	; (d10 <nrf_log_std_entry_process+0xe0>)
     c74:	4620      	mov	r0, r4
     c76:	f000 fa3f 	bl	10f8 <nrf_fprintf>
     c7a:	4620      	mov	r0, r4
     c7c:	f000 fa30 	bl	10e0 <nrf_fprintf_buffer_flush>
     c80:	f884 900c 	strb.w	r9, [r4, #12]
     c84:	b005      	add	sp, #20
     c86:	e8bd 83f0 	ldmia.w	sp!, {r4, r5, r6, r7, r8, r9, pc}
     c8a:	4a22      	ldr	r2, [pc, #136]	; (d14 <nrf_log_std_entry_process+0xe4>)
     c8c:	4922      	ldr	r1, [pc, #136]	; (d18 <nrf_log_std_entry_process+0xe8>)
     c8e:	4620      	mov	r0, r4
     c90:	f000 fa32 	bl	10f8 <nrf_fprintf>
     c94:	e7ed      	b.n	c72 <nrf_log_std_entry_process+0x42>
     c96:	6973      	ldr	r3, [r6, #20]
     c98:	9303      	str	r3, [sp, #12]
     c9a:	6933      	ldr	r3, [r6, #16]
     c9c:	9302      	str	r3, [sp, #8]
     c9e:	68f3      	ldr	r3, [r6, #12]
     ca0:	9301      	str	r3, [sp, #4]
     ca2:	68b3      	ldr	r3, [r6, #8]
     ca4:	9300      	str	r3, [sp, #0]
     ca6:	e9d6 2300 	ldrd	r2, r3, [r6]
     caa:	4641      	mov	r1, r8
     cac:	4620      	mov	r0, r4
     cae:	f000 fa23 	bl	10f8 <nrf_fprintf>
     cb2:	e7d9      	b.n	c68 <nrf_log_std_entry_process+0x38>
     cb4:	6832      	ldr	r2, [r6, #0]
     cb6:	4641      	mov	r1, r8
     cb8:	4620      	mov	r0, r4
     cba:	f000 fa1d 	bl	10f8 <nrf_fprintf>
     cbe:	e7d3      	b.n	c68 <nrf_log_std_entry_process+0x38>
     cc0:	e9d6 2300 	ldrd	r2, r3, [r6]
     cc4:	4641      	mov	r1, r8
     cc6:	4620      	mov	r0, r4
     cc8:	f000 fa16 	bl	10f8 <nrf_fprintf>
     ccc:	e7cc      	b.n	c68 <nrf_log_std_entry_process+0x38>
     cce:	68b3      	ldr	r3, [r6, #8]
     cd0:	9300      	str	r3, [sp, #0]
     cd2:	e9d6 2300 	ldrd	r2, r3, [r6]
     cd6:	4641      	mov	r1, r8
     cd8:	4620      	mov	r0, r4
     cda:	f000 fa0d 	bl	10f8 <nrf_fprintf>
     cde:	e7c3      	b.n	c68 <nrf_log_std_entry_process+0x38>
     ce0:	68f3      	ldr	r3, [r6, #12]
     ce2:	9301      	str	r3, [sp, #4]
     ce4:	68b3      	ldr	r3, [r6, #8]
     ce6:	9300      	str	r3, [sp, #0]
     ce8:	e9d6 2300 	ldrd	r2, r3, [r6]
     cec:	4641      	mov	r1, r8
     cee:	4620      	mov	r0, r4
     cf0:	f000 fa02 	bl	10f8 <nrf_fprintf>
     cf4:	e7b8      	b.n	c68 <nrf_log_std_entry_process+0x38>
     cf6:	6933      	ldr	r3, [r6, #16]
     cf8:	9302      	str	r3, [sp, #8]
     cfa:	68f3      	ldr	r3, [r6, #12]
     cfc:	9301      	str	r3, [sp, #4]
     cfe:	68b3      	ldr	r3, [r6, #8]
     d00:	9300      	str	r3, [sp, #0]
     d02:	e9d6 2300 	ldrd	r2, r3, [r6]
     d06:	4641      	mov	r1, r8
     d08:	4620      	mov	r0, r4
     d0a:	f000 f9f5 	bl	10f8 <nrf_fprintf>
     d0e:	e7ab      	b.n	c68 <nrf_log_std_entry_process+0x38>
     d10:	00003334 	.word	0x00003334
     d14:	0000331c 	.word	0x0000331c
     d18:	00003324 	.word	0x00003324

00000d1c <nrf_log_hexdump_entry_process>:
     d1c:	2908      	cmp	r1, #8
     d1e:	d900      	bls.n	d22 <nrf_log_hexdump_entry_process+0x6>
     d20:	4770      	bx	lr
     d22:	e92d 4ff0 	stmdb	sp!, {r4, r5, r6, r7, r8, r9, sl, fp, lr}
     d26:	461d      	mov	r5, r3
     d28:	b083      	sub	sp, #12
     d2a:	2400      	movs	r4, #0
     d2c:	7b1b      	ldrb	r3, [r3, #12]
     d2e:	732c      	strb	r4, [r5, #12]
     d30:	460e      	mov	r6, r1
     d32:	4607      	mov	r7, r0
     d34:	4629      	mov	r1, r5
     d36:	4610      	mov	r0, r2
     d38:	4690      	mov	r8, r2
     d3a:	9301      	str	r3, [sp, #4]
     d3c:	f8df b0d0 	ldr.w	fp, [pc, #208]	; e10 <nrf_log_hexdump_entry_process+0xf4>
     d40:	f8df a0d0 	ldr.w	sl, [pc, #208]	; e14 <nrf_log_hexdump_entry_process+0xf8>
     d44:	f7ff ff32 	bl	bac <prefix_process.constprop.0>
     d48:	e005      	b.n	d56 <nrf_log_hexdump_entry_process+0x3a>
     d4a:	5d3a      	ldrb	r2, [r7, r4]
     d4c:	3401      	adds	r4, #1
     d4e:	f000 f9d3 	bl	10f8 <nrf_fprintf>
     d52:	2c08      	cmp	r4, #8
     d54:	d009      	beq.n	d6a <nrf_log_hexdump_entry_process+0x4e>
     d56:	42a6      	cmp	r6, r4
     d58:	4651      	mov	r1, sl
     d5a:	4628      	mov	r0, r5
     d5c:	d8f5      	bhi.n	d4a <nrf_log_hexdump_entry_process+0x2e>
     d5e:	4659      	mov	r1, fp
     d60:	3401      	adds	r4, #1
     d62:	f000 f9c9 	bl	10f8 <nrf_fprintf>
     d66:	2c08      	cmp	r4, #8
     d68:	d1f5      	bne.n	d56 <nrf_log_hexdump_entry_process+0x3a>
     d6a:	4924      	ldr	r1, [pc, #144]	; (dfc <nrf_log_hexdump_entry_process+0xe0>)
     d6c:	f8df b0a8 	ldr.w	fp, [pc, #168]	; e18 <nrf_log_hexdump_entry_process+0xfc>
     d70:	4c23      	ldr	r4, [pc, #140]	; (e00 <nrf_log_hexdump_entry_process+0xe4>)
     d72:	f8df a0a8 	ldr.w	sl, [pc, #168]	; e1c <nrf_log_hexdump_entry_process+0x100>
     d76:	4628      	mov	r0, r5
     d78:	f000 f9be 	bl	10f8 <nrf_fprintf>
     d7c:	f04f 0900 	mov.w	r9, #0
     d80:	e017      	b.n	db2 <nrf_log_hexdump_entry_process+0x96>
     d82:	f817 1009 	ldrb.w	r1, [r7, r9]
     d86:	1c48      	adds	r0, r1, #1
     d88:	297e      	cmp	r1, #126	; 0x7e
     d8a:	f04f 022e 	mov.w	r2, #46	; 0x2e
     d8e:	b2c0      	uxtb	r0, r0
     d90:	d806      	bhi.n	da0 <nrf_log_hexdump_entry_process+0x84>
     d92:	f81a 2000 	ldrb.w	r2, [sl, r0]
     d96:	f012 0f97 	tst.w	r2, #151	; 0x97
     d9a:	bf14      	ite	ne
     d9c:	460a      	movne	r2, r1
     d9e:	222e      	moveq	r2, #46	; 0x2e
     da0:	4621      	mov	r1, r4
     da2:	4628      	mov	r0, r5
     da4:	f109 0901 	add.w	r9, r9, #1
     da8:	f000 f9a6 	bl	10f8 <nrf_fprintf>
     dac:	f1b9 0f08 	cmp.w	r9, #8
     db0:	d00a      	beq.n	dc8 <nrf_log_hexdump_entry_process+0xac>
     db2:	454e      	cmp	r6, r9
     db4:	d8e5      	bhi.n	d82 <nrf_log_hexdump_entry_process+0x66>
     db6:	4659      	mov	r1, fp
     db8:	4628      	mov	r0, r5
     dba:	f109 0901 	add.w	r9, r9, #1
     dbe:	f000 f99b 	bl	10f8 <nrf_fprintf>
     dc2:	f1b9 0f08 	cmp.w	r9, #8
     dc6:	d1f4      	bne.n	db2 <nrf_log_hexdump_entry_process+0x96>
     dc8:	f898 3008 	ldrb.w	r3, [r8, #8]
     dcc:	2b05      	cmp	r3, #5
     dce:	d002      	beq.n	dd6 <nrf_log_hexdump_entry_process+0xba>
     dd0:	f898 3009 	ldrb.w	r3, [r8, #9]
     dd4:	b95b      	cbnz	r3, dee <nrf_log_hexdump_entry_process+0xd2>
     dd6:	490b      	ldr	r1, [pc, #44]	; (e04 <nrf_log_hexdump_entry_process+0xe8>)
     dd8:	4628      	mov	r0, r5
     dda:	f000 f98d 	bl	10f8 <nrf_fprintf>
     dde:	4628      	mov	r0, r5
     de0:	f000 f97e 	bl	10e0 <nrf_fprintf_buffer_flush>
     de4:	9b01      	ldr	r3, [sp, #4]
     de6:	732b      	strb	r3, [r5, #12]
     de8:	b003      	add	sp, #12
     dea:	e8bd 8ff0 	ldmia.w	sp!, {r4, r5, r6, r7, r8, r9, sl, fp, pc}
     dee:	4a06      	ldr	r2, [pc, #24]	; (e08 <nrf_log_hexdump_entry_process+0xec>)
     df0:	4906      	ldr	r1, [pc, #24]	; (e0c <nrf_log_hexdump_entry_process+0xf0>)
     df2:	4628      	mov	r0, r5
     df4:	f000 f980 	bl	10f8 <nrf_fprintf>
     df8:	e7ed      	b.n	dd6 <nrf_log_hexdump_entry_process+0xba>
     dfa:	bf00      	nop
     dfc:	00003344 	.word	0x00003344
     e00:	00003348 	.word	0x00003348
     e04:	00003334 	.word	0x00003334
     e08:	0000331c 	.word	0x0000331c
     e0c:	00003324 	.word	0x00003324
     e10:	00003340 	.word	0x00003340
     e14:	00003338 	.word	0x00003338
     e18:	00003330 	.word	0x00003330
     e1c:	00003494 	.word	0x00003494

00000e20 <bsp_board_led_off>:
     e20:	4a04      	ldr	r2, [pc, #16]	; (e34 <bsp_board_led_off+0x14>)
     e22:	5c11      	ldrb	r1, [r2, r0]
     e24:	2301      	movs	r3, #1
     e26:	f04f 42a0 	mov.w	r2, #1342177280	; 0x50000000
     e2a:	408b      	lsls	r3, r1
     e2c:	f8c2 3508 	str.w	r3, [r2, #1288]	; 0x508
     e30:	4770      	bx	lr
     e32:	bf00      	nop
     e34:	000033dc 	.word	0x000033dc

00000e38 <bsp_board_leds_off>:
     e38:	f04f 43a0 	mov.w	r3, #1342177280	; 0x50000000
     e3c:	b410      	push	{r4}
     e3e:	f44f 2080 	mov.w	r0, #262144	; 0x40000
     e42:	f44f 3400 	mov.w	r4, #131072	; 0x20000
     e46:	f44f 2100 	mov.w	r1, #524288	; 0x80000
     e4a:	f44f 1280 	mov.w	r2, #1048576	; 0x100000
     e4e:	f8c3 4508 	str.w	r4, [r3, #1288]	; 0x508
     e52:	f8c3 0508 	str.w	r0, [r3, #1288]	; 0x508
     e56:	f8c3 1508 	str.w	r1, [r3, #1288]	; 0x508
     e5a:	f8c3 2508 	str.w	r2, [r3, #1288]	; 0x508
     e5e:	f85d 4b04 	ldr.w	r4, [sp], #4
     e62:	4770      	bx	lr

00000e64 <bsp_board_leds_on>:
     e64:	f04f 43a0 	mov.w	r3, #1342177280	; 0x50000000
     e68:	b410      	push	{r4}
     e6a:	f44f 2080 	mov.w	r0, #262144	; 0x40000
     e6e:	f44f 3400 	mov.w	r4, #131072	; 0x20000
     e72:	f44f 2100 	mov.w	r1, #524288	; 0x80000
     e76:	f44f 1280 	mov.w	r2, #1048576	; 0x100000
     e7a:	f8c3 450c 	str.w	r4, [r3, #1292]	; 0x50c
     e7e:	f8c3 050c 	str.w	r0, [r3, #1292]	; 0x50c
     e82:	f8c3 150c 	str.w	r1, [r3, #1292]	; 0x50c
     e86:	f8c3 250c 	str.w	r2, [r3, #1292]	; 0x50c
     e8a:	f85d 4b04 	ldr.w	r4, [sp], #4
     e8e:	4770      	bx	lr

00000e90 <bsp_board_led_invert>:
     e90:	4b07      	ldr	r3, [pc, #28]	; (eb0 <bsp_board_led_invert+0x20>)
     e92:	f04f 41a0 	mov.w	r1, #1342177280	; 0x50000000
     e96:	5c18      	ldrb	r0, [r3, r0]
     e98:	f8d1 3504 	ldr.w	r3, [r1, #1284]	; 0x504
     e9c:	2201      	movs	r2, #1
     e9e:	4082      	lsls	r2, r0
     ea0:	ea22 0003 	bic.w	r0, r2, r3
     ea4:	4013      	ands	r3, r2
     ea6:	f8c1 0508 	str.w	r0, [r1, #1288]	; 0x508
     eaa:	f8c1 350c 	str.w	r3, [r1, #1292]	; 0x50c
     eae:	4770      	bx	lr
     eb0:	000033dc 	.word	0x000033dc

00000eb4 <bsp_board_init>:
     eb4:	07c2      	lsls	r2, r0, #31
     eb6:	b410      	push	{r4}
     eb8:	d51a      	bpl.n	ef0 <bsp_board_init+0x3c>
     eba:	f04f 43a0 	mov.w	r3, #1342177280	; 0x50000000
     ebe:	2203      	movs	r2, #3
     ec0:	f44f 3100 	mov.w	r1, #131072	; 0x20000
     ec4:	f8c3 2744 	str.w	r2, [r3, #1860]	; 0x744
     ec8:	f44f 2480 	mov.w	r4, #262144	; 0x40000
     ecc:	f8c3 2748 	str.w	r2, [r3, #1864]	; 0x748
     ed0:	f8c3 274c 	str.w	r2, [r3, #1868]	; 0x74c
     ed4:	f8c3 2750 	str.w	r2, [r3, #1872]	; 0x750
     ed8:	f8c3 1508 	str.w	r1, [r3, #1288]	; 0x508
     edc:	f44f 1280 	mov.w	r2, #1048576	; 0x100000
     ee0:	f44f 2100 	mov.w	r1, #524288	; 0x80000
     ee4:	f8c3 4508 	str.w	r4, [r3, #1288]	; 0x508
     ee8:	f8c3 1508 	str.w	r1, [r3, #1288]	; 0x508
     eec:	f8c3 2508 	str.w	r2, [r3, #1288]	; 0x508
     ef0:	0783      	lsls	r3, r0, #30
     ef2:	d50a      	bpl.n	f0a <bsp_board_init+0x56>
     ef4:	f04f 43a0 	mov.w	r3, #1342177280	; 0x50000000
     ef8:	220c      	movs	r2, #12
     efa:	f8c3 2734 	str.w	r2, [r3, #1844]	; 0x734
     efe:	f8c3 2738 	str.w	r2, [r3, #1848]	; 0x738
     f02:	f8c3 273c 	str.w	r2, [r3, #1852]	; 0x73c
     f06:	f8c3 2740 	str.w	r2, [r3, #1856]	; 0x740
     f0a:	f85d 4b04 	ldr.w	r4, [sp], #4
     f0e:	4770      	bx	lr

00000f10 <app_error_handler_bare>:
     f10:	b500      	push	{lr}
     f12:	b085      	sub	sp, #20
     f14:	4603      	mov	r3, r0
     f16:	2100      	movs	r1, #0
     f18:	aa01      	add	r2, sp, #4
     f1a:	f244 0001 	movw	r0, #16385	; 0x4001
     f1e:	e9cd 1101 	strd	r1, r1, [sp, #4]
     f22:	9303      	str	r3, [sp, #12]
     f24:	f001 fd48 	bl	29b8 <app_error_fault_handler>
     f28:	b005      	add	sp, #20
     f2a:	f85d fb04 	ldr.w	pc, [sp], #4
     f2e:	bf00      	nop

00000f30 <app_error_save_and_stop>:
     f30:	b500      	push	{lr}
     f32:	b083      	sub	sp, #12
     f34:	f04f 0c01 	mov.w	ip, #1
     f38:	f88d c007 	strb.w	ip, [sp, #7]
     f3c:	4b14      	ldr	r3, [pc, #80]	; (f90 <app_error_save_and_stop+0x60>)
     f3e:	f89d e007 	ldrb.w	lr, [sp, #7]
     f42:	6018      	str	r0, [r3, #0]
     f44:	f244 0c01 	movw	ip, #16385	; 0x4001
     f48:	4560      	cmp	r0, ip
     f4a:	6059      	str	r1, [r3, #4]
     f4c:	609a      	str	r2, [r3, #8]
     f4e:	d013      	beq.n	f78 <app_error_save_and_stop+0x48>
     f50:	f244 0102 	movw	r1, #16386	; 0x4002
     f54:	4288      	cmp	r0, r1
     f56:	d106      	bne.n	f66 <app_error_save_and_stop+0x36>
     f58:	60da      	str	r2, [r3, #12]
     f5a:	68da      	ldr	r2, [r3, #12]
     f5c:	6812      	ldr	r2, [r2, #0]
     f5e:	619a      	str	r2, [r3, #24]
     f60:	68da      	ldr	r2, [r3, #12]
     f62:	6852      	ldr	r2, [r2, #4]
     f64:	61da      	str	r2, [r3, #28]
     f66:	b672      	cpsid	i
     f68:	f89d 3007 	ldrb.w	r3, [sp, #7]
     f6c:	2b00      	cmp	r3, #0
     f6e:	d1fb      	bne.n	f68 <app_error_save_and_stop+0x38>
     f70:	b662      	cpsie	i
     f72:	b003      	add	sp, #12
     f74:	f85d fb04 	ldr.w	pc, [sp], #4
     f78:	611a      	str	r2, [r3, #16]
     f7a:	691a      	ldr	r2, [r3, #16]
     f7c:	6892      	ldr	r2, [r2, #8]
     f7e:	615a      	str	r2, [r3, #20]
     f80:	691a      	ldr	r2, [r3, #16]
     f82:	6812      	ldr	r2, [r2, #0]
     f84:	619a      	str	r2, [r3, #24]
     f86:	691a      	ldr	r2, [r3, #16]
     f88:	6852      	ldr	r2, [r2, #4]
     f8a:	61da      	str	r2, [r3, #28]
     f8c:	e7eb      	b.n	f66 <app_error_save_and_stop+0x36>
     f8e:	bf00      	nop
     f90:	2000061c 	.word	0x2000061c

00000f94 <app_util_critical_region_enter>:
     f94:	b672      	cpsid	i
     f96:	4a02      	ldr	r2, [pc, #8]	; (fa0 <app_util_critical_region_enter+0xc>)
     f98:	6813      	ldr	r3, [r2, #0]
     f9a:	3301      	adds	r3, #1
     f9c:	6013      	str	r3, [r2, #0]
     f9e:	4770      	bx	lr
     fa0:	2000063c 	.word	0x2000063c

00000fa4 <app_util_critical_region_exit>:
     fa4:	4a03      	ldr	r2, [pc, #12]	; (fb4 <app_util_critical_region_exit+0x10>)
     fa6:	6813      	ldr	r3, [r2, #0]
     fa8:	3b01      	subs	r3, #1
     faa:	6013      	str	r3, [r2, #0]
     fac:	b903      	cbnz	r3, fb0 <app_util_critical_region_exit+0xc>
     fae:	b662      	cpsie	i
     fb0:	4770      	bx	lr
     fb2:	bf00      	nop
     fb4:	2000063c 	.word	0x2000063c

00000fb8 <nrf_atomic_u32_fetch_store>:
     fb8:	4603      	mov	r3, r0
     fba:	e853 0f00 	ldrex	r0, [r3]
     fbe:	460a      	mov	r2, r1
     fc0:	e843 2c00 	strex	ip, r2, [r3]
     fc4:	f09c 0f00 	teq	ip, #0
     fc8:	d1f7      	bne.n	fba <nrf_atomic_u32_fetch_store+0x2>
     fca:	4770      	bx	lr

00000fcc <nrf_atomic_u32_add>:
     fcc:	4603      	mov	r3, r0
     fce:	e853 2f00 	ldrex	r2, [r3]
     fd2:	eb02 0001 	add.w	r0, r2, r1
     fd6:	e843 0c00 	strex	ip, r0, [r3]
     fda:	f09c 0f00 	teq	ip, #0
     fde:	d1f6      	bne.n	fce <nrf_atomic_u32_add+0x2>
     fe0:	4770      	bx	lr
     fe2:	bf00      	nop

00000fe4 <nrf_atomic_u32_sub>:
     fe4:	4603      	mov	r3, r0
     fe6:	e853 2f00 	ldrex	r2, [r3]
     fea:	eba2 0001 	sub.w	r0, r2, r1
     fee:	e843 0c00 	strex	ip, r0, [r3]
     ff2:	f09c 0f00 	teq	ip, #0
     ff6:	d1f6      	bne.n	fe6 <nrf_atomic_u32_sub+0x2>
     ff8:	4770      	bx	lr
     ffa:	bf00      	nop

00000ffc <nrf_atomic_flag_set>:
     ffc:	4603      	mov	r3, r0
     ffe:	2201      	movs	r2, #1
    1000:	e853 1f00 	ldrex	r1, [r3]
    1004:	ea41 0002 	orr.w	r0, r1, r2
    1008:	e843 0c00 	strex	ip, r0, [r3]
    100c:	f09c 0f00 	teq	ip, #0
    1010:	d1f6      	bne.n	1000 <nrf_atomic_flag_set+0x4>
    1012:	4770      	bx	lr

00001014 <nrf_atomic_flag_clear_fetch>:
    1014:	4603      	mov	r3, r0
    1016:	2200      	movs	r2, #0
    1018:	e853 0f00 	ldrex	r0, [r3]
    101c:	ea00 0102 	and.w	r1, r0, r2
    1020:	e843 1c00 	strex	ip, r1, [r3]
    1024:	f09c 0f00 	teq	ip, #0
    1028:	d1f6      	bne.n	1018 <nrf_atomic_flag_clear_fetch+0x4>
    102a:	4770      	bx	lr

0000102c <nrf_balloc_init>:
    102c:	b1d0      	cbz	r0, 1064 <nrf_balloc_init+0x38>
    102e:	b410      	push	{r4}
    1030:	e9d0 1201 	ldrd	r1, r2, [r0, #4]
    1034:	1a52      	subs	r2, r2, r1
    1036:	6804      	ldr	r4, [r0, #0]
    1038:	b2d2      	uxtb	r2, r2
    103a:	1e53      	subs	r3, r2, #1
    103c:	6021      	str	r1, [r4, #0]
    103e:	b2db      	uxtb	r3, r3
    1040:	b152      	cbz	r2, 1058 <nrf_balloc_init+0x2c>
    1042:	6801      	ldr	r1, [r0, #0]
    1044:	680a      	ldr	r2, [r1, #0]
    1046:	f103 3cff 	add.w	ip, r3, #4294967295	; 0xffffffff
    104a:	1c54      	adds	r4, r2, #1
    104c:	600c      	str	r4, [r1, #0]
    104e:	7013      	strb	r3, [r2, #0]
    1050:	fa5f f38c 	uxtb.w	r3, ip
    1054:	2bff      	cmp	r3, #255	; 0xff
    1056:	d1f4      	bne.n	1042 <nrf_balloc_init+0x16>
    1058:	6803      	ldr	r3, [r0, #0]
    105a:	2000      	movs	r0, #0
    105c:	7118      	strb	r0, [r3, #4]
    105e:	f85d 4b04 	ldr.w	r4, [sp], #4
    1062:	4770      	bx	lr
    1064:	200e      	movs	r0, #14
    1066:	4770      	bx	lr

00001068 <nrf_balloc_alloc>:
    1068:	b538      	push	{r3, r4, r5, lr}
    106a:	4604      	mov	r4, r0
    106c:	2000      	movs	r0, #0
    106e:	f7ff ff91 	bl	f94 <app_util_critical_region_enter>
    1072:	e9d4 3100 	ldrd	r3, r1, [r4]
    1076:	681a      	ldr	r2, [r3, #0]
    1078:	428a      	cmp	r2, r1
    107a:	d915      	bls.n	10a8 <nrf_balloc_alloc+0x40>
    107c:	1e51      	subs	r1, r2, #1
    107e:	6019      	str	r1, [r3, #0]
    1080:	6821      	ldr	r1, [r4, #0]
    1082:	68a3      	ldr	r3, [r4, #8]
    1084:	f812 2c01 	ldrb.w	r2, [r2, #-1]
    1088:	8a20      	ldrh	r0, [r4, #16]
    108a:	680d      	ldr	r5, [r1, #0]
    108c:	68e4      	ldr	r4, [r4, #12]
    108e:	1b5b      	subs	r3, r3, r5
    1090:	fb00 4402 	mla	r4, r0, r2, r4
    1094:	790a      	ldrb	r2, [r1, #4]
    1096:	b2db      	uxtb	r3, r3
    1098:	429a      	cmp	r2, r3
    109a:	d200      	bcs.n	109e <nrf_balloc_alloc+0x36>
    109c:	710b      	strb	r3, [r1, #4]
    109e:	2000      	movs	r0, #0
    10a0:	f7ff ff80 	bl	fa4 <app_util_critical_region_exit>
    10a4:	4620      	mov	r0, r4
    10a6:	bd38      	pop	{r3, r4, r5, pc}
    10a8:	2400      	movs	r4, #0
    10aa:	2000      	movs	r0, #0
    10ac:	f7ff ff7a 	bl	fa4 <app_util_critical_region_exit>
    10b0:	4620      	mov	r0, r4
    10b2:	bd38      	pop	{r3, r4, r5, pc}

000010b4 <nrf_balloc_free>:
    10b4:	b538      	push	{r3, r4, r5, lr}
    10b6:	4605      	mov	r5, r0
    10b8:	2000      	movs	r0, #0
    10ba:	460c      	mov	r4, r1
    10bc:	f7ff ff6a 	bl	f94 <app_util_critical_region_enter>
    10c0:	682a      	ldr	r2, [r5, #0]
    10c2:	6813      	ldr	r3, [r2, #0]
    10c4:	1c59      	adds	r1, r3, #1
    10c6:	6011      	str	r1, [r2, #0]
    10c8:	68e9      	ldr	r1, [r5, #12]
    10ca:	8a2a      	ldrh	r2, [r5, #16]
    10cc:	1a64      	subs	r4, r4, r1
    10ce:	fbb4 f4f2 	udiv	r4, r4, r2
    10d2:	701c      	strb	r4, [r3, #0]
    10d4:	e8bd 4038 	ldmia.w	sp!, {r3, r4, r5, lr}
    10d8:	2000      	movs	r0, #0
    10da:	f7ff bf63 	b.w	fa4 <app_util_critical_region_exit>
    10de:	bf00      	nop

000010e0 <nrf_fprintf_buffer_flush>:
    10e0:	6882      	ldr	r2, [r0, #8]
    10e2:	b142      	cbz	r2, 10f6 <nrf_fprintf_buffer_flush+0x16>
    10e4:	b510      	push	{r4, lr}
    10e6:	4604      	mov	r4, r0
    10e8:	6943      	ldr	r3, [r0, #20]
    10ea:	6801      	ldr	r1, [r0, #0]
    10ec:	6900      	ldr	r0, [r0, #16]
    10ee:	4798      	blx	r3
    10f0:	2300      	movs	r3, #0
    10f2:	60a3      	str	r3, [r4, #8]
    10f4:	bd10      	pop	{r4, pc}
    10f6:	4770      	bx	lr

000010f8 <nrf_fprintf>:
    10f8:	b40e      	push	{r1, r2, r3}
    10fa:	b500      	push	{lr}
    10fc:	b082      	sub	sp, #8
    10fe:	9903      	ldr	r1, [sp, #12]
    1100:	b121      	cbz	r1, 110c <nrf_fprintf+0x14>
    1102:	ab04      	add	r3, sp, #16
    1104:	aa01      	add	r2, sp, #4
    1106:	9301      	str	r3, [sp, #4]
    1108:	f000 f8b6 	bl	1278 <nrf_fprintf_fmt>
    110c:	b002      	add	sp, #8
    110e:	f85d eb04 	ldr.w	lr, [sp], #4
    1112:	b003      	add	sp, #12
    1114:	4770      	bx	lr
    1116:	bf00      	nop

00001118 <unsigned_print>:
    1118:	e92d 4ff0 	stmdb	sp!, {r4, r5, r6, r7, r8, r9, sl, fp, lr}
    111c:	4615      	mov	r5, r2
    111e:	b083      	sub	sp, #12
    1120:	42a9      	cmp	r1, r5
    1122:	f8dd 9030 	ldr.w	r9, [sp, #48]	; 0x30
    1126:	9a0d      	ldr	r2, [sp, #52]	; 0x34
    1128:	460f      	mov	r7, r1
    112a:	4606      	mov	r6, r0
    112c:	469a      	mov	sl, r3
    112e:	f0c0 809e 	bcc.w	126e <unsigned_print+0x156>
    1132:	460b      	mov	r3, r1
    1134:	f04f 0801 	mov.w	r8, #1
    1138:	fbb3 f3f5 	udiv	r3, r3, r5
    113c:	429d      	cmp	r5, r3
    113e:	f108 0801 	add.w	r8, r8, #1
    1142:	d9f9      	bls.n	1138 <unsigned_print+0x20>
    1144:	45d0      	cmp	r8, sl
    1146:	bf38      	it	cc
    1148:	46d0      	movcc	r8, sl
    114a:	f012 0301 	ands.w	r3, r2, #1
    114e:	9301      	str	r3, [sp, #4]
    1150:	d102      	bne.n	1158 <unsigned_print+0x40>
    1152:	f1b9 0f00 	cmp.w	r9, #0
    1156:	d167      	bne.n	1228 <unsigned_print+0x110>
    1158:	68b2      	ldr	r2, [r6, #8]
    115a:	f1ba 0f01 	cmp.w	sl, #1
    115e:	f04f 0401 	mov.w	r4, #1
    1162:	d906      	bls.n	1172 <unsigned_print+0x5a>
    1164:	f10a 3aff 	add.w	sl, sl, #4294967295	; 0xffffffff
    1168:	f1ba 0f01 	cmp.w	sl, #1
    116c:	fb05 f404 	mul.w	r4, r5, r4
    1170:	d8f8      	bhi.n	1164 <unsigned_print+0x4c>
    1172:	fbb7 f3f4 	udiv	r3, r7, r4
    1176:	429d      	cmp	r5, r3
    1178:	d805      	bhi.n	1186 <unsigned_print+0x6e>
    117a:	fb05 f404 	mul.w	r4, r5, r4
    117e:	fbb7 f3f4 	udiv	r3, r7, r4
    1182:	429d      	cmp	r5, r3
    1184:	d9f9      	bls.n	117a <unsigned_print+0x62>
    1186:	f8df a0ec 	ldr.w	sl, [pc, #236]	; 1274 <unsigned_print+0x15c>
    118a:	e007      	b.n	119c <unsigned_print+0x84>
    118c:	42ac      	cmp	r4, r5
    118e:	fbb4 f3f5 	udiv	r3, r4, r5
    1192:	d31a      	bcc.n	11ca <unsigned_print+0xb2>
    1194:	68b2      	ldr	r2, [r6, #8]
    1196:	461c      	mov	r4, r3
    1198:	fbb7 f3f3 	udiv	r3, r7, r3
    119c:	f81a b003 	ldrb.w	fp, [sl, r3]
    11a0:	f1bb 0f0a 	cmp.w	fp, #10
    11a4:	fb04 7713 	mls	r7, r4, r3, r7
    11a8:	d028      	beq.n	11fc <unsigned_print+0xe4>
    11aa:	6833      	ldr	r3, [r6, #0]
    11ac:	1c51      	adds	r1, r2, #1
    11ae:	60b1      	str	r1, [r6, #8]
    11b0:	f803 b002 	strb.w	fp, [r3, r2]
    11b4:	e9d6 3201 	ldrd	r3, r2, [r6, #4]
    11b8:	429a      	cmp	r2, r3
    11ba:	d3e7      	bcc.n	118c <unsigned_print+0x74>
    11bc:	4630      	mov	r0, r6
    11be:	f7ff ff8f 	bl	10e0 <nrf_fprintf_buffer_flush>
    11c2:	fbb4 f3f5 	udiv	r3, r4, r5
    11c6:	42ac      	cmp	r4, r5
    11c8:	d2e4      	bcs.n	1194 <unsigned_print+0x7c>
    11ca:	9b01      	ldr	r3, [sp, #4]
    11cc:	b19b      	cbz	r3, 11f6 <unsigned_print+0xde>
    11ce:	f1b9 0f00 	cmp.w	r9, #0
    11d2:	d010      	beq.n	11f6 <unsigned_print+0xde>
    11d4:	2420      	movs	r4, #32
    11d6:	45c8      	cmp	r8, r9
    11d8:	f109 39ff 	add.w	r9, r9, #4294967295	; 0xffffffff
    11dc:	d20b      	bcs.n	11f6 <unsigned_print+0xde>
    11de:	68b3      	ldr	r3, [r6, #8]
    11e0:	6832      	ldr	r2, [r6, #0]
    11e2:	1c59      	adds	r1, r3, #1
    11e4:	60b1      	str	r1, [r6, #8]
    11e6:	54d4      	strb	r4, [r2, r3]
    11e8:	e9d6 3201 	ldrd	r3, r2, [r6, #4]
    11ec:	429a      	cmp	r2, r3
    11ee:	d214      	bcs.n	121a <unsigned_print+0x102>
    11f0:	f1b9 0f00 	cmp.w	r9, #0
    11f4:	d1ef      	bne.n	11d6 <unsigned_print+0xbe>
    11f6:	b003      	add	sp, #12
    11f8:	e8bd 8ff0 	ldmia.w	sp!, {r4, r5, r6, r7, r8, r9, sl, fp, pc}
    11fc:	1c51      	adds	r1, r2, #1
    11fe:	6833      	ldr	r3, [r6, #0]
    1200:	60b1      	str	r1, [r6, #8]
    1202:	f04f 010d 	mov.w	r1, #13
    1206:	5499      	strb	r1, [r3, r2]
    1208:	e9d6 3201 	ldrd	r3, r2, [r6, #4]
    120c:	429a      	cmp	r2, r3
    120e:	d3cc      	bcc.n	11aa <unsigned_print+0x92>
    1210:	4630      	mov	r0, r6
    1212:	f7ff ff65 	bl	10e0 <nrf_fprintf_buffer_flush>
    1216:	68b2      	ldr	r2, [r6, #8]
    1218:	e7c7      	b.n	11aa <unsigned_print+0x92>
    121a:	4630      	mov	r0, r6
    121c:	f7ff ff60 	bl	10e0 <nrf_fprintf_buffer_flush>
    1220:	f1b9 0f00 	cmp.w	r9, #0
    1224:	d1d7      	bne.n	11d6 <unsigned_print+0xbe>
    1226:	e7e6      	b.n	11f6 <unsigned_print+0xde>
    1228:	0793      	lsls	r3, r2, #30
    122a:	d41a      	bmi.n	1262 <unsigned_print+0x14a>
    122c:	2420      	movs	r4, #32
    122e:	68b2      	ldr	r2, [r6, #8]
    1230:	45c8      	cmp	r8, r9
    1232:	f102 0101 	add.w	r1, r2, #1
    1236:	d290      	bcs.n	115a <unsigned_print+0x42>
    1238:	6833      	ldr	r3, [r6, #0]
    123a:	60b1      	str	r1, [r6, #8]
    123c:	549c      	strb	r4, [r3, r2]
    123e:	e9d6 3201 	ldrd	r3, r2, [r6, #4]
    1242:	429a      	cmp	r2, r3
    1244:	f109 39ff 	add.w	r9, r9, #4294967295	; 0xffffffff
    1248:	d203      	bcs.n	1252 <unsigned_print+0x13a>
    124a:	f1b9 0f00 	cmp.w	r9, #0
    124e:	d1ef      	bne.n	1230 <unsigned_print+0x118>
    1250:	e783      	b.n	115a <unsigned_print+0x42>
    1252:	4630      	mov	r0, r6
    1254:	f7ff ff44 	bl	10e0 <nrf_fprintf_buffer_flush>
    1258:	68b2      	ldr	r2, [r6, #8]
    125a:	f1b9 0f00 	cmp.w	r9, #0
    125e:	d1e7      	bne.n	1230 <unsigned_print+0x118>
    1260:	e77b      	b.n	115a <unsigned_print+0x42>
    1262:	f1ba 0f00 	cmp.w	sl, #0
    1266:	bf0c      	ite	eq
    1268:	2430      	moveq	r4, #48	; 0x30
    126a:	2420      	movne	r4, #32
    126c:	e7df      	b.n	122e <unsigned_print+0x116>
    126e:	f04f 0801 	mov.w	r8, #1
    1272:	e767      	b.n	1144 <unsigned_print+0x2c>
    1274:	000033e0 	.word	0x000033e0

00001278 <nrf_fprintf_fmt>:
    1278:	2900      	cmp	r1, #0
    127a:	f000 825f 	beq.w	173c <nrf_fprintf_fmt+0x4c4>
    127e:	e92d 4ff0 	stmdb	sp!, {r4, r5, r6, r7, r8, r9, sl, fp, lr}
    1282:	f8df 954c 	ldr.w	r9, [pc, #1356]	; 17d0 <nrf_fprintf_fmt+0x558>
    1286:	780d      	ldrb	r5, [r1, #0]
    1288:	b085      	sub	sp, #20
    128a:	4606      	mov	r6, r0
    128c:	4690      	mov	r8, r2
    128e:	460c      	mov	r4, r1
    1290:	f04f 0a0d 	mov.w	sl, #13
    1294:	e00f      	b.n	12b6 <nrf_fprintf_fmt+0x3e>
    1296:	2d0a      	cmp	r5, #10
    1298:	68b3      	ldr	r3, [r6, #8]
    129a:	f000 8090 	beq.w	13be <nrf_fprintf_fmt+0x146>
    129e:	6832      	ldr	r2, [r6, #0]
    12a0:	1c59      	adds	r1, r3, #1
    12a2:	60b1      	str	r1, [r6, #8]
    12a4:	54d5      	strb	r5, [r2, r3]
    12a6:	e9d6 3201 	ldrd	r3, r2, [r6, #4]
    12aa:	429a      	cmp	r2, r3
    12ac:	f080 8083 	bcs.w	13b6 <nrf_fprintf_fmt+0x13e>
    12b0:	7825      	ldrb	r5, [r4, #0]
    12b2:	2d00      	cmp	r5, #0
    12b4:	d06a      	beq.n	138c <nrf_fprintf_fmt+0x114>
    12b6:	3401      	adds	r4, #1
    12b8:	2d00      	cmp	r5, #0
    12ba:	d067      	beq.n	138c <nrf_fprintf_fmt+0x114>
    12bc:	2d25      	cmp	r5, #37	; 0x25
    12be:	d1ea      	bne.n	1296 <nrf_fprintf_fmt+0x1e>
    12c0:	4621      	mov	r1, r4
    12c2:	2700      	movs	r7, #0
    12c4:	780a      	ldrb	r2, [r1, #0]
    12c6:	2a2d      	cmp	r2, #45	; 0x2d
    12c8:	460d      	mov	r5, r1
    12ca:	f101 0101 	add.w	r1, r1, #1
    12ce:	d06c      	beq.n	13aa <nrf_fprintf_fmt+0x132>
    12d0:	2a30      	cmp	r2, #48	; 0x30
    12d2:	d06d      	beq.n	13b0 <nrf_fprintf_fmt+0x138>
    12d4:	2a2b      	cmp	r2, #43	; 0x2b
    12d6:	d060      	beq.n	139a <nrf_fprintf_fmt+0x122>
    12d8:	2a2a      	cmp	r2, #42	; 0x2a
    12da:	d07f      	beq.n	13dc <nrf_fprintf_fmt+0x164>
    12dc:	f1a2 0330 	sub.w	r3, r2, #48	; 0x30
    12e0:	2b09      	cmp	r3, #9
    12e2:	f04f 0400 	mov.w	r4, #0
    12e6:	d80b      	bhi.n	1300 <nrf_fprintf_fmt+0x88>
    12e8:	eb04 0484 	add.w	r4, r4, r4, lsl #2
    12ec:	eb02 0444 	add.w	r4, r2, r4, lsl #1
    12f0:	f815 2f01 	ldrb.w	r2, [r5, #1]!
    12f4:	f1a2 0330 	sub.w	r3, r2, #48	; 0x30
    12f8:	2b09      	cmp	r3, #9
    12fa:	f1a4 0430 	sub.w	r4, r4, #48	; 0x30
    12fe:	d9f3      	bls.n	12e8 <nrf_fprintf_fmt+0x70>
    1300:	2a2e      	cmp	r2, #46	; 0x2e
    1302:	d075      	beq.n	13f0 <nrf_fprintf_fmt+0x178>
    1304:	2300      	movs	r3, #0
    1306:	e001      	b.n	130c <nrf_fprintf_fmt+0x94>
    1308:	f815 2f01 	ldrb.w	r2, [r5, #1]!
    130c:	f002 01fb 	and.w	r1, r2, #251	; 0xfb
    1310:	2968      	cmp	r1, #104	; 0x68
    1312:	d0f9      	beq.n	1308 <nrf_fprintf_fmt+0x90>
    1314:	2a25      	cmp	r2, #37	; 0x25
    1316:	f000 8197 	beq.w	1648 <nrf_fprintf_fmt+0x3d0>
    131a:	3a58      	subs	r2, #88	; 0x58
    131c:	b2d1      	uxtb	r1, r2
    131e:	2920      	cmp	r1, #32
    1320:	d830      	bhi.n	1384 <nrf_fprintf_fmt+0x10c>
    1322:	2a20      	cmp	r2, #32
    1324:	d82e      	bhi.n	1384 <nrf_fprintf_fmt+0x10c>
    1326:	e8df f012 	tbh	[pc, r2, lsl #1]
    132a:	0021      	.short	0x0021
    132c:	002d002d 	.word	0x002d002d
    1330:	002d002d 	.word	0x002d002d
    1334:	002d002d 	.word	0x002d002d
    1338:	002d002d 	.word	0x002d002d
    133c:	002d002d 	.word	0x002d002d
    1340:	0079010f 	.word	0x0079010f
    1344:	002d002d 	.word	0x002d002d
    1348:	002d002d 	.word	0x002d002d
    134c:	002d0079 	.word	0x002d0079
    1350:	002d002d 	.word	0x002d002d
    1354:	002d002d 	.word	0x002d002d
    1358:	00ce002d 	.word	0x00ce002d
    135c:	002d002d 	.word	0x002d002d
    1360:	002d012b 	.word	0x002d012b
    1364:	002d0127 	.word	0x002d0127
    1368:	0021002d 	.word	0x0021002d
    136c:	f8d8 1000 	ldr.w	r1, [r8]
    1370:	2210      	movs	r2, #16
    1372:	1d08      	adds	r0, r1, #4
    1374:	f8c8 0000 	str.w	r0, [r8]
    1378:	6809      	ldr	r1, [r1, #0]
    137a:	4630      	mov	r0, r6
    137c:	e9cd 4700 	strd	r4, r7, [sp]
    1380:	f7ff feca 	bl	1118 <unsigned_print>
    1384:	1c6c      	adds	r4, r5, #1
    1386:	7825      	ldrb	r5, [r4, #0]
    1388:	2d00      	cmp	r5, #0
    138a:	d194      	bne.n	12b6 <nrf_fprintf_fmt+0x3e>
    138c:	7b33      	ldrb	r3, [r6, #12]
    138e:	2b00      	cmp	r3, #0
    1390:	f040 8154 	bne.w	163c <nrf_fprintf_fmt+0x3c4>
    1394:	b005      	add	sp, #20
    1396:	e8bd 8ff0 	ldmia.w	sp!, {r4, r5, r6, r7, r8, r9, sl, fp, pc}
    139a:	780a      	ldrb	r2, [r1, #0]
    139c:	2a2d      	cmp	r2, #45	; 0x2d
    139e:	460d      	mov	r5, r1
    13a0:	f047 0704 	orr.w	r7, r7, #4
    13a4:	f101 0101 	add.w	r1, r1, #1
    13a8:	d192      	bne.n	12d0 <nrf_fprintf_fmt+0x58>
    13aa:	f047 0701 	orr.w	r7, r7, #1
    13ae:	e789      	b.n	12c4 <nrf_fprintf_fmt+0x4c>
    13b0:	f047 0702 	orr.w	r7, r7, #2
    13b4:	e786      	b.n	12c4 <nrf_fprintf_fmt+0x4c>
    13b6:	4630      	mov	r0, r6
    13b8:	f7ff fe92 	bl	10e0 <nrf_fprintf_buffer_flush>
    13bc:	e778      	b.n	12b0 <nrf_fprintf_fmt+0x38>
    13be:	6832      	ldr	r2, [r6, #0]
    13c0:	1c59      	adds	r1, r3, #1
    13c2:	60b1      	str	r1, [r6, #8]
    13c4:	f802 a003 	strb.w	sl, [r2, r3]
    13c8:	e9d6 2301 	ldrd	r2, r3, [r6, #4]
    13cc:	4293      	cmp	r3, r2
    13ce:	f4ff af66 	bcc.w	129e <nrf_fprintf_fmt+0x26>
    13d2:	4630      	mov	r0, r6
    13d4:	f7ff fe84 	bl	10e0 <nrf_fprintf_buffer_flush>
    13d8:	68b3      	ldr	r3, [r6, #8]
    13da:	e760      	b.n	129e <nrf_fprintf_fmt+0x26>
    13dc:	f8d8 3000 	ldr.w	r3, [r8]
    13e0:	1d1a      	adds	r2, r3, #4
    13e2:	f8c8 2000 	str.w	r2, [r8]
    13e6:	786a      	ldrb	r2, [r5, #1]
    13e8:	681c      	ldr	r4, [r3, #0]
    13ea:	2a2e      	cmp	r2, #46	; 0x2e
    13ec:	460d      	mov	r5, r1
    13ee:	d189      	bne.n	1304 <nrf_fprintf_fmt+0x8c>
    13f0:	786a      	ldrb	r2, [r5, #1]
    13f2:	f1a2 0330 	sub.w	r3, r2, #48	; 0x30
    13f6:	2b09      	cmp	r3, #9
    13f8:	f105 0501 	add.w	r5, r5, #1
    13fc:	f04f 0300 	mov.w	r3, #0
    1400:	d884      	bhi.n	130c <nrf_fprintf_fmt+0x94>
    1402:	eb03 0383 	add.w	r3, r3, r3, lsl #2
    1406:	eb02 0343 	add.w	r3, r2, r3, lsl #1
    140a:	f815 2f01 	ldrb.w	r2, [r5, #1]!
    140e:	f1a2 0130 	sub.w	r1, r2, #48	; 0x30
    1412:	2909      	cmp	r1, #9
    1414:	f1a3 0330 	sub.w	r3, r3, #48	; 0x30
    1418:	d9f3      	bls.n	1402 <nrf_fprintf_fmt+0x18a>
    141a:	e777      	b.n	130c <nrf_fprintf_fmt+0x94>
    141c:	f8d8 2000 	ldr.w	r2, [r8]
    1420:	1d11      	adds	r1, r2, #4
    1422:	f8c8 1000 	str.w	r1, [r8]
    1426:	f8d2 b000 	ldr.w	fp, [r2]
    142a:	ea8b 72eb 	eor.w	r2, fp, fp, asr #31
    142e:	eba2 72eb 	sub.w	r2, r2, fp, asr #31
    1432:	2a09      	cmp	r2, #9
    1434:	f340 81c7 	ble.w	17c6 <nrf_fprintf_fmt+0x54e>
    1438:	f8df c398 	ldr.w	ip, [pc, #920]	; 17d4 <nrf_fprintf_fmt+0x55c>
    143c:	2001      	movs	r0, #1
    143e:	4611      	mov	r1, r2
    1440:	2963      	cmp	r1, #99	; 0x63
    1442:	fbac e202 	umull	lr, r2, ip, r2
    1446:	f100 0001 	add.w	r0, r0, #1
    144a:	ea4f 02d2 	mov.w	r2, r2, lsr #3
    144e:	dcf6      	bgt.n	143e <nrf_fprintf_fmt+0x1c6>
    1450:	4298      	cmp	r0, r3
    1452:	4602      	mov	r2, r0
    1454:	bf38      	it	cc
    1456:	461a      	movcc	r2, r3
    1458:	9202      	str	r2, [sp, #8]
    145a:	b1fc      	cbz	r4, 149c <nrf_fprintf_fmt+0x224>
    145c:	f1bb 0f00 	cmp.w	fp, #0
    1460:	f2c0 814a 	blt.w	16f8 <nrf_fprintf_fmt+0x480>
    1464:	077a      	lsls	r2, r7, #29
    1466:	f100 8147 	bmi.w	16f8 <nrf_fprintf_fmt+0x480>
    146a:	07b8      	lsls	r0, r7, #30
    146c:	d500      	bpl.n	1470 <nrf_fprintf_fmt+0x1f8>
    146e:	b1ab      	cbz	r3, 149c <nrf_fprintf_fmt+0x224>
    1470:	07f9      	lsls	r1, r7, #31
    1472:	d413      	bmi.n	149c <nrf_fprintf_fmt+0x224>
    1474:	b18c      	cbz	r4, 149a <nrf_fprintf_fmt+0x222>
    1476:	2220      	movs	r2, #32
    1478:	9902      	ldr	r1, [sp, #8]
    147a:	42a1      	cmp	r1, r4
    147c:	d20e      	bcs.n	149c <nrf_fprintf_fmt+0x224>
    147e:	68b1      	ldr	r1, [r6, #8]
    1480:	1c48      	adds	r0, r1, #1
    1482:	60b0      	str	r0, [r6, #8]
    1484:	6830      	ldr	r0, [r6, #0]
    1486:	5442      	strb	r2, [r0, r1]
    1488:	e9d6 0101 	ldrd	r0, r1, [r6, #4]
    148c:	4281      	cmp	r1, r0
    148e:	f104 34ff 	add.w	r4, r4, #4294967295	; 0xffffffff
    1492:	f080 818a 	bcs.w	17aa <nrf_fprintf_fmt+0x532>
    1496:	2c00      	cmp	r4, #0
    1498:	d1ee      	bne.n	1478 <nrf_fprintf_fmt+0x200>
    149a:	2400      	movs	r4, #0
    149c:	f1bb 0f00 	cmp.w	fp, #0
    14a0:	f2c0 8117 	blt.w	16d2 <nrf_fprintf_fmt+0x45a>
    14a4:	077a      	lsls	r2, r7, #29
    14a6:	f100 816b 	bmi.w	1780 <nrf_fprintf_fmt+0x508>
    14aa:	f007 0203 	and.w	r2, r7, #3
    14ae:	2a02      	cmp	r2, #2
    14b0:	f000 814e 	beq.w	1750 <nrf_fprintf_fmt+0x4d8>
    14b4:	e9cd 4700 	strd	r4, r7, [sp]
    14b8:	4659      	mov	r1, fp
    14ba:	220a      	movs	r2, #10
    14bc:	4630      	mov	r0, r6
    14be:	f7ff fe2b 	bl	1118 <unsigned_print>
    14c2:	1c6c      	adds	r4, r5, #1
    14c4:	e75f      	b.n	1386 <nrf_fprintf_fmt+0x10e>
    14c6:	f8d8 3000 	ldr.w	r3, [r8]
    14ca:	1d1a      	adds	r2, r3, #4
    14cc:	f8c8 2000 	str.w	r2, [r8]
    14d0:	681f      	ldr	r7, [r3, #0]
    14d2:	68b3      	ldr	r3, [r6, #8]
    14d4:	6832      	ldr	r2, [r6, #0]
    14d6:	1c58      	adds	r0, r3, #1
    14d8:	2130      	movs	r1, #48	; 0x30
    14da:	60b0      	str	r0, [r6, #8]
    14dc:	54d1      	strb	r1, [r2, r3]
    14de:	e9d6 2301 	ldrd	r2, r3, [r6, #4]
    14e2:	4293      	cmp	r3, r2
    14e4:	f080 80f0 	bcs.w	16c8 <nrf_fprintf_fmt+0x450>
    14e8:	1c59      	adds	r1, r3, #1
    14ea:	6832      	ldr	r2, [r6, #0]
    14ec:	60b1      	str	r1, [r6, #8]
    14ee:	2178      	movs	r1, #120	; 0x78
    14f0:	54d1      	strb	r1, [r2, r3]
    14f2:	e9d6 3201 	ldrd	r3, r2, [r6, #4]
    14f6:	429a      	cmp	r2, r3
    14f8:	f080 80e1 	bcs.w	16be <nrf_fprintf_fmt+0x446>
    14fc:	2f0f      	cmp	r7, #15
    14fe:	d903      	bls.n	1508 <nrf_fprintf_fmt+0x290>
    1500:	463b      	mov	r3, r7
    1502:	091b      	lsrs	r3, r3, #4
    1504:	2b0f      	cmp	r3, #15
    1506:	d8fc      	bhi.n	1502 <nrf_fprintf_fmt+0x28a>
    1508:	f04f 5480 	mov.w	r4, #268435456	; 0x10000000
    150c:	e006      	b.n	151c <nrf_fprintf_fmt+0x2a4>
    150e:	2c0f      	cmp	r4, #15
    1510:	ea4f 1314 	mov.w	r3, r4, lsr #4
    1514:	f67f af36 	bls.w	1384 <nrf_fprintf_fmt+0x10c>
    1518:	68b2      	ldr	r2, [r6, #8]
    151a:	461c      	mov	r4, r3
    151c:	fbb7 f3f4 	udiv	r3, r7, r4
    1520:	f819 b003 	ldrb.w	fp, [r9, r3]
    1524:	f1bb 0f0a 	cmp.w	fp, #10
    1528:	fb04 7713 	mls	r7, r4, r3, r7
    152c:	d077      	beq.n	161e <nrf_fprintf_fmt+0x3a6>
    152e:	6833      	ldr	r3, [r6, #0]
    1530:	1c51      	adds	r1, r2, #1
    1532:	60b1      	str	r1, [r6, #8]
    1534:	f803 b002 	strb.w	fp, [r3, r2]
    1538:	e9d6 3201 	ldrd	r3, r2, [r6, #4]
    153c:	429a      	cmp	r2, r3
    153e:	d3e6      	bcc.n	150e <nrf_fprintf_fmt+0x296>
    1540:	4630      	mov	r0, r6
    1542:	f7ff fdcd 	bl	10e0 <nrf_fprintf_buffer_flush>
    1546:	e7e2      	b.n	150e <nrf_fprintf_fmt+0x296>
    1548:	f8d8 3000 	ldr.w	r3, [r8]
    154c:	1d1a      	adds	r2, r3, #4
    154e:	f8c8 2000 	str.w	r2, [r8]
    1552:	781c      	ldrb	r4, [r3, #0]
    1554:	68b3      	ldr	r3, [r6, #8]
    1556:	2c0a      	cmp	r4, #10
    1558:	f000 8118 	beq.w	178c <nrf_fprintf_fmt+0x514>
    155c:	6832      	ldr	r2, [r6, #0]
    155e:	1c59      	adds	r1, r3, #1
    1560:	60b1      	str	r1, [r6, #8]
    1562:	54d4      	strb	r4, [r2, r3]
    1564:	e9d6 3201 	ldrd	r3, r2, [r6, #4]
    1568:	429a      	cmp	r2, r3
    156a:	f4ff af0b 	bcc.w	1384 <nrf_fprintf_fmt+0x10c>
    156e:	4630      	mov	r0, r6
    1570:	f7ff fdb6 	bl	10e0 <nrf_fprintf_buffer_flush>
    1574:	1c6c      	adds	r4, r5, #1
    1576:	e706      	b.n	1386 <nrf_fprintf_fmt+0x10e>
    1578:	f8d8 1000 	ldr.w	r1, [r8]
    157c:	220a      	movs	r2, #10
    157e:	e6f8      	b.n	1372 <nrf_fprintf_fmt+0xfa>
    1580:	f8d8 3000 	ldr.w	r3, [r8]
    1584:	1d1a      	adds	r2, r3, #4
    1586:	f8c8 2000 	str.w	r2, [r8]
    158a:	f017 0701 	ands.w	r7, r7, #1
    158e:	f8d3 b000 	ldr.w	fp, [r3]
    1592:	d164      	bne.n	165e <nrf_fprintf_fmt+0x3e6>
    1594:	f1bb 0f00 	cmp.w	fp, #0
    1598:	d003      	beq.n	15a2 <nrf_fprintf_fmt+0x32a>
    159a:	4658      	mov	r0, fp
    159c:	f001 fdac 	bl	30f8 <strlen>
    15a0:	4607      	mov	r7, r0
    15a2:	42bc      	cmp	r4, r7
    15a4:	d915      	bls.n	15d2 <nrf_fprintf_fmt+0x35a>
    15a6:	2220      	movs	r2, #32
    15a8:	e001      	b.n	15ae <nrf_fprintf_fmt+0x336>
    15aa:	42bc      	cmp	r4, r7
    15ac:	d011      	beq.n	15d2 <nrf_fprintf_fmt+0x35a>
    15ae:	68b1      	ldr	r1, [r6, #8]
    15b0:	6833      	ldr	r3, [r6, #0]
    15b2:	1c48      	adds	r0, r1, #1
    15b4:	60b0      	str	r0, [r6, #8]
    15b6:	545a      	strb	r2, [r3, r1]
    15b8:	e9d6 3001 	ldrd	r3, r0, [r6, #4]
    15bc:	4298      	cmp	r0, r3
    15be:	f104 34ff 	add.w	r4, r4, #4294967295	; 0xffffffff
    15c2:	d3f2      	bcc.n	15aa <nrf_fprintf_fmt+0x332>
    15c4:	4630      	mov	r0, r6
    15c6:	f7ff fd8b 	bl	10e0 <nrf_fprintf_buffer_flush>
    15ca:	42bc      	cmp	r4, r7
    15cc:	f04f 0220 	mov.w	r2, #32
    15d0:	d1ed      	bne.n	15ae <nrf_fprintf_fmt+0x336>
    15d2:	f89b 4000 	ldrb.w	r4, [fp]
    15d6:	2c00      	cmp	r4, #0
    15d8:	f43f aed4 	beq.w	1384 <nrf_fprintf_fmt+0x10c>
    15dc:	2c0a      	cmp	r4, #10
    15de:	68b0      	ldr	r0, [r6, #8]
    15e0:	d00f      	beq.n	1602 <nrf_fprintf_fmt+0x38a>
    15e2:	6833      	ldr	r3, [r6, #0]
    15e4:	1c42      	adds	r2, r0, #1
    15e6:	60b2      	str	r2, [r6, #8]
    15e8:	541c      	strb	r4, [r3, r0]
    15ea:	e9d6 3001 	ldrd	r3, r0, [r6, #4]
    15ee:	4298      	cmp	r0, r3
    15f0:	f080 80a5 	bcs.w	173e <nrf_fprintf_fmt+0x4c6>
    15f4:	f81b 4f01 	ldrb.w	r4, [fp, #1]!
    15f8:	2c00      	cmp	r4, #0
    15fa:	f43f aec3 	beq.w	1384 <nrf_fprintf_fmt+0x10c>
    15fe:	2c0a      	cmp	r4, #10
    1600:	d1ef      	bne.n	15e2 <nrf_fprintf_fmt+0x36a>
    1602:	6833      	ldr	r3, [r6, #0]
    1604:	1c42      	adds	r2, r0, #1
    1606:	60b2      	str	r2, [r6, #8]
    1608:	f803 a000 	strb.w	sl, [r3, r0]
    160c:	e9d6 3001 	ldrd	r3, r0, [r6, #4]
    1610:	4298      	cmp	r0, r3
    1612:	d3e6      	bcc.n	15e2 <nrf_fprintf_fmt+0x36a>
    1614:	4630      	mov	r0, r6
    1616:	f7ff fd63 	bl	10e0 <nrf_fprintf_buffer_flush>
    161a:	68b0      	ldr	r0, [r6, #8]
    161c:	e7e1      	b.n	15e2 <nrf_fprintf_fmt+0x36a>
    161e:	6833      	ldr	r3, [r6, #0]
    1620:	1c51      	adds	r1, r2, #1
    1622:	60b1      	str	r1, [r6, #8]
    1624:	f803 a002 	strb.w	sl, [r3, r2]
    1628:	e9d6 3201 	ldrd	r3, r2, [r6, #4]
    162c:	429a      	cmp	r2, r3
    162e:	f4ff af7e 	bcc.w	152e <nrf_fprintf_fmt+0x2b6>
    1632:	4630      	mov	r0, r6
    1634:	f7ff fd54 	bl	10e0 <nrf_fprintf_buffer_flush>
    1638:	68b2      	ldr	r2, [r6, #8]
    163a:	e778      	b.n	152e <nrf_fprintf_fmt+0x2b6>
    163c:	4630      	mov	r0, r6
    163e:	b005      	add	sp, #20
    1640:	e8bd 4ff0 	ldmia.w	sp!, {r4, r5, r6, r7, r8, r9, sl, fp, lr}
    1644:	f7ff bd4c 	b.w	10e0 <nrf_fprintf_buffer_flush>
    1648:	68b3      	ldr	r3, [r6, #8]
    164a:	6831      	ldr	r1, [r6, #0]
    164c:	1c58      	adds	r0, r3, #1
    164e:	60b0      	str	r0, [r6, #8]
    1650:	54ca      	strb	r2, [r1, r3]
    1652:	e9d6 3201 	ldrd	r3, r2, [r6, #4]
    1656:	429a      	cmp	r2, r3
    1658:	d289      	bcs.n	156e <nrf_fprintf_fmt+0x2f6>
    165a:	1c6c      	adds	r4, r5, #1
    165c:	e693      	b.n	1386 <nrf_fprintf_fmt+0x10e>
    165e:	f89b 3000 	ldrb.w	r3, [fp]
    1662:	2b00      	cmp	r3, #0
    1664:	f000 80b1 	beq.w	17ca <nrf_fprintf_fmt+0x552>
    1668:	68b0      	ldr	r0, [r6, #8]
    166a:	465f      	mov	r7, fp
    166c:	f1cb 0201 	rsb	r2, fp, #1
    1670:	2b0a      	cmp	r3, #10
    1672:	eb02 0b07 	add.w	fp, r2, r7
    1676:	d04f      	beq.n	1718 <nrf_fprintf_fmt+0x4a0>
    1678:	1c41      	adds	r1, r0, #1
    167a:	60b1      	str	r1, [r6, #8]
    167c:	6831      	ldr	r1, [r6, #0]
    167e:	540b      	strb	r3, [r1, r0]
    1680:	e9d6 3001 	ldrd	r3, r0, [r6, #4]
    1684:	4298      	cmp	r0, r3
    1686:	d239      	bcs.n	16fc <nrf_fprintf_fmt+0x484>
    1688:	f817 3f01 	ldrb.w	r3, [r7, #1]!
    168c:	2b00      	cmp	r3, #0
    168e:	d1ef      	bne.n	1670 <nrf_fprintf_fmt+0x3f8>
    1690:	455c      	cmp	r4, fp
    1692:	f67f ae77 	bls.w	1384 <nrf_fprintf_fmt+0x10c>
    1696:	2720      	movs	r7, #32
    1698:	e002      	b.n	16a0 <nrf_fprintf_fmt+0x428>
    169a:	455c      	cmp	r4, fp
    169c:	f43f ae72 	beq.w	1384 <nrf_fprintf_fmt+0x10c>
    16a0:	68b2      	ldr	r2, [r6, #8]
    16a2:	6833      	ldr	r3, [r6, #0]
    16a4:	1c51      	adds	r1, r2, #1
    16a6:	60b1      	str	r1, [r6, #8]
    16a8:	549f      	strb	r7, [r3, r2]
    16aa:	e9d6 3201 	ldrd	r3, r2, [r6, #4]
    16ae:	429a      	cmp	r2, r3
    16b0:	f104 34ff 	add.w	r4, r4, #4294967295	; 0xffffffff
    16b4:	d3f1      	bcc.n	169a <nrf_fprintf_fmt+0x422>
    16b6:	4630      	mov	r0, r6
    16b8:	f7ff fd12 	bl	10e0 <nrf_fprintf_buffer_flush>
    16bc:	e7ed      	b.n	169a <nrf_fprintf_fmt+0x422>
    16be:	4630      	mov	r0, r6
    16c0:	f7ff fd0e 	bl	10e0 <nrf_fprintf_buffer_flush>
    16c4:	68b2      	ldr	r2, [r6, #8]
    16c6:	e719      	b.n	14fc <nrf_fprintf_fmt+0x284>
    16c8:	4630      	mov	r0, r6
    16ca:	f7ff fd09 	bl	10e0 <nrf_fprintf_buffer_flush>
    16ce:	68b3      	ldr	r3, [r6, #8]
    16d0:	e70a      	b.n	14e8 <nrf_fprintf_fmt+0x270>
    16d2:	68b1      	ldr	r1, [r6, #8]
    16d4:	6832      	ldr	r2, [r6, #0]
    16d6:	1c48      	adds	r0, r1, #1
    16d8:	60b0      	str	r0, [r6, #8]
    16da:	f1cb 0b00 	rsb	fp, fp, #0
    16de:	202d      	movs	r0, #45	; 0x2d
    16e0:	5450      	strb	r0, [r2, r1]
    16e2:	e9d6 2101 	ldrd	r2, r1, [r6, #4]
    16e6:	4291      	cmp	r1, r2
    16e8:	f4ff aedf 	bcc.w	14aa <nrf_fprintf_fmt+0x232>
    16ec:	4630      	mov	r0, r6
    16ee:	9303      	str	r3, [sp, #12]
    16f0:	f7ff fcf6 	bl	10e0 <nrf_fprintf_buffer_flush>
    16f4:	9b03      	ldr	r3, [sp, #12]
    16f6:	e6d8      	b.n	14aa <nrf_fprintf_fmt+0x232>
    16f8:	3c01      	subs	r4, #1
    16fa:	e6b6      	b.n	146a <nrf_fprintf_fmt+0x1f2>
    16fc:	4630      	mov	r0, r6
    16fe:	9202      	str	r2, [sp, #8]
    1700:	f7ff fcee 	bl	10e0 <nrf_fprintf_buffer_flush>
    1704:	f817 3f01 	ldrb.w	r3, [r7, #1]!
    1708:	2b00      	cmp	r3, #0
    170a:	d0c1      	beq.n	1690 <nrf_fprintf_fmt+0x418>
    170c:	9a02      	ldr	r2, [sp, #8]
    170e:	68b0      	ldr	r0, [r6, #8]
    1710:	2b0a      	cmp	r3, #10
    1712:	eb02 0b07 	add.w	fp, r2, r7
    1716:	d1af      	bne.n	1678 <nrf_fprintf_fmt+0x400>
    1718:	1c41      	adds	r1, r0, #1
    171a:	60b1      	str	r1, [r6, #8]
    171c:	6831      	ldr	r1, [r6, #0]
    171e:	f801 a000 	strb.w	sl, [r1, r0]
    1722:	e9d6 1001 	ldrd	r1, r0, [r6, #4]
    1726:	4288      	cmp	r0, r1
    1728:	d3a6      	bcc.n	1678 <nrf_fprintf_fmt+0x400>
    172a:	4630      	mov	r0, r6
    172c:	e9cd 3202 	strd	r3, r2, [sp, #8]
    1730:	f7ff fcd6 	bl	10e0 <nrf_fprintf_buffer_flush>
    1734:	e9dd 3202 	ldrd	r3, r2, [sp, #8]
    1738:	68b0      	ldr	r0, [r6, #8]
    173a:	e79d      	b.n	1678 <nrf_fprintf_fmt+0x400>
    173c:	4770      	bx	lr
    173e:	4630      	mov	r0, r6
    1740:	f7ff fcce 	bl	10e0 <nrf_fprintf_buffer_flush>
    1744:	f81b 4f01 	ldrb.w	r4, [fp, #1]!
    1748:	2c00      	cmp	r4, #0
    174a:	f47f af47 	bne.w	15dc <nrf_fprintf_fmt+0x364>
    174e:	e619      	b.n	1384 <nrf_fprintf_fmt+0x10c>
    1750:	2b00      	cmp	r3, #0
    1752:	f47f aeaf 	bne.w	14b4 <nrf_fprintf_fmt+0x23c>
    1756:	b18c      	cbz	r4, 177c <nrf_fprintf_fmt+0x504>
    1758:	2230      	movs	r2, #48	; 0x30
    175a:	9902      	ldr	r1, [sp, #8]
    175c:	42a1      	cmp	r1, r4
    175e:	f4bf aea9 	bcs.w	14b4 <nrf_fprintf_fmt+0x23c>
    1762:	68b1      	ldr	r1, [r6, #8]
    1764:	1c48      	adds	r0, r1, #1
    1766:	60b0      	str	r0, [r6, #8]
    1768:	6830      	ldr	r0, [r6, #0]
    176a:	5442      	strb	r2, [r0, r1]
    176c:	e9d6 0101 	ldrd	r0, r1, [r6, #4]
    1770:	4281      	cmp	r1, r0
    1772:	f104 34ff 	add.w	r4, r4, #4294967295	; 0xffffffff
    1776:	d21f      	bcs.n	17b8 <nrf_fprintf_fmt+0x540>
    1778:	2c00      	cmp	r4, #0
    177a:	d1ee      	bne.n	175a <nrf_fprintf_fmt+0x4e2>
    177c:	2400      	movs	r4, #0
    177e:	e699      	b.n	14b4 <nrf_fprintf_fmt+0x23c>
    1780:	68b1      	ldr	r1, [r6, #8]
    1782:	6832      	ldr	r2, [r6, #0]
    1784:	1c48      	adds	r0, r1, #1
    1786:	60b0      	str	r0, [r6, #8]
    1788:	202b      	movs	r0, #43	; 0x2b
    178a:	e7a9      	b.n	16e0 <nrf_fprintf_fmt+0x468>
    178c:	6832      	ldr	r2, [r6, #0]
    178e:	1c59      	adds	r1, r3, #1
    1790:	60b1      	str	r1, [r6, #8]
    1792:	f802 a003 	strb.w	sl, [r2, r3]
    1796:	e9d6 2301 	ldrd	r2, r3, [r6, #4]
    179a:	4293      	cmp	r3, r2
    179c:	f4ff aede 	bcc.w	155c <nrf_fprintf_fmt+0x2e4>
    17a0:	4630      	mov	r0, r6
    17a2:	f7ff fc9d 	bl	10e0 <nrf_fprintf_buffer_flush>
    17a6:	68b3      	ldr	r3, [r6, #8]
    17a8:	e6d8      	b.n	155c <nrf_fprintf_fmt+0x2e4>
    17aa:	4630      	mov	r0, r6
    17ac:	9303      	str	r3, [sp, #12]
    17ae:	f7ff fc97 	bl	10e0 <nrf_fprintf_buffer_flush>
    17b2:	9b03      	ldr	r3, [sp, #12]
    17b4:	2220      	movs	r2, #32
    17b6:	e66e      	b.n	1496 <nrf_fprintf_fmt+0x21e>
    17b8:	4630      	mov	r0, r6
    17ba:	9303      	str	r3, [sp, #12]
    17bc:	f7ff fc90 	bl	10e0 <nrf_fprintf_buffer_flush>
    17c0:	9b03      	ldr	r3, [sp, #12]
    17c2:	2230      	movs	r2, #48	; 0x30
    17c4:	e7d8      	b.n	1778 <nrf_fprintf_fmt+0x500>
    17c6:	2001      	movs	r0, #1
    17c8:	e642      	b.n	1450 <nrf_fprintf_fmt+0x1d8>
    17ca:	469b      	mov	fp, r3
    17cc:	e760      	b.n	1690 <nrf_fprintf_fmt+0x418>
    17ce:	bf00      	nop
    17d0:	000033e0 	.word	0x000033e0
    17d4:	cccccccd 	.word	0xcccccccd

000017d8 <nrf_memobj_pool_init>:
    17d8:	f7ff bc28 	b.w	102c <nrf_balloc_init>

000017dc <nrf_memobj_alloc>:
    17dc:	e92d 41f0 	stmdb	sp!, {r4, r5, r6, r7, r8, lr}
    17e0:	8a05      	ldrh	r5, [r0, #16]
    17e2:	3103      	adds	r1, #3
    17e4:	3d04      	subs	r5, #4
    17e6:	194e      	adds	r6, r1, r5
    17e8:	4680      	mov	r8, r0
    17ea:	fbb6 f6f5 	udiv	r6, r6, r5
    17ee:	f7ff fc3b 	bl	1068 <nrf_balloc_alloc>
    17f2:	b3a0      	cbz	r0, 185e <nrf_memobj_alloc+0x82>
    17f4:	b2f6      	uxtb	r6, r6
    17f6:	f44f 7380 	mov.w	r3, #256	; 0x100
    17fa:	3e01      	subs	r6, #1
    17fc:	4604      	mov	r4, r0
    17fe:	8083      	strh	r3, [r0, #4]
    1800:	80c5      	strh	r5, [r0, #6]
    1802:	f8c0 8000 	str.w	r8, [r0]
    1806:	d02b      	beq.n	1860 <nrf_memobj_alloc+0x84>
    1808:	4603      	mov	r3, r0
    180a:	2500      	movs	r5, #0
    180c:	e008      	b.n	1820 <nrf_memobj_alloc+0x44>
    180e:	7962      	ldrb	r2, [r4, #5]
    1810:	42ae      	cmp	r6, r5
    1812:	f102 0201 	add.w	r2, r2, #1
    1816:	7162      	strb	r2, [r4, #5]
    1818:	6038      	str	r0, [r7, #0]
    181a:	f8c0 8000 	str.w	r8, [r0]
    181e:	d01f      	beq.n	1860 <nrf_memobj_alloc+0x84>
    1820:	4640      	mov	r0, r8
    1822:	461f      	mov	r7, r3
    1824:	f7ff fc20 	bl	1068 <nrf_balloc_alloc>
    1828:	3501      	adds	r5, #1
    182a:	4603      	mov	r3, r0
    182c:	2800      	cmp	r0, #0
    182e:	d1ee      	bne.n	180e <nrf_memobj_alloc+0x32>
    1830:	7967      	ldrb	r7, [r4, #5]
    1832:	1e79      	subs	r1, r7, #1
    1834:	d017      	beq.n	1866 <nrf_memobj_alloc+0x8a>
    1836:	4622      	mov	r2, r4
    1838:	3301      	adds	r3, #1
    183a:	4299      	cmp	r1, r3
    183c:	6812      	ldr	r2, [r2, #0]
    183e:	d1fb      	bne.n	1838 <nrf_memobj_alloc+0x5c>
    1840:	f8d2 8000 	ldr.w	r8, [r2]
    1844:	b15f      	cbz	r7, 185e <nrf_memobj_alloc+0x82>
    1846:	6826      	ldr	r6, [r4, #0]
    1848:	2500      	movs	r5, #0
    184a:	e001      	b.n	1850 <nrf_memobj_alloc+0x74>
    184c:	4634      	mov	r4, r6
    184e:	6836      	ldr	r6, [r6, #0]
    1850:	4621      	mov	r1, r4
    1852:	4640      	mov	r0, r8
    1854:	3501      	adds	r5, #1
    1856:	f7ff fc2d 	bl	10b4 <nrf_balloc_free>
    185a:	42af      	cmp	r7, r5
    185c:	d8f6      	bhi.n	184c <nrf_memobj_alloc+0x70>
    185e:	2400      	movs	r4, #0
    1860:	4620      	mov	r0, r4
    1862:	e8bd 81f0 	ldmia.w	sp!, {r4, r5, r6, r7, r8, pc}
    1866:	6820      	ldr	r0, [r4, #0]
    1868:	4621      	mov	r1, r4
    186a:	f7ff fc23 	bl	10b4 <nrf_balloc_free>
    186e:	e7f6      	b.n	185e <nrf_memobj_alloc+0x82>

00001870 <nrf_memobj_get>:
    1870:	2101      	movs	r1, #1
    1872:	3004      	adds	r0, #4
    1874:	f7ff bbaa 	b.w	fcc <nrf_atomic_u32_add>

00001878 <nrf_memobj_put>:
    1878:	e92d 41f0 	stmdb	sp!, {r4, r5, r6, r7, r8, lr}
    187c:	2101      	movs	r1, #1
    187e:	4604      	mov	r4, r0
    1880:	3004      	adds	r0, #4
    1882:	f7ff fbaf 	bl	fe4 <nrf_atomic_u32_sub>
    1886:	f010 03ff 	ands.w	r3, r0, #255	; 0xff
    188a:	d001      	beq.n	1890 <nrf_memobj_put+0x18>
    188c:	e8bd 81f0 	ldmia.w	sp!, {r4, r5, r6, r7, r8, pc}
    1890:	7967      	ldrb	r7, [r4, #5]
    1892:	1e79      	subs	r1, r7, #1
    1894:	d016      	beq.n	18c4 <nrf_memobj_put+0x4c>
    1896:	4622      	mov	r2, r4
    1898:	3301      	adds	r3, #1
    189a:	4299      	cmp	r1, r3
    189c:	6812      	ldr	r2, [r2, #0]
    189e:	d1fb      	bne.n	1898 <nrf_memobj_put+0x20>
    18a0:	f8d2 8000 	ldr.w	r8, [r2]
    18a4:	2f00      	cmp	r7, #0
    18a6:	d0f1      	beq.n	188c <nrf_memobj_put+0x14>
    18a8:	6826      	ldr	r6, [r4, #0]
    18aa:	2500      	movs	r5, #0
    18ac:	e001      	b.n	18b2 <nrf_memobj_put+0x3a>
    18ae:	4634      	mov	r4, r6
    18b0:	6836      	ldr	r6, [r6, #0]
    18b2:	4621      	mov	r1, r4
    18b4:	4640      	mov	r0, r8
    18b6:	3501      	adds	r5, #1
    18b8:	f7ff fbfc 	bl	10b4 <nrf_balloc_free>
    18bc:	42af      	cmp	r7, r5
    18be:	d8f6      	bhi.n	18ae <nrf_memobj_put+0x36>
    18c0:	e8bd 81f0 	ldmia.w	sp!, {r4, r5, r6, r7, r8, pc}
    18c4:	6820      	ldr	r0, [r4, #0]
    18c6:	4621      	mov	r1, r4
    18c8:	e8bd 41f0 	ldmia.w	sp!, {r4, r5, r6, r7, r8, lr}
    18cc:	f7ff bbf2 	b.w	10b4 <nrf_balloc_free>

000018d0 <nrf_memobj_write>:
    18d0:	e92d 43f8 	stmdb	sp!, {r3, r4, r5, r6, r7, r8, r9, lr}
    18d4:	4688      	mov	r8, r1
    18d6:	88c7      	ldrh	r7, [r0, #6]
    18d8:	7941      	ldrb	r1, [r0, #5]
    18da:	fb07 f101 	mul.w	r1, r7, r1
    18de:	3904      	subs	r1, #4
    18e0:	eb02 0c03 	add.w	ip, r2, r3
    18e4:	1d1e      	adds	r6, r3, #4
    18e6:	4561      	cmp	r1, ip
    18e8:	4615      	mov	r5, r2
    18ea:	bf38      	it	cc
    18ec:	1acd      	subcc	r5, r1, r3
    18ee:	42b7      	cmp	r7, r6
    18f0:	4604      	mov	r4, r0
    18f2:	fbb6 f2f7 	udiv	r2, r6, r7
    18f6:	fb07 6012 	mls	r0, r7, r2, r6
    18fa:	d802      	bhi.n	1902 <nrf_memobj_write+0x32>
    18fc:	3a01      	subs	r2, #1
    18fe:	6824      	ldr	r4, [r4, #0]
    1900:	d1fc      	bne.n	18fc <nrf_memobj_write+0x2c>
    1902:	1a3e      	subs	r6, r7, r0
    1904:	42ae      	cmp	r6, r5
    1906:	bf28      	it	cs
    1908:	462e      	movcs	r6, r5
    190a:	b19d      	cbz	r5, 1934 <nrf_memobj_write+0x64>
    190c:	f04f 0900 	mov.w	r9, #0
    1910:	3004      	adds	r0, #4
    1912:	1bad      	subs	r5, r5, r6
    1914:	4632      	mov	r2, r6
    1916:	eb08 0109 	add.w	r1, r8, r9
    191a:	4420      	add	r0, r4
    191c:	f001 fbde 	bl	30dc <memcpy>
    1920:	42af      	cmp	r7, r5
    1922:	44b1      	add	r9, r6
    1924:	6824      	ldr	r4, [r4, #0]
    1926:	463e      	mov	r6, r7
    1928:	f04f 0000 	mov.w	r0, #0
    192c:	bf28      	it	cs
    192e:	462e      	movcs	r6, r5
    1930:	2d00      	cmp	r5, #0
    1932:	d1ed      	bne.n	1910 <nrf_memobj_write+0x40>
    1934:	e8bd 83f8 	ldmia.w	sp!, {r3, r4, r5, r6, r7, r8, r9, pc}

00001938 <nrf_memobj_read>:
    1938:	e92d 43f8 	stmdb	sp!, {r3, r4, r5, r6, r7, r8, r9, lr}
    193c:	4604      	mov	r4, r0
    193e:	88c7      	ldrh	r7, [r0, #6]
    1940:	7940      	ldrb	r0, [r0, #5]
    1942:	fb07 f000 	mul.w	r0, r7, r0
    1946:	3804      	subs	r0, #4
    1948:	eb02 0c03 	add.w	ip, r2, r3
    194c:	1d1e      	adds	r6, r3, #4
    194e:	4560      	cmp	r0, ip
    1950:	4615      	mov	r5, r2
    1952:	bf38      	it	cc
    1954:	1ac5      	subcc	r5, r0, r3
    1956:	42b7      	cmp	r7, r6
    1958:	4688      	mov	r8, r1
    195a:	fbb6 f1f7 	udiv	r1, r6, r7
    195e:	fb07 6211 	mls	r2, r7, r1, r6
    1962:	d802      	bhi.n	196a <nrf_memobj_read+0x32>
    1964:	3901      	subs	r1, #1
    1966:	6824      	ldr	r4, [r4, #0]
    1968:	d1fc      	bne.n	1964 <nrf_memobj_read+0x2c>
    196a:	1abe      	subs	r6, r7, r2
    196c:	42ae      	cmp	r6, r5
    196e:	bf28      	it	cs
    1970:	462e      	movcs	r6, r5
    1972:	b19d      	cbz	r5, 199c <nrf_memobj_read+0x64>
    1974:	f04f 0900 	mov.w	r9, #0
    1978:	1d11      	adds	r1, r2, #4
    197a:	1bad      	subs	r5, r5, r6
    197c:	4632      	mov	r2, r6
    197e:	4421      	add	r1, r4
    1980:	eb08 0009 	add.w	r0, r8, r9
    1984:	f001 fbaa 	bl	30dc <memcpy>
    1988:	42af      	cmp	r7, r5
    198a:	44b1      	add	r9, r6
    198c:	6824      	ldr	r4, [r4, #0]
    198e:	463e      	mov	r6, r7
    1990:	f04f 0200 	mov.w	r2, #0
    1994:	bf28      	it	cs
    1996:	462e      	movcs	r6, r5
    1998:	2d00      	cmp	r5, #0
    199a:	d1ed      	bne.n	1978 <nrf_memobj_read+0x40>
    199c:	e8bd 83f8 	ldmia.w	sp!, {r3, r4, r5, r6, r7, r8, r9, pc}

000019a0 <nrf_ringbuf_init>:
    19a0:	6882      	ldr	r2, [r0, #8]
    19a2:	2300      	movs	r3, #0
    19a4:	6093      	str	r3, [r2, #8]
    19a6:	6882      	ldr	r2, [r0, #8]
    19a8:	6113      	str	r3, [r2, #16]
    19aa:	6882      	ldr	r2, [r0, #8]
    19ac:	6153      	str	r3, [r2, #20]
    19ae:	6882      	ldr	r2, [r0, #8]
    19b0:	60d3      	str	r3, [r2, #12]
    19b2:	6882      	ldr	r2, [r0, #8]
    19b4:	6053      	str	r3, [r2, #4]
    19b6:	6882      	ldr	r2, [r0, #8]
    19b8:	6013      	str	r3, [r2, #0]
    19ba:	4770      	bx	lr

000019bc <uarte_evt_handler>:
    19bc:	b530      	push	{r4, r5, lr}
    19be:	4b0a      	ldr	r3, [pc, #40]	; (19e8 <uarte_evt_handler+0x2c>)
    19c0:	4c0a      	ldr	r4, [pc, #40]	; (19ec <uarte_evt_handler+0x30>)
    19c2:	f853 3021 	ldr.w	r3, [r3, r1, lsl #2]
    19c6:	f854 1021 	ldr.w	r1, [r4, r1, lsl #2]
    19ca:	7802      	ldrb	r2, [r0, #0]
    19cc:	b085      	sub	sp, #20
    19ce:	e9d0 5401 	ldrd	r5, r4, [r0, #4]
    19d2:	f88d 2000 	strb.w	r2, [sp]
    19d6:	68c2      	ldr	r2, [r0, #12]
    19d8:	9501      	str	r5, [sp, #4]
    19da:	f88d 4008 	strb.w	r4, [sp, #8]
    19de:	9203      	str	r2, [sp, #12]
    19e0:	4668      	mov	r0, sp
    19e2:	4798      	blx	r3
    19e4:	b005      	add	sp, #20
    19e6:	bd30      	pop	{r4, r5, pc}
    19e8:	20000644 	.word	0x20000644
    19ec:	20000640 	.word	0x20000640

000019f0 <uart_evt_handler>:
    19f0:	b530      	push	{r4, r5, lr}
    19f2:	4b0a      	ldr	r3, [pc, #40]	; (1a1c <uart_evt_handler+0x2c>)
    19f4:	4c0a      	ldr	r4, [pc, #40]	; (1a20 <uart_evt_handler+0x30>)
    19f6:	f853 3021 	ldr.w	r3, [r3, r1, lsl #2]
    19fa:	f854 1021 	ldr.w	r1, [r4, r1, lsl #2]
    19fe:	7802      	ldrb	r2, [r0, #0]
    1a00:	b085      	sub	sp, #20
    1a02:	e9d0 5401 	ldrd	r5, r4, [r0, #4]
    1a06:	f88d 2000 	strb.w	r2, [sp]
    1a0a:	68c2      	ldr	r2, [r0, #12]
    1a0c:	9501      	str	r5, [sp, #4]
    1a0e:	f88d 4008 	strb.w	r4, [sp, #8]
    1a12:	9203      	str	r2, [sp, #12]
    1a14:	4668      	mov	r0, sp
    1a16:	4798      	blx	r3
    1a18:	b005      	add	sp, #20
    1a1a:	bd30      	pop	{r4, r5, pc}
    1a1c:	20000644 	.word	0x20000644
    1a20:	20000640 	.word	0x20000640

00001a24 <nrf_drv_uart_init>:
    1a24:	b5f0      	push	{r4, r5, r6, r7, lr}
    1a26:	4b17      	ldr	r3, [pc, #92]	; (1a84 <nrf_drv_uart_init+0x60>)
    1a28:	7806      	ldrb	r6, [r0, #0]
    1a2a:	7f4f      	ldrb	r7, [r1, #29]
    1a2c:	f843 2026 	str.w	r2, [r3, r6, lsl #2]
    1a30:	4614      	mov	r4, r2
    1a32:	4b15      	ldr	r3, [pc, #84]	; (1a88 <nrf_drv_uart_init+0x64>)
    1a34:	4a15      	ldr	r2, [pc, #84]	; (1a8c <nrf_drv_uart_init+0x68>)
    1a36:	559f      	strb	r7, [r3, r6]
    1a38:	4605      	mov	r5, r0
    1a3a:	6908      	ldr	r0, [r1, #16]
    1a3c:	f842 0026 	str.w	r0, [r2, r6, lsl #2]
    1a40:	468c      	mov	ip, r1
    1a42:	e8bc 000f 	ldmia.w	ip!, {r0, r1, r2, r3}
    1a46:	b089      	sub	sp, #36	; 0x24
    1a48:	46ee      	mov	lr, sp
    1a4a:	e8ae 000f 	stmia.w	lr!, {r0, r1, r2, r3}
    1a4e:	e89c 000f 	ldmia.w	ip, {r0, r1, r2, r3}
    1a52:	e88e 000f 	stmia.w	lr, {r0, r1, r2, r3}
    1a56:	9604      	str	r6, [sp, #16]
    1a58:	b14f      	cbz	r7, 1a6e <nrf_drv_uart_init+0x4a>
    1a5a:	2c00      	cmp	r4, #0
    1a5c:	4a0c      	ldr	r2, [pc, #48]	; (1a90 <nrf_drv_uart_init+0x6c>)
    1a5e:	4669      	mov	r1, sp
    1a60:	bf08      	it	eq
    1a62:	4622      	moveq	r2, r4
    1a64:	1d28      	adds	r0, r5, #4
    1a66:	f000 fd97 	bl	2598 <nrfx_uarte_init>
    1a6a:	b009      	add	sp, #36	; 0x24
    1a6c:	bdf0      	pop	{r4, r5, r6, r7, pc}
    1a6e:	2c00      	cmp	r4, #0
    1a70:	4a08      	ldr	r2, [pc, #32]	; (1a94 <nrf_drv_uart_init+0x70>)
    1a72:	4669      	mov	r1, sp
    1a74:	bf08      	it	eq
    1a76:	4622      	moveq	r2, r4
    1a78:	f105 000c 	add.w	r0, r5, #12
    1a7c:	f000 fb28 	bl	20d0 <nrfx_uart_init>
    1a80:	b009      	add	sp, #36	; 0x24
    1a82:	bdf0      	pop	{r4, r5, r6, r7, pc}
    1a84:	20000644 	.word	0x20000644
    1a88:	20000648 	.word	0x20000648
    1a8c:	20000640 	.word	0x20000640
    1a90:	000019bd 	.word	0x000019bd
    1a94:	000019f1 	.word	0x000019f1

00001a98 <nrfx_i2s_init>:
    1a98:	e92d 41f0 	stmdb	sp!, {r4, r5, r6, r7, r8, lr}
    1a9c:	4d54      	ldr	r5, [pc, #336]	; (1bf0 <nrfx_i2s_init+0x158>)
    1a9e:	792b      	ldrb	r3, [r5, #4]
    1aa0:	2b00      	cmp	r3, #0
    1aa2:	f040 8092 	bne.w	1bca <nrfx_i2s_init+0x132>
    1aa6:	7982      	ldrb	r2, [r0, #6]
    1aa8:	f890 8007 	ldrb.w	r8, [r0, #7]
    1aac:	f890 e008 	ldrb.w	lr, [r0, #8]
    1ab0:	7a46      	ldrb	r6, [r0, #9]
    1ab2:	f890 c00a 	ldrb.w	ip, [r0, #10]
    1ab6:	68c4      	ldr	r4, [r0, #12]
    1ab8:	7c07      	ldrb	r7, [r0, #16]
    1aba:	b92a      	cbnz	r2, 1ac8 <nrfx_i2s_init+0x30>
    1abc:	2e01      	cmp	r6, #1
    1abe:	f000 8092 	beq.w	1be6 <nrfx_i2s_init+0x14e>
    1ac2:	2e02      	cmp	r6, #2
    1ac4:	f000 8084 	beq.w	1bd0 <nrfx_i2s_init+0x138>
    1ac8:	4b4a      	ldr	r3, [pc, #296]	; (1bf4 <nrfx_i2s_init+0x15c>)
    1aca:	f8c3 2504 	str.w	r2, [r3, #1284]	; 0x504
    1ace:	f8c3 8524 	str.w	r8, [r3, #1316]	; 0x524
    1ad2:	f8c3 e520 	str.w	lr, [r3, #1312]	; 0x520
    1ad6:	f8c3 651c 	str.w	r6, [r3, #1308]	; 0x51c
    1ada:	f8c3 c528 	str.w	ip, [r3, #1320]	; 0x528
    1ade:	f8c3 7518 	str.w	r7, [r3, #1304]	; 0x518
    1ae2:	2c00      	cmp	r4, #0
    1ae4:	d04f      	beq.n	1b86 <nrfx_i2s_init+0xee>
    1ae6:	2201      	movs	r2, #1
    1ae8:	f8c3 4514 	str.w	r4, [r3, #1300]	; 0x514
    1aec:	f8c3 2510 	str.w	r2, [r3, #1296]	; 0x510
    1af0:	7983      	ldrb	r3, [r0, #6]
    1af2:	2b00      	cmp	r3, #0
    1af4:	d14c      	bne.n	1b90 <nrfx_i2s_init+0xf8>
    1af6:	7803      	ldrb	r3, [r0, #0]
    1af8:	f04f 42a0 	mov.w	r2, #1342177280	; 0x50000000
    1afc:	f503 73e0 	add.w	r3, r3, #448	; 0x1c0
    1b00:	2403      	movs	r4, #3
    1b02:	f842 4023 	str.w	r4, [r2, r3, lsl #2]
    1b06:	7843      	ldrb	r3, [r0, #1]
    1b08:	f503 73e0 	add.w	r3, r3, #448	; 0x1c0
    1b0c:	f842 4023 	str.w	r4, [r2, r3, lsl #2]
    1b10:	7886      	ldrb	r6, [r0, #2]
    1b12:	2eff      	cmp	r6, #255	; 0xff
    1b14:	d04c      	beq.n	1bb0 <nrfx_i2s_init+0x118>
    1b16:	f04f 43a0 	mov.w	r3, #1342177280	; 0x50000000
    1b1a:	f506 72e0 	add.w	r2, r6, #448	; 0x1c0
    1b1e:	2403      	movs	r4, #3
    1b20:	f843 4022 	str.w	r4, [r3, r2, lsl #2]
    1b24:	78c4      	ldrb	r4, [r0, #3]
    1b26:	2cff      	cmp	r4, #255	; 0xff
    1b28:	d047      	beq.n	1bba <nrfx_i2s_init+0x122>
    1b2a:	f504 72e0 	add.w	r2, r4, #448	; 0x1c0
    1b2e:	f04f 43a0 	mov.w	r3, #1342177280	; 0x50000000
    1b32:	2703      	movs	r7, #3
    1b34:	f843 7022 	str.w	r7, [r3, r2, lsl #2]
    1b38:	7902      	ldrb	r2, [r0, #4]
    1b3a:	2aff      	cmp	r2, #255	; 0xff
    1b3c:	d042      	beq.n	1bc4 <nrfx_i2s_init+0x12c>
    1b3e:	f04f 43a0 	mov.w	r3, #1342177280	; 0x50000000
    1b42:	f502 77e0 	add.w	r7, r2, #448	; 0x1c0
    1b46:	f04f 0c00 	mov.w	ip, #0
    1b4a:	f843 c027 	str.w	ip, [r3, r7, lsl #2]
    1b4e:	4b29      	ldr	r3, [pc, #164]	; (1bf4 <nrfx_i2s_init+0x15c>)
    1b50:	f890 c000 	ldrb.w	ip, [r0]
    1b54:	7847      	ldrb	r7, [r0, #1]
    1b56:	f8c3 c564 	str.w	ip, [r3, #1380]	; 0x564
    1b5a:	f8c3 7568 	str.w	r7, [r3, #1384]	; 0x568
    1b5e:	f8c3 6560 	str.w	r6, [r3, #1376]	; 0x560
    1b62:	f8c3 4570 	str.w	r4, [r3, #1392]	; 0x570
    1b66:	f8c3 256c 	str.w	r2, [r3, #1388]	; 0x56c
    1b6a:	7943      	ldrb	r3, [r0, #5]
    1b6c:	4a22      	ldr	r2, [pc, #136]	; (1bf8 <nrfx_i2s_init+0x160>)
    1b6e:	6029      	str	r1, [r5, #0]
    1b70:	015b      	lsls	r3, r3, #5
    1b72:	b2db      	uxtb	r3, r3
    1b74:	f882 3325 	strb.w	r3, [r2, #805]	; 0x325
    1b78:	2320      	movs	r3, #32
    1b7a:	6053      	str	r3, [r2, #4]
    1b7c:	2301      	movs	r3, #1
    1b7e:	712b      	strb	r3, [r5, #4]
    1b80:	2000      	movs	r0, #0
    1b82:	e8bd 81f0 	ldmia.w	sp!, {r4, r5, r6, r7, r8, pc}
    1b86:	f8c3 4510 	str.w	r4, [r3, #1296]	; 0x510
    1b8a:	7983      	ldrb	r3, [r0, #6]
    1b8c:	2b00      	cmp	r3, #0
    1b8e:	d0b2      	beq.n	1af6 <nrfx_i2s_init+0x5e>
    1b90:	7803      	ldrb	r3, [r0, #0]
    1b92:	f04f 42a0 	mov.w	r2, #1342177280	; 0x50000000
    1b96:	f503 73e0 	add.w	r3, r3, #448	; 0x1c0
    1b9a:	2400      	movs	r4, #0
    1b9c:	f842 4023 	str.w	r4, [r2, r3, lsl #2]
    1ba0:	7843      	ldrb	r3, [r0, #1]
    1ba2:	f503 73e0 	add.w	r3, r3, #448	; 0x1c0
    1ba6:	f842 4023 	str.w	r4, [r2, r3, lsl #2]
    1baa:	7886      	ldrb	r6, [r0, #2]
    1bac:	2eff      	cmp	r6, #255	; 0xff
    1bae:	d1b2      	bne.n	1b16 <nrfx_i2s_init+0x7e>
    1bb0:	78c4      	ldrb	r4, [r0, #3]
    1bb2:	2cff      	cmp	r4, #255	; 0xff
    1bb4:	f04f 36ff 	mov.w	r6, #4294967295	; 0xffffffff
    1bb8:	d1b7      	bne.n	1b2a <nrfx_i2s_init+0x92>
    1bba:	7902      	ldrb	r2, [r0, #4]
    1bbc:	2aff      	cmp	r2, #255	; 0xff
    1bbe:	f04f 34ff 	mov.w	r4, #4294967295	; 0xffffffff
    1bc2:	d1bc      	bne.n	1b3e <nrfx_i2s_init+0xa6>
    1bc4:	f04f 32ff 	mov.w	r2, #4294967295	; 0xffffffff
    1bc8:	e7c1      	b.n	1b4e <nrfx_i2s_init+0xb6>
    1bca:	2008      	movs	r0, #8
    1bcc:	e8bd 81f0 	ldmia.w	sp!, {r4, r5, r6, r7, r8, pc}
    1bd0:	2f08      	cmp	r7, #8
    1bd2:	f63f af79 	bhi.w	1ac8 <nrfx_i2s_init+0x30>
    1bd6:	f240 1355 	movw	r3, #341	; 0x155
    1bda:	40fb      	lsrs	r3, r7
    1bdc:	07db      	lsls	r3, r3, #31
    1bde:	f57f af73 	bpl.w	1ac8 <nrfx_i2s_init+0x30>
    1be2:	2007      	movs	r0, #7
    1be4:	e7cd      	b.n	1b82 <nrfx_i2s_init+0xea>
    1be6:	2f01      	cmp	r7, #1
    1be8:	f47f af6e 	bne.w	1ac8 <nrfx_i2s_init+0x30>
    1bec:	e7f9      	b.n	1be2 <nrfx_i2s_init+0x14a>
    1bee:	bf00      	nop
    1bf0:	2000064c 	.word	0x2000064c
    1bf4:	40025000 	.word	0x40025000
    1bf8:	e000e100 	.word	0xe000e100

00001bfc <nrfx_i2s_start>:
    1bfc:	4b37      	ldr	r3, [pc, #220]	; (1cdc <nrfx_i2s_start+0xe0>)
    1bfe:	791a      	ldrb	r2, [r3, #4]
    1c00:	2a01      	cmp	r2, #1
    1c02:	d164      	bne.n	1cce <nrfx_i2s_start+0xd2>
    1c04:	b430      	push	{r4, r5}
    1c06:	6802      	ldr	r2, [r0, #0]
    1c08:	b084      	sub	sp, #16
    1c0a:	460c      	mov	r4, r1
    1c0c:	b122      	cbz	r2, 1c18 <nrfx_i2s_start+0x1c>
    1c0e:	f002 4160 	and.w	r1, r2, #3758096384	; 0xe0000000
    1c12:	f1b1 5f00 	cmp.w	r1, #536870912	; 0x20000000
    1c16:	d15c      	bne.n	1cd2 <nrfx_i2s_start+0xd6>
    1c18:	6841      	ldr	r1, [r0, #4]
    1c1a:	b121      	cbz	r1, 1c26 <nrfx_i2s_start+0x2a>
    1c1c:	f001 4160 	and.w	r1, r1, #3758096384	; 0xe0000000
    1c20:	f1b1 5f00 	cmp.w	r1, #536870912	; 0x20000000
    1c24:	d155      	bne.n	1cd2 <nrfx_i2s_start+0xd6>
    1c26:	7959      	ldrb	r1, [r3, #5]
    1c28:	3a00      	subs	r2, #0
    1c2a:	bf18      	it	ne
    1c2c:	2201      	movne	r2, #1
    1c2e:	f362 0100 	bfi	r1, r2, #0, #1
    1c32:	7159      	strb	r1, [r3, #5]
    1c34:	6841      	ldr	r1, [r0, #4]
    1c36:	795a      	ldrb	r2, [r3, #5]
    1c38:	80dc      	strh	r4, [r3, #6]
    1c3a:	3900      	subs	r1, #0
    1c3c:	bf18      	it	ne
    1c3e:	2101      	movne	r1, #1
    1c40:	f022 021e 	bic.w	r2, r2, #30
    1c44:	ea42 0241 	orr.w	r2, r2, r1, lsl #1
    1c48:	715a      	strb	r2, [r3, #5]
    1c4a:	c803      	ldmia	r0, {r0, r1}
    1c4c:	4a24      	ldr	r2, [pc, #144]	; (1ce0 <nrfx_i2s_start+0xe4>)
    1c4e:	e882 0003 	stmia.w	r2, {r0, r1}
    1c52:	e9d3 1502 	ldrd	r1, r5, [r3, #8]
    1c56:	4a23      	ldr	r2, [pc, #140]	; (1ce4 <nrfx_i2s_start+0xe8>)
    1c58:	2000      	movs	r0, #0
    1c5a:	6118      	str	r0, [r3, #16]
    1c5c:	6158      	str	r0, [r3, #20]
    1c5e:	f8c2 4550 	str.w	r4, [r2, #1360]	; 0x550
    1c62:	f8c2 1538 	str.w	r1, [r2, #1336]	; 0x538
    1c66:	1a09      	subs	r1, r1, r0
    1c68:	bf18      	it	ne
    1c6a:	2101      	movne	r1, #1
    1c6c:	f8c2 1508 	str.w	r1, [r2, #1288]	; 0x508
    1c70:	1a29      	subs	r1, r5, r0
    1c72:	bf18      	it	ne
    1c74:	2101      	movne	r1, #1
    1c76:	f8c2 5540 	str.w	r5, [r2, #1344]	; 0x540
    1c7a:	2401      	movs	r4, #1
    1c7c:	f8c2 150c 	str.w	r1, [r2, #1292]	; 0x50c
    1c80:	2102      	movs	r1, #2
    1c82:	f8c2 4500 	str.w	r4, [r2, #1280]	; 0x500
    1c86:	f8c2 0104 	str.w	r0, [r2, #260]	; 0x104
    1c8a:	7119      	strb	r1, [r3, #4]
    1c8c:	f8d2 1104 	ldr.w	r1, [r2, #260]	; 0x104
    1c90:	9103      	str	r1, [sp, #12]
    1c92:	9903      	ldr	r1, [sp, #12]
    1c94:	f8c2 0114 	str.w	r0, [r2, #276]	; 0x114
    1c98:	f8d2 1114 	ldr.w	r1, [r2, #276]	; 0x114
    1c9c:	9102      	str	r1, [sp, #8]
    1c9e:	9902      	ldr	r1, [sp, #8]
    1ca0:	f8c2 0108 	str.w	r0, [r2, #264]	; 0x108
    1ca4:	f8d2 1108 	ldr.w	r1, [r2, #264]	; 0x108
    1ca8:	9101      	str	r1, [sp, #4]
    1caa:	9901      	ldr	r1, [sp, #4]
    1cac:	7959      	ldrb	r1, [r3, #5]
    1cae:	fa01 f304 	lsl.w	r3, r1, r4
    1cb2:	0109      	lsls	r1, r1, #4
    1cb4:	f001 0120 	and.w	r1, r1, #32
    1cb8:	f003 0302 	and.w	r3, r3, #2
    1cbc:	430b      	orrs	r3, r1
    1cbe:	f043 0304 	orr.w	r3, r3, #4
    1cc2:	f8c2 3304 	str.w	r3, [r2, #772]	; 0x304
    1cc6:	6014      	str	r4, [r2, #0]
    1cc8:	b004      	add	sp, #16
    1cca:	bc30      	pop	{r4, r5}
    1ccc:	4770      	bx	lr
    1cce:	2008      	movs	r0, #8
    1cd0:	4770      	bx	lr
    1cd2:	2010      	movs	r0, #16
    1cd4:	b004      	add	sp, #16
    1cd6:	bc30      	pop	{r4, r5}
    1cd8:	4770      	bx	lr
    1cda:	bf00      	nop
    1cdc:	2000064c 	.word	0x2000064c
    1ce0:	20000654 	.word	0x20000654
    1ce4:	40025000 	.word	0x40025000

00001ce8 <nrfx_i2s_next_buffers_set>:
    1ce8:	4b17      	ldr	r3, [pc, #92]	; (1d48 <nrfx_i2s_next_buffers_set+0x60>)
    1cea:	795a      	ldrb	r2, [r3, #5]
    1cec:	06d2      	lsls	r2, r2, #27
    1cee:	d528      	bpl.n	1d42 <nrfx_i2s_next_buffers_set+0x5a>
    1cf0:	6802      	ldr	r2, [r0, #0]
    1cf2:	b122      	cbz	r2, 1cfe <nrfx_i2s_next_buffers_set+0x16>
    1cf4:	f002 4260 	and.w	r2, r2, #3758096384	; 0xe0000000
    1cf8:	f1b2 5f00 	cmp.w	r2, #536870912	; 0x20000000
    1cfc:	d11f      	bne.n	1d3e <nrfx_i2s_next_buffers_set+0x56>
    1cfe:	6842      	ldr	r2, [r0, #4]
    1d00:	b122      	cbz	r2, 1d0c <nrfx_i2s_next_buffers_set+0x24>
    1d02:	f002 4160 	and.w	r1, r2, #3758096384	; 0xe0000000
    1d06:	f1b1 5f00 	cmp.w	r1, #536870912	; 0x20000000
    1d0a:	d118      	bne.n	1d3e <nrfx_i2s_next_buffers_set+0x56>
    1d0c:	b410      	push	{r4}
    1d0e:	7959      	ldrb	r1, [r3, #5]
    1d10:	078c      	lsls	r4, r1, #30
    1d12:	bf44      	itt	mi
    1d14:	4c0d      	ldrmi	r4, [pc, #52]	; (1d4c <nrfx_i2s_next_buffers_set+0x64>)
    1d16:	f8c4 2540 	strmi.w	r2, [r4, #1344]	; 0x540
    1d1a:	07ca      	lsls	r2, r1, #31
    1d1c:	d503      	bpl.n	1d26 <nrfx_i2s_next_buffers_set+0x3e>
    1d1e:	4a0b      	ldr	r2, [pc, #44]	; (1d4c <nrfx_i2s_next_buffers_set+0x64>)
    1d20:	6801      	ldr	r1, [r0, #0]
    1d22:	f8c2 1538 	str.w	r1, [r2, #1336]	; 0x538
    1d26:	c803      	ldmia	r0, {r0, r1}
    1d28:	4c09      	ldr	r4, [pc, #36]	; (1d50 <nrfx_i2s_next_buffers_set+0x68>)
    1d2a:	795a      	ldrb	r2, [r3, #5]
    1d2c:	e884 0003 	stmia.w	r4, {r0, r1}
    1d30:	f36f 1204 	bfc	r2, #4, #1
    1d34:	715a      	strb	r2, [r3, #5]
    1d36:	2000      	movs	r0, #0
    1d38:	f85d 4b04 	ldr.w	r4, [sp], #4
    1d3c:	4770      	bx	lr
    1d3e:	2010      	movs	r0, #16
    1d40:	4770      	bx	lr
    1d42:	2008      	movs	r0, #8
    1d44:	4770      	bx	lr
    1d46:	bf00      	nop
    1d48:	2000064c 	.word	0x2000064c
    1d4c:	40025000 	.word	0x40025000
    1d50:	20000654 	.word	0x20000654

00001d54 <nrfx_i2s_stop>:
    1d54:	b410      	push	{r4}
    1d56:	4908      	ldr	r1, [pc, #32]	; (1d78 <nrfx_i2s_stop+0x24>)
    1d58:	4b08      	ldr	r3, [pc, #32]	; (1d7c <nrfx_i2s_stop+0x28>)
    1d5a:	7948      	ldrb	r0, [r1, #5]
    1d5c:	2201      	movs	r2, #1
    1d5e:	2422      	movs	r4, #34	; 0x22
    1d60:	f36f 1004 	bfc	r0, #4, #1
    1d64:	f8c3 4308 	str.w	r4, [r3, #776]	; 0x308
    1d68:	7148      	strb	r0, [r1, #5]
    1d6a:	605a      	str	r2, [r3, #4]
    1d6c:	639a      	str	r2, [r3, #56]	; 0x38
    1d6e:	63da      	str	r2, [r3, #60]	; 0x3c
    1d70:	f85d 4b04 	ldr.w	r4, [sp], #4
    1d74:	4770      	bx	lr
    1d76:	bf00      	nop
    1d78:	2000064c 	.word	0x2000064c
    1d7c:	40025000 	.word	0x40025000

00001d80 <I2S_IRQHandler>:
    1d80:	b570      	push	{r4, r5, r6, lr}
    1d82:	4b42      	ldr	r3, [pc, #264]	; (1e8c <I2S_IRQHandler+0x10c>)
    1d84:	4c42      	ldr	r4, [pc, #264]	; (1e90 <I2S_IRQHandler+0x110>)
    1d86:	f8d3 2114 	ldr.w	r2, [r3, #276]	; 0x114
    1d8a:	b084      	sub	sp, #16
    1d8c:	b192      	cbz	r2, 1db4 <I2S_IRQHandler+0x34>
    1d8e:	2200      	movs	r2, #0
    1d90:	f8c3 2114 	str.w	r2, [r3, #276]	; 0x114
    1d94:	7962      	ldrb	r2, [r4, #5]
    1d96:	f8d3 1114 	ldr.w	r1, [r3, #276]	; 0x114
    1d9a:	9100      	str	r1, [sp, #0]
    1d9c:	f042 0308 	orr.w	r3, r2, #8
    1da0:	f003 0112 	and.w	r1, r3, #18
    1da4:	2912      	cmp	r1, #18
    1da6:	461a      	mov	r2, r3
    1da8:	9800      	ldr	r0, [sp, #0]
    1daa:	7163      	strb	r3, [r4, #5]
    1dac:	bf04      	itt	eq
    1dae:	f043 0220 	orreq.w	r2, r3, #32
    1db2:	7162      	strbeq	r2, [r4, #5]
    1db4:	4b35      	ldr	r3, [pc, #212]	; (1e8c <I2S_IRQHandler+0x10c>)
    1db6:	f8d3 2104 	ldr.w	r2, [r3, #260]	; 0x104
    1dba:	b192      	cbz	r2, 1de2 <I2S_IRQHandler+0x62>
    1dbc:	2200      	movs	r2, #0
    1dbe:	f8c3 2104 	str.w	r2, [r3, #260]	; 0x104
    1dc2:	7962      	ldrb	r2, [r4, #5]
    1dc4:	f8d3 1104 	ldr.w	r1, [r3, #260]	; 0x104
    1dc8:	9101      	str	r1, [sp, #4]
    1dca:	f042 0304 	orr.w	r3, r2, #4
    1dce:	f003 0111 	and.w	r1, r3, #17
    1dd2:	2911      	cmp	r1, #17
    1dd4:	461a      	mov	r2, r3
    1dd6:	9801      	ldr	r0, [sp, #4]
    1dd8:	7163      	strb	r3, [r4, #5]
    1dda:	bf04      	itt	eq
    1ddc:	f043 0220 	orreq.w	r2, r3, #32
    1de0:	7162      	strbeq	r2, [r4, #5]
    1de2:	4b2a      	ldr	r3, [pc, #168]	; (1e8c <I2S_IRQHandler+0x10c>)
    1de4:	f8d3 2108 	ldr.w	r2, [r3, #264]	; 0x108
    1de8:	b1ba      	cbz	r2, 1e1a <I2S_IRQHandler+0x9a>
    1dea:	2500      	movs	r5, #0
    1dec:	f8c3 5108 	str.w	r5, [r3, #264]	; 0x108
    1df0:	f8d3 2108 	ldr.w	r2, [r3, #264]	; 0x108
    1df4:	9202      	str	r2, [sp, #8]
    1df6:	2204      	movs	r2, #4
    1df8:	9902      	ldr	r1, [sp, #8]
    1dfa:	f8c3 2308 	str.w	r2, [r3, #776]	; 0x308
    1dfe:	f8c3 5500 	str.w	r5, [r3, #1280]	; 0x500
    1e02:	4824      	ldr	r0, [pc, #144]	; (1e94 <I2S_IRQHandler+0x114>)
    1e04:	6823      	ldr	r3, [r4, #0]
    1e06:	4629      	mov	r1, r5
    1e08:	4798      	blx	r3
    1e0a:	6823      	ldr	r3, [r4, #0]
    1e0c:	4822      	ldr	r0, [pc, #136]	; (1e98 <I2S_IRQHandler+0x118>)
    1e0e:	4629      	mov	r1, r5
    1e10:	4798      	blx	r3
    1e12:	2301      	movs	r3, #1
    1e14:	7123      	strb	r3, [r4, #4]
    1e16:	b004      	add	sp, #16
    1e18:	bd70      	pop	{r4, r5, r6, pc}
    1e1a:	7963      	ldrb	r3, [r4, #5]
    1e1c:	f003 020f 	and.w	r2, r3, #15
    1e20:	2a0f      	cmp	r2, #15
    1e22:	d003      	beq.n	1e2c <I2S_IRQHandler+0xac>
    1e24:	07d8      	lsls	r0, r3, #31
    1e26:	d415      	bmi.n	1e54 <I2S_IRQHandler+0xd4>
    1e28:	0719      	lsls	r1, r3, #28
    1e2a:	d513      	bpl.n	1e54 <I2S_IRQHandler+0xd4>
    1e2c:	7962      	ldrb	r2, [r4, #5]
    1e2e:	f022 020c 	bic.w	r2, r2, #12
    1e32:	f012 0620 	ands.w	r6, r2, #32
    1e36:	4613      	mov	r3, r2
    1e38:	7162      	strb	r2, [r4, #5]
    1e3a:	d011      	beq.n	1e60 <I2S_IRQHandler+0xe0>
    1e3c:	f022 0330 	bic.w	r3, r2, #48	; 0x30
    1e40:	6822      	ldr	r2, [r4, #0]
    1e42:	f043 0310 	orr.w	r3, r3, #16
    1e46:	2101      	movs	r1, #1
    1e48:	2000      	movs	r0, #0
    1e4a:	7163      	strb	r3, [r4, #5]
    1e4c:	b004      	add	sp, #16
    1e4e:	e8bd 4070 	ldmia.w	sp!, {r4, r5, r6, lr}
    1e52:	4710      	bx	r2
    1e54:	7962      	ldrb	r2, [r4, #5]
    1e56:	0792      	lsls	r2, r2, #30
    1e58:	d4dd      	bmi.n	1e16 <I2S_IRQHandler+0x96>
    1e5a:	075b      	lsls	r3, r3, #29
    1e5c:	d5db      	bpl.n	1e16 <I2S_IRQHandler+0x96>
    1e5e:	e7e5      	b.n	1e2c <I2S_IRQHandler+0xac>
    1e60:	4a0c      	ldr	r2, [pc, #48]	; (1e94 <I2S_IRQHandler+0x114>)
    1e62:	e892 0003 	ldmia.w	r2, {r0, r1}
    1e66:	ad02      	add	r5, sp, #8
    1e68:	e885 0003 	stmia.w	r5, {r0, r1}
    1e6c:	e912 0003 	ldmdb	r2, {r0, r1}
    1e70:	f043 0310 	orr.w	r3, r3, #16
    1e74:	e882 0003 	stmia.w	r2, {r0, r1}
    1e78:	7163      	strb	r3, [r4, #5]
    1e7a:	e9c4 6602 	strd	r6, r6, [r4, #8]
    1e7e:	6823      	ldr	r3, [r4, #0]
    1e80:	2101      	movs	r1, #1
    1e82:	4628      	mov	r0, r5
    1e84:	4798      	blx	r3
    1e86:	b004      	add	sp, #16
    1e88:	bd70      	pop	{r4, r5, r6, pc}
    1e8a:	bf00      	nop
    1e8c:	40025000 	.word	0x40025000
    1e90:	2000064c 	.word	0x2000064c
    1e94:	2000065c 	.word	0x2000065c
    1e98:	20000654 	.word	0x20000654

00001e9c <UARTE0_UART0_IRQHandler>:
    1e9c:	4b01      	ldr	r3, [pc, #4]	; (1ea4 <UARTE0_UART0_IRQHandler+0x8>)
    1e9e:	681b      	ldr	r3, [r3, #0]
    1ea0:	4718      	bx	r3
    1ea2:	bf00      	nop
    1ea4:	20000664 	.word	0x20000664

00001ea8 <nrfx_prs_acquire>:
    1ea8:	b538      	push	{r3, r4, r5, lr}
    1eaa:	4b0c      	ldr	r3, [pc, #48]	; (1edc <nrfx_prs_acquire+0x34>)
    1eac:	4298      	cmp	r0, r3
    1eae:	d113      	bne.n	1ed8 <nrfx_prs_acquire+0x30>
    1eb0:	2000      	movs	r0, #0
    1eb2:	460d      	mov	r5, r1
    1eb4:	f7ff f86e 	bl	f94 <app_util_critical_region_enter>
    1eb8:	4b09      	ldr	r3, [pc, #36]	; (1ee0 <nrfx_prs_acquire+0x38>)
    1eba:	791c      	ldrb	r4, [r3, #4]
    1ebc:	b124      	cbz	r4, 1ec8 <nrfx_prs_acquire+0x20>
    1ebe:	2000      	movs	r0, #0
    1ec0:	f7ff f870 	bl	fa4 <app_util_critical_region_exit>
    1ec4:	2011      	movs	r0, #17
    1ec6:	bd38      	pop	{r3, r4, r5, pc}
    1ec8:	2201      	movs	r2, #1
    1eca:	4620      	mov	r0, r4
    1ecc:	601d      	str	r5, [r3, #0]
    1ece:	711a      	strb	r2, [r3, #4]
    1ed0:	f7ff f868 	bl	fa4 <app_util_critical_region_exit>
    1ed4:	4620      	mov	r0, r4
    1ed6:	bd38      	pop	{r3, r4, r5, pc}
    1ed8:	2000      	movs	r0, #0
    1eda:	bd38      	pop	{r3, r4, r5, pc}
    1edc:	40002000 	.word	0x40002000
    1ee0:	20000664 	.word	0x20000664

00001ee4 <nrfx_prs_release>:
    1ee4:	4b03      	ldr	r3, [pc, #12]	; (1ef4 <nrfx_prs_release+0x10>)
    1ee6:	4298      	cmp	r0, r3
    1ee8:	d103      	bne.n	1ef2 <nrfx_prs_release+0xe>
    1eea:	4b03      	ldr	r3, [pc, #12]	; (1ef8 <nrfx_prs_release+0x14>)
    1eec:	2200      	movs	r2, #0
    1eee:	601a      	str	r2, [r3, #0]
    1ef0:	711a      	strb	r2, [r3, #4]
    1ef2:	4770      	bx	lr
    1ef4:	40002000 	.word	0x40002000
    1ef8:	20000664 	.word	0x20000664
    1efc:	00000000 	.word	0x00000000

00001f00 <nrfx_uart_0_irq_handler>:
    1f00:	b510      	push	{r4, lr}
    1f02:	4a71      	ldr	r2, [pc, #452]	; (20c8 <Heap_Size+0xc8>)
    1f04:	f8d2 3304 	ldr.w	r3, [r2, #772]	; 0x304
    1f08:	0599      	lsls	r1, r3, #22
    1f0a:	b08a      	sub	sp, #40	; 0x28
    1f0c:	d568      	bpl.n	1fe0 <nrfx_uart_0_irq_handler+0xe0>
    1f0e:	f8d2 3124 	ldr.w	r3, [r2, #292]	; 0x124
    1f12:	2b00      	cmp	r3, #0
    1f14:	d064      	beq.n	1fe0 <nrfx_uart_0_irq_handler+0xe0>
    1f16:	2300      	movs	r3, #0
    1f18:	f8c2 3124 	str.w	r3, [r2, #292]	; 0x124
    1f1c:	f8d2 3124 	ldr.w	r3, [r2, #292]	; 0x124
    1f20:	9301      	str	r3, [sp, #4]
    1f22:	f44f 7101 	mov.w	r1, #516	; 0x204
    1f26:	4b69      	ldr	r3, [pc, #420]	; (20cc <Heap_Size+0xcc>)
    1f28:	9801      	ldr	r0, [sp, #4]
    1f2a:	f8c2 1308 	str.w	r1, [r2, #776]	; 0x308
    1f2e:	f893 1029 	ldrb.w	r1, [r3, #41]	; 0x29
    1f32:	b909      	cbnz	r1, 1f38 <nrfx_uart_0_irq_handler+0x38>
    1f34:	2101      	movs	r1, #1
    1f36:	6051      	str	r1, [r2, #4]
    1f38:	4963      	ldr	r1, [pc, #396]	; (20c8 <Heap_Size+0xc8>)
    1f3a:	2202      	movs	r2, #2
    1f3c:	f88d 2018 	strb.w	r2, [sp, #24]
    1f40:	f8d1 2480 	ldr.w	r2, [r1, #1152]	; 0x480
    1f44:	f8c1 2480 	str.w	r2, [r1, #1152]	; 0x480
    1f48:	ed9f 7b5d 	vldr	d7, [pc, #372]	; 20c0 <Heap_Size+0xc0>
    1f4c:	6999      	ldr	r1, [r3, #24]
    1f4e:	68d8      	ldr	r0, [r3, #12]
    1f50:	e9cd 1208 	strd	r1, r2, [sp, #32]
    1f54:	ed83 7b06 	vstr	d7, [r3, #24]
    1f58:	e9d3 1200 	ldrd	r1, r2, [r3]
    1f5c:	9007      	str	r0, [sp, #28]
    1f5e:	a806      	add	r0, sp, #24
    1f60:	4790      	blx	r2
    1f62:	4a59      	ldr	r2, [pc, #356]	; (20c8 <Heap_Size+0xc8>)
    1f64:	f8d2 311c 	ldr.w	r3, [r2, #284]	; 0x11c
    1f68:	b1c3      	cbz	r3, 1f9c <nrfx_uart_0_irq_handler+0x9c>
    1f6a:	4b58      	ldr	r3, [pc, #352]	; (20cc <Heap_Size+0xcc>)
    1f6c:	6958      	ldr	r0, [r3, #20]
    1f6e:	6a19      	ldr	r1, [r3, #32]
    1f70:	4288      	cmp	r0, r1
    1f72:	d96a      	bls.n	204a <Heap_Size+0x4a>
    1f74:	f893 1028 	ldrb.w	r1, [r3, #40]	; 0x28
    1f78:	f001 00ff 	and.w	r0, r1, #255	; 0xff
    1f7c:	2900      	cmp	r1, #0
    1f7e:	d164      	bne.n	204a <Heap_Size+0x4a>
    1f80:	f8c2 011c 	str.w	r0, [r2, #284]	; 0x11c
    1f84:	f8d2 111c 	ldr.w	r1, [r2, #284]	; 0x11c
    1f88:	9103      	str	r1, [sp, #12]
    1f8a:	9903      	ldr	r1, [sp, #12]
    1f8c:	689c      	ldr	r4, [r3, #8]
    1f8e:	6a18      	ldr	r0, [r3, #32]
    1f90:	6a19      	ldr	r1, [r3, #32]
    1f92:	5c20      	ldrb	r0, [r4, r0]
    1f94:	3101      	adds	r1, #1
    1f96:	6219      	str	r1, [r3, #32]
    1f98:	f8c2 051c 	str.w	r0, [r2, #1308]	; 0x51c
    1f9c:	4a4a      	ldr	r2, [pc, #296]	; (20c8 <Heap_Size+0xc8>)
    1f9e:	f8d2 3144 	ldr.w	r3, [r2, #324]	; 0x144
    1fa2:	b1db      	cbz	r3, 1fdc <nrfx_uart_0_irq_handler+0xdc>
    1fa4:	2100      	movs	r1, #0
    1fa6:	4b49      	ldr	r3, [pc, #292]	; (20cc <Heap_Size+0xcc>)
    1fa8:	f8c2 1144 	str.w	r1, [r2, #324]	; 0x144
    1fac:	f8d2 0144 	ldr.w	r0, [r2, #324]	; 0x144
    1fb0:	f893 1029 	ldrb.w	r1, [r3, #41]	; 0x29
    1fb4:	9000      	str	r0, [sp, #0]
    1fb6:	9800      	ldr	r0, [sp, #0]
    1fb8:	b109      	cbz	r1, 1fbe <nrfx_uart_0_irq_handler+0xbe>
    1fba:	2101      	movs	r1, #1
    1fbc:	6011      	str	r1, [r2, #0]
    1fbe:	699a      	ldr	r2, [r3, #24]
    1fc0:	b162      	cbz	r2, 1fdc <nrfx_uart_0_irq_handler+0xdc>
    1fc2:	68d8      	ldr	r0, [r3, #12]
    1fc4:	6a5c      	ldr	r4, [r3, #36]	; 0x24
    1fc6:	2100      	movs	r1, #0
    1fc8:	2201      	movs	r2, #1
    1fca:	e9cd 0407 	strd	r0, r4, [sp, #28]
    1fce:	6199      	str	r1, [r3, #24]
    1fd0:	f88d 2018 	strb.w	r2, [sp, #24]
    1fd4:	a806      	add	r0, sp, #24
    1fd6:	e9d3 1200 	ldrd	r1, r2, [r3]
    1fda:	4790      	blx	r2
    1fdc:	b00a      	add	sp, #40	; 0x28
    1fde:	bd10      	pop	{r4, pc}
    1fe0:	4a39      	ldr	r2, [pc, #228]	; (20c8 <Heap_Size+0xc8>)
    1fe2:	f8d2 3304 	ldr.w	r3, [r2, #772]	; 0x304
    1fe6:	075b      	lsls	r3, r3, #29
    1fe8:	d5bb      	bpl.n	1f62 <nrfx_uart_0_irq_handler+0x62>
    1fea:	f8d2 3108 	ldr.w	r3, [r2, #264]	; 0x108
    1fee:	2b00      	cmp	r3, #0
    1ff0:	d0b7      	beq.n	1f62 <nrfx_uart_0_irq_handler+0x62>
    1ff2:	4b36      	ldr	r3, [pc, #216]	; (20cc <Heap_Size+0xcc>)
    1ff4:	6999      	ldr	r1, [r3, #24]
    1ff6:	2900      	cmp	r1, #0
    1ff8:	d03e      	beq.n	2078 <Heap_Size+0x78>
    1ffa:	2100      	movs	r1, #0
    1ffc:	f8c2 1108 	str.w	r1, [r2, #264]	; 0x108
    2000:	f8d2 1108 	ldr.w	r1, [r2, #264]	; 0x108
    2004:	9104      	str	r1, [sp, #16]
    2006:	9904      	ldr	r1, [sp, #16]
    2008:	68d8      	ldr	r0, [r3, #12]
    200a:	6a59      	ldr	r1, [r3, #36]	; 0x24
    200c:	f8d2 2518 	ldr.w	r2, [r2, #1304]	; 0x518
    2010:	5442      	strb	r2, [r0, r1]
    2012:	6a5a      	ldr	r2, [r3, #36]	; 0x24
    2014:	6999      	ldr	r1, [r3, #24]
    2016:	3201      	adds	r2, #1
    2018:	625a      	str	r2, [r3, #36]	; 0x24
    201a:	6a5a      	ldr	r2, [r3, #36]	; 0x24
    201c:	428a      	cmp	r2, r1
    201e:	d1a0      	bne.n	1f62 <nrfx_uart_0_irq_handler+0x62>
    2020:	69da      	ldr	r2, [r3, #28]
    2022:	2a00      	cmp	r2, #0
    2024:	d031      	beq.n	208a <Heap_Size+0x8a>
    2026:	619a      	str	r2, [r3, #24]
    2028:	691a      	ldr	r2, [r3, #16]
    202a:	68d8      	ldr	r0, [r3, #12]
    202c:	6a5c      	ldr	r4, [r3, #36]	; 0x24
    202e:	60da      	str	r2, [r3, #12]
    2030:	2100      	movs	r1, #0
    2032:	2201      	movs	r2, #1
    2034:	9408      	str	r4, [sp, #32]
    2036:	61d9      	str	r1, [r3, #28]
    2038:	6259      	str	r1, [r3, #36]	; 0x24
    203a:	9007      	str	r0, [sp, #28]
    203c:	685c      	ldr	r4, [r3, #4]
    203e:	6819      	ldr	r1, [r3, #0]
    2040:	f88d 2018 	strb.w	r2, [sp, #24]
    2044:	a806      	add	r0, sp, #24
    2046:	47a0      	blx	r4
    2048:	e78b      	b.n	1f62 <nrfx_uart_0_irq_handler+0x62>
    204a:	4a1f      	ldr	r2, [pc, #124]	; (20c8 <Heap_Size+0xc8>)
    204c:	2000      	movs	r0, #0
    204e:	f8c2 011c 	str.w	r0, [r2, #284]	; 0x11c
    2052:	f8d2 211c 	ldr.w	r2, [r2, #284]	; 0x11c
    2056:	9202      	str	r2, [sp, #8]
    2058:	9a02      	ldr	r2, [sp, #8]
    205a:	695a      	ldr	r2, [r3, #20]
    205c:	2a00      	cmp	r2, #0
    205e:	d09d      	beq.n	1f9c <nrfx_uart_0_irq_handler+0x9c>
    2060:	e9d3 2101 	ldrd	r2, r1, [r3, #4]
    2064:	695c      	ldr	r4, [r3, #20]
    2066:	f88d 0018 	strb.w	r0, [sp, #24]
    206a:	e9cd 1407 	strd	r1, r4, [sp, #28]
    206e:	6158      	str	r0, [r3, #20]
    2070:	6819      	ldr	r1, [r3, #0]
    2072:	a806      	add	r0, sp, #24
    2074:	4790      	blx	r2
    2076:	e791      	b.n	1f9c <nrfx_uart_0_irq_handler+0x9c>
    2078:	f8c2 1108 	str.w	r1, [r2, #264]	; 0x108
    207c:	f8d2 0108 	ldr.w	r0, [r2, #264]	; 0x108
    2080:	9005      	str	r0, [sp, #20]
    2082:	9805      	ldr	r0, [sp, #20]
    2084:	f8d2 2518 	ldr.w	r2, [r2, #1304]	; 0x518
    2088:	e7c7      	b.n	201a <Heap_Size+0x1a>
    208a:	f893 2029 	ldrb.w	r2, [r3, #41]	; 0x29
    208e:	b912      	cbnz	r2, 2096 <Heap_Size+0x96>
    2090:	4a0d      	ldr	r2, [pc, #52]	; (20c8 <Heap_Size+0xc8>)
    2092:	2101      	movs	r1, #1
    2094:	6051      	str	r1, [r2, #4]
    2096:	4a0c      	ldr	r2, [pc, #48]	; (20c8 <Heap_Size+0xc8>)
    2098:	f44f 7101 	mov.w	r1, #516	; 0x204
    209c:	f8c2 1308 	str.w	r1, [r2, #776]	; 0x308
    20a0:	68d8      	ldr	r0, [r3, #12]
    20a2:	6a5c      	ldr	r4, [r3, #36]	; 0x24
    20a4:	2100      	movs	r1, #0
    20a6:	2201      	movs	r2, #1
    20a8:	6199      	str	r1, [r3, #24]
    20aa:	f88d 2018 	strb.w	r2, [sp, #24]
    20ae:	e9d3 1200 	ldrd	r1, r2, [r3]
    20b2:	e9cd 0407 	strd	r0, r4, [sp, #28]
    20b6:	a806      	add	r0, sp, #24
    20b8:	4790      	blx	r2
    20ba:	e752      	b.n	1f62 <nrfx_uart_0_irq_handler+0x62>
    20bc:	f3af 8000 	nop.w
	...
    20c8:	40002000 	.word	0x40002000
    20cc:	20000670 	.word	0x20000670

000020d0 <nrfx_uart_init>:
    20d0:	e92d 41f0 	stmdb	sp!, {r4, r5, r6, r7, r8, lr}
    20d4:	4e60      	ldr	r6, [pc, #384]	; (2258 <nrfx_uart_init+0x188>)
    20d6:	f890 8004 	ldrb.w	r8, [r0, #4]
    20da:	232c      	movs	r3, #44	; 0x2c
    20dc:	fb03 6308 	mla	r3, r3, r8, r6
    20e0:	b082      	sub	sp, #8
    20e2:	f893 302a 	ldrb.w	r3, [r3, #42]	; 0x2a
    20e6:	2b00      	cmp	r3, #0
    20e8:	f040 8088 	bne.w	21fc <nrfx_uart_init+0x12c>
    20ec:	4605      	mov	r5, r0
    20ee:	460c      	mov	r4, r1
    20f0:	6800      	ldr	r0, [r0, #0]
    20f2:	495a      	ldr	r1, [pc, #360]	; (225c <nrfx_uart_init+0x18c>)
    20f4:	4617      	mov	r7, r2
    20f6:	f7ff fed7 	bl	1ea8 <nrfx_prs_acquire>
    20fa:	2800      	cmp	r0, #0
    20fc:	d17a      	bne.n	21f4 <nrfx_uart_init+0x124>
    20fe:	6823      	ldr	r3, [r4, #0]
    2100:	1c59      	adds	r1, r3, #1
    2102:	d00c      	beq.n	211e <nrfx_uart_init+0x4e>
    2104:	f04f 41a0 	mov.w	r1, #1342177280	; 0x50000000
    2108:	2201      	movs	r2, #1
    210a:	fa02 f303 	lsl.w	r3, r2, r3
    210e:	f8c1 3508 	str.w	r3, [r1, #1288]	; 0x508
    2112:	6823      	ldr	r3, [r4, #0]
    2114:	f503 73e0 	add.w	r3, r3, #448	; 0x1c0
    2118:	2203      	movs	r2, #3
    211a:	f841 2023 	str.w	r2, [r1, r3, lsl #2]
    211e:	6863      	ldr	r3, [r4, #4]
    2120:	1c5a      	adds	r2, r3, #1
    2122:	d006      	beq.n	2132 <nrfx_uart_init+0x62>
    2124:	f503 73e0 	add.w	r3, r3, #448	; 0x1c0
    2128:	f04f 42a0 	mov.w	r2, #1342177280	; 0x50000000
    212c:	2100      	movs	r1, #0
    212e:	f842 1023 	str.w	r1, [r2, r3, lsl #2]
    2132:	682b      	ldr	r3, [r5, #0]
    2134:	69a2      	ldr	r2, [r4, #24]
    2136:	f8c3 2524 	str.w	r2, [r3, #1316]	; 0x524
    213a:	7d22      	ldrb	r2, [r4, #20]
    213c:	7d63      	ldrb	r3, [r4, #21]
    213e:	4313      	orrs	r3, r2
    2140:	682a      	ldr	r2, [r5, #0]
    2142:	f8c2 356c 	str.w	r3, [r2, #1388]	; 0x56c
    2146:	e9d4 1200 	ldrd	r1, r2, [r4]
    214a:	682b      	ldr	r3, [r5, #0]
    214c:	f8c3 2514 	str.w	r2, [r3, #1300]	; 0x514
    2150:	f8c3 150c 	str.w	r1, [r3, #1292]	; 0x50c
    2154:	7d23      	ldrb	r3, [r4, #20]
    2156:	2b01      	cmp	r3, #1
    2158:	d05b      	beq.n	2212 <nrfx_uart_init+0x142>
    215a:	232c      	movs	r3, #44	; 0x2c
    215c:	fb03 f308 	mul.w	r3, r3, r8
    2160:	18f2      	adds	r2, r6, r3
    2162:	6057      	str	r7, [r2, #4]
    2164:	6922      	ldr	r2, [r4, #16]
    2166:	50f2      	str	r2, [r6, r3]
    2168:	b38f      	cbz	r7, 21ce <nrfx_uart_init+0xfe>
    216a:	682a      	ldr	r2, [r5, #0]
    216c:	7f23      	ldrb	r3, [r4, #28]
    216e:	2100      	movs	r1, #0
    2170:	f8c2 111c 	str.w	r1, [r2, #284]	; 0x11c
    2174:	f8d2 211c 	ldr.w	r2, [r2, #284]	; 0x11c
    2178:	9200      	str	r2, [sp, #0]
    217a:	9a00      	ldr	r2, [sp, #0]
    217c:	682a      	ldr	r2, [r5, #0]
    217e:	f8c2 1144 	str.w	r1, [r2, #324]	; 0x144
    2182:	f8d2 2144 	ldr.w	r2, [r2, #324]	; 0x144
    2186:	9201      	str	r2, [sp, #4]
    2188:	9a01      	ldr	r2, [sp, #4]
    218a:	682a      	ldr	r2, [r5, #0]
    218c:	4934      	ldr	r1, [pc, #208]	; (2260 <nrfx_uart_init+0x190>)
    218e:	f8c2 1304 	str.w	r1, [r2, #772]	; 0x304
    2192:	682a      	ldr	r2, [r5, #0]
    2194:	f342 3107 	sbfx	r1, r2, #12, #8
    2198:	2900      	cmp	r1, #0
    219a:	ea4f 3212 	mov.w	r2, r2, lsr #12
    219e:	db31      	blt.n	2204 <nrfx_uart_init+0x134>
    21a0:	f101 4160 	add.w	r1, r1, #3758096384	; 0xe0000000
    21a4:	015b      	lsls	r3, r3, #5
    21a6:	f501 4161 	add.w	r1, r1, #57600	; 0xe100
    21aa:	b2db      	uxtb	r3, r3
    21ac:	f881 3300 	strb.w	r3, [r1, #768]	; 0x300
    21b0:	682b      	ldr	r3, [r5, #0]
    21b2:	f343 3207 	sbfx	r2, r3, #12, #8
    21b6:	2a00      	cmp	r2, #0
    21b8:	ea4f 3113 	mov.w	r1, r3, lsr #12
    21bc:	db08      	blt.n	21d0 <nrfx_uart_init+0x100>
    21be:	4c29      	ldr	r4, [pc, #164]	; (2264 <nrfx_uart_init+0x194>)
    21c0:	0952      	lsrs	r2, r2, #5
    21c2:	f001 011f 	and.w	r1, r1, #31
    21c6:	2301      	movs	r3, #1
    21c8:	408b      	lsls	r3, r1
    21ca:	f844 3022 	str.w	r3, [r4, r2, lsl #2]
    21ce:	682b      	ldr	r3, [r5, #0]
    21d0:	2204      	movs	r2, #4
    21d2:	f8c3 2500 	str.w	r2, [r3, #1280]	; 0x500
    21d6:	232c      	movs	r3, #44	; 0x2c
    21d8:	fb03 6608 	mla	r6, r3, r8, r6
    21dc:	2201      	movs	r2, #1
    21de:	2300      	movs	r3, #0
    21e0:	e9c6 3306 	strd	r3, r3, [r6, #24]
    21e4:	f886 3029 	strb.w	r3, [r6, #41]	; 0x29
    21e8:	6173      	str	r3, [r6, #20]
    21ea:	f886 202a 	strb.w	r2, [r6, #42]	; 0x2a
    21ee:	b002      	add	sp, #8
    21f0:	e8bd 81f0 	ldmia.w	sp!, {r4, r5, r6, r7, r8, pc}
    21f4:	2011      	movs	r0, #17
    21f6:	b002      	add	sp, #8
    21f8:	e8bd 81f0 	ldmia.w	sp!, {r4, r5, r6, r7, r8, pc}
    21fc:	2008      	movs	r0, #8
    21fe:	b002      	add	sp, #8
    2200:	e8bd 81f0 	ldmia.w	sp!, {r4, r5, r6, r7, r8, pc}
    2204:	4918      	ldr	r1, [pc, #96]	; (2268 <nrfx_uart_init+0x198>)
    2206:	f002 020f 	and.w	r2, r2, #15
    220a:	015b      	lsls	r3, r3, #5
    220c:	b2db      	uxtb	r3, r3
    220e:	548b      	strb	r3, [r1, r2]
    2210:	e7ce      	b.n	21b0 <nrfx_uart_init+0xe0>
    2212:	68a3      	ldr	r3, [r4, #8]
    2214:	1c59      	adds	r1, r3, #1
    2216:	d006      	beq.n	2226 <nrfx_uart_init+0x156>
    2218:	f503 73e0 	add.w	r3, r3, #448	; 0x1c0
    221c:	f04f 42a0 	mov.w	r2, #1342177280	; 0x50000000
    2220:	2100      	movs	r1, #0
    2222:	f842 1023 	str.w	r1, [r2, r3, lsl #2]
    2226:	68e3      	ldr	r3, [r4, #12]
    2228:	1c5a      	adds	r2, r3, #1
    222a:	d00d      	beq.n	2248 <nrfx_uart_init+0x178>
    222c:	f04f 41a0 	mov.w	r1, #1342177280	; 0x50000000
    2230:	2201      	movs	r2, #1
    2232:	fa02 f303 	lsl.w	r3, r2, r3
    2236:	f8c1 3508 	str.w	r3, [r1, #1288]	; 0x508
    223a:	68e3      	ldr	r3, [r4, #12]
    223c:	f503 73e0 	add.w	r3, r3, #448	; 0x1c0
    2240:	2203      	movs	r2, #3
    2242:	f841 2023 	str.w	r2, [r1, r3, lsl #2]
    2246:	68e3      	ldr	r3, [r4, #12]
    2248:	682a      	ldr	r2, [r5, #0]
    224a:	68a1      	ldr	r1, [r4, #8]
    224c:	f8c2 3508 	str.w	r3, [r2, #1288]	; 0x508
    2250:	f8c2 1510 	str.w	r1, [r2, #1296]	; 0x510
    2254:	e781      	b.n	215a <nrfx_uart_init+0x8a>
    2256:	bf00      	nop
    2258:	20000670 	.word	0x20000670
    225c:	00001f01 	.word	0x00001f01
    2260:	00020080 	.word	0x00020080
    2264:	e000e100 	.word	0xe000e100
    2268:	e000ed14 	.word	0xe000ed14

0000226c <nrfx_uart_uninit>:
    226c:	b5f8      	push	{r3, r4, r5, r6, r7, lr}
    226e:	6803      	ldr	r3, [r0, #0]
    2270:	7906      	ldrb	r6, [r0, #4]
    2272:	4c32      	ldr	r4, [pc, #200]	; (233c <nrfx_uart_uninit+0xd0>)
    2274:	2200      	movs	r2, #0
    2276:	f8c3 2500 	str.w	r2, [r3, #1280]	; 0x500
    227a:	232c      	movs	r3, #44	; 0x2c
    227c:	fb03 4306 	mla	r3, r3, r6, r4
    2280:	685b      	ldr	r3, [r3, #4]
    2282:	b1bb      	cbz	r3, 22b4 <nrfx_uart_uninit+0x48>
    2284:	6803      	ldr	r3, [r0, #0]
    2286:	4a2e      	ldr	r2, [pc, #184]	; (2340 <nrfx_uart_uninit+0xd4>)
    2288:	f8c3 2308 	str.w	r2, [r3, #776]	; 0x308
    228c:	6803      	ldr	r3, [r0, #0]
    228e:	f343 3207 	sbfx	r2, r3, #12, #8
    2292:	2a00      	cmp	r2, #0
    2294:	ea4f 3113 	mov.w	r1, r3, lsr #12
    2298:	db0d      	blt.n	22b6 <nrfx_uart_uninit+0x4a>
    229a:	0952      	lsrs	r2, r2, #5
    229c:	4d29      	ldr	r5, [pc, #164]	; (2344 <nrfx_uart_uninit+0xd8>)
    229e:	f001 011f 	and.w	r1, r1, #31
    22a2:	3220      	adds	r2, #32
    22a4:	2301      	movs	r3, #1
    22a6:	408b      	lsls	r3, r1
    22a8:	f845 3022 	str.w	r3, [r5, r2, lsl #2]
    22ac:	f3bf 8f4f 	dsb	sy
    22b0:	f3bf 8f6f 	isb	sy
    22b4:	6803      	ldr	r3, [r0, #0]
    22b6:	f8d3 c50c 	ldr.w	ip, [r3, #1292]	; 0x50c
    22ba:	f8d3 7514 	ldr.w	r7, [r3, #1300]	; 0x514
    22be:	f8d3 1508 	ldr.w	r1, [r3, #1288]	; 0x508
    22c2:	f8d3 5510 	ldr.w	r5, [r3, #1296]	; 0x510
    22c6:	f04f 32ff 	mov.w	r2, #4294967295	; 0xffffffff
    22ca:	f8c3 2514 	str.w	r2, [r3, #1300]	; 0x514
    22ce:	f8c3 250c 	str.w	r2, [r3, #1292]	; 0x50c
    22d2:	6803      	ldr	r3, [r0, #0]
    22d4:	4594      	cmp	ip, r2
    22d6:	f8c3 2508 	str.w	r2, [r3, #1288]	; 0x508
    22da:	f8c3 2510 	str.w	r2, [r3, #1296]	; 0x510
    22de:	d006      	beq.n	22ee <nrfx_uart_uninit+0x82>
    22e0:	f50c 7ce0 	add.w	ip, ip, #448	; 0x1c0
    22e4:	f04f 43a0 	mov.w	r3, #1342177280	; 0x50000000
    22e8:	2202      	movs	r2, #2
    22ea:	f843 202c 	str.w	r2, [r3, ip, lsl #2]
    22ee:	1c7b      	adds	r3, r7, #1
    22f0:	d006      	beq.n	2300 <nrfx_uart_uninit+0x94>
    22f2:	f507 77e0 	add.w	r7, r7, #448	; 0x1c0
    22f6:	f04f 43a0 	mov.w	r3, #1342177280	; 0x50000000
    22fa:	2202      	movs	r2, #2
    22fc:	f843 2027 	str.w	r2, [r3, r7, lsl #2]
    2300:	1c6a      	adds	r2, r5, #1
    2302:	d006      	beq.n	2312 <nrfx_uart_uninit+0xa6>
    2304:	f505 75e0 	add.w	r5, r5, #448	; 0x1c0
    2308:	f04f 43a0 	mov.w	r3, #1342177280	; 0x50000000
    230c:	2202      	movs	r2, #2
    230e:	f843 2025 	str.w	r2, [r3, r5, lsl #2]
    2312:	1c4b      	adds	r3, r1, #1
    2314:	d006      	beq.n	2324 <nrfx_uart_uninit+0xb8>
    2316:	f04f 43a0 	mov.w	r3, #1342177280	; 0x50000000
    231a:	f501 71e0 	add.w	r1, r1, #448	; 0x1c0
    231e:	2202      	movs	r2, #2
    2320:	f843 2021 	str.w	r2, [r3, r1, lsl #2]
    2324:	6800      	ldr	r0, [r0, #0]
    2326:	f7ff fddd 	bl	1ee4 <nrfx_prs_release>
    232a:	232c      	movs	r3, #44	; 0x2c
    232c:	fb03 4406 	mla	r4, r3, r6, r4
    2330:	2300      	movs	r3, #0
    2332:	f884 302a 	strb.w	r3, [r4, #42]	; 0x2a
    2336:	6063      	str	r3, [r4, #4]
    2338:	bdf8      	pop	{r3, r4, r5, r6, r7, pc}
    233a:	bf00      	nop
    233c:	20000670 	.word	0x20000670
    2340:	00020284 	.word	0x00020284
    2344:	e000e100 	.word	0xe000e100

00002348 <nrfx_uart_tx>:
    2348:	e92d 41f0 	stmdb	sp!, {r4, r5, r6, r7, r8, lr}
    234c:	4c33      	ldr	r4, [pc, #204]	; (241c <nrfx_uart_tx+0xd4>)
    234e:	f890 e004 	ldrb.w	lr, [r0, #4]
    2352:	232c      	movs	r3, #44	; 0x2c
    2354:	fb03 430e 	mla	r3, r3, lr, r4
    2358:	4684      	mov	ip, r0
    235a:	6958      	ldr	r0, [r3, #20]
    235c:	b084      	sub	sp, #16
    235e:	2800      	cmp	r0, #0
    2360:	d14e      	bne.n	2400 <nrfx_uart_tx+0xb8>
    2362:	615a      	str	r2, [r3, #20]
    2364:	6099      	str	r1, [r3, #8]
    2366:	6218      	str	r0, [r3, #32]
    2368:	f883 0028 	strb.w	r0, [r3, #40]	; 0x28
    236c:	f8dc 2000 	ldr.w	r2, [ip]
    2370:	f8c2 011c 	str.w	r0, [r2, #284]	; 0x11c
    2374:	f8d2 211c 	ldr.w	r2, [r2, #284]	; 0x11c
    2378:	9202      	str	r2, [sp, #8]
    237a:	9a02      	ldr	r2, [sp, #8]
    237c:	f8dc 2000 	ldr.w	r2, [ip]
    2380:	2101      	movs	r1, #1
    2382:	6091      	str	r1, [r2, #8]
    2384:	f8dc 2000 	ldr.w	r2, [ip]
    2388:	689d      	ldr	r5, [r3, #8]
    238a:	f8c2 011c 	str.w	r0, [r2, #284]	; 0x11c
    238e:	f8d2 111c 	ldr.w	r1, [r2, #284]	; 0x11c
    2392:	9101      	str	r1, [sp, #4]
    2394:	9901      	ldr	r1, [sp, #4]
    2396:	6a19      	ldr	r1, [r3, #32]
    2398:	5c6e      	ldrb	r6, [r5, r1]
    239a:	6a19      	ldr	r1, [r3, #32]
    239c:	3101      	adds	r1, #1
    239e:	6219      	str	r1, [r3, #32]
    23a0:	f8c2 651c 	str.w	r6, [r2, #1308]	; 0x51c
    23a4:	685a      	ldr	r2, [r3, #4]
    23a6:	b112      	cbz	r2, 23ae <nrfx_uart_tx+0x66>
    23a8:	b004      	add	sp, #16
    23aa:	e8bd 81f0 	ldmia.w	sp!, {r4, r5, r6, r7, r8, pc}
    23ae:	695e      	ldr	r6, [r3, #20]
    23b0:	6a1a      	ldr	r2, [r3, #32]
    23b2:	f8dc 1000 	ldr.w	r1, [ip]
    23b6:	4296      	cmp	r6, r2
    23b8:	d91b      	bls.n	23f2 <nrfx_uart_tx+0xaa>
    23ba:	4607      	mov	r7, r0
    23bc:	e002      	b.n	23c4 <nrfx_uart_tx+0x7c>
    23be:	f893 2028 	ldrb.w	r2, [r3, #40]	; 0x28
    23c2:	bb0a      	cbnz	r2, 2408 <nrfx_uart_tx+0xc0>
    23c4:	f8d1 211c 	ldr.w	r2, [r1, #284]	; 0x11c
    23c8:	2a00      	cmp	r2, #0
    23ca:	d0f8      	beq.n	23be <nrfx_uart_tx+0x76>
    23cc:	f8c1 711c 	str.w	r7, [r1, #284]	; 0x11c
    23d0:	f8d1 211c 	ldr.w	r2, [r1, #284]	; 0x11c
    23d4:	9203      	str	r2, [sp, #12]
    23d6:	9a03      	ldr	r2, [sp, #12]
    23d8:	6a1a      	ldr	r2, [r3, #32]
    23da:	f815 8002 	ldrb.w	r8, [r5, r2]
    23de:	6a1a      	ldr	r2, [r3, #32]
    23e0:	3201      	adds	r2, #1
    23e2:	621a      	str	r2, [r3, #32]
    23e4:	f8c1 851c 	str.w	r8, [r1, #1308]	; 0x51c
    23e8:	6a1a      	ldr	r2, [r3, #32]
    23ea:	4296      	cmp	r6, r2
    23ec:	d8ea      	bhi.n	23c4 <nrfx_uart_tx+0x7c>
    23ee:	f8dc 1000 	ldr.w	r1, [ip]
    23f2:	f8d1 311c 	ldr.w	r3, [r1, #284]	; 0x11c
    23f6:	2b00      	cmp	r3, #0
    23f8:	d0fb      	beq.n	23f2 <nrfx_uart_tx+0xaa>
    23fa:	2301      	movs	r3, #1
    23fc:	60cb      	str	r3, [r1, #12]
    23fe:	e004      	b.n	240a <nrfx_uart_tx+0xc2>
    2400:	2011      	movs	r0, #17
    2402:	b004      	add	sp, #16
    2404:	e8bd 81f0 	ldmia.w	sp!, {r4, r5, r6, r7, r8, pc}
    2408:	200f      	movs	r0, #15
    240a:	232c      	movs	r3, #44	; 0x2c
    240c:	fb03 440e 	mla	r4, r3, lr, r4
    2410:	2300      	movs	r3, #0
    2412:	6163      	str	r3, [r4, #20]
    2414:	b004      	add	sp, #16
    2416:	e8bd 81f0 	ldmia.w	sp!, {r4, r5, r6, r7, r8, pc}
    241a:	bf00      	nop
    241c:	20000670 	.word	0x20000670

00002420 <nrfx_uarte_0_irq_handler>:
    2420:	b510      	push	{r4, lr}
    2422:	4b5b      	ldr	r3, [pc, #364]	; (2590 <nrfx_uarte_0_irq_handler+0x170>)
    2424:	f8d3 2124 	ldr.w	r2, [r3, #292]	; 0x124
    2428:	b08a      	sub	sp, #40	; 0x28
    242a:	2a00      	cmp	r2, #0
    242c:	d058      	beq.n	24e0 <nrfx_uarte_0_irq_handler+0xc0>
    242e:	2200      	movs	r2, #0
    2430:	f8c3 2124 	str.w	r2, [r3, #292]	; 0x124
    2434:	f8d3 1124 	ldr.w	r1, [r3, #292]	; 0x124
    2438:	9104      	str	r1, [sp, #16]
    243a:	2202      	movs	r2, #2
    243c:	f88d 2018 	strb.w	r2, [sp, #24]
    2440:	9904      	ldr	r1, [sp, #16]
    2442:	4a54      	ldr	r2, [pc, #336]	; (2594 <nrfx_uarte_0_irq_handler+0x174>)
    2444:	f8d3 1480 	ldr.w	r1, [r3, #1152]	; 0x480
    2448:	f8c3 1480 	str.w	r1, [r3, #1152]	; 0x480
    244c:	ed9f 7b4e 	vldr	d7, [pc, #312]	; 2588 <nrfx_uarte_0_irq_handler+0x168>
    2450:	9109      	str	r1, [sp, #36]	; 0x24
    2452:	f8d3 453c 	ldr.w	r4, [r3, #1340]	; 0x53c
    2456:	68d0      	ldr	r0, [r2, #12]
    2458:	ed82 7b06 	vstr	d7, [r2, #24]
    245c:	e9cd 0407 	strd	r0, r4, [sp, #28]
    2460:	e9d2 1300 	ldrd	r1, r3, [r2]
    2464:	a806      	add	r0, sp, #24
    2466:	4798      	blx	r3
    2468:	4b49      	ldr	r3, [pc, #292]	; (2590 <nrfx_uarte_0_irq_handler+0x170>)
    246a:	f8d3 2144 	ldr.w	r2, [r3, #324]	; 0x144
    246e:	b152      	cbz	r2, 2486 <nrfx_uarte_0_irq_handler+0x66>
    2470:	2100      	movs	r1, #0
    2472:	4a48      	ldr	r2, [pc, #288]	; (2594 <nrfx_uarte_0_irq_handler+0x174>)
    2474:	f8c3 1144 	str.w	r1, [r3, #324]	; 0x144
    2478:	f8d3 0144 	ldr.w	r0, [r3, #324]	; 0x144
    247c:	6991      	ldr	r1, [r2, #24]
    247e:	9003      	str	r0, [sp, #12]
    2480:	9803      	ldr	r0, [sp, #12]
    2482:	2900      	cmp	r1, #0
    2484:	d161      	bne.n	254a <nrfx_uarte_0_irq_handler+0x12a>
    2486:	4b42      	ldr	r3, [pc, #264]	; (2590 <nrfx_uarte_0_irq_handler+0x170>)
    2488:	f8d3 2120 	ldr.w	r2, [r3, #288]	; 0x120
    248c:	b162      	cbz	r2, 24a8 <nrfx_uarte_0_irq_handler+0x88>
    248e:	2000      	movs	r0, #0
    2490:	f8c3 0120 	str.w	r0, [r3, #288]	; 0x120
    2494:	f8d3 2120 	ldr.w	r2, [r3, #288]	; 0x120
    2498:	9202      	str	r2, [sp, #8]
    249a:	2101      	movs	r1, #1
    249c:	4a3d      	ldr	r2, [pc, #244]	; (2594 <nrfx_uarte_0_irq_handler+0x174>)
    249e:	9c02      	ldr	r4, [sp, #8]
    24a0:	60d9      	str	r1, [r3, #12]
    24a2:	6951      	ldr	r1, [r2, #20]
    24a4:	2900      	cmp	r1, #0
    24a6:	d143      	bne.n	2530 <nrfx_uarte_0_irq_handler+0x110>
    24a8:	4b39      	ldr	r3, [pc, #228]	; (2590 <nrfx_uarte_0_irq_handler+0x170>)
    24aa:	f8d3 2158 	ldr.w	r2, [r3, #344]	; 0x158
    24ae:	b1aa      	cbz	r2, 24dc <nrfx_uarte_0_irq_handler+0xbc>
    24b0:	2000      	movs	r0, #0
    24b2:	f8c3 0158 	str.w	r0, [r3, #344]	; 0x158
    24b6:	f8d3 1158 	ldr.w	r1, [r3, #344]	; 0x158
    24ba:	4a36      	ldr	r2, [pc, #216]	; (2594 <nrfx_uarte_0_irq_handler+0x174>)
    24bc:	9101      	str	r1, [sp, #4]
    24be:	9901      	ldr	r1, [sp, #4]
    24c0:	6951      	ldr	r1, [r2, #20]
    24c2:	b159      	cbz	r1, 24dc <nrfx_uarte_0_irq_handler+0xbc>
    24c4:	f8d3 454c 	ldr.w	r4, [r3, #1356]	; 0x54c
    24c8:	f88d 0018 	strb.w	r0, [sp, #24]
    24cc:	e9d2 3101 	ldrd	r3, r1, [r2, #4]
    24d0:	6150      	str	r0, [r2, #20]
    24d2:	e9cd 1407 	strd	r1, r4, [sp, #28]
    24d6:	a806      	add	r0, sp, #24
    24d8:	6811      	ldr	r1, [r2, #0]
    24da:	4798      	blx	r3
    24dc:	b00a      	add	sp, #40	; 0x28
    24de:	bd10      	pop	{r4, pc}
    24e0:	f8d3 1110 	ldr.w	r1, [r3, #272]	; 0x110
    24e4:	2900      	cmp	r1, #0
    24e6:	d0bf      	beq.n	2468 <nrfx_uarte_0_irq_handler+0x48>
    24e8:	f8c3 2110 	str.w	r2, [r3, #272]	; 0x110
    24ec:	f8d3 1110 	ldr.w	r1, [r3, #272]	; 0x110
    24f0:	4c28      	ldr	r4, [pc, #160]	; (2594 <nrfx_uarte_0_irq_handler+0x174>)
    24f2:	9105      	str	r1, [sp, #20]
    24f4:	9905      	ldr	r1, [sp, #20]
    24f6:	69a1      	ldr	r1, [r4, #24]
    24f8:	f8d3 053c 	ldr.w	r0, [r3, #1340]	; 0x53c
    24fc:	4288      	cmp	r0, r1
    24fe:	d1b3      	bne.n	2468 <nrfx_uarte_0_irq_handler+0x48>
    2500:	69e1      	ldr	r1, [r4, #28]
    2502:	2900      	cmp	r1, #0
    2504:	d033      	beq.n	256e <nrfx_uarte_0_irq_handler+0x14e>
    2506:	e9c4 1206 	strd	r1, r2, [r4, #24]
    250a:	f8d3 2200 	ldr.w	r2, [r3, #512]	; 0x200
    250e:	f022 0220 	bic.w	r2, r2, #32
    2512:	f8c3 2200 	str.w	r2, [r3, #512]	; 0x200
    2516:	68e2      	ldr	r2, [r4, #12]
    2518:	9207      	str	r2, [sp, #28]
    251a:	2101      	movs	r1, #1
    251c:	6922      	ldr	r2, [r4, #16]
    251e:	f88d 1018 	strb.w	r1, [sp, #24]
    2522:	9008      	str	r0, [sp, #32]
    2524:	6863      	ldr	r3, [r4, #4]
    2526:	6821      	ldr	r1, [r4, #0]
    2528:	60e2      	str	r2, [r4, #12]
    252a:	a806      	add	r0, sp, #24
    252c:	4798      	blx	r3
    252e:	e79b      	b.n	2468 <nrfx_uarte_0_irq_handler+0x48>
    2530:	f8d3 454c 	ldr.w	r4, [r3, #1356]	; 0x54c
    2534:	f88d 0018 	strb.w	r0, [sp, #24]
    2538:	e9d2 3101 	ldrd	r3, r1, [r2, #4]
    253c:	6150      	str	r0, [r2, #20]
    253e:	e9cd 1407 	strd	r1, r4, [sp, #28]
    2542:	a806      	add	r0, sp, #24
    2544:	6811      	ldr	r1, [r2, #0]
    2546:	4798      	blx	r3
    2548:	e7ae      	b.n	24a8 <nrfx_uarte_0_irq_handler+0x88>
    254a:	ed9f 7b0f 	vldr	d7, [pc, #60]	; 2588 <nrfx_uarte_0_irq_handler+0x168>
    254e:	f8d3 453c 	ldr.w	r4, [r3, #1340]	; 0x53c
    2552:	68d0      	ldr	r0, [r2, #12]
    2554:	f04f 0c01 	mov.w	ip, #1
    2558:	e9cd 0407 	strd	r0, r4, [sp, #28]
    255c:	ed82 7b06 	vstr	d7, [r2, #24]
    2560:	e9d2 1300 	ldrd	r1, r3, [r2]
    2564:	f88d c018 	strb.w	ip, [sp, #24]
    2568:	a806      	add	r0, sp, #24
    256a:	4798      	blx	r3
    256c:	e78b      	b.n	2486 <nrfx_uarte_0_irq_handler+0x66>
    256e:	68e2      	ldr	r2, [r4, #12]
    2570:	61a1      	str	r1, [r4, #24]
    2572:	2301      	movs	r3, #1
    2574:	e9cd 2007 	strd	r2, r0, [sp, #28]
    2578:	f88d 3018 	strb.w	r3, [sp, #24]
    257c:	a806      	add	r0, sp, #24
    257e:	e9d4 1300 	ldrd	r1, r3, [r4]
    2582:	4798      	blx	r3
    2584:	e770      	b.n	2468 <nrfx_uarte_0_irq_handler+0x48>
    2586:	bf00      	nop
	...
    2590:	40002000 	.word	0x40002000
    2594:	200006a0 	.word	0x200006a0

00002598 <nrfx_uarte_init>:
    2598:	e92d 43f0 	stmdb	sp!, {r4, r5, r6, r7, r8, r9, lr}
    259c:	7907      	ldrb	r7, [r0, #4]
    259e:	4e6d      	ldr	r6, [pc, #436]	; (2754 <nrfx_uarte_init+0x1bc>)
    25a0:	eb07 03c7 	add.w	r3, r7, r7, lsl #3
    25a4:	eb06 0383 	add.w	r3, r6, r3, lsl #2
    25a8:	b087      	sub	sp, #28
    25aa:	f893 3020 	ldrb.w	r3, [r3, #32]
    25ae:	2b00      	cmp	r3, #0
    25b0:	f040 80a2 	bne.w	26f8 <nrfx_uarte_init+0x160>
    25b4:	4604      	mov	r4, r0
    25b6:	460d      	mov	r5, r1
    25b8:	6800      	ldr	r0, [r0, #0]
    25ba:	4967      	ldr	r1, [pc, #412]	; (2758 <nrfx_uarte_init+0x1c0>)
    25bc:	4690      	mov	r8, r2
    25be:	f7ff fc73 	bl	1ea8 <nrfx_prs_acquire>
    25c2:	2800      	cmp	r0, #0
    25c4:	f040 8094 	bne.w	26f0 <nrfx_uarte_init+0x158>
    25c8:	682b      	ldr	r3, [r5, #0]
    25ca:	1c59      	adds	r1, r3, #1
    25cc:	ea4f 09c7 	mov.w	r9, r7, lsl #3
    25d0:	d00c      	beq.n	25ec <nrfx_uarte_init+0x54>
    25d2:	f04f 41a0 	mov.w	r1, #1342177280	; 0x50000000
    25d6:	2201      	movs	r2, #1
    25d8:	fa02 f303 	lsl.w	r3, r2, r3
    25dc:	f8c1 3508 	str.w	r3, [r1, #1288]	; 0x508
    25e0:	682b      	ldr	r3, [r5, #0]
    25e2:	f503 73e0 	add.w	r3, r3, #448	; 0x1c0
    25e6:	2203      	movs	r2, #3
    25e8:	f841 2023 	str.w	r2, [r1, r3, lsl #2]
    25ec:	686b      	ldr	r3, [r5, #4]
    25ee:	1c5a      	adds	r2, r3, #1
    25f0:	d006      	beq.n	2600 <nrfx_uarte_init+0x68>
    25f2:	f503 73e0 	add.w	r3, r3, #448	; 0x1c0
    25f6:	f04f 42a0 	mov.w	r2, #1342177280	; 0x50000000
    25fa:	2100      	movs	r1, #0
    25fc:	f842 1023 	str.w	r1, [r2, r3, lsl #2]
    2600:	6823      	ldr	r3, [r4, #0]
    2602:	69aa      	ldr	r2, [r5, #24]
    2604:	f8c3 2524 	str.w	r2, [r3, #1316]	; 0x524
    2608:	7d2b      	ldrb	r3, [r5, #20]
    260a:	7d6a      	ldrb	r2, [r5, #21]
    260c:	431a      	orrs	r2, r3
    260e:	6823      	ldr	r3, [r4, #0]
    2610:	f8c3 256c 	str.w	r2, [r3, #1388]	; 0x56c
    2614:	e9d5 3100 	ldrd	r3, r1, [r5]
    2618:	6822      	ldr	r2, [r4, #0]
    261a:	f8c2 350c 	str.w	r3, [r2, #1292]	; 0x50c
    261e:	f8c2 1514 	str.w	r1, [r2, #1300]	; 0x514
    2622:	7d2b      	ldrb	r3, [r5, #20]
    2624:	2b01      	cmp	r3, #1
    2626:	d072      	beq.n	270e <nrfx_uarte_init+0x176>
    2628:	eb09 0207 	add.w	r2, r9, r7
    262c:	eb06 0382 	add.w	r3, r6, r2, lsl #2
    2630:	f8c3 8004 	str.w	r8, [r3, #4]
    2634:	692b      	ldr	r3, [r5, #16]
    2636:	f846 3022 	str.w	r3, [r6, r2, lsl #2]
    263a:	f1b8 0f00 	cmp.w	r8, #0
    263e:	d046      	beq.n	26ce <nrfx_uarte_init+0x136>
    2640:	6821      	ldr	r1, [r4, #0]
    2642:	7f2b      	ldrb	r3, [r5, #28]
    2644:	2200      	movs	r2, #0
    2646:	f8c1 2110 	str.w	r2, [r1, #272]	; 0x110
    264a:	f8d1 1110 	ldr.w	r1, [r1, #272]	; 0x110
    264e:	9101      	str	r1, [sp, #4]
    2650:	9901      	ldr	r1, [sp, #4]
    2652:	6821      	ldr	r1, [r4, #0]
    2654:	f8c1 2120 	str.w	r2, [r1, #288]	; 0x120
    2658:	f8d1 1120 	ldr.w	r1, [r1, #288]	; 0x120
    265c:	9102      	str	r1, [sp, #8]
    265e:	9902      	ldr	r1, [sp, #8]
    2660:	6821      	ldr	r1, [r4, #0]
    2662:	f8c1 2124 	str.w	r2, [r1, #292]	; 0x124
    2666:	f8d1 1124 	ldr.w	r1, [r1, #292]	; 0x124
    266a:	9103      	str	r1, [sp, #12]
    266c:	9903      	ldr	r1, [sp, #12]
    266e:	6821      	ldr	r1, [r4, #0]
    2670:	f8c1 2144 	str.w	r2, [r1, #324]	; 0x144
    2674:	f8d1 1144 	ldr.w	r1, [r1, #324]	; 0x144
    2678:	9104      	str	r1, [sp, #16]
    267a:	9904      	ldr	r1, [sp, #16]
    267c:	6821      	ldr	r1, [r4, #0]
    267e:	f8c1 2158 	str.w	r2, [r1, #344]	; 0x158
    2682:	f8d1 2158 	ldr.w	r2, [r1, #344]	; 0x158
    2686:	9205      	str	r2, [sp, #20]
    2688:	9a05      	ldr	r2, [sp, #20]
    268a:	6822      	ldr	r2, [r4, #0]
    268c:	4933      	ldr	r1, [pc, #204]	; (275c <nrfx_uarte_init+0x1c4>)
    268e:	f8c2 1304 	str.w	r1, [r2, #772]	; 0x304
    2692:	6822      	ldr	r2, [r4, #0]
    2694:	f342 3107 	sbfx	r1, r2, #12, #8
    2698:	2900      	cmp	r1, #0
    269a:	ea4f 3212 	mov.w	r2, r2, lsr #12
    269e:	db2f      	blt.n	2700 <nrfx_uarte_init+0x168>
    26a0:	f101 4160 	add.w	r1, r1, #3758096384	; 0xe0000000
    26a4:	015b      	lsls	r3, r3, #5
    26a6:	f501 4161 	add.w	r1, r1, #57600	; 0xe100
    26aa:	b2db      	uxtb	r3, r3
    26ac:	f881 3300 	strb.w	r3, [r1, #768]	; 0x300
    26b0:	6822      	ldr	r2, [r4, #0]
    26b2:	f342 3307 	sbfx	r3, r2, #12, #8
    26b6:	2b00      	cmp	r3, #0
    26b8:	ea4f 3112 	mov.w	r1, r2, lsr #12
    26bc:	db08      	blt.n	26d0 <nrfx_uarte_init+0x138>
    26be:	4d28      	ldr	r5, [pc, #160]	; (2760 <nrfx_uarte_init+0x1c8>)
    26c0:	095b      	lsrs	r3, r3, #5
    26c2:	f001 011f 	and.w	r1, r1, #31
    26c6:	2201      	movs	r2, #1
    26c8:	408a      	lsls	r2, r1
    26ca:	f845 2023 	str.w	r2, [r5, r3, lsl #2]
    26ce:	6822      	ldr	r2, [r4, #0]
    26d0:	44b9      	add	r9, r7
    26d2:	eb06 0689 	add.w	r6, r6, r9, lsl #2
    26d6:	2101      	movs	r1, #1
    26d8:	2300      	movs	r3, #0
    26da:	f886 1020 	strb.w	r1, [r6, #32]
    26de:	2108      	movs	r1, #8
    26e0:	f8c2 1500 	str.w	r1, [r2, #1280]	; 0x500
    26e4:	e9c6 3306 	strd	r3, r3, [r6, #24]
    26e8:	6173      	str	r3, [r6, #20]
    26ea:	b007      	add	sp, #28
    26ec:	e8bd 83f0 	ldmia.w	sp!, {r4, r5, r6, r7, r8, r9, pc}
    26f0:	2011      	movs	r0, #17
    26f2:	b007      	add	sp, #28
    26f4:	e8bd 83f0 	ldmia.w	sp!, {r4, r5, r6, r7, r8, r9, pc}
    26f8:	2008      	movs	r0, #8
    26fa:	b007      	add	sp, #28
    26fc:	e8bd 83f0 	ldmia.w	sp!, {r4, r5, r6, r7, r8, r9, pc}
    2700:	4918      	ldr	r1, [pc, #96]	; (2764 <nrfx_uarte_init+0x1cc>)
    2702:	f002 020f 	and.w	r2, r2, #15
    2706:	015b      	lsls	r3, r3, #5
    2708:	b2db      	uxtb	r3, r3
    270a:	548b      	strb	r3, [r1, r2]
    270c:	e7d0      	b.n	26b0 <nrfx_uarte_init+0x118>
    270e:	68ab      	ldr	r3, [r5, #8]
    2710:	1c59      	adds	r1, r3, #1
    2712:	d006      	beq.n	2722 <nrfx_uarte_init+0x18a>
    2714:	f503 73e0 	add.w	r3, r3, #448	; 0x1c0
    2718:	f04f 42a0 	mov.w	r2, #1342177280	; 0x50000000
    271c:	2100      	movs	r1, #0
    271e:	f842 1023 	str.w	r1, [r2, r3, lsl #2]
    2722:	68eb      	ldr	r3, [r5, #12]
    2724:	1c5a      	adds	r2, r3, #1
    2726:	d00d      	beq.n	2744 <nrfx_uarte_init+0x1ac>
    2728:	f04f 41a0 	mov.w	r1, #1342177280	; 0x50000000
    272c:	2201      	movs	r2, #1
    272e:	fa02 f303 	lsl.w	r3, r2, r3
    2732:	f8c1 3508 	str.w	r3, [r1, #1288]	; 0x508
    2736:	68eb      	ldr	r3, [r5, #12]
    2738:	f503 73e0 	add.w	r3, r3, #448	; 0x1c0
    273c:	2203      	movs	r2, #3
    273e:	f841 2023 	str.w	r2, [r1, r3, lsl #2]
    2742:	68eb      	ldr	r3, [r5, #12]
    2744:	6822      	ldr	r2, [r4, #0]
    2746:	68a9      	ldr	r1, [r5, #8]
    2748:	f8c2 3508 	str.w	r3, [r2, #1288]	; 0x508
    274c:	f8c2 1510 	str.w	r1, [r2, #1296]	; 0x510
    2750:	e76a      	b.n	2628 <nrfx_uarte_init+0x90>
    2752:	bf00      	nop
    2754:	200006a0 	.word	0x200006a0
    2758:	00002421 	.word	0x00002421
    275c:	00420310 	.word	0x00420310
    2760:	e000e100 	.word	0xe000e100
    2764:	e000ed14 	.word	0xe000ed14

00002768 <nrfx_uarte_uninit>:
    2768:	e92d 41f0 	stmdb	sp!, {r4, r5, r6, r7, r8, lr}
    276c:	7905      	ldrb	r5, [r0, #4]
    276e:	4c4b      	ldr	r4, [pc, #300]	; (289c <nrfx_uarte_uninit+0x134>)
    2770:	eb05 03c5 	add.w	r3, r5, r5, lsl #3
    2774:	eb04 0383 	add.w	r3, r4, r3, lsl #2
    2778:	4601      	mov	r1, r0
    277a:	685b      	ldr	r3, [r3, #4]
    277c:	6800      	ldr	r0, [r0, #0]
    277e:	b082      	sub	sp, #8
    2780:	00ee      	lsls	r6, r5, #3
    2782:	b1c3      	cbz	r3, 27b6 <nrfx_uarte_uninit+0x4e>
    2784:	4b46      	ldr	r3, [pc, #280]	; (28a0 <nrfx_uarte_uninit+0x138>)
    2786:	f8c0 3308 	str.w	r3, [r0, #776]	; 0x308
    278a:	680b      	ldr	r3, [r1, #0]
    278c:	f343 3207 	sbfx	r2, r3, #12, #8
    2790:	2a00      	cmp	r2, #0
    2792:	ea4f 3313 	mov.w	r3, r3, lsr #12
    2796:	db0e      	blt.n	27b6 <nrfx_uarte_uninit+0x4e>
    2798:	0952      	lsrs	r2, r2, #5
    279a:	f8df c108 	ldr.w	ip, [pc, #264]	; 28a4 <nrfx_uarte_uninit+0x13c>
    279e:	3220      	adds	r2, #32
    27a0:	2701      	movs	r7, #1
    27a2:	f003 031f 	and.w	r3, r3, #31
    27a6:	fa07 f303 	lsl.w	r3, r7, r3
    27aa:	f84c 3022 	str.w	r3, [ip, r2, lsl #2]
    27ae:	f3bf 8f4f 	dsb	sy
    27b2:	f3bf 8f6f 	isb	sy
    27b6:	1973      	adds	r3, r6, r5
    27b8:	eb04 0383 	add.w	r3, r4, r3, lsl #2
    27bc:	699a      	ldr	r2, [r3, #24]
    27be:	f8d0 3200 	ldr.w	r3, [r0, #512]	; 0x200
    27c2:	f023 0320 	bic.w	r3, r3, #32
    27c6:	f8c0 3200 	str.w	r3, [r0, #512]	; 0x200
    27ca:	b142      	cbz	r2, 27de <nrfx_uarte_uninit+0x76>
    27cc:	2300      	movs	r3, #0
    27ce:	f8c0 3144 	str.w	r3, [r0, #324]	; 0x144
    27d2:	f8d0 3144 	ldr.w	r3, [r0, #324]	; 0x144
    27d6:	9300      	str	r3, [sp, #0]
    27d8:	9b00      	ldr	r3, [sp, #0]
    27da:	2301      	movs	r3, #1
    27dc:	6043      	str	r3, [r0, #4]
    27de:	2300      	movs	r3, #0
    27e0:	f8c0 3158 	str.w	r3, [r0, #344]	; 0x158
    27e4:	f8d0 3158 	ldr.w	r3, [r0, #344]	; 0x158
    27e8:	9301      	str	r3, [sp, #4]
    27ea:	9b01      	ldr	r3, [sp, #4]
    27ec:	1973      	adds	r3, r6, r5
    27ee:	2201      	movs	r2, #1
    27f0:	eb04 0383 	add.w	r3, r4, r3, lsl #2
    27f4:	60c2      	str	r2, [r0, #12]
    27f6:	699a      	ldr	r2, [r3, #24]
    27f8:	f8d0 3158 	ldr.w	r3, [r0, #344]	; 0x158
    27fc:	2b00      	cmp	r3, #0
    27fe:	d0fb      	beq.n	27f8 <nrfx_uarte_uninit+0x90>
    2800:	b11a      	cbz	r2, 280a <nrfx_uarte_uninit+0xa2>
    2802:	f8d0 3144 	ldr.w	r3, [r0, #324]	; 0x144
    2806:	2b00      	cmp	r3, #0
    2808:	d0f6      	beq.n	27f8 <nrfx_uarte_uninit+0x90>
    280a:	2300      	movs	r3, #0
    280c:	f8c0 3500 	str.w	r3, [r0, #1280]	; 0x500
    2810:	680b      	ldr	r3, [r1, #0]
    2812:	f04f 32ff 	mov.w	r2, #4294967295	; 0xffffffff
    2816:	f8d3 850c 	ldr.w	r8, [r3, #1292]	; 0x50c
    281a:	f8d3 e514 	ldr.w	lr, [r3, #1300]	; 0x514
    281e:	f8d3 7508 	ldr.w	r7, [r3, #1288]	; 0x508
    2822:	f8d3 c510 	ldr.w	ip, [r3, #1296]	; 0x510
    2826:	f8c3 250c 	str.w	r2, [r3, #1292]	; 0x50c
    282a:	f8c3 2514 	str.w	r2, [r3, #1300]	; 0x514
    282e:	680b      	ldr	r3, [r1, #0]
    2830:	4590      	cmp	r8, r2
    2832:	f8c3 2508 	str.w	r2, [r3, #1288]	; 0x508
    2836:	f8c3 2510 	str.w	r2, [r3, #1296]	; 0x510
    283a:	d006      	beq.n	284a <nrfx_uarte_uninit+0xe2>
    283c:	f508 78e0 	add.w	r8, r8, #448	; 0x1c0
    2840:	f04f 43a0 	mov.w	r3, #1342177280	; 0x50000000
    2844:	2202      	movs	r2, #2
    2846:	f843 2028 	str.w	r2, [r3, r8, lsl #2]
    284a:	f1be 3fff 	cmp.w	lr, #4294967295	; 0xffffffff
    284e:	d006      	beq.n	285e <nrfx_uarte_uninit+0xf6>
    2850:	f50e 7ee0 	add.w	lr, lr, #448	; 0x1c0
    2854:	f04f 43a0 	mov.w	r3, #1342177280	; 0x50000000
    2858:	2202      	movs	r2, #2
    285a:	f843 202e 	str.w	r2, [r3, lr, lsl #2]
    285e:	f1bc 3fff 	cmp.w	ip, #4294967295	; 0xffffffff
    2862:	d006      	beq.n	2872 <nrfx_uarte_uninit+0x10a>
    2864:	f50c 7ce0 	add.w	ip, ip, #448	; 0x1c0
    2868:	f04f 43a0 	mov.w	r3, #1342177280	; 0x50000000
    286c:	2202      	movs	r2, #2
    286e:	f843 202c 	str.w	r2, [r3, ip, lsl #2]
    2872:	1c7b      	adds	r3, r7, #1
    2874:	d006      	beq.n	2884 <nrfx_uarte_uninit+0x11c>
    2876:	f507 77e0 	add.w	r7, r7, #448	; 0x1c0
    287a:	f04f 43a0 	mov.w	r3, #1342177280	; 0x50000000
    287e:	2202      	movs	r2, #2
    2880:	f843 2027 	str.w	r2, [r3, r7, lsl #2]
    2884:	f7ff fb2e 	bl	1ee4 <nrfx_prs_release>
    2888:	442e      	add	r6, r5
    288a:	eb04 0486 	add.w	r4, r4, r6, lsl #2
    288e:	2300      	movs	r3, #0
    2890:	f884 3020 	strb.w	r3, [r4, #32]
    2894:	6063      	str	r3, [r4, #4]
    2896:	b002      	add	sp, #8
    2898:	e8bd 81f0 	ldmia.w	sp!, {r4, r5, r6, r7, r8, pc}
    289c:	200006a0 	.word	0x200006a0
    28a0:	00420310 	.word	0x00420310
    28a4:	e000e100 	.word	0xe000e100

000028a8 <nrfx_uarte_tx>:
    28a8:	f001 4c60 	and.w	ip, r1, #3758096384	; 0xe0000000
    28ac:	f1bc 5f00 	cmp.w	ip, #536870912	; 0x20000000
    28b0:	d130      	bne.n	2914 <nrfx_uarte_tx+0x6c>
    28b2:	b570      	push	{r4, r5, r6, lr}
    28b4:	f890 e004 	ldrb.w	lr, [r0, #4]
    28b8:	4c26      	ldr	r4, [pc, #152]	; (2954 <nrfx_uarte_tx+0xac>)
    28ba:	eb0e 0cce 	add.w	ip, lr, lr, lsl #3
    28be:	eb04 0c8c 	add.w	ip, r4, ip, lsl #2
    28c2:	4603      	mov	r3, r0
    28c4:	f8dc 0014 	ldr.w	r0, [ip, #20]
    28c8:	b082      	sub	sp, #8
    28ca:	ea4f 05ce 	mov.w	r5, lr, lsl #3
    28ce:	2800      	cmp	r0, #0
    28d0:	d13a      	bne.n	2948 <nrfx_uarte_tx+0xa0>
    28d2:	f8cc 2014 	str.w	r2, [ip, #20]
    28d6:	f8cc 1008 	str.w	r1, [ip, #8]
    28da:	681a      	ldr	r2, [r3, #0]
    28dc:	f8c2 0120 	str.w	r0, [r2, #288]	; 0x120
    28e0:	f8d2 2120 	ldr.w	r2, [r2, #288]	; 0x120
    28e4:	9201      	str	r2, [sp, #4]
    28e6:	9a01      	ldr	r2, [sp, #4]
    28e8:	681a      	ldr	r2, [r3, #0]
    28ea:	f8c2 0158 	str.w	r0, [r2, #344]	; 0x158
    28ee:	f8d2 2158 	ldr.w	r2, [r2, #344]	; 0x158
    28f2:	9200      	str	r2, [sp, #0]
    28f4:	9a00      	ldr	r2, [sp, #0]
    28f6:	681a      	ldr	r2, [r3, #0]
    28f8:	f8dc 6014 	ldr.w	r6, [ip, #20]
    28fc:	f8c2 1544 	str.w	r1, [r2, #1348]	; 0x544
    2900:	f8c2 6548 	str.w	r6, [r2, #1352]	; 0x548
    2904:	681a      	ldr	r2, [r3, #0]
    2906:	2101      	movs	r1, #1
    2908:	6091      	str	r1, [r2, #8]
    290a:	f8dc 2004 	ldr.w	r2, [ip, #4]
    290e:	b11a      	cbz	r2, 2918 <nrfx_uarte_tx+0x70>
    2910:	b002      	add	sp, #8
    2912:	bd70      	pop	{r4, r5, r6, pc}
    2914:	2010      	movs	r0, #16
    2916:	4770      	bx	lr
    2918:	681a      	ldr	r2, [r3, #0]
    291a:	e000      	b.n	291e <nrfx_uarte_tx+0x76>
    291c:	b9b8      	cbnz	r0, 294e <nrfx_uarte_tx+0xa6>
    291e:	f8d2 1120 	ldr.w	r1, [r2, #288]	; 0x120
    2922:	f8d2 0158 	ldr.w	r0, [r2, #344]	; 0x158
    2926:	2900      	cmp	r1, #0
    2928:	d0f8      	beq.n	291c <nrfx_uarte_tx+0x74>
    292a:	b980      	cbnz	r0, 294e <nrfx_uarte_tx+0xa6>
    292c:	2101      	movs	r1, #1
    292e:	60d1      	str	r1, [r2, #12]
    2930:	681b      	ldr	r3, [r3, #0]
    2932:	f8d3 2158 	ldr.w	r2, [r3, #344]	; 0x158
    2936:	2a00      	cmp	r2, #0
    2938:	d0fb      	beq.n	2932 <nrfx_uarte_tx+0x8a>
    293a:	4475      	add	r5, lr
    293c:	eb04 0385 	add.w	r3, r4, r5, lsl #2
    2940:	2200      	movs	r2, #0
    2942:	615a      	str	r2, [r3, #20]
    2944:	b002      	add	sp, #8
    2946:	bd70      	pop	{r4, r5, r6, pc}
    2948:	2011      	movs	r0, #17
    294a:	b002      	add	sp, #8
    294c:	bd70      	pop	{r4, r5, r6, pc}
    294e:	200f      	movs	r0, #15
    2950:	e7f3      	b.n	293a <nrfx_uarte_tx+0x92>
    2952:	bf00      	nop
    2954:	200006a0 	.word	0x200006a0

00002958 <data_handler>:
    2958:	07cb      	lsls	r3, r1, #31
    295a:	d50e      	bpl.n	297a <data_handler+0x22>
    295c:	b510      	push	{r4, lr}
    295e:	6803      	ldr	r3, [r0, #0]
    2960:	b082      	sub	sp, #8
    2962:	4604      	mov	r4, r0
    2964:	b153      	cbz	r3, 297c <data_handler+0x24>
    2966:	4a10      	ldr	r2, [pc, #64]	; (29a8 <data_handler+0x50>)
    2968:	6013      	str	r3, [r2, #0]
    296a:	f7ff f9bd 	bl	1ce8 <nrfx_i2s_next_buffers_set>
    296e:	b9a0      	cbnz	r0, 299a <data_handler+0x42>
    2970:	4b0e      	ldr	r3, [pc, #56]	; (29ac <data_handler+0x54>)
    2972:	6862      	ldr	r2, [r4, #4]
    2974:	601a      	str	r2, [r3, #0]
    2976:	b002      	add	sp, #8
    2978:	bd10      	pop	{r4, pc}
    297a:	4770      	bx	lr
    297c:	4a0c      	ldr	r2, [pc, #48]	; (29b0 <data_handler+0x58>)
    297e:	e892 0003 	ldmia.w	r2, {r0, r1}
    2982:	466b      	mov	r3, sp
    2984:	e883 0003 	stmia.w	r3, {r0, r1}
    2988:	4618      	mov	r0, r3
    298a:	f7ff f9ad 	bl	1ce8 <nrfx_i2s_next_buffers_set>
    298e:	b938      	cbnz	r0, 29a0 <data_handler+0x48>
    2990:	4b06      	ldr	r3, [pc, #24]	; (29ac <data_handler+0x54>)
    2992:	4a08      	ldr	r2, [pc, #32]	; (29b4 <data_handler+0x5c>)
    2994:	601a      	str	r2, [r3, #0]
    2996:	b002      	add	sp, #8
    2998:	bd10      	pop	{r4, pc}
    299a:	f7fe fab9 	bl	f10 <app_error_handler_bare>
    299e:	e7e7      	b.n	2970 <data_handler+0x18>
    29a0:	f7fe fab6 	bl	f10 <app_error_handler_bare>
    29a4:	e7f4      	b.n	2990 <data_handler+0x38>
    29a6:	bf00      	nop
    29a8:	200026d0 	.word	0x200026d0
    29ac:	200026d4 	.word	0x200026d4
    29b0:	0000345c 	.word	0x0000345c
    29b4:	20001ec8 	.word	0x20001ec8

000029b8 <app_error_fault_handler>:
    29b8:	b500      	push	{lr}
    29ba:	b085      	sub	sp, #20
    29bc:	e9cd 1002 	strd	r1, r0, [sp, #8]
    29c0:	9201      	str	r2, [sp, #4]
    29c2:	f7fe fa4f 	bl	e64 <bsp_board_leds_on>
    29c6:	e9dd 2101 	ldrd	r2, r1, [sp, #4]
    29ca:	9803      	ldr	r0, [sp, #12]
    29cc:	b005      	add	sp, #20
    29ce:	f85d eb04 	ldr.w	lr, [sp], #4
    29d2:	f7fe baad 	b.w	f30 <app_error_save_and_stop>
    29d6:	bf00      	nop

000029d8 <main>:
    29d8:	e92d 4ff0 	stmdb	sp!, {r4, r5, r6, r7, r8, r9, sl, fp, lr}
    29dc:	ed2d 8b02 	vpush	{d8}
    29e0:	2001      	movs	r0, #1
    29e2:	b08f      	sub	sp, #60	; 0x3c
    29e4:	f7fe fa66 	bl	eb4 <bsp_board_init>
    29e8:	2100      	movs	r1, #0
    29ea:	4608      	mov	r0, r1
    29ec:	f7fd fdfc 	bl	5e8 <nrf_log_init>
    29f0:	2800      	cmp	r0, #0
    29f2:	f040 8129 	bne.w	2c48 <main+0x270>
    29f6:	f7fd fd81 	bl	4fc <nrf_log_default_backends_init>
    29fa:	4a96      	ldr	r2, [pc, #600]	; (2c54 <main+0x27c>)
    29fc:	4b96      	ldr	r3, [pc, #600]	; (2c58 <main+0x280>)
    29fe:	4d97      	ldr	r5, [pc, #604]	; (2c5c <main+0x284>)
    2a00:	4997      	ldr	r1, [pc, #604]	; (2c60 <main+0x288>)
    2a02:	1a9b      	subs	r3, r3, r2
    2a04:	08db      	lsrs	r3, r3, #3
    2a06:	041b      	lsls	r3, r3, #16
    2a08:	f043 0303 	orr.w	r3, r3, #3
    2a0c:	4618      	mov	r0, r3
    2a0e:	ee08 3a10 	vmov	s16, r3
    2a12:	f7fd ff5b 	bl	8cc <nrf_log_frontend_std_0>
    2a16:	cd0f      	ldmia	r5!, {r0, r1, r2, r3}
    2a18:	ac09      	add	r4, sp, #36	; 0x24
    2a1a:	c40f      	stmia	r4!, {r0, r1, r2, r3}
    2a1c:	f641 2e1b 	movw	lr, #6683	; 0x1a1b
    2a20:	682b      	ldr	r3, [r5, #0]
    2a22:	4990      	ldr	r1, [pc, #576]	; (2c64 <main+0x28c>)
    2a24:	6023      	str	r3, [r4, #0]
    2a26:	f04f 6c40 	mov.w	ip, #201326592	; 0xc000000
    2a2a:	2703      	movs	r7, #3
    2a2c:	2600      	movs	r6, #0
    2a2e:	a809      	add	r0, sp, #36	; 0x24
    2a30:	f8ad e027 	strh.w	lr, [sp, #39]	; 0x27
    2a34:	f8cd c030 	str.w	ip, [sp, #48]	; 0x30
    2a38:	f88d 7034 	strb.w	r7, [sp, #52]	; 0x34
    2a3c:	f88d 602e 	strb.w	r6, [sp, #46]	; 0x2e
    2a40:	f7ff f82a 	bl	1a98 <nrfx_i2s_init>
    2a44:	2800      	cmp	r0, #0
    2a46:	f040 8102 	bne.w	2c4e <main+0x276>
    2a4a:	4b87      	ldr	r3, [pc, #540]	; (2c68 <main+0x290>)
    2a4c:	4d87      	ldr	r5, [pc, #540]	; (2c6c <main+0x294>)
    2a4e:	f8df b248 	ldr.w	fp, [pc, #584]	; 2c98 <main+0x2c0>
    2a52:	4c87      	ldr	r4, [pc, #540]	; (2c70 <main+0x298>)
    2a54:	f043 0301 	orr.w	r3, r3, #1
    2a58:	469a      	mov	sl, r3
    2a5a:	f04f 0300 	mov.w	r3, #0
    2a5e:	702b      	strb	r3, [r5, #0]
    2a60:	4b84      	ldr	r3, [pc, #528]	; (2c74 <main+0x29c>)
    2a62:	2200      	movs	r2, #0
    2a64:	601a      	str	r2, [r3, #0]
    2a66:	f8cb 2000 	str.w	r2, [fp]
    2a6a:	4a83      	ldr	r2, [pc, #524]	; (2c78 <main+0x2a0>)
    2a6c:	782b      	ldrb	r3, [r5, #0]
    2a6e:	7812      	ldrb	r2, [r2, #0]
    2a70:	4313      	orrs	r3, r2
    2a72:	f040 80e3 	bne.w	2c3c <main+0x264>
    2a76:	4a81      	ldr	r2, [pc, #516]	; (2c7c <main+0x2a4>)
    2a78:	7013      	strb	r3, [r2, #0]
    2a7a:	4b81      	ldr	r3, [pc, #516]	; (2c80 <main+0x2a8>)
    2a7c:	f64c 22fe 	movw	r2, #51966	; 0xcafe
    2a80:	801a      	strh	r2, [r3, #0]
    2a82:	4a7d      	ldr	r2, [pc, #500]	; (2c78 <main+0x2a0>)
    2a84:	2302      	movs	r3, #2
    2a86:	7013      	strb	r3, [r2, #0]
    2a88:	f64c 20fe 	movw	r0, #51966	; 0xcafe
    2a8c:	1e43      	subs	r3, r0, #1
    2a8e:	4a7d      	ldr	r2, [pc, #500]	; (2c84 <main+0x2ac>)
    2a90:	b29b      	uxth	r3, r3
    2a92:	1c99      	adds	r1, r3, #2
    2a94:	8013      	strh	r3, [r2, #0]
    2a96:	8051      	strh	r1, [r2, #2]
    2a98:	3204      	adds	r2, #4
    2a9a:	3301      	adds	r3, #1
    2a9c:	4294      	cmp	r4, r2
    2a9e:	b29b      	uxth	r3, r3
    2aa0:	d1f7      	bne.n	2a92 <main+0xba>
    2aa2:	4b79      	ldr	r3, [pc, #484]	; (2c88 <main+0x2b0>)
    2aa4:	f500 7000 	add.w	r0, r0, #512	; 0x200
    2aa8:	8018      	strh	r0, [r3, #0]
    2aaa:	4b78      	ldr	r3, [pc, #480]	; (2c8c <main+0x2b4>)
    2aac:	e893 0003 	ldmia.w	r3, {r0, r1}
    2ab0:	ab07      	add	r3, sp, #28
    2ab2:	e883 0003 	stmia.w	r3, {r0, r1}
    2ab6:	2200      	movs	r2, #0
    2ab8:	f44f 7100 	mov.w	r1, #512	; 0x200
    2abc:	4618      	mov	r0, r3
    2abe:	f7ff f89d 	bl	1bfc <nrfx_i2s_start>
    2ac2:	2800      	cmp	r0, #0
    2ac4:	f040 80bd 	bne.w	2c42 <main+0x26a>
    2ac8:	f8cd a014 	str.w	sl, [sp, #20]
    2acc:	bf20      	wfe
    2ace:	bf40      	sev
    2ad0:	bf20      	wfe
    2ad2:	4a68      	ldr	r2, [pc, #416]	; (2c74 <main+0x29c>)
    2ad4:	6813      	ldr	r3, [r2, #0]
    2ad6:	b353      	cbz	r3, 2b2e <main+0x156>
    2ad8:	4b67      	ldr	r3, [pc, #412]	; (2c78 <main+0x2a0>)
    2ada:	6810      	ldr	r0, [r2, #0]
    2adc:	781a      	ldrb	r2, [r3, #0]
    2ade:	782b      	ldrb	r3, [r5, #0]
    2ae0:	4313      	orrs	r3, r2
    2ae2:	d151      	bne.n	2b88 <main+0x1b0>
    2ae4:	4a65      	ldr	r2, [pc, #404]	; (2c7c <main+0x2a4>)
    2ae6:	7013      	strb	r3, [r2, #0]
    2ae8:	4b65      	ldr	r3, [pc, #404]	; (2c80 <main+0x2a8>)
    2aea:	f64c 22fe 	movw	r2, #51966	; 0xcafe
    2aee:	801a      	strh	r2, [r3, #0]
    2af0:	4a61      	ldr	r2, [pc, #388]	; (2c78 <main+0x2a0>)
    2af2:	2302      	movs	r3, #2
    2af4:	7013      	strb	r3, [r2, #0]
    2af6:	f64c 2efe 	movw	lr, #51966	; 0xcafe
    2afa:	2300      	movs	r3, #0
    2afc:	f10e 3cff 	add.w	ip, lr, #4294967295	; 0xffffffff
    2b00:	1c87      	adds	r7, r0, #2
    2b02:	f10e 0601 	add.w	r6, lr, #1
    2b06:	b29a      	uxth	r2, r3
    2b08:	eb02 010c 	add.w	r1, r2, ip
    2b0c:	4432      	add	r2, r6
    2b0e:	f820 1023 	strh.w	r1, [r0, r3, lsl #2]
    2b12:	f827 2023 	strh.w	r2, [r7, r3, lsl #2]
    2b16:	3301      	adds	r3, #1
    2b18:	f5b3 7f00 	cmp.w	r3, #512	; 0x200
    2b1c:	d1f3      	bne.n	2b06 <main+0x12e>
    2b1e:	4b5a      	ldr	r3, [pc, #360]	; (2c88 <main+0x2b0>)
    2b20:	f50e 7e00 	add.w	lr, lr, #512	; 0x200
    2b24:	f8a3 e000 	strh.w	lr, [r3]
    2b28:	4b52      	ldr	r3, [pc, #328]	; (2c74 <main+0x29c>)
    2b2a:	2200      	movs	r2, #0
    2b2c:	601a      	str	r2, [r3, #0]
    2b2e:	f8db 3000 	ldr.w	r3, [fp]
    2b32:	b1a3      	cbz	r3, 2b5e <main+0x186>
    2b34:	f8db 8000 	ldr.w	r8, [fp]
    2b38:	782b      	ldrb	r3, [r5, #0]
    2b3a:	3301      	adds	r3, #1
    2b3c:	b2db      	uxtb	r3, r3
    2b3e:	702b      	strb	r3, [r5, #0]
    2b40:	4b4e      	ldr	r3, [pc, #312]	; (2c7c <main+0x2a4>)
    2b42:	f893 e000 	ldrb.w	lr, [r3]
    2b46:	f1be 0f00 	cmp.w	lr, #0
    2b4a:	d021      	beq.n	2b90 <main+0x1b8>
    2b4c:	2000      	movs	r0, #0
    2b4e:	f7fe f967 	bl	e20 <bsp_board_led_off>
    2b52:	2001      	movs	r0, #1
    2b54:	f7fe f99c 	bl	e90 <bsp_board_led_invert>
    2b58:	2300      	movs	r3, #0
    2b5a:	f8cb 3000 	str.w	r3, [fp]
    2b5e:	782b      	ldrb	r3, [r5, #0]
    2b60:	2b13      	cmp	r3, #19
    2b62:	d9b3      	bls.n	2acc <main+0xf4>
    2b64:	f8dd a014 	ldr.w	sl, [sp, #20]
    2b68:	f7ff f8f4 	bl	1d54 <nrfx_i2s_stop>
    2b6c:	f7fd fd8a 	bl	684 <nrf_log_frontend_dequeue>
    2b70:	2800      	cmp	r0, #0
    2b72:	d1fb      	bne.n	2b6c <main+0x194>
    2b74:	f7fe f960 	bl	e38 <bsp_board_leds_off>
    2b78:	f44f 76fa 	mov.w	r6, #500	; 0x1f4
    2b7c:	f44f 407a 	mov.w	r0, #64000	; 0xfa00
    2b80:	47d0      	blx	sl
    2b82:	3e01      	subs	r6, #1
    2b84:	d1fa      	bne.n	2b7c <main+0x1a4>
    2b86:	e768      	b.n	2a5a <main+0x82>
    2b88:	4b3f      	ldr	r3, [pc, #252]	; (2c88 <main+0x2b0>)
    2b8a:	f8b3 e000 	ldrh.w	lr, [r3]
    2b8e:	e7b4      	b.n	2afa <main+0x122>
    2b90:	4b39      	ldr	r3, [pc, #228]	; (2c78 <main+0x2a0>)
    2b92:	781e      	ldrb	r6, [r3, #0]
    2b94:	4b3a      	ldr	r3, [pc, #232]	; (2c80 <main+0x2a8>)
    2b96:	4671      	mov	r1, lr
    2b98:	8818      	ldrh	r0, [r3, #0]
    2b9a:	f108 0902 	add.w	r9, r8, #2
    2b9e:	e009      	b.n	2bb4 <main+0x1dc>
    2ba0:	ea53 0a07 	orrs.w	sl, r3, r7
    2ba4:	f106 36ff 	add.w	r6, r6, #4294967295	; 0xffffffff
    2ba8:	d10e      	bne.n	2bc8 <main+0x1f0>
    2baa:	3101      	adds	r1, #1
    2bac:	f5b1 7f00 	cmp.w	r1, #512	; 0x200
    2bb0:	b2f6      	uxtb	r6, r6
    2bb2:	d017      	beq.n	2be4 <main+0x20c>
    2bb4:	1e43      	subs	r3, r0, #1
    2bb6:	b29a      	uxth	r2, r3
    2bb8:	f839 7021 	ldrh.w	r7, [r9, r1, lsl #2]
    2bbc:	f838 3021 	ldrh.w	r3, [r8, r1, lsl #2]
    2bc0:	f100 0c01 	add.w	ip, r0, #1
    2bc4:	2e00      	cmp	r6, #0
    2bc6:	d1eb      	bne.n	2ba0 <main+0x1c8>
    2bc8:	4293      	cmp	r3, r2
    2bca:	fa1f f08c 	uxth.w	r0, ip
    2bce:	d121      	bne.n	2c14 <main+0x23c>
    2bd0:	4287      	cmp	r7, r0
    2bd2:	d11f      	bne.n	2c14 <main+0x23c>
    2bd4:	3101      	adds	r1, #1
    2bd6:	f5b1 7f00 	cmp.w	r1, #512	; 0x200
    2bda:	f04f 0e01 	mov.w	lr, #1
    2bde:	f04f 0600 	mov.w	r6, #0
    2be2:	d1e7      	bne.n	2bb4 <main+0x1dc>
    2be4:	f1be 0f00 	cmp.w	lr, #0
    2be8:	d001      	beq.n	2bee <main+0x216>
    2bea:	4b25      	ldr	r3, [pc, #148]	; (2c80 <main+0x2a8>)
    2bec:	8018      	strh	r0, [r3, #0]
    2bee:	4b22      	ldr	r3, [pc, #136]	; (2c78 <main+0x2a0>)
    2bf0:	782a      	ldrb	r2, [r5, #0]
    2bf2:	4927      	ldr	r1, [pc, #156]	; (2c90 <main+0x2b8>)
    2bf4:	701e      	strb	r6, [r3, #0]
    2bf6:	ee18 0a10 	vmov	r0, s16
    2bfa:	f7fd febf 	bl	97c <nrf_log_frontend_std_1>
    2bfe:	4b1f      	ldr	r3, [pc, #124]	; (2c7c <main+0x2a4>)
    2c00:	f04f 0200 	mov.w	r2, #0
    2c04:	2001      	movs	r0, #1
    2c06:	701a      	strb	r2, [r3, #0]
    2c08:	f7fe f90a 	bl	e20 <bsp_board_led_off>
    2c0c:	2000      	movs	r0, #0
    2c0e:	f7fe f93f 	bl	e90 <bsp_board_led_invert>
    2c12:	e7a1      	b.n	2b58 <main+0x180>
    2c14:	e9cd 7200 	strd	r7, r2, [sp]
    2c18:	4a19      	ldr	r2, [pc, #100]	; (2c80 <main+0x2a8>)
    2c1a:	9103      	str	r1, [sp, #12]
    2c1c:	9002      	str	r0, [sp, #8]
    2c1e:	8010      	strh	r0, [r2, #0]
    2c20:	4a15      	ldr	r2, [pc, #84]	; (2c78 <main+0x2a0>)
    2c22:	f04f 0100 	mov.w	r1, #0
    2c26:	7011      	strb	r1, [r2, #0]
    2c28:	ee18 0a10 	vmov	r0, s16
    2c2c:	782a      	ldrb	r2, [r5, #0]
    2c2e:	4919      	ldr	r1, [pc, #100]	; (2c94 <main+0x2bc>)
    2c30:	f7fd ff06 	bl	a40 <nrf_log_frontend_std_6>
    2c34:	4a11      	ldr	r2, [pc, #68]	; (2c7c <main+0x2a4>)
    2c36:	2301      	movs	r3, #1
    2c38:	7013      	strb	r3, [r2, #0]
    2c3a:	e787      	b.n	2b4c <main+0x174>
    2c3c:	4b12      	ldr	r3, [pc, #72]	; (2c88 <main+0x2b0>)
    2c3e:	8818      	ldrh	r0, [r3, #0]
    2c40:	e724      	b.n	2a8c <main+0xb4>
    2c42:	f7fe f965 	bl	f10 <app_error_handler_bare>
    2c46:	e73f      	b.n	2ac8 <main+0xf0>
    2c48:	f7fe f962 	bl	f10 <app_error_handler_bare>
    2c4c:	e6d3      	b.n	29f6 <main+0x1e>
    2c4e:	f7fe f95f 	bl	f10 <app_error_handler_bare>
    2c52:	e6fa      	b.n	2a4a <main+0x72>
    2c54:	0000359c 	.word	0x0000359c
    2c58:	000035bc 	.word	0x000035bc
    2c5c:	00003464 	.word	0x00003464
    2c60:	00003408 	.word	0x00003408
    2c64:	00002959 	.word	0x00002959
    2c68:	00003480 	.word	0x00003480
    2c6c:	200006c4 	.word	0x200006c4
    2c70:	20001ec8 	.word	0x20001ec8
    2c74:	200026d4 	.word	0x200026d4
    2c78:	200026ce 	.word	0x200026ce
    2c7c:	200026c8 	.word	0x200026c8
    2c80:	200026ca 	.word	0x200026ca
    2c84:	200016c8 	.word	0x200016c8
    2c88:	200026cc 	.word	0x200026cc
    2c8c:	00003478 	.word	0x00003478
    2c90:	00003454 	.word	0x00003454
    2c94:	00003428 	.word	0x00003428
    2c98:	200026d0 	.word	0x200026d0

00002c9c <SystemInit>:
    2c9c:	b410      	push	{r4}
    2c9e:	f04f 5380 	mov.w	r3, #268435456	; 0x10000000
    2ca2:	f8d3 3130 	ldr.w	r3, [r3, #304]	; 0x130
    2ca6:	1c5a      	adds	r2, r3, #1
    2ca8:	bf04      	itt	eq
    2caa:	f04f 4370 	moveq.w	r3, #4026531840	; 0xf0000000
    2cae:	f893 3fe0 	ldrbeq.w	r3, [r3, #4064]	; 0xfe0
    2cb2:	2b06      	cmp	r3, #6
    2cb4:	d108      	bne.n	2cc8 <SystemInit+0x2c>
    2cb6:	f04f 5380 	mov.w	r3, #268435456	; 0x10000000
    2cba:	4aca      	ldr	r2, [pc, #808]	; (2fe4 <SystemInit+0x348>)
    2cbc:	f8d3 3324 	ldr.w	r3, [r3, #804]	; 0x324
    2cc0:	f3c3 2304 	ubfx	r3, r3, #8, #5
    2cc4:	f8c2 3540 	str.w	r3, [r2, #1344]	; 0x540
    2cc8:	f04f 4370 	mov.w	r3, #4026531840	; 0xf0000000
    2ccc:	f893 2fe0 	ldrb.w	r2, [r3, #4064]	; 0xfe0
    2cd0:	2a06      	cmp	r2, #6
    2cd2:	f000 8129 	beq.w	2f28 <SystemInit+0x28c>
    2cd6:	f04f 5380 	mov.w	r3, #268435456	; 0x10000000
    2cda:	f8d3 3130 	ldr.w	r3, [r3, #304]	; 0x130
    2cde:	1c5c      	adds	r4, r3, #1
    2ce0:	bf04      	itt	eq
    2ce2:	f04f 4370 	moveq.w	r3, #4026531840	; 0xf0000000
    2ce6:	f893 3fe0 	ldrbeq.w	r3, [r3, #4064]	; 0xfe0
    2cea:	2b06      	cmp	r3, #6
    2cec:	d109      	bne.n	2d02 <SystemInit+0x66>
    2cee:	f04f 5380 	mov.w	r3, #268435456	; 0x10000000
    2cf2:	f04f 4280 	mov.w	r2, #1073741824	; 0x40000000
    2cf6:	f8d3 3244 	ldr.w	r3, [r3, #580]	; 0x244
    2cfa:	f3c3 3342 	ubfx	r3, r3, #13, #3
    2cfe:	f8c2 353c 	str.w	r3, [r2, #1340]	; 0x53c
    2d02:	f04f 4370 	mov.w	r3, #4026531840	; 0xf0000000
    2d06:	f893 2fe0 	ldrb.w	r2, [r3, #4064]	; 0xfe0
    2d0a:	2a06      	cmp	r2, #6
    2d0c:	f000 80f7 	beq.w	2efe <SystemInit+0x262>
    2d10:	f04f 5380 	mov.w	r3, #268435456	; 0x10000000
    2d14:	f8d3 3130 	ldr.w	r3, [r3, #304]	; 0x130
    2d18:	1c58      	adds	r0, r3, #1
    2d1a:	bf04      	itt	eq
    2d1c:	f04f 4370 	moveq.w	r3, #4026531840	; 0xf0000000
    2d20:	f893 3fe0 	ldrbeq.w	r3, [r3, #4064]	; 0xfe0
    2d24:	2b06      	cmp	r3, #6
    2d26:	d108      	bne.n	2d3a <SystemInit+0x9e>
    2d28:	f04f 4380 	mov.w	r3, #1073741824	; 0x40000000
    2d2c:	2200      	movs	r2, #0
    2d2e:	f8c3 210c 	str.w	r2, [r3, #268]	; 0x10c
    2d32:	f8c3 2110 	str.w	r2, [r3, #272]	; 0x110
    2d36:	f8c3 2538 	str.w	r2, [r3, #1336]	; 0x538
    2d3a:	f04f 4370 	mov.w	r3, #4026531840	; 0xf0000000
    2d3e:	f893 2fe0 	ldrb.w	r2, [r3, #4064]	; 0xfe0
    2d42:	f8d3 3fe8 	ldr.w	r3, [r3, #4072]	; 0xfe8
    2d46:	2a06      	cmp	r2, #6
    2d48:	f000 80b8 	beq.w	2ebc <SystemInit+0x220>
    2d4c:	f04f 5280 	mov.w	r2, #268435456	; 0x10000000
    2d50:	f8d2 3130 	ldr.w	r3, [r2, #304]	; 0x130
    2d54:	1c59      	adds	r1, r3, #1
    2d56:	f000 809d 	beq.w	2e94 <SystemInit+0x1f8>
    2d5a:	2b06      	cmp	r3, #6
    2d5c:	d01c      	beq.n	2d98 <SystemInit+0xfc>
    2d5e:	4aa2      	ldr	r2, [pc, #648]	; (2fe8 <SystemInit+0x34c>)
    2d60:	f8d2 3088 	ldr.w	r3, [r2, #136]	; 0x88
    2d64:	f443 0370 	orr.w	r3, r3, #15728640	; 0xf00000
    2d68:	f8c2 3088 	str.w	r3, [r2, #136]	; 0x88
    2d6c:	f3bf 8f4f 	dsb	sy
    2d70:	f3bf 8f6f 	isb	sy
    2d74:	f04f 2310 	mov.w	r3, #268439552	; 0x10001000
    2d78:	f8d3 2200 	ldr.w	r2, [r3, #512]	; 0x200
    2d7c:	2a00      	cmp	r2, #0
    2d7e:	f2c0 8100 	blt.w	2f82 <SystemInit+0x2e6>
    2d82:	f8d3 3204 	ldr.w	r3, [r3, #516]	; 0x204
    2d86:	2b00      	cmp	r3, #0
    2d88:	f2c0 80fb 	blt.w	2f82 <SystemInit+0x2e6>
    2d8c:	4b97      	ldr	r3, [pc, #604]	; (2fec <SystemInit+0x350>)
    2d8e:	4a98      	ldr	r2, [pc, #608]	; (2ff0 <SystemInit+0x354>)
    2d90:	601a      	str	r2, [r3, #0]
    2d92:	f85d 4b04 	ldr.w	r4, [sp], #4
    2d96:	4770      	bx	lr
    2d98:	f8d2 2134 	ldr.w	r2, [r2, #308]	; 0x134
    2d9c:	3a03      	subs	r2, #3
    2d9e:	2a03      	cmp	r2, #3
    2da0:	f240 8087 	bls.w	2eb2 <SystemInit+0x216>
    2da4:	f04f 5380 	mov.w	r3, #268435456	; 0x10000000
    2da8:	4a92      	ldr	r2, [pc, #584]	; (2ff4 <SystemInit+0x358>)
    2daa:	f8d3 1404 	ldr.w	r1, [r3, #1028]	; 0x404
    2dae:	f8c2 1520 	str.w	r1, [r2, #1312]	; 0x520
    2db2:	f8d3 1408 	ldr.w	r1, [r3, #1032]	; 0x408
    2db6:	f8c2 1524 	str.w	r1, [r2, #1316]	; 0x524
    2dba:	f8d3 140c 	ldr.w	r1, [r3, #1036]	; 0x40c
    2dbe:	f8c2 1528 	str.w	r1, [r2, #1320]	; 0x528
    2dc2:	f8d3 1410 	ldr.w	r1, [r3, #1040]	; 0x410
    2dc6:	f8c2 152c 	str.w	r1, [r2, #1324]	; 0x52c
    2dca:	f8d3 1414 	ldr.w	r1, [r3, #1044]	; 0x414
    2dce:	f8c2 1530 	str.w	r1, [r2, #1328]	; 0x530
    2dd2:	f8d3 1418 	ldr.w	r1, [r3, #1048]	; 0x418
    2dd6:	f8c2 1534 	str.w	r1, [r2, #1332]	; 0x534
    2dda:	f8d3 141c 	ldr.w	r1, [r3, #1052]	; 0x41c
    2dde:	f8c2 1540 	str.w	r1, [r2, #1344]	; 0x540
    2de2:	f8d3 1420 	ldr.w	r1, [r3, #1056]	; 0x420
    2de6:	f8c2 1544 	str.w	r1, [r2, #1348]	; 0x544
    2dea:	f8d3 1424 	ldr.w	r1, [r3, #1060]	; 0x424
    2dee:	f8c2 1548 	str.w	r1, [r2, #1352]	; 0x548
    2df2:	f8d3 1428 	ldr.w	r1, [r3, #1064]	; 0x428
    2df6:	f8c2 154c 	str.w	r1, [r2, #1356]	; 0x54c
    2dfa:	f8d3 142c 	ldr.w	r1, [r3, #1068]	; 0x42c
    2dfe:	f8c2 1550 	str.w	r1, [r2, #1360]	; 0x550
    2e02:	f8d3 1430 	ldr.w	r1, [r3, #1072]	; 0x430
    2e06:	f8c2 1554 	str.w	r1, [r2, #1364]	; 0x554
    2e0a:	f8d3 1434 	ldr.w	r1, [r3, #1076]	; 0x434
    2e0e:	f8c2 1560 	str.w	r1, [r2, #1376]	; 0x560
    2e12:	f8d3 1438 	ldr.w	r1, [r3, #1080]	; 0x438
    2e16:	f8c2 1564 	str.w	r1, [r2, #1380]	; 0x564
    2e1a:	f8d3 143c 	ldr.w	r1, [r3, #1084]	; 0x43c
    2e1e:	f8c2 1568 	str.w	r1, [r2, #1384]	; 0x568
    2e22:	f8d3 1440 	ldr.w	r1, [r3, #1088]	; 0x440
    2e26:	f8c2 156c 	str.w	r1, [r2, #1388]	; 0x56c
    2e2a:	f8d3 1444 	ldr.w	r1, [r3, #1092]	; 0x444
    2e2e:	f8d3 3130 	ldr.w	r3, [r3, #304]	; 0x130
    2e32:	f8c2 1570 	str.w	r1, [r2, #1392]	; 0x570
    2e36:	1c5a      	adds	r2, r3, #1
    2e38:	bf04      	itt	eq
    2e3a:	f04f 4370 	moveq.w	r3, #4026531840	; 0xf0000000
    2e3e:	f893 3fe0 	ldrbeq.w	r3, [r3, #4064]	; 0xfe0
    2e42:	2b06      	cmp	r3, #6
    2e44:	d18b      	bne.n	2d5e <SystemInit+0xc2>
    2e46:	f04f 5280 	mov.w	r2, #268435456	; 0x10000000
    2e4a:	f04f 4180 	mov.w	r1, #1073741824	; 0x40000000
    2e4e:	f8d2 3258 	ldr.w	r3, [r2, #600]	; 0x258
    2e52:	f8d2 0130 	ldr.w	r0, [r2, #304]	; 0x130
    2e56:	f003 034f 	and.w	r3, r3, #79	; 0x4f
    2e5a:	1c44      	adds	r4, r0, #1
    2e5c:	f8c1 3ee4 	str.w	r3, [r1, #3812]	; 0xee4
    2e60:	d073      	beq.n	2f4a <SystemInit+0x2ae>
    2e62:	2806      	cmp	r0, #6
    2e64:	f47f af7b 	bne.w	2d5e <SystemInit+0xc2>
    2e68:	f8d1 3400 	ldr.w	r3, [r1, #1024]	; 0x400
    2e6c:	07d9      	lsls	r1, r3, #31
    2e6e:	d478      	bmi.n	2f62 <SystemInit+0x2c6>
    2e70:	f8d2 3134 	ldr.w	r3, [r2, #308]	; 0x134
    2e74:	3b03      	subs	r3, #3
    2e76:	2b03      	cmp	r3, #3
    2e78:	d804      	bhi.n	2e84 <SystemInit+0x1e8>
    2e7a:	4a5f      	ldr	r2, [pc, #380]	; (2ff8 <SystemInit+0x35c>)
    2e7c:	5cd3      	ldrb	r3, [r2, r3]
    2e7e:	2b00      	cmp	r3, #0
    2e80:	f43f af6d 	beq.w	2d5e <SystemInit+0xc2>
    2e84:	4a5d      	ldr	r2, [pc, #372]	; (2ffc <SystemInit+0x360>)
    2e86:	f8d2 373c 	ldr.w	r3, [r2, #1852]	; 0x73c
    2e8a:	f443 6380 	orr.w	r3, r3, #1024	; 0x400
    2e8e:	f8c2 373c 	str.w	r3, [r2, #1852]	; 0x73c
    2e92:	e764      	b.n	2d5e <SystemInit+0xc2>
    2e94:	f04f 4270 	mov.w	r2, #4026531840	; 0xf0000000
    2e98:	f892 1fe0 	ldrb.w	r1, [r2, #4064]	; 0xfe0
    2e9c:	f8d2 2fe8 	ldr.w	r2, [r2, #4072]	; 0xfe8
    2ea0:	2906      	cmp	r1, #6
    2ea2:	f47f af5c 	bne.w	2d5e <SystemInit+0xc2>
    2ea6:	f3c2 1203 	ubfx	r2, r2, #4, #4
    2eaa:	3a03      	subs	r2, #3
    2eac:	2a03      	cmp	r2, #3
    2eae:	f63f af79 	bhi.w	2da4 <SystemInit+0x108>
    2eb2:	4953      	ldr	r1, [pc, #332]	; (3000 <SystemInit+0x364>)
    2eb4:	5c8a      	ldrb	r2, [r1, r2]
    2eb6:	2a00      	cmp	r2, #0
    2eb8:	d0bd      	beq.n	2e36 <SystemInit+0x19a>
    2eba:	e773      	b.n	2da4 <SystemInit+0x108>
    2ebc:	f3c3 1303 	ubfx	r3, r3, #4, #4
    2ec0:	3b03      	subs	r3, #3
    2ec2:	2b03      	cmp	r3, #3
    2ec4:	f63f af42 	bhi.w	2d4c <SystemInit+0xb0>
    2ec8:	4a4e      	ldr	r2, [pc, #312]	; (3004 <SystemInit+0x368>)
    2eca:	5cd2      	ldrb	r2, [r2, r3]
    2ecc:	b122      	cbz	r2, 2ed8 <SystemInit+0x23c>
    2ece:	f04f 4280 	mov.w	r2, #1073741824	; 0x40000000
    2ed2:	2103      	movs	r1, #3
    2ed4:	f8c2 15a0 	str.w	r1, [r2, #1440]	; 0x5a0
    2ed8:	4a4b      	ldr	r2, [pc, #300]	; (3008 <SystemInit+0x36c>)
    2eda:	5cd3      	ldrb	r3, [r2, r3]
    2edc:	2b00      	cmp	r3, #0
    2ede:	f43f af35 	beq.w	2d4c <SystemInit+0xb0>
    2ee2:	4b4a      	ldr	r3, [pc, #296]	; (300c <SystemInit+0x370>)
    2ee4:	2405      	movs	r4, #5
    2ee6:	2001      	movs	r0, #1
    2ee8:	2100      	movs	r1, #0
    2eea:	223f      	movs	r2, #63	; 0x3f
    2eec:	f8c3 4610 	str.w	r4, [r3, #1552]	; 0x610
    2ef0:	f8c3 0688 	str.w	r0, [r3, #1672]	; 0x688
    2ef4:	f8c3 1618 	str.w	r1, [r3, #1560]	; 0x618
    2ef8:	f8c3 2614 	str.w	r2, [r3, #1556]	; 0x614
    2efc:	e726      	b.n	2d4c <SystemInit+0xb0>
    2efe:	f8d3 3fe8 	ldr.w	r3, [r3, #4072]	; 0xfe8
    2f02:	f3c3 1303 	ubfx	r3, r3, #4, #4
    2f06:	3b03      	subs	r3, #3
    2f08:	2b03      	cmp	r3, #3
    2f0a:	f63f af01 	bhi.w	2d10 <SystemInit+0x74>
    2f0e:	4a40      	ldr	r2, [pc, #256]	; (3010 <SystemInit+0x374>)
    2f10:	5cd3      	ldrb	r3, [r2, r3]
    2f12:	2b00      	cmp	r3, #0
    2f14:	f43f aefc 	beq.w	2d10 <SystemInit+0x74>
    2f18:	4a33      	ldr	r2, [pc, #204]	; (2fe8 <SystemInit+0x34c>)
    2f1a:	f8d2 30fc 	ldr.w	r3, [r2, #252]	; 0xfc
    2f1e:	f023 7380 	bic.w	r3, r3, #16777216	; 0x1000000
    2f22:	f8c2 30fc 	str.w	r3, [r2, #252]	; 0xfc
    2f26:	e6f3      	b.n	2d10 <SystemInit+0x74>
    2f28:	f8d3 3fe8 	ldr.w	r3, [r3, #4072]	; 0xfe8
    2f2c:	f3c3 1303 	ubfx	r3, r3, #4, #4
    2f30:	3b03      	subs	r3, #3
    2f32:	2b03      	cmp	r3, #3
    2f34:	f63f aecf 	bhi.w	2cd6 <SystemInit+0x3a>
    2f38:	4a36      	ldr	r2, [pc, #216]	; (3014 <SystemInit+0x378>)
    2f3a:	5cd3      	ldrb	r3, [r2, r3]
    2f3c:	2b00      	cmp	r3, #0
    2f3e:	f43f aeca 	beq.w	2cd6 <SystemInit+0x3a>
    2f42:	4b35      	ldr	r3, [pc, #212]	; (3018 <SystemInit+0x37c>)
    2f44:	4a35      	ldr	r2, [pc, #212]	; (301c <SystemInit+0x380>)
    2f46:	675a      	str	r2, [r3, #116]	; 0x74
    2f48:	e6c5      	b.n	2cd6 <SystemInit+0x3a>
    2f4a:	f04f 4370 	mov.w	r3, #4026531840	; 0xf0000000
    2f4e:	f893 3fe0 	ldrb.w	r3, [r3, #4064]	; 0xfe0
    2f52:	2b06      	cmp	r3, #6
    2f54:	f47f af03 	bne.w	2d5e <SystemInit+0xc2>
    2f58:	f8d1 3400 	ldr.w	r3, [r1, #1024]	; 0x400
    2f5c:	07db      	lsls	r3, r3, #31
    2f5e:	f57f aefe 	bpl.w	2d5e <SystemInit+0xc2>
    2f62:	f04f 5380 	mov.w	r3, #268435456	; 0x10000000
    2f66:	f04f 4180 	mov.w	r1, #1073741824	; 0x40000000
    2f6a:	f8d3 2130 	ldr.w	r2, [r3, #304]	; 0x130
    2f6e:	f06f 0001 	mvn.w	r0, #1
    2f72:	f8c1 0400 	str.w	r0, [r1, #1024]	; 0x400
    2f76:	2a06      	cmp	r2, #6
    2f78:	f8d3 3134 	ldr.w	r3, [r3, #308]	; 0x134
    2f7c:	f43f af7a 	beq.w	2e74 <SystemInit+0x1d8>
    2f80:	e6ed      	b.n	2d5e <SystemInit+0xc2>
    2f82:	4a27      	ldr	r2, [pc, #156]	; (3020 <SystemInit+0x384>)
    2f84:	2301      	movs	r3, #1
    2f86:	f8c2 3504 	str.w	r3, [r2, #1284]	; 0x504
    2f8a:	f8d2 3400 	ldr.w	r3, [r2, #1024]	; 0x400
    2f8e:	2b00      	cmp	r3, #0
    2f90:	d0fb      	beq.n	2f8a <SystemInit+0x2ee>
    2f92:	f04f 2310 	mov.w	r3, #268439552	; 0x10001000
    2f96:	2115      	movs	r1, #21
    2f98:	4a21      	ldr	r2, [pc, #132]	; (3020 <SystemInit+0x384>)
    2f9a:	f8c3 1200 	str.w	r1, [r3, #512]	; 0x200
    2f9e:	f8d2 3400 	ldr.w	r3, [r2, #1024]	; 0x400
    2fa2:	2b00      	cmp	r3, #0
    2fa4:	d0fb      	beq.n	2f9e <SystemInit+0x302>
    2fa6:	f04f 2310 	mov.w	r3, #268439552	; 0x10001000
    2faa:	2115      	movs	r1, #21
    2fac:	4a1c      	ldr	r2, [pc, #112]	; (3020 <SystemInit+0x384>)
    2fae:	f8c3 1204 	str.w	r1, [r3, #516]	; 0x204
    2fb2:	f8d2 3400 	ldr.w	r3, [r2, #1024]	; 0x400
    2fb6:	2b00      	cmp	r3, #0
    2fb8:	d0fb      	beq.n	2fb2 <SystemInit+0x316>
    2fba:	2300      	movs	r3, #0
    2fbc:	4918      	ldr	r1, [pc, #96]	; (3020 <SystemInit+0x384>)
    2fbe:	f8c2 3504 	str.w	r3, [r2, #1284]	; 0x504
    2fc2:	f8d1 3400 	ldr.w	r3, [r1, #1024]	; 0x400
    2fc6:	2b00      	cmp	r3, #0
    2fc8:	d0fb      	beq.n	2fc2 <SystemInit+0x326>
    2fca:	f3bf 8f4f 	dsb	sy
    2fce:	4906      	ldr	r1, [pc, #24]	; (2fe8 <SystemInit+0x34c>)
    2fd0:	4b14      	ldr	r3, [pc, #80]	; (3024 <SystemInit+0x388>)
    2fd2:	68ca      	ldr	r2, [r1, #12]
    2fd4:	f402 62e0 	and.w	r2, r2, #1792	; 0x700
    2fd8:	4313      	orrs	r3, r2
    2fda:	60cb      	str	r3, [r1, #12]
    2fdc:	f3bf 8f4f 	dsb	sy
    2fe0:	bf00      	nop
    2fe2:	e7fd      	b.n	2fe0 <SystemInit+0x344>
    2fe4:	40013000 	.word	0x40013000
    2fe8:	e000ed00 	.word	0xe000ed00
    2fec:	2000001c 	.word	0x2000001c
    2ff0:	03d09000 	.word	0x03d09000
    2ff4:	4000c000 	.word	0x4000c000
    2ff8:	0000348c 	.word	0x0000348c
    2ffc:	40001000 	.word	0x40001000
    3000:	00003488 	.word	0x00003488
    3004:	00003490 	.word	0x00003490
    3008:	00003490 	.word	0x00003490
    300c:	40005000 	.word	0x40005000
    3010:	00003490 	.word	0x00003490
    3014:	00003490 	.word	0x00003490
    3018:	4007c000 	.word	0x4007c000
    301c:	baadf00d 	.word	0xbaadf00d
    3020:	4001e000 	.word	0x4001e000
    3024:	05fa0004 	.word	0x05fa0004

00003028 <atexit>:
    3028:	2300      	movs	r3, #0
    302a:	4601      	mov	r1, r0
    302c:	461a      	mov	r2, r3
    302e:	4618      	mov	r0, r3
    3030:	f000 b86a 	b.w	3108 <__register_exitproc>

00003034 <exit>:
    3034:	b508      	push	{r3, lr}
    3036:	4b06      	ldr	r3, [pc, #24]	; (3050 <exit+0x1c>)
    3038:	4604      	mov	r4, r0
    303a:	b113      	cbz	r3, 3042 <exit+0xe>
    303c:	2100      	movs	r1, #0
    303e:	f000 f8c1 	bl	31c4 <__call_exitprocs>
    3042:	4b04      	ldr	r3, [pc, #16]	; (3054 <exit+0x20>)
    3044:	681b      	ldr	r3, [r3, #0]
    3046:	b103      	cbz	r3, 304a <exit+0x16>
    3048:	4798      	blx	r3
    304a:	4620      	mov	r0, r4
    304c:	f000 f916 	bl	327c <_exit>
    3050:	000031c5 	.word	0x000031c5
    3054:	200026d8 	.word	0x200026d8

00003058 <memset>:
    3058:	4402      	add	r2, r0
    305a:	4603      	mov	r3, r0
    305c:	4293      	cmp	r3, r2
    305e:	d100      	bne.n	3062 <memset+0xa>
    3060:	4770      	bx	lr
    3062:	f803 1b01 	strb.w	r1, [r3], #1
    3066:	e7f9      	b.n	305c <memset+0x4>

00003068 <__libc_init_array>:
    3068:	b570      	push	{r4, r5, r6, lr}
    306a:	4d0d      	ldr	r5, [pc, #52]	; (30a0 <__libc_init_array+0x38>)
    306c:	4c0d      	ldr	r4, [pc, #52]	; (30a4 <__libc_init_array+0x3c>)
    306e:	1b64      	subs	r4, r4, r5
    3070:	10a4      	asrs	r4, r4, #2
    3072:	2600      	movs	r6, #0
    3074:	42a6      	cmp	r6, r4
    3076:	d109      	bne.n	308c <__libc_init_array+0x24>
    3078:	4d0b      	ldr	r5, [pc, #44]	; (30a8 <__libc_init_array+0x40>)
    307a:	4c0c      	ldr	r4, [pc, #48]	; (30ac <__libc_init_array+0x44>)
    307c:	f000 f900 	bl	3280 <_init>
    3080:	1b64      	subs	r4, r4, r5
    3082:	10a4      	asrs	r4, r4, #2
    3084:	2600      	movs	r6, #0
    3086:	42a6      	cmp	r6, r4
    3088:	d105      	bne.n	3096 <__libc_init_array+0x2e>
    308a:	bd70      	pop	{r4, r5, r6, pc}
    308c:	f855 3b04 	ldr.w	r3, [r5], #4
    3090:	4798      	blx	r3
    3092:	3601      	adds	r6, #1
    3094:	e7ee      	b.n	3074 <__libc_init_array+0xc>
    3096:	f855 3b04 	ldr.w	r3, [r5], #4
    309a:	4798      	blx	r3
    309c:	3601      	adds	r6, #1
    309e:	e7f2      	b.n	3086 <__libc_init_array+0x1e>
    30a0:	20000024 	.word	0x20000024
    30a4:	20000024 	.word	0x20000024
    30a8:	20000024 	.word	0x20000024
    30ac:	20000028 	.word	0x20000028

000030b0 <__libc_fini_array>:
    30b0:	b538      	push	{r3, r4, r5, lr}
    30b2:	4d07      	ldr	r5, [pc, #28]	; (30d0 <__libc_fini_array+0x20>)
    30b4:	4c07      	ldr	r4, [pc, #28]	; (30d4 <__libc_fini_array+0x24>)
    30b6:	1b64      	subs	r4, r4, r5
    30b8:	10a4      	asrs	r4, r4, #2
    30ba:	b91c      	cbnz	r4, 30c4 <__libc_fini_array+0x14>
    30bc:	e8bd 4038 	ldmia.w	sp!, {r3, r4, r5, lr}
    30c0:	f000 b8e4 	b.w	328c <_fini>
    30c4:	3c01      	subs	r4, #1
    30c6:	f855 3024 	ldr.w	r3, [r5, r4, lsl #2]
    30ca:	4798      	blx	r3
    30cc:	e7f5      	b.n	30ba <__libc_fini_array+0xa>
    30ce:	bf00      	nop
    30d0:	20000028 	.word	0x20000028
    30d4:	2000002c 	.word	0x2000002c

000030d8 <__retarget_lock_acquire_recursive>:
    30d8:	4770      	bx	lr

000030da <__retarget_lock_release_recursive>:
    30da:	4770      	bx	lr

000030dc <memcpy>:
    30dc:	440a      	add	r2, r1
    30de:	4291      	cmp	r1, r2
    30e0:	f100 33ff 	add.w	r3, r0, #4294967295	; 0xffffffff
    30e4:	d100      	bne.n	30e8 <memcpy+0xc>
    30e6:	4770      	bx	lr
    30e8:	b510      	push	{r4, lr}
    30ea:	f811 4b01 	ldrb.w	r4, [r1], #1
    30ee:	f803 4f01 	strb.w	r4, [r3, #1]!
    30f2:	4291      	cmp	r1, r2
    30f4:	d1f9      	bne.n	30ea <memcpy+0xe>
    30f6:	bd10      	pop	{r4, pc}

000030f8 <strlen>:
    30f8:	4603      	mov	r3, r0
    30fa:	f813 2b01 	ldrb.w	r2, [r3], #1
    30fe:	2a00      	cmp	r2, #0
    3100:	d1fb      	bne.n	30fa <strlen+0x2>
    3102:	1a18      	subs	r0, r3, r0
    3104:	3801      	subs	r0, #1
    3106:	4770      	bx	lr

00003108 <__register_exitproc>:
    3108:	e92d 43f8 	stmdb	sp!, {r3, r4, r5, r6, r7, r8, r9, lr}
    310c:	f8df 80b0 	ldr.w	r8, [pc, #176]	; 31c0 <__register_exitproc+0xb8>
    3110:	4606      	mov	r6, r0
    3112:	f8d8 0000 	ldr.w	r0, [r8]
    3116:	461f      	mov	r7, r3
    3118:	460d      	mov	r5, r1
    311a:	4691      	mov	r9, r2
    311c:	f7ff ffdc 	bl	30d8 <__retarget_lock_acquire_recursive>
    3120:	4b23      	ldr	r3, [pc, #140]	; (31b0 <__register_exitproc+0xa8>)
    3122:	681c      	ldr	r4, [r3, #0]
    3124:	b934      	cbnz	r4, 3134 <__register_exitproc+0x2c>
    3126:	4c23      	ldr	r4, [pc, #140]	; (31b4 <__register_exitproc+0xac>)
    3128:	601c      	str	r4, [r3, #0]
    312a:	4b23      	ldr	r3, [pc, #140]	; (31b8 <__register_exitproc+0xb0>)
    312c:	b113      	cbz	r3, 3134 <__register_exitproc+0x2c>
    312e:	681b      	ldr	r3, [r3, #0]
    3130:	f8c4 3088 	str.w	r3, [r4, #136]	; 0x88
    3134:	6863      	ldr	r3, [r4, #4]
    3136:	2b1f      	cmp	r3, #31
    3138:	dd07      	ble.n	314a <__register_exitproc+0x42>
    313a:	f8d8 0000 	ldr.w	r0, [r8]
    313e:	f7ff ffcc 	bl	30da <__retarget_lock_release_recursive>
    3142:	f04f 30ff 	mov.w	r0, #4294967295	; 0xffffffff
    3146:	e8bd 83f8 	ldmia.w	sp!, {r3, r4, r5, r6, r7, r8, r9, pc}
    314a:	b32e      	cbz	r6, 3198 <__register_exitproc+0x90>
    314c:	f8d4 0088 	ldr.w	r0, [r4, #136]	; 0x88
    3150:	b968      	cbnz	r0, 316e <__register_exitproc+0x66>
    3152:	4b1a      	ldr	r3, [pc, #104]	; (31bc <__register_exitproc+0xb4>)
    3154:	2b00      	cmp	r3, #0
    3156:	d0f0      	beq.n	313a <__register_exitproc+0x32>
    3158:	f44f 7084 	mov.w	r0, #264	; 0x108
    315c:	f3af 8000 	nop.w
    3160:	2800      	cmp	r0, #0
    3162:	d0ea      	beq.n	313a <__register_exitproc+0x32>
    3164:	2300      	movs	r3, #0
    3166:	e9c0 3340 	strd	r3, r3, [r0, #256]	; 0x100
    316a:	f8c4 0088 	str.w	r0, [r4, #136]	; 0x88
    316e:	6863      	ldr	r3, [r4, #4]
    3170:	f840 9023 	str.w	r9, [r0, r3, lsl #2]
    3174:	2201      	movs	r2, #1
    3176:	409a      	lsls	r2, r3
    3178:	eb00 0183 	add.w	r1, r0, r3, lsl #2
    317c:	f8d0 3100 	ldr.w	r3, [r0, #256]	; 0x100
    3180:	4313      	orrs	r3, r2
    3182:	f8c0 3100 	str.w	r3, [r0, #256]	; 0x100
    3186:	2e02      	cmp	r6, #2
    3188:	f8c1 7080 	str.w	r7, [r1, #128]	; 0x80
    318c:	bf02      	ittt	eq
    318e:	f8d0 3104 	ldreq.w	r3, [r0, #260]	; 0x104
    3192:	4313      	orreq	r3, r2
    3194:	f8c0 3104 	streq.w	r3, [r0, #260]	; 0x104
    3198:	6863      	ldr	r3, [r4, #4]
    319a:	f8d8 0000 	ldr.w	r0, [r8]
    319e:	1c5a      	adds	r2, r3, #1
    31a0:	3302      	adds	r3, #2
    31a2:	6062      	str	r2, [r4, #4]
    31a4:	f844 5023 	str.w	r5, [r4, r3, lsl #2]
    31a8:	f7ff ff97 	bl	30da <__retarget_lock_release_recursive>
    31ac:	2000      	movs	r0, #0
    31ae:	e7ca      	b.n	3146 <__register_exitproc+0x3e>
    31b0:	2000276c 	.word	0x2000276c
    31b4:	200026e0 	.word	0x200026e0
	...
    31c0:	20000020 	.word	0x20000020

000031c4 <__call_exitprocs>:
    31c4:	e92d 4ff7 	stmdb	sp!, {r0, r1, r2, r4, r5, r6, r7, r8, r9, sl, fp, lr}
    31c8:	f8df 90a8 	ldr.w	r9, [pc, #168]	; 3274 <__call_exitprocs+0xb0>
    31cc:	9100      	str	r1, [sp, #0]
    31ce:	4680      	mov	r8, r0
    31d0:	f8d9 0000 	ldr.w	r0, [r9]
    31d4:	f8df a0a0 	ldr.w	sl, [pc, #160]	; 3278 <__call_exitprocs+0xb4>
    31d8:	f7ff ff7e 	bl	30d8 <__retarget_lock_acquire_recursive>
    31dc:	f8da 4000 	ldr.w	r4, [sl]
    31e0:	b934      	cbnz	r4, 31f0 <__call_exitprocs+0x2c>
    31e2:	f8d9 0000 	ldr.w	r0, [r9]
    31e6:	b003      	add	sp, #12
    31e8:	e8bd 4ff0 	ldmia.w	sp!, {r4, r5, r6, r7, r8, r9, sl, fp, lr}
    31ec:	f7ff bf75 	b.w	30da <__retarget_lock_release_recursive>
    31f0:	6865      	ldr	r5, [r4, #4]
    31f2:	f8d4 7088 	ldr.w	r7, [r4, #136]	; 0x88
    31f6:	1e6e      	subs	r6, r5, #1
    31f8:	3501      	adds	r5, #1
    31fa:	eb04 0585 	add.w	r5, r4, r5, lsl #2
    31fe:	f107 0b80 	add.w	fp, r7, #128	; 0x80
    3202:	2e00      	cmp	r6, #0
    3204:	dbed      	blt.n	31e2 <__call_exitprocs+0x1e>
    3206:	9b00      	ldr	r3, [sp, #0]
    3208:	b143      	cbz	r3, 321c <__call_exitprocs+0x58>
    320a:	b917      	cbnz	r7, 3212 <__call_exitprocs+0x4e>
    320c:	3e01      	subs	r6, #1
    320e:	3d04      	subs	r5, #4
    3210:	e7f7      	b.n	3202 <__call_exitprocs+0x3e>
    3212:	f85b 2026 	ldr.w	r2, [fp, r6, lsl #2]
    3216:	9b00      	ldr	r3, [sp, #0]
    3218:	429a      	cmp	r2, r3
    321a:	d1f7      	bne.n	320c <__call_exitprocs+0x48>
    321c:	6861      	ldr	r1, [r4, #4]
    321e:	682a      	ldr	r2, [r5, #0]
    3220:	3901      	subs	r1, #1
    3222:	42b1      	cmp	r1, r6
    3224:	bf16      	itet	ne
    3226:	2300      	movne	r3, #0
    3228:	6066      	streq	r6, [r4, #4]
    322a:	602b      	strne	r3, [r5, #0]
    322c:	2a00      	cmp	r2, #0
    322e:	d0ed      	beq.n	320c <__call_exitprocs+0x48>
    3230:	6863      	ldr	r3, [r4, #4]
    3232:	9301      	str	r3, [sp, #4]
    3234:	b13f      	cbz	r7, 3246 <__call_exitprocs+0x82>
    3236:	f8d7 1100 	ldr.w	r1, [r7, #256]	; 0x100
    323a:	2301      	movs	r3, #1
    323c:	fa03 fc06 	lsl.w	ip, r3, r6
    3240:	ea1c 0f01 	tst.w	ip, r1
    3244:	d109      	bne.n	325a <__call_exitprocs+0x96>
    3246:	4790      	blx	r2
    3248:	6861      	ldr	r1, [r4, #4]
    324a:	9b01      	ldr	r3, [sp, #4]
    324c:	f8da 2000 	ldr.w	r2, [sl]
    3250:	4299      	cmp	r1, r3
    3252:	d1c3      	bne.n	31dc <__call_exitprocs+0x18>
    3254:	4294      	cmp	r4, r2
    3256:	d0d9      	beq.n	320c <__call_exitprocs+0x48>
    3258:	e7c0      	b.n	31dc <__call_exitprocs+0x18>
    325a:	f8d7 0104 	ldr.w	r0, [r7, #260]	; 0x104
    325e:	f857 1026 	ldr.w	r1, [r7, r6, lsl #2]
    3262:	ea1c 0f00 	tst.w	ip, r0
    3266:	d102      	bne.n	326e <__call_exitprocs+0xaa>
    3268:	4640      	mov	r0, r8
    326a:	4790      	blx	r2
    326c:	e7ec      	b.n	3248 <__call_exitprocs+0x84>
    326e:	4608      	mov	r0, r1
    3270:	4790      	blx	r2
    3272:	e7e9      	b.n	3248 <__call_exitprocs+0x84>
    3274:	20000020 	.word	0x20000020
    3278:	2000276c 	.word	0x2000276c

0000327c <_exit>:
    327c:	e7fe      	b.n	327c <_exit>
    327e:	bf00      	nop

00003280 <_init>:
    3280:	b5f8      	push	{r3, r4, r5, r6, r7, lr}
    3282:	bf00      	nop
    3284:	bcf8      	pop	{r3, r4, r5, r6, r7}
    3286:	bc08      	pop	{r3}
    3288:	469e      	mov	lr, r3
    328a:	4770      	bx	lr

0000328c <_fini>:
    328c:	b5f8      	push	{r3, r4, r5, r6, r7, lr}
    328e:	bf00      	nop
    3290:	bcf8      	pop	{r3, r4, r5, r6, r7}
    3292:	bc08      	pop	{r3}
    3294:	469e      	mov	lr, r3
    3296:	4770      	bx	lr
    3298:	ffffffff 	.word	0xffffffff
    329c:	ffffffff 	.word	0xffffffff
    32a0:	ffffffff 	.word	0xffffffff
    32a4:	ffffffff 	.word	0xffffffff
	...
    32b0:	01d60000 	.word	0x01d60000
    32b4:	00000106 	.word	0x00000106

000032b8 <nrf_log_backend_uart_api>:
    32b8:	000003d5 00000445 000003d1 74726175     ....E.......uart
    32c8:	676f6c5f 6361625f 646e656b 00000000     _log_backend....
    32d8:	6b636142 73646e65 756c6620 64656873     Backends flushed
    32e8:	00000000 00707061                       ....app.

000032f0 <m_log_push_ringbuf>:
    32f0:	20000584 0000007f 20000604 3b315b1b     ... ....... .[1;
    3300:	006d3133 6f4c7325 64207367 70706f72     31m.%sLogs dropp
    3310:	28206465 25296425 000a0d73 6d305b1b     ed (%d)%s....[0m
    3320:	00000000 00007325 3e73253c 3a732520     ....%s..<%s> %s:
    3330:	00000020 00000a0d 32302520 00000078      ....... %02x...
    3340:	00202020 0000007c 00006325 3b315b1b        .|...%c...[1;
    3350:	006d3033 3b315b1b 006d3233 3b315b1b     30m..[1;32m..[1;
    3360:	006d3333 3b315b1b 006d3433 3b315b1b     33m..[1;34m..[1;
    3370:	006d3533 3b315b1b 006d3633 3b315b1b     35m..[1;36m..[1;
    3380:	006d3733 6f727265 00000072 6e726177     37m.error...warn
    3390:	00676e69 6f666e69 00000000 75626564     ing.info....debu
    33a0:	00000067                                g...

000033a4 <m_colors>:
    33a4:	0000331c 0000334c 000032fc 00003354     .3..L3...2..T3..
    33b4:	0000335c 00003364 0000336c 00003374     \3..d3..l3..t3..
    33c4:	0000337c                                |3..

000033c8 <severity_names>:
    33c8:	00000000 00003384 0000338c 00003394     .....3...3...3..
    33d8:	0000339c                                .3..

000033dc <m_board_led_list>:
    33dc:	14131211                                ....

000033e0 <_aV2C.0>:
    33e0:	33323130 37363534 42413938 46454443     0123456789ABCDEF
    33f0:	00533249 00535250 54524155 00000000     I2S.PRS.UART....
    3400:	54524155 00000045 20533249 706f6f6c     UARTE...I2S loop
    3410:	6b636162 61786520 656c706d 61747320     back example sta
    3420:	64657472 0000002e 3a753325 34302520     rted....%3u: %04
    3430:	30252f78 202c7834 65707865 64657463     x/%04x, expected
    3440:	3025203a 252f7834 20783430 203a6928     : %04x/%04x (i: 
    3450:	00297525 3a753325 004b4f20 20000ec8     %u).%3u: OK.... 
    3460:	20001ec8 1dff1e1f 0000061c 00010100     ... ............
    3470:	20000000 000000d0 200006c8 200016c8     ... ....... ... 

00003480 <delay_machine_code.0>:
    3480:	d8fd3803 00004770                       .8..pG..

00003488 <CSWTCH.15>:
    3488:	01010000                                ....

0000348c <CSWTCH.19>:
    348c:	01000000                                ....

00003490 <CSWTCH.11>:
    3490:	00000001                                ....

00003494 <_ctype_>:
    3494:	20202000 20202020 28282020 20282828     .         ((((( 
    34a4:	20202020 20202020 20202020 20202020                     
    34b4:	10108820 10101010 10101010 10101010      ...............
    34c4:	04040410 04040404 10040404 10101010     ................
    34d4:	41411010 41414141 01010101 01010101     ..AAAAAA........
    34e4:	01010101 01010101 01010101 10101010     ................
    34f4:	42421010 42424242 02020202 02020202     ..BBBBBB........
    3504:	02020202 02020202 02020202 10101010     ................
    3514:	00000020 00000000 00000000 00000000      ...............
	...

00003598 <__EH_FRAME_BEGIN__>:
    3598:	00000000                                ....
