
i2s-o0.elf:     file format elf32-littlearm


Disassembly of section .text:

00000000 <__isr_vector>:
       0:	20010000 	.word	0x20010000
       4:	000002b1 	.word	0x000002b1
       8:	000002d9 	.word	0x000002d9
       c:	000002db 	.word	0x000002db
      10:	000002dd 	.word	0x000002dd
      14:	000002df 	.word	0x000002df
      18:	000002e1 	.word	0x000002e1
	...
      2c:	000002e3 	.word	0x000002e3
      30:	000002e5 	.word	0x000002e5
      34:	00000000 	.word	0x00000000
      38:	000002e7 	.word	0x000002e7
      3c:	000002e9 	.word	0x000002e9
      40:	000002eb 	.word	0x000002eb
      44:	000002eb 	.word	0x000002eb
      48:	000030c1 	.word	0x000030c1
      4c:	000002eb 	.word	0x000002eb
      50:	000002eb 	.word	0x000002eb
      54:	000002eb 	.word	0x000002eb
      58:	000002eb 	.word	0x000002eb
      5c:	000002eb 	.word	0x000002eb
      60:	000002eb 	.word	0x000002eb
      64:	000002eb 	.word	0x000002eb
      68:	000002eb 	.word	0x000002eb
      6c:	000002eb 	.word	0x000002eb
      70:	000002eb 	.word	0x000002eb
      74:	000002eb 	.word	0x000002eb
      78:	000002eb 	.word	0x000002eb
      7c:	000002eb 	.word	0x000002eb
      80:	000002eb 	.word	0x000002eb
      84:	000002eb 	.word	0x000002eb
      88:	000002eb 	.word	0x000002eb
      8c:	000002eb 	.word	0x000002eb
      90:	000002eb 	.word	0x000002eb
      94:	000002eb 	.word	0x000002eb
      98:	000002eb 	.word	0x000002eb
      9c:	000002eb 	.word	0x000002eb
      a0:	000002eb 	.word	0x000002eb
      a4:	000002eb 	.word	0x000002eb
      a8:	000002eb 	.word	0x000002eb
      ac:	000002eb 	.word	0x000002eb
      b0:	000002eb 	.word	0x000002eb
      b4:	000002eb 	.word	0x000002eb
	...
      c0:	000002eb 	.word	0x000002eb
      c4:	000002eb 	.word	0x000002eb
      c8:	000002eb 	.word	0x000002eb
      cc:	000002eb 	.word	0x000002eb
      d0:	000002eb 	.word	0x000002eb
      d4:	00002ecd 	.word	0x00002ecd
      d8:	000002eb 	.word	0x000002eb
	...

00000200 <__do_global_dtors_aux>:
     200:	b510      	push	{r4, lr}
     202:	4c05      	ldr	r4, [pc, #20]	; (218 <__do_global_dtors_aux+0x18>)
     204:	7823      	ldrb	r3, [r4, #0]
     206:	b933      	cbnz	r3, 216 <__do_global_dtors_aux+0x16>
     208:	4b04      	ldr	r3, [pc, #16]	; (21c <__do_global_dtors_aux+0x1c>)
     20a:	b113      	cbz	r3, 212 <__do_global_dtors_aux+0x12>
     20c:	4804      	ldr	r0, [pc, #16]	; (220 <__do_global_dtors_aux+0x20>)
     20e:	f3af 8000 	nop.w
     212:	2301      	movs	r3, #1
     214:	7023      	strb	r3, [r4, #0]
     216:	bd10      	pop	{r4, pc}
     218:	20000068 	.word	0x20000068
     21c:	00000000 	.word	0x00000000
     220:	00005d08 	.word	0x00005d08

00000224 <frame_dummy>:
     224:	b508      	push	{r3, lr}
     226:	4b03      	ldr	r3, [pc, #12]	; (234 <frame_dummy+0x10>)
     228:	b11b      	cbz	r3, 232 <frame_dummy+0xe>
     22a:	4903      	ldr	r1, [pc, #12]	; (238 <frame_dummy+0x14>)
     22c:	4803      	ldr	r0, [pc, #12]	; (23c <frame_dummy+0x18>)
     22e:	f3af 8000 	nop.w
     232:	bd08      	pop	{r3, pc}
     234:	00000000 	.word	0x00000000
     238:	2000006c 	.word	0x2000006c
     23c:	00005d08 	.word	0x00005d08

00000240 <_stack_init>:
     240:	f5a3 3a80 	sub.w	sl, r3, #65536	; 0x10000
     244:	4770      	bx	lr
     246:	bf00      	nop

00000248 <_mainCRTStartup>:
     248:	4b15      	ldr	r3, [pc, #84]	; (2a0 <_mainCRTStartup+0x58>)
     24a:	2b00      	cmp	r3, #0
     24c:	bf08      	it	eq
     24e:	4b11      	ldreq	r3, [pc, #68]	; (294 <_mainCRTStartup+0x4c>)
     250:	469d      	mov	sp, r3
     252:	f7ff fff5 	bl	240 <_stack_init>
     256:	2100      	movs	r1, #0
     258:	468b      	mov	fp, r1
     25a:	460f      	mov	r7, r1
     25c:	4811      	ldr	r0, [pc, #68]	; (2a4 <_mainCRTStartup+0x5c>)
     25e:	4a12      	ldr	r2, [pc, #72]	; (2a8 <_mainCRTStartup+0x60>)
     260:	1a12      	subs	r2, r2, r0
     262:	f005 fabd 	bl	57e0 <memset>
     266:	4b0c      	ldr	r3, [pc, #48]	; (298 <_mainCRTStartup+0x50>)
     268:	2b00      	cmp	r3, #0
     26a:	d000      	beq.n	26e <_mainCRTStartup+0x26>
     26c:	4798      	blx	r3
     26e:	4b0b      	ldr	r3, [pc, #44]	; (29c <_mainCRTStartup+0x54>)
     270:	2b00      	cmp	r3, #0
     272:	d000      	beq.n	276 <_mainCRTStartup+0x2e>
     274:	4798      	blx	r3
     276:	2000      	movs	r0, #0
     278:	2100      	movs	r1, #0
     27a:	0004      	movs	r4, r0
     27c:	000d      	movs	r5, r1
     27e:	480b      	ldr	r0, [pc, #44]	; (2ac <_mainCRTStartup+0x64>)
     280:	f005 fa96 	bl	57b0 <atexit>
     284:	f005 fab4 	bl	57f0 <__libc_init_array>
     288:	0020      	movs	r0, r4
     28a:	0029      	movs	r1, r5
     28c:	f004 fda8 	bl	4de0 <main>
     290:	f005 fa94 	bl	57bc <exit>
     294:	00080000 	.word	0x00080000
	...
     2a0:	20010000 	.word	0x20010000
     2a4:	20000068 	.word	0x20000068
     2a8:	20002798 	.word	0x20002798
     2ac:	00005839 	.word	0x00005839

000002b0 <Reset_Handler>:
     2b0:	4906      	ldr	r1, [pc, #24]	; (2cc <Reset_Handler+0x1c>)
     2b2:	4a07      	ldr	r2, [pc, #28]	; (2d0 <Reset_Handler+0x20>)
     2b4:	4b07      	ldr	r3, [pc, #28]	; (2d4 <Reset_Handler+0x24>)
     2b6:	1a9b      	subs	r3, r3, r2
     2b8:	dd03      	ble.n	2c2 <Reset_Handler+0x12>
     2ba:	3b04      	subs	r3, #4
     2bc:	58c8      	ldr	r0, [r1, r3]
     2be:	50d0      	str	r0, [r2, r3]
     2c0:	dcfb      	bgt.n	2ba <Reset_Handler+0xa>
     2c2:	f005 f907 	bl	54d4 <SystemInit>
     2c6:	f7ff ffbf 	bl	248 <_mainCRTStartup>
     2ca:	0000      	.short	0x0000
     2cc:	00005d60 	.word	0x00005d60
     2d0:	20000000 	.word	0x20000000
     2d4:	20000068 	.word	0x20000068

000002d8 <NMI_Handler>:
     2d8:	e7fe      	b.n	2d8 <NMI_Handler>

000002da <HardFault_Handler>:
     2da:	e7fe      	b.n	2da <HardFault_Handler>

000002dc <MemoryManagement_Handler>:
     2dc:	e7fe      	b.n	2dc <MemoryManagement_Handler>

000002de <BusFault_Handler>:
     2de:	e7fe      	b.n	2de <BusFault_Handler>

000002e0 <UsageFault_Handler>:
     2e0:	e7fe      	b.n	2e0 <UsageFault_Handler>

000002e2 <SVC_Handler>:
     2e2:	e7fe      	b.n	2e2 <SVC_Handler>

000002e4 <DebugMon_Handler>:
     2e4:	e7fe      	b.n	2e4 <DebugMon_Handler>

000002e6 <PendSV_Handler>:
     2e6:	e7fe      	b.n	2e6 <PendSV_Handler>

000002e8 <SysTick_Handler>:
     2e8:	e7fe      	b.n	2e8 <SysTick_Handler>

000002ea <Default_Handler>:
     2ea:	e7fe      	b.n	2ea <Default_Handler>

000002ec <nrf_log_backend_serial_put>:
     2ec:	b580      	push	{r7, lr}
     2ee:	b0a0      	sub	sp, #128	; 0x80
     2f0:	af02      	add	r7, sp, #8
     2f2:	60f8      	str	r0, [r7, #12]
     2f4:	60b9      	str	r1, [r7, #8]
     2f6:	607a      	str	r2, [r7, #4]
     2f8:	603b      	str	r3, [r7, #0]
     2fa:	68b8      	ldr	r0, [r7, #8]
     2fc:	f002 f84e 	bl	239c <nrf_memobj_get>
     300:	687b      	ldr	r3, [r7, #4]
     302:	64fb      	str	r3, [r7, #76]	; 0x4c
     304:	683b      	ldr	r3, [r7, #0]
     306:	653b      	str	r3, [r7, #80]	; 0x50
     308:	2300      	movs	r3, #0
     30a:	657b      	str	r3, [r7, #84]	; 0x54
     30c:	2300      	movs	r3, #0
     30e:	f887 3058 	strb.w	r3, [r7, #88]	; 0x58
     312:	2300      	movs	r3, #0
     314:	65fb      	str	r3, [r7, #92]	; 0x5c
     316:	f8d7 3080 	ldr.w	r3, [r7, #128]	; 0x80
     31a:	663b      	str	r3, [r7, #96]	; 0x60
     31c:	2300      	movs	r3, #0
     31e:	677b      	str	r3, [r7, #116]	; 0x74
     320:	f107 0134 	add.w	r1, r7, #52	; 0x34
     324:	6f7b      	ldr	r3, [r7, #116]	; 0x74
     326:	2208      	movs	r2, #8
     328:	68b8      	ldr	r0, [r7, #8]
     32a:	f002 f8fb 	bl	2524 <nrf_memobj_read>
     32e:	2308      	movs	r3, #8
     330:	677b      	str	r3, [r7, #116]	; 0x74
     332:	6bfb      	ldr	r3, [r7, #60]	; 0x3c
     334:	643b      	str	r3, [r7, #64]	; 0x40
     336:	8f3b      	ldrh	r3, [r7, #56]	; 0x38
     338:	f8a7 3044 	strh.w	r3, [r7, #68]	; 0x44
     33c:	8f7b      	ldrh	r3, [r7, #58]	; 0x3a
     33e:	f8a7 3046 	strh.w	r3, [r7, #70]	; 0x46
     342:	2300      	movs	r3, #0
     344:	f887 3049 	strb.w	r3, [r7, #73]	; 0x49
     348:	f897 3034 	ldrb.w	r3, [r7, #52]	; 0x34
     34c:	f003 0303 	and.w	r3, r3, #3
     350:	b2db      	uxtb	r3, r3
     352:	2b01      	cmp	r3, #1
     354:	d129      	bne.n	3aa <nrf_log_backend_serial_put+0xbe>
     356:	6b7b      	ldr	r3, [r7, #52]	; 0x34
     358:	f3c3 2395 	ubfx	r3, r3, #10, #22
     35c:	66bb      	str	r3, [r7, #104]	; 0x68
     35e:	f897 3034 	ldrb.w	r3, [r7, #52]	; 0x34
     362:	f3c3 03c2 	ubfx	r3, r3, #3, #3
     366:	b2db      	uxtb	r3, r3
     368:	f887 3048 	strb.w	r3, [r7, #72]	; 0x48
     36c:	8ebb      	ldrh	r3, [r7, #52]	; 0x34
     36e:	f3c3 1383 	ubfx	r3, r3, #6, #4
     372:	b2db      	uxtb	r3, r3
     374:	667b      	str	r3, [r7, #100]	; 0x64
     376:	6e7b      	ldr	r3, [r7, #100]	; 0x64
     378:	009a      	lsls	r2, r3, #2
     37a:	f107 011c 	add.w	r1, r7, #28
     37e:	6f7b      	ldr	r3, [r7, #116]	; 0x74
     380:	68b8      	ldr	r0, [r7, #8]
     382:	f002 f8cf 	bl	2524 <nrf_memobj_read>
     386:	6e7b      	ldr	r3, [r7, #100]	; 0x64
     388:	009b      	lsls	r3, r3, #2
     38a:	6f7a      	ldr	r2, [r7, #116]	; 0x74
     38c:	4413      	add	r3, r2
     38e:	677b      	str	r3, [r7, #116]	; 0x74
     390:	f107 0240 	add.w	r2, r7, #64	; 0x40
     394:	f107 011c 	add.w	r1, r7, #28
     398:	f107 034c 	add.w	r3, r7, #76	; 0x4c
     39c:	9300      	str	r3, [sp, #0]
     39e:	4613      	mov	r3, r2
     3a0:	6e7a      	ldr	r2, [r7, #100]	; 0x64
     3a2:	6eb8      	ldr	r0, [r7, #104]	; 0x68
     3a4:	f000 ff70 	bl	1288 <nrf_log_std_entry_process>
     3a8:	e032      	b.n	410 <nrf_log_backend_serial_put+0x124>
     3aa:	f897 3034 	ldrb.w	r3, [r7, #52]	; 0x34
     3ae:	f003 0303 	and.w	r3, r3, #3
     3b2:	b2db      	uxtb	r3, r3
     3b4:	2b02      	cmp	r3, #2
     3b6:	d12b      	bne.n	410 <nrf_log_backend_serial_put+0x124>
     3b8:	8efb      	ldrh	r3, [r7, #54]	; 0x36
     3ba:	f3c3 1389 	ubfx	r3, r3, #6, #10
     3be:	b29b      	uxth	r3, r3
     3c0:	673b      	str	r3, [r7, #112]	; 0x70
     3c2:	f897 3034 	ldrb.w	r3, [r7, #52]	; 0x34
     3c6:	f3c3 03c2 	ubfx	r3, r3, #3, #3
     3ca:	b2db      	uxtb	r3, r3
     3cc:	f887 3048 	strb.w	r3, [r7, #72]	; 0x48
     3d0:	6f3b      	ldr	r3, [r7, #112]	; 0x70
     3d2:	2b08      	cmp	r3, #8
     3d4:	bf28      	it	cs
     3d6:	2308      	movcs	r3, #8
     3d8:	66fb      	str	r3, [r7, #108]	; 0x6c
     3da:	f107 0114 	add.w	r1, r7, #20
     3de:	6f7b      	ldr	r3, [r7, #116]	; 0x74
     3e0:	6efa      	ldr	r2, [r7, #108]	; 0x6c
     3e2:	68b8      	ldr	r0, [r7, #8]
     3e4:	f002 f89e 	bl	2524 <nrf_memobj_read>
     3e8:	6f7a      	ldr	r2, [r7, #116]	; 0x74
     3ea:	6efb      	ldr	r3, [r7, #108]	; 0x6c
     3ec:	4413      	add	r3, r2
     3ee:	677b      	str	r3, [r7, #116]	; 0x74
     3f0:	6f3a      	ldr	r2, [r7, #112]	; 0x70
     3f2:	6efb      	ldr	r3, [r7, #108]	; 0x6c
     3f4:	1ad3      	subs	r3, r2, r3
     3f6:	673b      	str	r3, [r7, #112]	; 0x70
     3f8:	f107 034c 	add.w	r3, r7, #76	; 0x4c
     3fc:	f107 0240 	add.w	r2, r7, #64	; 0x40
     400:	f107 0014 	add.w	r0, r7, #20
     404:	6ef9      	ldr	r1, [r7, #108]	; 0x6c
     406:	f000 ffe1 	bl	13cc <nrf_log_hexdump_entry_process>
     40a:	6f3b      	ldr	r3, [r7, #112]	; 0x70
     40c:	2b00      	cmp	r3, #0
     40e:	d1df      	bne.n	3d0 <nrf_log_backend_serial_put+0xe4>
     410:	68b8      	ldr	r0, [r7, #8]
     412:	f001 ffd3 	bl	23bc <nrf_memobj_put>
     416:	bf00      	nop
     418:	3778      	adds	r7, #120	; 0x78
     41a:	46bd      	mov	sp, r7
     41c:	bd80      	pop	{r7, pc}
	...

00000420 <nrf_drv_uart_uninit>:
     420:	b580      	push	{r7, lr}
     422:	b082      	sub	sp, #8
     424:	af00      	add	r7, sp, #0
     426:	6078      	str	r0, [r7, #4]
     428:	687b      	ldr	r3, [r7, #4]
     42a:	781b      	ldrb	r3, [r3, #0]
     42c:	461a      	mov	r2, r3
     42e:	4b0d      	ldr	r3, [pc, #52]	; (464 <nrf_drv_uart_uninit+0x44>)
     430:	5c9b      	ldrb	r3, [r3, r2]
     432:	2b00      	cmp	r3, #0
     434:	d005      	beq.n	442 <nrf_drv_uart_uninit+0x22>
     436:	687b      	ldr	r3, [r7, #4]
     438:	3304      	adds	r3, #4
     43a:	4618      	mov	r0, r3
     43c:	f004 f910 	bl	4660 <nrfx_uarte_uninit>
     440:	e00b      	b.n	45a <nrf_drv_uart_uninit+0x3a>
     442:	687b      	ldr	r3, [r7, #4]
     444:	781b      	ldrb	r3, [r3, #0]
     446:	461a      	mov	r2, r3
     448:	4b06      	ldr	r3, [pc, #24]	; (464 <nrf_drv_uart_uninit+0x44>)
     44a:	5c9b      	ldrb	r3, [r3, r2]
     44c:	2b00      	cmp	r3, #0
     44e:	d104      	bne.n	45a <nrf_drv_uart_uninit+0x3a>
     450:	687b      	ldr	r3, [r7, #4]
     452:	330c      	adds	r3, #12
     454:	4618      	mov	r0, r3
     456:	f003 fa87 	bl	3968 <nrfx_uart_uninit>
     45a:	bf00      	nop
     45c:	3708      	adds	r7, #8
     45e:	46bd      	mov	sp, r7
     460:	bd80      	pop	{r7, pc}
     462:	bf00      	nop
     464:	2000067c 	.word	0x2000067c

00000468 <nrf_drv_uart_tx>:
     468:	b580      	push	{r7, lr}
     46a:	b086      	sub	sp, #24
     46c:	af00      	add	r7, sp, #0
     46e:	60f8      	str	r0, [r7, #12]
     470:	60b9      	str	r1, [r7, #8]
     472:	4613      	mov	r3, r2
     474:	71fb      	strb	r3, [r7, #7]
     476:	2300      	movs	r3, #0
     478:	617b      	str	r3, [r7, #20]
     47a:	68fb      	ldr	r3, [r7, #12]
     47c:	781b      	ldrb	r3, [r3, #0]
     47e:	461a      	mov	r2, r3
     480:	4b10      	ldr	r3, [pc, #64]	; (4c4 <nrf_drv_uart_tx+0x5c>)
     482:	5c9b      	ldrb	r3, [r3, r2]
     484:	2b00      	cmp	r3, #0
     486:	d008      	beq.n	49a <nrf_drv_uart_tx+0x32>
     488:	68fb      	ldr	r3, [r7, #12]
     48a:	3304      	adds	r3, #4
     48c:	79fa      	ldrb	r2, [r7, #7]
     48e:	68b9      	ldr	r1, [r7, #8]
     490:	4618      	mov	r0, r3
     492:	f004 f949 	bl	4728 <nrfx_uarte_tx>
     496:	6178      	str	r0, [r7, #20]
     498:	e00e      	b.n	4b8 <nrf_drv_uart_tx+0x50>
     49a:	68fb      	ldr	r3, [r7, #12]
     49c:	781b      	ldrb	r3, [r3, #0]
     49e:	461a      	mov	r2, r3
     4a0:	4b08      	ldr	r3, [pc, #32]	; (4c4 <nrf_drv_uart_tx+0x5c>)
     4a2:	5c9b      	ldrb	r3, [r3, r2]
     4a4:	2b00      	cmp	r3, #0
     4a6:	d107      	bne.n	4b8 <nrf_drv_uart_tx+0x50>
     4a8:	68fb      	ldr	r3, [r7, #12]
     4aa:	330c      	adds	r3, #12
     4ac:	79fa      	ldrb	r2, [r7, #7]
     4ae:	68b9      	ldr	r1, [r7, #8]
     4b0:	4618      	mov	r0, r3
     4b2:	f003 fad1 	bl	3a58 <nrfx_uart_tx>
     4b6:	6178      	str	r0, [r7, #20]
     4b8:	697b      	ldr	r3, [r7, #20]
     4ba:	4618      	mov	r0, r3
     4bc:	3718      	adds	r7, #24
     4be:	46bd      	mov	sp, r7
     4c0:	bd80      	pop	{r7, pc}
     4c2:	bf00      	nop
     4c4:	2000067c 	.word	0x2000067c

000004c8 <uart_evt_handler>:
     4c8:	b480      	push	{r7}
     4ca:	b083      	sub	sp, #12
     4cc:	af00      	add	r7, sp, #0
     4ce:	6078      	str	r0, [r7, #4]
     4d0:	6039      	str	r1, [r7, #0]
     4d2:	4b04      	ldr	r3, [pc, #16]	; (4e4 <uart_evt_handler+0x1c>)
     4d4:	2201      	movs	r2, #1
     4d6:	701a      	strb	r2, [r3, #0]
     4d8:	bf00      	nop
     4da:	370c      	adds	r7, #12
     4dc:	46bd      	mov	sp, r7
     4de:	f85d 7b04 	ldr.w	r7, [sp], #4
     4e2:	4770      	bx	lr
     4e4:	200000c4 	.word	0x200000c4

000004e8 <uart_init>:
     4e8:	b5b0      	push	{r4, r5, r7, lr}
     4ea:	b08c      	sub	sp, #48	; 0x30
     4ec:	af00      	add	r7, sp, #0
     4ee:	4603      	mov	r3, r0
     4f0:	71fb      	strb	r3, [r7, #7]
     4f2:	4b1a      	ldr	r3, [pc, #104]	; (55c <uart_init+0x74>)
     4f4:	f107 0408 	add.w	r4, r7, #8
     4f8:	461d      	mov	r5, r3
     4fa:	cd0f      	ldmia	r5!, {r0, r1, r2, r3}
     4fc:	c40f      	stmia	r4!, {r0, r1, r2, r3}
     4fe:	e895 000f 	ldmia.w	r5, {r0, r1, r2, r3}
     502:	e884 000f 	stmia.w	r4, {r0, r1, r2, r3}
     506:	2306      	movs	r3, #6
     508:	60bb      	str	r3, [r7, #8]
     50a:	f04f 33ff 	mov.w	r3, #4294967295	; 0xffffffff
     50e:	60fb      	str	r3, [r7, #12]
     510:	f04f 33ff 	mov.w	r3, #4294967295	; 0xffffffff
     514:	613b      	str	r3, [r7, #16]
     516:	f04f 33ff 	mov.w	r3, #4294967295	; 0xffffffff
     51a:	617b      	str	r3, [r7, #20]
     51c:	f04f 73eb 	mov.w	r3, #30801920	; 0x1d60000
     520:	623b      	str	r3, [r7, #32]
     522:	79fb      	ldrb	r3, [r7, #7]
     524:	2b00      	cmp	r3, #0
     526:	d001      	beq.n	52c <uart_init+0x44>
     528:	4a0d      	ldr	r2, [pc, #52]	; (560 <uart_init+0x78>)
     52a:	e000      	b.n	52e <uart_init+0x46>
     52c:	2200      	movs	r2, #0
     52e:	f107 0308 	add.w	r3, r7, #8
     532:	4619      	mov	r1, r3
     534:	480b      	ldr	r0, [pc, #44]	; (564 <uart_init+0x7c>)
     536:	f002 f87d 	bl	2634 <nrf_drv_uart_init>
     53a:	62f8      	str	r0, [r7, #44]	; 0x2c
     53c:	6afb      	ldr	r3, [r7, #44]	; 0x2c
     53e:	62bb      	str	r3, [r7, #40]	; 0x28
     540:	6abb      	ldr	r3, [r7, #40]	; 0x28
     542:	2b00      	cmp	r3, #0
     544:	d002      	beq.n	54c <uart_init+0x64>
     546:	6ab8      	ldr	r0, [r7, #40]	; 0x28
     548:	f001 f93e 	bl	17c8 <app_error_handler_bare>
     54c:	4a06      	ldr	r2, [pc, #24]	; (568 <uart_init+0x80>)
     54e:	79fb      	ldrb	r3, [r7, #7]
     550:	7013      	strb	r3, [r2, #0]
     552:	bf00      	nop
     554:	3730      	adds	r7, #48	; 0x30
     556:	46bd      	mov	sp, r7
     558:	bdb0      	pop	{r4, r5, r7, pc}
     55a:	bf00      	nop
     55c:	00005a20 	.word	0x00005a20
     560:	000004c9 	.word	0x000004c9
     564:	20000000 	.word	0x20000000
     568:	200000c5 	.word	0x200000c5

0000056c <nrf_log_backend_uart_init>:
     56c:	b580      	push	{r7, lr}
     56e:	b082      	sub	sp, #8
     570:	af00      	add	r7, sp, #0
     572:	2301      	movs	r3, #1
     574:	71fb      	strb	r3, [r7, #7]
     576:	79fb      	ldrb	r3, [r7, #7]
     578:	4618      	mov	r0, r3
     57a:	f7ff ffb5 	bl	4e8 <uart_init>
     57e:	bf00      	nop
     580:	3708      	adds	r7, #8
     582:	46bd      	mov	sp, r7
     584:	bd80      	pop	{r7, pc}
	...

00000588 <serial_tx>:
     588:	b580      	push	{r7, lr}
     58a:	b088      	sub	sp, #32
     58c:	af00      	add	r7, sp, #0
     58e:	60f8      	str	r0, [r7, #12]
     590:	60b9      	str	r1, [r7, #8]
     592:	607a      	str	r2, [r7, #4]
     594:	687b      	ldr	r3, [r7, #4]
     596:	77fb      	strb	r3, [r7, #31]
     598:	4b11      	ldr	r3, [pc, #68]	; (5e0 <serial_tx+0x58>)
     59a:	2200      	movs	r2, #0
     59c:	701a      	strb	r2, [r3, #0]
     59e:	7ffb      	ldrb	r3, [r7, #31]
     5a0:	461a      	mov	r2, r3
     5a2:	68b9      	ldr	r1, [r7, #8]
     5a4:	480f      	ldr	r0, [pc, #60]	; (5e4 <serial_tx+0x5c>)
     5a6:	f7ff ff5f 	bl	468 <nrf_drv_uart_tx>
     5aa:	61b8      	str	r0, [r7, #24]
     5ac:	69bb      	ldr	r3, [r7, #24]
     5ae:	617b      	str	r3, [r7, #20]
     5b0:	697b      	ldr	r3, [r7, #20]
     5b2:	2b00      	cmp	r3, #0
     5b4:	d002      	beq.n	5bc <serial_tx+0x34>
     5b6:	6978      	ldr	r0, [r7, #20]
     5b8:	f001 f906 	bl	17c8 <app_error_handler_bare>
     5bc:	bf00      	nop
     5be:	4b0a      	ldr	r3, [pc, #40]	; (5e8 <serial_tx+0x60>)
     5c0:	781b      	ldrb	r3, [r3, #0]
     5c2:	2b00      	cmp	r3, #0
     5c4:	d007      	beq.n	5d6 <serial_tx+0x4e>
     5c6:	4b06      	ldr	r3, [pc, #24]	; (5e0 <serial_tx+0x58>)
     5c8:	781b      	ldrb	r3, [r3, #0]
     5ca:	b2db      	uxtb	r3, r3
     5cc:	f083 0301 	eor.w	r3, r3, #1
     5d0:	b2db      	uxtb	r3, r3
     5d2:	2b00      	cmp	r3, #0
     5d4:	d1f3      	bne.n	5be <serial_tx+0x36>
     5d6:	bf00      	nop
     5d8:	3720      	adds	r7, #32
     5da:	46bd      	mov	sp, r7
     5dc:	bd80      	pop	{r7, pc}
     5de:	bf00      	nop
     5e0:	200000c4 	.word	0x200000c4
     5e4:	20000000 	.word	0x20000000
     5e8:	200000c5 	.word	0x200000c5

000005ec <nrf_log_backend_uart_put>:
     5ec:	b580      	push	{r7, lr}
     5ee:	b084      	sub	sp, #16
     5f0:	af02      	add	r7, sp, #8
     5f2:	6078      	str	r0, [r7, #4]
     5f4:	6039      	str	r1, [r7, #0]
     5f6:	4b06      	ldr	r3, [pc, #24]	; (610 <nrf_log_backend_uart_put+0x24>)
     5f8:	9300      	str	r3, [sp, #0]
     5fa:	2340      	movs	r3, #64	; 0x40
     5fc:	4a05      	ldr	r2, [pc, #20]	; (614 <nrf_log_backend_uart_put+0x28>)
     5fe:	6839      	ldr	r1, [r7, #0]
     600:	6878      	ldr	r0, [r7, #4]
     602:	f7ff fe73 	bl	2ec <nrf_log_backend_serial_put>
     606:	bf00      	nop
     608:	3708      	adds	r7, #8
     60a:	46bd      	mov	sp, r7
     60c:	bd80      	pop	{r7, pc}
     60e:	bf00      	nop
     610:	00000589 	.word	0x00000589
     614:	20000084 	.word	0x20000084

00000618 <nrf_log_backend_uart_flush>:
     618:	b480      	push	{r7}
     61a:	b083      	sub	sp, #12
     61c:	af00      	add	r7, sp, #0
     61e:	6078      	str	r0, [r7, #4]
     620:	bf00      	nop
     622:	370c      	adds	r7, #12
     624:	46bd      	mov	sp, r7
     626:	f85d 7b04 	ldr.w	r7, [sp], #4
     62a:	4770      	bx	lr

0000062c <nrf_log_backend_uart_panic_set>:
     62c:	b580      	push	{r7, lr}
     62e:	b082      	sub	sp, #8
     630:	af00      	add	r7, sp, #0
     632:	6078      	str	r0, [r7, #4]
     634:	4804      	ldr	r0, [pc, #16]	; (648 <nrf_log_backend_uart_panic_set+0x1c>)
     636:	f7ff fef3 	bl	420 <nrf_drv_uart_uninit>
     63a:	2000      	movs	r0, #0
     63c:	f7ff ff54 	bl	4e8 <uart_init>
     640:	bf00      	nop
     642:	3708      	adds	r7, #8
     644:	46bd      	mov	sp, r7
     646:	bd80      	pop	{r7, pc}
     648:	20000000 	.word	0x20000000

0000064c <nrf_log_backend_enable>:
     64c:	b480      	push	{r7}
     64e:	b083      	sub	sp, #12
     650:	af00      	add	r7, sp, #0
     652:	6078      	str	r0, [r7, #4]
     654:	687b      	ldr	r3, [r7, #4]
     656:	68db      	ldr	r3, [r3, #12]
     658:	2201      	movs	r2, #1
     65a:	715a      	strb	r2, [r3, #5]
     65c:	bf00      	nop
     65e:	370c      	adds	r7, #12
     660:	46bd      	mov	sp, r7
     662:	f85d 7b04 	ldr.w	r7, [sp], #4
     666:	4770      	bx	lr

00000668 <nrf_log_default_backends_init>:
     668:	b580      	push	{r7, lr}
     66a:	b082      	sub	sp, #8
     66c:	af00      	add	r7, sp, #0
     66e:	f04f 33ff 	mov.w	r3, #4294967295	; 0xffffffff
     672:	607b      	str	r3, [r7, #4]
     674:	f7ff ff7a 	bl	56c <nrf_log_backend_uart_init>
     678:	2104      	movs	r1, #4
     67a:	4805      	ldr	r0, [pc, #20]	; (690 <nrf_log_default_backends_init+0x28>)
     67c:	f000 fd36 	bl	10ec <nrf_log_backend_add>
     680:	6078      	str	r0, [r7, #4]
     682:	4803      	ldr	r0, [pc, #12]	; (690 <nrf_log_default_backends_init+0x28>)
     684:	f7ff ffe2 	bl	64c <nrf_log_backend_enable>
     688:	bf00      	nop
     68a:	3708      	adds	r7, #8
     68c:	46bd      	mov	sp, r7
     68e:	bd80      	pop	{r7, pc}
     690:	00005d34 	.word	0x00005d34

00000694 <nrf_log_backend_put>:
     694:	b580      	push	{r7, lr}
     696:	b082      	sub	sp, #8
     698:	af00      	add	r7, sp, #0
     69a:	6078      	str	r0, [r7, #4]
     69c:	6039      	str	r1, [r7, #0]
     69e:	687b      	ldr	r3, [r7, #4]
     6a0:	681b      	ldr	r3, [r3, #0]
     6a2:	681b      	ldr	r3, [r3, #0]
     6a4:	6839      	ldr	r1, [r7, #0]
     6a6:	6878      	ldr	r0, [r7, #4]
     6a8:	4798      	blx	r3
     6aa:	bf00      	nop
     6ac:	3708      	adds	r7, #8
     6ae:	46bd      	mov	sp, r7
     6b0:	bd80      	pop	{r7, pc}

000006b2 <nrf_log_backend_flush>:
     6b2:	b580      	push	{r7, lr}
     6b4:	b082      	sub	sp, #8
     6b6:	af00      	add	r7, sp, #0
     6b8:	6078      	str	r0, [r7, #4]
     6ba:	687b      	ldr	r3, [r7, #4]
     6bc:	681b      	ldr	r3, [r3, #0]
     6be:	689b      	ldr	r3, [r3, #8]
     6c0:	6878      	ldr	r0, [r7, #4]
     6c2:	4798      	blx	r3
     6c4:	bf00      	nop
     6c6:	3708      	adds	r7, #8
     6c8:	46bd      	mov	sp, r7
     6ca:	bd80      	pop	{r7, pc}

000006cc <nrf_log_backend_id_set>:
     6cc:	b480      	push	{r7}
     6ce:	b083      	sub	sp, #12
     6d0:	af00      	add	r7, sp, #0
     6d2:	6078      	str	r0, [r7, #4]
     6d4:	460b      	mov	r3, r1
     6d6:	70fb      	strb	r3, [r7, #3]
     6d8:	687b      	ldr	r3, [r7, #4]
     6da:	68db      	ldr	r3, [r3, #12]
     6dc:	78fa      	ldrb	r2, [r7, #3]
     6de:	711a      	strb	r2, [r3, #4]
     6e0:	bf00      	nop
     6e2:	370c      	adds	r7, #12
     6e4:	46bd      	mov	sp, r7
     6e6:	f85d 7b04 	ldr.w	r7, [sp], #4
     6ea:	4770      	bx	lr

000006ec <nrf_log_backend_id_get>:
     6ec:	b480      	push	{r7}
     6ee:	b083      	sub	sp, #12
     6f0:	af00      	add	r7, sp, #0
     6f2:	6078      	str	r0, [r7, #4]
     6f4:	687b      	ldr	r3, [r7, #4]
     6f6:	68db      	ldr	r3, [r3, #12]
     6f8:	791b      	ldrb	r3, [r3, #4]
     6fa:	4618      	mov	r0, r3
     6fc:	370c      	adds	r7, #12
     6fe:	46bd      	mov	sp, r7
     700:	f85d 7b04 	ldr.w	r7, [sp], #4
     704:	4770      	bx	lr

00000706 <nrf_log_backend_is_enabled>:
     706:	b480      	push	{r7}
     708:	b083      	sub	sp, #12
     70a:	af00      	add	r7, sp, #0
     70c:	6078      	str	r0, [r7, #4]
     70e:	687b      	ldr	r3, [r7, #4]
     710:	68db      	ldr	r3, [r3, #12]
     712:	795b      	ldrb	r3, [r3, #5]
     714:	4618      	mov	r0, r3
     716:	370c      	adds	r7, #12
     718:	46bd      	mov	sp, r7
     71a:	f85d 7b04 	ldr.w	r7, [sp], #4
     71e:	4770      	bx	lr

00000720 <nrf_log_init>:
     720:	b580      	push	{r7, lr}
     722:	b084      	sub	sp, #16
     724:	af00      	add	r7, sp, #0
     726:	6078      	str	r0, [r7, #4]
     728:	6039      	str	r1, [r7, #0]
     72a:	4b0c      	ldr	r3, [pc, #48]	; (75c <nrf_log_init+0x3c>)
     72c:	2200      	movs	r2, #0
     72e:	701a      	strb	r2, [r3, #0]
     730:	480b      	ldr	r0, [pc, #44]	; (760 <nrf_log_init+0x40>)
     732:	f001 fd99 	bl	2268 <nrf_memobj_pool_init>
     736:	60f8      	str	r0, [r7, #12]
     738:	68fb      	ldr	r3, [r7, #12]
     73a:	2b00      	cmp	r3, #0
     73c:	d001      	beq.n	742 <nrf_log_init+0x22>
     73e:	68fb      	ldr	r3, [r7, #12]
     740:	e008      	b.n	754 <nrf_log_init+0x34>
     742:	4808      	ldr	r0, [pc, #32]	; (764 <nrf_log_init+0x44>)
     744:	f001 ff04 	bl	2550 <nrf_ringbuf_init>
     748:	4a07      	ldr	r2, [pc, #28]	; (768 <nrf_log_init+0x48>)
     74a:	4b08      	ldr	r3, [pc, #32]	; (76c <nrf_log_init+0x4c>)
     74c:	1ad3      	subs	r3, r2, r3
     74e:	08db      	lsrs	r3, r3, #3
     750:	60bb      	str	r3, [r7, #8]
     752:	2300      	movs	r3, #0
     754:	4618      	mov	r0, r3
     756:	3710      	adds	r7, #16
     758:	46bd      	mov	sp, r7
     75a:	bd80      	pop	{r7, pc}
     75c:	20000230 	.word	0x20000230
     760:	00005d44 	.word	0x00005d44
     764:	00005a60 	.word	0x00005a60
     768:	00005d34 	.word	0x00005d34
     76c:	00005d0c 	.word	0x00005d0c

00000770 <nrf_log_module_cnt_get>:
     770:	b480      	push	{r7}
     772:	af00      	add	r7, sp, #0
     774:	4a04      	ldr	r2, [pc, #16]	; (788 <nrf_log_module_cnt_get+0x18>)
     776:	4b05      	ldr	r3, [pc, #20]	; (78c <nrf_log_module_cnt_get+0x1c>)
     778:	1ad3      	subs	r3, r2, r3
     77a:	08db      	lsrs	r3, r3, #3
     77c:	4618      	mov	r0, r3
     77e:	46bd      	mov	sp, r7
     780:	f85d 7b04 	ldr.w	r7, [sp], #4
     784:	4770      	bx	lr
     786:	bf00      	nop
     788:	00005d34 	.word	0x00005d34
     78c:	00005d0c 	.word	0x00005d0c

00000790 <module_idx_get>:
     790:	b580      	push	{r7, lr}
     792:	b086      	sub	sp, #24
     794:	af00      	add	r7, sp, #0
     796:	6078      	str	r0, [r7, #4]
     798:	460b      	mov	r3, r1
     79a:	70fb      	strb	r3, [r7, #3]
     79c:	78fb      	ldrb	r3, [r7, #3]
     79e:	2b00      	cmp	r3, #0
     7a0:	d01f      	beq.n	7e2 <module_idx_get+0x52>
     7a2:	f7ff ffe5 	bl	770 <nrf_log_module_cnt_get>
     7a6:	6138      	str	r0, [r7, #16]
     7a8:	2300      	movs	r3, #0
     7aa:	617b      	str	r3, [r7, #20]
     7ac:	e013      	b.n	7d6 <module_idx_get+0x46>
     7ae:	697b      	ldr	r3, [r7, #20]
     7b0:	009b      	lsls	r3, r3, #2
     7b2:	4a0e      	ldr	r2, [pc, #56]	; (7ec <module_idx_get+0x5c>)
     7b4:	4413      	add	r3, r2
     7b6:	60fb      	str	r3, [r7, #12]
     7b8:	68fb      	ldr	r3, [r7, #12]
     7ba:	881b      	ldrh	r3, [r3, #0]
     7bc:	461a      	mov	r2, r3
     7be:	687b      	ldr	r3, [r7, #4]
     7c0:	681b      	ldr	r3, [r3, #0]
     7c2:	429a      	cmp	r2, r3
     7c4:	d104      	bne.n	7d0 <module_idx_get+0x40>
     7c6:	687b      	ldr	r3, [r7, #4]
     7c8:	697a      	ldr	r2, [r7, #20]
     7ca:	601a      	str	r2, [r3, #0]
     7cc:	2300      	movs	r3, #0
     7ce:	e009      	b.n	7e4 <module_idx_get+0x54>
     7d0:	697b      	ldr	r3, [r7, #20]
     7d2:	3301      	adds	r3, #1
     7d4:	617b      	str	r3, [r7, #20]
     7d6:	697a      	ldr	r2, [r7, #20]
     7d8:	693b      	ldr	r3, [r7, #16]
     7da:	429a      	cmp	r2, r3
     7dc:	d3e7      	bcc.n	7ae <module_idx_get+0x1e>
     7de:	2305      	movs	r3, #5
     7e0:	e000      	b.n	7e4 <module_idx_get+0x54>
     7e2:	2300      	movs	r3, #0
     7e4:	4618      	mov	r0, r3
     7e6:	3718      	adds	r7, #24
     7e8:	46bd      	mov	sp, r7
     7ea:	bd80      	pop	{r7, pc}
     7ec:	20000068 	.word	0x20000068

000007f0 <nrf_log_module_name_get>:
     7f0:	b580      	push	{r7, lr}
     7f2:	b084      	sub	sp, #16
     7f4:	af00      	add	r7, sp, #0
     7f6:	6078      	str	r0, [r7, #4]
     7f8:	460b      	mov	r3, r1
     7fa:	70fb      	strb	r3, [r7, #3]
     7fc:	78fa      	ldrb	r2, [r7, #3]
     7fe:	1d3b      	adds	r3, r7, #4
     800:	4611      	mov	r1, r2
     802:	4618      	mov	r0, r3
     804:	f7ff ffc4 	bl	790 <module_idx_get>
     808:	4603      	mov	r3, r0
     80a:	2b00      	cmp	r3, #0
     80c:	d107      	bne.n	81e <nrf_log_module_name_get+0x2e>
     80e:	687b      	ldr	r3, [r7, #4]
     810:	00db      	lsls	r3, r3, #3
     812:	4a05      	ldr	r2, [pc, #20]	; (828 <nrf_log_module_name_get+0x38>)
     814:	4413      	add	r3, r2
     816:	60fb      	str	r3, [r7, #12]
     818:	68fb      	ldr	r3, [r7, #12]
     81a:	681b      	ldr	r3, [r3, #0]
     81c:	e000      	b.n	820 <nrf_log_module_name_get+0x30>
     81e:	2300      	movs	r3, #0
     820:	4618      	mov	r0, r3
     822:	3710      	adds	r7, #16
     824:	46bd      	mov	sp, r7
     826:	bd80      	pop	{r7, pc}
     828:	00005d0c 	.word	0x00005d0c

0000082c <nrf_log_color_id_get>:
     82c:	b480      	push	{r7}
     82e:	b085      	sub	sp, #20
     830:	af00      	add	r7, sp, #0
     832:	6078      	str	r0, [r7, #4]
     834:	460b      	mov	r3, r1
     836:	70fb      	strb	r3, [r7, #3]
     838:	687b      	ldr	r3, [r7, #4]
     83a:	00db      	lsls	r3, r3, #3
     83c:	4a14      	ldr	r2, [pc, #80]	; (890 <nrf_log_color_id_get+0x64>)
     83e:	4413      	add	r3, r2
     840:	60bb      	str	r3, [r7, #8]
     842:	78fb      	ldrb	r3, [r7, #3]
     844:	3b01      	subs	r3, #1
     846:	2b03      	cmp	r3, #3
     848:	d818      	bhi.n	87c <nrf_log_color_id_get+0x50>
     84a:	a201      	add	r2, pc, #4	; (adr r2, 850 <nrf_log_color_id_get+0x24>)
     84c:	f852 f023 	ldr.w	pc, [r2, r3, lsl #2]
     850:	00000861 	.word	0x00000861
     854:	00000867 	.word	0x00000867
     858:	0000086d 	.word	0x0000086d
     85c:	00000875 	.word	0x00000875
     860:	2302      	movs	r3, #2
     862:	73fb      	strb	r3, [r7, #15]
     864:	e00d      	b.n	882 <nrf_log_color_id_get+0x56>
     866:	2304      	movs	r3, #4
     868:	73fb      	strb	r3, [r7, #15]
     86a:	e00a      	b.n	882 <nrf_log_color_id_get+0x56>
     86c:	68bb      	ldr	r3, [r7, #8]
     86e:	791b      	ldrb	r3, [r3, #4]
     870:	73fb      	strb	r3, [r7, #15]
     872:	e006      	b.n	882 <nrf_log_color_id_get+0x56>
     874:	68bb      	ldr	r3, [r7, #8]
     876:	795b      	ldrb	r3, [r3, #5]
     878:	73fb      	strb	r3, [r7, #15]
     87a:	e002      	b.n	882 <nrf_log_color_id_get+0x56>
     87c:	2300      	movs	r3, #0
     87e:	73fb      	strb	r3, [r7, #15]
     880:	bf00      	nop
     882:	7bfb      	ldrb	r3, [r7, #15]
     884:	4618      	mov	r0, r3
     886:	3714      	adds	r7, #20
     888:	46bd      	mov	sp, r7
     88a:	f85d 7b04 	ldr.w	r7, [sp], #4
     88e:	4770      	bx	lr
     890:	00005d0c 	.word	0x00005d0c

00000894 <invalid_packets_omit>:
     894:	b480      	push	{r7}
     896:	b085      	sub	sp, #20
     898:	af00      	add	r7, sp, #0
     89a:	6078      	str	r0, [r7, #4]
     89c:	6039      	str	r1, [r7, #0]
     89e:	2300      	movs	r3, #0
     8a0:	73fb      	strb	r3, [r7, #15]
     8a2:	687b      	ldr	r3, [r7, #4]
     8a4:	781b      	ldrb	r3, [r3, #0]
     8a6:	f003 0304 	and.w	r3, r3, #4
     8aa:	b2db      	uxtb	r3, r3
     8ac:	2b00      	cmp	r3, #0
     8ae:	d023      	beq.n	8f8 <invalid_packets_omit+0x64>
     8b0:	687b      	ldr	r3, [r7, #4]
     8b2:	781b      	ldrb	r3, [r3, #0]
     8b4:	f3c3 0301 	ubfx	r3, r3, #0, #2
     8b8:	b2db      	uxtb	r3, r3
     8ba:	2b01      	cmp	r3, #1
     8bc:	d002      	beq.n	8c4 <invalid_packets_omit+0x30>
     8be:	2b02      	cmp	r3, #2
     8c0:	d00c      	beq.n	8dc <invalid_packets_omit+0x48>
     8c2:	e017      	b.n	8f4 <invalid_packets_omit+0x60>
     8c4:	683b      	ldr	r3, [r7, #0]
     8c6:	681b      	ldr	r3, [r3, #0]
     8c8:	687a      	ldr	r2, [r7, #4]
     8ca:	8812      	ldrh	r2, [r2, #0]
     8cc:	f3c2 1283 	ubfx	r2, r2, #6, #4
     8d0:	b2d2      	uxtb	r2, r2
     8d2:	4413      	add	r3, r2
     8d4:	1c9a      	adds	r2, r3, #2
     8d6:	683b      	ldr	r3, [r7, #0]
     8d8:	601a      	str	r2, [r3, #0]
     8da:	e00b      	b.n	8f4 <invalid_packets_omit+0x60>
     8dc:	683b      	ldr	r3, [r7, #0]
     8de:	681b      	ldr	r3, [r3, #0]
     8e0:	687a      	ldr	r2, [r7, #4]
     8e2:	8852      	ldrh	r2, [r2, #2]
     8e4:	f3c2 1289 	ubfx	r2, r2, #6, #10
     8e8:	b292      	uxth	r2, r2
     8ea:	4413      	add	r3, r2
     8ec:	1c9a      	adds	r2, r3, #2
     8ee:	683b      	ldr	r3, [r7, #0]
     8f0:	601a      	str	r2, [r3, #0]
     8f2:	bf00      	nop
     8f4:	2301      	movs	r3, #1
     8f6:	73fb      	strb	r3, [r7, #15]
     8f8:	7bfb      	ldrb	r3, [r7, #15]
     8fa:	4618      	mov	r0, r3
     8fc:	3714      	adds	r7, #20
     8fe:	46bd      	mov	sp, r7
     900:	f85d 7b04 	ldr.w	r7, [sp], #4
     904:	4770      	bx	lr
	...

00000908 <log_skip>:
     908:	b580      	push	{r7, lr}
     90a:	b08a      	sub	sp, #40	; 0x28
     90c:	af00      	add	r7, sp, #0
     90e:	2300      	movs	r3, #0
     910:	84fb      	strh	r3, [r7, #38]	; 0x26
     912:	4838      	ldr	r0, [pc, #224]	; (9f4 <log_skip+0xec>)
     914:	f001 f871 	bl	19fa <nrf_atomic_flag_set>
     918:	4837      	ldr	r0, [pc, #220]	; (9f8 <log_skip+0xf0>)
     91a:	f001 f86e 	bl	19fa <nrf_atomic_flag_set>
     91e:	4b37      	ldr	r3, [pc, #220]	; (9fc <log_skip+0xf4>)
     920:	689b      	ldr	r3, [r3, #8]
     922:	613b      	str	r3, [r7, #16]
     924:	4b36      	ldr	r3, [pc, #216]	; (a00 <log_skip+0xf8>)
     926:	681b      	ldr	r3, [r3, #0]
     928:	61bb      	str	r3, [r7, #24]
     92a:	693a      	ldr	r2, [r7, #16]
     92c:	69bb      	ldr	r3, [r7, #24]
     92e:	4013      	ands	r3, r2
     930:	3302      	adds	r3, #2
     932:	009b      	lsls	r3, r3, #2
     934:	4a31      	ldr	r2, [pc, #196]	; (9fc <log_skip+0xf4>)
     936:	4413      	add	r3, r2
     938:	3304      	adds	r3, #4
     93a:	623b      	str	r3, [r7, #32]
     93c:	f107 0310 	add.w	r3, r7, #16
     940:	4619      	mov	r1, r3
     942:	6a38      	ldr	r0, [r7, #32]
     944:	f7ff ffa6 	bl	894 <invalid_packets_omit>
     948:	4603      	mov	r3, r0
     94a:	2b00      	cmp	r3, #0
     94c:	d009      	beq.n	962 <log_skip+0x5a>
     94e:	693a      	ldr	r2, [r7, #16]
     950:	69bb      	ldr	r3, [r7, #24]
     952:	4013      	ands	r3, r2
     954:	3302      	adds	r3, #2
     956:	009b      	lsls	r3, r3, #2
     958:	4a28      	ldr	r2, [pc, #160]	; (9fc <log_skip+0xf4>)
     95a:	4413      	add	r3, r2
     95c:	3304      	adds	r3, #4
     95e:	623b      	str	r3, [r7, #32]
     960:	e7ec      	b.n	93c <log_skip+0x34>
     962:	bf00      	nop
     964:	2300      	movs	r3, #0
     966:	61fb      	str	r3, [r7, #28]
     968:	e011      	b.n	98e <log_skip+0x86>
     96a:	693b      	ldr	r3, [r7, #16]
     96c:	1c5a      	adds	r2, r3, #1
     96e:	613a      	str	r2, [r7, #16]
     970:	69ba      	ldr	r2, [r7, #24]
     972:	4013      	ands	r3, r2
     974:	69fa      	ldr	r2, [r7, #28]
     976:	0092      	lsls	r2, r2, #2
     978:	1d39      	adds	r1, r7, #4
     97a:	440a      	add	r2, r1
     97c:	491f      	ldr	r1, [pc, #124]	; (9fc <log_skip+0xf4>)
     97e:	3302      	adds	r3, #2
     980:	009b      	lsls	r3, r3, #2
     982:	440b      	add	r3, r1
     984:	685b      	ldr	r3, [r3, #4]
     986:	6013      	str	r3, [r2, #0]
     988:	69fb      	ldr	r3, [r7, #28]
     98a:	3301      	adds	r3, #1
     98c:	61fb      	str	r3, [r7, #28]
     98e:	69fb      	ldr	r3, [r7, #28]
     990:	2b01      	cmp	r3, #1
     992:	d9ea      	bls.n	96a <log_skip+0x62>
     994:	793b      	ldrb	r3, [r7, #4]
     996:	f3c3 0301 	ubfx	r3, r3, #0, #2
     99a:	b2db      	uxtb	r3, r3
     99c:	2b01      	cmp	r3, #1
     99e:	d00d      	beq.n	9bc <log_skip+0xb4>
     9a0:	2b02      	cmp	r3, #2
     9a2:	d116      	bne.n	9d2 <log_skip+0xca>
     9a4:	897b      	ldrh	r3, [r7, #10]
     9a6:	84fb      	strh	r3, [r7, #38]	; 0x26
     9a8:	88fb      	ldrh	r3, [r7, #6]
     9aa:	f3c3 1389 	ubfx	r3, r3, #6, #10
     9ae:	b29b      	uxth	r3, r3
     9b0:	3303      	adds	r3, #3
     9b2:	089a      	lsrs	r2, r3, #2
     9b4:	693b      	ldr	r3, [r7, #16]
     9b6:	4413      	add	r3, r2
     9b8:	613b      	str	r3, [r7, #16]
     9ba:	e00b      	b.n	9d4 <log_skip+0xcc>
     9bc:	897b      	ldrh	r3, [r7, #10]
     9be:	84fb      	strh	r3, [r7, #38]	; 0x26
     9c0:	88bb      	ldrh	r3, [r7, #4]
     9c2:	f3c3 1383 	ubfx	r3, r3, #6, #4
     9c6:	b2db      	uxtb	r3, r3
     9c8:	461a      	mov	r2, r3
     9ca:	693b      	ldr	r3, [r7, #16]
     9cc:	4413      	add	r3, r2
     9ce:	613b      	str	r3, [r7, #16]
     9d0:	e000      	b.n	9d4 <log_skip+0xcc>
     9d2:	bf00      	nop
     9d4:	4808      	ldr	r0, [pc, #32]	; (9f8 <log_skip+0xf0>)
     9d6:	f001 f81d 	bl	1a14 <nrf_atomic_flag_clear_fetch>
     9da:	6178      	str	r0, [r7, #20]
     9dc:	697b      	ldr	r3, [r7, #20]
     9de:	2b00      	cmp	r3, #0
     9e0:	d002      	beq.n	9e8 <log_skip+0xe0>
     9e2:	693b      	ldr	r3, [r7, #16]
     9e4:	4a05      	ldr	r2, [pc, #20]	; (9fc <log_skip+0xf4>)
     9e6:	6093      	str	r3, [r2, #8]
     9e8:	8cfb      	ldrh	r3, [r7, #38]	; 0x26
     9ea:	4618      	mov	r0, r3
     9ec:	3728      	adds	r7, #40	; 0x28
     9ee:	46bd      	mov	sp, r7
     9f0:	bd80      	pop	{r7, pc}
     9f2:	bf00      	nop
     9f4:	20000648 	.word	0x20000648
     9f8:	20000644 	.word	0x20000644
     9fc:	20000230 	.word	0x20000230
     a00:	2000001c 	.word	0x2000001c

00000a04 <dropped_sat16_get>:
     a04:	b580      	push	{r7, lr}
     a06:	b084      	sub	sp, #16
     a08:	af00      	add	r7, sp, #0
     a0a:	2100      	movs	r1, #0
     a0c:	4807      	ldr	r0, [pc, #28]	; (a2c <dropped_sat16_get+0x28>)
     a0e:	f000 ff78 	bl	1902 <nrf_atomic_u32_fetch_store>
     a12:	60f8      	str	r0, [r7, #12]
     a14:	68fb      	ldr	r3, [r7, #12]
     a16:	60bb      	str	r3, [r7, #8]
     a18:	68bb      	ldr	r3, [r7, #8]
     a1a:	f383 0310 	usat	r3, #16, r3
     a1e:	607b      	str	r3, [r7, #4]
     a20:	687b      	ldr	r3, [r7, #4]
     a22:	4618      	mov	r0, r3
     a24:	3710      	adds	r7, #16
     a26:	46bd      	mov	sp, r7
     a28:	bd80      	pop	{r7, pc}
     a2a:	bf00      	nop
     a2c:	2000064c 	.word	0x2000064c

00000a30 <std_header_set>:
     a30:	b580      	push	{r7, lr}
     a32:	b088      	sub	sp, #32
     a34:	af00      	add	r7, sp, #0
     a36:	60f8      	str	r0, [r7, #12]
     a38:	60b9      	str	r1, [r7, #8]
     a3a:	607a      	str	r2, [r7, #4]
     a3c:	603b      	str	r3, [r7, #0]
     a3e:	68fb      	ldr	r3, [r7, #12]
     a40:	0c1b      	lsrs	r3, r3, #16
     a42:	61bb      	str	r3, [r7, #24]
     a44:	f7ff ffde 	bl	a04 <dropped_sat16_get>
     a48:	61f8      	str	r0, [r7, #28]
     a4a:	69fb      	ldr	r3, [r7, #28]
     a4c:	0419      	lsls	r1, r3, #16
     a4e:	683b      	ldr	r3, [r7, #0]
     a50:	1c5a      	adds	r2, r3, #1
     a52:	6abb      	ldr	r3, [r7, #40]	; 0x28
     a54:	4013      	ands	r3, r2
     a56:	69ba      	ldr	r2, [r7, #24]
     a58:	430a      	orrs	r2, r1
     a5a:	491b      	ldr	r1, [pc, #108]	; (ac8 <std_header_set+0x98>)
     a5c:	3302      	adds	r3, #2
     a5e:	009b      	lsls	r3, r3, #2
     a60:	440b      	add	r3, r1
     a62:	605a      	str	r2, [r3, #4]
     a64:	683a      	ldr	r2, [r7, #0]
     a66:	6abb      	ldr	r3, [r7, #40]	; 0x28
     a68:	4013      	ands	r3, r2
     a6a:	3302      	adds	r3, #2
     a6c:	009b      	lsls	r3, r3, #2
     a6e:	4a16      	ldr	r2, [pc, #88]	; (ac8 <std_header_set+0x98>)
     a70:	4413      	add	r3, r2
     a72:	3304      	adds	r3, #4
     a74:	617b      	str	r3, [r7, #20]
     a76:	68fb      	ldr	r3, [r7, #12]
     a78:	f003 0307 	and.w	r3, r3, #7
     a7c:	b2d9      	uxtb	r1, r3
     a7e:	697a      	ldr	r2, [r7, #20]
     a80:	7813      	ldrb	r3, [r2, #0]
     a82:	f361 03c5 	bfi	r3, r1, #3, #3
     a86:	7013      	strb	r3, [r2, #0]
     a88:	687b      	ldr	r3, [r7, #4]
     a8a:	f003 030f 	and.w	r3, r3, #15
     a8e:	b2d9      	uxtb	r1, r3
     a90:	697a      	ldr	r2, [r7, #20]
     a92:	8813      	ldrh	r3, [r2, #0]
     a94:	f361 1389 	bfi	r3, r1, #6, #4
     a98:	8013      	strh	r3, [r2, #0]
     a9a:	68bb      	ldr	r3, [r7, #8]
     a9c:	f3c3 0115 	ubfx	r1, r3, #0, #22
     aa0:	697a      	ldr	r2, [r7, #20]
     aa2:	6813      	ldr	r3, [r2, #0]
     aa4:	f361 239f 	bfi	r3, r1, #10, #22
     aa8:	6013      	str	r3, [r2, #0]
     aaa:	697a      	ldr	r2, [r7, #20]
     aac:	7813      	ldrb	r3, [r2, #0]
     aae:	2101      	movs	r1, #1
     ab0:	f361 0301 	bfi	r3, r1, #0, #2
     ab4:	7013      	strb	r3, [r2, #0]
     ab6:	697a      	ldr	r2, [r7, #20]
     ab8:	7813      	ldrb	r3, [r2, #0]
     aba:	f36f 0382 	bfc	r3, #2, #1
     abe:	7013      	strb	r3, [r2, #0]
     ac0:	bf00      	nop
     ac2:	3720      	adds	r7, #32
     ac4:	46bd      	mov	sp, r7
     ac6:	bd80      	pop	{r7, pc}
     ac8:	20000230 	.word	0x20000230

00000acc <buf_prealloc>:
     acc:	b580      	push	{r7, lr}
     ace:	b08a      	sub	sp, #40	; 0x28
     ad0:	af00      	add	r7, sp, #0
     ad2:	60f8      	str	r0, [r7, #12]
     ad4:	60b9      	str	r1, [r7, #8]
     ad6:	4613      	mov	r3, r2
     ad8:	71fb      	strb	r3, [r7, #7]
     ada:	68fb      	ldr	r3, [r7, #12]
     adc:	3302      	adds	r3, #2
     ade:	623b      	str	r3, [r7, #32]
     ae0:	2301      	movs	r3, #1
     ae2:	77fb      	strb	r3, [r7, #31]
     ae4:	2000      	movs	r0, #0
     ae6:	f000 fef7 	bl	18d8 <app_util_critical_region_enter>
     aea:	4b37      	ldr	r3, [pc, #220]	; (bc8 <buf_prealloc+0xfc>)
     aec:	685a      	ldr	r2, [r3, #4]
     aee:	68bb      	ldr	r3, [r7, #8]
     af0:	601a      	str	r2, [r3, #0]
     af2:	4b36      	ldr	r3, [pc, #216]	; (bcc <buf_prealloc+0x100>)
     af4:	681a      	ldr	r2, [r3, #0]
     af6:	4b34      	ldr	r3, [pc, #208]	; (bc8 <buf_prealloc+0xfc>)
     af8:	6899      	ldr	r1, [r3, #8]
     afa:	4b33      	ldr	r3, [pc, #204]	; (bc8 <buf_prealloc+0xfc>)
     afc:	685b      	ldr	r3, [r3, #4]
     afe:	1acb      	subs	r3, r1, r3
     b00:	4413      	add	r3, r2
     b02:	3301      	adds	r3, #1
     b04:	627b      	str	r3, [r7, #36]	; 0x24
     b06:	e014      	b.n	b32 <buf_prealloc+0x66>
     b08:	2101      	movs	r1, #1
     b0a:	4831      	ldr	r0, [pc, #196]	; (bd0 <buf_prealloc+0x104>)
     b0c:	f000 ff43 	bl	1996 <nrf_atomic_u32_add>
     b10:	f7ff fefa 	bl	908 <log_skip>
     b14:	6178      	str	r0, [r7, #20]
     b16:	6979      	ldr	r1, [r7, #20]
     b18:	482d      	ldr	r0, [pc, #180]	; (bd0 <buf_prealloc+0x104>)
     b1a:	f000 ff3c 	bl	1996 <nrf_atomic_u32_add>
     b1e:	4b2b      	ldr	r3, [pc, #172]	; (bcc <buf_prealloc+0x100>)
     b20:	681a      	ldr	r2, [r3, #0]
     b22:	4b29      	ldr	r3, [pc, #164]	; (bc8 <buf_prealloc+0xfc>)
     b24:	6899      	ldr	r1, [r3, #8]
     b26:	4b28      	ldr	r3, [pc, #160]	; (bc8 <buf_prealloc+0xfc>)
     b28:	685b      	ldr	r3, [r3, #4]
     b2a:	1acb      	subs	r3, r1, r3
     b2c:	4413      	add	r3, r2
     b2e:	3301      	adds	r3, #1
     b30:	627b      	str	r3, [r7, #36]	; 0x24
     b32:	6a3a      	ldr	r2, [r7, #32]
     b34:	6a7b      	ldr	r3, [r7, #36]	; 0x24
     b36:	429a      	cmp	r2, r3
     b38:	d8e6      	bhi.n	b08 <buf_prealloc+0x3c>
     b3a:	7ffb      	ldrb	r3, [r7, #31]
     b3c:	2b00      	cmp	r3, #0
     b3e:	d03b      	beq.n	bb8 <buf_prealloc+0xec>
     b40:	2300      	movs	r3, #0
     b42:	613b      	str	r3, [r7, #16]
     b44:	79fb      	ldrb	r3, [r7, #7]
     b46:	2b00      	cmp	r3, #0
     b48:	d011      	beq.n	b6e <buf_prealloc+0xa2>
     b4a:	7c3b      	ldrb	r3, [r7, #16]
     b4c:	2201      	movs	r2, #1
     b4e:	f362 0301 	bfi	r3, r2, #0, #2
     b52:	743b      	strb	r3, [r7, #16]
     b54:	7c3b      	ldrb	r3, [r7, #16]
     b56:	f043 0304 	orr.w	r3, r3, #4
     b5a:	743b      	strb	r3, [r7, #16]
     b5c:	68fb      	ldr	r3, [r7, #12]
     b5e:	f003 030f 	and.w	r3, r3, #15
     b62:	b2da      	uxtb	r2, r3
     b64:	8a3b      	ldrh	r3, [r7, #16]
     b66:	f362 1389 	bfi	r3, r2, #6, #4
     b6a:	823b      	strh	r3, [r7, #16]
     b6c:	e010      	b.n	b90 <buf_prealloc+0xc4>
     b6e:	7c3b      	ldrb	r3, [r7, #16]
     b70:	2202      	movs	r2, #2
     b72:	f362 0301 	bfi	r3, r2, #0, #2
     b76:	743b      	strb	r3, [r7, #16]
     b78:	7c3b      	ldrb	r3, [r7, #16]
     b7a:	f043 0304 	orr.w	r3, r3, #4
     b7e:	743b      	strb	r3, [r7, #16]
     b80:	68fb      	ldr	r3, [r7, #12]
     b82:	f3c3 0309 	ubfx	r3, r3, #0, #10
     b86:	b29a      	uxth	r2, r3
     b88:	8a7b      	ldrh	r3, [r7, #18]
     b8a:	f362 138f 	bfi	r3, r2, #6, #10
     b8e:	827b      	strh	r3, [r7, #18]
     b90:	4b0d      	ldr	r3, [pc, #52]	; (bc8 <buf_prealloc+0xfc>)
     b92:	685a      	ldr	r2, [r3, #4]
     b94:	4b0d      	ldr	r3, [pc, #52]	; (bcc <buf_prealloc+0x100>)
     b96:	681b      	ldr	r3, [r3, #0]
     b98:	4013      	ands	r3, r2
     b9a:	3302      	adds	r3, #2
     b9c:	009b      	lsls	r3, r3, #2
     b9e:	4a0a      	ldr	r2, [pc, #40]	; (bc8 <buf_prealloc+0xfc>)
     ba0:	4413      	add	r3, r2
     ba2:	3304      	adds	r3, #4
     ba4:	61bb      	str	r3, [r7, #24]
     ba6:	693a      	ldr	r2, [r7, #16]
     ba8:	69bb      	ldr	r3, [r7, #24]
     baa:	601a      	str	r2, [r3, #0]
     bac:	4b06      	ldr	r3, [pc, #24]	; (bc8 <buf_prealloc+0xfc>)
     bae:	685a      	ldr	r2, [r3, #4]
     bb0:	6a3b      	ldr	r3, [r7, #32]
     bb2:	4413      	add	r3, r2
     bb4:	4a04      	ldr	r2, [pc, #16]	; (bc8 <buf_prealloc+0xfc>)
     bb6:	6053      	str	r3, [r2, #4]
     bb8:	2000      	movs	r0, #0
     bba:	f000 fe97 	bl	18ec <app_util_critical_region_exit>
     bbe:	7ffb      	ldrb	r3, [r7, #31]
     bc0:	4618      	mov	r0, r3
     bc2:	3728      	adds	r7, #40	; 0x28
     bc4:	46bd      	mov	sp, r7
     bc6:	bd80      	pop	{r7, pc}
     bc8:	20000230 	.word	0x20000230
     bcc:	2000001c 	.word	0x2000001c
     bd0:	2000064c 	.word	0x2000064c

00000bd4 <std_n>:
     bd4:	b580      	push	{r7, lr}
     bd6:	b08a      	sub	sp, #40	; 0x28
     bd8:	af02      	add	r7, sp, #8
     bda:	60f8      	str	r0, [r7, #12]
     bdc:	60b9      	str	r1, [r7, #8]
     bde:	607a      	str	r2, [r7, #4]
     be0:	603b      	str	r3, [r7, #0]
     be2:	4b1f      	ldr	r3, [pc, #124]	; (c60 <std_n+0x8c>)
     be4:	681b      	ldr	r3, [r3, #0]
     be6:	617b      	str	r3, [r7, #20]
     be8:	f107 0310 	add.w	r3, r7, #16
     bec:	2201      	movs	r2, #1
     bee:	4619      	mov	r1, r3
     bf0:	6838      	ldr	r0, [r7, #0]
     bf2:	f7ff ff6b 	bl	acc <buf_prealloc>
     bf6:	4603      	mov	r3, r0
     bf8:	2b00      	cmp	r3, #0
     bfa:	d024      	beq.n	c46 <std_n+0x72>
     bfc:	693b      	ldr	r3, [r7, #16]
     bfe:	3302      	adds	r3, #2
     c00:	61fb      	str	r3, [r7, #28]
     c02:	2300      	movs	r3, #0
     c04:	61bb      	str	r3, [r7, #24]
     c06:	e011      	b.n	c2c <std_n+0x58>
     c08:	69bb      	ldr	r3, [r7, #24]
     c0a:	009b      	lsls	r3, r3, #2
     c0c:	687a      	ldr	r2, [r7, #4]
     c0e:	441a      	add	r2, r3
     c10:	69fb      	ldr	r3, [r7, #28]
     c12:	1c59      	adds	r1, r3, #1
     c14:	61f9      	str	r1, [r7, #28]
     c16:	6979      	ldr	r1, [r7, #20]
     c18:	400b      	ands	r3, r1
     c1a:	6812      	ldr	r2, [r2, #0]
     c1c:	4911      	ldr	r1, [pc, #68]	; (c64 <std_n+0x90>)
     c1e:	3302      	adds	r3, #2
     c20:	009b      	lsls	r3, r3, #2
     c22:	440b      	add	r3, r1
     c24:	605a      	str	r2, [r3, #4]
     c26:	69bb      	ldr	r3, [r7, #24]
     c28:	3301      	adds	r3, #1
     c2a:	61bb      	str	r3, [r7, #24]
     c2c:	69ba      	ldr	r2, [r7, #24]
     c2e:	683b      	ldr	r3, [r7, #0]
     c30:	429a      	cmp	r2, r3
     c32:	d3e9      	bcc.n	c08 <std_n+0x34>
     c34:	693a      	ldr	r2, [r7, #16]
     c36:	697b      	ldr	r3, [r7, #20]
     c38:	9300      	str	r3, [sp, #0]
     c3a:	4613      	mov	r3, r2
     c3c:	683a      	ldr	r2, [r7, #0]
     c3e:	68b9      	ldr	r1, [r7, #8]
     c40:	68f8      	ldr	r0, [r7, #12]
     c42:	f7ff fef5 	bl	a30 <std_header_set>
     c46:	4b07      	ldr	r3, [pc, #28]	; (c64 <std_n+0x90>)
     c48:	781b      	ldrb	r3, [r3, #0]
     c4a:	2b00      	cmp	r3, #0
     c4c:	d004      	beq.n	c58 <std_n+0x84>
     c4e:	f000 f85d 	bl	d0c <nrf_log_frontend_dequeue>
     c52:	4603      	mov	r3, r0
     c54:	2b00      	cmp	r3, #0
     c56:	d1fa      	bne.n	c4e <std_n+0x7a>
     c58:	bf00      	nop
     c5a:	3720      	adds	r7, #32
     c5c:	46bd      	mov	sp, r7
     c5e:	bd80      	pop	{r7, pc}
     c60:	2000001c 	.word	0x2000001c
     c64:	20000230 	.word	0x20000230

00000c68 <nrf_log_frontend_std_0>:
     c68:	b580      	push	{r7, lr}
     c6a:	b082      	sub	sp, #8
     c6c:	af00      	add	r7, sp, #0
     c6e:	6078      	str	r0, [r7, #4]
     c70:	6039      	str	r1, [r7, #0]
     c72:	2300      	movs	r3, #0
     c74:	2200      	movs	r2, #0
     c76:	6839      	ldr	r1, [r7, #0]
     c78:	6878      	ldr	r0, [r7, #4]
     c7a:	f7ff ffab 	bl	bd4 <std_n>
     c7e:	bf00      	nop
     c80:	3708      	adds	r7, #8
     c82:	46bd      	mov	sp, r7
     c84:	bd80      	pop	{r7, pc}

00000c86 <nrf_log_frontend_std_1>:
     c86:	b580      	push	{r7, lr}
     c88:	b086      	sub	sp, #24
     c8a:	af00      	add	r7, sp, #0
     c8c:	60f8      	str	r0, [r7, #12]
     c8e:	60b9      	str	r1, [r7, #8]
     c90:	607a      	str	r2, [r7, #4]
     c92:	687b      	ldr	r3, [r7, #4]
     c94:	617b      	str	r3, [r7, #20]
     c96:	f107 0214 	add.w	r2, r7, #20
     c9a:	2301      	movs	r3, #1
     c9c:	68b9      	ldr	r1, [r7, #8]
     c9e:	68f8      	ldr	r0, [r7, #12]
     ca0:	f7ff ff98 	bl	bd4 <std_n>
     ca4:	bf00      	nop
     ca6:	3718      	adds	r7, #24
     ca8:	46bd      	mov	sp, r7
     caa:	bd80      	pop	{r7, pc}

00000cac <nrf_log_frontend_std_6>:
     cac:	b580      	push	{r7, lr}
     cae:	b08a      	sub	sp, #40	; 0x28
     cb0:	af00      	add	r7, sp, #0
     cb2:	60f8      	str	r0, [r7, #12]
     cb4:	60b9      	str	r1, [r7, #8]
     cb6:	607a      	str	r2, [r7, #4]
     cb8:	603b      	str	r3, [r7, #0]
     cba:	687b      	ldr	r3, [r7, #4]
     cbc:	613b      	str	r3, [r7, #16]
     cbe:	683b      	ldr	r3, [r7, #0]
     cc0:	617b      	str	r3, [r7, #20]
     cc2:	6b3b      	ldr	r3, [r7, #48]	; 0x30
     cc4:	61bb      	str	r3, [r7, #24]
     cc6:	6b7b      	ldr	r3, [r7, #52]	; 0x34
     cc8:	61fb      	str	r3, [r7, #28]
     cca:	6bbb      	ldr	r3, [r7, #56]	; 0x38
     ccc:	623b      	str	r3, [r7, #32]
     cce:	6bfb      	ldr	r3, [r7, #60]	; 0x3c
     cd0:	627b      	str	r3, [r7, #36]	; 0x24
     cd2:	f107 0210 	add.w	r2, r7, #16
     cd6:	2306      	movs	r3, #6
     cd8:	68b9      	ldr	r1, [r7, #8]
     cda:	68f8      	ldr	r0, [r7, #12]
     cdc:	f7ff ff7a 	bl	bd4 <std_n>
     ce0:	bf00      	nop
     ce2:	3728      	adds	r7, #40	; 0x28
     ce4:	46bd      	mov	sp, r7
     ce6:	bd80      	pop	{r7, pc}

00000ce8 <buffer_is_empty>:
     ce8:	b480      	push	{r7}
     cea:	af00      	add	r7, sp, #0
     cec:	4b06      	ldr	r3, [pc, #24]	; (d08 <buffer_is_empty+0x20>)
     cee:	689a      	ldr	r2, [r3, #8]
     cf0:	4b05      	ldr	r3, [pc, #20]	; (d08 <buffer_is_empty+0x20>)
     cf2:	685b      	ldr	r3, [r3, #4]
     cf4:	429a      	cmp	r2, r3
     cf6:	bf0c      	ite	eq
     cf8:	2301      	moveq	r3, #1
     cfa:	2300      	movne	r3, #0
     cfc:	b2db      	uxtb	r3, r3
     cfe:	4618      	mov	r0, r3
     d00:	46bd      	mov	sp, r7
     d02:	f85d 7b04 	ldr.w	r7, [sp], #4
     d06:	4770      	bx	lr
     d08:	20000230 	.word	0x20000230

00000d0c <nrf_log_frontend_dequeue>:
     d0c:	b580      	push	{r7, lr}
     d0e:	b098      	sub	sp, #96	; 0x60
     d10:	af00      	add	r7, sp, #0
     d12:	f7ff ffe9 	bl	ce8 <buffer_is_empty>
     d16:	4603      	mov	r3, r0
     d18:	2b00      	cmp	r3, #0
     d1a:	d001      	beq.n	d20 <nrf_log_frontend_dequeue+0x14>
     d1c:	2300      	movs	r3, #0
     d1e:	e1a7      	b.n	1070 <nrf_log_frontend_dequeue+0x364>
     d20:	4b92      	ldr	r3, [pc, #584]	; (f6c <nrf_log_frontend_dequeue+0x260>)
     d22:	2200      	movs	r2, #0
     d24:	f8c3 2418 	str.w	r2, [r3, #1048]	; 0x418
     d28:	f3bf 8f4f 	dsb	sy
     d2c:	bf00      	nop
     d2e:	4b8f      	ldr	r3, [pc, #572]	; (f6c <nrf_log_frontend_dequeue+0x260>)
     d30:	689b      	ldr	r3, [r3, #8]
     d32:	613b      	str	r3, [r7, #16]
     d34:	4b8e      	ldr	r3, [pc, #568]	; (f70 <nrf_log_frontend_dequeue+0x264>)
     d36:	681b      	ldr	r3, [r3, #0]
     d38:	643b      	str	r3, [r7, #64]	; 0x40
     d3a:	693a      	ldr	r2, [r7, #16]
     d3c:	6c3b      	ldr	r3, [r7, #64]	; 0x40
     d3e:	4013      	ands	r3, r2
     d40:	3302      	adds	r3, #2
     d42:	009b      	lsls	r3, r3, #2
     d44:	4a89      	ldr	r2, [pc, #548]	; (f6c <nrf_log_frontend_dequeue+0x260>)
     d46:	4413      	add	r3, r2
     d48:	3304      	adds	r3, #4
     d4a:	647b      	str	r3, [r7, #68]	; 0x44
     d4c:	2300      	movs	r3, #0
     d4e:	65fb      	str	r3, [r7, #92]	; 0x5c
     d50:	2300      	movs	r3, #0
     d52:	65bb      	str	r3, [r7, #88]	; 0x58
     d54:	2300      	movs	r3, #0
     d56:	63fb      	str	r3, [r7, #60]	; 0x3c
     d58:	f107 0310 	add.w	r3, r7, #16
     d5c:	4619      	mov	r1, r3
     d5e:	6c78      	ldr	r0, [r7, #68]	; 0x44
     d60:	f7ff fd98 	bl	894 <invalid_packets_omit>
     d64:	4603      	mov	r3, r0
     d66:	2b00      	cmp	r3, #0
     d68:	d019      	beq.n	d9e <nrf_log_frontend_dequeue+0x92>
     d6a:	4b80      	ldr	r3, [pc, #512]	; (f6c <nrf_log_frontend_dequeue+0x260>)
     d6c:	f8d3 3418 	ldr.w	r3, [r3, #1048]	; 0x418
     d70:	2b00      	cmp	r3, #0
     d72:	d114      	bne.n	d9e <nrf_log_frontend_dequeue+0x92>
     d74:	4b7d      	ldr	r3, [pc, #500]	; (f6c <nrf_log_frontend_dequeue+0x260>)
     d76:	685a      	ldr	r2, [r3, #4]
     d78:	693b      	ldr	r3, [r7, #16]
     d7a:	429a      	cmp	r2, r3
     d7c:	d805      	bhi.n	d8a <nrf_log_frontend_dequeue+0x7e>
     d7e:	4b7b      	ldr	r3, [pc, #492]	; (f6c <nrf_log_frontend_dequeue+0x260>)
     d80:	685b      	ldr	r3, [r3, #4]
     d82:	4a7a      	ldr	r2, [pc, #488]	; (f6c <nrf_log_frontend_dequeue+0x260>)
     d84:	6093      	str	r3, [r2, #8]
     d86:	2300      	movs	r3, #0
     d88:	e172      	b.n	1070 <nrf_log_frontend_dequeue+0x364>
     d8a:	693a      	ldr	r2, [r7, #16]
     d8c:	6c3b      	ldr	r3, [r7, #64]	; 0x40
     d8e:	4013      	ands	r3, r2
     d90:	3302      	adds	r3, #2
     d92:	009b      	lsls	r3, r3, #2
     d94:	4a75      	ldr	r2, [pc, #468]	; (f6c <nrf_log_frontend_dequeue+0x260>)
     d96:	4413      	add	r3, r2
     d98:	3304      	adds	r3, #4
     d9a:	647b      	str	r3, [r7, #68]	; 0x44
     d9c:	e7dc      	b.n	d58 <nrf_log_frontend_dequeue+0x4c>
     d9e:	2300      	movs	r3, #0
     da0:	657b      	str	r3, [r7, #84]	; 0x54
     da2:	e011      	b.n	dc8 <nrf_log_frontend_dequeue+0xbc>
     da4:	693b      	ldr	r3, [r7, #16]
     da6:	1c5a      	adds	r2, r3, #1
     da8:	613a      	str	r2, [r7, #16]
     daa:	6c3a      	ldr	r2, [r7, #64]	; 0x40
     dac:	4013      	ands	r3, r2
     dae:	6d7a      	ldr	r2, [r7, #84]	; 0x54
     db0:	0092      	lsls	r2, r2, #2
     db2:	1d39      	adds	r1, r7, #4
     db4:	440a      	add	r2, r1
     db6:	496d      	ldr	r1, [pc, #436]	; (f6c <nrf_log_frontend_dequeue+0x260>)
     db8:	3302      	adds	r3, #2
     dba:	009b      	lsls	r3, r3, #2
     dbc:	440b      	add	r3, r1
     dbe:	685b      	ldr	r3, [r3, #4]
     dc0:	6013      	str	r3, [r2, #0]
     dc2:	6d7b      	ldr	r3, [r7, #84]	; 0x54
     dc4:	3301      	adds	r3, #1
     dc6:	657b      	str	r3, [r7, #84]	; 0x54
     dc8:	6d7b      	ldr	r3, [r7, #84]	; 0x54
     dca:	2b01      	cmp	r3, #1
     dcc:	d9ea      	bls.n	da4 <nrf_log_frontend_dequeue+0x98>
     dce:	793b      	ldrb	r3, [r7, #4]
     dd0:	f003 0303 	and.w	r3, r3, #3
     dd4:	b2db      	uxtb	r3, r3
     dd6:	2b02      	cmp	r3, #2
     dd8:	f040 8092 	bne.w	f00 <nrf_log_frontend_dequeue+0x1f4>
     ddc:	88fb      	ldrh	r3, [r7, #6]
     dde:	f3c3 1389 	ubfx	r3, r3, #6, #10
     de2:	b29b      	uxth	r3, r3
     de4:	637b      	str	r3, [r7, #52]	; 0x34
     de6:	88fb      	ldrh	r3, [r7, #6]
     de8:	f3c3 1389 	ubfx	r3, r3, #6, #10
     dec:	b29b      	uxth	r3, r3
     dee:	2b50      	cmp	r3, #80	; 0x50
     df0:	bf28      	it	cs
     df2:	2350      	movcs	r3, #80	; 0x50
     df4:	b29b      	uxth	r3, r3
     df6:	633b      	str	r3, [r7, #48]	; 0x30
     df8:	6b3b      	ldr	r3, [r7, #48]	; 0x30
     dfa:	f3c3 0309 	ubfx	r3, r3, #0, #10
     dfe:	b29a      	uxth	r2, r3
     e00:	88fb      	ldrh	r3, [r7, #6]
     e02:	f362 138f 	bfi	r3, r2, #6, #10
     e06:	80fb      	strh	r3, [r7, #6]
     e08:	6b3b      	ldr	r3, [r7, #48]	; 0x30
     e0a:	3308      	adds	r3, #8
     e0c:	62fb      	str	r3, [r7, #44]	; 0x2c
     e0e:	793b      	ldrb	r3, [r7, #4]
     e10:	f3c3 03c2 	ubfx	r3, r3, #3, #3
     e14:	b2db      	uxtb	r3, r3
     e16:	63fb      	str	r3, [r7, #60]	; 0x3c
     e18:	6af9      	ldr	r1, [r7, #44]	; 0x2c
     e1a:	4856      	ldr	r0, [pc, #344]	; (f74 <nrf_log_frontend_dequeue+0x268>)
     e1c:	f001 fa30 	bl	2280 <nrf_memobj_alloc>
     e20:	65f8      	str	r0, [r7, #92]	; 0x5c
     e22:	6dfb      	ldr	r3, [r7, #92]	; 0x5c
     e24:	2b00      	cmp	r3, #0
     e26:	f000 80c6 	beq.w	fb6 <nrf_log_frontend_dequeue+0x2aa>
     e2a:	6df8      	ldr	r0, [r7, #92]	; 0x5c
     e2c:	f001 fab6 	bl	239c <nrf_memobj_get>
     e30:	1d39      	adds	r1, r7, #4
     e32:	6dbb      	ldr	r3, [r7, #88]	; 0x58
     e34:	2208      	movs	r2, #8
     e36:	6df8      	ldr	r0, [r7, #92]	; 0x5c
     e38:	f001 fb5e 	bl	24f8 <nrf_memobj_write>
     e3c:	6dbb      	ldr	r3, [r7, #88]	; 0x58
     e3e:	3308      	adds	r3, #8
     e40:	65bb      	str	r3, [r7, #88]	; 0x58
     e42:	693b      	ldr	r3, [r7, #16]
     e44:	43da      	mvns	r2, r3
     e46:	6c3b      	ldr	r3, [r7, #64]	; 0x40
     e48:	4013      	ands	r3, r2
     e4a:	3301      	adds	r3, #1
     e4c:	009b      	lsls	r3, r3, #2
     e4e:	62bb      	str	r3, [r7, #40]	; 0x28
     e50:	6b3a      	ldr	r2, [r7, #48]	; 0x30
     e52:	6abb      	ldr	r3, [r7, #40]	; 0x28
     e54:	429a      	cmp	r2, r3
     e56:	d93d      	bls.n	ed4 <nrf_log_frontend_dequeue+0x1c8>
     e58:	6abb      	ldr	r3, [r7, #40]	; 0x28
     e5a:	2b00      	cmp	r3, #0
     e5c:	d008      	beq.n	e70 <nrf_log_frontend_dequeue+0x164>
     e5e:	693a      	ldr	r2, [r7, #16]
     e60:	6c3b      	ldr	r3, [r7, #64]	; 0x40
     e62:	4013      	ands	r3, r2
     e64:	3302      	adds	r3, #2
     e66:	009b      	lsls	r3, r3, #2
     e68:	4a40      	ldr	r2, [pc, #256]	; (f6c <nrf_log_frontend_dequeue+0x260>)
     e6a:	4413      	add	r3, r2
     e6c:	3304      	adds	r3, #4
     e6e:	e000      	b.n	e72 <nrf_log_frontend_dequeue+0x166>
     e70:	4b41      	ldr	r3, [pc, #260]	; (f78 <nrf_log_frontend_dequeue+0x26c>)
     e72:	623b      	str	r3, [r7, #32]
     e74:	6abb      	ldr	r3, [r7, #40]	; 0x28
     e76:	2b00      	cmp	r3, #0
     e78:	d002      	beq.n	e80 <nrf_log_frontend_dequeue+0x174>
     e7a:	6abb      	ldr	r3, [r7, #40]	; 0x28
     e7c:	b2db      	uxtb	r3, r3
     e7e:	e001      	b.n	e84 <nrf_log_frontend_dequeue+0x178>
     e80:	6b3b      	ldr	r3, [r7, #48]	; 0x30
     e82:	b2db      	uxtb	r3, r3
     e84:	77fb      	strb	r3, [r7, #31]
     e86:	6abb      	ldr	r3, [r7, #40]	; 0x28
     e88:	2b00      	cmp	r3, #0
     e8a:	d001      	beq.n	e90 <nrf_log_frontend_dequeue+0x184>
     e8c:	4b3a      	ldr	r3, [pc, #232]	; (f78 <nrf_log_frontend_dequeue+0x26c>)
     e8e:	e000      	b.n	e92 <nrf_log_frontend_dequeue+0x186>
     e90:	2300      	movs	r3, #0
     e92:	61bb      	str	r3, [r7, #24]
     e94:	6abb      	ldr	r3, [r7, #40]	; 0x28
     e96:	2b00      	cmp	r3, #0
     e98:	d006      	beq.n	ea8 <nrf_log_frontend_dequeue+0x19c>
     e9a:	6b3b      	ldr	r3, [r7, #48]	; 0x30
     e9c:	b2da      	uxtb	r2, r3
     e9e:	6abb      	ldr	r3, [r7, #40]	; 0x28
     ea0:	b2db      	uxtb	r3, r3
     ea2:	1ad3      	subs	r3, r2, r3
     ea4:	b2db      	uxtb	r3, r3
     ea6:	e000      	b.n	eaa <nrf_log_frontend_dequeue+0x19e>
     ea8:	2300      	movs	r3, #0
     eaa:	75fb      	strb	r3, [r7, #23]
     eac:	7ffa      	ldrb	r2, [r7, #31]
     eae:	6dbb      	ldr	r3, [r7, #88]	; 0x58
     eb0:	6a39      	ldr	r1, [r7, #32]
     eb2:	6df8      	ldr	r0, [r7, #92]	; 0x5c
     eb4:	f001 fb20 	bl	24f8 <nrf_memobj_write>
     eb8:	7ffb      	ldrb	r3, [r7, #31]
     eba:	6dba      	ldr	r2, [r7, #88]	; 0x58
     ebc:	4413      	add	r3, r2
     ebe:	65bb      	str	r3, [r7, #88]	; 0x58
     ec0:	69bb      	ldr	r3, [r7, #24]
     ec2:	2b00      	cmp	r3, #0
     ec4:	d015      	beq.n	ef2 <nrf_log_frontend_dequeue+0x1e6>
     ec6:	7dfa      	ldrb	r2, [r7, #23]
     ec8:	6dbb      	ldr	r3, [r7, #88]	; 0x58
     eca:	69b9      	ldr	r1, [r7, #24]
     ecc:	6df8      	ldr	r0, [r7, #92]	; 0x5c
     ece:	f001 fb13 	bl	24f8 <nrf_memobj_write>
     ed2:	e00e      	b.n	ef2 <nrf_log_frontend_dequeue+0x1e6>
     ed4:	693a      	ldr	r2, [r7, #16]
     ed6:	6c3b      	ldr	r3, [r7, #64]	; 0x40
     ed8:	4013      	ands	r3, r2
     eda:	3302      	adds	r3, #2
     edc:	009b      	lsls	r3, r3, #2
     ede:	4a23      	ldr	r2, [pc, #140]	; (f6c <nrf_log_frontend_dequeue+0x260>)
     ee0:	4413      	add	r3, r2
     ee2:	3304      	adds	r3, #4
     ee4:	627b      	str	r3, [r7, #36]	; 0x24
     ee6:	6dbb      	ldr	r3, [r7, #88]	; 0x58
     ee8:	6b3a      	ldr	r2, [r7, #48]	; 0x30
     eea:	6a79      	ldr	r1, [r7, #36]	; 0x24
     eec:	6df8      	ldr	r0, [r7, #92]	; 0x5c
     eee:	f001 fb03 	bl	24f8 <nrf_memobj_write>
     ef2:	6b7b      	ldr	r3, [r7, #52]	; 0x34
     ef4:	3303      	adds	r3, #3
     ef6:	089a      	lsrs	r2, r3, #2
     ef8:	693b      	ldr	r3, [r7, #16]
     efa:	4413      	add	r3, r2
     efc:	613b      	str	r3, [r7, #16]
     efe:	e05a      	b.n	fb6 <nrf_log_frontend_dequeue+0x2aa>
     f00:	793b      	ldrb	r3, [r7, #4]
     f02:	f003 0303 	and.w	r3, r3, #3
     f06:	b2db      	uxtb	r3, r3
     f08:	2b01      	cmp	r3, #1
     f0a:	d154      	bne.n	fb6 <nrf_log_frontend_dequeue+0x2aa>
     f0c:	88bb      	ldrh	r3, [r7, #4]
     f0e:	f3c3 1383 	ubfx	r3, r3, #6, #4
     f12:	b2db      	uxtb	r3, r3
     f14:	2b06      	cmp	r3, #6
     f16:	bf28      	it	cs
     f18:	2306      	movcs	r3, #6
     f1a:	b2da      	uxtb	r2, r3
     f1c:	88bb      	ldrh	r3, [r7, #4]
     f1e:	f362 1389 	bfi	r3, r2, #6, #4
     f22:	80bb      	strh	r3, [r7, #4]
     f24:	88bb      	ldrh	r3, [r7, #4]
     f26:	f3c3 1383 	ubfx	r3, r3, #6, #4
     f2a:	b2db      	uxtb	r3, r3
     f2c:	3302      	adds	r3, #2
     f2e:	63bb      	str	r3, [r7, #56]	; 0x38
     f30:	793b      	ldrb	r3, [r7, #4]
     f32:	f3c3 03c2 	ubfx	r3, r3, #3, #3
     f36:	b2db      	uxtb	r3, r3
     f38:	63fb      	str	r3, [r7, #60]	; 0x3c
     f3a:	6bbb      	ldr	r3, [r7, #56]	; 0x38
     f3c:	009b      	lsls	r3, r3, #2
     f3e:	4619      	mov	r1, r3
     f40:	480c      	ldr	r0, [pc, #48]	; (f74 <nrf_log_frontend_dequeue+0x268>)
     f42:	f001 f99d 	bl	2280 <nrf_memobj_alloc>
     f46:	65f8      	str	r0, [r7, #92]	; 0x5c
     f48:	6dfb      	ldr	r3, [r7, #92]	; 0x5c
     f4a:	2b00      	cmp	r3, #0
     f4c:	d033      	beq.n	fb6 <nrf_log_frontend_dequeue+0x2aa>
     f4e:	6df8      	ldr	r0, [r7, #92]	; 0x5c
     f50:	f001 fa24 	bl	239c <nrf_memobj_get>
     f54:	1d39      	adds	r1, r7, #4
     f56:	6dbb      	ldr	r3, [r7, #88]	; 0x58
     f58:	2208      	movs	r2, #8
     f5a:	6df8      	ldr	r0, [r7, #92]	; 0x5c
     f5c:	f001 facc 	bl	24f8 <nrf_memobj_write>
     f60:	6dbb      	ldr	r3, [r7, #88]	; 0x58
     f62:	3308      	adds	r3, #8
     f64:	65bb      	str	r3, [r7, #88]	; 0x58
     f66:	2300      	movs	r3, #0
     f68:	657b      	str	r3, [r7, #84]	; 0x54
     f6a:	e01c      	b.n	fa6 <nrf_log_frontend_dequeue+0x29a>
     f6c:	20000230 	.word	0x20000230
     f70:	2000001c 	.word	0x2000001c
     f74:	00005d44 	.word	0x00005d44
     f78:	2000023c 	.word	0x2000023c
     f7c:	693b      	ldr	r3, [r7, #16]
     f7e:	1c5a      	adds	r2, r3, #1
     f80:	613a      	str	r2, [r7, #16]
     f82:	6c3a      	ldr	r2, [r7, #64]	; 0x40
     f84:	4013      	ands	r3, r2
     f86:	3302      	adds	r3, #2
     f88:	009b      	lsls	r3, r3, #2
     f8a:	4a3b      	ldr	r2, [pc, #236]	; (1078 <nrf_log_frontend_dequeue+0x36c>)
     f8c:	4413      	add	r3, r2
     f8e:	1d19      	adds	r1, r3, #4
     f90:	6dbb      	ldr	r3, [r7, #88]	; 0x58
     f92:	2204      	movs	r2, #4
     f94:	6df8      	ldr	r0, [r7, #92]	; 0x5c
     f96:	f001 faaf 	bl	24f8 <nrf_memobj_write>
     f9a:	6dbb      	ldr	r3, [r7, #88]	; 0x58
     f9c:	3304      	adds	r3, #4
     f9e:	65bb      	str	r3, [r7, #88]	; 0x58
     fa0:	6d7b      	ldr	r3, [r7, #84]	; 0x54
     fa2:	3301      	adds	r3, #1
     fa4:	657b      	str	r3, [r7, #84]	; 0x54
     fa6:	88bb      	ldrh	r3, [r7, #4]
     fa8:	f3c3 1383 	ubfx	r3, r3, #6, #4
     fac:	b2db      	uxtb	r3, r3
     fae:	461a      	mov	r2, r3
     fb0:	6d7b      	ldr	r3, [r7, #84]	; 0x54
     fb2:	4293      	cmp	r3, r2
     fb4:	d3e2      	bcc.n	f7c <nrf_log_frontend_dequeue+0x270>
     fb6:	6dfb      	ldr	r3, [r7, #92]	; 0x5c
     fb8:	2b00      	cmp	r3, #0
     fba:	d039      	beq.n	1030 <nrf_log_frontend_dequeue+0x324>
     fbc:	4b2e      	ldr	r3, [pc, #184]	; (1078 <nrf_log_frontend_dequeue+0x36c>)
     fbe:	f8d3 3410 	ldr.w	r3, [r3, #1040]	; 0x410
     fc2:	653b      	str	r3, [r7, #80]	; 0x50
     fc4:	4b2c      	ldr	r3, [pc, #176]	; (1078 <nrf_log_frontend_dequeue+0x36c>)
     fc6:	f8d3 3418 	ldr.w	r3, [r3, #1048]	; 0x418
     fca:	2b00      	cmp	r3, #0
     fcc:	d01b      	beq.n	1006 <nrf_log_frontend_dequeue+0x2fa>
     fce:	6df8      	ldr	r0, [r7, #92]	; 0x5c
     fd0:	f001 f9f4 	bl	23bc <nrf_memobj_put>
     fd4:	e046      	b.n	1064 <nrf_log_frontend_dequeue+0x358>
     fd6:	2300      	movs	r3, #0
     fd8:	f887 304f 	strb.w	r3, [r7, #79]	; 0x4f
     fdc:	6d38      	ldr	r0, [r7, #80]	; 0x50
     fde:	f7ff fb92 	bl	706 <nrf_log_backend_is_enabled>
     fe2:	4603      	mov	r3, r0
     fe4:	2b00      	cmp	r3, #0
     fe6:	d002      	beq.n	fee <nrf_log_frontend_dequeue+0x2e2>
     fe8:	2301      	movs	r3, #1
     fea:	f887 304f 	strb.w	r3, [r7, #79]	; 0x4f
     fee:	f897 304f 	ldrb.w	r3, [r7, #79]	; 0x4f
     ff2:	2b00      	cmp	r3, #0
     ff4:	d003      	beq.n	ffe <nrf_log_frontend_dequeue+0x2f2>
     ff6:	6df9      	ldr	r1, [r7, #92]	; 0x5c
     ff8:	6d38      	ldr	r0, [r7, #80]	; 0x50
     ffa:	f7ff fb4b 	bl	694 <nrf_log_backend_put>
     ffe:	6d3b      	ldr	r3, [r7, #80]	; 0x50
    1000:	68db      	ldr	r3, [r3, #12]
    1002:	681b      	ldr	r3, [r3, #0]
    1004:	653b      	str	r3, [r7, #80]	; 0x50
    1006:	6d3b      	ldr	r3, [r7, #80]	; 0x50
    1008:	2b00      	cmp	r3, #0
    100a:	d1e4      	bne.n	fd6 <nrf_log_frontend_dequeue+0x2ca>
    100c:	6df8      	ldr	r0, [r7, #92]	; 0x5c
    100e:	f001 f9d5 	bl	23bc <nrf_memobj_put>
    1012:	2000      	movs	r0, #0
    1014:	f000 fc60 	bl	18d8 <app_util_critical_region_enter>
    1018:	4b17      	ldr	r3, [pc, #92]	; (1078 <nrf_log_frontend_dequeue+0x36c>)
    101a:	f8d3 3418 	ldr.w	r3, [r3, #1048]	; 0x418
    101e:	2b00      	cmp	r3, #0
    1020:	d102      	bne.n	1028 <nrf_log_frontend_dequeue+0x31c>
    1022:	693b      	ldr	r3, [r7, #16]
    1024:	4a14      	ldr	r2, [pc, #80]	; (1078 <nrf_log_frontend_dequeue+0x36c>)
    1026:	6093      	str	r3, [r2, #8]
    1028:	2000      	movs	r0, #0
    102a:	f000 fc5f 	bl	18ec <app_util_critical_region_exit>
    102e:	e019      	b.n	1064 <nrf_log_frontend_dequeue+0x358>
    1030:	4b11      	ldr	r3, [pc, #68]	; (1078 <nrf_log_frontend_dequeue+0x36c>)
    1032:	f8d3 3410 	ldr.w	r3, [r3, #1040]	; 0x410
    1036:	64bb      	str	r3, [r7, #72]	; 0x48
    1038:	e006      	b.n	1048 <nrf_log_frontend_dequeue+0x33c>
    103a:	6cb8      	ldr	r0, [r7, #72]	; 0x48
    103c:	f7ff fb39 	bl	6b2 <nrf_log_backend_flush>
    1040:	6cbb      	ldr	r3, [r7, #72]	; 0x48
    1042:	68db      	ldr	r3, [r3, #12]
    1044:	681b      	ldr	r3, [r3, #0]
    1046:	64bb      	str	r3, [r7, #72]	; 0x48
    1048:	6cbb      	ldr	r3, [r7, #72]	; 0x48
    104a:	2b00      	cmp	r3, #0
    104c:	d1f5      	bne.n	103a <nrf_log_frontend_dequeue+0x32e>
    104e:	4a0b      	ldr	r2, [pc, #44]	; (107c <nrf_log_frontend_dequeue+0x370>)
    1050:	4b0b      	ldr	r3, [pc, #44]	; (1080 <nrf_log_frontend_dequeue+0x374>)
    1052:	1ad3      	subs	r3, r2, r3
    1054:	08db      	lsrs	r3, r3, #3
    1056:	041b      	lsls	r3, r3, #16
    1058:	f043 0302 	orr.w	r3, r3, #2
    105c:	4909      	ldr	r1, [pc, #36]	; (1084 <nrf_log_frontend_dequeue+0x378>)
    105e:	4618      	mov	r0, r3
    1060:	f7ff fe02 	bl	c68 <nrf_log_frontend_std_0>
    1064:	f7ff fe40 	bl	ce8 <buffer_is_empty>
    1068:	4603      	mov	r3, r0
    106a:	f083 0301 	eor.w	r3, r3, #1
    106e:	b2db      	uxtb	r3, r3
    1070:	4618      	mov	r0, r3
    1072:	3760      	adds	r7, #96	; 0x60
    1074:	46bd      	mov	sp, r7
    1076:	bd80      	pop	{r7, pc}
    1078:	20000230 	.word	0x20000230
    107c:	00005d2c 	.word	0x00005d2c
    1080:	00005d0c 	.word	0x00005d0c
    1084:	00005a70 	.word	0x00005a70

00001088 <backend_id_assign>:
    1088:	b580      	push	{r7, lr}
    108a:	b084      	sub	sp, #16
    108c:	af00      	add	r7, sp, #0
    108e:	2300      	movs	r3, #0
    1090:	60fb      	str	r3, [r7, #12]
    1092:	e020      	b.n	10d6 <backend_id_assign+0x4e>
    1094:	4b14      	ldr	r3, [pc, #80]	; (10e8 <backend_id_assign+0x60>)
    1096:	f8d3 3410 	ldr.w	r3, [r3, #1040]	; 0x410
    109a:	60bb      	str	r3, [r7, #8]
    109c:	2301      	movs	r3, #1
    109e:	71fb      	strb	r3, [r7, #7]
    10a0:	e00e      	b.n	10c0 <backend_id_assign+0x38>
    10a2:	68b8      	ldr	r0, [r7, #8]
    10a4:	f7ff fb22 	bl	6ec <nrf_log_backend_id_get>
    10a8:	4603      	mov	r3, r0
    10aa:	461a      	mov	r2, r3
    10ac:	68fb      	ldr	r3, [r7, #12]
    10ae:	4293      	cmp	r3, r2
    10b0:	d102      	bne.n	10b8 <backend_id_assign+0x30>
    10b2:	2300      	movs	r3, #0
    10b4:	71fb      	strb	r3, [r7, #7]
    10b6:	e006      	b.n	10c6 <backend_id_assign+0x3e>
    10b8:	68bb      	ldr	r3, [r7, #8]
    10ba:	68db      	ldr	r3, [r3, #12]
    10bc:	681b      	ldr	r3, [r3, #0]
    10be:	60bb      	str	r3, [r7, #8]
    10c0:	68bb      	ldr	r3, [r7, #8]
    10c2:	2b00      	cmp	r3, #0
    10c4:	d1ed      	bne.n	10a2 <backend_id_assign+0x1a>
    10c6:	79fb      	ldrb	r3, [r7, #7]
    10c8:	2b00      	cmp	r3, #0
    10ca:	d001      	beq.n	10d0 <backend_id_assign+0x48>
    10cc:	68fb      	ldr	r3, [r7, #12]
    10ce:	e007      	b.n	10e0 <backend_id_assign+0x58>
    10d0:	68fb      	ldr	r3, [r7, #12]
    10d2:	3301      	adds	r3, #1
    10d4:	60fb      	str	r3, [r7, #12]
    10d6:	68fb      	ldr	r3, [r7, #12]
    10d8:	2b09      	cmp	r3, #9
    10da:	dddb      	ble.n	1094 <backend_id_assign+0xc>
    10dc:	f04f 33ff 	mov.w	r3, #4294967295	; 0xffffffff
    10e0:	4618      	mov	r0, r3
    10e2:	3710      	adds	r7, #16
    10e4:	46bd      	mov	sp, r7
    10e6:	bd80      	pop	{r7, pc}
    10e8:	20000230 	.word	0x20000230

000010ec <nrf_log_backend_add>:
    10ec:	b580      	push	{r7, lr}
    10ee:	b084      	sub	sp, #16
    10f0:	af00      	add	r7, sp, #0
    10f2:	6078      	str	r0, [r7, #4]
    10f4:	460b      	mov	r3, r1
    10f6:	70fb      	strb	r3, [r7, #3]
    10f8:	f7ff ffc6 	bl	1088 <backend_id_assign>
    10fc:	60f8      	str	r0, [r7, #12]
    10fe:	68fb      	ldr	r3, [r7, #12]
    1100:	f1b3 3fff 	cmp.w	r3, #4294967295	; 0xffffffff
    1104:	d101      	bne.n	110a <nrf_log_backend_add+0x1e>
    1106:	68fb      	ldr	r3, [r7, #12]
    1108:	e022      	b.n	1150 <nrf_log_backend_add+0x64>
    110a:	68fb      	ldr	r3, [r7, #12]
    110c:	b2db      	uxtb	r3, r3
    110e:	4619      	mov	r1, r3
    1110:	6878      	ldr	r0, [r7, #4]
    1112:	f7ff fadb 	bl	6cc <nrf_log_backend_id_set>
    1116:	4b10      	ldr	r3, [pc, #64]	; (1158 <nrf_log_backend_add+0x6c>)
    1118:	f8d3 3410 	ldr.w	r3, [r3, #1040]	; 0x410
    111c:	2b00      	cmp	r3, #0
    111e:	d108      	bne.n	1132 <nrf_log_backend_add+0x46>
    1120:	4a0d      	ldr	r2, [pc, #52]	; (1158 <nrf_log_backend_add+0x6c>)
    1122:	687b      	ldr	r3, [r7, #4]
    1124:	f8c2 3410 	str.w	r3, [r2, #1040]	; 0x410
    1128:	687b      	ldr	r3, [r7, #4]
    112a:	68db      	ldr	r3, [r3, #12]
    112c:	2200      	movs	r2, #0
    112e:	601a      	str	r2, [r3, #0]
    1130:	e00d      	b.n	114e <nrf_log_backend_add+0x62>
    1132:	4b09      	ldr	r3, [pc, #36]	; (1158 <nrf_log_backend_add+0x6c>)
    1134:	f8d3 3410 	ldr.w	r3, [r3, #1040]	; 0x410
    1138:	68da      	ldr	r2, [r3, #12]
    113a:	687b      	ldr	r3, [r7, #4]
    113c:	68db      	ldr	r3, [r3, #12]
    113e:	6812      	ldr	r2, [r2, #0]
    1140:	601a      	str	r2, [r3, #0]
    1142:	4b05      	ldr	r3, [pc, #20]	; (1158 <nrf_log_backend_add+0x6c>)
    1144:	f8d3 3410 	ldr.w	r3, [r3, #1040]	; 0x410
    1148:	68db      	ldr	r3, [r3, #12]
    114a:	687a      	ldr	r2, [r7, #4]
    114c:	601a      	str	r2, [r3, #0]
    114e:	68fb      	ldr	r3, [r7, #12]
    1150:	4618      	mov	r0, r3
    1152:	3710      	adds	r7, #16
    1154:	46bd      	mov	sp, r7
    1156:	bd80      	pop	{r7, pc}
    1158:	20000230 	.word	0x20000230

0000115c <timestamp_print>:
    115c:	b480      	push	{r7}
    115e:	b083      	sub	sp, #12
    1160:	af00      	add	r7, sp, #0
    1162:	6078      	str	r0, [r7, #4]
    1164:	6039      	str	r1, [r7, #0]
    1166:	bf00      	nop
    1168:	370c      	adds	r7, #12
    116a:	46bd      	mov	sp, r7
    116c:	f85d 7b04 	ldr.w	r7, [sp], #4
    1170:	4770      	bx	lr
	...

00001174 <prefix_process>:
    1174:	b590      	push	{r4, r7, lr}
    1176:	b085      	sub	sp, #20
    1178:	af02      	add	r7, sp, #8
    117a:	6078      	str	r0, [r7, #4]
    117c:	6039      	str	r1, [r7, #0]
    117e:	687b      	ldr	r3, [r7, #4]
    1180:	88db      	ldrh	r3, [r3, #6]
    1182:	2b00      	cmp	r3, #0
    1184:	d00a      	beq.n	119c <prefix_process+0x28>
    1186:	687b      	ldr	r3, [r7, #4]
    1188:	88db      	ldrh	r3, [r3, #6]
    118a:	461a      	mov	r2, r3
    118c:	4b1f      	ldr	r3, [pc, #124]	; (120c <prefix_process+0x98>)
    118e:	9300      	str	r3, [sp, #0]
    1190:	4613      	mov	r3, r2
    1192:	4a1f      	ldr	r2, [pc, #124]	; (1210 <prefix_process+0x9c>)
    1194:	491f      	ldr	r1, [pc, #124]	; (1214 <prefix_process+0xa0>)
    1196:	6838      	ldr	r0, [r7, #0]
    1198:	f000 fd07 	bl	1baa <nrf_fprintf>
    119c:	687b      	ldr	r3, [r7, #4]
    119e:	7a1b      	ldrb	r3, [r3, #8]
    11a0:	2b05      	cmp	r3, #5
    11a2:	d02e      	beq.n	1202 <prefix_process+0x8e>
    11a4:	687b      	ldr	r3, [r7, #4]
    11a6:	7a5b      	ldrb	r3, [r3, #9]
    11a8:	2b00      	cmp	r3, #0
    11aa:	d012      	beq.n	11d2 <prefix_process+0x5e>
    11ac:	687b      	ldr	r3, [r7, #4]
    11ae:	889b      	ldrh	r3, [r3, #4]
    11b0:	461a      	mov	r2, r3
    11b2:	687b      	ldr	r3, [r7, #4]
    11b4:	7a1b      	ldrb	r3, [r3, #8]
    11b6:	4619      	mov	r1, r3
    11b8:	4610      	mov	r0, r2
    11ba:	f7ff fb37 	bl	82c <nrf_log_color_id_get>
    11be:	4603      	mov	r3, r0
    11c0:	461a      	mov	r2, r3
    11c2:	4b15      	ldr	r3, [pc, #84]	; (1218 <prefix_process+0xa4>)
    11c4:	f853 3022 	ldr.w	r3, [r3, r2, lsl #2]
    11c8:	461a      	mov	r2, r3
    11ca:	4914      	ldr	r1, [pc, #80]	; (121c <prefix_process+0xa8>)
    11cc:	6838      	ldr	r0, [r7, #0]
    11ce:	f000 fcec 	bl	1baa <nrf_fprintf>
    11d2:	687b      	ldr	r3, [r7, #4]
    11d4:	681b      	ldr	r3, [r3, #0]
    11d6:	4619      	mov	r1, r3
    11d8:	6838      	ldr	r0, [r7, #0]
    11da:	f7ff ffbf 	bl	115c <timestamp_print>
    11de:	687b      	ldr	r3, [r7, #4]
    11e0:	7a1b      	ldrb	r3, [r3, #8]
    11e2:	461a      	mov	r2, r3
    11e4:	4b0e      	ldr	r3, [pc, #56]	; (1220 <prefix_process+0xac>)
    11e6:	f853 4022 	ldr.w	r4, [r3, r2, lsl #2]
    11ea:	687b      	ldr	r3, [r7, #4]
    11ec:	889b      	ldrh	r3, [r3, #4]
    11ee:	2100      	movs	r1, #0
    11f0:	4618      	mov	r0, r3
    11f2:	f7ff fafd 	bl	7f0 <nrf_log_module_name_get>
    11f6:	4603      	mov	r3, r0
    11f8:	4622      	mov	r2, r4
    11fa:	490a      	ldr	r1, [pc, #40]	; (1224 <prefix_process+0xb0>)
    11fc:	6838      	ldr	r0, [r7, #0]
    11fe:	f000 fcd4 	bl	1baa <nrf_fprintf>
    1202:	bf00      	nop
    1204:	370c      	adds	r7, #12
    1206:	46bd      	mov	sp, r7
    1208:	bd90      	pop	{r4, r7, pc}
    120a:	bf00      	nop
    120c:	00005aa4 	.word	0x00005aa4
    1210:	00005ab4 	.word	0x00005ab4
    1214:	00005aec 	.word	0x00005aec
    1218:	20000034 	.word	0x20000034
    121c:	00005b04 	.word	0x00005b04
    1220:	20000020 	.word	0x20000020
    1224:	00005b08 	.word	0x00005b08

00001228 <postfix_process>:
    1228:	b580      	push	{r7, lr}
    122a:	b084      	sub	sp, #16
    122c:	af00      	add	r7, sp, #0
    122e:	60f8      	str	r0, [r7, #12]
    1230:	60b9      	str	r1, [r7, #8]
    1232:	4613      	mov	r3, r2
    1234:	71fb      	strb	r3, [r7, #7]
    1236:	68fb      	ldr	r3, [r7, #12]
    1238:	7a1b      	ldrb	r3, [r3, #8]
    123a:	2b05      	cmp	r3, #5
    123c:	d00f      	beq.n	125e <postfix_process+0x36>
    123e:	68fb      	ldr	r3, [r7, #12]
    1240:	7a5b      	ldrb	r3, [r3, #9]
    1242:	2b00      	cmp	r3, #0
    1244:	d006      	beq.n	1254 <postfix_process+0x2c>
    1246:	4b0d      	ldr	r3, [pc, #52]	; (127c <postfix_process+0x54>)
    1248:	681b      	ldr	r3, [r3, #0]
    124a:	461a      	mov	r2, r3
    124c:	490c      	ldr	r1, [pc, #48]	; (1280 <postfix_process+0x58>)
    124e:	68b8      	ldr	r0, [r7, #8]
    1250:	f000 fcab 	bl	1baa <nrf_fprintf>
    1254:	490b      	ldr	r1, [pc, #44]	; (1284 <postfix_process+0x5c>)
    1256:	68b8      	ldr	r0, [r7, #8]
    1258:	f000 fca7 	bl	1baa <nrf_fprintf>
    125c:	e006      	b.n	126c <postfix_process+0x44>
    125e:	79fb      	ldrb	r3, [r7, #7]
    1260:	2b00      	cmp	r3, #0
    1262:	d003      	beq.n	126c <postfix_process+0x44>
    1264:	4907      	ldr	r1, [pc, #28]	; (1284 <postfix_process+0x5c>)
    1266:	68b8      	ldr	r0, [r7, #8]
    1268:	f000 fc9f 	bl	1baa <nrf_fprintf>
    126c:	68b8      	ldr	r0, [r7, #8]
    126e:	f000 fc83 	bl	1b78 <nrf_fprintf_buffer_flush>
    1272:	bf00      	nop
    1274:	3710      	adds	r7, #16
    1276:	46bd      	mov	sp, r7
    1278:	bd80      	pop	{r7, pc}
    127a:	bf00      	nop
    127c:	20000034 	.word	0x20000034
    1280:	00005b04 	.word	0x00005b04
    1284:	00005b14 	.word	0x00005b14

00001288 <nrf_log_std_entry_process>:
    1288:	b5b0      	push	{r4, r5, r7, lr}
    128a:	b08a      	sub	sp, #40	; 0x28
    128c:	af04      	add	r7, sp, #16
    128e:	60f8      	str	r0, [r7, #12]
    1290:	60b9      	str	r1, [r7, #8]
    1292:	607a      	str	r2, [r7, #4]
    1294:	603b      	str	r3, [r7, #0]
    1296:	6abb      	ldr	r3, [r7, #40]	; 0x28
    1298:	7b1b      	ldrb	r3, [r3, #12]
    129a:	75fb      	strb	r3, [r7, #23]
    129c:	6abb      	ldr	r3, [r7, #40]	; 0x28
    129e:	2200      	movs	r2, #0
    12a0:	731a      	strb	r2, [r3, #12]
    12a2:	6ab9      	ldr	r1, [r7, #40]	; 0x28
    12a4:	6838      	ldr	r0, [r7, #0]
    12a6:	f7ff ff65 	bl	1174 <prefix_process>
    12aa:	687b      	ldr	r3, [r7, #4]
    12ac:	2b06      	cmp	r3, #6
    12ae:	d87f      	bhi.n	13b0 <nrf_log_std_entry_process+0x128>
    12b0:	a201      	add	r2, pc, #4	; (adr r2, 12b8 <nrf_log_std_entry_process+0x30>)
    12b2:	f852 f023 	ldr.w	pc, [r2, r3, lsl #2]
    12b6:	bf00      	nop
    12b8:	000012d5 	.word	0x000012d5
    12bc:	000012df 	.word	0x000012df
    12c0:	000012ef 	.word	0x000012ef
    12c4:	00001303 	.word	0x00001303
    12c8:	00001321 	.word	0x00001321
    12cc:	00001349 	.word	0x00001349
    12d0:	00001379 	.word	0x00001379
    12d4:	68f9      	ldr	r1, [r7, #12]
    12d6:	6ab8      	ldr	r0, [r7, #40]	; 0x28
    12d8:	f000 fc67 	bl	1baa <nrf_fprintf>
    12dc:	e069      	b.n	13b2 <nrf_log_std_entry_process+0x12a>
    12de:	68bb      	ldr	r3, [r7, #8]
    12e0:	681b      	ldr	r3, [r3, #0]
    12e2:	461a      	mov	r2, r3
    12e4:	68f9      	ldr	r1, [r7, #12]
    12e6:	6ab8      	ldr	r0, [r7, #40]	; 0x28
    12e8:	f000 fc5f 	bl	1baa <nrf_fprintf>
    12ec:	e061      	b.n	13b2 <nrf_log_std_entry_process+0x12a>
    12ee:	68bb      	ldr	r3, [r7, #8]
    12f0:	681a      	ldr	r2, [r3, #0]
    12f2:	68bb      	ldr	r3, [r7, #8]
    12f4:	3304      	adds	r3, #4
    12f6:	681b      	ldr	r3, [r3, #0]
    12f8:	68f9      	ldr	r1, [r7, #12]
    12fa:	6ab8      	ldr	r0, [r7, #40]	; 0x28
    12fc:	f000 fc55 	bl	1baa <nrf_fprintf>
    1300:	e057      	b.n	13b2 <nrf_log_std_entry_process+0x12a>
    1302:	68bb      	ldr	r3, [r7, #8]
    1304:	681a      	ldr	r2, [r3, #0]
    1306:	68bb      	ldr	r3, [r7, #8]
    1308:	3304      	adds	r3, #4
    130a:	6819      	ldr	r1, [r3, #0]
    130c:	68bb      	ldr	r3, [r7, #8]
    130e:	3308      	adds	r3, #8
    1310:	681b      	ldr	r3, [r3, #0]
    1312:	9300      	str	r3, [sp, #0]
    1314:	460b      	mov	r3, r1
    1316:	68f9      	ldr	r1, [r7, #12]
    1318:	6ab8      	ldr	r0, [r7, #40]	; 0x28
    131a:	f000 fc46 	bl	1baa <nrf_fprintf>
    131e:	e048      	b.n	13b2 <nrf_log_std_entry_process+0x12a>
    1320:	68bb      	ldr	r3, [r7, #8]
    1322:	6819      	ldr	r1, [r3, #0]
    1324:	68bb      	ldr	r3, [r7, #8]
    1326:	3304      	adds	r3, #4
    1328:	6818      	ldr	r0, [r3, #0]
    132a:	68bb      	ldr	r3, [r7, #8]
    132c:	3308      	adds	r3, #8
    132e:	681b      	ldr	r3, [r3, #0]
    1330:	68ba      	ldr	r2, [r7, #8]
    1332:	320c      	adds	r2, #12
    1334:	6812      	ldr	r2, [r2, #0]
    1336:	9201      	str	r2, [sp, #4]
    1338:	9300      	str	r3, [sp, #0]
    133a:	4603      	mov	r3, r0
    133c:	460a      	mov	r2, r1
    133e:	68f9      	ldr	r1, [r7, #12]
    1340:	6ab8      	ldr	r0, [r7, #40]	; 0x28
    1342:	f000 fc32 	bl	1baa <nrf_fprintf>
    1346:	e034      	b.n	13b2 <nrf_log_std_entry_process+0x12a>
    1348:	68bb      	ldr	r3, [r7, #8]
    134a:	6818      	ldr	r0, [r3, #0]
    134c:	68bb      	ldr	r3, [r7, #8]
    134e:	3304      	adds	r3, #4
    1350:	681c      	ldr	r4, [r3, #0]
    1352:	68bb      	ldr	r3, [r7, #8]
    1354:	3308      	adds	r3, #8
    1356:	681b      	ldr	r3, [r3, #0]
    1358:	68ba      	ldr	r2, [r7, #8]
    135a:	320c      	adds	r2, #12
    135c:	6812      	ldr	r2, [r2, #0]
    135e:	68b9      	ldr	r1, [r7, #8]
    1360:	3110      	adds	r1, #16
    1362:	6809      	ldr	r1, [r1, #0]
    1364:	9102      	str	r1, [sp, #8]
    1366:	9201      	str	r2, [sp, #4]
    1368:	9300      	str	r3, [sp, #0]
    136a:	4623      	mov	r3, r4
    136c:	4602      	mov	r2, r0
    136e:	68f9      	ldr	r1, [r7, #12]
    1370:	6ab8      	ldr	r0, [r7, #40]	; 0x28
    1372:	f000 fc1a 	bl	1baa <nrf_fprintf>
    1376:	e01c      	b.n	13b2 <nrf_log_std_entry_process+0x12a>
    1378:	68bb      	ldr	r3, [r7, #8]
    137a:	681c      	ldr	r4, [r3, #0]
    137c:	68bb      	ldr	r3, [r7, #8]
    137e:	3304      	adds	r3, #4
    1380:	681d      	ldr	r5, [r3, #0]
    1382:	68bb      	ldr	r3, [r7, #8]
    1384:	3308      	adds	r3, #8
    1386:	681b      	ldr	r3, [r3, #0]
    1388:	68ba      	ldr	r2, [r7, #8]
    138a:	320c      	adds	r2, #12
    138c:	6812      	ldr	r2, [r2, #0]
    138e:	68b9      	ldr	r1, [r7, #8]
    1390:	3110      	adds	r1, #16
    1392:	6809      	ldr	r1, [r1, #0]
    1394:	68b8      	ldr	r0, [r7, #8]
    1396:	3014      	adds	r0, #20
    1398:	6800      	ldr	r0, [r0, #0]
    139a:	9003      	str	r0, [sp, #12]
    139c:	9102      	str	r1, [sp, #8]
    139e:	9201      	str	r2, [sp, #4]
    13a0:	9300      	str	r3, [sp, #0]
    13a2:	462b      	mov	r3, r5
    13a4:	4622      	mov	r2, r4
    13a6:	68f9      	ldr	r1, [r7, #12]
    13a8:	6ab8      	ldr	r0, [r7, #40]	; 0x28
    13aa:	f000 fbfe 	bl	1baa <nrf_fprintf>
    13ae:	e000      	b.n	13b2 <nrf_log_std_entry_process+0x12a>
    13b0:	bf00      	nop
    13b2:	2200      	movs	r2, #0
    13b4:	6ab9      	ldr	r1, [r7, #40]	; 0x28
    13b6:	6838      	ldr	r0, [r7, #0]
    13b8:	f7ff ff36 	bl	1228 <postfix_process>
    13bc:	6abb      	ldr	r3, [r7, #40]	; 0x28
    13be:	7dfa      	ldrb	r2, [r7, #23]
    13c0:	731a      	strb	r2, [r3, #12]
    13c2:	bf00      	nop
    13c4:	3718      	adds	r7, #24
    13c6:	46bd      	mov	sp, r7
    13c8:	bdb0      	pop	{r4, r5, r7, pc}
    13ca:	bf00      	nop

000013cc <nrf_log_hexdump_entry_process>:
    13cc:	b580      	push	{r7, lr}
    13ce:	b086      	sub	sp, #24
    13d0:	af00      	add	r7, sp, #0
    13d2:	60f8      	str	r0, [r7, #12]
    13d4:	60b9      	str	r1, [r7, #8]
    13d6:	607a      	str	r2, [r7, #4]
    13d8:	603b      	str	r3, [r7, #0]
    13da:	68bb      	ldr	r3, [r7, #8]
    13dc:	2b08      	cmp	r3, #8
    13de:	d85c      	bhi.n	149a <nrf_log_hexdump_entry_process+0xce>
    13e0:	683b      	ldr	r3, [r7, #0]
    13e2:	7b1b      	ldrb	r3, [r3, #12]
    13e4:	74fb      	strb	r3, [r7, #19]
    13e6:	683b      	ldr	r3, [r7, #0]
    13e8:	2200      	movs	r2, #0
    13ea:	731a      	strb	r2, [r3, #12]
    13ec:	6839      	ldr	r1, [r7, #0]
    13ee:	6878      	ldr	r0, [r7, #4]
    13f0:	f7ff fec0 	bl	1174 <prefix_process>
    13f4:	2300      	movs	r3, #0
    13f6:	617b      	str	r3, [r7, #20]
    13f8:	e014      	b.n	1424 <nrf_log_hexdump_entry_process+0x58>
    13fa:	697a      	ldr	r2, [r7, #20]
    13fc:	68bb      	ldr	r3, [r7, #8]
    13fe:	429a      	cmp	r2, r3
    1400:	d209      	bcs.n	1416 <nrf_log_hexdump_entry_process+0x4a>
    1402:	68fa      	ldr	r2, [r7, #12]
    1404:	697b      	ldr	r3, [r7, #20]
    1406:	4413      	add	r3, r2
    1408:	781b      	ldrb	r3, [r3, #0]
    140a:	461a      	mov	r2, r3
    140c:	4925      	ldr	r1, [pc, #148]	; (14a4 <nrf_log_hexdump_entry_process+0xd8>)
    140e:	6838      	ldr	r0, [r7, #0]
    1410:	f000 fbcb 	bl	1baa <nrf_fprintf>
    1414:	e003      	b.n	141e <nrf_log_hexdump_entry_process+0x52>
    1416:	4924      	ldr	r1, [pc, #144]	; (14a8 <nrf_log_hexdump_entry_process+0xdc>)
    1418:	6838      	ldr	r0, [r7, #0]
    141a:	f000 fbc6 	bl	1baa <nrf_fprintf>
    141e:	697b      	ldr	r3, [r7, #20]
    1420:	3301      	adds	r3, #1
    1422:	617b      	str	r3, [r7, #20]
    1424:	697b      	ldr	r3, [r7, #20]
    1426:	2b07      	cmp	r3, #7
    1428:	d9e7      	bls.n	13fa <nrf_log_hexdump_entry_process+0x2e>
    142a:	4920      	ldr	r1, [pc, #128]	; (14ac <nrf_log_hexdump_entry_process+0xe0>)
    142c:	6838      	ldr	r0, [r7, #0]
    142e:	f000 fbbc 	bl	1baa <nrf_fprintf>
    1432:	2300      	movs	r3, #0
    1434:	617b      	str	r3, [r7, #20]
    1436:	e024      	b.n	1482 <nrf_log_hexdump_entry_process+0xb6>
    1438:	697a      	ldr	r2, [r7, #20]
    143a:	68bb      	ldr	r3, [r7, #8]
    143c:	429a      	cmp	r2, r3
    143e:	d219      	bcs.n	1474 <nrf_log_hexdump_entry_process+0xa8>
    1440:	68fa      	ldr	r2, [r7, #12]
    1442:	697b      	ldr	r3, [r7, #20]
    1444:	4413      	add	r3, r2
    1446:	781b      	ldrb	r3, [r3, #0]
    1448:	74bb      	strb	r3, [r7, #18]
    144a:	7cbb      	ldrb	r3, [r7, #18]
    144c:	2b7e      	cmp	r3, #126	; 0x7e
    144e:	d80a      	bhi.n	1466 <nrf_log_hexdump_entry_process+0x9a>
    1450:	7cbb      	ldrb	r3, [r7, #18]
    1452:	3301      	adds	r3, #1
    1454:	4a16      	ldr	r2, [pc, #88]	; (14b0 <nrf_log_hexdump_entry_process+0xe4>)
    1456:	4413      	add	r3, r2
    1458:	781b      	ldrb	r3, [r3, #0]
    145a:	f003 0397 	and.w	r3, r3, #151	; 0x97
    145e:	2b00      	cmp	r3, #0
    1460:	d001      	beq.n	1466 <nrf_log_hexdump_entry_process+0x9a>
    1462:	7cbb      	ldrb	r3, [r7, #18]
    1464:	e000      	b.n	1468 <nrf_log_hexdump_entry_process+0x9c>
    1466:	232e      	movs	r3, #46	; 0x2e
    1468:	461a      	mov	r2, r3
    146a:	4912      	ldr	r1, [pc, #72]	; (14b4 <nrf_log_hexdump_entry_process+0xe8>)
    146c:	6838      	ldr	r0, [r7, #0]
    146e:	f000 fb9c 	bl	1baa <nrf_fprintf>
    1472:	e003      	b.n	147c <nrf_log_hexdump_entry_process+0xb0>
    1474:	4910      	ldr	r1, [pc, #64]	; (14b8 <nrf_log_hexdump_entry_process+0xec>)
    1476:	6838      	ldr	r0, [r7, #0]
    1478:	f000 fb97 	bl	1baa <nrf_fprintf>
    147c:	697b      	ldr	r3, [r7, #20]
    147e:	3301      	adds	r3, #1
    1480:	617b      	str	r3, [r7, #20]
    1482:	697b      	ldr	r3, [r7, #20]
    1484:	2b07      	cmp	r3, #7
    1486:	d9d7      	bls.n	1438 <nrf_log_hexdump_entry_process+0x6c>
    1488:	2201      	movs	r2, #1
    148a:	6839      	ldr	r1, [r7, #0]
    148c:	6878      	ldr	r0, [r7, #4]
    148e:	f7ff fecb 	bl	1228 <postfix_process>
    1492:	683b      	ldr	r3, [r7, #0]
    1494:	7cfa      	ldrb	r2, [r7, #19]
    1496:	731a      	strb	r2, [r3, #12]
    1498:	e000      	b.n	149c <nrf_log_hexdump_entry_process+0xd0>
    149a:	bf00      	nop
    149c:	3718      	adds	r7, #24
    149e:	46bd      	mov	sp, r7
    14a0:	bd80      	pop	{r7, pc}
    14a2:	bf00      	nop
    14a4:	00005b18 	.word	0x00005b18
    14a8:	00005b20 	.word	0x00005b20
    14ac:	00005b24 	.word	0x00005b24
    14b0:	00005c06 	.word	0x00005c06
    14b4:	00005b28 	.word	0x00005b28
    14b8:	00005b2c 	.word	0x00005b2c

000014bc <nrf_gpio_pin_port_decode>:
    14bc:	b480      	push	{r7}
    14be:	b083      	sub	sp, #12
    14c0:	af00      	add	r7, sp, #0
    14c2:	6078      	str	r0, [r7, #4]
    14c4:	f04f 43a0 	mov.w	r3, #1342177280	; 0x50000000
    14c8:	4618      	mov	r0, r3
    14ca:	370c      	adds	r7, #12
    14cc:	46bd      	mov	sp, r7
    14ce:	f85d 7b04 	ldr.w	r7, [sp], #4
    14d2:	4770      	bx	lr

000014d4 <nrf_gpio_cfg>:
    14d4:	b580      	push	{r7, lr}
    14d6:	b084      	sub	sp, #16
    14d8:	af00      	add	r7, sp, #0
    14da:	6078      	str	r0, [r7, #4]
    14dc:	4608      	mov	r0, r1
    14de:	4611      	mov	r1, r2
    14e0:	461a      	mov	r2, r3
    14e2:	4603      	mov	r3, r0
    14e4:	70fb      	strb	r3, [r7, #3]
    14e6:	460b      	mov	r3, r1
    14e8:	70bb      	strb	r3, [r7, #2]
    14ea:	4613      	mov	r3, r2
    14ec:	707b      	strb	r3, [r7, #1]
    14ee:	1d3b      	adds	r3, r7, #4
    14f0:	4618      	mov	r0, r3
    14f2:	f7ff ffe3 	bl	14bc <nrf_gpio_pin_port_decode>
    14f6:	60f8      	str	r0, [r7, #12]
    14f8:	78fa      	ldrb	r2, [r7, #3]
    14fa:	78bb      	ldrb	r3, [r7, #2]
    14fc:	005b      	lsls	r3, r3, #1
    14fe:	431a      	orrs	r2, r3
    1500:	787b      	ldrb	r3, [r7, #1]
    1502:	009b      	lsls	r3, r3, #2
    1504:	431a      	orrs	r2, r3
    1506:	7e3b      	ldrb	r3, [r7, #24]
    1508:	021b      	lsls	r3, r3, #8
    150a:	ea42 0103 	orr.w	r1, r2, r3
    150e:	7f3b      	ldrb	r3, [r7, #28]
    1510:	041b      	lsls	r3, r3, #16
    1512:	687a      	ldr	r2, [r7, #4]
    1514:	4319      	orrs	r1, r3
    1516:	68fb      	ldr	r3, [r7, #12]
    1518:	f502 72e0 	add.w	r2, r2, #448	; 0x1c0
    151c:	f843 1022 	str.w	r1, [r3, r2, lsl #2]
    1520:	bf00      	nop
    1522:	3710      	adds	r7, #16
    1524:	46bd      	mov	sp, r7
    1526:	bd80      	pop	{r7, pc}

00001528 <nrf_gpio_cfg_output>:
    1528:	b580      	push	{r7, lr}
    152a:	b084      	sub	sp, #16
    152c:	af02      	add	r7, sp, #8
    152e:	6078      	str	r0, [r7, #4]
    1530:	2300      	movs	r3, #0
    1532:	9301      	str	r3, [sp, #4]
    1534:	2300      	movs	r3, #0
    1536:	9300      	str	r3, [sp, #0]
    1538:	2300      	movs	r3, #0
    153a:	2201      	movs	r2, #1
    153c:	2101      	movs	r1, #1
    153e:	6878      	ldr	r0, [r7, #4]
    1540:	f7ff ffc8 	bl	14d4 <nrf_gpio_cfg>
    1544:	bf00      	nop
    1546:	3708      	adds	r7, #8
    1548:	46bd      	mov	sp, r7
    154a:	bd80      	pop	{r7, pc}

0000154c <nrf_gpio_cfg_input>:
    154c:	b580      	push	{r7, lr}
    154e:	b084      	sub	sp, #16
    1550:	af02      	add	r7, sp, #8
    1552:	6078      	str	r0, [r7, #4]
    1554:	460b      	mov	r3, r1
    1556:	70fb      	strb	r3, [r7, #3]
    1558:	78fb      	ldrb	r3, [r7, #3]
    155a:	2200      	movs	r2, #0
    155c:	9201      	str	r2, [sp, #4]
    155e:	2200      	movs	r2, #0
    1560:	9200      	str	r2, [sp, #0]
    1562:	2200      	movs	r2, #0
    1564:	2100      	movs	r1, #0
    1566:	6878      	ldr	r0, [r7, #4]
    1568:	f7ff ffb4 	bl	14d4 <nrf_gpio_cfg>
    156c:	bf00      	nop
    156e:	3708      	adds	r7, #8
    1570:	46bd      	mov	sp, r7
    1572:	bd80      	pop	{r7, pc}

00001574 <nrf_gpio_pin_set>:
    1574:	b580      	push	{r7, lr}
    1576:	b084      	sub	sp, #16
    1578:	af00      	add	r7, sp, #0
    157a:	6078      	str	r0, [r7, #4]
    157c:	1d3b      	adds	r3, r7, #4
    157e:	4618      	mov	r0, r3
    1580:	f7ff ff9c 	bl	14bc <nrf_gpio_pin_port_decode>
    1584:	60f8      	str	r0, [r7, #12]
    1586:	687b      	ldr	r3, [r7, #4]
    1588:	2201      	movs	r2, #1
    158a:	fa02 f303 	lsl.w	r3, r2, r3
    158e:	4619      	mov	r1, r3
    1590:	68f8      	ldr	r0, [r7, #12]
    1592:	f000 f84f 	bl	1634 <nrf_gpio_port_out_set>
    1596:	bf00      	nop
    1598:	3710      	adds	r7, #16
    159a:	46bd      	mov	sp, r7
    159c:	bd80      	pop	{r7, pc}

0000159e <nrf_gpio_pin_clear>:
    159e:	b580      	push	{r7, lr}
    15a0:	b084      	sub	sp, #16
    15a2:	af00      	add	r7, sp, #0
    15a4:	6078      	str	r0, [r7, #4]
    15a6:	1d3b      	adds	r3, r7, #4
    15a8:	4618      	mov	r0, r3
    15aa:	f7ff ff87 	bl	14bc <nrf_gpio_pin_port_decode>
    15ae:	60f8      	str	r0, [r7, #12]
    15b0:	687b      	ldr	r3, [r7, #4]
    15b2:	2201      	movs	r2, #1
    15b4:	fa02 f303 	lsl.w	r3, r2, r3
    15b8:	4619      	mov	r1, r3
    15ba:	68f8      	ldr	r0, [r7, #12]
    15bc:	f000 f849 	bl	1652 <nrf_gpio_port_out_clear>
    15c0:	bf00      	nop
    15c2:	3710      	adds	r7, #16
    15c4:	46bd      	mov	sp, r7
    15c6:	bd80      	pop	{r7, pc}

000015c8 <nrf_gpio_pin_toggle>:
    15c8:	b580      	push	{r7, lr}
    15ca:	b084      	sub	sp, #16
    15cc:	af00      	add	r7, sp, #0
    15ce:	6078      	str	r0, [r7, #4]
    15d0:	1d3b      	adds	r3, r7, #4
    15d2:	4618      	mov	r0, r3
    15d4:	f7ff ff72 	bl	14bc <nrf_gpio_pin_port_decode>
    15d8:	60f8      	str	r0, [r7, #12]
    15da:	68fb      	ldr	r3, [r7, #12]
    15dc:	f8d3 3504 	ldr.w	r3, [r3, #1284]	; 0x504
    15e0:	60bb      	str	r3, [r7, #8]
    15e2:	68bb      	ldr	r3, [r7, #8]
    15e4:	43da      	mvns	r2, r3
    15e6:	687b      	ldr	r3, [r7, #4]
    15e8:	2101      	movs	r1, #1
    15ea:	fa01 f303 	lsl.w	r3, r1, r3
    15ee:	401a      	ands	r2, r3
    15f0:	68fb      	ldr	r3, [r7, #12]
    15f2:	f8c3 2508 	str.w	r2, [r3, #1288]	; 0x508
    15f6:	687b      	ldr	r3, [r7, #4]
    15f8:	2201      	movs	r2, #1
    15fa:	409a      	lsls	r2, r3
    15fc:	68bb      	ldr	r3, [r7, #8]
    15fe:	401a      	ands	r2, r3
    1600:	68fb      	ldr	r3, [r7, #12]
    1602:	f8c3 250c 	str.w	r2, [r3, #1292]	; 0x50c
    1606:	bf00      	nop
    1608:	3710      	adds	r7, #16
    160a:	46bd      	mov	sp, r7
    160c:	bd80      	pop	{r7, pc}

0000160e <nrf_gpio_pin_write>:
    160e:	b580      	push	{r7, lr}
    1610:	b082      	sub	sp, #8
    1612:	af00      	add	r7, sp, #0
    1614:	6078      	str	r0, [r7, #4]
    1616:	6039      	str	r1, [r7, #0]
    1618:	683b      	ldr	r3, [r7, #0]
    161a:	2b00      	cmp	r3, #0
    161c:	d103      	bne.n	1626 <nrf_gpio_pin_write+0x18>
    161e:	6878      	ldr	r0, [r7, #4]
    1620:	f7ff ffbd 	bl	159e <nrf_gpio_pin_clear>
    1624:	e002      	b.n	162c <nrf_gpio_pin_write+0x1e>
    1626:	6878      	ldr	r0, [r7, #4]
    1628:	f7ff ffa4 	bl	1574 <nrf_gpio_pin_set>
    162c:	bf00      	nop
    162e:	3708      	adds	r7, #8
    1630:	46bd      	mov	sp, r7
    1632:	bd80      	pop	{r7, pc}

00001634 <nrf_gpio_port_out_set>:
    1634:	b480      	push	{r7}
    1636:	b083      	sub	sp, #12
    1638:	af00      	add	r7, sp, #0
    163a:	6078      	str	r0, [r7, #4]
    163c:	6039      	str	r1, [r7, #0]
    163e:	687b      	ldr	r3, [r7, #4]
    1640:	683a      	ldr	r2, [r7, #0]
    1642:	f8c3 2508 	str.w	r2, [r3, #1288]	; 0x508
    1646:	bf00      	nop
    1648:	370c      	adds	r7, #12
    164a:	46bd      	mov	sp, r7
    164c:	f85d 7b04 	ldr.w	r7, [sp], #4
    1650:	4770      	bx	lr

00001652 <nrf_gpio_port_out_clear>:
    1652:	b480      	push	{r7}
    1654:	b083      	sub	sp, #12
    1656:	af00      	add	r7, sp, #0
    1658:	6078      	str	r0, [r7, #4]
    165a:	6039      	str	r1, [r7, #0]
    165c:	687b      	ldr	r3, [r7, #4]
    165e:	683a      	ldr	r2, [r7, #0]
    1660:	f8c3 250c 	str.w	r2, [r3, #1292]	; 0x50c
    1664:	bf00      	nop
    1666:	370c      	adds	r7, #12
    1668:	46bd      	mov	sp, r7
    166a:	f85d 7b04 	ldr.w	r7, [sp], #4
    166e:	4770      	bx	lr

00001670 <bsp_board_led_on>:
    1670:	b580      	push	{r7, lr}
    1672:	b082      	sub	sp, #8
    1674:	af00      	add	r7, sp, #0
    1676:	6078      	str	r0, [r7, #4]
    1678:	4a05      	ldr	r2, [pc, #20]	; (1690 <bsp_board_led_on+0x20>)
    167a:	687b      	ldr	r3, [r7, #4]
    167c:	4413      	add	r3, r2
    167e:	781b      	ldrb	r3, [r3, #0]
    1680:	2100      	movs	r1, #0
    1682:	4618      	mov	r0, r3
    1684:	f7ff ffc3 	bl	160e <nrf_gpio_pin_write>
    1688:	bf00      	nop
    168a:	3708      	adds	r7, #8
    168c:	46bd      	mov	sp, r7
    168e:	bd80      	pop	{r7, pc}
    1690:	00005b30 	.word	0x00005b30

00001694 <bsp_board_led_off>:
    1694:	b580      	push	{r7, lr}
    1696:	b082      	sub	sp, #8
    1698:	af00      	add	r7, sp, #0
    169a:	6078      	str	r0, [r7, #4]
    169c:	4a05      	ldr	r2, [pc, #20]	; (16b4 <bsp_board_led_off+0x20>)
    169e:	687b      	ldr	r3, [r7, #4]
    16a0:	4413      	add	r3, r2
    16a2:	781b      	ldrb	r3, [r3, #0]
    16a4:	2101      	movs	r1, #1
    16a6:	4618      	mov	r0, r3
    16a8:	f7ff ffb1 	bl	160e <nrf_gpio_pin_write>
    16ac:	bf00      	nop
    16ae:	3708      	adds	r7, #8
    16b0:	46bd      	mov	sp, r7
    16b2:	bd80      	pop	{r7, pc}
    16b4:	00005b30 	.word	0x00005b30

000016b8 <bsp_board_leds_off>:
    16b8:	b580      	push	{r7, lr}
    16ba:	b082      	sub	sp, #8
    16bc:	af00      	add	r7, sp, #0
    16be:	2300      	movs	r3, #0
    16c0:	607b      	str	r3, [r7, #4]
    16c2:	e005      	b.n	16d0 <bsp_board_leds_off+0x18>
    16c4:	6878      	ldr	r0, [r7, #4]
    16c6:	f7ff ffe5 	bl	1694 <bsp_board_led_off>
    16ca:	687b      	ldr	r3, [r7, #4]
    16cc:	3301      	adds	r3, #1
    16ce:	607b      	str	r3, [r7, #4]
    16d0:	687b      	ldr	r3, [r7, #4]
    16d2:	2b03      	cmp	r3, #3
    16d4:	d9f6      	bls.n	16c4 <bsp_board_leds_off+0xc>
    16d6:	bf00      	nop
    16d8:	bf00      	nop
    16da:	3708      	adds	r7, #8
    16dc:	46bd      	mov	sp, r7
    16de:	bd80      	pop	{r7, pc}

000016e0 <bsp_board_leds_on>:
    16e0:	b580      	push	{r7, lr}
    16e2:	b082      	sub	sp, #8
    16e4:	af00      	add	r7, sp, #0
    16e6:	2300      	movs	r3, #0
    16e8:	607b      	str	r3, [r7, #4]
    16ea:	e005      	b.n	16f8 <bsp_board_leds_on+0x18>
    16ec:	6878      	ldr	r0, [r7, #4]
    16ee:	f7ff ffbf 	bl	1670 <bsp_board_led_on>
    16f2:	687b      	ldr	r3, [r7, #4]
    16f4:	3301      	adds	r3, #1
    16f6:	607b      	str	r3, [r7, #4]
    16f8:	687b      	ldr	r3, [r7, #4]
    16fa:	2b03      	cmp	r3, #3
    16fc:	d9f6      	bls.n	16ec <bsp_board_leds_on+0xc>
    16fe:	bf00      	nop
    1700:	bf00      	nop
    1702:	3708      	adds	r7, #8
    1704:	46bd      	mov	sp, r7
    1706:	bd80      	pop	{r7, pc}

00001708 <bsp_board_led_invert>:
    1708:	b580      	push	{r7, lr}
    170a:	b082      	sub	sp, #8
    170c:	af00      	add	r7, sp, #0
    170e:	6078      	str	r0, [r7, #4]
    1710:	4a05      	ldr	r2, [pc, #20]	; (1728 <bsp_board_led_invert+0x20>)
    1712:	687b      	ldr	r3, [r7, #4]
    1714:	4413      	add	r3, r2
    1716:	781b      	ldrb	r3, [r3, #0]
    1718:	4618      	mov	r0, r3
    171a:	f7ff ff55 	bl	15c8 <nrf_gpio_pin_toggle>
    171e:	bf00      	nop
    1720:	3708      	adds	r7, #8
    1722:	46bd      	mov	sp, r7
    1724:	bd80      	pop	{r7, pc}
    1726:	bf00      	nop
    1728:	00005b30 	.word	0x00005b30

0000172c <bsp_board_leds_init>:
    172c:	b580      	push	{r7, lr}
    172e:	b082      	sub	sp, #8
    1730:	af00      	add	r7, sp, #0
    1732:	2300      	movs	r3, #0
    1734:	607b      	str	r3, [r7, #4]
    1736:	e009      	b.n	174c <bsp_board_leds_init+0x20>
    1738:	4a09      	ldr	r2, [pc, #36]	; (1760 <bsp_board_leds_init+0x34>)
    173a:	687b      	ldr	r3, [r7, #4]
    173c:	4413      	add	r3, r2
    173e:	781b      	ldrb	r3, [r3, #0]
    1740:	4618      	mov	r0, r3
    1742:	f7ff fef1 	bl	1528 <nrf_gpio_cfg_output>
    1746:	687b      	ldr	r3, [r7, #4]
    1748:	3301      	adds	r3, #1
    174a:	607b      	str	r3, [r7, #4]
    174c:	687b      	ldr	r3, [r7, #4]
    174e:	2b03      	cmp	r3, #3
    1750:	d9f2      	bls.n	1738 <bsp_board_leds_init+0xc>
    1752:	f7ff ffb1 	bl	16b8 <bsp_board_leds_off>
    1756:	bf00      	nop
    1758:	3708      	adds	r7, #8
    175a:	46bd      	mov	sp, r7
    175c:	bd80      	pop	{r7, pc}
    175e:	bf00      	nop
    1760:	00005b30 	.word	0x00005b30

00001764 <bsp_board_buttons_init>:
    1764:	b580      	push	{r7, lr}
    1766:	b082      	sub	sp, #8
    1768:	af00      	add	r7, sp, #0
    176a:	2300      	movs	r3, #0
    176c:	607b      	str	r3, [r7, #4]
    176e:	e00a      	b.n	1786 <bsp_board_buttons_init+0x22>
    1770:	4a09      	ldr	r2, [pc, #36]	; (1798 <bsp_board_buttons_init+0x34>)
    1772:	687b      	ldr	r3, [r7, #4]
    1774:	4413      	add	r3, r2
    1776:	781b      	ldrb	r3, [r3, #0]
    1778:	2103      	movs	r1, #3
    177a:	4618      	mov	r0, r3
    177c:	f7ff fee6 	bl	154c <nrf_gpio_cfg_input>
    1780:	687b      	ldr	r3, [r7, #4]
    1782:	3301      	adds	r3, #1
    1784:	607b      	str	r3, [r7, #4]
    1786:	687b      	ldr	r3, [r7, #4]
    1788:	2b03      	cmp	r3, #3
    178a:	d9f1      	bls.n	1770 <bsp_board_buttons_init+0xc>
    178c:	bf00      	nop
    178e:	bf00      	nop
    1790:	3708      	adds	r7, #8
    1792:	46bd      	mov	sp, r7
    1794:	bd80      	pop	{r7, pc}
    1796:	bf00      	nop
    1798:	00005b34 	.word	0x00005b34

0000179c <bsp_board_init>:
    179c:	b580      	push	{r7, lr}
    179e:	b082      	sub	sp, #8
    17a0:	af00      	add	r7, sp, #0
    17a2:	6078      	str	r0, [r7, #4]
    17a4:	687b      	ldr	r3, [r7, #4]
    17a6:	f003 0301 	and.w	r3, r3, #1
    17aa:	2b00      	cmp	r3, #0
    17ac:	d001      	beq.n	17b2 <bsp_board_init+0x16>
    17ae:	f7ff ffbd 	bl	172c <bsp_board_leds_init>
    17b2:	687b      	ldr	r3, [r7, #4]
    17b4:	f003 0302 	and.w	r3, r3, #2
    17b8:	2b00      	cmp	r3, #0
    17ba:	d001      	beq.n	17c0 <bsp_board_init+0x24>
    17bc:	f7ff ffd2 	bl	1764 <bsp_board_buttons_init>
    17c0:	bf00      	nop
    17c2:	3708      	adds	r7, #8
    17c4:	46bd      	mov	sp, r7
    17c6:	bd80      	pop	{r7, pc}

000017c8 <app_error_handler_bare>:
    17c8:	b580      	push	{r7, lr}
    17ca:	b086      	sub	sp, #24
    17cc:	af00      	add	r7, sp, #0
    17ce:	6078      	str	r0, [r7, #4]
    17d0:	2300      	movs	r3, #0
    17d2:	60fb      	str	r3, [r7, #12]
    17d4:	2300      	movs	r3, #0
    17d6:	613b      	str	r3, [r7, #16]
    17d8:	687b      	ldr	r3, [r7, #4]
    17da:	617b      	str	r3, [r7, #20]
    17dc:	f107 030c 	add.w	r3, r7, #12
    17e0:	461a      	mov	r2, r3
    17e2:	2100      	movs	r1, #0
    17e4:	f244 0001 	movw	r0, #16385	; 0x4001
    17e8:	f003 fae8 	bl	4dbc <app_error_fault_handler>
    17ec:	bf00      	nop
    17ee:	3718      	adds	r7, #24
    17f0:	46bd      	mov	sp, r7
    17f2:	bd80      	pop	{r7, pc}

000017f4 <app_error_save_and_stop>:
    17f4:	b480      	push	{r7}
    17f6:	b087      	sub	sp, #28
    17f8:	af00      	add	r7, sp, #0
    17fa:	60f8      	str	r0, [r7, #12]
    17fc:	60b9      	str	r1, [r7, #8]
    17fe:	607a      	str	r2, [r7, #4]
    1800:	2301      	movs	r3, #1
    1802:	75fb      	strb	r3, [r7, #23]
    1804:	7dfb      	ldrb	r3, [r7, #23]
    1806:	4a21      	ldr	r2, [pc, #132]	; (188c <app_error_save_and_stop+0x98>)
    1808:	68fb      	ldr	r3, [r7, #12]
    180a:	6013      	str	r3, [r2, #0]
    180c:	4a1f      	ldr	r2, [pc, #124]	; (188c <app_error_save_and_stop+0x98>)
    180e:	68bb      	ldr	r3, [r7, #8]
    1810:	6053      	str	r3, [r2, #4]
    1812:	4a1e      	ldr	r2, [pc, #120]	; (188c <app_error_save_and_stop+0x98>)
    1814:	687b      	ldr	r3, [r7, #4]
    1816:	6093      	str	r3, [r2, #8]
    1818:	68fb      	ldr	r3, [r7, #12]
    181a:	f244 0201 	movw	r2, #16385	; 0x4001
    181e:	4293      	cmp	r3, r2
    1820:	d012      	beq.n	1848 <app_error_save_and_stop+0x54>
    1822:	68fb      	ldr	r3, [r7, #12]
    1824:	f244 0202 	movw	r2, #16386	; 0x4002
    1828:	4293      	cmp	r3, r2
    182a:	d120      	bne.n	186e <app_error_save_and_stop+0x7a>
    182c:	687b      	ldr	r3, [r7, #4]
    182e:	4a17      	ldr	r2, [pc, #92]	; (188c <app_error_save_and_stop+0x98>)
    1830:	60d3      	str	r3, [r2, #12]
    1832:	4b16      	ldr	r3, [pc, #88]	; (188c <app_error_save_and_stop+0x98>)
    1834:	68db      	ldr	r3, [r3, #12]
    1836:	681b      	ldr	r3, [r3, #0]
    1838:	4a14      	ldr	r2, [pc, #80]	; (188c <app_error_save_and_stop+0x98>)
    183a:	6193      	str	r3, [r2, #24]
    183c:	4b13      	ldr	r3, [pc, #76]	; (188c <app_error_save_and_stop+0x98>)
    183e:	68db      	ldr	r3, [r3, #12]
    1840:	685b      	ldr	r3, [r3, #4]
    1842:	4a12      	ldr	r2, [pc, #72]	; (188c <app_error_save_and_stop+0x98>)
    1844:	61d3      	str	r3, [r2, #28]
    1846:	e012      	b.n	186e <app_error_save_and_stop+0x7a>
    1848:	687b      	ldr	r3, [r7, #4]
    184a:	4a10      	ldr	r2, [pc, #64]	; (188c <app_error_save_and_stop+0x98>)
    184c:	6113      	str	r3, [r2, #16]
    184e:	4b0f      	ldr	r3, [pc, #60]	; (188c <app_error_save_and_stop+0x98>)
    1850:	691b      	ldr	r3, [r3, #16]
    1852:	689b      	ldr	r3, [r3, #8]
    1854:	4a0d      	ldr	r2, [pc, #52]	; (188c <app_error_save_and_stop+0x98>)
    1856:	6153      	str	r3, [r2, #20]
    1858:	4b0c      	ldr	r3, [pc, #48]	; (188c <app_error_save_and_stop+0x98>)
    185a:	691b      	ldr	r3, [r3, #16]
    185c:	681b      	ldr	r3, [r3, #0]
    185e:	4a0b      	ldr	r2, [pc, #44]	; (188c <app_error_save_and_stop+0x98>)
    1860:	6193      	str	r3, [r2, #24]
    1862:	4b0a      	ldr	r3, [pc, #40]	; (188c <app_error_save_and_stop+0x98>)
    1864:	691b      	ldr	r3, [r3, #16]
    1866:	685b      	ldr	r3, [r3, #4]
    1868:	4a08      	ldr	r2, [pc, #32]	; (188c <app_error_save_and_stop+0x98>)
    186a:	61d3      	str	r3, [r2, #28]
    186c:	bf00      	nop
    186e:	b672      	cpsid	i
    1870:	bf00      	nop
    1872:	bf00      	nop
    1874:	7dfb      	ldrb	r3, [r7, #23]
    1876:	b2db      	uxtb	r3, r3
    1878:	2b00      	cmp	r3, #0
    187a:	d1fb      	bne.n	1874 <app_error_save_and_stop+0x80>
    187c:	b662      	cpsie	i
    187e:	bf00      	nop
    1880:	bf00      	nop
    1882:	371c      	adds	r7, #28
    1884:	46bd      	mov	sp, r7
    1886:	f85d 7b04 	ldr.w	r7, [sp], #4
    188a:	4770      	bx	lr
    188c:	20000650 	.word	0x20000650

00001890 <app_util_disable_irq>:
    1890:	b480      	push	{r7}
    1892:	af00      	add	r7, sp, #0
    1894:	b672      	cpsid	i
    1896:	bf00      	nop
    1898:	4b04      	ldr	r3, [pc, #16]	; (18ac <app_util_disable_irq+0x1c>)
    189a:	681b      	ldr	r3, [r3, #0]
    189c:	3301      	adds	r3, #1
    189e:	4a03      	ldr	r2, [pc, #12]	; (18ac <app_util_disable_irq+0x1c>)
    18a0:	6013      	str	r3, [r2, #0]
    18a2:	bf00      	nop
    18a4:	46bd      	mov	sp, r7
    18a6:	f85d 7b04 	ldr.w	r7, [sp], #4
    18aa:	4770      	bx	lr
    18ac:	20000670 	.word	0x20000670

000018b0 <app_util_enable_irq>:
    18b0:	b480      	push	{r7}
    18b2:	af00      	add	r7, sp, #0
    18b4:	4b07      	ldr	r3, [pc, #28]	; (18d4 <app_util_enable_irq+0x24>)
    18b6:	681b      	ldr	r3, [r3, #0]
    18b8:	3b01      	subs	r3, #1
    18ba:	4a06      	ldr	r2, [pc, #24]	; (18d4 <app_util_enable_irq+0x24>)
    18bc:	6013      	str	r3, [r2, #0]
    18be:	4b05      	ldr	r3, [pc, #20]	; (18d4 <app_util_enable_irq+0x24>)
    18c0:	681b      	ldr	r3, [r3, #0]
    18c2:	2b00      	cmp	r3, #0
    18c4:	d101      	bne.n	18ca <app_util_enable_irq+0x1a>
    18c6:	b662      	cpsie	i
    18c8:	bf00      	nop
    18ca:	bf00      	nop
    18cc:	46bd      	mov	sp, r7
    18ce:	f85d 7b04 	ldr.w	r7, [sp], #4
    18d2:	4770      	bx	lr
    18d4:	20000670 	.word	0x20000670

000018d8 <app_util_critical_region_enter>:
    18d8:	b580      	push	{r7, lr}
    18da:	b082      	sub	sp, #8
    18dc:	af00      	add	r7, sp, #0
    18de:	6078      	str	r0, [r7, #4]
    18e0:	f7ff ffd6 	bl	1890 <app_util_disable_irq>
    18e4:	bf00      	nop
    18e6:	3708      	adds	r7, #8
    18e8:	46bd      	mov	sp, r7
    18ea:	bd80      	pop	{r7, pc}

000018ec <app_util_critical_region_exit>:
    18ec:	b580      	push	{r7, lr}
    18ee:	b082      	sub	sp, #8
    18f0:	af00      	add	r7, sp, #0
    18f2:	4603      	mov	r3, r0
    18f4:	71fb      	strb	r3, [r7, #7]
    18f6:	f7ff ffdb 	bl	18b0 <app_util_enable_irq>
    18fa:	bf00      	nop
    18fc:	3708      	adds	r7, #8
    18fe:	46bd      	mov	sp, r7
    1900:	bd80      	pop	{r7, pc}

00001902 <nrf_atomic_u32_fetch_store>:
    1902:	b490      	push	{r4, r7}
    1904:	b086      	sub	sp, #24
    1906:	af00      	add	r7, sp, #0
    1908:	6078      	str	r0, [r7, #4]
    190a:	6039      	str	r1, [r7, #0]
    190c:	687b      	ldr	r3, [r7, #4]
    190e:	683a      	ldr	r2, [r7, #0]
    1910:	e853 4f00 	ldrex	r4, [r3]
    1914:	4610      	mov	r0, r2
    1916:	e843 0100 	strex	r1, r0, [r3]
    191a:	f091 0f00 	teq	r1, #0
    191e:	d1f7      	bne.n	1910 <nrf_atomic_u32_fetch_store+0xe>
    1920:	617c      	str	r4, [r7, #20]
    1922:	6138      	str	r0, [r7, #16]
    1924:	60f9      	str	r1, [r7, #12]
    1926:	697b      	ldr	r3, [r7, #20]
    1928:	4618      	mov	r0, r3
    192a:	3718      	adds	r7, #24
    192c:	46bd      	mov	sp, r7
    192e:	bc90      	pop	{r4, r7}
    1930:	4770      	bx	lr

00001932 <nrf_atomic_u32_or>:
    1932:	b490      	push	{r4, r7}
    1934:	b086      	sub	sp, #24
    1936:	af00      	add	r7, sp, #0
    1938:	6078      	str	r0, [r7, #4]
    193a:	6039      	str	r1, [r7, #0]
    193c:	687b      	ldr	r3, [r7, #4]
    193e:	683a      	ldr	r2, [r7, #0]
    1940:	e853 4f00 	ldrex	r4, [r3]
    1944:	ea44 0002 	orr.w	r0, r4, r2
    1948:	e843 0100 	strex	r1, r0, [r3]
    194c:	f091 0f00 	teq	r1, #0
    1950:	d1f6      	bne.n	1940 <nrf_atomic_u32_or+0xe>
    1952:	617c      	str	r4, [r7, #20]
    1954:	6138      	str	r0, [r7, #16]
    1956:	60f9      	str	r1, [r7, #12]
    1958:	693b      	ldr	r3, [r7, #16]
    195a:	4618      	mov	r0, r3
    195c:	3718      	adds	r7, #24
    195e:	46bd      	mov	sp, r7
    1960:	bc90      	pop	{r4, r7}
    1962:	4770      	bx	lr

00001964 <nrf_atomic_u32_fetch_and>:
    1964:	b490      	push	{r4, r7}
    1966:	b086      	sub	sp, #24
    1968:	af00      	add	r7, sp, #0
    196a:	6078      	str	r0, [r7, #4]
    196c:	6039      	str	r1, [r7, #0]
    196e:	687b      	ldr	r3, [r7, #4]
    1970:	683a      	ldr	r2, [r7, #0]
    1972:	e853 4f00 	ldrex	r4, [r3]
    1976:	ea04 0002 	and.w	r0, r4, r2
    197a:	e843 0100 	strex	r1, r0, [r3]
    197e:	f091 0f00 	teq	r1, #0
    1982:	d1f6      	bne.n	1972 <nrf_atomic_u32_fetch_and+0xe>
    1984:	617c      	str	r4, [r7, #20]
    1986:	6138      	str	r0, [r7, #16]
    1988:	60f9      	str	r1, [r7, #12]
    198a:	697b      	ldr	r3, [r7, #20]
    198c:	4618      	mov	r0, r3
    198e:	3718      	adds	r7, #24
    1990:	46bd      	mov	sp, r7
    1992:	bc90      	pop	{r4, r7}
    1994:	4770      	bx	lr

00001996 <nrf_atomic_u32_add>:
    1996:	b490      	push	{r4, r7}
    1998:	b086      	sub	sp, #24
    199a:	af00      	add	r7, sp, #0
    199c:	6078      	str	r0, [r7, #4]
    199e:	6039      	str	r1, [r7, #0]
    19a0:	687b      	ldr	r3, [r7, #4]
    19a2:	683a      	ldr	r2, [r7, #0]
    19a4:	e853 4f00 	ldrex	r4, [r3]
    19a8:	eb04 0002 	add.w	r0, r4, r2
    19ac:	e843 0100 	strex	r1, r0, [r3]
    19b0:	f091 0f00 	teq	r1, #0
    19b4:	d1f6      	bne.n	19a4 <nrf_atomic_u32_add+0xe>
    19b6:	617c      	str	r4, [r7, #20]
    19b8:	6138      	str	r0, [r7, #16]
    19ba:	60f9      	str	r1, [r7, #12]
    19bc:	693b      	ldr	r3, [r7, #16]
    19be:	4618      	mov	r0, r3
    19c0:	3718      	adds	r7, #24
    19c2:	46bd      	mov	sp, r7
    19c4:	bc90      	pop	{r4, r7}
    19c6:	4770      	bx	lr

000019c8 <nrf_atomic_u32_sub>:
    19c8:	b490      	push	{r4, r7}
    19ca:	b086      	sub	sp, #24
    19cc:	af00      	add	r7, sp, #0
    19ce:	6078      	str	r0, [r7, #4]
    19d0:	6039      	str	r1, [r7, #0]
    19d2:	687b      	ldr	r3, [r7, #4]
    19d4:	683a      	ldr	r2, [r7, #0]
    19d6:	e853 4f00 	ldrex	r4, [r3]
    19da:	eba4 0002 	sub.w	r0, r4, r2
    19de:	e843 0100 	strex	r1, r0, [r3]
    19e2:	f091 0f00 	teq	r1, #0
    19e6:	d1f6      	bne.n	19d6 <nrf_atomic_u32_sub+0xe>
    19e8:	617c      	str	r4, [r7, #20]
    19ea:	6138      	str	r0, [r7, #16]
    19ec:	60f9      	str	r1, [r7, #12]
    19ee:	693b      	ldr	r3, [r7, #16]
    19f0:	4618      	mov	r0, r3
    19f2:	3718      	adds	r7, #24
    19f4:	46bd      	mov	sp, r7
    19f6:	bc90      	pop	{r4, r7}
    19f8:	4770      	bx	lr

000019fa <nrf_atomic_flag_set>:
    19fa:	b580      	push	{r7, lr}
    19fc:	b082      	sub	sp, #8
    19fe:	af00      	add	r7, sp, #0
    1a00:	6078      	str	r0, [r7, #4]
    1a02:	2101      	movs	r1, #1
    1a04:	6878      	ldr	r0, [r7, #4]
    1a06:	f7ff ff94 	bl	1932 <nrf_atomic_u32_or>
    1a0a:	4603      	mov	r3, r0
    1a0c:	4618      	mov	r0, r3
    1a0e:	3708      	adds	r7, #8
    1a10:	46bd      	mov	sp, r7
    1a12:	bd80      	pop	{r7, pc}

00001a14 <nrf_atomic_flag_clear_fetch>:
    1a14:	b580      	push	{r7, lr}
    1a16:	b082      	sub	sp, #8
    1a18:	af00      	add	r7, sp, #0
    1a1a:	6078      	str	r0, [r7, #4]
    1a1c:	2100      	movs	r1, #0
    1a1e:	6878      	ldr	r0, [r7, #4]
    1a20:	f7ff ffa0 	bl	1964 <nrf_atomic_u32_fetch_and>
    1a24:	4603      	mov	r3, r0
    1a26:	4618      	mov	r0, r3
    1a28:	3708      	adds	r7, #8
    1a2a:	46bd      	mov	sp, r7
    1a2c:	bd80      	pop	{r7, pc}

00001a2e <nrf_balloc_idx2block>:
    1a2e:	b480      	push	{r7}
    1a30:	b083      	sub	sp, #12
    1a32:	af00      	add	r7, sp, #0
    1a34:	6078      	str	r0, [r7, #4]
    1a36:	460b      	mov	r3, r1
    1a38:	70fb      	strb	r3, [r7, #3]
    1a3a:	687b      	ldr	r3, [r7, #4]
    1a3c:	68da      	ldr	r2, [r3, #12]
    1a3e:	78fb      	ldrb	r3, [r7, #3]
    1a40:	6879      	ldr	r1, [r7, #4]
    1a42:	8a09      	ldrh	r1, [r1, #16]
    1a44:	fb01 f303 	mul.w	r3, r1, r3
    1a48:	4413      	add	r3, r2
    1a4a:	4618      	mov	r0, r3
    1a4c:	370c      	adds	r7, #12
    1a4e:	46bd      	mov	sp, r7
    1a50:	f85d 7b04 	ldr.w	r7, [sp], #4
    1a54:	4770      	bx	lr

00001a56 <nrf_balloc_block2idx>:
    1a56:	b480      	push	{r7}
    1a58:	b083      	sub	sp, #12
    1a5a:	af00      	add	r7, sp, #0
    1a5c:	6078      	str	r0, [r7, #4]
    1a5e:	6039      	str	r1, [r7, #0]
    1a60:	683b      	ldr	r3, [r7, #0]
    1a62:	687a      	ldr	r2, [r7, #4]
    1a64:	68d2      	ldr	r2, [r2, #12]
    1a66:	1a9b      	subs	r3, r3, r2
    1a68:	687a      	ldr	r2, [r7, #4]
    1a6a:	8a12      	ldrh	r2, [r2, #16]
    1a6c:	fbb3 f3f2 	udiv	r3, r3, r2
    1a70:	b2db      	uxtb	r3, r3
    1a72:	4618      	mov	r0, r3
    1a74:	370c      	adds	r7, #12
    1a76:	46bd      	mov	sp, r7
    1a78:	f85d 7b04 	ldr.w	r7, [sp], #4
    1a7c:	4770      	bx	lr

00001a7e <nrf_balloc_init>:
    1a7e:	b480      	push	{r7}
    1a80:	b085      	sub	sp, #20
    1a82:	af00      	add	r7, sp, #0
    1a84:	6078      	str	r0, [r7, #4]
    1a86:	687b      	ldr	r3, [r7, #4]
    1a88:	2b00      	cmp	r3, #0
    1a8a:	d101      	bne.n	1a90 <nrf_balloc_init+0x12>
    1a8c:	230e      	movs	r3, #14
    1a8e:	e01c      	b.n	1aca <nrf_balloc_init+0x4c>
    1a90:	687b      	ldr	r3, [r7, #4]
    1a92:	689a      	ldr	r2, [r3, #8]
    1a94:	687b      	ldr	r3, [r7, #4]
    1a96:	685b      	ldr	r3, [r3, #4]
    1a98:	1ad3      	subs	r3, r2, r3
    1a9a:	73fb      	strb	r3, [r7, #15]
    1a9c:	687b      	ldr	r3, [r7, #4]
    1a9e:	681b      	ldr	r3, [r3, #0]
    1aa0:	687a      	ldr	r2, [r7, #4]
    1aa2:	6852      	ldr	r2, [r2, #4]
    1aa4:	601a      	str	r2, [r3, #0]
    1aa6:	e006      	b.n	1ab6 <nrf_balloc_init+0x38>
    1aa8:	687b      	ldr	r3, [r7, #4]
    1aaa:	681a      	ldr	r2, [r3, #0]
    1aac:	6813      	ldr	r3, [r2, #0]
    1aae:	1c59      	adds	r1, r3, #1
    1ab0:	6011      	str	r1, [r2, #0]
    1ab2:	7bfa      	ldrb	r2, [r7, #15]
    1ab4:	701a      	strb	r2, [r3, #0]
    1ab6:	7bfb      	ldrb	r3, [r7, #15]
    1ab8:	1e5a      	subs	r2, r3, #1
    1aba:	73fa      	strb	r2, [r7, #15]
    1abc:	2b00      	cmp	r3, #0
    1abe:	d1f3      	bne.n	1aa8 <nrf_balloc_init+0x2a>
    1ac0:	687b      	ldr	r3, [r7, #4]
    1ac2:	681b      	ldr	r3, [r3, #0]
    1ac4:	2200      	movs	r2, #0
    1ac6:	711a      	strb	r2, [r3, #4]
    1ac8:	2300      	movs	r3, #0
    1aca:	4618      	mov	r0, r3
    1acc:	3714      	adds	r7, #20
    1ace:	46bd      	mov	sp, r7
    1ad0:	f85d 7b04 	ldr.w	r7, [sp], #4
    1ad4:	4770      	bx	lr

00001ad6 <nrf_balloc_alloc>:
    1ad6:	b580      	push	{r7, lr}
    1ad8:	b084      	sub	sp, #16
    1ada:	af00      	add	r7, sp, #0
    1adc:	6078      	str	r0, [r7, #4]
    1ade:	2300      	movs	r3, #0
    1ae0:	60fb      	str	r3, [r7, #12]
    1ae2:	2000      	movs	r0, #0
    1ae4:	f7ff fef8 	bl	18d8 <app_util_critical_region_enter>
    1ae8:	687b      	ldr	r3, [r7, #4]
    1aea:	681b      	ldr	r3, [r3, #0]
    1aec:	681a      	ldr	r2, [r3, #0]
    1aee:	687b      	ldr	r3, [r7, #4]
    1af0:	685b      	ldr	r3, [r3, #4]
    1af2:	429a      	cmp	r2, r3
    1af4:	d91c      	bls.n	1b30 <nrf_balloc_alloc+0x5a>
    1af6:	687b      	ldr	r3, [r7, #4]
    1af8:	681b      	ldr	r3, [r3, #0]
    1afa:	681a      	ldr	r2, [r3, #0]
    1afc:	3a01      	subs	r2, #1
    1afe:	601a      	str	r2, [r3, #0]
    1b00:	681b      	ldr	r3, [r3, #0]
    1b02:	781b      	ldrb	r3, [r3, #0]
    1b04:	4619      	mov	r1, r3
    1b06:	6878      	ldr	r0, [r7, #4]
    1b08:	f7ff ff91 	bl	1a2e <nrf_balloc_idx2block>
    1b0c:	60f8      	str	r0, [r7, #12]
    1b0e:	687b      	ldr	r3, [r7, #4]
    1b10:	689a      	ldr	r2, [r3, #8]
    1b12:	687b      	ldr	r3, [r7, #4]
    1b14:	681b      	ldr	r3, [r3, #0]
    1b16:	681b      	ldr	r3, [r3, #0]
    1b18:	1ad3      	subs	r3, r2, r3
    1b1a:	72fb      	strb	r3, [r7, #11]
    1b1c:	687b      	ldr	r3, [r7, #4]
    1b1e:	681b      	ldr	r3, [r3, #0]
    1b20:	791b      	ldrb	r3, [r3, #4]
    1b22:	7afa      	ldrb	r2, [r7, #11]
    1b24:	429a      	cmp	r2, r3
    1b26:	d903      	bls.n	1b30 <nrf_balloc_alloc+0x5a>
    1b28:	687b      	ldr	r3, [r7, #4]
    1b2a:	681b      	ldr	r3, [r3, #0]
    1b2c:	7afa      	ldrb	r2, [r7, #11]
    1b2e:	711a      	strb	r2, [r3, #4]
    1b30:	2000      	movs	r0, #0
    1b32:	f7ff fedb 	bl	18ec <app_util_critical_region_exit>
    1b36:	68fb      	ldr	r3, [r7, #12]
    1b38:	4618      	mov	r0, r3
    1b3a:	3710      	adds	r7, #16
    1b3c:	46bd      	mov	sp, r7
    1b3e:	bd80      	pop	{r7, pc}

00001b40 <nrf_balloc_free>:
    1b40:	b590      	push	{r4, r7, lr}
    1b42:	b085      	sub	sp, #20
    1b44:	af00      	add	r7, sp, #0
    1b46:	6078      	str	r0, [r7, #4]
    1b48:	6039      	str	r1, [r7, #0]
    1b4a:	683b      	ldr	r3, [r7, #0]
    1b4c:	60fb      	str	r3, [r7, #12]
    1b4e:	2000      	movs	r0, #0
    1b50:	f7ff fec2 	bl	18d8 <app_util_critical_region_enter>
    1b54:	687b      	ldr	r3, [r7, #4]
    1b56:	681b      	ldr	r3, [r3, #0]
    1b58:	681c      	ldr	r4, [r3, #0]
    1b5a:	1c62      	adds	r2, r4, #1
    1b5c:	601a      	str	r2, [r3, #0]
    1b5e:	68f9      	ldr	r1, [r7, #12]
    1b60:	6878      	ldr	r0, [r7, #4]
    1b62:	f7ff ff78 	bl	1a56 <nrf_balloc_block2idx>
    1b66:	4603      	mov	r3, r0
    1b68:	7023      	strb	r3, [r4, #0]
    1b6a:	2000      	movs	r0, #0
    1b6c:	f7ff febe 	bl	18ec <app_util_critical_region_exit>
    1b70:	bf00      	nop
    1b72:	3714      	adds	r7, #20
    1b74:	46bd      	mov	sp, r7
    1b76:	bd90      	pop	{r4, r7, pc}

00001b78 <nrf_fprintf_buffer_flush>:
    1b78:	b580      	push	{r7, lr}
    1b7a:	b082      	sub	sp, #8
    1b7c:	af00      	add	r7, sp, #0
    1b7e:	6078      	str	r0, [r7, #4]
    1b80:	687b      	ldr	r3, [r7, #4]
    1b82:	689b      	ldr	r3, [r3, #8]
    1b84:	2b00      	cmp	r3, #0
    1b86:	d00c      	beq.n	1ba2 <nrf_fprintf_buffer_flush+0x2a>
    1b88:	687b      	ldr	r3, [r7, #4]
    1b8a:	695b      	ldr	r3, [r3, #20]
    1b8c:	687a      	ldr	r2, [r7, #4]
    1b8e:	6910      	ldr	r0, [r2, #16]
    1b90:	687a      	ldr	r2, [r7, #4]
    1b92:	6811      	ldr	r1, [r2, #0]
    1b94:	687a      	ldr	r2, [r7, #4]
    1b96:	6892      	ldr	r2, [r2, #8]
    1b98:	4798      	blx	r3
    1b9a:	687b      	ldr	r3, [r7, #4]
    1b9c:	2200      	movs	r2, #0
    1b9e:	609a      	str	r2, [r3, #8]
    1ba0:	e000      	b.n	1ba4 <nrf_fprintf_buffer_flush+0x2c>
    1ba2:	bf00      	nop
    1ba4:	3708      	adds	r7, #8
    1ba6:	46bd      	mov	sp, r7
    1ba8:	bd80      	pop	{r7, pc}

00001baa <nrf_fprintf>:
    1baa:	b40e      	push	{r1, r2, r3}
    1bac:	b580      	push	{r7, lr}
    1bae:	b085      	sub	sp, #20
    1bb0:	af00      	add	r7, sp, #0
    1bb2:	6078      	str	r0, [r7, #4]
    1bb4:	69fb      	ldr	r3, [r7, #28]
    1bb6:	2b00      	cmp	r3, #0
    1bb8:	d00c      	beq.n	1bd4 <nrf_fprintf+0x2a>
    1bba:	2300      	movs	r3, #0
    1bbc:	60fb      	str	r3, [r7, #12]
    1bbe:	f107 0320 	add.w	r3, r7, #32
    1bc2:	60fb      	str	r3, [r7, #12]
    1bc4:	f107 030c 	add.w	r3, r7, #12
    1bc8:	461a      	mov	r2, r3
    1bca:	69f9      	ldr	r1, [r7, #28]
    1bcc:	6878      	ldr	r0, [r7, #4]
    1bce:	f000 f9af 	bl	1f30 <nrf_fprintf_fmt>
    1bd2:	e000      	b.n	1bd6 <nrf_fprintf+0x2c>
    1bd4:	bf00      	nop
    1bd6:	3714      	adds	r7, #20
    1bd8:	46bd      	mov	sp, r7
    1bda:	e8bd 4080 	ldmia.w	sp!, {r7, lr}
    1bde:	b003      	add	sp, #12
    1be0:	4770      	bx	lr

00001be2 <buffer_add>:
    1be2:	b580      	push	{r7, lr}
    1be4:	b082      	sub	sp, #8
    1be6:	af00      	add	r7, sp, #0
    1be8:	6078      	str	r0, [r7, #4]
    1bea:	460b      	mov	r3, r1
    1bec:	70fb      	strb	r3, [r7, #3]
    1bee:	78fb      	ldrb	r3, [r7, #3]
    1bf0:	2b0a      	cmp	r3, #10
    1bf2:	d103      	bne.n	1bfc <buffer_add+0x1a>
    1bf4:	210d      	movs	r1, #13
    1bf6:	6878      	ldr	r0, [r7, #4]
    1bf8:	f7ff fff3 	bl	1be2 <buffer_add>
    1bfc:	687b      	ldr	r3, [r7, #4]
    1bfe:	681a      	ldr	r2, [r3, #0]
    1c00:	687b      	ldr	r3, [r7, #4]
    1c02:	689b      	ldr	r3, [r3, #8]
    1c04:	1c58      	adds	r0, r3, #1
    1c06:	6879      	ldr	r1, [r7, #4]
    1c08:	6088      	str	r0, [r1, #8]
    1c0a:	4413      	add	r3, r2
    1c0c:	78fa      	ldrb	r2, [r7, #3]
    1c0e:	701a      	strb	r2, [r3, #0]
    1c10:	687b      	ldr	r3, [r7, #4]
    1c12:	689a      	ldr	r2, [r3, #8]
    1c14:	687b      	ldr	r3, [r7, #4]
    1c16:	685b      	ldr	r3, [r3, #4]
    1c18:	429a      	cmp	r2, r3
    1c1a:	d302      	bcc.n	1c22 <buffer_add+0x40>
    1c1c:	6878      	ldr	r0, [r7, #4]
    1c1e:	f7ff ffab 	bl	1b78 <nrf_fprintf_buffer_flush>
    1c22:	bf00      	nop
    1c24:	3708      	adds	r7, #8
    1c26:	46bd      	mov	sp, r7
    1c28:	bd80      	pop	{r7, pc}

00001c2a <string_print>:
    1c2a:	b580      	push	{r7, lr}
    1c2c:	b086      	sub	sp, #24
    1c2e:	af00      	add	r7, sp, #0
    1c30:	60f8      	str	r0, [r7, #12]
    1c32:	60b9      	str	r1, [r7, #8]
    1c34:	607a      	str	r2, [r7, #4]
    1c36:	603b      	str	r3, [r7, #0]
    1c38:	2300      	movs	r3, #0
    1c3a:	617b      	str	r3, [r7, #20]
    1c3c:	683b      	ldr	r3, [r7, #0]
    1c3e:	f003 0301 	and.w	r3, r3, #1
    1c42:	2b00      	cmp	r3, #0
    1c44:	d021      	beq.n	1c8a <string_print+0x60>
    1c46:	e00a      	b.n	1c5e <string_print+0x34>
    1c48:	68bb      	ldr	r3, [r7, #8]
    1c4a:	3301      	adds	r3, #1
    1c4c:	60bb      	str	r3, [r7, #8]
    1c4e:	697b      	ldr	r3, [r7, #20]
    1c50:	3301      	adds	r3, #1
    1c52:	617b      	str	r3, [r7, #20]
    1c54:	7cfb      	ldrb	r3, [r7, #19]
    1c56:	4619      	mov	r1, r3
    1c58:	68f8      	ldr	r0, [r7, #12]
    1c5a:	f7ff ffc2 	bl	1be2 <buffer_add>
    1c5e:	68bb      	ldr	r3, [r7, #8]
    1c60:	781b      	ldrb	r3, [r3, #0]
    1c62:	74fb      	strb	r3, [r7, #19]
    1c64:	7cfb      	ldrb	r3, [r7, #19]
    1c66:	2b00      	cmp	r3, #0
    1c68:	d1ee      	bne.n	1c48 <string_print+0x1e>
    1c6a:	e006      	b.n	1c7a <string_print+0x50>
    1c6c:	687b      	ldr	r3, [r7, #4]
    1c6e:	3b01      	subs	r3, #1
    1c70:	607b      	str	r3, [r7, #4]
    1c72:	2120      	movs	r1, #32
    1c74:	68f8      	ldr	r0, [r7, #12]
    1c76:	f7ff ffb4 	bl	1be2 <buffer_add>
    1c7a:	687a      	ldr	r2, [r7, #4]
    1c7c:	697b      	ldr	r3, [r7, #20]
    1c7e:	429a      	cmp	r2, r3
    1c80:	d92b      	bls.n	1cda <string_print+0xb0>
    1c82:	687b      	ldr	r3, [r7, #4]
    1c84:	2b00      	cmp	r3, #0
    1c86:	d1f1      	bne.n	1c6c <string_print+0x42>
    1c88:	e027      	b.n	1cda <string_print+0xb0>
    1c8a:	68bb      	ldr	r3, [r7, #8]
    1c8c:	2b00      	cmp	r3, #0
    1c8e:	d00b      	beq.n	1ca8 <string_print+0x7e>
    1c90:	68b8      	ldr	r0, [r7, #8]
    1c92:	f003 fdf5 	bl	5880 <strlen>
    1c96:	6178      	str	r0, [r7, #20]
    1c98:	e006      	b.n	1ca8 <string_print+0x7e>
    1c9a:	687b      	ldr	r3, [r7, #4]
    1c9c:	3b01      	subs	r3, #1
    1c9e:	607b      	str	r3, [r7, #4]
    1ca0:	2120      	movs	r1, #32
    1ca2:	68f8      	ldr	r0, [r7, #12]
    1ca4:	f7ff ff9d 	bl	1be2 <buffer_add>
    1ca8:	687a      	ldr	r2, [r7, #4]
    1caa:	697b      	ldr	r3, [r7, #20]
    1cac:	429a      	cmp	r2, r3
    1cae:	d90e      	bls.n	1cce <string_print+0xa4>
    1cb0:	687b      	ldr	r3, [r7, #4]
    1cb2:	2b00      	cmp	r3, #0
    1cb4:	d1f1      	bne.n	1c9a <string_print+0x70>
    1cb6:	e00a      	b.n	1cce <string_print+0xa4>
    1cb8:	68bb      	ldr	r3, [r7, #8]
    1cba:	3301      	adds	r3, #1
    1cbc:	60bb      	str	r3, [r7, #8]
    1cbe:	697b      	ldr	r3, [r7, #20]
    1cc0:	3301      	adds	r3, #1
    1cc2:	617b      	str	r3, [r7, #20]
    1cc4:	7cfb      	ldrb	r3, [r7, #19]
    1cc6:	4619      	mov	r1, r3
    1cc8:	68f8      	ldr	r0, [r7, #12]
    1cca:	f7ff ff8a 	bl	1be2 <buffer_add>
    1cce:	68bb      	ldr	r3, [r7, #8]
    1cd0:	781b      	ldrb	r3, [r3, #0]
    1cd2:	74fb      	strb	r3, [r7, #19]
    1cd4:	7cfb      	ldrb	r3, [r7, #19]
    1cd6:	2b00      	cmp	r3, #0
    1cd8:	d1ee      	bne.n	1cb8 <string_print+0x8e>
    1cda:	bf00      	nop
    1cdc:	3718      	adds	r7, #24
    1cde:	46bd      	mov	sp, r7
    1ce0:	bd80      	pop	{r7, pc}
	...

00001ce4 <unsigned_print>:
    1ce4:	b580      	push	{r7, lr}
    1ce6:	b088      	sub	sp, #32
    1ce8:	af00      	add	r7, sp, #0
    1cea:	60f8      	str	r0, [r7, #12]
    1cec:	60b9      	str	r1, [r7, #8]
    1cee:	607a      	str	r2, [r7, #4]
    1cf0:	603b      	str	r3, [r7, #0]
    1cf2:	68bb      	ldr	r3, [r7, #8]
    1cf4:	61fb      	str	r3, [r7, #28]
    1cf6:	2301      	movs	r3, #1
    1cf8:	61bb      	str	r3, [r7, #24]
    1cfa:	e007      	b.n	1d0c <unsigned_print+0x28>
    1cfc:	69fa      	ldr	r2, [r7, #28]
    1cfe:	687b      	ldr	r3, [r7, #4]
    1d00:	fbb2 f3f3 	udiv	r3, r2, r3
    1d04:	61fb      	str	r3, [r7, #28]
    1d06:	69bb      	ldr	r3, [r7, #24]
    1d08:	3301      	adds	r3, #1
    1d0a:	61bb      	str	r3, [r7, #24]
    1d0c:	69fa      	ldr	r2, [r7, #28]
    1d0e:	687b      	ldr	r3, [r7, #4]
    1d10:	429a      	cmp	r2, r3
    1d12:	d2f3      	bcs.n	1cfc <unsigned_print+0x18>
    1d14:	683a      	ldr	r2, [r7, #0]
    1d16:	69bb      	ldr	r3, [r7, #24]
    1d18:	429a      	cmp	r2, r3
    1d1a:	d901      	bls.n	1d20 <unsigned_print+0x3c>
    1d1c:	683b      	ldr	r3, [r7, #0]
    1d1e:	61bb      	str	r3, [r7, #24]
    1d20:	6afb      	ldr	r3, [r7, #44]	; 0x2c
    1d22:	f003 0301 	and.w	r3, r3, #1
    1d26:	2b00      	cmp	r3, #0
    1d28:	d11f      	bne.n	1d6a <unsigned_print+0x86>
    1d2a:	6abb      	ldr	r3, [r7, #40]	; 0x28
    1d2c:	2b00      	cmp	r3, #0
    1d2e:	d01c      	beq.n	1d6a <unsigned_print+0x86>
    1d30:	6afb      	ldr	r3, [r7, #44]	; 0x2c
    1d32:	f003 0302 	and.w	r3, r3, #2
    1d36:	2b00      	cmp	r3, #0
    1d38:	d005      	beq.n	1d46 <unsigned_print+0x62>
    1d3a:	683b      	ldr	r3, [r7, #0]
    1d3c:	2b00      	cmp	r3, #0
    1d3e:	d102      	bne.n	1d46 <unsigned_print+0x62>
    1d40:	2330      	movs	r3, #48	; 0x30
    1d42:	75fb      	strb	r3, [r7, #23]
    1d44:	e001      	b.n	1d4a <unsigned_print+0x66>
    1d46:	2320      	movs	r3, #32
    1d48:	75fb      	strb	r3, [r7, #23]
    1d4a:	e007      	b.n	1d5c <unsigned_print+0x78>
    1d4c:	6abb      	ldr	r3, [r7, #40]	; 0x28
    1d4e:	3b01      	subs	r3, #1
    1d50:	62bb      	str	r3, [r7, #40]	; 0x28
    1d52:	7dfb      	ldrb	r3, [r7, #23]
    1d54:	4619      	mov	r1, r3
    1d56:	68f8      	ldr	r0, [r7, #12]
    1d58:	f7ff ff43 	bl	1be2 <buffer_add>
    1d5c:	6abb      	ldr	r3, [r7, #40]	; 0x28
    1d5e:	2b00      	cmp	r3, #0
    1d60:	d003      	beq.n	1d6a <unsigned_print+0x86>
    1d62:	69ba      	ldr	r2, [r7, #24]
    1d64:	6abb      	ldr	r3, [r7, #40]	; 0x28
    1d66:	429a      	cmp	r2, r3
    1d68:	d3f0      	bcc.n	1d4c <unsigned_print+0x68>
    1d6a:	2301      	movs	r3, #1
    1d6c:	61fb      	str	r3, [r7, #28]
    1d6e:	683b      	ldr	r3, [r7, #0]
    1d70:	2b01      	cmp	r3, #1
    1d72:	d903      	bls.n	1d7c <unsigned_print+0x98>
    1d74:	683b      	ldr	r3, [r7, #0]
    1d76:	3b01      	subs	r3, #1
    1d78:	603b      	str	r3, [r7, #0]
    1d7a:	e009      	b.n	1d90 <unsigned_print+0xac>
    1d7c:	68ba      	ldr	r2, [r7, #8]
    1d7e:	69fb      	ldr	r3, [r7, #28]
    1d80:	fbb2 f3f3 	udiv	r3, r2, r3
    1d84:	613b      	str	r3, [r7, #16]
    1d86:	693a      	ldr	r2, [r7, #16]
    1d88:	687b      	ldr	r3, [r7, #4]
    1d8a:	429a      	cmp	r2, r3
    1d8c:	d200      	bcs.n	1d90 <unsigned_print+0xac>
    1d8e:	e005      	b.n	1d9c <unsigned_print+0xb8>
    1d90:	69fb      	ldr	r3, [r7, #28]
    1d92:	687a      	ldr	r2, [r7, #4]
    1d94:	fb02 f303 	mul.w	r3, r2, r3
    1d98:	61fb      	str	r3, [r7, #28]
    1d9a:	e7e8      	b.n	1d6e <unsigned_print+0x8a>
    1d9c:	68ba      	ldr	r2, [r7, #8]
    1d9e:	69fb      	ldr	r3, [r7, #28]
    1da0:	fbb2 f3f3 	udiv	r3, r2, r3
    1da4:	613b      	str	r3, [r7, #16]
    1da6:	693b      	ldr	r3, [r7, #16]
    1da8:	69fa      	ldr	r2, [r7, #28]
    1daa:	fb02 f303 	mul.w	r3, r2, r3
    1dae:	68ba      	ldr	r2, [r7, #8]
    1db0:	1ad3      	subs	r3, r2, r3
    1db2:	60bb      	str	r3, [r7, #8]
    1db4:	4a15      	ldr	r2, [pc, #84]	; (1e0c <unsigned_print+0x128>)
    1db6:	693b      	ldr	r3, [r7, #16]
    1db8:	4413      	add	r3, r2
    1dba:	781b      	ldrb	r3, [r3, #0]
    1dbc:	4619      	mov	r1, r3
    1dbe:	68f8      	ldr	r0, [r7, #12]
    1dc0:	f7ff ff0f 	bl	1be2 <buffer_add>
    1dc4:	69fa      	ldr	r2, [r7, #28]
    1dc6:	687b      	ldr	r3, [r7, #4]
    1dc8:	fbb2 f3f3 	udiv	r3, r2, r3
    1dcc:	61fb      	str	r3, [r7, #28]
    1dce:	69fb      	ldr	r3, [r7, #28]
    1dd0:	2b00      	cmp	r3, #0
    1dd2:	d1e3      	bne.n	1d9c <unsigned_print+0xb8>
    1dd4:	6afb      	ldr	r3, [r7, #44]	; 0x2c
    1dd6:	f003 0301 	and.w	r3, r3, #1
    1dda:	2b00      	cmp	r3, #0
    1ddc:	d011      	beq.n	1e02 <unsigned_print+0x11e>
    1dde:	6abb      	ldr	r3, [r7, #40]	; 0x28
    1de0:	2b00      	cmp	r3, #0
    1de2:	d00e      	beq.n	1e02 <unsigned_print+0x11e>
    1de4:	e006      	b.n	1df4 <unsigned_print+0x110>
    1de6:	6abb      	ldr	r3, [r7, #40]	; 0x28
    1de8:	3b01      	subs	r3, #1
    1dea:	62bb      	str	r3, [r7, #40]	; 0x28
    1dec:	2120      	movs	r1, #32
    1dee:	68f8      	ldr	r0, [r7, #12]
    1df0:	f7ff fef7 	bl	1be2 <buffer_add>
    1df4:	6abb      	ldr	r3, [r7, #40]	; 0x28
    1df6:	2b00      	cmp	r3, #0
    1df8:	d003      	beq.n	1e02 <unsigned_print+0x11e>
    1dfa:	69ba      	ldr	r2, [r7, #24]
    1dfc:	6abb      	ldr	r3, [r7, #40]	; 0x28
    1dfe:	429a      	cmp	r2, r3
    1e00:	d3f1      	bcc.n	1de6 <unsigned_print+0x102>
    1e02:	bf00      	nop
    1e04:	3720      	adds	r7, #32
    1e06:	46bd      	mov	sp, r7
    1e08:	bd80      	pop	{r7, pc}
    1e0a:	bf00      	nop
    1e0c:	00005b38 	.word	0x00005b38

00001e10 <int_print>:
    1e10:	b580      	push	{r7, lr}
    1e12:	b088      	sub	sp, #32
    1e14:	af02      	add	r7, sp, #8
    1e16:	60f8      	str	r0, [r7, #12]
    1e18:	60b9      	str	r1, [r7, #8]
    1e1a:	607a      	str	r2, [r7, #4]
    1e1c:	603b      	str	r3, [r7, #0]
    1e1e:	68bb      	ldr	r3, [r7, #8]
    1e20:	2b00      	cmp	r3, #0
    1e22:	bfb8      	it	lt
    1e24:	425b      	neglt	r3, r3
    1e26:	613b      	str	r3, [r7, #16]
    1e28:	2301      	movs	r3, #1
    1e2a:	617b      	str	r3, [r7, #20]
    1e2c:	e007      	b.n	1e3e <int_print+0x2e>
    1e2e:	687b      	ldr	r3, [r7, #4]
    1e30:	693a      	ldr	r2, [r7, #16]
    1e32:	fb92 f3f3 	sdiv	r3, r2, r3
    1e36:	613b      	str	r3, [r7, #16]
    1e38:	697b      	ldr	r3, [r7, #20]
    1e3a:	3301      	adds	r3, #1
    1e3c:	617b      	str	r3, [r7, #20]
    1e3e:	687b      	ldr	r3, [r7, #4]
    1e40:	693a      	ldr	r2, [r7, #16]
    1e42:	429a      	cmp	r2, r3
    1e44:	daf3      	bge.n	1e2e <int_print+0x1e>
    1e46:	683a      	ldr	r2, [r7, #0]
    1e48:	697b      	ldr	r3, [r7, #20]
    1e4a:	429a      	cmp	r2, r3
    1e4c:	d901      	bls.n	1e52 <int_print+0x42>
    1e4e:	683b      	ldr	r3, [r7, #0]
    1e50:	617b      	str	r3, [r7, #20]
    1e52:	6a3b      	ldr	r3, [r7, #32]
    1e54:	2b00      	cmp	r3, #0
    1e56:	d00a      	beq.n	1e6e <int_print+0x5e>
    1e58:	68bb      	ldr	r3, [r7, #8]
    1e5a:	2b00      	cmp	r3, #0
    1e5c:	db04      	blt.n	1e68 <int_print+0x58>
    1e5e:	6a7b      	ldr	r3, [r7, #36]	; 0x24
    1e60:	f003 0304 	and.w	r3, r3, #4
    1e64:	2b00      	cmp	r3, #0
    1e66:	d002      	beq.n	1e6e <int_print+0x5e>
    1e68:	6a3b      	ldr	r3, [r7, #32]
    1e6a:	3b01      	subs	r3, #1
    1e6c:	623b      	str	r3, [r7, #32]
    1e6e:	6a7b      	ldr	r3, [r7, #36]	; 0x24
    1e70:	f003 0302 	and.w	r3, r3, #2
    1e74:	2b00      	cmp	r3, #0
    1e76:	d002      	beq.n	1e7e <int_print+0x6e>
    1e78:	683b      	ldr	r3, [r7, #0]
    1e7a:	2b00      	cmp	r3, #0
    1e7c:	d016      	beq.n	1eac <int_print+0x9c>
    1e7e:	6a7b      	ldr	r3, [r7, #36]	; 0x24
    1e80:	f003 0301 	and.w	r3, r3, #1
    1e84:	2b00      	cmp	r3, #0
    1e86:	d111      	bne.n	1eac <int_print+0x9c>
    1e88:	6a3b      	ldr	r3, [r7, #32]
    1e8a:	2b00      	cmp	r3, #0
    1e8c:	d00e      	beq.n	1eac <int_print+0x9c>
    1e8e:	e006      	b.n	1e9e <int_print+0x8e>
    1e90:	6a3b      	ldr	r3, [r7, #32]
    1e92:	3b01      	subs	r3, #1
    1e94:	623b      	str	r3, [r7, #32]
    1e96:	2120      	movs	r1, #32
    1e98:	68f8      	ldr	r0, [r7, #12]
    1e9a:	f7ff fea2 	bl	1be2 <buffer_add>
    1e9e:	6a3b      	ldr	r3, [r7, #32]
    1ea0:	2b00      	cmp	r3, #0
    1ea2:	d003      	beq.n	1eac <int_print+0x9c>
    1ea4:	697a      	ldr	r2, [r7, #20]
    1ea6:	6a3b      	ldr	r3, [r7, #32]
    1ea8:	429a      	cmp	r2, r3
    1eaa:	d3f1      	bcc.n	1e90 <int_print+0x80>
    1eac:	68bb      	ldr	r3, [r7, #8]
    1eae:	2b00      	cmp	r3, #0
    1eb0:	da07      	bge.n	1ec2 <int_print+0xb2>
    1eb2:	68bb      	ldr	r3, [r7, #8]
    1eb4:	425b      	negs	r3, r3
    1eb6:	60bb      	str	r3, [r7, #8]
    1eb8:	212d      	movs	r1, #45	; 0x2d
    1eba:	68f8      	ldr	r0, [r7, #12]
    1ebc:	f7ff fe91 	bl	1be2 <buffer_add>
    1ec0:	e008      	b.n	1ed4 <int_print+0xc4>
    1ec2:	6a7b      	ldr	r3, [r7, #36]	; 0x24
    1ec4:	f003 0304 	and.w	r3, r3, #4
    1ec8:	2b00      	cmp	r3, #0
    1eca:	d003      	beq.n	1ed4 <int_print+0xc4>
    1ecc:	212b      	movs	r1, #43	; 0x2b
    1ece:	68f8      	ldr	r0, [r7, #12]
    1ed0:	f7ff fe87 	bl	1be2 <buffer_add>
    1ed4:	6a7b      	ldr	r3, [r7, #36]	; 0x24
    1ed6:	f003 0302 	and.w	r3, r3, #2
    1eda:	2b00      	cmp	r3, #0
    1edc:	d019      	beq.n	1f12 <int_print+0x102>
    1ede:	6a7b      	ldr	r3, [r7, #36]	; 0x24
    1ee0:	f003 0301 	and.w	r3, r3, #1
    1ee4:	2b00      	cmp	r3, #0
    1ee6:	d114      	bne.n	1f12 <int_print+0x102>
    1ee8:	683b      	ldr	r3, [r7, #0]
    1eea:	2b00      	cmp	r3, #0
    1eec:	d111      	bne.n	1f12 <int_print+0x102>
    1eee:	6a3b      	ldr	r3, [r7, #32]
    1ef0:	2b00      	cmp	r3, #0
    1ef2:	d00e      	beq.n	1f12 <int_print+0x102>
    1ef4:	e006      	b.n	1f04 <int_print+0xf4>
    1ef6:	6a3b      	ldr	r3, [r7, #32]
    1ef8:	3b01      	subs	r3, #1
    1efa:	623b      	str	r3, [r7, #32]
    1efc:	2130      	movs	r1, #48	; 0x30
    1efe:	68f8      	ldr	r0, [r7, #12]
    1f00:	f7ff fe6f 	bl	1be2 <buffer_add>
    1f04:	6a3b      	ldr	r3, [r7, #32]
    1f06:	2b00      	cmp	r3, #0
    1f08:	d003      	beq.n	1f12 <int_print+0x102>
    1f0a:	697a      	ldr	r2, [r7, #20]
    1f0c:	6a3b      	ldr	r3, [r7, #32]
    1f0e:	429a      	cmp	r2, r3
    1f10:	d3f1      	bcc.n	1ef6 <int_print+0xe6>
    1f12:	68b9      	ldr	r1, [r7, #8]
    1f14:	6a7b      	ldr	r3, [r7, #36]	; 0x24
    1f16:	9301      	str	r3, [sp, #4]
    1f18:	6a3b      	ldr	r3, [r7, #32]
    1f1a:	9300      	str	r3, [sp, #0]
    1f1c:	683b      	ldr	r3, [r7, #0]
    1f1e:	687a      	ldr	r2, [r7, #4]
    1f20:	68f8      	ldr	r0, [r7, #12]
    1f22:	f7ff fedf 	bl	1ce4 <unsigned_print>
    1f26:	bf00      	nop
    1f28:	3718      	adds	r7, #24
    1f2a:	46bd      	mov	sp, r7
    1f2c:	bd80      	pop	{r7, pc}
	...

00001f30 <nrf_fprintf_fmt>:
    1f30:	b580      	push	{r7, lr}
    1f32:	b08e      	sub	sp, #56	; 0x38
    1f34:	af02      	add	r7, sp, #8
    1f36:	60f8      	str	r0, [r7, #12]
    1f38:	60b9      	str	r1, [r7, #8]
    1f3a:	607a      	str	r2, [r7, #4]
    1f3c:	68bb      	ldr	r3, [r7, #8]
    1f3e:	2b00      	cmp	r3, #0
    1f40:	f000 818e 	beq.w	2260 <Heap_Size+0x260>
    1f44:	68bb      	ldr	r3, [r7, #8]
    1f46:	781b      	ldrb	r3, [r3, #0]
    1f48:	f887 302f 	strb.w	r3, [r7, #47]	; 0x2f
    1f4c:	68bb      	ldr	r3, [r7, #8]
    1f4e:	3301      	adds	r3, #1
    1f50:	60bb      	str	r3, [r7, #8]
    1f52:	f897 302f 	ldrb.w	r3, [r7, #47]	; 0x2f
    1f56:	2b00      	cmp	r3, #0
    1f58:	f000 8179 	beq.w	224e <Heap_Size+0x24e>
    1f5c:	f897 302f 	ldrb.w	r3, [r7, #47]	; 0x2f
    1f60:	2b25      	cmp	r3, #37	; 0x25
    1f62:	f040 8168 	bne.w	2236 <Heap_Size+0x236>
    1f66:	2300      	movs	r3, #0
    1f68:	623b      	str	r3, [r7, #32]
    1f6a:	2301      	movs	r3, #1
    1f6c:	62bb      	str	r3, [r7, #40]	; 0x28
    1f6e:	68bb      	ldr	r3, [r7, #8]
    1f70:	781b      	ldrb	r3, [r3, #0]
    1f72:	f887 302f 	strb.w	r3, [r7, #47]	; 0x2f
    1f76:	f897 302f 	ldrb.w	r3, [r7, #47]	; 0x2f
    1f7a:	2b30      	cmp	r3, #48	; 0x30
    1f7c:	d00d      	beq.n	1f9a <nrf_fprintf_fmt+0x6a>
    1f7e:	2b30      	cmp	r3, #48	; 0x30
    1f80:	dc1b      	bgt.n	1fba <nrf_fprintf_fmt+0x8a>
    1f82:	2b2b      	cmp	r3, #43	; 0x2b
    1f84:	d011      	beq.n	1faa <nrf_fprintf_fmt+0x7a>
    1f86:	2b2d      	cmp	r3, #45	; 0x2d
    1f88:	d117      	bne.n	1fba <nrf_fprintf_fmt+0x8a>
    1f8a:	6a3b      	ldr	r3, [r7, #32]
    1f8c:	f043 0301 	orr.w	r3, r3, #1
    1f90:	623b      	str	r3, [r7, #32]
    1f92:	68bb      	ldr	r3, [r7, #8]
    1f94:	3301      	adds	r3, #1
    1f96:	60bb      	str	r3, [r7, #8]
    1f98:	e012      	b.n	1fc0 <nrf_fprintf_fmt+0x90>
    1f9a:	6a3b      	ldr	r3, [r7, #32]
    1f9c:	f043 0302 	orr.w	r3, r3, #2
    1fa0:	623b      	str	r3, [r7, #32]
    1fa2:	68bb      	ldr	r3, [r7, #8]
    1fa4:	3301      	adds	r3, #1
    1fa6:	60bb      	str	r3, [r7, #8]
    1fa8:	e00a      	b.n	1fc0 <nrf_fprintf_fmt+0x90>
    1faa:	6a3b      	ldr	r3, [r7, #32]
    1fac:	f043 0304 	orr.w	r3, r3, #4
    1fb0:	623b      	str	r3, [r7, #32]
    1fb2:	68bb      	ldr	r3, [r7, #8]
    1fb4:	3301      	adds	r3, #1
    1fb6:	60bb      	str	r3, [r7, #8]
    1fb8:	e002      	b.n	1fc0 <nrf_fprintf_fmt+0x90>
    1fba:	2300      	movs	r3, #0
    1fbc:	62bb      	str	r3, [r7, #40]	; 0x28
    1fbe:	bf00      	nop
    1fc0:	6abb      	ldr	r3, [r7, #40]	; 0x28
    1fc2:	2b00      	cmp	r3, #0
    1fc4:	d1d3      	bne.n	1f6e <nrf_fprintf_fmt+0x3e>
    1fc6:	2300      	movs	r3, #0
    1fc8:	61fb      	str	r3, [r7, #28]
    1fca:	f897 302f 	ldrb.w	r3, [r7, #47]	; 0x2f
    1fce:	2b2a      	cmp	r3, #42	; 0x2a
    1fd0:	d10c      	bne.n	1fec <nrf_fprintf_fmt+0xbc>
    1fd2:	687b      	ldr	r3, [r7, #4]
    1fd4:	681b      	ldr	r3, [r3, #0]
    1fd6:	1d19      	adds	r1, r3, #4
    1fd8:	687a      	ldr	r2, [r7, #4]
    1fda:	6011      	str	r1, [r2, #0]
    1fdc:	681b      	ldr	r3, [r3, #0]
    1fde:	69fa      	ldr	r2, [r7, #28]
    1fe0:	4413      	add	r3, r2
    1fe2:	61fb      	str	r3, [r7, #28]
    1fe4:	68bb      	ldr	r3, [r7, #8]
    1fe6:	3301      	adds	r3, #1
    1fe8:	60bb      	str	r3, [r7, #8]
    1fea:	e01a      	b.n	2022 <Heap_Size+0x22>
    1fec:	68bb      	ldr	r3, [r7, #8]
    1fee:	781b      	ldrb	r3, [r3, #0]
    1ff0:	f887 302f 	strb.w	r3, [r7, #47]	; 0x2f
    1ff4:	f897 302f 	ldrb.w	r3, [r7, #47]	; 0x2f
    1ff8:	2b2f      	cmp	r3, #47	; 0x2f
    1ffa:	d912      	bls.n	2022 <Heap_Size+0x22>
    1ffc:	f897 302f 	ldrb.w	r3, [r7, #47]	; 0x2f
    2000:	2b39      	cmp	r3, #57	; 0x39
    2002:	d80e      	bhi.n	2022 <Heap_Size+0x22>
    2004:	68bb      	ldr	r3, [r7, #8]
    2006:	3301      	adds	r3, #1
    2008:	60bb      	str	r3, [r7, #8]
    200a:	69fa      	ldr	r2, [r7, #28]
    200c:	4613      	mov	r3, r2
    200e:	009b      	lsls	r3, r3, #2
    2010:	4413      	add	r3, r2
    2012:	005b      	lsls	r3, r3, #1
    2014:	461a      	mov	r2, r3
    2016:	f897 302f 	ldrb.w	r3, [r7, #47]	; 0x2f
    201a:	4413      	add	r3, r2
    201c:	3b30      	subs	r3, #48	; 0x30
    201e:	61fb      	str	r3, [r7, #28]
    2020:	e7d3      	b.n	1fca <nrf_fprintf_fmt+0x9a>
    2022:	2300      	movs	r3, #0
    2024:	627b      	str	r3, [r7, #36]	; 0x24
    2026:	68bb      	ldr	r3, [r7, #8]
    2028:	781b      	ldrb	r3, [r3, #0]
    202a:	f887 302f 	strb.w	r3, [r7, #47]	; 0x2f
    202e:	f897 302f 	ldrb.w	r3, [r7, #47]	; 0x2f
    2032:	2b2e      	cmp	r3, #46	; 0x2e
    2034:	d11d      	bne.n	2072 <Heap_Size+0x72>
    2036:	68bb      	ldr	r3, [r7, #8]
    2038:	3301      	adds	r3, #1
    203a:	60bb      	str	r3, [r7, #8]
    203c:	68bb      	ldr	r3, [r7, #8]
    203e:	781b      	ldrb	r3, [r3, #0]
    2040:	f887 302f 	strb.w	r3, [r7, #47]	; 0x2f
    2044:	f897 302f 	ldrb.w	r3, [r7, #47]	; 0x2f
    2048:	2b2f      	cmp	r3, #47	; 0x2f
    204a:	d912      	bls.n	2072 <Heap_Size+0x72>
    204c:	f897 302f 	ldrb.w	r3, [r7, #47]	; 0x2f
    2050:	2b39      	cmp	r3, #57	; 0x39
    2052:	d80e      	bhi.n	2072 <Heap_Size+0x72>
    2054:	68bb      	ldr	r3, [r7, #8]
    2056:	3301      	adds	r3, #1
    2058:	60bb      	str	r3, [r7, #8]
    205a:	6a7a      	ldr	r2, [r7, #36]	; 0x24
    205c:	4613      	mov	r3, r2
    205e:	009b      	lsls	r3, r3, #2
    2060:	4413      	add	r3, r2
    2062:	005b      	lsls	r3, r3, #1
    2064:	461a      	mov	r2, r3
    2066:	f897 302f 	ldrb.w	r3, [r7, #47]	; 0x2f
    206a:	4413      	add	r3, r2
    206c:	3b30      	subs	r3, #48	; 0x30
    206e:	627b      	str	r3, [r7, #36]	; 0x24
    2070:	e7e4      	b.n	203c <Heap_Size+0x3c>
    2072:	68bb      	ldr	r3, [r7, #8]
    2074:	781b      	ldrb	r3, [r3, #0]
    2076:	f887 302f 	strb.w	r3, [r7, #47]	; 0x2f
    207a:	f897 302f 	ldrb.w	r3, [r7, #47]	; 0x2f
    207e:	2b6c      	cmp	r3, #108	; 0x6c
    2080:	d003      	beq.n	208a <Heap_Size+0x8a>
    2082:	f897 302f 	ldrb.w	r3, [r7, #47]	; 0x2f
    2086:	2b68      	cmp	r3, #104	; 0x68
    2088:	d107      	bne.n	209a <Heap_Size+0x9a>
    208a:	68bb      	ldr	r3, [r7, #8]
    208c:	3301      	adds	r3, #1
    208e:	60bb      	str	r3, [r7, #8]
    2090:	68bb      	ldr	r3, [r7, #8]
    2092:	781b      	ldrb	r3, [r3, #0]
    2094:	f887 302f 	strb.w	r3, [r7, #47]	; 0x2f
    2098:	e7ef      	b.n	207a <Heap_Size+0x7a>
    209a:	f897 302f 	ldrb.w	r3, [r7, #47]	; 0x2f
    209e:	2b25      	cmp	r3, #37	; 0x25
    20a0:	f000 80bf 	beq.w	2222 <Heap_Size+0x222>
    20a4:	2b25      	cmp	r3, #37	; 0x25
    20a6:	f2c0 80c1 	blt.w	222c <Heap_Size+0x22c>
    20aa:	2b78      	cmp	r3, #120	; 0x78
    20ac:	f300 80be 	bgt.w	222c <Heap_Size+0x22c>
    20b0:	2b58      	cmp	r3, #88	; 0x58
    20b2:	f2c0 80bb 	blt.w	222c <Heap_Size+0x22c>
    20b6:	3b58      	subs	r3, #88	; 0x58
    20b8:	2b20      	cmp	r3, #32
    20ba:	f200 80b7 	bhi.w	222c <Heap_Size+0x22c>
    20be:	a201      	add	r2, pc, #4	; (adr r2, 20c4 <Heap_Size+0xc4>)
    20c0:	f852 f023 	ldr.w	pc, [r2, r3, lsl #2]
    20c4:	000021af 	.word	0x000021af
    20c8:	0000222d 	.word	0x0000222d
    20cc:	0000222d 	.word	0x0000222d
    20d0:	0000222d 	.word	0x0000222d
    20d4:	0000222d 	.word	0x0000222d
    20d8:	0000222d 	.word	0x0000222d
    20dc:	0000222d 	.word	0x0000222d
    20e0:	0000222d 	.word	0x0000222d
    20e4:	0000222d 	.word	0x0000222d
    20e8:	0000222d 	.word	0x0000222d
    20ec:	0000222d 	.word	0x0000222d
    20f0:	00002149 	.word	0x00002149
    20f4:	00002167 	.word	0x00002167
    20f8:	0000222d 	.word	0x0000222d
    20fc:	0000222d 	.word	0x0000222d
    2100:	0000222d 	.word	0x0000222d
    2104:	0000222d 	.word	0x0000222d
    2108:	00002167 	.word	0x00002167
    210c:	0000222d 	.word	0x0000222d
    2110:	0000222d 	.word	0x0000222d
    2114:	0000222d 	.word	0x0000222d
    2118:	0000222d 	.word	0x0000222d
    211c:	0000222d 	.word	0x0000222d
    2120:	0000222d 	.word	0x0000222d
    2124:	000021ef 	.word	0x000021ef
    2128:	0000222d 	.word	0x0000222d
    212c:	0000222d 	.word	0x0000222d
    2130:	000021d3 	.word	0x000021d3
    2134:	0000222d 	.word	0x0000222d
    2138:	0000218b 	.word	0x0000218b
    213c:	0000222d 	.word	0x0000222d
    2140:	0000222d 	.word	0x0000222d
    2144:	000021af 	.word	0x000021af
    2148:	687b      	ldr	r3, [r7, #4]
    214a:	681b      	ldr	r3, [r3, #0]
    214c:	1d19      	adds	r1, r3, #4
    214e:	687a      	ldr	r2, [r7, #4]
    2150:	6011      	str	r1, [r2, #0]
    2152:	681b      	ldr	r3, [r3, #0]
    2154:	62bb      	str	r3, [r7, #40]	; 0x28
    2156:	6abb      	ldr	r3, [r7, #40]	; 0x28
    2158:	75fb      	strb	r3, [r7, #23]
    215a:	7dfb      	ldrb	r3, [r7, #23]
    215c:	4619      	mov	r1, r3
    215e:	68f8      	ldr	r0, [r7, #12]
    2160:	f7ff fd3f 	bl	1be2 <buffer_add>
    2164:	e063      	b.n	222e <Heap_Size+0x22e>
    2166:	687b      	ldr	r3, [r7, #4]
    2168:	681b      	ldr	r3, [r3, #0]
    216a:	1d19      	adds	r1, r3, #4
    216c:	687a      	ldr	r2, [r7, #4]
    216e:	6011      	str	r1, [r2, #0]
    2170:	681b      	ldr	r3, [r3, #0]
    2172:	62bb      	str	r3, [r7, #40]	; 0x28
    2174:	6a3b      	ldr	r3, [r7, #32]
    2176:	9301      	str	r3, [sp, #4]
    2178:	69fb      	ldr	r3, [r7, #28]
    217a:	9300      	str	r3, [sp, #0]
    217c:	6a7b      	ldr	r3, [r7, #36]	; 0x24
    217e:	220a      	movs	r2, #10
    2180:	6ab9      	ldr	r1, [r7, #40]	; 0x28
    2182:	68f8      	ldr	r0, [r7, #12]
    2184:	f7ff fe44 	bl	1e10 <int_print>
    2188:	e051      	b.n	222e <Heap_Size+0x22e>
    218a:	687b      	ldr	r3, [r7, #4]
    218c:	681b      	ldr	r3, [r3, #0]
    218e:	1d19      	adds	r1, r3, #4
    2190:	687a      	ldr	r2, [r7, #4]
    2192:	6011      	str	r1, [r2, #0]
    2194:	681b      	ldr	r3, [r3, #0]
    2196:	62bb      	str	r3, [r7, #40]	; 0x28
    2198:	6ab9      	ldr	r1, [r7, #40]	; 0x28
    219a:	6a3b      	ldr	r3, [r7, #32]
    219c:	9301      	str	r3, [sp, #4]
    219e:	69fb      	ldr	r3, [r7, #28]
    21a0:	9300      	str	r3, [sp, #0]
    21a2:	6a7b      	ldr	r3, [r7, #36]	; 0x24
    21a4:	220a      	movs	r2, #10
    21a6:	68f8      	ldr	r0, [r7, #12]
    21a8:	f7ff fd9c 	bl	1ce4 <unsigned_print>
    21ac:	e03f      	b.n	222e <Heap_Size+0x22e>
    21ae:	687b      	ldr	r3, [r7, #4]
    21b0:	681b      	ldr	r3, [r3, #0]
    21b2:	1d19      	adds	r1, r3, #4
    21b4:	687a      	ldr	r2, [r7, #4]
    21b6:	6011      	str	r1, [r2, #0]
    21b8:	681b      	ldr	r3, [r3, #0]
    21ba:	62bb      	str	r3, [r7, #40]	; 0x28
    21bc:	6ab9      	ldr	r1, [r7, #40]	; 0x28
    21be:	6a3b      	ldr	r3, [r7, #32]
    21c0:	9301      	str	r3, [sp, #4]
    21c2:	69fb      	ldr	r3, [r7, #28]
    21c4:	9300      	str	r3, [sp, #0]
    21c6:	6a7b      	ldr	r3, [r7, #36]	; 0x24
    21c8:	2210      	movs	r2, #16
    21ca:	68f8      	ldr	r0, [r7, #12]
    21cc:	f7ff fd8a 	bl	1ce4 <unsigned_print>
    21d0:	e02d      	b.n	222e <Heap_Size+0x22e>
    21d2:	687b      	ldr	r3, [r7, #4]
    21d4:	681b      	ldr	r3, [r3, #0]
    21d6:	1d19      	adds	r1, r3, #4
    21d8:	687a      	ldr	r2, [r7, #4]
    21da:	6011      	str	r1, [r2, #0]
    21dc:	681b      	ldr	r3, [r3, #0]
    21de:	61bb      	str	r3, [r7, #24]
    21e0:	6a3b      	ldr	r3, [r7, #32]
    21e2:	69fa      	ldr	r2, [r7, #28]
    21e4:	69b9      	ldr	r1, [r7, #24]
    21e6:	68f8      	ldr	r0, [r7, #12]
    21e8:	f7ff fd1f 	bl	1c2a <string_print>
    21ec:	e01f      	b.n	222e <Heap_Size+0x22e>
    21ee:	687b      	ldr	r3, [r7, #4]
    21f0:	681b      	ldr	r3, [r3, #0]
    21f2:	1d19      	adds	r1, r3, #4
    21f4:	687a      	ldr	r2, [r7, #4]
    21f6:	6011      	str	r1, [r2, #0]
    21f8:	681b      	ldr	r3, [r3, #0]
    21fa:	62bb      	str	r3, [r7, #40]	; 0x28
    21fc:	2130      	movs	r1, #48	; 0x30
    21fe:	68f8      	ldr	r0, [r7, #12]
    2200:	f7ff fcef 	bl	1be2 <buffer_add>
    2204:	2178      	movs	r1, #120	; 0x78
    2206:	68f8      	ldr	r0, [r7, #12]
    2208:	f7ff fceb 	bl	1be2 <buffer_add>
    220c:	6ab9      	ldr	r1, [r7, #40]	; 0x28
    220e:	2300      	movs	r3, #0
    2210:	9301      	str	r3, [sp, #4]
    2212:	2308      	movs	r3, #8
    2214:	9300      	str	r3, [sp, #0]
    2216:	2308      	movs	r3, #8
    2218:	2210      	movs	r2, #16
    221a:	68f8      	ldr	r0, [r7, #12]
    221c:	f7ff fd62 	bl	1ce4 <unsigned_print>
    2220:	e005      	b.n	222e <Heap_Size+0x22e>
    2222:	2125      	movs	r1, #37	; 0x25
    2224:	68f8      	ldr	r0, [r7, #12]
    2226:	f7ff fcdc 	bl	1be2 <buffer_add>
    222a:	e000      	b.n	222e <Heap_Size+0x22e>
    222c:	bf00      	nop
    222e:	68bb      	ldr	r3, [r7, #8]
    2230:	3301      	adds	r3, #1
    2232:	60bb      	str	r3, [r7, #8]
    2234:	e005      	b.n	2242 <Heap_Size+0x242>
    2236:	f897 302f 	ldrb.w	r3, [r7, #47]	; 0x2f
    223a:	4619      	mov	r1, r3
    223c:	68f8      	ldr	r0, [r7, #12]
    223e:	f7ff fcd0 	bl	1be2 <buffer_add>
    2242:	68bb      	ldr	r3, [r7, #8]
    2244:	781b      	ldrb	r3, [r3, #0]
    2246:	2b00      	cmp	r3, #0
    2248:	f47f ae7c 	bne.w	1f44 <nrf_fprintf_fmt+0x14>
    224c:	e000      	b.n	2250 <Heap_Size+0x250>
    224e:	bf00      	nop
    2250:	68fb      	ldr	r3, [r7, #12]
    2252:	7b1b      	ldrb	r3, [r3, #12]
    2254:	2b00      	cmp	r3, #0
    2256:	d004      	beq.n	2262 <Heap_Size+0x262>
    2258:	68f8      	ldr	r0, [r7, #12]
    225a:	f7ff fc8d 	bl	1b78 <nrf_fprintf_buffer_flush>
    225e:	e000      	b.n	2262 <Heap_Size+0x262>
    2260:	bf00      	nop
    2262:	3730      	adds	r7, #48	; 0x30
    2264:	46bd      	mov	sp, r7
    2266:	bd80      	pop	{r7, pc}

00002268 <nrf_memobj_pool_init>:
    2268:	b580      	push	{r7, lr}
    226a:	b082      	sub	sp, #8
    226c:	af00      	add	r7, sp, #0
    226e:	6078      	str	r0, [r7, #4]
    2270:	6878      	ldr	r0, [r7, #4]
    2272:	f7ff fc04 	bl	1a7e <nrf_balloc_init>
    2276:	4603      	mov	r3, r0
    2278:	4618      	mov	r0, r3
    227a:	3708      	adds	r7, #8
    227c:	46bd      	mov	sp, r7
    227e:	bd80      	pop	{r7, pc}

00002280 <nrf_memobj_alloc>:
    2280:	b580      	push	{r7, lr}
    2282:	b08a      	sub	sp, #40	; 0x28
    2284:	af00      	add	r7, sp, #0
    2286:	6078      	str	r0, [r7, #4]
    2288:	6039      	str	r1, [r7, #0]
    228a:	687b      	ldr	r3, [r7, #4]
    228c:	8a1b      	ldrh	r3, [r3, #16]
    228e:	3b04      	subs	r3, #4
    2290:	61fb      	str	r3, [r7, #28]
    2292:	683a      	ldr	r2, [r7, #0]
    2294:	69fb      	ldr	r3, [r7, #28]
    2296:	4413      	add	r3, r2
    2298:	1cda      	adds	r2, r3, #3
    229a:	69fb      	ldr	r3, [r7, #28]
    229c:	fbb2 f3f3 	udiv	r3, r2, r3
    22a0:	76fb      	strb	r3, [r7, #27]
    22a2:	6878      	ldr	r0, [r7, #4]
    22a4:	f7ff fc17 	bl	1ad6 <nrf_balloc_alloc>
    22a8:	6178      	str	r0, [r7, #20]
    22aa:	697b      	ldr	r3, [r7, #20]
    22ac:	2b00      	cmp	r3, #0
    22ae:	d101      	bne.n	22b4 <nrf_memobj_alloc+0x34>
    22b0:	2300      	movs	r3, #0
    22b2:	e037      	b.n	2324 <nrf_memobj_alloc+0xa4>
    22b4:	697b      	ldr	r3, [r7, #20]
    22b6:	2200      	movs	r2, #0
    22b8:	711a      	strb	r2, [r3, #4]
    22ba:	697b      	ldr	r3, [r7, #20]
    22bc:	2201      	movs	r2, #1
    22be:	715a      	strb	r2, [r3, #5]
    22c0:	69fb      	ldr	r3, [r7, #28]
    22c2:	b29a      	uxth	r2, r3
    22c4:	697b      	ldr	r3, [r7, #20]
    22c6:	80da      	strh	r2, [r3, #6]
    22c8:	697b      	ldr	r3, [r7, #20]
    22ca:	627b      	str	r3, [r7, #36]	; 0x24
    22cc:	7efb      	ldrb	r3, [r7, #27]
    22ce:	3b01      	subs	r3, #1
    22d0:	613b      	str	r3, [r7, #16]
    22d2:	6a7b      	ldr	r3, [r7, #36]	; 0x24
    22d4:	687a      	ldr	r2, [r7, #4]
    22d6:	601a      	str	r2, [r3, #0]
    22d8:	2300      	movs	r3, #0
    22da:	623b      	str	r3, [r7, #32]
    22dc:	e01d      	b.n	231a <nrf_memobj_alloc+0x9a>
    22de:	6878      	ldr	r0, [r7, #4]
    22e0:	f7ff fbf9 	bl	1ad6 <nrf_balloc_alloc>
    22e4:	60f8      	str	r0, [r7, #12]
    22e6:	68fb      	ldr	r3, [r7, #12]
    22e8:	2b00      	cmp	r3, #0
    22ea:	d00e      	beq.n	230a <nrf_memobj_alloc+0x8a>
    22ec:	697b      	ldr	r3, [r7, #20]
    22ee:	795b      	ldrb	r3, [r3, #5]
    22f0:	3301      	adds	r3, #1
    22f2:	b2da      	uxtb	r2, r3
    22f4:	697b      	ldr	r3, [r7, #20]
    22f6:	715a      	strb	r2, [r3, #5]
    22f8:	6a7b      	ldr	r3, [r7, #36]	; 0x24
    22fa:	68fa      	ldr	r2, [r7, #12]
    22fc:	601a      	str	r2, [r3, #0]
    22fe:	68fb      	ldr	r3, [r7, #12]
    2300:	687a      	ldr	r2, [r7, #4]
    2302:	601a      	str	r2, [r3, #0]
    2304:	68fb      	ldr	r3, [r7, #12]
    2306:	627b      	str	r3, [r7, #36]	; 0x24
    2308:	e004      	b.n	2314 <nrf_memobj_alloc+0x94>
    230a:	6978      	ldr	r0, [r7, #20]
    230c:	f000 f80e 	bl	232c <nrf_memobj_free>
    2310:	2300      	movs	r3, #0
    2312:	e007      	b.n	2324 <nrf_memobj_alloc+0xa4>
    2314:	6a3b      	ldr	r3, [r7, #32]
    2316:	3301      	adds	r3, #1
    2318:	623b      	str	r3, [r7, #32]
    231a:	6a3a      	ldr	r2, [r7, #32]
    231c:	693b      	ldr	r3, [r7, #16]
    231e:	429a      	cmp	r2, r3
    2320:	d3dd      	bcc.n	22de <nrf_memobj_alloc+0x5e>
    2322:	697b      	ldr	r3, [r7, #20]
    2324:	4618      	mov	r0, r3
    2326:	3728      	adds	r7, #40	; 0x28
    2328:	46bd      	mov	sp, r7
    232a:	bd80      	pop	{r7, pc}

0000232c <nrf_memobj_free>:
    232c:	b580      	push	{r7, lr}
    232e:	b08a      	sub	sp, #40	; 0x28
    2330:	af00      	add	r7, sp, #0
    2332:	6078      	str	r0, [r7, #4]
    2334:	687b      	ldr	r3, [r7, #4]
    2336:	61fb      	str	r3, [r7, #28]
    2338:	69fb      	ldr	r3, [r7, #28]
    233a:	795b      	ldrb	r3, [r3, #5]
    233c:	76fb      	strb	r3, [r7, #27]
    233e:	687b      	ldr	r3, [r7, #4]
    2340:	623b      	str	r3, [r7, #32]
    2342:	7efb      	ldrb	r3, [r7, #27]
    2344:	3b01      	subs	r3, #1
    2346:	617b      	str	r3, [r7, #20]
    2348:	2300      	movs	r3, #0
    234a:	627b      	str	r3, [r7, #36]	; 0x24
    234c:	e005      	b.n	235a <nrf_memobj_free+0x2e>
    234e:	6a3b      	ldr	r3, [r7, #32]
    2350:	681b      	ldr	r3, [r3, #0]
    2352:	623b      	str	r3, [r7, #32]
    2354:	6a7b      	ldr	r3, [r7, #36]	; 0x24
    2356:	3301      	adds	r3, #1
    2358:	627b      	str	r3, [r7, #36]	; 0x24
    235a:	6a7a      	ldr	r2, [r7, #36]	; 0x24
    235c:	697b      	ldr	r3, [r7, #20]
    235e:	429a      	cmp	r2, r3
    2360:	d3f5      	bcc.n	234e <nrf_memobj_free+0x22>
    2362:	6a3b      	ldr	r3, [r7, #32]
    2364:	681b      	ldr	r3, [r3, #0]
    2366:	613b      	str	r3, [r7, #16]
    2368:	687b      	ldr	r3, [r7, #4]
    236a:	623b      	str	r3, [r7, #32]
    236c:	2300      	movs	r3, #0
    236e:	627b      	str	r3, [r7, #36]	; 0x24
    2370:	e00b      	b.n	238a <nrf_memobj_free+0x5e>
    2372:	6a3b      	ldr	r3, [r7, #32]
    2374:	681b      	ldr	r3, [r3, #0]
    2376:	60fb      	str	r3, [r7, #12]
    2378:	6a39      	ldr	r1, [r7, #32]
    237a:	6938      	ldr	r0, [r7, #16]
    237c:	f7ff fbe0 	bl	1b40 <nrf_balloc_free>
    2380:	68fb      	ldr	r3, [r7, #12]
    2382:	623b      	str	r3, [r7, #32]
    2384:	6a7b      	ldr	r3, [r7, #36]	; 0x24
    2386:	3301      	adds	r3, #1
    2388:	627b      	str	r3, [r7, #36]	; 0x24
    238a:	7efb      	ldrb	r3, [r7, #27]
    238c:	6a7a      	ldr	r2, [r7, #36]	; 0x24
    238e:	429a      	cmp	r2, r3
    2390:	d3ef      	bcc.n	2372 <nrf_memobj_free+0x46>
    2392:	bf00      	nop
    2394:	bf00      	nop
    2396:	3728      	adds	r7, #40	; 0x28
    2398:	46bd      	mov	sp, r7
    239a:	bd80      	pop	{r7, pc}

0000239c <nrf_memobj_get>:
    239c:	b580      	push	{r7, lr}
    239e:	b084      	sub	sp, #16
    23a0:	af00      	add	r7, sp, #0
    23a2:	6078      	str	r0, [r7, #4]
    23a4:	687b      	ldr	r3, [r7, #4]
    23a6:	60fb      	str	r3, [r7, #12]
    23a8:	68fb      	ldr	r3, [r7, #12]
    23aa:	3304      	adds	r3, #4
    23ac:	2101      	movs	r1, #1
    23ae:	4618      	mov	r0, r3
    23b0:	f7ff faf1 	bl	1996 <nrf_atomic_u32_add>
    23b4:	bf00      	nop
    23b6:	3710      	adds	r7, #16
    23b8:	46bd      	mov	sp, r7
    23ba:	bd80      	pop	{r7, pc}

000023bc <nrf_memobj_put>:
    23bc:	b580      	push	{r7, lr}
    23be:	b086      	sub	sp, #24
    23c0:	af00      	add	r7, sp, #0
    23c2:	6078      	str	r0, [r7, #4]
    23c4:	687b      	ldr	r3, [r7, #4]
    23c6:	617b      	str	r3, [r7, #20]
    23c8:	697b      	ldr	r3, [r7, #20]
    23ca:	3304      	adds	r3, #4
    23cc:	2101      	movs	r1, #1
    23ce:	4618      	mov	r0, r3
    23d0:	f7ff fafa 	bl	19c8 <nrf_atomic_u32_sub>
    23d4:	4603      	mov	r3, r0
    23d6:	60fb      	str	r3, [r7, #12]
    23d8:	f107 030c 	add.w	r3, r7, #12
    23dc:	613b      	str	r3, [r7, #16]
    23de:	693b      	ldr	r3, [r7, #16]
    23e0:	781b      	ldrb	r3, [r3, #0]
    23e2:	2b00      	cmp	r3, #0
    23e4:	d102      	bne.n	23ec <nrf_memobj_put+0x30>
    23e6:	6878      	ldr	r0, [r7, #4]
    23e8:	f7ff ffa0 	bl	232c <nrf_memobj_free>
    23ec:	bf00      	nop
    23ee:	3718      	adds	r7, #24
    23f0:	46bd      	mov	sp, r7
    23f2:	bd80      	pop	{r7, pc}

000023f4 <memobj_op>:
    23f4:	b580      	push	{r7, lr}
    23f6:	b090      	sub	sp, #64	; 0x40
    23f8:	af00      	add	r7, sp, #0
    23fa:	60f8      	str	r0, [r7, #12]
    23fc:	60b9      	str	r1, [r7, #8]
    23fe:	607a      	str	r2, [r7, #4]
    2400:	603b      	str	r3, [r7, #0]
    2402:	68fb      	ldr	r3, [r7, #12]
    2404:	627b      	str	r3, [r7, #36]	; 0x24
    2406:	68fb      	ldr	r3, [r7, #12]
    2408:	63fb      	str	r3, [r7, #60]	; 0x3c
    240a:	6a7b      	ldr	r3, [r7, #36]	; 0x24
    240c:	88db      	ldrh	r3, [r3, #6]
    240e:	461a      	mov	r2, r3
    2410:	6a7b      	ldr	r3, [r7, #36]	; 0x24
    2412:	795b      	ldrb	r3, [r3, #5]
    2414:	fb02 f303 	mul.w	r3, r2, r3
    2418:	3b04      	subs	r3, #4
    241a:	623b      	str	r3, [r7, #32]
    241c:	6a7b      	ldr	r3, [r7, #36]	; 0x24
    241e:	88db      	ldrh	r3, [r3, #6]
    2420:	61fb      	str	r3, [r7, #28]
    2422:	683b      	ldr	r3, [r7, #0]
    2424:	1d1a      	adds	r2, r3, #4
    2426:	69fb      	ldr	r3, [r7, #28]
    2428:	fbb2 f3f3 	udiv	r3, r2, r3
    242c:	63bb      	str	r3, [r7, #56]	; 0x38
    242e:	683b      	ldr	r3, [r7, #0]
    2430:	3304      	adds	r3, #4
    2432:	69fa      	ldr	r2, [r7, #28]
    2434:	fbb3 f2f2 	udiv	r2, r3, r2
    2438:	69f9      	ldr	r1, [r7, #28]
    243a:	fb01 f202 	mul.w	r2, r1, r2
    243e:	1a9b      	subs	r3, r3, r2
    2440:	637b      	str	r3, [r7, #52]	; 0x34
    2442:	687b      	ldr	r3, [r7, #4]
    2444:	681a      	ldr	r2, [r3, #0]
    2446:	683b      	ldr	r3, [r7, #0]
    2448:	4413      	add	r3, r2
    244a:	6a3a      	ldr	r2, [r7, #32]
    244c:	429a      	cmp	r2, r3
    244e:	d203      	bcs.n	2458 <memobj_op+0x64>
    2450:	6a3a      	ldr	r2, [r7, #32]
    2452:	683b      	ldr	r3, [r7, #0]
    2454:	1ad3      	subs	r3, r2, r3
    2456:	e001      	b.n	245c <memobj_op+0x68>
    2458:	687b      	ldr	r3, [r7, #4]
    245a:	681b      	ldr	r3, [r3, #0]
    245c:	633b      	str	r3, [r7, #48]	; 0x30
    245e:	687b      	ldr	r3, [r7, #4]
    2460:	6b3a      	ldr	r2, [r7, #48]	; 0x30
    2462:	601a      	str	r2, [r3, #0]
    2464:	e005      	b.n	2472 <memobj_op+0x7e>
    2466:	6bfb      	ldr	r3, [r7, #60]	; 0x3c
    2468:	681b      	ldr	r3, [r3, #0]
    246a:	63fb      	str	r3, [r7, #60]	; 0x3c
    246c:	6bbb      	ldr	r3, [r7, #56]	; 0x38
    246e:	3b01      	subs	r3, #1
    2470:	63bb      	str	r3, [r7, #56]	; 0x38
    2472:	6bbb      	ldr	r3, [r7, #56]	; 0x38
    2474:	2b00      	cmp	r3, #0
    2476:	d1f6      	bne.n	2466 <memobj_op+0x72>
    2478:	2300      	movs	r3, #0
    247a:	62fb      	str	r3, [r7, #44]	; 0x2c
    247c:	69fa      	ldr	r2, [r7, #28]
    247e:	6b7b      	ldr	r3, [r7, #52]	; 0x34
    2480:	1ad3      	subs	r3, r2, r3
    2482:	62bb      	str	r3, [r7, #40]	; 0x28
    2484:	6aba      	ldr	r2, [r7, #40]	; 0x28
    2486:	6b3b      	ldr	r3, [r7, #48]	; 0x30
    2488:	4293      	cmp	r3, r2
    248a:	bf28      	it	cs
    248c:	4613      	movcs	r3, r2
    248e:	62bb      	str	r3, [r7, #40]	; 0x28
    2490:	e02a      	b.n	24e8 <memobj_op+0xf4>
    2492:	68ba      	ldr	r2, [r7, #8]
    2494:	6afb      	ldr	r3, [r7, #44]	; 0x2c
    2496:	4413      	add	r3, r2
    2498:	61bb      	str	r3, [r7, #24]
    249a:	6bfa      	ldr	r2, [r7, #60]	; 0x3c
    249c:	6b7b      	ldr	r3, [r7, #52]	; 0x34
    249e:	4413      	add	r3, r2
    24a0:	3304      	adds	r3, #4
    24a2:	617b      	str	r3, [r7, #20]
    24a4:	f897 3048 	ldrb.w	r3, [r7, #72]	; 0x48
    24a8:	2b00      	cmp	r3, #0
    24aa:	d005      	beq.n	24b8 <memobj_op+0xc4>
    24ac:	6aba      	ldr	r2, [r7, #40]	; 0x28
    24ae:	6979      	ldr	r1, [r7, #20]
    24b0:	69b8      	ldr	r0, [r7, #24]
    24b2:	f003 f9d7 	bl	5864 <memcpy>
    24b6:	e004      	b.n	24c2 <memobj_op+0xce>
    24b8:	6aba      	ldr	r2, [r7, #40]	; 0x28
    24ba:	69b9      	ldr	r1, [r7, #24]
    24bc:	6978      	ldr	r0, [r7, #20]
    24be:	f003 f9d1 	bl	5864 <memcpy>
    24c2:	2300      	movs	r3, #0
    24c4:	637b      	str	r3, [r7, #52]	; 0x34
    24c6:	6bfb      	ldr	r3, [r7, #60]	; 0x3c
    24c8:	681b      	ldr	r3, [r3, #0]
    24ca:	63fb      	str	r3, [r7, #60]	; 0x3c
    24cc:	6b3a      	ldr	r2, [r7, #48]	; 0x30
    24ce:	6abb      	ldr	r3, [r7, #40]	; 0x28
    24d0:	1ad3      	subs	r3, r2, r3
    24d2:	633b      	str	r3, [r7, #48]	; 0x30
    24d4:	6afa      	ldr	r2, [r7, #44]	; 0x2c
    24d6:	6abb      	ldr	r3, [r7, #40]	; 0x28
    24d8:	4413      	add	r3, r2
    24da:	62fb      	str	r3, [r7, #44]	; 0x2c
    24dc:	69fa      	ldr	r2, [r7, #28]
    24de:	6b3b      	ldr	r3, [r7, #48]	; 0x30
    24e0:	4293      	cmp	r3, r2
    24e2:	bf28      	it	cs
    24e4:	4613      	movcs	r3, r2
    24e6:	62bb      	str	r3, [r7, #40]	; 0x28
    24e8:	6b3b      	ldr	r3, [r7, #48]	; 0x30
    24ea:	2b00      	cmp	r3, #0
    24ec:	d1d1      	bne.n	2492 <memobj_op+0x9e>
    24ee:	bf00      	nop
    24f0:	bf00      	nop
    24f2:	3740      	adds	r7, #64	; 0x40
    24f4:	46bd      	mov	sp, r7
    24f6:	bd80      	pop	{r7, pc}

000024f8 <nrf_memobj_write>:
    24f8:	b580      	push	{r7, lr}
    24fa:	b088      	sub	sp, #32
    24fc:	af02      	add	r7, sp, #8
    24fe:	60f8      	str	r0, [r7, #12]
    2500:	60b9      	str	r1, [r7, #8]
    2502:	607a      	str	r2, [r7, #4]
    2504:	603b      	str	r3, [r7, #0]
    2506:	687b      	ldr	r3, [r7, #4]
    2508:	617b      	str	r3, [r7, #20]
    250a:	f107 0214 	add.w	r2, r7, #20
    250e:	2300      	movs	r3, #0
    2510:	9300      	str	r3, [sp, #0]
    2512:	683b      	ldr	r3, [r7, #0]
    2514:	68b9      	ldr	r1, [r7, #8]
    2516:	68f8      	ldr	r0, [r7, #12]
    2518:	f7ff ff6c 	bl	23f4 <memobj_op>
    251c:	bf00      	nop
    251e:	3718      	adds	r7, #24
    2520:	46bd      	mov	sp, r7
    2522:	bd80      	pop	{r7, pc}

00002524 <nrf_memobj_read>:
    2524:	b580      	push	{r7, lr}
    2526:	b088      	sub	sp, #32
    2528:	af02      	add	r7, sp, #8
    252a:	60f8      	str	r0, [r7, #12]
    252c:	60b9      	str	r1, [r7, #8]
    252e:	607a      	str	r2, [r7, #4]
    2530:	603b      	str	r3, [r7, #0]
    2532:	687b      	ldr	r3, [r7, #4]
    2534:	617b      	str	r3, [r7, #20]
    2536:	f107 0214 	add.w	r2, r7, #20
    253a:	2301      	movs	r3, #1
    253c:	9300      	str	r3, [sp, #0]
    253e:	683b      	ldr	r3, [r7, #0]
    2540:	68b9      	ldr	r1, [r7, #8]
    2542:	68f8      	ldr	r0, [r7, #12]
    2544:	f7ff ff56 	bl	23f4 <memobj_op>
    2548:	bf00      	nop
    254a:	3718      	adds	r7, #24
    254c:	46bd      	mov	sp, r7
    254e:	bd80      	pop	{r7, pc}

00002550 <nrf_ringbuf_init>:
    2550:	b480      	push	{r7}
    2552:	b083      	sub	sp, #12
    2554:	af00      	add	r7, sp, #0
    2556:	6078      	str	r0, [r7, #4]
    2558:	687b      	ldr	r3, [r7, #4]
    255a:	689b      	ldr	r3, [r3, #8]
    255c:	2200      	movs	r2, #0
    255e:	609a      	str	r2, [r3, #8]
    2560:	687b      	ldr	r3, [r7, #4]
    2562:	689b      	ldr	r3, [r3, #8]
    2564:	2200      	movs	r2, #0
    2566:	611a      	str	r2, [r3, #16]
    2568:	687b      	ldr	r3, [r7, #4]
    256a:	689b      	ldr	r3, [r3, #8]
    256c:	2200      	movs	r2, #0
    256e:	615a      	str	r2, [r3, #20]
    2570:	687b      	ldr	r3, [r7, #4]
    2572:	689b      	ldr	r3, [r3, #8]
    2574:	2200      	movs	r2, #0
    2576:	60da      	str	r2, [r3, #12]
    2578:	687b      	ldr	r3, [r7, #4]
    257a:	689b      	ldr	r3, [r3, #8]
    257c:	2200      	movs	r2, #0
    257e:	605a      	str	r2, [r3, #4]
    2580:	687b      	ldr	r3, [r7, #4]
    2582:	689b      	ldr	r3, [r3, #8]
    2584:	2200      	movs	r2, #0
    2586:	601a      	str	r2, [r3, #0]
    2588:	bf00      	nop
    258a:	370c      	adds	r7, #12
    258c:	46bd      	mov	sp, r7
    258e:	f85d 7b04 	ldr.w	r7, [sp], #4
    2592:	4770      	bx	lr

00002594 <uarte_evt_handler>:
    2594:	b580      	push	{r7, lr}
    2596:	b088      	sub	sp, #32
    2598:	af00      	add	r7, sp, #0
    259a:	6078      	str	r0, [r7, #4]
    259c:	6039      	str	r1, [r7, #0]
    259e:	683b      	ldr	r3, [r7, #0]
    25a0:	61fb      	str	r3, [r7, #28]
    25a2:	687b      	ldr	r3, [r7, #4]
    25a4:	781b      	ldrb	r3, [r3, #0]
    25a6:	733b      	strb	r3, [r7, #12]
    25a8:	687b      	ldr	r3, [r7, #4]
    25aa:	685b      	ldr	r3, [r3, #4]
    25ac:	613b      	str	r3, [r7, #16]
    25ae:	687b      	ldr	r3, [r7, #4]
    25b0:	689b      	ldr	r3, [r3, #8]
    25b2:	b2db      	uxtb	r3, r3
    25b4:	753b      	strb	r3, [r7, #20]
    25b6:	687b      	ldr	r3, [r7, #4]
    25b8:	68db      	ldr	r3, [r3, #12]
    25ba:	61bb      	str	r3, [r7, #24]
    25bc:	4a07      	ldr	r2, [pc, #28]	; (25dc <uarte_evt_handler+0x48>)
    25be:	69fb      	ldr	r3, [r7, #28]
    25c0:	f852 3023 	ldr.w	r3, [r2, r3, lsl #2]
    25c4:	4906      	ldr	r1, [pc, #24]	; (25e0 <uarte_evt_handler+0x4c>)
    25c6:	69fa      	ldr	r2, [r7, #28]
    25c8:	f851 1022 	ldr.w	r1, [r1, r2, lsl #2]
    25cc:	f107 020c 	add.w	r2, r7, #12
    25d0:	4610      	mov	r0, r2
    25d2:	4798      	blx	r3
    25d4:	bf00      	nop
    25d6:	3720      	adds	r7, #32
    25d8:	46bd      	mov	sp, r7
    25da:	bd80      	pop	{r7, pc}
    25dc:	20000674 	.word	0x20000674
    25e0:	20000678 	.word	0x20000678

000025e4 <uart_evt_handler>:
    25e4:	b580      	push	{r7, lr}
    25e6:	b088      	sub	sp, #32
    25e8:	af00      	add	r7, sp, #0
    25ea:	6078      	str	r0, [r7, #4]
    25ec:	6039      	str	r1, [r7, #0]
    25ee:	683b      	ldr	r3, [r7, #0]
    25f0:	61fb      	str	r3, [r7, #28]
    25f2:	687b      	ldr	r3, [r7, #4]
    25f4:	781b      	ldrb	r3, [r3, #0]
    25f6:	733b      	strb	r3, [r7, #12]
    25f8:	687b      	ldr	r3, [r7, #4]
    25fa:	685b      	ldr	r3, [r3, #4]
    25fc:	613b      	str	r3, [r7, #16]
    25fe:	687b      	ldr	r3, [r7, #4]
    2600:	689b      	ldr	r3, [r3, #8]
    2602:	b2db      	uxtb	r3, r3
    2604:	753b      	strb	r3, [r7, #20]
    2606:	687b      	ldr	r3, [r7, #4]
    2608:	68db      	ldr	r3, [r3, #12]
    260a:	61bb      	str	r3, [r7, #24]
    260c:	4a07      	ldr	r2, [pc, #28]	; (262c <uart_evt_handler+0x48>)
    260e:	69fb      	ldr	r3, [r7, #28]
    2610:	f852 3023 	ldr.w	r3, [r2, r3, lsl #2]
    2614:	4906      	ldr	r1, [pc, #24]	; (2630 <uart_evt_handler+0x4c>)
    2616:	69fa      	ldr	r2, [r7, #28]
    2618:	f851 1022 	ldr.w	r1, [r1, r2, lsl #2]
    261c:	f107 020c 	add.w	r2, r7, #12
    2620:	4610      	mov	r0, r2
    2622:	4798      	blx	r3
    2624:	bf00      	nop
    2626:	3720      	adds	r7, #32
    2628:	46bd      	mov	sp, r7
    262a:	bd80      	pop	{r7, pc}
    262c:	20000674 	.word	0x20000674
    2630:	20000678 	.word	0x20000678

00002634 <nrf_drv_uart_init>:
    2634:	b5b0      	push	{r4, r5, r7, lr}
    2636:	b08e      	sub	sp, #56	; 0x38
    2638:	af00      	add	r7, sp, #0
    263a:	60f8      	str	r0, [r7, #12]
    263c:	60b9      	str	r1, [r7, #8]
    263e:	607a      	str	r2, [r7, #4]
    2640:	68fb      	ldr	r3, [r7, #12]
    2642:	781b      	ldrb	r3, [r3, #0]
    2644:	633b      	str	r3, [r7, #48]	; 0x30
    2646:	4929      	ldr	r1, [pc, #164]	; (26ec <nrf_drv_uart_init+0xb8>)
    2648:	6b3b      	ldr	r3, [r7, #48]	; 0x30
    264a:	687a      	ldr	r2, [r7, #4]
    264c:	f841 2023 	str.w	r2, [r1, r3, lsl #2]
    2650:	68bb      	ldr	r3, [r7, #8]
    2652:	691a      	ldr	r2, [r3, #16]
    2654:	4926      	ldr	r1, [pc, #152]	; (26f0 <nrf_drv_uart_init+0xbc>)
    2656:	6b3b      	ldr	r3, [r7, #48]	; 0x30
    2658:	f841 2023 	str.w	r2, [r1, r3, lsl #2]
    265c:	68bb      	ldr	r3, [r7, #8]
    265e:	7f5b      	ldrb	r3, [r3, #29]
    2660:	4619      	mov	r1, r3
    2662:	4a24      	ldr	r2, [pc, #144]	; (26f4 <nrf_drv_uart_init+0xc0>)
    2664:	6b3b      	ldr	r3, [r7, #48]	; 0x30
    2666:	4413      	add	r3, r2
    2668:	460a      	mov	r2, r1
    266a:	701a      	strb	r2, [r3, #0]
    266c:	68bb      	ldr	r3, [r7, #8]
    266e:	f107 0410 	add.w	r4, r7, #16
    2672:	461d      	mov	r5, r3
    2674:	cd0f      	ldmia	r5!, {r0, r1, r2, r3}
    2676:	c40f      	stmia	r4!, {r0, r1, r2, r3}
    2678:	e895 000f 	ldmia.w	r5, {r0, r1, r2, r3}
    267c:	e884 000f 	stmia.w	r4, {r0, r1, r2, r3}
    2680:	6b3b      	ldr	r3, [r7, #48]	; 0x30
    2682:	623b      	str	r3, [r7, #32]
    2684:	2300      	movs	r3, #0
    2686:	637b      	str	r3, [r7, #52]	; 0x34
    2688:	68fb      	ldr	r3, [r7, #12]
    268a:	781b      	ldrb	r3, [r3, #0]
    268c:	461a      	mov	r2, r3
    268e:	4b19      	ldr	r3, [pc, #100]	; (26f4 <nrf_drv_uart_init+0xc0>)
    2690:	5c9b      	ldrb	r3, [r3, r2]
    2692:	2b00      	cmp	r3, #0
    2694:	d00e      	beq.n	26b4 <nrf_drv_uart_init+0x80>
    2696:	68fb      	ldr	r3, [r7, #12]
    2698:	1d18      	adds	r0, r3, #4
    269a:	687b      	ldr	r3, [r7, #4]
    269c:	2b00      	cmp	r3, #0
    269e:	d001      	beq.n	26a4 <nrf_drv_uart_init+0x70>
    26a0:	4a15      	ldr	r2, [pc, #84]	; (26f8 <nrf_drv_uart_init+0xc4>)
    26a2:	e000      	b.n	26a6 <nrf_drv_uart_init+0x72>
    26a4:	2200      	movs	r2, #0
    26a6:	f107 0310 	add.w	r3, r7, #16
    26aa:	4619      	mov	r1, r3
    26ac:	f001 ff7a 	bl	45a4 <nrfx_uarte_init>
    26b0:	6378      	str	r0, [r7, #52]	; 0x34
    26b2:	e015      	b.n	26e0 <nrf_drv_uart_init+0xac>
    26b4:	68fb      	ldr	r3, [r7, #12]
    26b6:	781b      	ldrb	r3, [r3, #0]
    26b8:	461a      	mov	r2, r3
    26ba:	4b0e      	ldr	r3, [pc, #56]	; (26f4 <nrf_drv_uart_init+0xc0>)
    26bc:	5c9b      	ldrb	r3, [r3, r2]
    26be:	2b00      	cmp	r3, #0
    26c0:	d10e      	bne.n	26e0 <nrf_drv_uart_init+0xac>
    26c2:	68fb      	ldr	r3, [r7, #12]
    26c4:	f103 000c 	add.w	r0, r3, #12
    26c8:	687b      	ldr	r3, [r7, #4]
    26ca:	2b00      	cmp	r3, #0
    26cc:	d001      	beq.n	26d2 <nrf_drv_uart_init+0x9e>
    26ce:	4a0b      	ldr	r2, [pc, #44]	; (26fc <nrf_drv_uart_init+0xc8>)
    26d0:	e000      	b.n	26d4 <nrf_drv_uart_init+0xa0>
    26d2:	2200      	movs	r2, #0
    26d4:	f107 0310 	add.w	r3, r7, #16
    26d8:	4619      	mov	r1, r3
    26da:	f001 f8e3 	bl	38a4 <nrfx_uart_init>
    26de:	6378      	str	r0, [r7, #52]	; 0x34
    26e0:	6b7b      	ldr	r3, [r7, #52]	; 0x34
    26e2:	4618      	mov	r0, r3
    26e4:	3738      	adds	r7, #56	; 0x38
    26e6:	46bd      	mov	sp, r7
    26e8:	bdb0      	pop	{r4, r5, r7, pc}
    26ea:	bf00      	nop
    26ec:	20000674 	.word	0x20000674
    26f0:	20000678 	.word	0x20000678
    26f4:	2000067c 	.word	0x2000067c
    26f8:	00002595 	.word	0x00002595
    26fc:	000025e5 	.word	0x000025e5

00002700 <__NVIC_EnableIRQ>:
    2700:	b480      	push	{r7}
    2702:	b083      	sub	sp, #12
    2704:	af00      	add	r7, sp, #0
    2706:	4603      	mov	r3, r0
    2708:	71fb      	strb	r3, [r7, #7]
    270a:	f997 3007 	ldrsb.w	r3, [r7, #7]
    270e:	2b00      	cmp	r3, #0
    2710:	db0b      	blt.n	272a <__NVIC_EnableIRQ+0x2a>
    2712:	79fb      	ldrb	r3, [r7, #7]
    2714:	f003 021f 	and.w	r2, r3, #31
    2718:	4907      	ldr	r1, [pc, #28]	; (2738 <__NVIC_EnableIRQ+0x38>)
    271a:	f997 3007 	ldrsb.w	r3, [r7, #7]
    271e:	095b      	lsrs	r3, r3, #5
    2720:	2001      	movs	r0, #1
    2722:	fa00 f202 	lsl.w	r2, r0, r2
    2726:	f841 2023 	str.w	r2, [r1, r3, lsl #2]
    272a:	bf00      	nop
    272c:	370c      	adds	r7, #12
    272e:	46bd      	mov	sp, r7
    2730:	f85d 7b04 	ldr.w	r7, [sp], #4
    2734:	4770      	bx	lr
    2736:	bf00      	nop
    2738:	e000e100 	.word	0xe000e100

0000273c <__NVIC_SetPriority>:
    273c:	b480      	push	{r7}
    273e:	b083      	sub	sp, #12
    2740:	af00      	add	r7, sp, #0
    2742:	4603      	mov	r3, r0
    2744:	6039      	str	r1, [r7, #0]
    2746:	71fb      	strb	r3, [r7, #7]
    2748:	f997 3007 	ldrsb.w	r3, [r7, #7]
    274c:	2b00      	cmp	r3, #0
    274e:	db0a      	blt.n	2766 <__NVIC_SetPriority+0x2a>
    2750:	683b      	ldr	r3, [r7, #0]
    2752:	b2da      	uxtb	r2, r3
    2754:	490c      	ldr	r1, [pc, #48]	; (2788 <__NVIC_SetPriority+0x4c>)
    2756:	f997 3007 	ldrsb.w	r3, [r7, #7]
    275a:	0152      	lsls	r2, r2, #5
    275c:	b2d2      	uxtb	r2, r2
    275e:	440b      	add	r3, r1
    2760:	f883 2300 	strb.w	r2, [r3, #768]	; 0x300
    2764:	e00a      	b.n	277c <__NVIC_SetPriority+0x40>
    2766:	683b      	ldr	r3, [r7, #0]
    2768:	b2da      	uxtb	r2, r3
    276a:	4908      	ldr	r1, [pc, #32]	; (278c <__NVIC_SetPriority+0x50>)
    276c:	79fb      	ldrb	r3, [r7, #7]
    276e:	f003 030f 	and.w	r3, r3, #15
    2772:	3b04      	subs	r3, #4
    2774:	0152      	lsls	r2, r2, #5
    2776:	b2d2      	uxtb	r2, r2
    2778:	440b      	add	r3, r1
    277a:	761a      	strb	r2, [r3, #24]
    277c:	bf00      	nop
    277e:	370c      	adds	r7, #12
    2780:	46bd      	mov	sp, r7
    2782:	f85d 7b04 	ldr.w	r7, [sp], #4
    2786:	4770      	bx	lr
    2788:	e000e100 	.word	0xe000e100
    278c:	e000ed00 	.word	0xe000ed00

00002790 <nrfx_is_in_ram>:
    2790:	b480      	push	{r7}
    2792:	b083      	sub	sp, #12
    2794:	af00      	add	r7, sp, #0
    2796:	6078      	str	r0, [r7, #4]
    2798:	687b      	ldr	r3, [r7, #4]
    279a:	f003 4360 	and.w	r3, r3, #3758096384	; 0xe0000000
    279e:	f1b3 5f00 	cmp.w	r3, #536870912	; 0x20000000
    27a2:	bf0c      	ite	eq
    27a4:	2301      	moveq	r3, #1
    27a6:	2300      	movne	r3, #0
    27a8:	b2db      	uxtb	r3, r3
    27aa:	4618      	mov	r0, r3
    27ac:	370c      	adds	r7, #12
    27ae:	46bd      	mov	sp, r7
    27b0:	f85d 7b04 	ldr.w	r7, [sp], #4
    27b4:	4770      	bx	lr

000027b6 <_NRFX_IRQ_PRIORITY_SET>:
    27b6:	b580      	push	{r7, lr}
    27b8:	b082      	sub	sp, #8
    27ba:	af00      	add	r7, sp, #0
    27bc:	4603      	mov	r3, r0
    27be:	460a      	mov	r2, r1
    27c0:	71fb      	strb	r3, [r7, #7]
    27c2:	4613      	mov	r3, r2
    27c4:	71bb      	strb	r3, [r7, #6]
    27c6:	79ba      	ldrb	r2, [r7, #6]
    27c8:	f997 3007 	ldrsb.w	r3, [r7, #7]
    27cc:	4611      	mov	r1, r2
    27ce:	4618      	mov	r0, r3
    27d0:	f7ff ffb4 	bl	273c <__NVIC_SetPriority>
    27d4:	bf00      	nop
    27d6:	3708      	adds	r7, #8
    27d8:	46bd      	mov	sp, r7
    27da:	bd80      	pop	{r7, pc}

000027dc <_NRFX_IRQ_ENABLE>:
    27dc:	b580      	push	{r7, lr}
    27de:	b082      	sub	sp, #8
    27e0:	af00      	add	r7, sp, #0
    27e2:	4603      	mov	r3, r0
    27e4:	71fb      	strb	r3, [r7, #7]
    27e6:	f997 3007 	ldrsb.w	r3, [r7, #7]
    27ea:	4618      	mov	r0, r3
    27ec:	f7ff ff88 	bl	2700 <__NVIC_EnableIRQ>
    27f0:	bf00      	nop
    27f2:	3708      	adds	r7, #8
    27f4:	46bd      	mov	sp, r7
    27f6:	bd80      	pop	{r7, pc}

000027f8 <nrf_i2s_task_trigger>:
    27f8:	b480      	push	{r7}
    27fa:	b083      	sub	sp, #12
    27fc:	af00      	add	r7, sp, #0
    27fe:	6078      	str	r0, [r7, #4]
    2800:	460b      	mov	r3, r1
    2802:	70fb      	strb	r3, [r7, #3]
    2804:	78fb      	ldrb	r3, [r7, #3]
    2806:	687a      	ldr	r2, [r7, #4]
    2808:	4413      	add	r3, r2
    280a:	2201      	movs	r2, #1
    280c:	601a      	str	r2, [r3, #0]
    280e:	bf00      	nop
    2810:	370c      	adds	r7, #12
    2812:	46bd      	mov	sp, r7
    2814:	f85d 7b04 	ldr.w	r7, [sp], #4
    2818:	4770      	bx	lr

0000281a <nrf_i2s_event_clear>:
    281a:	b480      	push	{r7}
    281c:	b085      	sub	sp, #20
    281e:	af00      	add	r7, sp, #0
    2820:	6078      	str	r0, [r7, #4]
    2822:	460b      	mov	r3, r1
    2824:	807b      	strh	r3, [r7, #2]
    2826:	887b      	ldrh	r3, [r7, #2]
    2828:	687a      	ldr	r2, [r7, #4]
    282a:	4413      	add	r3, r2
    282c:	2200      	movs	r2, #0
    282e:	601a      	str	r2, [r3, #0]
    2830:	887b      	ldrh	r3, [r7, #2]
    2832:	687a      	ldr	r2, [r7, #4]
    2834:	4413      	add	r3, r2
    2836:	681b      	ldr	r3, [r3, #0]
    2838:	60fb      	str	r3, [r7, #12]
    283a:	68fb      	ldr	r3, [r7, #12]
    283c:	bf00      	nop
    283e:	3714      	adds	r7, #20
    2840:	46bd      	mov	sp, r7
    2842:	f85d 7b04 	ldr.w	r7, [sp], #4
    2846:	4770      	bx	lr

00002848 <nrf_i2s_event_check>:
    2848:	b480      	push	{r7}
    284a:	b083      	sub	sp, #12
    284c:	af00      	add	r7, sp, #0
    284e:	6078      	str	r0, [r7, #4]
    2850:	460b      	mov	r3, r1
    2852:	807b      	strh	r3, [r7, #2]
    2854:	887b      	ldrh	r3, [r7, #2]
    2856:	687a      	ldr	r2, [r7, #4]
    2858:	4413      	add	r3, r2
    285a:	681b      	ldr	r3, [r3, #0]
    285c:	2b00      	cmp	r3, #0
    285e:	bf14      	ite	ne
    2860:	2301      	movne	r3, #1
    2862:	2300      	moveq	r3, #0
    2864:	b2db      	uxtb	r3, r3
    2866:	4618      	mov	r0, r3
    2868:	370c      	adds	r7, #12
    286a:	46bd      	mov	sp, r7
    286c:	f85d 7b04 	ldr.w	r7, [sp], #4
    2870:	4770      	bx	lr

00002872 <nrf_i2s_int_enable>:
    2872:	b480      	push	{r7}
    2874:	b083      	sub	sp, #12
    2876:	af00      	add	r7, sp, #0
    2878:	6078      	str	r0, [r7, #4]
    287a:	6039      	str	r1, [r7, #0]
    287c:	687b      	ldr	r3, [r7, #4]
    287e:	683a      	ldr	r2, [r7, #0]
    2880:	f8c3 2304 	str.w	r2, [r3, #772]	; 0x304
    2884:	bf00      	nop
    2886:	370c      	adds	r7, #12
    2888:	46bd      	mov	sp, r7
    288a:	f85d 7b04 	ldr.w	r7, [sp], #4
    288e:	4770      	bx	lr

00002890 <nrf_i2s_int_disable>:
    2890:	b480      	push	{r7}
    2892:	b083      	sub	sp, #12
    2894:	af00      	add	r7, sp, #0
    2896:	6078      	str	r0, [r7, #4]
    2898:	6039      	str	r1, [r7, #0]
    289a:	687b      	ldr	r3, [r7, #4]
    289c:	683a      	ldr	r2, [r7, #0]
    289e:	f8c3 2308 	str.w	r2, [r3, #776]	; 0x308
    28a2:	bf00      	nop
    28a4:	370c      	adds	r7, #12
    28a6:	46bd      	mov	sp, r7
    28a8:	f85d 7b04 	ldr.w	r7, [sp], #4
    28ac:	4770      	bx	lr

000028ae <nrf_i2s_enable>:
    28ae:	b480      	push	{r7}
    28b0:	b083      	sub	sp, #12
    28b2:	af00      	add	r7, sp, #0
    28b4:	6078      	str	r0, [r7, #4]
    28b6:	687b      	ldr	r3, [r7, #4]
    28b8:	2201      	movs	r2, #1
    28ba:	f8c3 2500 	str.w	r2, [r3, #1280]	; 0x500
    28be:	bf00      	nop
    28c0:	370c      	adds	r7, #12
    28c2:	46bd      	mov	sp, r7
    28c4:	f85d 7b04 	ldr.w	r7, [sp], #4
    28c8:	4770      	bx	lr

000028ca <nrf_i2s_disable>:
    28ca:	b480      	push	{r7}
    28cc:	b083      	sub	sp, #12
    28ce:	af00      	add	r7, sp, #0
    28d0:	6078      	str	r0, [r7, #4]
    28d2:	687b      	ldr	r3, [r7, #4]
    28d4:	2200      	movs	r2, #0
    28d6:	f8c3 2500 	str.w	r2, [r3, #1280]	; 0x500
    28da:	bf00      	nop
    28dc:	370c      	adds	r7, #12
    28de:	46bd      	mov	sp, r7
    28e0:	f85d 7b04 	ldr.w	r7, [sp], #4
    28e4:	4770      	bx	lr

000028e6 <nrf_i2s_pins_set>:
    28e6:	b480      	push	{r7}
    28e8:	b085      	sub	sp, #20
    28ea:	af00      	add	r7, sp, #0
    28ec:	60f8      	str	r0, [r7, #12]
    28ee:	60b9      	str	r1, [r7, #8]
    28f0:	607a      	str	r2, [r7, #4]
    28f2:	603b      	str	r3, [r7, #0]
    28f4:	68fb      	ldr	r3, [r7, #12]
    28f6:	68ba      	ldr	r2, [r7, #8]
    28f8:	f8c3 2564 	str.w	r2, [r3, #1380]	; 0x564
    28fc:	68fb      	ldr	r3, [r7, #12]
    28fe:	687a      	ldr	r2, [r7, #4]
    2900:	f8c3 2568 	str.w	r2, [r3, #1384]	; 0x568
    2904:	68fb      	ldr	r3, [r7, #12]
    2906:	683a      	ldr	r2, [r7, #0]
    2908:	f8c3 2560 	str.w	r2, [r3, #1376]	; 0x560
    290c:	68fb      	ldr	r3, [r7, #12]
    290e:	69ba      	ldr	r2, [r7, #24]
    2910:	f8c3 2570 	str.w	r2, [r3, #1392]	; 0x570
    2914:	68fb      	ldr	r3, [r7, #12]
    2916:	69fa      	ldr	r2, [r7, #28]
    2918:	f8c3 256c 	str.w	r2, [r3, #1388]	; 0x56c
    291c:	bf00      	nop
    291e:	3714      	adds	r7, #20
    2920:	46bd      	mov	sp, r7
    2922:	f85d 7b04 	ldr.w	r7, [sp], #4
    2926:	4770      	bx	lr

00002928 <nrf_i2s_configure>:
    2928:	b480      	push	{r7}
    292a:	b083      	sub	sp, #12
    292c:	af00      	add	r7, sp, #0
    292e:	6078      	str	r0, [r7, #4]
    2930:	4608      	mov	r0, r1
    2932:	4611      	mov	r1, r2
    2934:	461a      	mov	r2, r3
    2936:	4603      	mov	r3, r0
    2938:	70fb      	strb	r3, [r7, #3]
    293a:	460b      	mov	r3, r1
    293c:	70bb      	strb	r3, [r7, #2]
    293e:	4613      	mov	r3, r2
    2940:	707b      	strb	r3, [r7, #1]
    2942:	78fb      	ldrb	r3, [r7, #3]
    2944:	2b00      	cmp	r3, #0
    2946:	d119      	bne.n	297c <nrf_i2s_configure+0x54>
    2948:	7c3b      	ldrb	r3, [r7, #16]
    294a:	2b01      	cmp	r3, #1
    294c:	d102      	bne.n	2954 <nrf_i2s_configure+0x2c>
    294e:	7f3b      	ldrb	r3, [r7, #28]
    2950:	2b01      	cmp	r3, #1
    2952:	d011      	beq.n	2978 <nrf_i2s_configure+0x50>
    2954:	7c3b      	ldrb	r3, [r7, #16]
    2956:	2b02      	cmp	r3, #2
    2958:	d110      	bne.n	297c <nrf_i2s_configure+0x54>
    295a:	7f3b      	ldrb	r3, [r7, #28]
    295c:	2b00      	cmp	r3, #0
    295e:	d00b      	beq.n	2978 <nrf_i2s_configure+0x50>
    2960:	7f3b      	ldrb	r3, [r7, #28]
    2962:	2b02      	cmp	r3, #2
    2964:	d008      	beq.n	2978 <nrf_i2s_configure+0x50>
    2966:	7f3b      	ldrb	r3, [r7, #28]
    2968:	2b04      	cmp	r3, #4
    296a:	d005      	beq.n	2978 <nrf_i2s_configure+0x50>
    296c:	7f3b      	ldrb	r3, [r7, #28]
    296e:	2b06      	cmp	r3, #6
    2970:	d002      	beq.n	2978 <nrf_i2s_configure+0x50>
    2972:	7f3b      	ldrb	r3, [r7, #28]
    2974:	2b08      	cmp	r3, #8
    2976:	d101      	bne.n	297c <nrf_i2s_configure+0x54>
    2978:	2300      	movs	r3, #0
    297a:	e028      	b.n	29ce <nrf_i2s_configure+0xa6>
    297c:	78fa      	ldrb	r2, [r7, #3]
    297e:	687b      	ldr	r3, [r7, #4]
    2980:	f8c3 2504 	str.w	r2, [r3, #1284]	; 0x504
    2984:	78ba      	ldrb	r2, [r7, #2]
    2986:	687b      	ldr	r3, [r7, #4]
    2988:	f8c3 2524 	str.w	r2, [r3, #1316]	; 0x524
    298c:	787a      	ldrb	r2, [r7, #1]
    298e:	687b      	ldr	r3, [r7, #4]
    2990:	f8c3 2520 	str.w	r2, [r3, #1312]	; 0x520
    2994:	7c3a      	ldrb	r2, [r7, #16]
    2996:	687b      	ldr	r3, [r7, #4]
    2998:	f8c3 251c 	str.w	r2, [r3, #1308]	; 0x51c
    299c:	7d3a      	ldrb	r2, [r7, #20]
    299e:	687b      	ldr	r3, [r7, #4]
    29a0:	f8c3 2528 	str.w	r2, [r3, #1320]	; 0x528
    29a4:	7f3a      	ldrb	r2, [r7, #28]
    29a6:	687b      	ldr	r3, [r7, #4]
    29a8:	f8c3 2518 	str.w	r2, [r3, #1304]	; 0x518
    29ac:	69bb      	ldr	r3, [r7, #24]
    29ae:	2b00      	cmp	r3, #0
    29b0:	d104      	bne.n	29bc <nrf_i2s_configure+0x94>
    29b2:	687b      	ldr	r3, [r7, #4]
    29b4:	2200      	movs	r2, #0
    29b6:	f8c3 2510 	str.w	r2, [r3, #1296]	; 0x510
    29ba:	e007      	b.n	29cc <nrf_i2s_configure+0xa4>
    29bc:	69ba      	ldr	r2, [r7, #24]
    29be:	687b      	ldr	r3, [r7, #4]
    29c0:	f8c3 2514 	str.w	r2, [r3, #1300]	; 0x514
    29c4:	687b      	ldr	r3, [r7, #4]
    29c6:	2201      	movs	r2, #1
    29c8:	f8c3 2510 	str.w	r2, [r3, #1296]	; 0x510
    29cc:	2301      	movs	r3, #1
    29ce:	4618      	mov	r0, r3
    29d0:	370c      	adds	r7, #12
    29d2:	46bd      	mov	sp, r7
    29d4:	f85d 7b04 	ldr.w	r7, [sp], #4
    29d8:	4770      	bx	lr

000029da <nrf_i2s_transfer_set>:
    29da:	b580      	push	{r7, lr}
    29dc:	b084      	sub	sp, #16
    29de:	af00      	add	r7, sp, #0
    29e0:	60f8      	str	r0, [r7, #12]
    29e2:	607a      	str	r2, [r7, #4]
    29e4:	603b      	str	r3, [r7, #0]
    29e6:	460b      	mov	r3, r1
    29e8:	817b      	strh	r3, [r7, #10]
    29ea:	897a      	ldrh	r2, [r7, #10]
    29ec:	68fb      	ldr	r3, [r7, #12]
    29ee:	f8c3 2550 	str.w	r2, [r3, #1360]	; 0x550
    29f2:	6879      	ldr	r1, [r7, #4]
    29f4:	68f8      	ldr	r0, [r7, #12]
    29f6:	f000 f81c 	bl	2a32 <nrf_i2s_rx_buffer_set>
    29fa:	687b      	ldr	r3, [r7, #4]
    29fc:	2b00      	cmp	r3, #0
    29fe:	bf14      	ite	ne
    2a00:	2301      	movne	r3, #1
    2a02:	2300      	moveq	r3, #0
    2a04:	b2db      	uxtb	r3, r3
    2a06:	461a      	mov	r2, r3
    2a08:	68fb      	ldr	r3, [r7, #12]
    2a0a:	f8c3 2508 	str.w	r2, [r3, #1288]	; 0x508
    2a0e:	6839      	ldr	r1, [r7, #0]
    2a10:	68f8      	ldr	r0, [r7, #12]
    2a12:	f000 f81d 	bl	2a50 <nrf_i2s_tx_buffer_set>
    2a16:	683b      	ldr	r3, [r7, #0]
    2a18:	2b00      	cmp	r3, #0
    2a1a:	bf14      	ite	ne
    2a1c:	2301      	movne	r3, #1
    2a1e:	2300      	moveq	r3, #0
    2a20:	b2db      	uxtb	r3, r3
    2a22:	461a      	mov	r2, r3
    2a24:	68fb      	ldr	r3, [r7, #12]
    2a26:	f8c3 250c 	str.w	r2, [r3, #1292]	; 0x50c
    2a2a:	bf00      	nop
    2a2c:	3710      	adds	r7, #16
    2a2e:	46bd      	mov	sp, r7
    2a30:	bd80      	pop	{r7, pc}

00002a32 <nrf_i2s_rx_buffer_set>:
    2a32:	b480      	push	{r7}
    2a34:	b083      	sub	sp, #12
    2a36:	af00      	add	r7, sp, #0
    2a38:	6078      	str	r0, [r7, #4]
    2a3a:	6039      	str	r1, [r7, #0]
    2a3c:	683a      	ldr	r2, [r7, #0]
    2a3e:	687b      	ldr	r3, [r7, #4]
    2a40:	f8c3 2538 	str.w	r2, [r3, #1336]	; 0x538
    2a44:	bf00      	nop
    2a46:	370c      	adds	r7, #12
    2a48:	46bd      	mov	sp, r7
    2a4a:	f85d 7b04 	ldr.w	r7, [sp], #4
    2a4e:	4770      	bx	lr

00002a50 <nrf_i2s_tx_buffer_set>:
    2a50:	b480      	push	{r7}
    2a52:	b083      	sub	sp, #12
    2a54:	af00      	add	r7, sp, #0
    2a56:	6078      	str	r0, [r7, #4]
    2a58:	6039      	str	r1, [r7, #0]
    2a5a:	683a      	ldr	r2, [r7, #0]
    2a5c:	687b      	ldr	r3, [r7, #4]
    2a5e:	f8c3 2540 	str.w	r2, [r3, #1344]	; 0x540
    2a62:	bf00      	nop
    2a64:	370c      	adds	r7, #12
    2a66:	46bd      	mov	sp, r7
    2a68:	f85d 7b04 	ldr.w	r7, [sp], #4
    2a6c:	4770      	bx	lr

00002a6e <nrf_gpio_pin_port_decode>:
    2a6e:	b480      	push	{r7}
    2a70:	b083      	sub	sp, #12
    2a72:	af00      	add	r7, sp, #0
    2a74:	6078      	str	r0, [r7, #4]
    2a76:	f04f 43a0 	mov.w	r3, #1342177280	; 0x50000000
    2a7a:	4618      	mov	r0, r3
    2a7c:	370c      	adds	r7, #12
    2a7e:	46bd      	mov	sp, r7
    2a80:	f85d 7b04 	ldr.w	r7, [sp], #4
    2a84:	4770      	bx	lr

00002a86 <nrf_gpio_cfg>:
    2a86:	b580      	push	{r7, lr}
    2a88:	b084      	sub	sp, #16
    2a8a:	af00      	add	r7, sp, #0
    2a8c:	6078      	str	r0, [r7, #4]
    2a8e:	4608      	mov	r0, r1
    2a90:	4611      	mov	r1, r2
    2a92:	461a      	mov	r2, r3
    2a94:	4603      	mov	r3, r0
    2a96:	70fb      	strb	r3, [r7, #3]
    2a98:	460b      	mov	r3, r1
    2a9a:	70bb      	strb	r3, [r7, #2]
    2a9c:	4613      	mov	r3, r2
    2a9e:	707b      	strb	r3, [r7, #1]
    2aa0:	1d3b      	adds	r3, r7, #4
    2aa2:	4618      	mov	r0, r3
    2aa4:	f7ff ffe3 	bl	2a6e <nrf_gpio_pin_port_decode>
    2aa8:	60f8      	str	r0, [r7, #12]
    2aaa:	78fa      	ldrb	r2, [r7, #3]
    2aac:	78bb      	ldrb	r3, [r7, #2]
    2aae:	005b      	lsls	r3, r3, #1
    2ab0:	431a      	orrs	r2, r3
    2ab2:	787b      	ldrb	r3, [r7, #1]
    2ab4:	009b      	lsls	r3, r3, #2
    2ab6:	431a      	orrs	r2, r3
    2ab8:	7e3b      	ldrb	r3, [r7, #24]
    2aba:	021b      	lsls	r3, r3, #8
    2abc:	ea42 0103 	orr.w	r1, r2, r3
    2ac0:	7f3b      	ldrb	r3, [r7, #28]
    2ac2:	041b      	lsls	r3, r3, #16
    2ac4:	687a      	ldr	r2, [r7, #4]
    2ac6:	4319      	orrs	r1, r3
    2ac8:	68fb      	ldr	r3, [r7, #12]
    2aca:	f502 72e0 	add.w	r2, r2, #448	; 0x1c0
    2ace:	f843 1022 	str.w	r1, [r3, r2, lsl #2]
    2ad2:	bf00      	nop
    2ad4:	3710      	adds	r7, #16
    2ad6:	46bd      	mov	sp, r7
    2ad8:	bd80      	pop	{r7, pc}

00002ada <nrf_gpio_cfg_output>:
    2ada:	b580      	push	{r7, lr}
    2adc:	b084      	sub	sp, #16
    2ade:	af02      	add	r7, sp, #8
    2ae0:	6078      	str	r0, [r7, #4]
    2ae2:	2300      	movs	r3, #0
    2ae4:	9301      	str	r3, [sp, #4]
    2ae6:	2300      	movs	r3, #0
    2ae8:	9300      	str	r3, [sp, #0]
    2aea:	2300      	movs	r3, #0
    2aec:	2201      	movs	r2, #1
    2aee:	2101      	movs	r1, #1
    2af0:	6878      	ldr	r0, [r7, #4]
    2af2:	f7ff ffc8 	bl	2a86 <nrf_gpio_cfg>
    2af6:	bf00      	nop
    2af8:	3708      	adds	r7, #8
    2afa:	46bd      	mov	sp, r7
    2afc:	bd80      	pop	{r7, pc}

00002afe <nrf_gpio_cfg_input>:
    2afe:	b580      	push	{r7, lr}
    2b00:	b084      	sub	sp, #16
    2b02:	af02      	add	r7, sp, #8
    2b04:	6078      	str	r0, [r7, #4]
    2b06:	460b      	mov	r3, r1
    2b08:	70fb      	strb	r3, [r7, #3]
    2b0a:	78fb      	ldrb	r3, [r7, #3]
    2b0c:	2200      	movs	r2, #0
    2b0e:	9201      	str	r2, [sp, #4]
    2b10:	2200      	movs	r2, #0
    2b12:	9200      	str	r2, [sp, #0]
    2b14:	2200      	movs	r2, #0
    2b16:	2100      	movs	r1, #0
    2b18:	6878      	ldr	r0, [r7, #4]
    2b1a:	f7ff ffb4 	bl	2a86 <nrf_gpio_cfg>
    2b1e:	bf00      	nop
    2b20:	3708      	adds	r7, #8
    2b22:	46bd      	mov	sp, r7
    2b24:	bd80      	pop	{r7, pc}
	...

00002b28 <configure_pins>:
    2b28:	b580      	push	{r7, lr}
    2b2a:	b088      	sub	sp, #32
    2b2c:	af02      	add	r7, sp, #8
    2b2e:	6078      	str	r0, [r7, #4]
    2b30:	687b      	ldr	r3, [r7, #4]
    2b32:	799b      	ldrb	r3, [r3, #6]
    2b34:	2b00      	cmp	r3, #0
    2b36:	d10a      	bne.n	2b4e <configure_pins+0x26>
    2b38:	687b      	ldr	r3, [r7, #4]
    2b3a:	781b      	ldrb	r3, [r3, #0]
    2b3c:	4618      	mov	r0, r3
    2b3e:	f7ff ffcc 	bl	2ada <nrf_gpio_cfg_output>
    2b42:	687b      	ldr	r3, [r7, #4]
    2b44:	785b      	ldrb	r3, [r3, #1]
    2b46:	4618      	mov	r0, r3
    2b48:	f7ff ffc7 	bl	2ada <nrf_gpio_cfg_output>
    2b4c:	e00b      	b.n	2b66 <configure_pins+0x3e>
    2b4e:	687b      	ldr	r3, [r7, #4]
    2b50:	781b      	ldrb	r3, [r3, #0]
    2b52:	2100      	movs	r1, #0
    2b54:	4618      	mov	r0, r3
    2b56:	f7ff ffd2 	bl	2afe <nrf_gpio_cfg_input>
    2b5a:	687b      	ldr	r3, [r7, #4]
    2b5c:	785b      	ldrb	r3, [r3, #1]
    2b5e:	2100      	movs	r1, #0
    2b60:	4618      	mov	r0, r3
    2b62:	f7ff ffcc 	bl	2afe <nrf_gpio_cfg_input>
    2b66:	687b      	ldr	r3, [r7, #4]
    2b68:	789b      	ldrb	r3, [r3, #2]
    2b6a:	2bff      	cmp	r3, #255	; 0xff
    2b6c:	d006      	beq.n	2b7c <configure_pins+0x54>
    2b6e:	687b      	ldr	r3, [r7, #4]
    2b70:	789b      	ldrb	r3, [r3, #2]
    2b72:	617b      	str	r3, [r7, #20]
    2b74:	6978      	ldr	r0, [r7, #20]
    2b76:	f7ff ffb0 	bl	2ada <nrf_gpio_cfg_output>
    2b7a:	e002      	b.n	2b82 <configure_pins+0x5a>
    2b7c:	f04f 33ff 	mov.w	r3, #4294967295	; 0xffffffff
    2b80:	617b      	str	r3, [r7, #20]
    2b82:	687b      	ldr	r3, [r7, #4]
    2b84:	78db      	ldrb	r3, [r3, #3]
    2b86:	2bff      	cmp	r3, #255	; 0xff
    2b88:	d006      	beq.n	2b98 <configure_pins+0x70>
    2b8a:	687b      	ldr	r3, [r7, #4]
    2b8c:	78db      	ldrb	r3, [r3, #3]
    2b8e:	613b      	str	r3, [r7, #16]
    2b90:	6938      	ldr	r0, [r7, #16]
    2b92:	f7ff ffa2 	bl	2ada <nrf_gpio_cfg_output>
    2b96:	e002      	b.n	2b9e <configure_pins+0x76>
    2b98:	f04f 33ff 	mov.w	r3, #4294967295	; 0xffffffff
    2b9c:	613b      	str	r3, [r7, #16]
    2b9e:	687b      	ldr	r3, [r7, #4]
    2ba0:	791b      	ldrb	r3, [r3, #4]
    2ba2:	2bff      	cmp	r3, #255	; 0xff
    2ba4:	d007      	beq.n	2bb6 <configure_pins+0x8e>
    2ba6:	687b      	ldr	r3, [r7, #4]
    2ba8:	791b      	ldrb	r3, [r3, #4]
    2baa:	60fb      	str	r3, [r7, #12]
    2bac:	2100      	movs	r1, #0
    2bae:	68f8      	ldr	r0, [r7, #12]
    2bb0:	f7ff ffa5 	bl	2afe <nrf_gpio_cfg_input>
    2bb4:	e002      	b.n	2bbc <configure_pins+0x94>
    2bb6:	f04f 33ff 	mov.w	r3, #4294967295	; 0xffffffff
    2bba:	60fb      	str	r3, [r7, #12]
    2bbc:	687b      	ldr	r3, [r7, #4]
    2bbe:	781b      	ldrb	r3, [r3, #0]
    2bc0:	4619      	mov	r1, r3
    2bc2:	687b      	ldr	r3, [r7, #4]
    2bc4:	785b      	ldrb	r3, [r3, #1]
    2bc6:	461a      	mov	r2, r3
    2bc8:	68fb      	ldr	r3, [r7, #12]
    2bca:	9301      	str	r3, [sp, #4]
    2bcc:	693b      	ldr	r3, [r7, #16]
    2bce:	9300      	str	r3, [sp, #0]
    2bd0:	697b      	ldr	r3, [r7, #20]
    2bd2:	4803      	ldr	r0, [pc, #12]	; (2be0 <configure_pins+0xb8>)
    2bd4:	f7ff fe87 	bl	28e6 <nrf_i2s_pins_set>
    2bd8:	bf00      	nop
    2bda:	3718      	adds	r7, #24
    2bdc:	46bd      	mov	sp, r7
    2bde:	bd80      	pop	{r7, pc}
    2be0:	40025000 	.word	0x40025000

00002be4 <nrfx_i2s_init>:
    2be4:	b5f0      	push	{r4, r5, r6, r7, lr}
    2be6:	b089      	sub	sp, #36	; 0x24
    2be8:	af04      	add	r7, sp, #16
    2bea:	6078      	str	r0, [r7, #4]
    2bec:	6039      	str	r1, [r7, #0]
    2bee:	4b20      	ldr	r3, [pc, #128]	; (2c70 <nrfx_i2s_init+0x8c>)
    2bf0:	791b      	ldrb	r3, [r3, #4]
    2bf2:	2b00      	cmp	r3, #0
    2bf4:	d003      	beq.n	2bfe <nrfx_i2s_init+0x1a>
    2bf6:	2308      	movs	r3, #8
    2bf8:	60fb      	str	r3, [r7, #12]
    2bfa:	68fb      	ldr	r3, [r7, #12]
    2bfc:	e034      	b.n	2c68 <nrfx_i2s_init+0x84>
    2bfe:	687b      	ldr	r3, [r7, #4]
    2c00:	799c      	ldrb	r4, [r3, #6]
    2c02:	687b      	ldr	r3, [r7, #4]
    2c04:	79dd      	ldrb	r5, [r3, #7]
    2c06:	687b      	ldr	r3, [r7, #4]
    2c08:	7a1e      	ldrb	r6, [r3, #8]
    2c0a:	687b      	ldr	r3, [r7, #4]
    2c0c:	7a5b      	ldrb	r3, [r3, #9]
    2c0e:	687a      	ldr	r2, [r7, #4]
    2c10:	7a92      	ldrb	r2, [r2, #10]
    2c12:	6879      	ldr	r1, [r7, #4]
    2c14:	68c9      	ldr	r1, [r1, #12]
    2c16:	6878      	ldr	r0, [r7, #4]
    2c18:	7c00      	ldrb	r0, [r0, #16]
    2c1a:	9003      	str	r0, [sp, #12]
    2c1c:	9102      	str	r1, [sp, #8]
    2c1e:	9201      	str	r2, [sp, #4]
    2c20:	9300      	str	r3, [sp, #0]
    2c22:	4633      	mov	r3, r6
    2c24:	462a      	mov	r2, r5
    2c26:	4621      	mov	r1, r4
    2c28:	4812      	ldr	r0, [pc, #72]	; (2c74 <nrfx_i2s_init+0x90>)
    2c2a:	f7ff fe7d 	bl	2928 <nrf_i2s_configure>
    2c2e:	4603      	mov	r3, r0
    2c30:	f083 0301 	eor.w	r3, r3, #1
    2c34:	b2db      	uxtb	r3, r3
    2c36:	2b00      	cmp	r3, #0
    2c38:	d003      	beq.n	2c42 <nrfx_i2s_init+0x5e>
    2c3a:	2307      	movs	r3, #7
    2c3c:	60fb      	str	r3, [r7, #12]
    2c3e:	68fb      	ldr	r3, [r7, #12]
    2c40:	e012      	b.n	2c68 <nrfx_i2s_init+0x84>
    2c42:	6878      	ldr	r0, [r7, #4]
    2c44:	f7ff ff70 	bl	2b28 <configure_pins>
    2c48:	4a09      	ldr	r2, [pc, #36]	; (2c70 <nrfx_i2s_init+0x8c>)
    2c4a:	683b      	ldr	r3, [r7, #0]
    2c4c:	6013      	str	r3, [r2, #0]
    2c4e:	687b      	ldr	r3, [r7, #4]
    2c50:	795b      	ldrb	r3, [r3, #5]
    2c52:	4619      	mov	r1, r3
    2c54:	2025      	movs	r0, #37	; 0x25
    2c56:	f7ff fdae 	bl	27b6 <_NRFX_IRQ_PRIORITY_SET>
    2c5a:	2025      	movs	r0, #37	; 0x25
    2c5c:	f7ff fdbe 	bl	27dc <_NRFX_IRQ_ENABLE>
    2c60:	4b03      	ldr	r3, [pc, #12]	; (2c70 <nrfx_i2s_init+0x8c>)
    2c62:	2201      	movs	r2, #1
    2c64:	711a      	strb	r2, [r3, #4]
    2c66:	2300      	movs	r3, #0
    2c68:	4618      	mov	r0, r3
    2c6a:	3714      	adds	r7, #20
    2c6c:	46bd      	mov	sp, r7
    2c6e:	bdf0      	pop	{r4, r5, r6, r7, pc}
    2c70:	20000680 	.word	0x20000680
    2c74:	40025000 	.word	0x40025000

00002c78 <nrfx_i2s_start>:
    2c78:	b580      	push	{r7, lr}
    2c7a:	b084      	sub	sp, #16
    2c7c:	af00      	add	r7, sp, #0
    2c7e:	6078      	str	r0, [r7, #4]
    2c80:	460b      	mov	r3, r1
    2c82:	807b      	strh	r3, [r7, #2]
    2c84:	4613      	mov	r3, r2
    2c86:	707b      	strb	r3, [r7, #1]
    2c88:	4b4c      	ldr	r3, [pc, #304]	; (2dbc <nrfx_i2s_start+0x144>)
    2c8a:	791b      	ldrb	r3, [r3, #4]
    2c8c:	2b01      	cmp	r3, #1
    2c8e:	d003      	beq.n	2c98 <nrfx_i2s_start+0x20>
    2c90:	2308      	movs	r3, #8
    2c92:	60fb      	str	r3, [r7, #12]
    2c94:	68fb      	ldr	r3, [r7, #12]
    2c96:	e08c      	b.n	2db2 <nrfx_i2s_start+0x13a>
    2c98:	687b      	ldr	r3, [r7, #4]
    2c9a:	681b      	ldr	r3, [r3, #0]
    2c9c:	2b00      	cmp	r3, #0
    2c9e:	d00a      	beq.n	2cb6 <nrfx_i2s_start+0x3e>
    2ca0:	687b      	ldr	r3, [r7, #4]
    2ca2:	681b      	ldr	r3, [r3, #0]
    2ca4:	4618      	mov	r0, r3
    2ca6:	f7ff fd73 	bl	2790 <nrfx_is_in_ram>
    2caa:	4603      	mov	r3, r0
    2cac:	f083 0301 	eor.w	r3, r3, #1
    2cb0:	b2db      	uxtb	r3, r3
    2cb2:	2b00      	cmp	r3, #0
    2cb4:	d10e      	bne.n	2cd4 <nrfx_i2s_start+0x5c>
    2cb6:	687b      	ldr	r3, [r7, #4]
    2cb8:	685b      	ldr	r3, [r3, #4]
    2cba:	2b00      	cmp	r3, #0
    2cbc:	d00e      	beq.n	2cdc <nrfx_i2s_start+0x64>
    2cbe:	687b      	ldr	r3, [r7, #4]
    2cc0:	685b      	ldr	r3, [r3, #4]
    2cc2:	4618      	mov	r0, r3
    2cc4:	f7ff fd64 	bl	2790 <nrfx_is_in_ram>
    2cc8:	4603      	mov	r3, r0
    2cca:	f083 0301 	eor.w	r3, r3, #1
    2cce:	b2db      	uxtb	r3, r3
    2cd0:	2b00      	cmp	r3, #0
    2cd2:	d003      	beq.n	2cdc <nrfx_i2s_start+0x64>
    2cd4:	2310      	movs	r3, #16
    2cd6:	60fb      	str	r3, [r7, #12]
    2cd8:	68fb      	ldr	r3, [r7, #12]
    2cda:	e06a      	b.n	2db2 <nrfx_i2s_start+0x13a>
    2cdc:	687b      	ldr	r3, [r7, #4]
    2cde:	681b      	ldr	r3, [r3, #0]
    2ce0:	2b00      	cmp	r3, #0
    2ce2:	bf14      	ite	ne
    2ce4:	2301      	movne	r3, #1
    2ce6:	2300      	moveq	r3, #0
    2ce8:	b2d9      	uxtb	r1, r3
    2cea:	4a34      	ldr	r2, [pc, #208]	; (2dbc <nrfx_i2s_start+0x144>)
    2cec:	7953      	ldrb	r3, [r2, #5]
    2cee:	f361 0300 	bfi	r3, r1, #0, #1
    2cf2:	7153      	strb	r3, [r2, #5]
    2cf4:	687b      	ldr	r3, [r7, #4]
    2cf6:	685b      	ldr	r3, [r3, #4]
    2cf8:	2b00      	cmp	r3, #0
    2cfa:	bf14      	ite	ne
    2cfc:	2301      	movne	r3, #1
    2cfe:	2300      	moveq	r3, #0
    2d00:	b2d9      	uxtb	r1, r3
    2d02:	4a2e      	ldr	r2, [pc, #184]	; (2dbc <nrfx_i2s_start+0x144>)
    2d04:	7953      	ldrb	r3, [r2, #5]
    2d06:	f361 0341 	bfi	r3, r1, #1, #1
    2d0a:	7153      	strb	r3, [r2, #5]
    2d0c:	4a2b      	ldr	r2, [pc, #172]	; (2dbc <nrfx_i2s_start+0x144>)
    2d0e:	7953      	ldrb	r3, [r2, #5]
    2d10:	f36f 0382 	bfc	r3, #2, #1
    2d14:	7153      	strb	r3, [r2, #5]
    2d16:	4a29      	ldr	r2, [pc, #164]	; (2dbc <nrfx_i2s_start+0x144>)
    2d18:	7953      	ldrb	r3, [r2, #5]
    2d1a:	f36f 03c3 	bfc	r3, #3, #1
    2d1e:	7153      	strb	r3, [r2, #5]
    2d20:	4a26      	ldr	r2, [pc, #152]	; (2dbc <nrfx_i2s_start+0x144>)
    2d22:	7953      	ldrb	r3, [r2, #5]
    2d24:	f36f 1304 	bfc	r3, #4, #1
    2d28:	7153      	strb	r3, [r2, #5]
    2d2a:	4a24      	ldr	r2, [pc, #144]	; (2dbc <nrfx_i2s_start+0x144>)
    2d2c:	887b      	ldrh	r3, [r7, #2]
    2d2e:	80d3      	strh	r3, [r2, #6]
    2d30:	4b22      	ldr	r3, [pc, #136]	; (2dbc <nrfx_i2s_start+0x144>)
    2d32:	687a      	ldr	r2, [r7, #4]
    2d34:	3308      	adds	r3, #8
    2d36:	e892 0003 	ldmia.w	r2, {r0, r1}
    2d3a:	e883 0003 	stmia.w	r3, {r0, r1}
    2d3e:	4b1f      	ldr	r3, [pc, #124]	; (2dbc <nrfx_i2s_start+0x144>)
    2d40:	2200      	movs	r2, #0
    2d42:	611a      	str	r2, [r3, #16]
    2d44:	4b1d      	ldr	r3, [pc, #116]	; (2dbc <nrfx_i2s_start+0x144>)
    2d46:	2200      	movs	r2, #0
    2d48:	615a      	str	r2, [r3, #20]
    2d4a:	4b1c      	ldr	r3, [pc, #112]	; (2dbc <nrfx_i2s_start+0x144>)
    2d4c:	88d9      	ldrh	r1, [r3, #6]
    2d4e:	4b1b      	ldr	r3, [pc, #108]	; (2dbc <nrfx_i2s_start+0x144>)
    2d50:	689a      	ldr	r2, [r3, #8]
    2d52:	4b1a      	ldr	r3, [pc, #104]	; (2dbc <nrfx_i2s_start+0x144>)
    2d54:	68db      	ldr	r3, [r3, #12]
    2d56:	481a      	ldr	r0, [pc, #104]	; (2dc0 <nrfx_i2s_start+0x148>)
    2d58:	f7ff fe3f 	bl	29da <nrf_i2s_transfer_set>
    2d5c:	4818      	ldr	r0, [pc, #96]	; (2dc0 <nrfx_i2s_start+0x148>)
    2d5e:	f7ff fda6 	bl	28ae <nrf_i2s_enable>
    2d62:	4b16      	ldr	r3, [pc, #88]	; (2dbc <nrfx_i2s_start+0x144>)
    2d64:	2202      	movs	r2, #2
    2d66:	711a      	strb	r2, [r3, #4]
    2d68:	f44f 7182 	mov.w	r1, #260	; 0x104
    2d6c:	4814      	ldr	r0, [pc, #80]	; (2dc0 <nrfx_i2s_start+0x148>)
    2d6e:	f7ff fd54 	bl	281a <nrf_i2s_event_clear>
    2d72:	f44f 718a 	mov.w	r1, #276	; 0x114
    2d76:	4812      	ldr	r0, [pc, #72]	; (2dc0 <nrfx_i2s_start+0x148>)
    2d78:	f7ff fd4f 	bl	281a <nrf_i2s_event_clear>
    2d7c:	f44f 7184 	mov.w	r1, #264	; 0x108
    2d80:	480f      	ldr	r0, [pc, #60]	; (2dc0 <nrfx_i2s_start+0x148>)
    2d82:	f7ff fd4a 	bl	281a <nrf_i2s_event_clear>
    2d86:	4b0d      	ldr	r3, [pc, #52]	; (2dbc <nrfx_i2s_start+0x144>)
    2d88:	795b      	ldrb	r3, [r3, #5]
    2d8a:	005b      	lsls	r3, r3, #1
    2d8c:	f003 0202 	and.w	r2, r3, #2
    2d90:	4b0a      	ldr	r3, [pc, #40]	; (2dbc <nrfx_i2s_start+0x144>)
    2d92:	795b      	ldrb	r3, [r3, #5]
    2d94:	011b      	lsls	r3, r3, #4
    2d96:	f003 0320 	and.w	r3, r3, #32
    2d9a:	4313      	orrs	r3, r2
    2d9c:	f043 0304 	orr.w	r3, r3, #4
    2da0:	4619      	mov	r1, r3
    2da2:	4807      	ldr	r0, [pc, #28]	; (2dc0 <nrfx_i2s_start+0x148>)
    2da4:	f7ff fd65 	bl	2872 <nrf_i2s_int_enable>
    2da8:	2100      	movs	r1, #0
    2daa:	4805      	ldr	r0, [pc, #20]	; (2dc0 <nrfx_i2s_start+0x148>)
    2dac:	f7ff fd24 	bl	27f8 <nrf_i2s_task_trigger>
    2db0:	2300      	movs	r3, #0
    2db2:	4618      	mov	r0, r3
    2db4:	3710      	adds	r7, #16
    2db6:	46bd      	mov	sp, r7
    2db8:	bd80      	pop	{r7, pc}
    2dba:	bf00      	nop
    2dbc:	20000680 	.word	0x20000680
    2dc0:	40025000 	.word	0x40025000

00002dc4 <nrfx_i2s_next_buffers_set>:
    2dc4:	b580      	push	{r7, lr}
    2dc6:	b084      	sub	sp, #16
    2dc8:	af00      	add	r7, sp, #0
    2dca:	6078      	str	r0, [r7, #4]
    2dcc:	4b2d      	ldr	r3, [pc, #180]	; (2e84 <nrfx_i2s_next_buffers_set+0xc0>)
    2dce:	795b      	ldrb	r3, [r3, #5]
    2dd0:	f3c3 1300 	ubfx	r3, r3, #4, #1
    2dd4:	b2db      	uxtb	r3, r3
    2dd6:	f083 0301 	eor.w	r3, r3, #1
    2dda:	b2db      	uxtb	r3, r3
    2ddc:	2b00      	cmp	r3, #0
    2dde:	d003      	beq.n	2de8 <nrfx_i2s_next_buffers_set+0x24>
    2de0:	2308      	movs	r3, #8
    2de2:	60fb      	str	r3, [r7, #12]
    2de4:	68fb      	ldr	r3, [r7, #12]
    2de6:	e048      	b.n	2e7a <nrfx_i2s_next_buffers_set+0xb6>
    2de8:	687b      	ldr	r3, [r7, #4]
    2dea:	681b      	ldr	r3, [r3, #0]
    2dec:	2b00      	cmp	r3, #0
    2dee:	d00a      	beq.n	2e06 <nrfx_i2s_next_buffers_set+0x42>
    2df0:	687b      	ldr	r3, [r7, #4]
    2df2:	681b      	ldr	r3, [r3, #0]
    2df4:	4618      	mov	r0, r3
    2df6:	f7ff fccb 	bl	2790 <nrfx_is_in_ram>
    2dfa:	4603      	mov	r3, r0
    2dfc:	f083 0301 	eor.w	r3, r3, #1
    2e00:	b2db      	uxtb	r3, r3
    2e02:	2b00      	cmp	r3, #0
    2e04:	d10e      	bne.n	2e24 <nrfx_i2s_next_buffers_set+0x60>
    2e06:	687b      	ldr	r3, [r7, #4]
    2e08:	685b      	ldr	r3, [r3, #4]
    2e0a:	2b00      	cmp	r3, #0
    2e0c:	d00e      	beq.n	2e2c <nrfx_i2s_next_buffers_set+0x68>
    2e0e:	687b      	ldr	r3, [r7, #4]
    2e10:	685b      	ldr	r3, [r3, #4]
    2e12:	4618      	mov	r0, r3
    2e14:	f7ff fcbc 	bl	2790 <nrfx_is_in_ram>
    2e18:	4603      	mov	r3, r0
    2e1a:	f083 0301 	eor.w	r3, r3, #1
    2e1e:	b2db      	uxtb	r3, r3
    2e20:	2b00      	cmp	r3, #0
    2e22:	d003      	beq.n	2e2c <nrfx_i2s_next_buffers_set+0x68>
    2e24:	2310      	movs	r3, #16
    2e26:	60fb      	str	r3, [r7, #12]
    2e28:	68fb      	ldr	r3, [r7, #12]
    2e2a:	e026      	b.n	2e7a <nrfx_i2s_next_buffers_set+0xb6>
    2e2c:	4b15      	ldr	r3, [pc, #84]	; (2e84 <nrfx_i2s_next_buffers_set+0xc0>)
    2e2e:	795b      	ldrb	r3, [r3, #5]
    2e30:	f003 0302 	and.w	r3, r3, #2
    2e34:	b2db      	uxtb	r3, r3
    2e36:	2b00      	cmp	r3, #0
    2e38:	d005      	beq.n	2e46 <nrfx_i2s_next_buffers_set+0x82>
    2e3a:	687b      	ldr	r3, [r7, #4]
    2e3c:	685b      	ldr	r3, [r3, #4]
    2e3e:	4619      	mov	r1, r3
    2e40:	4811      	ldr	r0, [pc, #68]	; (2e88 <nrfx_i2s_next_buffers_set+0xc4>)
    2e42:	f7ff fe05 	bl	2a50 <nrf_i2s_tx_buffer_set>
    2e46:	4b0f      	ldr	r3, [pc, #60]	; (2e84 <nrfx_i2s_next_buffers_set+0xc0>)
    2e48:	795b      	ldrb	r3, [r3, #5]
    2e4a:	f003 0301 	and.w	r3, r3, #1
    2e4e:	b2db      	uxtb	r3, r3
    2e50:	2b00      	cmp	r3, #0
    2e52:	d005      	beq.n	2e60 <nrfx_i2s_next_buffers_set+0x9c>
    2e54:	687b      	ldr	r3, [r7, #4]
    2e56:	681b      	ldr	r3, [r3, #0]
    2e58:	4619      	mov	r1, r3
    2e5a:	480b      	ldr	r0, [pc, #44]	; (2e88 <nrfx_i2s_next_buffers_set+0xc4>)
    2e5c:	f7ff fde9 	bl	2a32 <nrf_i2s_rx_buffer_set>
    2e60:	4b08      	ldr	r3, [pc, #32]	; (2e84 <nrfx_i2s_next_buffers_set+0xc0>)
    2e62:	687a      	ldr	r2, [r7, #4]
    2e64:	3308      	adds	r3, #8
    2e66:	e892 0003 	ldmia.w	r2, {r0, r1}
    2e6a:	e883 0003 	stmia.w	r3, {r0, r1}
    2e6e:	4a05      	ldr	r2, [pc, #20]	; (2e84 <nrfx_i2s_next_buffers_set+0xc0>)
    2e70:	7953      	ldrb	r3, [r2, #5]
    2e72:	f36f 1304 	bfc	r3, #4, #1
    2e76:	7153      	strb	r3, [r2, #5]
    2e78:	2300      	movs	r3, #0
    2e7a:	4618      	mov	r0, r3
    2e7c:	3710      	adds	r7, #16
    2e7e:	46bd      	mov	sp, r7
    2e80:	bd80      	pop	{r7, pc}
    2e82:	bf00      	nop
    2e84:	20000680 	.word	0x20000680
    2e88:	40025000 	.word	0x40025000

00002e8c <nrfx_i2s_stop>:
    2e8c:	b580      	push	{r7, lr}
    2e8e:	af00      	add	r7, sp, #0
    2e90:	4a0a      	ldr	r2, [pc, #40]	; (2ebc <nrfx_i2s_stop+0x30>)
    2e92:	7953      	ldrb	r3, [r2, #5]
    2e94:	f36f 1304 	bfc	r3, #4, #1
    2e98:	7153      	strb	r3, [r2, #5]
    2e9a:	2122      	movs	r1, #34	; 0x22
    2e9c:	4808      	ldr	r0, [pc, #32]	; (2ec0 <nrfx_i2s_stop+0x34>)
    2e9e:	f7ff fcf7 	bl	2890 <nrf_i2s_int_disable>
    2ea2:	2104      	movs	r1, #4
    2ea4:	4806      	ldr	r0, [pc, #24]	; (2ec0 <nrfx_i2s_stop+0x34>)
    2ea6:	f7ff fca7 	bl	27f8 <nrf_i2s_task_trigger>
    2eaa:	4b06      	ldr	r3, [pc, #24]	; (2ec4 <nrfx_i2s_stop+0x38>)
    2eac:	2201      	movs	r2, #1
    2eae:	601a      	str	r2, [r3, #0]
    2eb0:	4b05      	ldr	r3, [pc, #20]	; (2ec8 <nrfx_i2s_stop+0x3c>)
    2eb2:	2201      	movs	r2, #1
    2eb4:	601a      	str	r2, [r3, #0]
    2eb6:	bf00      	nop
    2eb8:	bd80      	pop	{r7, pc}
    2eba:	bf00      	nop
    2ebc:	20000680 	.word	0x20000680
    2ec0:	40025000 	.word	0x40025000
    2ec4:	40025038 	.word	0x40025038
    2ec8:	4002503c 	.word	0x4002503c

00002ecc <I2S_IRQHandler>:
    2ecc:	b580      	push	{r7, lr}
    2ece:	b082      	sub	sp, #8
    2ed0:	af00      	add	r7, sp, #0
    2ed2:	f44f 718a 	mov.w	r1, #276	; 0x114
    2ed6:	4876      	ldr	r0, [pc, #472]	; (30b0 <I2S_IRQHandler+0x1e4>)
    2ed8:	f7ff fcb6 	bl	2848 <nrf_i2s_event_check>
    2edc:	4603      	mov	r3, r0
    2ede:	2b00      	cmp	r3, #0
    2ee0:	d01c      	beq.n	2f1c <I2S_IRQHandler+0x50>
    2ee2:	f44f 718a 	mov.w	r1, #276	; 0x114
    2ee6:	4872      	ldr	r0, [pc, #456]	; (30b0 <I2S_IRQHandler+0x1e4>)
    2ee8:	f7ff fc97 	bl	281a <nrf_i2s_event_clear>
    2eec:	4a71      	ldr	r2, [pc, #452]	; (30b4 <I2S_IRQHandler+0x1e8>)
    2eee:	7953      	ldrb	r3, [r2, #5]
    2ef0:	f043 0308 	orr.w	r3, r3, #8
    2ef4:	7153      	strb	r3, [r2, #5]
    2ef6:	4b6f      	ldr	r3, [pc, #444]	; (30b4 <I2S_IRQHandler+0x1e8>)
    2ef8:	795b      	ldrb	r3, [r3, #5]
    2efa:	f003 0302 	and.w	r3, r3, #2
    2efe:	b2db      	uxtb	r3, r3
    2f00:	2b00      	cmp	r3, #0
    2f02:	d00b      	beq.n	2f1c <I2S_IRQHandler+0x50>
    2f04:	4b6b      	ldr	r3, [pc, #428]	; (30b4 <I2S_IRQHandler+0x1e8>)
    2f06:	795b      	ldrb	r3, [r3, #5]
    2f08:	f003 0310 	and.w	r3, r3, #16
    2f0c:	b2db      	uxtb	r3, r3
    2f0e:	2b00      	cmp	r3, #0
    2f10:	d004      	beq.n	2f1c <I2S_IRQHandler+0x50>
    2f12:	4a68      	ldr	r2, [pc, #416]	; (30b4 <I2S_IRQHandler+0x1e8>)
    2f14:	7953      	ldrb	r3, [r2, #5]
    2f16:	f043 0320 	orr.w	r3, r3, #32
    2f1a:	7153      	strb	r3, [r2, #5]
    2f1c:	f44f 7182 	mov.w	r1, #260	; 0x104
    2f20:	4863      	ldr	r0, [pc, #396]	; (30b0 <I2S_IRQHandler+0x1e4>)
    2f22:	f7ff fc91 	bl	2848 <nrf_i2s_event_check>
    2f26:	4603      	mov	r3, r0
    2f28:	2b00      	cmp	r3, #0
    2f2a:	d01c      	beq.n	2f66 <I2S_IRQHandler+0x9a>
    2f2c:	f44f 7182 	mov.w	r1, #260	; 0x104
    2f30:	485f      	ldr	r0, [pc, #380]	; (30b0 <I2S_IRQHandler+0x1e4>)
    2f32:	f7ff fc72 	bl	281a <nrf_i2s_event_clear>
    2f36:	4a5f      	ldr	r2, [pc, #380]	; (30b4 <I2S_IRQHandler+0x1e8>)
    2f38:	7953      	ldrb	r3, [r2, #5]
    2f3a:	f043 0304 	orr.w	r3, r3, #4
    2f3e:	7153      	strb	r3, [r2, #5]
    2f40:	4b5c      	ldr	r3, [pc, #368]	; (30b4 <I2S_IRQHandler+0x1e8>)
    2f42:	795b      	ldrb	r3, [r3, #5]
    2f44:	f003 0301 	and.w	r3, r3, #1
    2f48:	b2db      	uxtb	r3, r3
    2f4a:	2b00      	cmp	r3, #0
    2f4c:	d00b      	beq.n	2f66 <I2S_IRQHandler+0x9a>
    2f4e:	4b59      	ldr	r3, [pc, #356]	; (30b4 <I2S_IRQHandler+0x1e8>)
    2f50:	795b      	ldrb	r3, [r3, #5]
    2f52:	f003 0310 	and.w	r3, r3, #16
    2f56:	b2db      	uxtb	r3, r3
    2f58:	2b00      	cmp	r3, #0
    2f5a:	d004      	beq.n	2f66 <I2S_IRQHandler+0x9a>
    2f5c:	4a55      	ldr	r2, [pc, #340]	; (30b4 <I2S_IRQHandler+0x1e8>)
    2f5e:	7953      	ldrb	r3, [r2, #5]
    2f60:	f043 0320 	orr.w	r3, r3, #32
    2f64:	7153      	strb	r3, [r2, #5]
    2f66:	f44f 7184 	mov.w	r1, #264	; 0x108
    2f6a:	4851      	ldr	r0, [pc, #324]	; (30b0 <I2S_IRQHandler+0x1e4>)
    2f6c:	f7ff fc6c 	bl	2848 <nrf_i2s_event_check>
    2f70:	4603      	mov	r3, r0
    2f72:	2b00      	cmp	r3, #0
    2f74:	d019      	beq.n	2faa <I2S_IRQHandler+0xde>
    2f76:	f44f 7184 	mov.w	r1, #264	; 0x108
    2f7a:	484d      	ldr	r0, [pc, #308]	; (30b0 <I2S_IRQHandler+0x1e4>)
    2f7c:	f7ff fc4d 	bl	281a <nrf_i2s_event_clear>
    2f80:	2104      	movs	r1, #4
    2f82:	484b      	ldr	r0, [pc, #300]	; (30b0 <I2S_IRQHandler+0x1e4>)
    2f84:	f7ff fc84 	bl	2890 <nrf_i2s_int_disable>
    2f88:	4849      	ldr	r0, [pc, #292]	; (30b0 <I2S_IRQHandler+0x1e4>)
    2f8a:	f7ff fc9e 	bl	28ca <nrf_i2s_disable>
    2f8e:	4b49      	ldr	r3, [pc, #292]	; (30b4 <I2S_IRQHandler+0x1e8>)
    2f90:	681b      	ldr	r3, [r3, #0]
    2f92:	2100      	movs	r1, #0
    2f94:	4848      	ldr	r0, [pc, #288]	; (30b8 <I2S_IRQHandler+0x1ec>)
    2f96:	4798      	blx	r3
    2f98:	4b46      	ldr	r3, [pc, #280]	; (30b4 <I2S_IRQHandler+0x1e8>)
    2f9a:	681b      	ldr	r3, [r3, #0]
    2f9c:	2100      	movs	r1, #0
    2f9e:	4847      	ldr	r0, [pc, #284]	; (30bc <I2S_IRQHandler+0x1f0>)
    2fa0:	4798      	blx	r3
    2fa2:	4b44      	ldr	r3, [pc, #272]	; (30b4 <I2S_IRQHandler+0x1e8>)
    2fa4:	2201      	movs	r2, #1
    2fa6:	711a      	strb	r2, [r3, #4]
    2fa8:	e07e      	b.n	30a8 <I2S_IRQHandler+0x1dc>
    2faa:	4b42      	ldr	r3, [pc, #264]	; (30b4 <I2S_IRQHandler+0x1e8>)
    2fac:	795b      	ldrb	r3, [r3, #5]
    2fae:	f003 0302 	and.w	r3, r3, #2
    2fb2:	b2db      	uxtb	r3, r3
    2fb4:	2b00      	cmp	r3, #0
    2fb6:	d014      	beq.n	2fe2 <I2S_IRQHandler+0x116>
    2fb8:	4b3e      	ldr	r3, [pc, #248]	; (30b4 <I2S_IRQHandler+0x1e8>)
    2fba:	795b      	ldrb	r3, [r3, #5]
    2fbc:	f003 0301 	and.w	r3, r3, #1
    2fc0:	b2db      	uxtb	r3, r3
    2fc2:	2b00      	cmp	r3, #0
    2fc4:	d00d      	beq.n	2fe2 <I2S_IRQHandler+0x116>
    2fc6:	4b3b      	ldr	r3, [pc, #236]	; (30b4 <I2S_IRQHandler+0x1e8>)
    2fc8:	795b      	ldrb	r3, [r3, #5]
    2fca:	f003 0308 	and.w	r3, r3, #8
    2fce:	b2db      	uxtb	r3, r3
    2fd0:	2b00      	cmp	r3, #0
    2fd2:	d006      	beq.n	2fe2 <I2S_IRQHandler+0x116>
    2fd4:	4b37      	ldr	r3, [pc, #220]	; (30b4 <I2S_IRQHandler+0x1e8>)
    2fd6:	795b      	ldrb	r3, [r3, #5]
    2fd8:	f003 0304 	and.w	r3, r3, #4
    2fdc:	b2db      	uxtb	r3, r3
    2fde:	2b00      	cmp	r3, #0
    2fe0:	d121      	bne.n	3026 <I2S_IRQHandler+0x15a>
    2fe2:	4b34      	ldr	r3, [pc, #208]	; (30b4 <I2S_IRQHandler+0x1e8>)
    2fe4:	795b      	ldrb	r3, [r3, #5]
    2fe6:	f3c3 0300 	ubfx	r3, r3, #0, #1
    2fea:	b2db      	uxtb	r3, r3
    2fec:	f083 0301 	eor.w	r3, r3, #1
    2ff0:	b2db      	uxtb	r3, r3
    2ff2:	2b00      	cmp	r3, #0
    2ff4:	d006      	beq.n	3004 <I2S_IRQHandler+0x138>
    2ff6:	4b2f      	ldr	r3, [pc, #188]	; (30b4 <I2S_IRQHandler+0x1e8>)
    2ff8:	795b      	ldrb	r3, [r3, #5]
    2ffa:	f003 0308 	and.w	r3, r3, #8
    2ffe:	b2db      	uxtb	r3, r3
    3000:	2b00      	cmp	r3, #0
    3002:	d110      	bne.n	3026 <I2S_IRQHandler+0x15a>
    3004:	4b2b      	ldr	r3, [pc, #172]	; (30b4 <I2S_IRQHandler+0x1e8>)
    3006:	795b      	ldrb	r3, [r3, #5]
    3008:	f3c3 0340 	ubfx	r3, r3, #1, #1
    300c:	b2db      	uxtb	r3, r3
    300e:	f083 0301 	eor.w	r3, r3, #1
    3012:	b2db      	uxtb	r3, r3
    3014:	2b00      	cmp	r3, #0
    3016:	d047      	beq.n	30a8 <I2S_IRQHandler+0x1dc>
    3018:	4b26      	ldr	r3, [pc, #152]	; (30b4 <I2S_IRQHandler+0x1e8>)
    301a:	795b      	ldrb	r3, [r3, #5]
    301c:	f003 0304 	and.w	r3, r3, #4
    3020:	b2db      	uxtb	r3, r3
    3022:	2b00      	cmp	r3, #0
    3024:	d040      	beq.n	30a8 <I2S_IRQHandler+0x1dc>
    3026:	4a23      	ldr	r2, [pc, #140]	; (30b4 <I2S_IRQHandler+0x1e8>)
    3028:	7953      	ldrb	r3, [r2, #5]
    302a:	f36f 03c3 	bfc	r3, #3, #1
    302e:	7153      	strb	r3, [r2, #5]
    3030:	4a20      	ldr	r2, [pc, #128]	; (30b4 <I2S_IRQHandler+0x1e8>)
    3032:	7953      	ldrb	r3, [r2, #5]
    3034:	f36f 0382 	bfc	r3, #2, #1
    3038:	7153      	strb	r3, [r2, #5]
    303a:	4b1e      	ldr	r3, [pc, #120]	; (30b4 <I2S_IRQHandler+0x1e8>)
    303c:	795b      	ldrb	r3, [r3, #5]
    303e:	f003 0320 	and.w	r3, r3, #32
    3042:	b2db      	uxtb	r3, r3
    3044:	2b00      	cmp	r3, #0
    3046:	d00f      	beq.n	3068 <I2S_IRQHandler+0x19c>
    3048:	4a1a      	ldr	r2, [pc, #104]	; (30b4 <I2S_IRQHandler+0x1e8>)
    304a:	7953      	ldrb	r3, [r2, #5]
    304c:	f36f 1345 	bfc	r3, #5, #1
    3050:	7153      	strb	r3, [r2, #5]
    3052:	4a18      	ldr	r2, [pc, #96]	; (30b4 <I2S_IRQHandler+0x1e8>)
    3054:	7953      	ldrb	r3, [r2, #5]
    3056:	f043 0310 	orr.w	r3, r3, #16
    305a:	7153      	strb	r3, [r2, #5]
    305c:	4b15      	ldr	r3, [pc, #84]	; (30b4 <I2S_IRQHandler+0x1e8>)
    305e:	681b      	ldr	r3, [r3, #0]
    3060:	2101      	movs	r1, #1
    3062:	2000      	movs	r0, #0
    3064:	4798      	blx	r3
    3066:	e01f      	b.n	30a8 <I2S_IRQHandler+0x1dc>
    3068:	4a12      	ldr	r2, [pc, #72]	; (30b4 <I2S_IRQHandler+0x1e8>)
    306a:	463b      	mov	r3, r7
    306c:	3210      	adds	r2, #16
    306e:	e892 0003 	ldmia.w	r2, {r0, r1}
    3072:	e883 0003 	stmia.w	r3, {r0, r1}
    3076:	4b0f      	ldr	r3, [pc, #60]	; (30b4 <I2S_IRQHandler+0x1e8>)
    3078:	4a0e      	ldr	r2, [pc, #56]	; (30b4 <I2S_IRQHandler+0x1e8>)
    307a:	3310      	adds	r3, #16
    307c:	3208      	adds	r2, #8
    307e:	e892 0003 	ldmia.w	r2, {r0, r1}
    3082:	e883 0003 	stmia.w	r3, {r0, r1}
    3086:	4b0b      	ldr	r3, [pc, #44]	; (30b4 <I2S_IRQHandler+0x1e8>)
    3088:	2200      	movs	r2, #0
    308a:	609a      	str	r2, [r3, #8]
    308c:	4b09      	ldr	r3, [pc, #36]	; (30b4 <I2S_IRQHandler+0x1e8>)
    308e:	2200      	movs	r2, #0
    3090:	60da      	str	r2, [r3, #12]
    3092:	4a08      	ldr	r2, [pc, #32]	; (30b4 <I2S_IRQHandler+0x1e8>)
    3094:	7953      	ldrb	r3, [r2, #5]
    3096:	f043 0310 	orr.w	r3, r3, #16
    309a:	7153      	strb	r3, [r2, #5]
    309c:	4b05      	ldr	r3, [pc, #20]	; (30b4 <I2S_IRQHandler+0x1e8>)
    309e:	681b      	ldr	r3, [r3, #0]
    30a0:	463a      	mov	r2, r7
    30a2:	2101      	movs	r1, #1
    30a4:	4610      	mov	r0, r2
    30a6:	4798      	blx	r3
    30a8:	bf00      	nop
    30aa:	3708      	adds	r7, #8
    30ac:	46bd      	mov	sp, r7
    30ae:	bd80      	pop	{r7, pc}
    30b0:	40025000 	.word	0x40025000
    30b4:	20000680 	.word	0x20000680
    30b8:	20000690 	.word	0x20000690
    30bc:	20000688 	.word	0x20000688

000030c0 <UARTE0_UART0_IRQHandler>:
    30c0:	b580      	push	{r7, lr}
    30c2:	af00      	add	r7, sp, #0
    30c4:	4b01      	ldr	r3, [pc, #4]	; (30cc <UARTE0_UART0_IRQHandler+0xc>)
    30c6:	681b      	ldr	r3, [r3, #0]
    30c8:	4798      	blx	r3
    30ca:	bd80      	pop	{r7, pc}
    30cc:	20000698 	.word	0x20000698

000030d0 <prs_box_get>:
    30d0:	b480      	push	{r7}
    30d2:	b083      	sub	sp, #12
    30d4:	af00      	add	r7, sp, #0
    30d6:	6078      	str	r0, [r7, #4]
    30d8:	687b      	ldr	r3, [r7, #4]
    30da:	4a06      	ldr	r2, [pc, #24]	; (30f4 <prs_box_get+0x24>)
    30dc:	4293      	cmp	r3, r2
    30de:	d101      	bne.n	30e4 <prs_box_get+0x14>
    30e0:	4b05      	ldr	r3, [pc, #20]	; (30f8 <prs_box_get+0x28>)
    30e2:	e000      	b.n	30e6 <prs_box_get+0x16>
    30e4:	2300      	movs	r3, #0
    30e6:	4618      	mov	r0, r3
    30e8:	370c      	adds	r7, #12
    30ea:	46bd      	mov	sp, r7
    30ec:	f85d 7b04 	ldr.w	r7, [sp], #4
    30f0:	4770      	bx	lr
    30f2:	bf00      	nop
    30f4:	40002000 	.word	0x40002000
    30f8:	20000698 	.word	0x20000698

000030fc <nrfx_prs_acquire>:
    30fc:	b580      	push	{r7, lr}
    30fe:	b086      	sub	sp, #24
    3100:	af00      	add	r7, sp, #0
    3102:	6078      	str	r0, [r7, #4]
    3104:	6039      	str	r1, [r7, #0]
    3106:	6878      	ldr	r0, [r7, #4]
    3108:	f7ff ffe2 	bl	30d0 <prs_box_get>
    310c:	60f8      	str	r0, [r7, #12]
    310e:	68fb      	ldr	r3, [r7, #12]
    3110:	2b00      	cmp	r3, #0
    3112:	d01b      	beq.n	314c <nrfx_prs_acquire+0x50>
    3114:	2300      	movs	r3, #0
    3116:	75fb      	strb	r3, [r7, #23]
    3118:	2000      	movs	r0, #0
    311a:	f7fe fbdd 	bl	18d8 <app_util_critical_region_enter>
    311e:	68fb      	ldr	r3, [r7, #12]
    3120:	791b      	ldrb	r3, [r3, #4]
    3122:	2b00      	cmp	r3, #0
    3124:	d002      	beq.n	312c <nrfx_prs_acquire+0x30>
    3126:	2301      	movs	r3, #1
    3128:	75fb      	strb	r3, [r7, #23]
    312a:	e005      	b.n	3138 <nrfx_prs_acquire+0x3c>
    312c:	68fb      	ldr	r3, [r7, #12]
    312e:	683a      	ldr	r2, [r7, #0]
    3130:	601a      	str	r2, [r3, #0]
    3132:	68fb      	ldr	r3, [r7, #12]
    3134:	2201      	movs	r2, #1
    3136:	711a      	strb	r2, [r3, #4]
    3138:	2000      	movs	r0, #0
    313a:	f7fe fbd7 	bl	18ec <app_util_critical_region_exit>
    313e:	7dfb      	ldrb	r3, [r7, #23]
    3140:	2b00      	cmp	r3, #0
    3142:	d003      	beq.n	314c <nrfx_prs_acquire+0x50>
    3144:	2311      	movs	r3, #17
    3146:	613b      	str	r3, [r7, #16]
    3148:	693b      	ldr	r3, [r7, #16]
    314a:	e002      	b.n	3152 <nrfx_prs_acquire+0x56>
    314c:	2300      	movs	r3, #0
    314e:	613b      	str	r3, [r7, #16]
    3150:	693b      	ldr	r3, [r7, #16]
    3152:	4618      	mov	r0, r3
    3154:	3718      	adds	r7, #24
    3156:	46bd      	mov	sp, r7
    3158:	bd80      	pop	{r7, pc}

0000315a <nrfx_prs_release>:
    315a:	b580      	push	{r7, lr}
    315c:	b084      	sub	sp, #16
    315e:	af00      	add	r7, sp, #0
    3160:	6078      	str	r0, [r7, #4]
    3162:	6878      	ldr	r0, [r7, #4]
    3164:	f7ff ffb4 	bl	30d0 <prs_box_get>
    3168:	60f8      	str	r0, [r7, #12]
    316a:	68fb      	ldr	r3, [r7, #12]
    316c:	2b00      	cmp	r3, #0
    316e:	d005      	beq.n	317c <nrfx_prs_release+0x22>
    3170:	68fb      	ldr	r3, [r7, #12]
    3172:	2200      	movs	r2, #0
    3174:	601a      	str	r2, [r3, #0]
    3176:	68fb      	ldr	r3, [r7, #12]
    3178:	2200      	movs	r2, #0
    317a:	711a      	strb	r2, [r3, #4]
    317c:	bf00      	nop
    317e:	3710      	adds	r7, #16
    3180:	46bd      	mov	sp, r7
    3182:	bd80      	pop	{r7, pc}

00003184 <__NVIC_EnableIRQ>:
    3184:	b480      	push	{r7}
    3186:	b083      	sub	sp, #12
    3188:	af00      	add	r7, sp, #0
    318a:	4603      	mov	r3, r0
    318c:	71fb      	strb	r3, [r7, #7]
    318e:	f997 3007 	ldrsb.w	r3, [r7, #7]
    3192:	2b00      	cmp	r3, #0
    3194:	db0b      	blt.n	31ae <__NVIC_EnableIRQ+0x2a>
    3196:	79fb      	ldrb	r3, [r7, #7]
    3198:	f003 021f 	and.w	r2, r3, #31
    319c:	4907      	ldr	r1, [pc, #28]	; (31bc <__NVIC_EnableIRQ+0x38>)
    319e:	f997 3007 	ldrsb.w	r3, [r7, #7]
    31a2:	095b      	lsrs	r3, r3, #5
    31a4:	2001      	movs	r0, #1
    31a6:	fa00 f202 	lsl.w	r2, r0, r2
    31aa:	f841 2023 	str.w	r2, [r1, r3, lsl #2]
    31ae:	bf00      	nop
    31b0:	370c      	adds	r7, #12
    31b2:	46bd      	mov	sp, r7
    31b4:	f85d 7b04 	ldr.w	r7, [sp], #4
    31b8:	4770      	bx	lr
    31ba:	bf00      	nop
    31bc:	e000e100 	.word	0xe000e100

000031c0 <__NVIC_DisableIRQ>:
    31c0:	b480      	push	{r7}
    31c2:	b083      	sub	sp, #12
    31c4:	af00      	add	r7, sp, #0
    31c6:	4603      	mov	r3, r0
    31c8:	71fb      	strb	r3, [r7, #7]
    31ca:	f997 3007 	ldrsb.w	r3, [r7, #7]
    31ce:	2b00      	cmp	r3, #0
    31d0:	db12      	blt.n	31f8 <__NVIC_DisableIRQ+0x38>
    31d2:	79fb      	ldrb	r3, [r7, #7]
    31d4:	f003 021f 	and.w	r2, r3, #31
    31d8:	490a      	ldr	r1, [pc, #40]	; (3204 <__NVIC_DisableIRQ+0x44>)
    31da:	f997 3007 	ldrsb.w	r3, [r7, #7]
    31de:	095b      	lsrs	r3, r3, #5
    31e0:	2001      	movs	r0, #1
    31e2:	fa00 f202 	lsl.w	r2, r0, r2
    31e6:	3320      	adds	r3, #32
    31e8:	f841 2023 	str.w	r2, [r1, r3, lsl #2]
    31ec:	f3bf 8f4f 	dsb	sy
    31f0:	bf00      	nop
    31f2:	f3bf 8f6f 	isb	sy
    31f6:	bf00      	nop
    31f8:	bf00      	nop
    31fa:	370c      	adds	r7, #12
    31fc:	46bd      	mov	sp, r7
    31fe:	f85d 7b04 	ldr.w	r7, [sp], #4
    3202:	4770      	bx	lr
    3204:	e000e100 	.word	0xe000e100

00003208 <__NVIC_SetPriority>:
    3208:	b480      	push	{r7}
    320a:	b083      	sub	sp, #12
    320c:	af00      	add	r7, sp, #0
    320e:	4603      	mov	r3, r0
    3210:	6039      	str	r1, [r7, #0]
    3212:	71fb      	strb	r3, [r7, #7]
    3214:	f997 3007 	ldrsb.w	r3, [r7, #7]
    3218:	2b00      	cmp	r3, #0
    321a:	db0a      	blt.n	3232 <__NVIC_SetPriority+0x2a>
    321c:	683b      	ldr	r3, [r7, #0]
    321e:	b2da      	uxtb	r2, r3
    3220:	490c      	ldr	r1, [pc, #48]	; (3254 <__NVIC_SetPriority+0x4c>)
    3222:	f997 3007 	ldrsb.w	r3, [r7, #7]
    3226:	0152      	lsls	r2, r2, #5
    3228:	b2d2      	uxtb	r2, r2
    322a:	440b      	add	r3, r1
    322c:	f883 2300 	strb.w	r2, [r3, #768]	; 0x300
    3230:	e00a      	b.n	3248 <__NVIC_SetPriority+0x40>
    3232:	683b      	ldr	r3, [r7, #0]
    3234:	b2da      	uxtb	r2, r3
    3236:	4908      	ldr	r1, [pc, #32]	; (3258 <__NVIC_SetPriority+0x50>)
    3238:	79fb      	ldrb	r3, [r7, #7]
    323a:	f003 030f 	and.w	r3, r3, #15
    323e:	3b04      	subs	r3, #4
    3240:	0152      	lsls	r2, r2, #5
    3242:	b2d2      	uxtb	r2, r2
    3244:	440b      	add	r3, r1
    3246:	761a      	strb	r2, [r3, #24]
    3248:	bf00      	nop
    324a:	370c      	adds	r7, #12
    324c:	46bd      	mov	sp, r7
    324e:	f85d 7b04 	ldr.w	r7, [sp], #4
    3252:	4770      	bx	lr
    3254:	e000e100 	.word	0xe000e100
    3258:	e000ed00 	.word	0xe000ed00

0000325c <nrfx_get_irq_number>:
    325c:	b480      	push	{r7}
    325e:	b083      	sub	sp, #12
    3260:	af00      	add	r7, sp, #0
    3262:	6078      	str	r0, [r7, #4]
    3264:	687b      	ldr	r3, [r7, #4]
    3266:	0b1b      	lsrs	r3, r3, #12
    3268:	b25b      	sxtb	r3, r3
    326a:	4618      	mov	r0, r3
    326c:	370c      	adds	r7, #12
    326e:	46bd      	mov	sp, r7
    3270:	f85d 7b04 	ldr.w	r7, [sp], #4
    3274:	4770      	bx	lr

00003276 <_NRFX_IRQ_PRIORITY_SET>:
    3276:	b580      	push	{r7, lr}
    3278:	b082      	sub	sp, #8
    327a:	af00      	add	r7, sp, #0
    327c:	4603      	mov	r3, r0
    327e:	460a      	mov	r2, r1
    3280:	71fb      	strb	r3, [r7, #7]
    3282:	4613      	mov	r3, r2
    3284:	71bb      	strb	r3, [r7, #6]
    3286:	79ba      	ldrb	r2, [r7, #6]
    3288:	f997 3007 	ldrsb.w	r3, [r7, #7]
    328c:	4611      	mov	r1, r2
    328e:	4618      	mov	r0, r3
    3290:	f7ff ffba 	bl	3208 <__NVIC_SetPriority>
    3294:	bf00      	nop
    3296:	3708      	adds	r7, #8
    3298:	46bd      	mov	sp, r7
    329a:	bd80      	pop	{r7, pc}

0000329c <_NRFX_IRQ_ENABLE>:
    329c:	b580      	push	{r7, lr}
    329e:	b082      	sub	sp, #8
    32a0:	af00      	add	r7, sp, #0
    32a2:	4603      	mov	r3, r0
    32a4:	71fb      	strb	r3, [r7, #7]
    32a6:	f997 3007 	ldrsb.w	r3, [r7, #7]
    32aa:	4618      	mov	r0, r3
    32ac:	f7ff ff6a 	bl	3184 <__NVIC_EnableIRQ>
    32b0:	bf00      	nop
    32b2:	3708      	adds	r7, #8
    32b4:	46bd      	mov	sp, r7
    32b6:	bd80      	pop	{r7, pc}

000032b8 <_NRFX_IRQ_DISABLE>:
    32b8:	b580      	push	{r7, lr}
    32ba:	b082      	sub	sp, #8
    32bc:	af00      	add	r7, sp, #0
    32be:	4603      	mov	r3, r0
    32c0:	71fb      	strb	r3, [r7, #7]
    32c2:	f997 3007 	ldrsb.w	r3, [r7, #7]
    32c6:	4618      	mov	r0, r3
    32c8:	f7ff ff7a 	bl	31c0 <__NVIC_DisableIRQ>
    32cc:	bf00      	nop
    32ce:	3708      	adds	r7, #8
    32d0:	46bd      	mov	sp, r7
    32d2:	bd80      	pop	{r7, pc}

000032d4 <nrf_uart_event_clear>:
    32d4:	b480      	push	{r7}
    32d6:	b085      	sub	sp, #20
    32d8:	af00      	add	r7, sp, #0
    32da:	6078      	str	r0, [r7, #4]
    32dc:	460b      	mov	r3, r1
    32de:	807b      	strh	r3, [r7, #2]
    32e0:	887b      	ldrh	r3, [r7, #2]
    32e2:	687a      	ldr	r2, [r7, #4]
    32e4:	4413      	add	r3, r2
    32e6:	2200      	movs	r2, #0
    32e8:	601a      	str	r2, [r3, #0]
    32ea:	887b      	ldrh	r3, [r7, #2]
    32ec:	687a      	ldr	r2, [r7, #4]
    32ee:	4413      	add	r3, r2
    32f0:	681b      	ldr	r3, [r3, #0]
    32f2:	60fb      	str	r3, [r7, #12]
    32f4:	68fb      	ldr	r3, [r7, #12]
    32f6:	bf00      	nop
    32f8:	3714      	adds	r7, #20
    32fa:	46bd      	mov	sp, r7
    32fc:	f85d 7b04 	ldr.w	r7, [sp], #4
    3300:	4770      	bx	lr

00003302 <nrf_uart_event_check>:
    3302:	b480      	push	{r7}
    3304:	b083      	sub	sp, #12
    3306:	af00      	add	r7, sp, #0
    3308:	6078      	str	r0, [r7, #4]
    330a:	460b      	mov	r3, r1
    330c:	807b      	strh	r3, [r7, #2]
    330e:	887b      	ldrh	r3, [r7, #2]
    3310:	687a      	ldr	r2, [r7, #4]
    3312:	4413      	add	r3, r2
    3314:	681b      	ldr	r3, [r3, #0]
    3316:	2b00      	cmp	r3, #0
    3318:	bf14      	ite	ne
    331a:	2301      	movne	r3, #1
    331c:	2300      	moveq	r3, #0
    331e:	b2db      	uxtb	r3, r3
    3320:	4618      	mov	r0, r3
    3322:	370c      	adds	r7, #12
    3324:	46bd      	mov	sp, r7
    3326:	f85d 7b04 	ldr.w	r7, [sp], #4
    332a:	4770      	bx	lr

0000332c <nrf_uart_int_enable>:
    332c:	b480      	push	{r7}
    332e:	b083      	sub	sp, #12
    3330:	af00      	add	r7, sp, #0
    3332:	6078      	str	r0, [r7, #4]
    3334:	6039      	str	r1, [r7, #0]
    3336:	687b      	ldr	r3, [r7, #4]
    3338:	683a      	ldr	r2, [r7, #0]
    333a:	f8c3 2304 	str.w	r2, [r3, #772]	; 0x304
    333e:	bf00      	nop
    3340:	370c      	adds	r7, #12
    3342:	46bd      	mov	sp, r7
    3344:	f85d 7b04 	ldr.w	r7, [sp], #4
    3348:	4770      	bx	lr

0000334a <nrf_uart_int_enable_check>:
    334a:	b480      	push	{r7}
    334c:	b083      	sub	sp, #12
    334e:	af00      	add	r7, sp, #0
    3350:	6078      	str	r0, [r7, #4]
    3352:	6039      	str	r1, [r7, #0]
    3354:	687b      	ldr	r3, [r7, #4]
    3356:	f8d3 2304 	ldr.w	r2, [r3, #772]	; 0x304
    335a:	683b      	ldr	r3, [r7, #0]
    335c:	4013      	ands	r3, r2
    335e:	2b00      	cmp	r3, #0
    3360:	bf14      	ite	ne
    3362:	2301      	movne	r3, #1
    3364:	2300      	moveq	r3, #0
    3366:	b2db      	uxtb	r3, r3
    3368:	4618      	mov	r0, r3
    336a:	370c      	adds	r7, #12
    336c:	46bd      	mov	sp, r7
    336e:	f85d 7b04 	ldr.w	r7, [sp], #4
    3372:	4770      	bx	lr

00003374 <nrf_uart_int_disable>:
    3374:	b480      	push	{r7}
    3376:	b083      	sub	sp, #12
    3378:	af00      	add	r7, sp, #0
    337a:	6078      	str	r0, [r7, #4]
    337c:	6039      	str	r1, [r7, #0]
    337e:	687b      	ldr	r3, [r7, #4]
    3380:	683a      	ldr	r2, [r7, #0]
    3382:	f8c3 2308 	str.w	r2, [r3, #776]	; 0x308
    3386:	bf00      	nop
    3388:	370c      	adds	r7, #12
    338a:	46bd      	mov	sp, r7
    338c:	f85d 7b04 	ldr.w	r7, [sp], #4
    3390:	4770      	bx	lr

00003392 <nrf_uart_errorsrc_get_and_clear>:
    3392:	b480      	push	{r7}
    3394:	b085      	sub	sp, #20
    3396:	af00      	add	r7, sp, #0
    3398:	6078      	str	r0, [r7, #4]
    339a:	687b      	ldr	r3, [r7, #4]
    339c:	f8d3 3480 	ldr.w	r3, [r3, #1152]	; 0x480
    33a0:	60fb      	str	r3, [r7, #12]
    33a2:	687b      	ldr	r3, [r7, #4]
    33a4:	68fa      	ldr	r2, [r7, #12]
    33a6:	f8c3 2480 	str.w	r2, [r3, #1152]	; 0x480
    33aa:	68fb      	ldr	r3, [r7, #12]
    33ac:	4618      	mov	r0, r3
    33ae:	3714      	adds	r7, #20
    33b0:	46bd      	mov	sp, r7
    33b2:	f85d 7b04 	ldr.w	r7, [sp], #4
    33b6:	4770      	bx	lr

000033b8 <nrf_uart_enable>:
    33b8:	b480      	push	{r7}
    33ba:	b083      	sub	sp, #12
    33bc:	af00      	add	r7, sp, #0
    33be:	6078      	str	r0, [r7, #4]
    33c0:	687b      	ldr	r3, [r7, #4]
    33c2:	2204      	movs	r2, #4
    33c4:	f8c3 2500 	str.w	r2, [r3, #1280]	; 0x500
    33c8:	bf00      	nop
    33ca:	370c      	adds	r7, #12
    33cc:	46bd      	mov	sp, r7
    33ce:	f85d 7b04 	ldr.w	r7, [sp], #4
    33d2:	4770      	bx	lr

000033d4 <nrf_uart_disable>:
    33d4:	b480      	push	{r7}
    33d6:	b083      	sub	sp, #12
    33d8:	af00      	add	r7, sp, #0
    33da:	6078      	str	r0, [r7, #4]
    33dc:	687b      	ldr	r3, [r7, #4]
    33de:	2200      	movs	r2, #0
    33e0:	f8c3 2500 	str.w	r2, [r3, #1280]	; 0x500
    33e4:	bf00      	nop
    33e6:	370c      	adds	r7, #12
    33e8:	46bd      	mov	sp, r7
    33ea:	f85d 7b04 	ldr.w	r7, [sp], #4
    33ee:	4770      	bx	lr

000033f0 <nrf_uart_txrx_pins_set>:
    33f0:	b480      	push	{r7}
    33f2:	b085      	sub	sp, #20
    33f4:	af00      	add	r7, sp, #0
    33f6:	60f8      	str	r0, [r7, #12]
    33f8:	60b9      	str	r1, [r7, #8]
    33fa:	607a      	str	r2, [r7, #4]
    33fc:	68fb      	ldr	r3, [r7, #12]
    33fe:	687a      	ldr	r2, [r7, #4]
    3400:	f8c3 2514 	str.w	r2, [r3, #1300]	; 0x514
    3404:	68fb      	ldr	r3, [r7, #12]
    3406:	68ba      	ldr	r2, [r7, #8]
    3408:	f8c3 250c 	str.w	r2, [r3, #1292]	; 0x50c
    340c:	bf00      	nop
    340e:	3714      	adds	r7, #20
    3410:	46bd      	mov	sp, r7
    3412:	f85d 7b04 	ldr.w	r7, [sp], #4
    3416:	4770      	bx	lr

00003418 <nrf_uart_txrx_pins_disconnect>:
    3418:	b580      	push	{r7, lr}
    341a:	b082      	sub	sp, #8
    341c:	af00      	add	r7, sp, #0
    341e:	6078      	str	r0, [r7, #4]
    3420:	f04f 32ff 	mov.w	r2, #4294967295	; 0xffffffff
    3424:	f04f 31ff 	mov.w	r1, #4294967295	; 0xffffffff
    3428:	6878      	ldr	r0, [r7, #4]
    342a:	f7ff ffe1 	bl	33f0 <nrf_uart_txrx_pins_set>
    342e:	bf00      	nop
    3430:	3708      	adds	r7, #8
    3432:	46bd      	mov	sp, r7
    3434:	bd80      	pop	{r7, pc}

00003436 <nrf_uart_tx_pin_get>:
    3436:	b480      	push	{r7}
    3438:	b083      	sub	sp, #12
    343a:	af00      	add	r7, sp, #0
    343c:	6078      	str	r0, [r7, #4]
    343e:	687b      	ldr	r3, [r7, #4]
    3440:	f8d3 350c 	ldr.w	r3, [r3, #1292]	; 0x50c
    3444:	4618      	mov	r0, r3
    3446:	370c      	adds	r7, #12
    3448:	46bd      	mov	sp, r7
    344a:	f85d 7b04 	ldr.w	r7, [sp], #4
    344e:	4770      	bx	lr

00003450 <nrf_uart_rx_pin_get>:
    3450:	b480      	push	{r7}
    3452:	b083      	sub	sp, #12
    3454:	af00      	add	r7, sp, #0
    3456:	6078      	str	r0, [r7, #4]
    3458:	687b      	ldr	r3, [r7, #4]
    345a:	f8d3 3514 	ldr.w	r3, [r3, #1300]	; 0x514
    345e:	4618      	mov	r0, r3
    3460:	370c      	adds	r7, #12
    3462:	46bd      	mov	sp, r7
    3464:	f85d 7b04 	ldr.w	r7, [sp], #4
    3468:	4770      	bx	lr

0000346a <nrf_uart_rts_pin_get>:
    346a:	b480      	push	{r7}
    346c:	b083      	sub	sp, #12
    346e:	af00      	add	r7, sp, #0
    3470:	6078      	str	r0, [r7, #4]
    3472:	687b      	ldr	r3, [r7, #4]
    3474:	f8d3 3508 	ldr.w	r3, [r3, #1288]	; 0x508
    3478:	4618      	mov	r0, r3
    347a:	370c      	adds	r7, #12
    347c:	46bd      	mov	sp, r7
    347e:	f85d 7b04 	ldr.w	r7, [sp], #4
    3482:	4770      	bx	lr

00003484 <nrf_uart_cts_pin_get>:
    3484:	b480      	push	{r7}
    3486:	b083      	sub	sp, #12
    3488:	af00      	add	r7, sp, #0
    348a:	6078      	str	r0, [r7, #4]
    348c:	687b      	ldr	r3, [r7, #4]
    348e:	f8d3 3510 	ldr.w	r3, [r3, #1296]	; 0x510
    3492:	4618      	mov	r0, r3
    3494:	370c      	adds	r7, #12
    3496:	46bd      	mov	sp, r7
    3498:	f85d 7b04 	ldr.w	r7, [sp], #4
    349c:	4770      	bx	lr

0000349e <nrf_uart_hwfc_pins_set>:
    349e:	b480      	push	{r7}
    34a0:	b085      	sub	sp, #20
    34a2:	af00      	add	r7, sp, #0
    34a4:	60f8      	str	r0, [r7, #12]
    34a6:	60b9      	str	r1, [r7, #8]
    34a8:	607a      	str	r2, [r7, #4]
    34aa:	68fb      	ldr	r3, [r7, #12]
    34ac:	68ba      	ldr	r2, [r7, #8]
    34ae:	f8c3 2508 	str.w	r2, [r3, #1288]	; 0x508
    34b2:	68fb      	ldr	r3, [r7, #12]
    34b4:	687a      	ldr	r2, [r7, #4]
    34b6:	f8c3 2510 	str.w	r2, [r3, #1296]	; 0x510
    34ba:	bf00      	nop
    34bc:	3714      	adds	r7, #20
    34be:	46bd      	mov	sp, r7
    34c0:	f85d 7b04 	ldr.w	r7, [sp], #4
    34c4:	4770      	bx	lr

000034c6 <nrf_uart_hwfc_pins_disconnect>:
    34c6:	b580      	push	{r7, lr}
    34c8:	b082      	sub	sp, #8
    34ca:	af00      	add	r7, sp, #0
    34cc:	6078      	str	r0, [r7, #4]
    34ce:	f04f 32ff 	mov.w	r2, #4294967295	; 0xffffffff
    34d2:	f04f 31ff 	mov.w	r1, #4294967295	; 0xffffffff
    34d6:	6878      	ldr	r0, [r7, #4]
    34d8:	f7ff ffe1 	bl	349e <nrf_uart_hwfc_pins_set>
    34dc:	bf00      	nop
    34de:	3708      	adds	r7, #8
    34e0:	46bd      	mov	sp, r7
    34e2:	bd80      	pop	{r7, pc}

000034e4 <nrf_uart_rxd_get>:
    34e4:	b480      	push	{r7}
    34e6:	b083      	sub	sp, #12
    34e8:	af00      	add	r7, sp, #0
    34ea:	6078      	str	r0, [r7, #4]
    34ec:	687b      	ldr	r3, [r7, #4]
    34ee:	f8d3 3518 	ldr.w	r3, [r3, #1304]	; 0x518
    34f2:	b2db      	uxtb	r3, r3
    34f4:	4618      	mov	r0, r3
    34f6:	370c      	adds	r7, #12
    34f8:	46bd      	mov	sp, r7
    34fa:	f85d 7b04 	ldr.w	r7, [sp], #4
    34fe:	4770      	bx	lr

00003500 <nrf_uart_txd_set>:
    3500:	b480      	push	{r7}
    3502:	b083      	sub	sp, #12
    3504:	af00      	add	r7, sp, #0
    3506:	6078      	str	r0, [r7, #4]
    3508:	460b      	mov	r3, r1
    350a:	70fb      	strb	r3, [r7, #3]
    350c:	78fa      	ldrb	r2, [r7, #3]
    350e:	687b      	ldr	r3, [r7, #4]
    3510:	f8c3 251c 	str.w	r2, [r3, #1308]	; 0x51c
    3514:	bf00      	nop
    3516:	370c      	adds	r7, #12
    3518:	46bd      	mov	sp, r7
    351a:	f85d 7b04 	ldr.w	r7, [sp], #4
    351e:	4770      	bx	lr

00003520 <nrf_uart_task_trigger>:
    3520:	b480      	push	{r7}
    3522:	b083      	sub	sp, #12
    3524:	af00      	add	r7, sp, #0
    3526:	6078      	str	r0, [r7, #4]
    3528:	460b      	mov	r3, r1
    352a:	70fb      	strb	r3, [r7, #3]
    352c:	78fb      	ldrb	r3, [r7, #3]
    352e:	687a      	ldr	r2, [r7, #4]
    3530:	4413      	add	r3, r2
    3532:	2201      	movs	r2, #1
    3534:	601a      	str	r2, [r3, #0]
    3536:	bf00      	nop
    3538:	370c      	adds	r7, #12
    353a:	46bd      	mov	sp, r7
    353c:	f85d 7b04 	ldr.w	r7, [sp], #4
    3540:	4770      	bx	lr

00003542 <nrf_uart_configure>:
    3542:	b480      	push	{r7}
    3544:	b083      	sub	sp, #12
    3546:	af00      	add	r7, sp, #0
    3548:	6078      	str	r0, [r7, #4]
    354a:	460b      	mov	r3, r1
    354c:	70fb      	strb	r3, [r7, #3]
    354e:	4613      	mov	r3, r2
    3550:	70bb      	strb	r3, [r7, #2]
    3552:	78fa      	ldrb	r2, [r7, #3]
    3554:	78bb      	ldrb	r3, [r7, #2]
    3556:	4313      	orrs	r3, r2
    3558:	b2db      	uxtb	r3, r3
    355a:	461a      	mov	r2, r3
    355c:	687b      	ldr	r3, [r7, #4]
    355e:	f8c3 256c 	str.w	r2, [r3, #1388]	; 0x56c
    3562:	bf00      	nop
    3564:	370c      	adds	r7, #12
    3566:	46bd      	mov	sp, r7
    3568:	f85d 7b04 	ldr.w	r7, [sp], #4
    356c:	4770      	bx	lr

0000356e <nrf_uart_baudrate_set>:
    356e:	b480      	push	{r7}
    3570:	b083      	sub	sp, #12
    3572:	af00      	add	r7, sp, #0
    3574:	6078      	str	r0, [r7, #4]
    3576:	6039      	str	r1, [r7, #0]
    3578:	687b      	ldr	r3, [r7, #4]
    357a:	683a      	ldr	r2, [r7, #0]
    357c:	f8c3 2524 	str.w	r2, [r3, #1316]	; 0x524
    3580:	bf00      	nop
    3582:	370c      	adds	r7, #12
    3584:	46bd      	mov	sp, r7
    3586:	f85d 7b04 	ldr.w	r7, [sp], #4
    358a:	4770      	bx	lr

0000358c <nrf_gpio_pin_port_decode>:
    358c:	b480      	push	{r7}
    358e:	b083      	sub	sp, #12
    3590:	af00      	add	r7, sp, #0
    3592:	6078      	str	r0, [r7, #4]
    3594:	f04f 43a0 	mov.w	r3, #1342177280	; 0x50000000
    3598:	4618      	mov	r0, r3
    359a:	370c      	adds	r7, #12
    359c:	46bd      	mov	sp, r7
    359e:	f85d 7b04 	ldr.w	r7, [sp], #4
    35a2:	4770      	bx	lr

000035a4 <nrf_gpio_cfg>:
    35a4:	b580      	push	{r7, lr}
    35a6:	b084      	sub	sp, #16
    35a8:	af00      	add	r7, sp, #0
    35aa:	6078      	str	r0, [r7, #4]
    35ac:	4608      	mov	r0, r1
    35ae:	4611      	mov	r1, r2
    35b0:	461a      	mov	r2, r3
    35b2:	4603      	mov	r3, r0
    35b4:	70fb      	strb	r3, [r7, #3]
    35b6:	460b      	mov	r3, r1
    35b8:	70bb      	strb	r3, [r7, #2]
    35ba:	4613      	mov	r3, r2
    35bc:	707b      	strb	r3, [r7, #1]
    35be:	1d3b      	adds	r3, r7, #4
    35c0:	4618      	mov	r0, r3
    35c2:	f7ff ffe3 	bl	358c <nrf_gpio_pin_port_decode>
    35c6:	60f8      	str	r0, [r7, #12]
    35c8:	78fa      	ldrb	r2, [r7, #3]
    35ca:	78bb      	ldrb	r3, [r7, #2]
    35cc:	005b      	lsls	r3, r3, #1
    35ce:	431a      	orrs	r2, r3
    35d0:	787b      	ldrb	r3, [r7, #1]
    35d2:	009b      	lsls	r3, r3, #2
    35d4:	431a      	orrs	r2, r3
    35d6:	7e3b      	ldrb	r3, [r7, #24]
    35d8:	021b      	lsls	r3, r3, #8
    35da:	ea42 0103 	orr.w	r1, r2, r3
    35de:	7f3b      	ldrb	r3, [r7, #28]
    35e0:	041b      	lsls	r3, r3, #16
    35e2:	687a      	ldr	r2, [r7, #4]
    35e4:	4319      	orrs	r1, r3
    35e6:	68fb      	ldr	r3, [r7, #12]
    35e8:	f502 72e0 	add.w	r2, r2, #448	; 0x1c0
    35ec:	f843 1022 	str.w	r1, [r3, r2, lsl #2]
    35f0:	bf00      	nop
    35f2:	3710      	adds	r7, #16
    35f4:	46bd      	mov	sp, r7
    35f6:	bd80      	pop	{r7, pc}

000035f8 <nrf_gpio_cfg_output>:
    35f8:	b580      	push	{r7, lr}
    35fa:	b084      	sub	sp, #16
    35fc:	af02      	add	r7, sp, #8
    35fe:	6078      	str	r0, [r7, #4]
    3600:	2300      	movs	r3, #0
    3602:	9301      	str	r3, [sp, #4]
    3604:	2300      	movs	r3, #0
    3606:	9300      	str	r3, [sp, #0]
    3608:	2300      	movs	r3, #0
    360a:	2201      	movs	r2, #1
    360c:	2101      	movs	r1, #1
    360e:	6878      	ldr	r0, [r7, #4]
    3610:	f7ff ffc8 	bl	35a4 <nrf_gpio_cfg>
    3614:	bf00      	nop
    3616:	3708      	adds	r7, #8
    3618:	46bd      	mov	sp, r7
    361a:	bd80      	pop	{r7, pc}

0000361c <nrf_gpio_cfg_input>:
    361c:	b580      	push	{r7, lr}
    361e:	b084      	sub	sp, #16
    3620:	af02      	add	r7, sp, #8
    3622:	6078      	str	r0, [r7, #4]
    3624:	460b      	mov	r3, r1
    3626:	70fb      	strb	r3, [r7, #3]
    3628:	78fb      	ldrb	r3, [r7, #3]
    362a:	2200      	movs	r2, #0
    362c:	9201      	str	r2, [sp, #4]
    362e:	2200      	movs	r2, #0
    3630:	9200      	str	r2, [sp, #0]
    3632:	2200      	movs	r2, #0
    3634:	2100      	movs	r1, #0
    3636:	6878      	ldr	r0, [r7, #4]
    3638:	f7ff ffb4 	bl	35a4 <nrf_gpio_cfg>
    363c:	bf00      	nop
    363e:	3708      	adds	r7, #8
    3640:	46bd      	mov	sp, r7
    3642:	bd80      	pop	{r7, pc}

00003644 <nrf_gpio_cfg_default>:
    3644:	b580      	push	{r7, lr}
    3646:	b084      	sub	sp, #16
    3648:	af02      	add	r7, sp, #8
    364a:	6078      	str	r0, [r7, #4]
    364c:	2300      	movs	r3, #0
    364e:	9301      	str	r3, [sp, #4]
    3650:	2300      	movs	r3, #0
    3652:	9300      	str	r3, [sp, #0]
    3654:	2300      	movs	r3, #0
    3656:	2201      	movs	r2, #1
    3658:	2100      	movs	r1, #0
    365a:	6878      	ldr	r0, [r7, #4]
    365c:	f7ff ffa2 	bl	35a4 <nrf_gpio_cfg>
    3660:	bf00      	nop
    3662:	3708      	adds	r7, #8
    3664:	46bd      	mov	sp, r7
    3666:	bd80      	pop	{r7, pc}

00003668 <nrf_gpio_pin_set>:
    3668:	b580      	push	{r7, lr}
    366a:	b084      	sub	sp, #16
    366c:	af00      	add	r7, sp, #0
    366e:	6078      	str	r0, [r7, #4]
    3670:	1d3b      	adds	r3, r7, #4
    3672:	4618      	mov	r0, r3
    3674:	f7ff ff8a 	bl	358c <nrf_gpio_pin_port_decode>
    3678:	60f8      	str	r0, [r7, #12]
    367a:	687b      	ldr	r3, [r7, #4]
    367c:	2201      	movs	r2, #1
    367e:	fa02 f303 	lsl.w	r3, r2, r3
    3682:	4619      	mov	r1, r3
    3684:	68f8      	ldr	r0, [r7, #12]
    3686:	f000 f804 	bl	3692 <nrf_gpio_port_out_set>
    368a:	bf00      	nop
    368c:	3710      	adds	r7, #16
    368e:	46bd      	mov	sp, r7
    3690:	bd80      	pop	{r7, pc}

00003692 <nrf_gpio_port_out_set>:
    3692:	b480      	push	{r7}
    3694:	b083      	sub	sp, #12
    3696:	af00      	add	r7, sp, #0
    3698:	6078      	str	r0, [r7, #4]
    369a:	6039      	str	r1, [r7, #0]
    369c:	687b      	ldr	r3, [r7, #4]
    369e:	683a      	ldr	r2, [r7, #0]
    36a0:	f8c3 2508 	str.w	r2, [r3, #1288]	; 0x508
    36a4:	bf00      	nop
    36a6:	370c      	adds	r7, #12
    36a8:	46bd      	mov	sp, r7
    36aa:	f85d 7b04 	ldr.w	r7, [sp], #4
    36ae:	4770      	bx	lr

000036b0 <apply_config>:
    36b0:	b580      	push	{r7, lr}
    36b2:	b082      	sub	sp, #8
    36b4:	af00      	add	r7, sp, #0
    36b6:	6078      	str	r0, [r7, #4]
    36b8:	6039      	str	r1, [r7, #0]
    36ba:	683b      	ldr	r3, [r7, #0]
    36bc:	681b      	ldr	r3, [r3, #0]
    36be:	f1b3 3fff 	cmp.w	r3, #4294967295	; 0xffffffff
    36c2:	d009      	beq.n	36d8 <apply_config+0x28>
    36c4:	683b      	ldr	r3, [r7, #0]
    36c6:	681b      	ldr	r3, [r3, #0]
    36c8:	4618      	mov	r0, r3
    36ca:	f7ff ffcd 	bl	3668 <nrf_gpio_pin_set>
    36ce:	683b      	ldr	r3, [r7, #0]
    36d0:	681b      	ldr	r3, [r3, #0]
    36d2:	4618      	mov	r0, r3
    36d4:	f7ff ff90 	bl	35f8 <nrf_gpio_cfg_output>
    36d8:	683b      	ldr	r3, [r7, #0]
    36da:	685b      	ldr	r3, [r3, #4]
    36dc:	f1b3 3fff 	cmp.w	r3, #4294967295	; 0xffffffff
    36e0:	d005      	beq.n	36ee <apply_config+0x3e>
    36e2:	683b      	ldr	r3, [r7, #0]
    36e4:	685b      	ldr	r3, [r3, #4]
    36e6:	2100      	movs	r1, #0
    36e8:	4618      	mov	r0, r3
    36ea:	f7ff ff97 	bl	361c <nrf_gpio_cfg_input>
    36ee:	687b      	ldr	r3, [r7, #4]
    36f0:	681a      	ldr	r2, [r3, #0]
    36f2:	683b      	ldr	r3, [r7, #0]
    36f4:	699b      	ldr	r3, [r3, #24]
    36f6:	4619      	mov	r1, r3
    36f8:	4610      	mov	r0, r2
    36fa:	f7ff ff38 	bl	356e <nrf_uart_baudrate_set>
    36fe:	687b      	ldr	r3, [r7, #4]
    3700:	6818      	ldr	r0, [r3, #0]
    3702:	683b      	ldr	r3, [r7, #0]
    3704:	7d59      	ldrb	r1, [r3, #21]
    3706:	683b      	ldr	r3, [r7, #0]
    3708:	7d1b      	ldrb	r3, [r3, #20]
    370a:	461a      	mov	r2, r3
    370c:	f7ff ff19 	bl	3542 <nrf_uart_configure>
    3710:	687b      	ldr	r3, [r7, #4]
    3712:	6818      	ldr	r0, [r3, #0]
    3714:	683b      	ldr	r3, [r7, #0]
    3716:	6819      	ldr	r1, [r3, #0]
    3718:	683b      	ldr	r3, [r7, #0]
    371a:	685b      	ldr	r3, [r3, #4]
    371c:	461a      	mov	r2, r3
    371e:	f7ff fe67 	bl	33f0 <nrf_uart_txrx_pins_set>
    3722:	683b      	ldr	r3, [r7, #0]
    3724:	7d1b      	ldrb	r3, [r3, #20]
    3726:	2b01      	cmp	r3, #1
    3728:	d122      	bne.n	3770 <apply_config+0xc0>
    372a:	683b      	ldr	r3, [r7, #0]
    372c:	689b      	ldr	r3, [r3, #8]
    372e:	f1b3 3fff 	cmp.w	r3, #4294967295	; 0xffffffff
    3732:	d005      	beq.n	3740 <apply_config+0x90>
    3734:	683b      	ldr	r3, [r7, #0]
    3736:	689b      	ldr	r3, [r3, #8]
    3738:	2100      	movs	r1, #0
    373a:	4618      	mov	r0, r3
    373c:	f7ff ff6e 	bl	361c <nrf_gpio_cfg_input>
    3740:	683b      	ldr	r3, [r7, #0]
    3742:	68db      	ldr	r3, [r3, #12]
    3744:	f1b3 3fff 	cmp.w	r3, #4294967295	; 0xffffffff
    3748:	d009      	beq.n	375e <apply_config+0xae>
    374a:	683b      	ldr	r3, [r7, #0]
    374c:	68db      	ldr	r3, [r3, #12]
    374e:	4618      	mov	r0, r3
    3750:	f7ff ff8a 	bl	3668 <nrf_gpio_pin_set>
    3754:	683b      	ldr	r3, [r7, #0]
    3756:	68db      	ldr	r3, [r3, #12]
    3758:	4618      	mov	r0, r3
    375a:	f7ff ff4d 	bl	35f8 <nrf_gpio_cfg_output>
    375e:	687b      	ldr	r3, [r7, #4]
    3760:	6818      	ldr	r0, [r3, #0]
    3762:	683b      	ldr	r3, [r7, #0]
    3764:	68d9      	ldr	r1, [r3, #12]
    3766:	683b      	ldr	r3, [r7, #0]
    3768:	689b      	ldr	r3, [r3, #8]
    376a:	461a      	mov	r2, r3
    376c:	f7ff fe97 	bl	349e <nrf_uart_hwfc_pins_set>
    3770:	bf00      	nop
    3772:	3708      	adds	r7, #8
    3774:	46bd      	mov	sp, r7
    3776:	bd80      	pop	{r7, pc}

00003778 <interrupts_enable>:
    3778:	b580      	push	{r7, lr}
    377a:	b082      	sub	sp, #8
    377c:	af00      	add	r7, sp, #0
    377e:	6078      	str	r0, [r7, #4]
    3780:	460b      	mov	r3, r1
    3782:	70fb      	strb	r3, [r7, #3]
    3784:	687b      	ldr	r3, [r7, #4]
    3786:	681b      	ldr	r3, [r3, #0]
    3788:	f44f 718e 	mov.w	r1, #284	; 0x11c
    378c:	4618      	mov	r0, r3
    378e:	f7ff fda1 	bl	32d4 <nrf_uart_event_clear>
    3792:	687b      	ldr	r3, [r7, #4]
    3794:	681b      	ldr	r3, [r3, #0]
    3796:	f44f 71a2 	mov.w	r1, #324	; 0x144
    379a:	4618      	mov	r0, r3
    379c:	f7ff fd9a 	bl	32d4 <nrf_uart_event_clear>
    37a0:	687b      	ldr	r3, [r7, #4]
    37a2:	681b      	ldr	r3, [r3, #0]
    37a4:	490e      	ldr	r1, [pc, #56]	; (37e0 <interrupts_enable+0x68>)
    37a6:	4618      	mov	r0, r3
    37a8:	f7ff fdc0 	bl	332c <nrf_uart_int_enable>
    37ac:	687b      	ldr	r3, [r7, #4]
    37ae:	681b      	ldr	r3, [r3, #0]
    37b0:	4618      	mov	r0, r3
    37b2:	f7ff fd53 	bl	325c <nrfx_get_irq_number>
    37b6:	4603      	mov	r3, r0
    37b8:	461a      	mov	r2, r3
    37ba:	78fb      	ldrb	r3, [r7, #3]
    37bc:	4619      	mov	r1, r3
    37be:	4610      	mov	r0, r2
    37c0:	f7ff fd59 	bl	3276 <_NRFX_IRQ_PRIORITY_SET>
    37c4:	687b      	ldr	r3, [r7, #4]
    37c6:	681b      	ldr	r3, [r3, #0]
    37c8:	4618      	mov	r0, r3
    37ca:	f7ff fd47 	bl	325c <nrfx_get_irq_number>
    37ce:	4603      	mov	r3, r0
    37d0:	4618      	mov	r0, r3
    37d2:	f7ff fd63 	bl	329c <_NRFX_IRQ_ENABLE>
    37d6:	bf00      	nop
    37d8:	3708      	adds	r7, #8
    37da:	46bd      	mov	sp, r7
    37dc:	bd80      	pop	{r7, pc}
    37de:	bf00      	nop
    37e0:	00020080 	.word	0x00020080

000037e4 <interrupts_disable>:
    37e4:	b580      	push	{r7, lr}
    37e6:	b082      	sub	sp, #8
    37e8:	af00      	add	r7, sp, #0
    37ea:	6078      	str	r0, [r7, #4]
    37ec:	687b      	ldr	r3, [r7, #4]
    37ee:	681b      	ldr	r3, [r3, #0]
    37f0:	4908      	ldr	r1, [pc, #32]	; (3814 <interrupts_disable+0x30>)
    37f2:	4618      	mov	r0, r3
    37f4:	f7ff fdbe 	bl	3374 <nrf_uart_int_disable>
    37f8:	687b      	ldr	r3, [r7, #4]
    37fa:	681b      	ldr	r3, [r3, #0]
    37fc:	4618      	mov	r0, r3
    37fe:	f7ff fd2d 	bl	325c <nrfx_get_irq_number>
    3802:	4603      	mov	r3, r0
    3804:	4618      	mov	r0, r3
    3806:	f7ff fd57 	bl	32b8 <_NRFX_IRQ_DISABLE>
    380a:	bf00      	nop
    380c:	3708      	adds	r7, #8
    380e:	46bd      	mov	sp, r7
    3810:	bd80      	pop	{r7, pc}
    3812:	bf00      	nop
    3814:	00020284 	.word	0x00020284

00003818 <pins_to_default>:
    3818:	b580      	push	{r7, lr}
    381a:	b086      	sub	sp, #24
    381c:	af00      	add	r7, sp, #0
    381e:	6078      	str	r0, [r7, #4]
    3820:	687b      	ldr	r3, [r7, #4]
    3822:	681b      	ldr	r3, [r3, #0]
    3824:	4618      	mov	r0, r3
    3826:	f7ff fe06 	bl	3436 <nrf_uart_tx_pin_get>
    382a:	6178      	str	r0, [r7, #20]
    382c:	687b      	ldr	r3, [r7, #4]
    382e:	681b      	ldr	r3, [r3, #0]
    3830:	4618      	mov	r0, r3
    3832:	f7ff fe0d 	bl	3450 <nrf_uart_rx_pin_get>
    3836:	6138      	str	r0, [r7, #16]
    3838:	687b      	ldr	r3, [r7, #4]
    383a:	681b      	ldr	r3, [r3, #0]
    383c:	4618      	mov	r0, r3
    383e:	f7ff fe14 	bl	346a <nrf_uart_rts_pin_get>
    3842:	60f8      	str	r0, [r7, #12]
    3844:	687b      	ldr	r3, [r7, #4]
    3846:	681b      	ldr	r3, [r3, #0]
    3848:	4618      	mov	r0, r3
    384a:	f7ff fe1b 	bl	3484 <nrf_uart_cts_pin_get>
    384e:	60b8      	str	r0, [r7, #8]
    3850:	687b      	ldr	r3, [r7, #4]
    3852:	681b      	ldr	r3, [r3, #0]
    3854:	4618      	mov	r0, r3
    3856:	f7ff fddf 	bl	3418 <nrf_uart_txrx_pins_disconnect>
    385a:	687b      	ldr	r3, [r7, #4]
    385c:	681b      	ldr	r3, [r3, #0]
    385e:	4618      	mov	r0, r3
    3860:	f7ff fe31 	bl	34c6 <nrf_uart_hwfc_pins_disconnect>
    3864:	697b      	ldr	r3, [r7, #20]
    3866:	f1b3 3fff 	cmp.w	r3, #4294967295	; 0xffffffff
    386a:	d002      	beq.n	3872 <pins_to_default+0x5a>
    386c:	6978      	ldr	r0, [r7, #20]
    386e:	f7ff fee9 	bl	3644 <nrf_gpio_cfg_default>
    3872:	693b      	ldr	r3, [r7, #16]
    3874:	f1b3 3fff 	cmp.w	r3, #4294967295	; 0xffffffff
    3878:	d002      	beq.n	3880 <pins_to_default+0x68>
    387a:	6938      	ldr	r0, [r7, #16]
    387c:	f7ff fee2 	bl	3644 <nrf_gpio_cfg_default>
    3880:	68bb      	ldr	r3, [r7, #8]
    3882:	f1b3 3fff 	cmp.w	r3, #4294967295	; 0xffffffff
    3886:	d002      	beq.n	388e <pins_to_default+0x76>
    3888:	68b8      	ldr	r0, [r7, #8]
    388a:	f7ff fedb 	bl	3644 <nrf_gpio_cfg_default>
    388e:	68fb      	ldr	r3, [r7, #12]
    3890:	f1b3 3fff 	cmp.w	r3, #4294967295	; 0xffffffff
    3894:	d002      	beq.n	389c <pins_to_default+0x84>
    3896:	68f8      	ldr	r0, [r7, #12]
    3898:	f7ff fed4 	bl	3644 <nrf_gpio_cfg_default>
    389c:	bf00      	nop
    389e:	3718      	adds	r7, #24
    38a0:	46bd      	mov	sp, r7
    38a2:	bd80      	pop	{r7, pc}

000038a4 <nrfx_uart_init>:
    38a4:	b580      	push	{r7, lr}
    38a6:	b086      	sub	sp, #24
    38a8:	af00      	add	r7, sp, #0
    38aa:	60f8      	str	r0, [r7, #12]
    38ac:	60b9      	str	r1, [r7, #8]
    38ae:	607a      	str	r2, [r7, #4]
    38b0:	68fb      	ldr	r3, [r7, #12]
    38b2:	791b      	ldrb	r3, [r3, #4]
    38b4:	461a      	mov	r2, r3
    38b6:	232c      	movs	r3, #44	; 0x2c
    38b8:	fb02 f303 	mul.w	r3, r2, r3
    38bc:	4a28      	ldr	r2, [pc, #160]	; (3960 <nrfx_uart_init+0xbc>)
    38be:	4413      	add	r3, r2
    38c0:	613b      	str	r3, [r7, #16]
    38c2:	2300      	movs	r3, #0
    38c4:	617b      	str	r3, [r7, #20]
    38c6:	693b      	ldr	r3, [r7, #16]
    38c8:	f893 302a 	ldrb.w	r3, [r3, #42]	; 0x2a
    38cc:	2b00      	cmp	r3, #0
    38ce:	d003      	beq.n	38d8 <nrfx_uart_init+0x34>
    38d0:	2308      	movs	r3, #8
    38d2:	617b      	str	r3, [r7, #20]
    38d4:	697b      	ldr	r3, [r7, #20]
    38d6:	e03e      	b.n	3956 <nrfx_uart_init+0xb2>
    38d8:	68fb      	ldr	r3, [r7, #12]
    38da:	681a      	ldr	r2, [r3, #0]
    38dc:	68fb      	ldr	r3, [r7, #12]
    38de:	791b      	ldrb	r3, [r3, #4]
    38e0:	4619      	mov	r1, r3
    38e2:	4b20      	ldr	r3, [pc, #128]	; (3964 <nrfx_uart_init+0xc0>)
    38e4:	f853 3021 	ldr.w	r3, [r3, r1, lsl #2]
    38e8:	4619      	mov	r1, r3
    38ea:	4610      	mov	r0, r2
    38ec:	f7ff fc06 	bl	30fc <nrfx_prs_acquire>
    38f0:	4603      	mov	r3, r0
    38f2:	2b00      	cmp	r3, #0
    38f4:	d003      	beq.n	38fe <nrfx_uart_init+0x5a>
    38f6:	2311      	movs	r3, #17
    38f8:	617b      	str	r3, [r7, #20]
    38fa:	697b      	ldr	r3, [r7, #20]
    38fc:	e02b      	b.n	3956 <nrfx_uart_init+0xb2>
    38fe:	68b9      	ldr	r1, [r7, #8]
    3900:	68f8      	ldr	r0, [r7, #12]
    3902:	f7ff fed5 	bl	36b0 <apply_config>
    3906:	693b      	ldr	r3, [r7, #16]
    3908:	687a      	ldr	r2, [r7, #4]
    390a:	605a      	str	r2, [r3, #4]
    390c:	68bb      	ldr	r3, [r7, #8]
    390e:	691a      	ldr	r2, [r3, #16]
    3910:	693b      	ldr	r3, [r7, #16]
    3912:	601a      	str	r2, [r3, #0]
    3914:	693b      	ldr	r3, [r7, #16]
    3916:	685b      	ldr	r3, [r3, #4]
    3918:	2b00      	cmp	r3, #0
    391a:	d005      	beq.n	3928 <nrfx_uart_init+0x84>
    391c:	68bb      	ldr	r3, [r7, #8]
    391e:	7f1b      	ldrb	r3, [r3, #28]
    3920:	4619      	mov	r1, r3
    3922:	68f8      	ldr	r0, [r7, #12]
    3924:	f7ff ff28 	bl	3778 <interrupts_enable>
    3928:	68fb      	ldr	r3, [r7, #12]
    392a:	681b      	ldr	r3, [r3, #0]
    392c:	4618      	mov	r0, r3
    392e:	f7ff fd43 	bl	33b8 <nrf_uart_enable>
    3932:	693b      	ldr	r3, [r7, #16]
    3934:	2200      	movs	r2, #0
    3936:	619a      	str	r2, [r3, #24]
    3938:	693b      	ldr	r3, [r7, #16]
    393a:	2200      	movs	r2, #0
    393c:	61da      	str	r2, [r3, #28]
    393e:	693b      	ldr	r3, [r7, #16]
    3940:	2200      	movs	r2, #0
    3942:	f883 2029 	strb.w	r2, [r3, #41]	; 0x29
    3946:	693b      	ldr	r3, [r7, #16]
    3948:	2200      	movs	r2, #0
    394a:	615a      	str	r2, [r3, #20]
    394c:	693b      	ldr	r3, [r7, #16]
    394e:	2201      	movs	r2, #1
    3950:	f883 202a 	strb.w	r2, [r3, #42]	; 0x2a
    3954:	697b      	ldr	r3, [r7, #20]
    3956:	4618      	mov	r0, r3
    3958:	3718      	adds	r7, #24
    395a:	46bd      	mov	sp, r7
    395c:	bd80      	pop	{r7, pc}
    395e:	bf00      	nop
    3960:	200006a0 	.word	0x200006a0
    3964:	00005b58 	.word	0x00005b58

00003968 <nrfx_uart_uninit>:
    3968:	b580      	push	{r7, lr}
    396a:	b084      	sub	sp, #16
    396c:	af00      	add	r7, sp, #0
    396e:	6078      	str	r0, [r7, #4]
    3970:	687b      	ldr	r3, [r7, #4]
    3972:	791b      	ldrb	r3, [r3, #4]
    3974:	461a      	mov	r2, r3
    3976:	232c      	movs	r3, #44	; 0x2c
    3978:	fb02 f303 	mul.w	r3, r2, r3
    397c:	4a10      	ldr	r2, [pc, #64]	; (39c0 <nrfx_uart_uninit+0x58>)
    397e:	4413      	add	r3, r2
    3980:	60fb      	str	r3, [r7, #12]
    3982:	687b      	ldr	r3, [r7, #4]
    3984:	681b      	ldr	r3, [r3, #0]
    3986:	4618      	mov	r0, r3
    3988:	f7ff fd24 	bl	33d4 <nrf_uart_disable>
    398c:	68fb      	ldr	r3, [r7, #12]
    398e:	685b      	ldr	r3, [r3, #4]
    3990:	2b00      	cmp	r3, #0
    3992:	d002      	beq.n	399a <nrfx_uart_uninit+0x32>
    3994:	6878      	ldr	r0, [r7, #4]
    3996:	f7ff ff25 	bl	37e4 <interrupts_disable>
    399a:	6878      	ldr	r0, [r7, #4]
    399c:	f7ff ff3c 	bl	3818 <pins_to_default>
    39a0:	687b      	ldr	r3, [r7, #4]
    39a2:	681b      	ldr	r3, [r3, #0]
    39a4:	4618      	mov	r0, r3
    39a6:	f7ff fbd8 	bl	315a <nrfx_prs_release>
    39aa:	68fb      	ldr	r3, [r7, #12]
    39ac:	2200      	movs	r2, #0
    39ae:	f883 202a 	strb.w	r2, [r3, #42]	; 0x2a
    39b2:	68fb      	ldr	r3, [r7, #12]
    39b4:	2200      	movs	r2, #0
    39b6:	605a      	str	r2, [r3, #4]
    39b8:	bf00      	nop
    39ba:	3710      	adds	r7, #16
    39bc:	46bd      	mov	sp, r7
    39be:	bd80      	pop	{r7, pc}
    39c0:	200006a0 	.word	0x200006a0

000039c4 <tx_byte>:
    39c4:	b580      	push	{r7, lr}
    39c6:	b084      	sub	sp, #16
    39c8:	af00      	add	r7, sp, #0
    39ca:	6078      	str	r0, [r7, #4]
    39cc:	6039      	str	r1, [r7, #0]
    39ce:	f44f 718e 	mov.w	r1, #284	; 0x11c
    39d2:	6878      	ldr	r0, [r7, #4]
    39d4:	f7ff fc7e 	bl	32d4 <nrf_uart_event_clear>
    39d8:	683b      	ldr	r3, [r7, #0]
    39da:	689a      	ldr	r2, [r3, #8]
    39dc:	683b      	ldr	r3, [r7, #0]
    39de:	6a1b      	ldr	r3, [r3, #32]
    39e0:	4413      	add	r3, r2
    39e2:	781b      	ldrb	r3, [r3, #0]
    39e4:	73fb      	strb	r3, [r7, #15]
    39e6:	683b      	ldr	r3, [r7, #0]
    39e8:	6a1b      	ldr	r3, [r3, #32]
    39ea:	1c5a      	adds	r2, r3, #1
    39ec:	683b      	ldr	r3, [r7, #0]
    39ee:	621a      	str	r2, [r3, #32]
    39f0:	7bfb      	ldrb	r3, [r7, #15]
    39f2:	4619      	mov	r1, r3
    39f4:	6878      	ldr	r0, [r7, #4]
    39f6:	f7ff fd83 	bl	3500 <nrf_uart_txd_set>
    39fa:	bf00      	nop
    39fc:	3710      	adds	r7, #16
    39fe:	46bd      	mov	sp, r7
    3a00:	bd80      	pop	{r7, pc}

00003a02 <tx_blocking>:
    3a02:	b580      	push	{r7, lr}
    3a04:	b084      	sub	sp, #16
    3a06:	af00      	add	r7, sp, #0
    3a08:	6078      	str	r0, [r7, #4]
    3a0a:	6039      	str	r1, [r7, #0]
    3a0c:	683b      	ldr	r3, [r7, #0]
    3a0e:	695b      	ldr	r3, [r3, #20]
    3a10:	60fb      	str	r3, [r7, #12]
    3a12:	e016      	b.n	3a42 <tx_blocking+0x40>
    3a14:	683b      	ldr	r3, [r7, #0]
    3a16:	f893 3028 	ldrb.w	r3, [r3, #40]	; 0x28
    3a1a:	b2db      	uxtb	r3, r3
    3a1c:	2b00      	cmp	r3, #0
    3a1e:	d001      	beq.n	3a24 <tx_blocking+0x22>
    3a20:	2300      	movs	r3, #0
    3a22:	e014      	b.n	3a4e <tx_blocking+0x4c>
    3a24:	f44f 718e 	mov.w	r1, #284	; 0x11c
    3a28:	6878      	ldr	r0, [r7, #4]
    3a2a:	f7ff fc6a 	bl	3302 <nrf_uart_event_check>
    3a2e:	4603      	mov	r3, r0
    3a30:	f083 0301 	eor.w	r3, r3, #1
    3a34:	b2db      	uxtb	r3, r3
    3a36:	2b00      	cmp	r3, #0
    3a38:	d1ec      	bne.n	3a14 <tx_blocking+0x12>
    3a3a:	6839      	ldr	r1, [r7, #0]
    3a3c:	6878      	ldr	r0, [r7, #4]
    3a3e:	f7ff ffc1 	bl	39c4 <tx_byte>
    3a42:	683b      	ldr	r3, [r7, #0]
    3a44:	6a1b      	ldr	r3, [r3, #32]
    3a46:	68fa      	ldr	r2, [r7, #12]
    3a48:	429a      	cmp	r2, r3
    3a4a:	d8eb      	bhi.n	3a24 <tx_blocking+0x22>
    3a4c:	2301      	movs	r3, #1
    3a4e:	4618      	mov	r0, r3
    3a50:	3710      	adds	r7, #16
    3a52:	46bd      	mov	sp, r7
    3a54:	bd80      	pop	{r7, pc}
	...

00003a58 <nrfx_uart_tx>:
    3a58:	b580      	push	{r7, lr}
    3a5a:	b086      	sub	sp, #24
    3a5c:	af00      	add	r7, sp, #0
    3a5e:	60f8      	str	r0, [r7, #12]
    3a60:	60b9      	str	r1, [r7, #8]
    3a62:	607a      	str	r2, [r7, #4]
    3a64:	68fb      	ldr	r3, [r7, #12]
    3a66:	791b      	ldrb	r3, [r3, #4]
    3a68:	461a      	mov	r2, r3
    3a6a:	232c      	movs	r3, #44	; 0x2c
    3a6c:	fb02 f303 	mul.w	r3, r2, r3
    3a70:	4a2e      	ldr	r2, [pc, #184]	; (3b2c <nrfx_uart_tx+0xd4>)
    3a72:	4413      	add	r3, r2
    3a74:	613b      	str	r3, [r7, #16]
    3a76:	68f8      	ldr	r0, [r7, #12]
    3a78:	f000 f85a 	bl	3b30 <nrfx_uart_tx_in_progress>
    3a7c:	4603      	mov	r3, r0
    3a7e:	2b00      	cmp	r3, #0
    3a80:	d003      	beq.n	3a8a <nrfx_uart_tx+0x32>
    3a82:	2311      	movs	r3, #17
    3a84:	617b      	str	r3, [r7, #20]
    3a86:	697b      	ldr	r3, [r7, #20]
    3a88:	e04c      	b.n	3b24 <nrfx_uart_tx+0xcc>
    3a8a:	693b      	ldr	r3, [r7, #16]
    3a8c:	687a      	ldr	r2, [r7, #4]
    3a8e:	615a      	str	r2, [r3, #20]
    3a90:	693b      	ldr	r3, [r7, #16]
    3a92:	68ba      	ldr	r2, [r7, #8]
    3a94:	609a      	str	r2, [r3, #8]
    3a96:	693b      	ldr	r3, [r7, #16]
    3a98:	2200      	movs	r2, #0
    3a9a:	621a      	str	r2, [r3, #32]
    3a9c:	693b      	ldr	r3, [r7, #16]
    3a9e:	2200      	movs	r2, #0
    3aa0:	f883 2028 	strb.w	r2, [r3, #40]	; 0x28
    3aa4:	2300      	movs	r3, #0
    3aa6:	617b      	str	r3, [r7, #20]
    3aa8:	68fb      	ldr	r3, [r7, #12]
    3aaa:	681b      	ldr	r3, [r3, #0]
    3aac:	f44f 718e 	mov.w	r1, #284	; 0x11c
    3ab0:	4618      	mov	r0, r3
    3ab2:	f7ff fc0f 	bl	32d4 <nrf_uart_event_clear>
    3ab6:	68fb      	ldr	r3, [r7, #12]
    3ab8:	681b      	ldr	r3, [r3, #0]
    3aba:	2108      	movs	r1, #8
    3abc:	4618      	mov	r0, r3
    3abe:	f7ff fd2f 	bl	3520 <nrf_uart_task_trigger>
    3ac2:	68fb      	ldr	r3, [r7, #12]
    3ac4:	681b      	ldr	r3, [r3, #0]
    3ac6:	6939      	ldr	r1, [r7, #16]
    3ac8:	4618      	mov	r0, r3
    3aca:	f7ff ff7b 	bl	39c4 <tx_byte>
    3ace:	693b      	ldr	r3, [r7, #16]
    3ad0:	685b      	ldr	r3, [r3, #4]
    3ad2:	2b00      	cmp	r3, #0
    3ad4:	d125      	bne.n	3b22 <nrfx_uart_tx+0xca>
    3ad6:	68fb      	ldr	r3, [r7, #12]
    3ad8:	681b      	ldr	r3, [r3, #0]
    3ada:	6939      	ldr	r1, [r7, #16]
    3adc:	4618      	mov	r0, r3
    3ade:	f7ff ff90 	bl	3a02 <tx_blocking>
    3ae2:	4603      	mov	r3, r0
    3ae4:	f083 0301 	eor.w	r3, r3, #1
    3ae8:	b2db      	uxtb	r3, r3
    3aea:	2b00      	cmp	r3, #0
    3aec:	d002      	beq.n	3af4 <nrfx_uart_tx+0x9c>
    3aee:	230f      	movs	r3, #15
    3af0:	617b      	str	r3, [r7, #20]
    3af2:	e013      	b.n	3b1c <nrfx_uart_tx+0xc4>
    3af4:	bf00      	nop
    3af6:	68fb      	ldr	r3, [r7, #12]
    3af8:	681b      	ldr	r3, [r3, #0]
    3afa:	f44f 718e 	mov.w	r1, #284	; 0x11c
    3afe:	4618      	mov	r0, r3
    3b00:	f7ff fbff 	bl	3302 <nrf_uart_event_check>
    3b04:	4603      	mov	r3, r0
    3b06:	f083 0301 	eor.w	r3, r3, #1
    3b0a:	b2db      	uxtb	r3, r3
    3b0c:	2b00      	cmp	r3, #0
    3b0e:	d1f2      	bne.n	3af6 <nrfx_uart_tx+0x9e>
    3b10:	68fb      	ldr	r3, [r7, #12]
    3b12:	681b      	ldr	r3, [r3, #0]
    3b14:	210c      	movs	r1, #12
    3b16:	4618      	mov	r0, r3
    3b18:	f7ff fd02 	bl	3520 <nrf_uart_task_trigger>
    3b1c:	693b      	ldr	r3, [r7, #16]
    3b1e:	2200      	movs	r2, #0
    3b20:	615a      	str	r2, [r3, #20]
    3b22:	697b      	ldr	r3, [r7, #20]
    3b24:	4618      	mov	r0, r3
    3b26:	3718      	adds	r7, #24
    3b28:	46bd      	mov	sp, r7
    3b2a:	bd80      	pop	{r7, pc}
    3b2c:	200006a0 	.word	0x200006a0

00003b30 <nrfx_uart_tx_in_progress>:
    3b30:	b480      	push	{r7}
    3b32:	b083      	sub	sp, #12
    3b34:	af00      	add	r7, sp, #0
    3b36:	6078      	str	r0, [r7, #4]
    3b38:	687b      	ldr	r3, [r7, #4]
    3b3a:	791b      	ldrb	r3, [r3, #4]
    3b3c:	4619      	mov	r1, r3
    3b3e:	4a09      	ldr	r2, [pc, #36]	; (3b64 <nrfx_uart_tx_in_progress+0x34>)
    3b40:	232c      	movs	r3, #44	; 0x2c
    3b42:	fb01 f303 	mul.w	r3, r1, r3
    3b46:	4413      	add	r3, r2
    3b48:	3314      	adds	r3, #20
    3b4a:	681b      	ldr	r3, [r3, #0]
    3b4c:	2b00      	cmp	r3, #0
    3b4e:	bf14      	ite	ne
    3b50:	2301      	movne	r3, #1
    3b52:	2300      	moveq	r3, #0
    3b54:	b2db      	uxtb	r3, r3
    3b56:	4618      	mov	r0, r3
    3b58:	370c      	adds	r7, #12
    3b5a:	46bd      	mov	sp, r7
    3b5c:	f85d 7b04 	ldr.w	r7, [sp], #4
    3b60:	4770      	bx	lr
    3b62:	bf00      	nop
    3b64:	200006a0 	.word	0x200006a0

00003b68 <rx_byte>:
    3b68:	b590      	push	{r4, r7, lr}
    3b6a:	b083      	sub	sp, #12
    3b6c:	af00      	add	r7, sp, #0
    3b6e:	6078      	str	r0, [r7, #4]
    3b70:	6039      	str	r1, [r7, #0]
    3b72:	683b      	ldr	r3, [r7, #0]
    3b74:	699b      	ldr	r3, [r3, #24]
    3b76:	2b00      	cmp	r3, #0
    3b78:	d108      	bne.n	3b8c <rx_byte+0x24>
    3b7a:	f44f 7184 	mov.w	r1, #264	; 0x108
    3b7e:	6878      	ldr	r0, [r7, #4]
    3b80:	f7ff fba8 	bl	32d4 <nrf_uart_event_clear>
    3b84:	6878      	ldr	r0, [r7, #4]
    3b86:	f7ff fcad 	bl	34e4 <nrf_uart_rxd_get>
    3b8a:	e013      	b.n	3bb4 <rx_byte+0x4c>
    3b8c:	f44f 7184 	mov.w	r1, #264	; 0x108
    3b90:	6878      	ldr	r0, [r7, #4]
    3b92:	f7ff fb9f 	bl	32d4 <nrf_uart_event_clear>
    3b96:	683b      	ldr	r3, [r7, #0]
    3b98:	68da      	ldr	r2, [r3, #12]
    3b9a:	683b      	ldr	r3, [r7, #0]
    3b9c:	6a5b      	ldr	r3, [r3, #36]	; 0x24
    3b9e:	18d4      	adds	r4, r2, r3
    3ba0:	6878      	ldr	r0, [r7, #4]
    3ba2:	f7ff fc9f 	bl	34e4 <nrf_uart_rxd_get>
    3ba6:	4603      	mov	r3, r0
    3ba8:	7023      	strb	r3, [r4, #0]
    3baa:	683b      	ldr	r3, [r7, #0]
    3bac:	6a5b      	ldr	r3, [r3, #36]	; 0x24
    3bae:	1c5a      	adds	r2, r3, #1
    3bb0:	683b      	ldr	r3, [r7, #0]
    3bb2:	625a      	str	r2, [r3, #36]	; 0x24
    3bb4:	370c      	adds	r7, #12
    3bb6:	46bd      	mov	sp, r7
    3bb8:	bd90      	pop	{r4, r7, pc}

00003bba <rx_done_event>:
    3bba:	b580      	push	{r7, lr}
    3bbc:	b088      	sub	sp, #32
    3bbe:	af00      	add	r7, sp, #0
    3bc0:	60f8      	str	r0, [r7, #12]
    3bc2:	60b9      	str	r1, [r7, #8]
    3bc4:	607a      	str	r2, [r7, #4]
    3bc6:	2301      	movs	r3, #1
    3bc8:	743b      	strb	r3, [r7, #16]
    3bca:	68bb      	ldr	r3, [r7, #8]
    3bcc:	61bb      	str	r3, [r7, #24]
    3bce:	687b      	ldr	r3, [r7, #4]
    3bd0:	617b      	str	r3, [r7, #20]
    3bd2:	68fb      	ldr	r3, [r7, #12]
    3bd4:	685b      	ldr	r3, [r3, #4]
    3bd6:	68fa      	ldr	r2, [r7, #12]
    3bd8:	6811      	ldr	r1, [r2, #0]
    3bda:	f107 0210 	add.w	r2, r7, #16
    3bde:	4610      	mov	r0, r2
    3be0:	4798      	blx	r3
    3be2:	bf00      	nop
    3be4:	3720      	adds	r7, #32
    3be6:	46bd      	mov	sp, r7
    3be8:	bd80      	pop	{r7, pc}

00003bea <tx_done_event>:
    3bea:	b580      	push	{r7, lr}
    3bec:	b086      	sub	sp, #24
    3bee:	af00      	add	r7, sp, #0
    3bf0:	6078      	str	r0, [r7, #4]
    3bf2:	6039      	str	r1, [r7, #0]
    3bf4:	2300      	movs	r3, #0
    3bf6:	723b      	strb	r3, [r7, #8]
    3bf8:	683b      	ldr	r3, [r7, #0]
    3bfa:	613b      	str	r3, [r7, #16]
    3bfc:	687b      	ldr	r3, [r7, #4]
    3bfe:	689b      	ldr	r3, [r3, #8]
    3c00:	60fb      	str	r3, [r7, #12]
    3c02:	687b      	ldr	r3, [r7, #4]
    3c04:	2200      	movs	r2, #0
    3c06:	615a      	str	r2, [r3, #20]
    3c08:	687b      	ldr	r3, [r7, #4]
    3c0a:	685b      	ldr	r3, [r3, #4]
    3c0c:	687a      	ldr	r2, [r7, #4]
    3c0e:	6811      	ldr	r1, [r2, #0]
    3c10:	f107 0208 	add.w	r2, r7, #8
    3c14:	4610      	mov	r0, r2
    3c16:	4798      	blx	r3
    3c18:	bf00      	nop
    3c1a:	3718      	adds	r7, #24
    3c1c:	46bd      	mov	sp, r7
    3c1e:	bd80      	pop	{r7, pc}

00003c20 <uart_irq_handler>:
    3c20:	b580      	push	{r7, lr}
    3c22:	b08a      	sub	sp, #40	; 0x28
    3c24:	af00      	add	r7, sp, #0
    3c26:	6078      	str	r0, [r7, #4]
    3c28:	6039      	str	r1, [r7, #0]
    3c2a:	f44f 7100 	mov.w	r1, #512	; 0x200
    3c2e:	6878      	ldr	r0, [r7, #4]
    3c30:	f7ff fb8b 	bl	334a <nrf_uart_int_enable_check>
    3c34:	4603      	mov	r3, r0
    3c36:	2b00      	cmp	r3, #0
    3c38:	d039      	beq.n	3cae <uart_irq_handler+0x8e>
    3c3a:	f44f 7192 	mov.w	r1, #292	; 0x124
    3c3e:	6878      	ldr	r0, [r7, #4]
    3c40:	f7ff fb5f 	bl	3302 <nrf_uart_event_check>
    3c44:	4603      	mov	r3, r0
    3c46:	2b00      	cmp	r3, #0
    3c48:	d031      	beq.n	3cae <uart_irq_handler+0x8e>
    3c4a:	f44f 7192 	mov.w	r1, #292	; 0x124
    3c4e:	6878      	ldr	r0, [r7, #4]
    3c50:	f7ff fb40 	bl	32d4 <nrf_uart_event_clear>
    3c54:	f44f 7101 	mov.w	r1, #516	; 0x204
    3c58:	6878      	ldr	r0, [r7, #4]
    3c5a:	f7ff fb8b 	bl	3374 <nrf_uart_int_disable>
    3c5e:	683b      	ldr	r3, [r7, #0]
    3c60:	f893 3029 	ldrb.w	r3, [r3, #41]	; 0x29
    3c64:	f083 0301 	eor.w	r3, r3, #1
    3c68:	b2db      	uxtb	r3, r3
    3c6a:	2b00      	cmp	r3, #0
    3c6c:	d003      	beq.n	3c76 <uart_irq_handler+0x56>
    3c6e:	2104      	movs	r1, #4
    3c70:	6878      	ldr	r0, [r7, #4]
    3c72:	f7ff fc55 	bl	3520 <nrf_uart_task_trigger>
    3c76:	2302      	movs	r3, #2
    3c78:	733b      	strb	r3, [r7, #12]
    3c7a:	6878      	ldr	r0, [r7, #4]
    3c7c:	f7ff fb89 	bl	3392 <nrf_uart_errorsrc_get_and_clear>
    3c80:	4603      	mov	r3, r0
    3c82:	61bb      	str	r3, [r7, #24]
    3c84:	683b      	ldr	r3, [r7, #0]
    3c86:	699b      	ldr	r3, [r3, #24]
    3c88:	617b      	str	r3, [r7, #20]
    3c8a:	683b      	ldr	r3, [r7, #0]
    3c8c:	68db      	ldr	r3, [r3, #12]
    3c8e:	613b      	str	r3, [r7, #16]
    3c90:	683b      	ldr	r3, [r7, #0]
    3c92:	2200      	movs	r2, #0
    3c94:	619a      	str	r2, [r3, #24]
    3c96:	683b      	ldr	r3, [r7, #0]
    3c98:	2200      	movs	r2, #0
    3c9a:	61da      	str	r2, [r3, #28]
    3c9c:	683b      	ldr	r3, [r7, #0]
    3c9e:	685b      	ldr	r3, [r3, #4]
    3ca0:	683a      	ldr	r2, [r7, #0]
    3ca2:	6811      	ldr	r1, [r2, #0]
    3ca4:	f107 020c 	add.w	r2, r7, #12
    3ca8:	4610      	mov	r0, r2
    3caa:	4798      	blx	r3
    3cac:	e052      	b.n	3d54 <uart_irq_handler+0x134>
    3cae:	2104      	movs	r1, #4
    3cb0:	6878      	ldr	r0, [r7, #4]
    3cb2:	f7ff fb4a 	bl	334a <nrf_uart_int_enable_check>
    3cb6:	4603      	mov	r3, r0
    3cb8:	2b00      	cmp	r3, #0
    3cba:	d04b      	beq.n	3d54 <uart_irq_handler+0x134>
    3cbc:	f44f 7184 	mov.w	r1, #264	; 0x108
    3cc0:	6878      	ldr	r0, [r7, #4]
    3cc2:	f7ff fb1e 	bl	3302 <nrf_uart_event_check>
    3cc6:	4603      	mov	r3, r0
    3cc8:	2b00      	cmp	r3, #0
    3cca:	d043      	beq.n	3d54 <uart_irq_handler+0x134>
    3ccc:	6839      	ldr	r1, [r7, #0]
    3cce:	6878      	ldr	r0, [r7, #4]
    3cd0:	f7ff ff4a 	bl	3b68 <rx_byte>
    3cd4:	683b      	ldr	r3, [r7, #0]
    3cd6:	699a      	ldr	r2, [r3, #24]
    3cd8:	683b      	ldr	r3, [r7, #0]
    3cda:	6a5b      	ldr	r3, [r3, #36]	; 0x24
    3cdc:	429a      	cmp	r2, r3
    3cde:	d139      	bne.n	3d54 <uart_irq_handler+0x134>
    3ce0:	683b      	ldr	r3, [r7, #0]
    3ce2:	69db      	ldr	r3, [r3, #28]
    3ce4:	2b00      	cmp	r3, #0
    3ce6:	d019      	beq.n	3d1c <uart_irq_handler+0xfc>
    3ce8:	683b      	ldr	r3, [r7, #0]
    3cea:	68db      	ldr	r3, [r3, #12]
    3cec:	627b      	str	r3, [r7, #36]	; 0x24
    3cee:	683b      	ldr	r3, [r7, #0]
    3cf0:	6a5b      	ldr	r3, [r3, #36]	; 0x24
    3cf2:	623b      	str	r3, [r7, #32]
    3cf4:	683b      	ldr	r3, [r7, #0]
    3cf6:	69da      	ldr	r2, [r3, #28]
    3cf8:	683b      	ldr	r3, [r7, #0]
    3cfa:	619a      	str	r2, [r3, #24]
    3cfc:	683b      	ldr	r3, [r7, #0]
    3cfe:	691a      	ldr	r2, [r3, #16]
    3d00:	683b      	ldr	r3, [r7, #0]
    3d02:	60da      	str	r2, [r3, #12]
    3d04:	683b      	ldr	r3, [r7, #0]
    3d06:	2200      	movs	r2, #0
    3d08:	61da      	str	r2, [r3, #28]
    3d0a:	683b      	ldr	r3, [r7, #0]
    3d0c:	2200      	movs	r2, #0
    3d0e:	625a      	str	r2, [r3, #36]	; 0x24
    3d10:	6a7a      	ldr	r2, [r7, #36]	; 0x24
    3d12:	6a39      	ldr	r1, [r7, #32]
    3d14:	6838      	ldr	r0, [r7, #0]
    3d16:	f7ff ff50 	bl	3bba <rx_done_event>
    3d1a:	e01b      	b.n	3d54 <uart_irq_handler+0x134>
    3d1c:	683b      	ldr	r3, [r7, #0]
    3d1e:	f893 3029 	ldrb.w	r3, [r3, #41]	; 0x29
    3d22:	f083 0301 	eor.w	r3, r3, #1
    3d26:	b2db      	uxtb	r3, r3
    3d28:	2b00      	cmp	r3, #0
    3d2a:	d003      	beq.n	3d34 <uart_irq_handler+0x114>
    3d2c:	2104      	movs	r1, #4
    3d2e:	6878      	ldr	r0, [r7, #4]
    3d30:	f7ff fbf6 	bl	3520 <nrf_uart_task_trigger>
    3d34:	f44f 7101 	mov.w	r1, #516	; 0x204
    3d38:	6878      	ldr	r0, [r7, #4]
    3d3a:	f7ff fb1b 	bl	3374 <nrf_uart_int_disable>
    3d3e:	683b      	ldr	r3, [r7, #0]
    3d40:	2200      	movs	r2, #0
    3d42:	619a      	str	r2, [r3, #24]
    3d44:	683b      	ldr	r3, [r7, #0]
    3d46:	6a59      	ldr	r1, [r3, #36]	; 0x24
    3d48:	683b      	ldr	r3, [r7, #0]
    3d4a:	68db      	ldr	r3, [r3, #12]
    3d4c:	461a      	mov	r2, r3
    3d4e:	6838      	ldr	r0, [r7, #0]
    3d50:	f7ff ff33 	bl	3bba <rx_done_event>
    3d54:	f44f 718e 	mov.w	r1, #284	; 0x11c
    3d58:	6878      	ldr	r0, [r7, #4]
    3d5a:	f7ff fad2 	bl	3302 <nrf_uart_event_check>
    3d5e:	4603      	mov	r3, r0
    3d60:	2b00      	cmp	r3, #0
    3d62:	d024      	beq.n	3dae <uart_irq_handler+0x18e>
    3d64:	683b      	ldr	r3, [r7, #0]
    3d66:	695b      	ldr	r3, [r3, #20]
    3d68:	61fb      	str	r3, [r7, #28]
    3d6a:	683b      	ldr	r3, [r7, #0]
    3d6c:	6a1b      	ldr	r3, [r3, #32]
    3d6e:	69fa      	ldr	r2, [r7, #28]
    3d70:	429a      	cmp	r2, r3
    3d72:	d90d      	bls.n	3d90 <uart_irq_handler+0x170>
    3d74:	683b      	ldr	r3, [r7, #0]
    3d76:	f893 3028 	ldrb.w	r3, [r3, #40]	; 0x28
    3d7a:	b2db      	uxtb	r3, r3
    3d7c:	f083 0301 	eor.w	r3, r3, #1
    3d80:	b2db      	uxtb	r3, r3
    3d82:	2b00      	cmp	r3, #0
    3d84:	d004      	beq.n	3d90 <uart_irq_handler+0x170>
    3d86:	6839      	ldr	r1, [r7, #0]
    3d88:	6878      	ldr	r0, [r7, #4]
    3d8a:	f7ff fe1b 	bl	39c4 <tx_byte>
    3d8e:	e00e      	b.n	3dae <uart_irq_handler+0x18e>
    3d90:	f44f 718e 	mov.w	r1, #284	; 0x11c
    3d94:	6878      	ldr	r0, [r7, #4]
    3d96:	f7ff fa9d 	bl	32d4 <nrf_uart_event_clear>
    3d9a:	683b      	ldr	r3, [r7, #0]
    3d9c:	695b      	ldr	r3, [r3, #20]
    3d9e:	2b00      	cmp	r3, #0
    3da0:	d005      	beq.n	3dae <uart_irq_handler+0x18e>
    3da2:	683b      	ldr	r3, [r7, #0]
    3da4:	695b      	ldr	r3, [r3, #20]
    3da6:	4619      	mov	r1, r3
    3da8:	6838      	ldr	r0, [r7, #0]
    3daa:	f7ff ff1e 	bl	3bea <tx_done_event>
    3dae:	f44f 71a2 	mov.w	r1, #324	; 0x144
    3db2:	6878      	ldr	r0, [r7, #4]
    3db4:	f7ff faa5 	bl	3302 <nrf_uart_event_check>
    3db8:	4603      	mov	r3, r0
    3dba:	2b00      	cmp	r3, #0
    3dbc:	d01c      	beq.n	3df8 <uart_irq_handler+0x1d8>
    3dbe:	f44f 71a2 	mov.w	r1, #324	; 0x144
    3dc2:	6878      	ldr	r0, [r7, #4]
    3dc4:	f7ff fa86 	bl	32d4 <nrf_uart_event_clear>
    3dc8:	683b      	ldr	r3, [r7, #0]
    3dca:	f893 3029 	ldrb.w	r3, [r3, #41]	; 0x29
    3dce:	2b00      	cmp	r3, #0
    3dd0:	d003      	beq.n	3dda <uart_irq_handler+0x1ba>
    3dd2:	2100      	movs	r1, #0
    3dd4:	6878      	ldr	r0, [r7, #4]
    3dd6:	f7ff fba3 	bl	3520 <nrf_uart_task_trigger>
    3dda:	683b      	ldr	r3, [r7, #0]
    3ddc:	699b      	ldr	r3, [r3, #24]
    3dde:	2b00      	cmp	r3, #0
    3de0:	d00a      	beq.n	3df8 <uart_irq_handler+0x1d8>
    3de2:	683b      	ldr	r3, [r7, #0]
    3de4:	2200      	movs	r2, #0
    3de6:	619a      	str	r2, [r3, #24]
    3de8:	683b      	ldr	r3, [r7, #0]
    3dea:	6a59      	ldr	r1, [r3, #36]	; 0x24
    3dec:	683b      	ldr	r3, [r7, #0]
    3dee:	68db      	ldr	r3, [r3, #12]
    3df0:	461a      	mov	r2, r3
    3df2:	6838      	ldr	r0, [r7, #0]
    3df4:	f7ff fee1 	bl	3bba <rx_done_event>
    3df8:	bf00      	nop
    3dfa:	3728      	adds	r7, #40	; 0x28
    3dfc:	46bd      	mov	sp, r7
    3dfe:	bd80      	pop	{r7, pc}

00003e00 <nrfx_uart_0_irq_handler>:
    3e00:	b580      	push	{r7, lr}
    3e02:	af00      	add	r7, sp, #0
    3e04:	4902      	ldr	r1, [pc, #8]	; (3e10 <nrfx_uart_0_irq_handler+0x10>)
    3e06:	4803      	ldr	r0, [pc, #12]	; (3e14 <nrfx_uart_0_irq_handler+0x14>)
    3e08:	f7ff ff0a 	bl	3c20 <uart_irq_handler>
    3e0c:	bf00      	nop
    3e0e:	bd80      	pop	{r7, pc}
    3e10:	200006a0 	.word	0x200006a0
    3e14:	40002000 	.word	0x40002000

00003e18 <__NVIC_EnableIRQ>:
    3e18:	b480      	push	{r7}
    3e1a:	b083      	sub	sp, #12
    3e1c:	af00      	add	r7, sp, #0
    3e1e:	4603      	mov	r3, r0
    3e20:	71fb      	strb	r3, [r7, #7]
    3e22:	f997 3007 	ldrsb.w	r3, [r7, #7]
    3e26:	2b00      	cmp	r3, #0
    3e28:	db0b      	blt.n	3e42 <__NVIC_EnableIRQ+0x2a>
    3e2a:	79fb      	ldrb	r3, [r7, #7]
    3e2c:	f003 021f 	and.w	r2, r3, #31
    3e30:	4907      	ldr	r1, [pc, #28]	; (3e50 <__NVIC_EnableIRQ+0x38>)
    3e32:	f997 3007 	ldrsb.w	r3, [r7, #7]
    3e36:	095b      	lsrs	r3, r3, #5
    3e38:	2001      	movs	r0, #1
    3e3a:	fa00 f202 	lsl.w	r2, r0, r2
    3e3e:	f841 2023 	str.w	r2, [r1, r3, lsl #2]
    3e42:	bf00      	nop
    3e44:	370c      	adds	r7, #12
    3e46:	46bd      	mov	sp, r7
    3e48:	f85d 7b04 	ldr.w	r7, [sp], #4
    3e4c:	4770      	bx	lr
    3e4e:	bf00      	nop
    3e50:	e000e100 	.word	0xe000e100

00003e54 <__NVIC_DisableIRQ>:
    3e54:	b480      	push	{r7}
    3e56:	b083      	sub	sp, #12
    3e58:	af00      	add	r7, sp, #0
    3e5a:	4603      	mov	r3, r0
    3e5c:	71fb      	strb	r3, [r7, #7]
    3e5e:	f997 3007 	ldrsb.w	r3, [r7, #7]
    3e62:	2b00      	cmp	r3, #0
    3e64:	db12      	blt.n	3e8c <__NVIC_DisableIRQ+0x38>
    3e66:	79fb      	ldrb	r3, [r7, #7]
    3e68:	f003 021f 	and.w	r2, r3, #31
    3e6c:	490a      	ldr	r1, [pc, #40]	; (3e98 <__NVIC_DisableIRQ+0x44>)
    3e6e:	f997 3007 	ldrsb.w	r3, [r7, #7]
    3e72:	095b      	lsrs	r3, r3, #5
    3e74:	2001      	movs	r0, #1
    3e76:	fa00 f202 	lsl.w	r2, r0, r2
    3e7a:	3320      	adds	r3, #32
    3e7c:	f841 2023 	str.w	r2, [r1, r3, lsl #2]
    3e80:	f3bf 8f4f 	dsb	sy
    3e84:	bf00      	nop
    3e86:	f3bf 8f6f 	isb	sy
    3e8a:	bf00      	nop
    3e8c:	bf00      	nop
    3e8e:	370c      	adds	r7, #12
    3e90:	46bd      	mov	sp, r7
    3e92:	f85d 7b04 	ldr.w	r7, [sp], #4
    3e96:	4770      	bx	lr
    3e98:	e000e100 	.word	0xe000e100

00003e9c <__NVIC_SetPriority>:
    3e9c:	b480      	push	{r7}
    3e9e:	b083      	sub	sp, #12
    3ea0:	af00      	add	r7, sp, #0
    3ea2:	4603      	mov	r3, r0
    3ea4:	6039      	str	r1, [r7, #0]
    3ea6:	71fb      	strb	r3, [r7, #7]
    3ea8:	f997 3007 	ldrsb.w	r3, [r7, #7]
    3eac:	2b00      	cmp	r3, #0
    3eae:	db0a      	blt.n	3ec6 <__NVIC_SetPriority+0x2a>
    3eb0:	683b      	ldr	r3, [r7, #0]
    3eb2:	b2da      	uxtb	r2, r3
    3eb4:	490c      	ldr	r1, [pc, #48]	; (3ee8 <__NVIC_SetPriority+0x4c>)
    3eb6:	f997 3007 	ldrsb.w	r3, [r7, #7]
    3eba:	0152      	lsls	r2, r2, #5
    3ebc:	b2d2      	uxtb	r2, r2
    3ebe:	440b      	add	r3, r1
    3ec0:	f883 2300 	strb.w	r2, [r3, #768]	; 0x300
    3ec4:	e00a      	b.n	3edc <__NVIC_SetPriority+0x40>
    3ec6:	683b      	ldr	r3, [r7, #0]
    3ec8:	b2da      	uxtb	r2, r3
    3eca:	4908      	ldr	r1, [pc, #32]	; (3eec <__NVIC_SetPriority+0x50>)
    3ecc:	79fb      	ldrb	r3, [r7, #7]
    3ece:	f003 030f 	and.w	r3, r3, #15
    3ed2:	3b04      	subs	r3, #4
    3ed4:	0152      	lsls	r2, r2, #5
    3ed6:	b2d2      	uxtb	r2, r2
    3ed8:	440b      	add	r3, r1
    3eda:	761a      	strb	r2, [r3, #24]
    3edc:	bf00      	nop
    3ede:	370c      	adds	r7, #12
    3ee0:	46bd      	mov	sp, r7
    3ee2:	f85d 7b04 	ldr.w	r7, [sp], #4
    3ee6:	4770      	bx	lr
    3ee8:	e000e100 	.word	0xe000e100
    3eec:	e000ed00 	.word	0xe000ed00

00003ef0 <nrfx_is_in_ram>:
    3ef0:	b480      	push	{r7}
    3ef2:	b083      	sub	sp, #12
    3ef4:	af00      	add	r7, sp, #0
    3ef6:	6078      	str	r0, [r7, #4]
    3ef8:	687b      	ldr	r3, [r7, #4]
    3efa:	f003 4360 	and.w	r3, r3, #3758096384	; 0xe0000000
    3efe:	f1b3 5f00 	cmp.w	r3, #536870912	; 0x20000000
    3f02:	bf0c      	ite	eq
    3f04:	2301      	moveq	r3, #1
    3f06:	2300      	movne	r3, #0
    3f08:	b2db      	uxtb	r3, r3
    3f0a:	4618      	mov	r0, r3
    3f0c:	370c      	adds	r7, #12
    3f0e:	46bd      	mov	sp, r7
    3f10:	f85d 7b04 	ldr.w	r7, [sp], #4
    3f14:	4770      	bx	lr

00003f16 <nrfx_get_irq_number>:
    3f16:	b480      	push	{r7}
    3f18:	b083      	sub	sp, #12
    3f1a:	af00      	add	r7, sp, #0
    3f1c:	6078      	str	r0, [r7, #4]
    3f1e:	687b      	ldr	r3, [r7, #4]
    3f20:	0b1b      	lsrs	r3, r3, #12
    3f22:	b25b      	sxtb	r3, r3
    3f24:	4618      	mov	r0, r3
    3f26:	370c      	adds	r7, #12
    3f28:	46bd      	mov	sp, r7
    3f2a:	f85d 7b04 	ldr.w	r7, [sp], #4
    3f2e:	4770      	bx	lr

00003f30 <_NRFX_IRQ_PRIORITY_SET>:
    3f30:	b580      	push	{r7, lr}
    3f32:	b082      	sub	sp, #8
    3f34:	af00      	add	r7, sp, #0
    3f36:	4603      	mov	r3, r0
    3f38:	460a      	mov	r2, r1
    3f3a:	71fb      	strb	r3, [r7, #7]
    3f3c:	4613      	mov	r3, r2
    3f3e:	71bb      	strb	r3, [r7, #6]
    3f40:	79ba      	ldrb	r2, [r7, #6]
    3f42:	f997 3007 	ldrsb.w	r3, [r7, #7]
    3f46:	4611      	mov	r1, r2
    3f48:	4618      	mov	r0, r3
    3f4a:	f7ff ffa7 	bl	3e9c <__NVIC_SetPriority>
    3f4e:	bf00      	nop
    3f50:	3708      	adds	r7, #8
    3f52:	46bd      	mov	sp, r7
    3f54:	bd80      	pop	{r7, pc}

00003f56 <_NRFX_IRQ_ENABLE>:
    3f56:	b580      	push	{r7, lr}
    3f58:	b082      	sub	sp, #8
    3f5a:	af00      	add	r7, sp, #0
    3f5c:	4603      	mov	r3, r0
    3f5e:	71fb      	strb	r3, [r7, #7]
    3f60:	f997 3007 	ldrsb.w	r3, [r7, #7]
    3f64:	4618      	mov	r0, r3
    3f66:	f7ff ff57 	bl	3e18 <__NVIC_EnableIRQ>
    3f6a:	bf00      	nop
    3f6c:	3708      	adds	r7, #8
    3f6e:	46bd      	mov	sp, r7
    3f70:	bd80      	pop	{r7, pc}

00003f72 <_NRFX_IRQ_DISABLE>:
    3f72:	b580      	push	{r7, lr}
    3f74:	b082      	sub	sp, #8
    3f76:	af00      	add	r7, sp, #0
    3f78:	4603      	mov	r3, r0
    3f7a:	71fb      	strb	r3, [r7, #7]
    3f7c:	f997 3007 	ldrsb.w	r3, [r7, #7]
    3f80:	4618      	mov	r0, r3
    3f82:	f7ff ff67 	bl	3e54 <__NVIC_DisableIRQ>
    3f86:	bf00      	nop
    3f88:	3708      	adds	r7, #8
    3f8a:	46bd      	mov	sp, r7
    3f8c:	bd80      	pop	{r7, pc}

00003f8e <nrf_uarte_event_clear>:
    3f8e:	b480      	push	{r7}
    3f90:	b085      	sub	sp, #20
    3f92:	af00      	add	r7, sp, #0
    3f94:	6078      	str	r0, [r7, #4]
    3f96:	460b      	mov	r3, r1
    3f98:	807b      	strh	r3, [r7, #2]
    3f9a:	887b      	ldrh	r3, [r7, #2]
    3f9c:	687a      	ldr	r2, [r7, #4]
    3f9e:	4413      	add	r3, r2
    3fa0:	2200      	movs	r2, #0
    3fa2:	601a      	str	r2, [r3, #0]
    3fa4:	887b      	ldrh	r3, [r7, #2]
    3fa6:	687a      	ldr	r2, [r7, #4]
    3fa8:	4413      	add	r3, r2
    3faa:	681b      	ldr	r3, [r3, #0]
    3fac:	60fb      	str	r3, [r7, #12]
    3fae:	68fb      	ldr	r3, [r7, #12]
    3fb0:	bf00      	nop
    3fb2:	3714      	adds	r7, #20
    3fb4:	46bd      	mov	sp, r7
    3fb6:	f85d 7b04 	ldr.w	r7, [sp], #4
    3fba:	4770      	bx	lr

00003fbc <nrf_uarte_event_check>:
    3fbc:	b480      	push	{r7}
    3fbe:	b083      	sub	sp, #12
    3fc0:	af00      	add	r7, sp, #0
    3fc2:	6078      	str	r0, [r7, #4]
    3fc4:	460b      	mov	r3, r1
    3fc6:	807b      	strh	r3, [r7, #2]
    3fc8:	887b      	ldrh	r3, [r7, #2]
    3fca:	687a      	ldr	r2, [r7, #4]
    3fcc:	4413      	add	r3, r2
    3fce:	681b      	ldr	r3, [r3, #0]
    3fd0:	2b00      	cmp	r3, #0
    3fd2:	bf14      	ite	ne
    3fd4:	2301      	movne	r3, #1
    3fd6:	2300      	moveq	r3, #0
    3fd8:	b2db      	uxtb	r3, r3
    3fda:	4618      	mov	r0, r3
    3fdc:	370c      	adds	r7, #12
    3fde:	46bd      	mov	sp, r7
    3fe0:	f85d 7b04 	ldr.w	r7, [sp], #4
    3fe4:	4770      	bx	lr

00003fe6 <nrf_uarte_shorts_disable>:
    3fe6:	b480      	push	{r7}
    3fe8:	b083      	sub	sp, #12
    3fea:	af00      	add	r7, sp, #0
    3fec:	6078      	str	r0, [r7, #4]
    3fee:	6039      	str	r1, [r7, #0]
    3ff0:	687b      	ldr	r3, [r7, #4]
    3ff2:	f8d3 2200 	ldr.w	r2, [r3, #512]	; 0x200
    3ff6:	683b      	ldr	r3, [r7, #0]
    3ff8:	43db      	mvns	r3, r3
    3ffa:	401a      	ands	r2, r3
    3ffc:	687b      	ldr	r3, [r7, #4]
    3ffe:	f8c3 2200 	str.w	r2, [r3, #512]	; 0x200
    4002:	bf00      	nop
    4004:	370c      	adds	r7, #12
    4006:	46bd      	mov	sp, r7
    4008:	f85d 7b04 	ldr.w	r7, [sp], #4
    400c:	4770      	bx	lr

0000400e <nrf_uarte_int_enable>:
    400e:	b480      	push	{r7}
    4010:	b083      	sub	sp, #12
    4012:	af00      	add	r7, sp, #0
    4014:	6078      	str	r0, [r7, #4]
    4016:	6039      	str	r1, [r7, #0]
    4018:	687b      	ldr	r3, [r7, #4]
    401a:	683a      	ldr	r2, [r7, #0]
    401c:	f8c3 2304 	str.w	r2, [r3, #772]	; 0x304
    4020:	bf00      	nop
    4022:	370c      	adds	r7, #12
    4024:	46bd      	mov	sp, r7
    4026:	f85d 7b04 	ldr.w	r7, [sp], #4
    402a:	4770      	bx	lr

0000402c <nrf_uarte_int_disable>:
    402c:	b480      	push	{r7}
    402e:	b083      	sub	sp, #12
    4030:	af00      	add	r7, sp, #0
    4032:	6078      	str	r0, [r7, #4]
    4034:	6039      	str	r1, [r7, #0]
    4036:	687b      	ldr	r3, [r7, #4]
    4038:	683a      	ldr	r2, [r7, #0]
    403a:	f8c3 2308 	str.w	r2, [r3, #776]	; 0x308
    403e:	bf00      	nop
    4040:	370c      	adds	r7, #12
    4042:	46bd      	mov	sp, r7
    4044:	f85d 7b04 	ldr.w	r7, [sp], #4
    4048:	4770      	bx	lr

0000404a <nrf_uarte_errorsrc_get_and_clear>:
    404a:	b480      	push	{r7}
    404c:	b085      	sub	sp, #20
    404e:	af00      	add	r7, sp, #0
    4050:	6078      	str	r0, [r7, #4]
    4052:	687b      	ldr	r3, [r7, #4]
    4054:	f8d3 3480 	ldr.w	r3, [r3, #1152]	; 0x480
    4058:	60fb      	str	r3, [r7, #12]
    405a:	687b      	ldr	r3, [r7, #4]
    405c:	68fa      	ldr	r2, [r7, #12]
    405e:	f8c3 2480 	str.w	r2, [r3, #1152]	; 0x480
    4062:	68fb      	ldr	r3, [r7, #12]
    4064:	4618      	mov	r0, r3
    4066:	3714      	adds	r7, #20
    4068:	46bd      	mov	sp, r7
    406a:	f85d 7b04 	ldr.w	r7, [sp], #4
    406e:	4770      	bx	lr

00004070 <nrf_uarte_enable>:
    4070:	b480      	push	{r7}
    4072:	b083      	sub	sp, #12
    4074:	af00      	add	r7, sp, #0
    4076:	6078      	str	r0, [r7, #4]
    4078:	687b      	ldr	r3, [r7, #4]
    407a:	2208      	movs	r2, #8
    407c:	f8c3 2500 	str.w	r2, [r3, #1280]	; 0x500
    4080:	bf00      	nop
    4082:	370c      	adds	r7, #12
    4084:	46bd      	mov	sp, r7
    4086:	f85d 7b04 	ldr.w	r7, [sp], #4
    408a:	4770      	bx	lr

0000408c <nrf_uarte_disable>:
    408c:	b480      	push	{r7}
    408e:	b083      	sub	sp, #12
    4090:	af00      	add	r7, sp, #0
    4092:	6078      	str	r0, [r7, #4]
    4094:	687b      	ldr	r3, [r7, #4]
    4096:	2200      	movs	r2, #0
    4098:	f8c3 2500 	str.w	r2, [r3, #1280]	; 0x500
    409c:	bf00      	nop
    409e:	370c      	adds	r7, #12
    40a0:	46bd      	mov	sp, r7
    40a2:	f85d 7b04 	ldr.w	r7, [sp], #4
    40a6:	4770      	bx	lr

000040a8 <nrf_uarte_txrx_pins_set>:
    40a8:	b480      	push	{r7}
    40aa:	b085      	sub	sp, #20
    40ac:	af00      	add	r7, sp, #0
    40ae:	60f8      	str	r0, [r7, #12]
    40b0:	60b9      	str	r1, [r7, #8]
    40b2:	607a      	str	r2, [r7, #4]
    40b4:	68fb      	ldr	r3, [r7, #12]
    40b6:	68ba      	ldr	r2, [r7, #8]
    40b8:	f8c3 250c 	str.w	r2, [r3, #1292]	; 0x50c
    40bc:	68fb      	ldr	r3, [r7, #12]
    40be:	687a      	ldr	r2, [r7, #4]
    40c0:	f8c3 2514 	str.w	r2, [r3, #1300]	; 0x514
    40c4:	bf00      	nop
    40c6:	3714      	adds	r7, #20
    40c8:	46bd      	mov	sp, r7
    40ca:	f85d 7b04 	ldr.w	r7, [sp], #4
    40ce:	4770      	bx	lr

000040d0 <nrf_uarte_txrx_pins_disconnect>:
    40d0:	b580      	push	{r7, lr}
    40d2:	b082      	sub	sp, #8
    40d4:	af00      	add	r7, sp, #0
    40d6:	6078      	str	r0, [r7, #4]
    40d8:	f04f 32ff 	mov.w	r2, #4294967295	; 0xffffffff
    40dc:	f04f 31ff 	mov.w	r1, #4294967295	; 0xffffffff
    40e0:	6878      	ldr	r0, [r7, #4]
    40e2:	f7ff ffe1 	bl	40a8 <nrf_uarte_txrx_pins_set>
    40e6:	bf00      	nop
    40e8:	3708      	adds	r7, #8
    40ea:	46bd      	mov	sp, r7
    40ec:	bd80      	pop	{r7, pc}

000040ee <nrf_uarte_tx_pin_get>:
    40ee:	b480      	push	{r7}
    40f0:	b083      	sub	sp, #12
    40f2:	af00      	add	r7, sp, #0
    40f4:	6078      	str	r0, [r7, #4]
    40f6:	687b      	ldr	r3, [r7, #4]
    40f8:	f8d3 350c 	ldr.w	r3, [r3, #1292]	; 0x50c
    40fc:	4618      	mov	r0, r3
    40fe:	370c      	adds	r7, #12
    4100:	46bd      	mov	sp, r7
    4102:	f85d 7b04 	ldr.w	r7, [sp], #4
    4106:	4770      	bx	lr

00004108 <nrf_uarte_rx_pin_get>:
    4108:	b480      	push	{r7}
    410a:	b083      	sub	sp, #12
    410c:	af00      	add	r7, sp, #0
    410e:	6078      	str	r0, [r7, #4]
    4110:	687b      	ldr	r3, [r7, #4]
    4112:	f8d3 3514 	ldr.w	r3, [r3, #1300]	; 0x514
    4116:	4618      	mov	r0, r3
    4118:	370c      	adds	r7, #12
    411a:	46bd      	mov	sp, r7
    411c:	f85d 7b04 	ldr.w	r7, [sp], #4
    4120:	4770      	bx	lr

00004122 <nrf_uarte_rts_pin_get>:
    4122:	b480      	push	{r7}
    4124:	b083      	sub	sp, #12
    4126:	af00      	add	r7, sp, #0
    4128:	6078      	str	r0, [r7, #4]
    412a:	687b      	ldr	r3, [r7, #4]
    412c:	f8d3 3508 	ldr.w	r3, [r3, #1288]	; 0x508
    4130:	4618      	mov	r0, r3
    4132:	370c      	adds	r7, #12
    4134:	46bd      	mov	sp, r7
    4136:	f85d 7b04 	ldr.w	r7, [sp], #4
    413a:	4770      	bx	lr

0000413c <nrf_uarte_cts_pin_get>:
    413c:	b480      	push	{r7}
    413e:	b083      	sub	sp, #12
    4140:	af00      	add	r7, sp, #0
    4142:	6078      	str	r0, [r7, #4]
    4144:	687b      	ldr	r3, [r7, #4]
    4146:	f8d3 3510 	ldr.w	r3, [r3, #1296]	; 0x510
    414a:	4618      	mov	r0, r3
    414c:	370c      	adds	r7, #12
    414e:	46bd      	mov	sp, r7
    4150:	f85d 7b04 	ldr.w	r7, [sp], #4
    4154:	4770      	bx	lr

00004156 <nrf_uarte_hwfc_pins_set>:
    4156:	b480      	push	{r7}
    4158:	b085      	sub	sp, #20
    415a:	af00      	add	r7, sp, #0
    415c:	60f8      	str	r0, [r7, #12]
    415e:	60b9      	str	r1, [r7, #8]
    4160:	607a      	str	r2, [r7, #4]
    4162:	68fb      	ldr	r3, [r7, #12]
    4164:	68ba      	ldr	r2, [r7, #8]
    4166:	f8c3 2508 	str.w	r2, [r3, #1288]	; 0x508
    416a:	68fb      	ldr	r3, [r7, #12]
    416c:	687a      	ldr	r2, [r7, #4]
    416e:	f8c3 2510 	str.w	r2, [r3, #1296]	; 0x510
    4172:	bf00      	nop
    4174:	3714      	adds	r7, #20
    4176:	46bd      	mov	sp, r7
    4178:	f85d 7b04 	ldr.w	r7, [sp], #4
    417c:	4770      	bx	lr

0000417e <nrf_uarte_hwfc_pins_disconnect>:
    417e:	b580      	push	{r7, lr}
    4180:	b082      	sub	sp, #8
    4182:	af00      	add	r7, sp, #0
    4184:	6078      	str	r0, [r7, #4]
    4186:	f04f 32ff 	mov.w	r2, #4294967295	; 0xffffffff
    418a:	f04f 31ff 	mov.w	r1, #4294967295	; 0xffffffff
    418e:	6878      	ldr	r0, [r7, #4]
    4190:	f7ff ffe1 	bl	4156 <nrf_uarte_hwfc_pins_set>
    4194:	bf00      	nop
    4196:	3708      	adds	r7, #8
    4198:	46bd      	mov	sp, r7
    419a:	bd80      	pop	{r7, pc}

0000419c <nrf_uarte_task_trigger>:
    419c:	b480      	push	{r7}
    419e:	b083      	sub	sp, #12
    41a0:	af00      	add	r7, sp, #0
    41a2:	6078      	str	r0, [r7, #4]
    41a4:	460b      	mov	r3, r1
    41a6:	70fb      	strb	r3, [r7, #3]
    41a8:	78fb      	ldrb	r3, [r7, #3]
    41aa:	687a      	ldr	r2, [r7, #4]
    41ac:	4413      	add	r3, r2
    41ae:	2201      	movs	r2, #1
    41b0:	601a      	str	r2, [r3, #0]
    41b2:	bf00      	nop
    41b4:	370c      	adds	r7, #12
    41b6:	46bd      	mov	sp, r7
    41b8:	f85d 7b04 	ldr.w	r7, [sp], #4
    41bc:	4770      	bx	lr

000041be <nrf_uarte_configure>:
    41be:	b480      	push	{r7}
    41c0:	b083      	sub	sp, #12
    41c2:	af00      	add	r7, sp, #0
    41c4:	6078      	str	r0, [r7, #4]
    41c6:	460b      	mov	r3, r1
    41c8:	70fb      	strb	r3, [r7, #3]
    41ca:	4613      	mov	r3, r2
    41cc:	70bb      	strb	r3, [r7, #2]
    41ce:	78fa      	ldrb	r2, [r7, #3]
    41d0:	78bb      	ldrb	r3, [r7, #2]
    41d2:	4313      	orrs	r3, r2
    41d4:	b2db      	uxtb	r3, r3
    41d6:	461a      	mov	r2, r3
    41d8:	687b      	ldr	r3, [r7, #4]
    41da:	f8c3 256c 	str.w	r2, [r3, #1388]	; 0x56c
    41de:	bf00      	nop
    41e0:	370c      	adds	r7, #12
    41e2:	46bd      	mov	sp, r7
    41e4:	f85d 7b04 	ldr.w	r7, [sp], #4
    41e8:	4770      	bx	lr

000041ea <nrf_uarte_baudrate_set>:
    41ea:	b480      	push	{r7}
    41ec:	b083      	sub	sp, #12
    41ee:	af00      	add	r7, sp, #0
    41f0:	6078      	str	r0, [r7, #4]
    41f2:	6039      	str	r1, [r7, #0]
    41f4:	687b      	ldr	r3, [r7, #4]
    41f6:	683a      	ldr	r2, [r7, #0]
    41f8:	f8c3 2524 	str.w	r2, [r3, #1316]	; 0x524
    41fc:	bf00      	nop
    41fe:	370c      	adds	r7, #12
    4200:	46bd      	mov	sp, r7
    4202:	f85d 7b04 	ldr.w	r7, [sp], #4
    4206:	4770      	bx	lr

00004208 <nrf_uarte_tx_buffer_set>:
    4208:	b480      	push	{r7}
    420a:	b085      	sub	sp, #20
    420c:	af00      	add	r7, sp, #0
    420e:	60f8      	str	r0, [r7, #12]
    4210:	60b9      	str	r1, [r7, #8]
    4212:	607a      	str	r2, [r7, #4]
    4214:	68ba      	ldr	r2, [r7, #8]
    4216:	68fb      	ldr	r3, [r7, #12]
    4218:	f8c3 2544 	str.w	r2, [r3, #1348]	; 0x544
    421c:	68fb      	ldr	r3, [r7, #12]
    421e:	687a      	ldr	r2, [r7, #4]
    4220:	f8c3 2548 	str.w	r2, [r3, #1352]	; 0x548
    4224:	bf00      	nop
    4226:	3714      	adds	r7, #20
    4228:	46bd      	mov	sp, r7
    422a:	f85d 7b04 	ldr.w	r7, [sp], #4
    422e:	4770      	bx	lr

00004230 <nrf_uarte_tx_amount_get>:
    4230:	b480      	push	{r7}
    4232:	b083      	sub	sp, #12
    4234:	af00      	add	r7, sp, #0
    4236:	6078      	str	r0, [r7, #4]
    4238:	687b      	ldr	r3, [r7, #4]
    423a:	f8d3 354c 	ldr.w	r3, [r3, #1356]	; 0x54c
    423e:	4618      	mov	r0, r3
    4240:	370c      	adds	r7, #12
    4242:	46bd      	mov	sp, r7
    4244:	f85d 7b04 	ldr.w	r7, [sp], #4
    4248:	4770      	bx	lr

0000424a <nrf_uarte_rx_amount_get>:
    424a:	b480      	push	{r7}
    424c:	b083      	sub	sp, #12
    424e:	af00      	add	r7, sp, #0
    4250:	6078      	str	r0, [r7, #4]
    4252:	687b      	ldr	r3, [r7, #4]
    4254:	f8d3 353c 	ldr.w	r3, [r3, #1340]	; 0x53c
    4258:	4618      	mov	r0, r3
    425a:	370c      	adds	r7, #12
    425c:	46bd      	mov	sp, r7
    425e:	f85d 7b04 	ldr.w	r7, [sp], #4
    4262:	4770      	bx	lr

00004264 <nrf_gpio_pin_port_decode>:
    4264:	b480      	push	{r7}
    4266:	b083      	sub	sp, #12
    4268:	af00      	add	r7, sp, #0
    426a:	6078      	str	r0, [r7, #4]
    426c:	f04f 43a0 	mov.w	r3, #1342177280	; 0x50000000
    4270:	4618      	mov	r0, r3
    4272:	370c      	adds	r7, #12
    4274:	46bd      	mov	sp, r7
    4276:	f85d 7b04 	ldr.w	r7, [sp], #4
    427a:	4770      	bx	lr

0000427c <nrf_gpio_cfg>:
    427c:	b580      	push	{r7, lr}
    427e:	b084      	sub	sp, #16
    4280:	af00      	add	r7, sp, #0
    4282:	6078      	str	r0, [r7, #4]
    4284:	4608      	mov	r0, r1
    4286:	4611      	mov	r1, r2
    4288:	461a      	mov	r2, r3
    428a:	4603      	mov	r3, r0
    428c:	70fb      	strb	r3, [r7, #3]
    428e:	460b      	mov	r3, r1
    4290:	70bb      	strb	r3, [r7, #2]
    4292:	4613      	mov	r3, r2
    4294:	707b      	strb	r3, [r7, #1]
    4296:	1d3b      	adds	r3, r7, #4
    4298:	4618      	mov	r0, r3
    429a:	f7ff ffe3 	bl	4264 <nrf_gpio_pin_port_decode>
    429e:	60f8      	str	r0, [r7, #12]
    42a0:	78fa      	ldrb	r2, [r7, #3]
    42a2:	78bb      	ldrb	r3, [r7, #2]
    42a4:	005b      	lsls	r3, r3, #1
    42a6:	431a      	orrs	r2, r3
    42a8:	787b      	ldrb	r3, [r7, #1]
    42aa:	009b      	lsls	r3, r3, #2
    42ac:	431a      	orrs	r2, r3
    42ae:	7e3b      	ldrb	r3, [r7, #24]
    42b0:	021b      	lsls	r3, r3, #8
    42b2:	ea42 0103 	orr.w	r1, r2, r3
    42b6:	7f3b      	ldrb	r3, [r7, #28]
    42b8:	041b      	lsls	r3, r3, #16
    42ba:	687a      	ldr	r2, [r7, #4]
    42bc:	4319      	orrs	r1, r3
    42be:	68fb      	ldr	r3, [r7, #12]
    42c0:	f502 72e0 	add.w	r2, r2, #448	; 0x1c0
    42c4:	f843 1022 	str.w	r1, [r3, r2, lsl #2]
    42c8:	bf00      	nop
    42ca:	3710      	adds	r7, #16
    42cc:	46bd      	mov	sp, r7
    42ce:	bd80      	pop	{r7, pc}

000042d0 <nrf_gpio_cfg_output>:
    42d0:	b580      	push	{r7, lr}
    42d2:	b084      	sub	sp, #16
    42d4:	af02      	add	r7, sp, #8
    42d6:	6078      	str	r0, [r7, #4]
    42d8:	2300      	movs	r3, #0
    42da:	9301      	str	r3, [sp, #4]
    42dc:	2300      	movs	r3, #0
    42de:	9300      	str	r3, [sp, #0]
    42e0:	2300      	movs	r3, #0
    42e2:	2201      	movs	r2, #1
    42e4:	2101      	movs	r1, #1
    42e6:	6878      	ldr	r0, [r7, #4]
    42e8:	f7ff ffc8 	bl	427c <nrf_gpio_cfg>
    42ec:	bf00      	nop
    42ee:	3708      	adds	r7, #8
    42f0:	46bd      	mov	sp, r7
    42f2:	bd80      	pop	{r7, pc}

000042f4 <nrf_gpio_cfg_input>:
    42f4:	b580      	push	{r7, lr}
    42f6:	b084      	sub	sp, #16
    42f8:	af02      	add	r7, sp, #8
    42fa:	6078      	str	r0, [r7, #4]
    42fc:	460b      	mov	r3, r1
    42fe:	70fb      	strb	r3, [r7, #3]
    4300:	78fb      	ldrb	r3, [r7, #3]
    4302:	2200      	movs	r2, #0
    4304:	9201      	str	r2, [sp, #4]
    4306:	2200      	movs	r2, #0
    4308:	9200      	str	r2, [sp, #0]
    430a:	2200      	movs	r2, #0
    430c:	2100      	movs	r1, #0
    430e:	6878      	ldr	r0, [r7, #4]
    4310:	f7ff ffb4 	bl	427c <nrf_gpio_cfg>
    4314:	bf00      	nop
    4316:	3708      	adds	r7, #8
    4318:	46bd      	mov	sp, r7
    431a:	bd80      	pop	{r7, pc}

0000431c <nrf_gpio_cfg_default>:
    431c:	b580      	push	{r7, lr}
    431e:	b084      	sub	sp, #16
    4320:	af02      	add	r7, sp, #8
    4322:	6078      	str	r0, [r7, #4]
    4324:	2300      	movs	r3, #0
    4326:	9301      	str	r3, [sp, #4]
    4328:	2300      	movs	r3, #0
    432a:	9300      	str	r3, [sp, #0]
    432c:	2300      	movs	r3, #0
    432e:	2201      	movs	r2, #1
    4330:	2100      	movs	r1, #0
    4332:	6878      	ldr	r0, [r7, #4]
    4334:	f7ff ffa2 	bl	427c <nrf_gpio_cfg>
    4338:	bf00      	nop
    433a:	3708      	adds	r7, #8
    433c:	46bd      	mov	sp, r7
    433e:	bd80      	pop	{r7, pc}

00004340 <nrf_gpio_pin_set>:
    4340:	b580      	push	{r7, lr}
    4342:	b084      	sub	sp, #16
    4344:	af00      	add	r7, sp, #0
    4346:	6078      	str	r0, [r7, #4]
    4348:	1d3b      	adds	r3, r7, #4
    434a:	4618      	mov	r0, r3
    434c:	f7ff ff8a 	bl	4264 <nrf_gpio_pin_port_decode>
    4350:	60f8      	str	r0, [r7, #12]
    4352:	687b      	ldr	r3, [r7, #4]
    4354:	2201      	movs	r2, #1
    4356:	fa02 f303 	lsl.w	r3, r2, r3
    435a:	4619      	mov	r1, r3
    435c:	68f8      	ldr	r0, [r7, #12]
    435e:	f000 f804 	bl	436a <nrf_gpio_port_out_set>
    4362:	bf00      	nop
    4364:	3710      	adds	r7, #16
    4366:	46bd      	mov	sp, r7
    4368:	bd80      	pop	{r7, pc}

0000436a <nrf_gpio_port_out_set>:
    436a:	b480      	push	{r7}
    436c:	b083      	sub	sp, #12
    436e:	af00      	add	r7, sp, #0
    4370:	6078      	str	r0, [r7, #4]
    4372:	6039      	str	r1, [r7, #0]
    4374:	687b      	ldr	r3, [r7, #4]
    4376:	683a      	ldr	r2, [r7, #0]
    4378:	f8c3 2508 	str.w	r2, [r3, #1288]	; 0x508
    437c:	bf00      	nop
    437e:	370c      	adds	r7, #12
    4380:	46bd      	mov	sp, r7
    4382:	f85d 7b04 	ldr.w	r7, [sp], #4
    4386:	4770      	bx	lr

00004388 <apply_config>:
    4388:	b580      	push	{r7, lr}
    438a:	b082      	sub	sp, #8
    438c:	af00      	add	r7, sp, #0
    438e:	6078      	str	r0, [r7, #4]
    4390:	6039      	str	r1, [r7, #0]
    4392:	683b      	ldr	r3, [r7, #0]
    4394:	681b      	ldr	r3, [r3, #0]
    4396:	f1b3 3fff 	cmp.w	r3, #4294967295	; 0xffffffff
    439a:	d009      	beq.n	43b0 <apply_config+0x28>
    439c:	683b      	ldr	r3, [r7, #0]
    439e:	681b      	ldr	r3, [r3, #0]
    43a0:	4618      	mov	r0, r3
    43a2:	f7ff ffcd 	bl	4340 <nrf_gpio_pin_set>
    43a6:	683b      	ldr	r3, [r7, #0]
    43a8:	681b      	ldr	r3, [r3, #0]
    43aa:	4618      	mov	r0, r3
    43ac:	f7ff ff90 	bl	42d0 <nrf_gpio_cfg_output>
    43b0:	683b      	ldr	r3, [r7, #0]
    43b2:	685b      	ldr	r3, [r3, #4]
    43b4:	f1b3 3fff 	cmp.w	r3, #4294967295	; 0xffffffff
    43b8:	d005      	beq.n	43c6 <apply_config+0x3e>
    43ba:	683b      	ldr	r3, [r7, #0]
    43bc:	685b      	ldr	r3, [r3, #4]
    43be:	2100      	movs	r1, #0
    43c0:	4618      	mov	r0, r3
    43c2:	f7ff ff97 	bl	42f4 <nrf_gpio_cfg_input>
    43c6:	687b      	ldr	r3, [r7, #4]
    43c8:	681a      	ldr	r2, [r3, #0]
    43ca:	683b      	ldr	r3, [r7, #0]
    43cc:	699b      	ldr	r3, [r3, #24]
    43ce:	4619      	mov	r1, r3
    43d0:	4610      	mov	r0, r2
    43d2:	f7ff ff0a 	bl	41ea <nrf_uarte_baudrate_set>
    43d6:	687b      	ldr	r3, [r7, #4]
    43d8:	6818      	ldr	r0, [r3, #0]
    43da:	683b      	ldr	r3, [r7, #0]
    43dc:	7d59      	ldrb	r1, [r3, #21]
    43de:	683b      	ldr	r3, [r7, #0]
    43e0:	7d1b      	ldrb	r3, [r3, #20]
    43e2:	461a      	mov	r2, r3
    43e4:	f7ff feeb 	bl	41be <nrf_uarte_configure>
    43e8:	687b      	ldr	r3, [r7, #4]
    43ea:	6818      	ldr	r0, [r3, #0]
    43ec:	683b      	ldr	r3, [r7, #0]
    43ee:	6819      	ldr	r1, [r3, #0]
    43f0:	683b      	ldr	r3, [r7, #0]
    43f2:	685b      	ldr	r3, [r3, #4]
    43f4:	461a      	mov	r2, r3
    43f6:	f7ff fe57 	bl	40a8 <nrf_uarte_txrx_pins_set>
    43fa:	683b      	ldr	r3, [r7, #0]
    43fc:	7d1b      	ldrb	r3, [r3, #20]
    43fe:	2b01      	cmp	r3, #1
    4400:	d122      	bne.n	4448 <apply_config+0xc0>
    4402:	683b      	ldr	r3, [r7, #0]
    4404:	689b      	ldr	r3, [r3, #8]
    4406:	f1b3 3fff 	cmp.w	r3, #4294967295	; 0xffffffff
    440a:	d005      	beq.n	4418 <apply_config+0x90>
    440c:	683b      	ldr	r3, [r7, #0]
    440e:	689b      	ldr	r3, [r3, #8]
    4410:	2100      	movs	r1, #0
    4412:	4618      	mov	r0, r3
    4414:	f7ff ff6e 	bl	42f4 <nrf_gpio_cfg_input>
    4418:	683b      	ldr	r3, [r7, #0]
    441a:	68db      	ldr	r3, [r3, #12]
    441c:	f1b3 3fff 	cmp.w	r3, #4294967295	; 0xffffffff
    4420:	d009      	beq.n	4436 <apply_config+0xae>
    4422:	683b      	ldr	r3, [r7, #0]
    4424:	68db      	ldr	r3, [r3, #12]
    4426:	4618      	mov	r0, r3
    4428:	f7ff ff8a 	bl	4340 <nrf_gpio_pin_set>
    442c:	683b      	ldr	r3, [r7, #0]
    442e:	68db      	ldr	r3, [r3, #12]
    4430:	4618      	mov	r0, r3
    4432:	f7ff ff4d 	bl	42d0 <nrf_gpio_cfg_output>
    4436:	687b      	ldr	r3, [r7, #4]
    4438:	6818      	ldr	r0, [r3, #0]
    443a:	683b      	ldr	r3, [r7, #0]
    443c:	68d9      	ldr	r1, [r3, #12]
    443e:	683b      	ldr	r3, [r7, #0]
    4440:	689b      	ldr	r3, [r3, #8]
    4442:	461a      	mov	r2, r3
    4444:	f7ff fe87 	bl	4156 <nrf_uarte_hwfc_pins_set>
    4448:	bf00      	nop
    444a:	3708      	adds	r7, #8
    444c:	46bd      	mov	sp, r7
    444e:	bd80      	pop	{r7, pc}

00004450 <interrupts_enable>:
    4450:	b580      	push	{r7, lr}
    4452:	b082      	sub	sp, #8
    4454:	af00      	add	r7, sp, #0
    4456:	6078      	str	r0, [r7, #4]
    4458:	460b      	mov	r3, r1
    445a:	70fb      	strb	r3, [r7, #3]
    445c:	687b      	ldr	r3, [r7, #4]
    445e:	681b      	ldr	r3, [r3, #0]
    4460:	f44f 7188 	mov.w	r1, #272	; 0x110
    4464:	4618      	mov	r0, r3
    4466:	f7ff fd92 	bl	3f8e <nrf_uarte_event_clear>
    446a:	687b      	ldr	r3, [r7, #4]
    446c:	681b      	ldr	r3, [r3, #0]
    446e:	f44f 7190 	mov.w	r1, #288	; 0x120
    4472:	4618      	mov	r0, r3
    4474:	f7ff fd8b 	bl	3f8e <nrf_uarte_event_clear>
    4478:	687b      	ldr	r3, [r7, #4]
    447a:	681b      	ldr	r3, [r3, #0]
    447c:	f44f 7192 	mov.w	r1, #292	; 0x124
    4480:	4618      	mov	r0, r3
    4482:	f7ff fd84 	bl	3f8e <nrf_uarte_event_clear>
    4486:	687b      	ldr	r3, [r7, #4]
    4488:	681b      	ldr	r3, [r3, #0]
    448a:	f44f 71a2 	mov.w	r1, #324	; 0x144
    448e:	4618      	mov	r0, r3
    4490:	f7ff fd7d 	bl	3f8e <nrf_uarte_event_clear>
    4494:	687b      	ldr	r3, [r7, #4]
    4496:	681b      	ldr	r3, [r3, #0]
    4498:	f44f 71ac 	mov.w	r1, #344	; 0x158
    449c:	4618      	mov	r0, r3
    449e:	f7ff fd76 	bl	3f8e <nrf_uarte_event_clear>
    44a2:	687b      	ldr	r3, [r7, #4]
    44a4:	681b      	ldr	r3, [r3, #0]
    44a6:	490e      	ldr	r1, [pc, #56]	; (44e0 <interrupts_enable+0x90>)
    44a8:	4618      	mov	r0, r3
    44aa:	f7ff fdb0 	bl	400e <nrf_uarte_int_enable>
    44ae:	687b      	ldr	r3, [r7, #4]
    44b0:	681b      	ldr	r3, [r3, #0]
    44b2:	4618      	mov	r0, r3
    44b4:	f7ff fd2f 	bl	3f16 <nrfx_get_irq_number>
    44b8:	4603      	mov	r3, r0
    44ba:	461a      	mov	r2, r3
    44bc:	78fb      	ldrb	r3, [r7, #3]
    44be:	4619      	mov	r1, r3
    44c0:	4610      	mov	r0, r2
    44c2:	f7ff fd35 	bl	3f30 <_NRFX_IRQ_PRIORITY_SET>
    44c6:	687b      	ldr	r3, [r7, #4]
    44c8:	681b      	ldr	r3, [r3, #0]
    44ca:	4618      	mov	r0, r3
    44cc:	f7ff fd23 	bl	3f16 <nrfx_get_irq_number>
    44d0:	4603      	mov	r3, r0
    44d2:	4618      	mov	r0, r3
    44d4:	f7ff fd3f 	bl	3f56 <_NRFX_IRQ_ENABLE>
    44d8:	bf00      	nop
    44da:	3708      	adds	r7, #8
    44dc:	46bd      	mov	sp, r7
    44de:	bd80      	pop	{r7, pc}
    44e0:	00420310 	.word	0x00420310

000044e4 <interrupts_disable>:
    44e4:	b580      	push	{r7, lr}
    44e6:	b082      	sub	sp, #8
    44e8:	af00      	add	r7, sp, #0
    44ea:	6078      	str	r0, [r7, #4]
    44ec:	687b      	ldr	r3, [r7, #4]
    44ee:	681b      	ldr	r3, [r3, #0]
    44f0:	4908      	ldr	r1, [pc, #32]	; (4514 <interrupts_disable+0x30>)
    44f2:	4618      	mov	r0, r3
    44f4:	f7ff fd9a 	bl	402c <nrf_uarte_int_disable>
    44f8:	687b      	ldr	r3, [r7, #4]
    44fa:	681b      	ldr	r3, [r3, #0]
    44fc:	4618      	mov	r0, r3
    44fe:	f7ff fd0a 	bl	3f16 <nrfx_get_irq_number>
    4502:	4603      	mov	r3, r0
    4504:	4618      	mov	r0, r3
    4506:	f7ff fd34 	bl	3f72 <_NRFX_IRQ_DISABLE>
    450a:	bf00      	nop
    450c:	3708      	adds	r7, #8
    450e:	46bd      	mov	sp, r7
    4510:	bd80      	pop	{r7, pc}
    4512:	bf00      	nop
    4514:	00420310 	.word	0x00420310

00004518 <pins_to_default>:
    4518:	b580      	push	{r7, lr}
    451a:	b086      	sub	sp, #24
    451c:	af00      	add	r7, sp, #0
    451e:	6078      	str	r0, [r7, #4]
    4520:	687b      	ldr	r3, [r7, #4]
    4522:	681b      	ldr	r3, [r3, #0]
    4524:	4618      	mov	r0, r3
    4526:	f7ff fde2 	bl	40ee <nrf_uarte_tx_pin_get>
    452a:	6178      	str	r0, [r7, #20]
    452c:	687b      	ldr	r3, [r7, #4]
    452e:	681b      	ldr	r3, [r3, #0]
    4530:	4618      	mov	r0, r3
    4532:	f7ff fde9 	bl	4108 <nrf_uarte_rx_pin_get>
    4536:	6138      	str	r0, [r7, #16]
    4538:	687b      	ldr	r3, [r7, #4]
    453a:	681b      	ldr	r3, [r3, #0]
    453c:	4618      	mov	r0, r3
    453e:	f7ff fdf0 	bl	4122 <nrf_uarte_rts_pin_get>
    4542:	60f8      	str	r0, [r7, #12]
    4544:	687b      	ldr	r3, [r7, #4]
    4546:	681b      	ldr	r3, [r3, #0]
    4548:	4618      	mov	r0, r3
    454a:	f7ff fdf7 	bl	413c <nrf_uarte_cts_pin_get>
    454e:	60b8      	str	r0, [r7, #8]
    4550:	687b      	ldr	r3, [r7, #4]
    4552:	681b      	ldr	r3, [r3, #0]
    4554:	4618      	mov	r0, r3
    4556:	f7ff fdbb 	bl	40d0 <nrf_uarte_txrx_pins_disconnect>
    455a:	687b      	ldr	r3, [r7, #4]
    455c:	681b      	ldr	r3, [r3, #0]
    455e:	4618      	mov	r0, r3
    4560:	f7ff fe0d 	bl	417e <nrf_uarte_hwfc_pins_disconnect>
    4564:	697b      	ldr	r3, [r7, #20]
    4566:	f1b3 3fff 	cmp.w	r3, #4294967295	; 0xffffffff
    456a:	d002      	beq.n	4572 <pins_to_default+0x5a>
    456c:	6978      	ldr	r0, [r7, #20]
    456e:	f7ff fed5 	bl	431c <nrf_gpio_cfg_default>
    4572:	693b      	ldr	r3, [r7, #16]
    4574:	f1b3 3fff 	cmp.w	r3, #4294967295	; 0xffffffff
    4578:	d002      	beq.n	4580 <pins_to_default+0x68>
    457a:	6938      	ldr	r0, [r7, #16]
    457c:	f7ff fece 	bl	431c <nrf_gpio_cfg_default>
    4580:	68bb      	ldr	r3, [r7, #8]
    4582:	f1b3 3fff 	cmp.w	r3, #4294967295	; 0xffffffff
    4586:	d002      	beq.n	458e <pins_to_default+0x76>
    4588:	68b8      	ldr	r0, [r7, #8]
    458a:	f7ff fec7 	bl	431c <nrf_gpio_cfg_default>
    458e:	68fb      	ldr	r3, [r7, #12]
    4590:	f1b3 3fff 	cmp.w	r3, #4294967295	; 0xffffffff
    4594:	d002      	beq.n	459c <pins_to_default+0x84>
    4596:	68f8      	ldr	r0, [r7, #12]
    4598:	f7ff fec0 	bl	431c <nrf_gpio_cfg_default>
    459c:	bf00      	nop
    459e:	3718      	adds	r7, #24
    45a0:	46bd      	mov	sp, r7
    45a2:	bd80      	pop	{r7, pc}

000045a4 <nrfx_uarte_init>:
    45a4:	b580      	push	{r7, lr}
    45a6:	b086      	sub	sp, #24
    45a8:	af00      	add	r7, sp, #0
    45aa:	60f8      	str	r0, [r7, #12]
    45ac:	60b9      	str	r1, [r7, #8]
    45ae:	607a      	str	r2, [r7, #4]
    45b0:	68fb      	ldr	r3, [r7, #12]
    45b2:	791b      	ldrb	r3, [r3, #4]
    45b4:	461a      	mov	r2, r3
    45b6:	4613      	mov	r3, r2
    45b8:	00db      	lsls	r3, r3, #3
    45ba:	4413      	add	r3, r2
    45bc:	009b      	lsls	r3, r3, #2
    45be:	4a26      	ldr	r2, [pc, #152]	; (4658 <nrfx_uarte_init+0xb4>)
    45c0:	4413      	add	r3, r2
    45c2:	613b      	str	r3, [r7, #16]
    45c4:	2300      	movs	r3, #0
    45c6:	617b      	str	r3, [r7, #20]
    45c8:	693b      	ldr	r3, [r7, #16]
    45ca:	f893 3020 	ldrb.w	r3, [r3, #32]
    45ce:	2b00      	cmp	r3, #0
    45d0:	d003      	beq.n	45da <nrfx_uarte_init+0x36>
    45d2:	2308      	movs	r3, #8
    45d4:	617b      	str	r3, [r7, #20]
    45d6:	697b      	ldr	r3, [r7, #20]
    45d8:	e03a      	b.n	4650 <nrfx_uarte_init+0xac>
    45da:	68fb      	ldr	r3, [r7, #12]
    45dc:	681a      	ldr	r2, [r3, #0]
    45de:	68fb      	ldr	r3, [r7, #12]
    45e0:	791b      	ldrb	r3, [r3, #4]
    45e2:	4619      	mov	r1, r3
    45e4:	4b1d      	ldr	r3, [pc, #116]	; (465c <nrfx_uarte_init+0xb8>)
    45e6:	f853 3021 	ldr.w	r3, [r3, r1, lsl #2]
    45ea:	4619      	mov	r1, r3
    45ec:	4610      	mov	r0, r2
    45ee:	f7fe fd85 	bl	30fc <nrfx_prs_acquire>
    45f2:	4603      	mov	r3, r0
    45f4:	2b00      	cmp	r3, #0
    45f6:	d003      	beq.n	4600 <nrfx_uarte_init+0x5c>
    45f8:	2311      	movs	r3, #17
    45fa:	617b      	str	r3, [r7, #20]
    45fc:	697b      	ldr	r3, [r7, #20]
    45fe:	e027      	b.n	4650 <nrfx_uarte_init+0xac>
    4600:	68b9      	ldr	r1, [r7, #8]
    4602:	68f8      	ldr	r0, [r7, #12]
    4604:	f7ff fec0 	bl	4388 <apply_config>
    4608:	693b      	ldr	r3, [r7, #16]
    460a:	687a      	ldr	r2, [r7, #4]
    460c:	605a      	str	r2, [r3, #4]
    460e:	68bb      	ldr	r3, [r7, #8]
    4610:	691a      	ldr	r2, [r3, #16]
    4612:	693b      	ldr	r3, [r7, #16]
    4614:	601a      	str	r2, [r3, #0]
    4616:	693b      	ldr	r3, [r7, #16]
    4618:	685b      	ldr	r3, [r3, #4]
    461a:	2b00      	cmp	r3, #0
    461c:	d005      	beq.n	462a <nrfx_uarte_init+0x86>
    461e:	68bb      	ldr	r3, [r7, #8]
    4620:	7f1b      	ldrb	r3, [r3, #28]
    4622:	4619      	mov	r1, r3
    4624:	68f8      	ldr	r0, [r7, #12]
    4626:	f7ff ff13 	bl	4450 <interrupts_enable>
    462a:	68fb      	ldr	r3, [r7, #12]
    462c:	681b      	ldr	r3, [r3, #0]
    462e:	4618      	mov	r0, r3
    4630:	f7ff fd1e 	bl	4070 <nrf_uarte_enable>
    4634:	693b      	ldr	r3, [r7, #16]
    4636:	2200      	movs	r2, #0
    4638:	619a      	str	r2, [r3, #24]
    463a:	693b      	ldr	r3, [r7, #16]
    463c:	2200      	movs	r2, #0
    463e:	61da      	str	r2, [r3, #28]
    4640:	693b      	ldr	r3, [r7, #16]
    4642:	2200      	movs	r2, #0
    4644:	615a      	str	r2, [r3, #20]
    4646:	693b      	ldr	r3, [r7, #16]
    4648:	2201      	movs	r2, #1
    464a:	f883 2020 	strb.w	r2, [r3, #32]
    464e:	697b      	ldr	r3, [r7, #20]
    4650:	4618      	mov	r0, r3
    4652:	3718      	adds	r7, #24
    4654:	46bd      	mov	sp, r7
    4656:	bd80      	pop	{r7, pc}
    4658:	200006cc 	.word	0x200006cc
    465c:	00005b64 	.word	0x00005b64

00004660 <nrfx_uarte_uninit>:
    4660:	b580      	push	{r7, lr}
    4662:	b084      	sub	sp, #16
    4664:	af00      	add	r7, sp, #0
    4666:	6078      	str	r0, [r7, #4]
    4668:	687b      	ldr	r3, [r7, #4]
    466a:	791b      	ldrb	r3, [r3, #4]
    466c:	461a      	mov	r2, r3
    466e:	4613      	mov	r3, r2
    4670:	00db      	lsls	r3, r3, #3
    4672:	4413      	add	r3, r2
    4674:	009b      	lsls	r3, r3, #2
    4676:	4a2b      	ldr	r2, [pc, #172]	; (4724 <nrfx_uarte_uninit+0xc4>)
    4678:	4413      	add	r3, r2
    467a:	60fb      	str	r3, [r7, #12]
    467c:	687b      	ldr	r3, [r7, #4]
    467e:	681b      	ldr	r3, [r3, #0]
    4680:	60bb      	str	r3, [r7, #8]
    4682:	68fb      	ldr	r3, [r7, #12]
    4684:	685b      	ldr	r3, [r3, #4]
    4686:	2b00      	cmp	r3, #0
    4688:	d002      	beq.n	4690 <nrfx_uarte_uninit+0x30>
    468a:	6878      	ldr	r0, [r7, #4]
    468c:	f7ff ff2a 	bl	44e4 <interrupts_disable>
    4690:	2120      	movs	r1, #32
    4692:	68b8      	ldr	r0, [r7, #8]
    4694:	f7ff fca7 	bl	3fe6 <nrf_uarte_shorts_disable>
    4698:	68fb      	ldr	r3, [r7, #12]
    469a:	699b      	ldr	r3, [r3, #24]
    469c:	2b00      	cmp	r3, #0
    469e:	d008      	beq.n	46b2 <nrfx_uarte_uninit+0x52>
    46a0:	f44f 71a2 	mov.w	r1, #324	; 0x144
    46a4:	68b8      	ldr	r0, [r7, #8]
    46a6:	f7ff fc72 	bl	3f8e <nrf_uarte_event_clear>
    46aa:	2104      	movs	r1, #4
    46ac:	68b8      	ldr	r0, [r7, #8]
    46ae:	f7ff fd75 	bl	419c <nrf_uarte_task_trigger>
    46b2:	f44f 71ac 	mov.w	r1, #344	; 0x158
    46b6:	68b8      	ldr	r0, [r7, #8]
    46b8:	f7ff fc69 	bl	3f8e <nrf_uarte_event_clear>
    46bc:	210c      	movs	r1, #12
    46be:	68b8      	ldr	r0, [r7, #8]
    46c0:	f7ff fd6c 	bl	419c <nrf_uarte_task_trigger>
    46c4:	bf00      	nop
    46c6:	f44f 71ac 	mov.w	r1, #344	; 0x158
    46ca:	68b8      	ldr	r0, [r7, #8]
    46cc:	f7ff fc76 	bl	3fbc <nrf_uarte_event_check>
    46d0:	4603      	mov	r3, r0
    46d2:	f083 0301 	eor.w	r3, r3, #1
    46d6:	b2db      	uxtb	r3, r3
    46d8:	2b00      	cmp	r3, #0
    46da:	d1f4      	bne.n	46c6 <nrfx_uarte_uninit+0x66>
    46dc:	68fb      	ldr	r3, [r7, #12]
    46de:	699b      	ldr	r3, [r3, #24]
    46e0:	2b00      	cmp	r3, #0
    46e2:	d00a      	beq.n	46fa <nrfx_uarte_uninit+0x9a>
    46e4:	f44f 71a2 	mov.w	r1, #324	; 0x144
    46e8:	68b8      	ldr	r0, [r7, #8]
    46ea:	f7ff fc67 	bl	3fbc <nrf_uarte_event_check>
    46ee:	4603      	mov	r3, r0
    46f0:	f083 0301 	eor.w	r3, r3, #1
    46f4:	b2db      	uxtb	r3, r3
    46f6:	2b00      	cmp	r3, #0
    46f8:	d1e5      	bne.n	46c6 <nrfx_uarte_uninit+0x66>
    46fa:	68b8      	ldr	r0, [r7, #8]
    46fc:	f7ff fcc6 	bl	408c <nrf_uarte_disable>
    4700:	6878      	ldr	r0, [r7, #4]
    4702:	f7ff ff09 	bl	4518 <pins_to_default>
    4706:	68b8      	ldr	r0, [r7, #8]
    4708:	f7fe fd27 	bl	315a <nrfx_prs_release>
    470c:	68fb      	ldr	r3, [r7, #12]
    470e:	2200      	movs	r2, #0
    4710:	f883 2020 	strb.w	r2, [r3, #32]
    4714:	68fb      	ldr	r3, [r7, #12]
    4716:	2200      	movs	r2, #0
    4718:	605a      	str	r2, [r3, #4]
    471a:	bf00      	nop
    471c:	3710      	adds	r7, #16
    471e:	46bd      	mov	sp, r7
    4720:	bd80      	pop	{r7, pc}
    4722:	bf00      	nop
    4724:	200006cc 	.word	0x200006cc

00004728 <nrfx_uarte_tx>:
    4728:	b580      	push	{r7, lr}
    472a:	b088      	sub	sp, #32
    472c:	af00      	add	r7, sp, #0
    472e:	60f8      	str	r0, [r7, #12]
    4730:	60b9      	str	r1, [r7, #8]
    4732:	607a      	str	r2, [r7, #4]
    4734:	68fb      	ldr	r3, [r7, #12]
    4736:	791b      	ldrb	r3, [r3, #4]
    4738:	461a      	mov	r2, r3
    473a:	4613      	mov	r3, r2
    473c:	00db      	lsls	r3, r3, #3
    473e:	4413      	add	r3, r2
    4740:	009b      	lsls	r3, r3, #2
    4742:	4a41      	ldr	r2, [pc, #260]	; (4848 <nrfx_uarte_tx+0x120>)
    4744:	4413      	add	r3, r2
    4746:	617b      	str	r3, [r7, #20]
    4748:	68b8      	ldr	r0, [r7, #8]
    474a:	f7ff fbd1 	bl	3ef0 <nrfx_is_in_ram>
    474e:	4603      	mov	r3, r0
    4750:	f083 0301 	eor.w	r3, r3, #1
    4754:	b2db      	uxtb	r3, r3
    4756:	2b00      	cmp	r3, #0
    4758:	d003      	beq.n	4762 <nrfx_uarte_tx+0x3a>
    475a:	2310      	movs	r3, #16
    475c:	61fb      	str	r3, [r7, #28]
    475e:	69fb      	ldr	r3, [r7, #28]
    4760:	e06e      	b.n	4840 <nrfx_uarte_tx+0x118>
    4762:	68f8      	ldr	r0, [r7, #12]
    4764:	f000 f872 	bl	484c <nrfx_uarte_tx_in_progress>
    4768:	4603      	mov	r3, r0
    476a:	2b00      	cmp	r3, #0
    476c:	d003      	beq.n	4776 <nrfx_uarte_tx+0x4e>
    476e:	2311      	movs	r3, #17
    4770:	61fb      	str	r3, [r7, #28]
    4772:	69fb      	ldr	r3, [r7, #28]
    4774:	e064      	b.n	4840 <nrfx_uarte_tx+0x118>
    4776:	697b      	ldr	r3, [r7, #20]
    4778:	687a      	ldr	r2, [r7, #4]
    477a:	615a      	str	r2, [r3, #20]
    477c:	697b      	ldr	r3, [r7, #20]
    477e:	68ba      	ldr	r2, [r7, #8]
    4780:	609a      	str	r2, [r3, #8]
    4782:	2300      	movs	r3, #0
    4784:	61fb      	str	r3, [r7, #28]
    4786:	68fb      	ldr	r3, [r7, #12]
    4788:	681b      	ldr	r3, [r3, #0]
    478a:	f44f 7190 	mov.w	r1, #288	; 0x120
    478e:	4618      	mov	r0, r3
    4790:	f7ff fbfd 	bl	3f8e <nrf_uarte_event_clear>
    4794:	68fb      	ldr	r3, [r7, #12]
    4796:	681b      	ldr	r3, [r3, #0]
    4798:	f44f 71ac 	mov.w	r1, #344	; 0x158
    479c:	4618      	mov	r0, r3
    479e:	f7ff fbf6 	bl	3f8e <nrf_uarte_event_clear>
    47a2:	68fb      	ldr	r3, [r7, #12]
    47a4:	6818      	ldr	r0, [r3, #0]
    47a6:	697b      	ldr	r3, [r7, #20]
    47a8:	6899      	ldr	r1, [r3, #8]
    47aa:	697b      	ldr	r3, [r7, #20]
    47ac:	695b      	ldr	r3, [r3, #20]
    47ae:	461a      	mov	r2, r3
    47b0:	f7ff fd2a 	bl	4208 <nrf_uarte_tx_buffer_set>
    47b4:	68fb      	ldr	r3, [r7, #12]
    47b6:	681b      	ldr	r3, [r3, #0]
    47b8:	2108      	movs	r1, #8
    47ba:	4618      	mov	r0, r3
    47bc:	f7ff fcee 	bl	419c <nrf_uarte_task_trigger>
    47c0:	697b      	ldr	r3, [r7, #20]
    47c2:	685b      	ldr	r3, [r3, #4]
    47c4:	2b00      	cmp	r3, #0
    47c6:	d13a      	bne.n	483e <nrfx_uarte_tx+0x116>
    47c8:	68fb      	ldr	r3, [r7, #12]
    47ca:	681b      	ldr	r3, [r3, #0]
    47cc:	f44f 7190 	mov.w	r1, #288	; 0x120
    47d0:	4618      	mov	r0, r3
    47d2:	f7ff fbf3 	bl	3fbc <nrf_uarte_event_check>
    47d6:	4603      	mov	r3, r0
    47d8:	76bb      	strb	r3, [r7, #26]
    47da:	68fb      	ldr	r3, [r7, #12]
    47dc:	681b      	ldr	r3, [r3, #0]
    47de:	f44f 71ac 	mov.w	r1, #344	; 0x158
    47e2:	4618      	mov	r0, r3
    47e4:	f7ff fbea 	bl	3fbc <nrf_uarte_event_check>
    47e8:	4603      	mov	r3, r0
    47ea:	76fb      	strb	r3, [r7, #27]
    47ec:	7ebb      	ldrb	r3, [r7, #26]
    47ee:	f083 0301 	eor.w	r3, r3, #1
    47f2:	b2db      	uxtb	r3, r3
    47f4:	2b00      	cmp	r3, #0
    47f6:	d005      	beq.n	4804 <nrfx_uarte_tx+0xdc>
    47f8:	7efb      	ldrb	r3, [r7, #27]
    47fa:	f083 0301 	eor.w	r3, r3, #1
    47fe:	b2db      	uxtb	r3, r3
    4800:	2b00      	cmp	r3, #0
    4802:	d1e1      	bne.n	47c8 <nrfx_uarte_tx+0xa0>
    4804:	7efb      	ldrb	r3, [r7, #27]
    4806:	2b00      	cmp	r3, #0
    4808:	d002      	beq.n	4810 <nrfx_uarte_tx+0xe8>
    480a:	230f      	movs	r3, #15
    480c:	61fb      	str	r3, [r7, #28]
    480e:	e013      	b.n	4838 <nrfx_uarte_tx+0x110>
    4810:	68fb      	ldr	r3, [r7, #12]
    4812:	681b      	ldr	r3, [r3, #0]
    4814:	210c      	movs	r1, #12
    4816:	4618      	mov	r0, r3
    4818:	f7ff fcc0 	bl	419c <nrf_uarte_task_trigger>
    481c:	bf00      	nop
    481e:	68fb      	ldr	r3, [r7, #12]
    4820:	681b      	ldr	r3, [r3, #0]
    4822:	f44f 71ac 	mov.w	r1, #344	; 0x158
    4826:	4618      	mov	r0, r3
    4828:	f7ff fbc8 	bl	3fbc <nrf_uarte_event_check>
    482c:	4603      	mov	r3, r0
    482e:	f083 0301 	eor.w	r3, r3, #1
    4832:	b2db      	uxtb	r3, r3
    4834:	2b00      	cmp	r3, #0
    4836:	d1f2      	bne.n	481e <nrfx_uarte_tx+0xf6>
    4838:	697b      	ldr	r3, [r7, #20]
    483a:	2200      	movs	r2, #0
    483c:	615a      	str	r2, [r3, #20]
    483e:	69fb      	ldr	r3, [r7, #28]
    4840:	4618      	mov	r0, r3
    4842:	3720      	adds	r7, #32
    4844:	46bd      	mov	sp, r7
    4846:	bd80      	pop	{r7, pc}
    4848:	200006cc 	.word	0x200006cc

0000484c <nrfx_uarte_tx_in_progress>:
    484c:	b480      	push	{r7}
    484e:	b083      	sub	sp, #12
    4850:	af00      	add	r7, sp, #0
    4852:	6078      	str	r0, [r7, #4]
    4854:	687b      	ldr	r3, [r7, #4]
    4856:	791b      	ldrb	r3, [r3, #4]
    4858:	4619      	mov	r1, r3
    485a:	4a09      	ldr	r2, [pc, #36]	; (4880 <nrfx_uarte_tx_in_progress+0x34>)
    485c:	460b      	mov	r3, r1
    485e:	00db      	lsls	r3, r3, #3
    4860:	440b      	add	r3, r1
    4862:	009b      	lsls	r3, r3, #2
    4864:	4413      	add	r3, r2
    4866:	3314      	adds	r3, #20
    4868:	681b      	ldr	r3, [r3, #0]
    486a:	2b00      	cmp	r3, #0
    486c:	bf14      	ite	ne
    486e:	2301      	movne	r3, #1
    4870:	2300      	moveq	r3, #0
    4872:	b2db      	uxtb	r3, r3
    4874:	4618      	mov	r0, r3
    4876:	370c      	adds	r7, #12
    4878:	46bd      	mov	sp, r7
    487a:	f85d 7b04 	ldr.w	r7, [sp], #4
    487e:	4770      	bx	lr
    4880:	200006cc 	.word	0x200006cc

00004884 <rx_done_event>:
    4884:	b580      	push	{r7, lr}
    4886:	b088      	sub	sp, #32
    4888:	af00      	add	r7, sp, #0
    488a:	60f8      	str	r0, [r7, #12]
    488c:	60b9      	str	r1, [r7, #8]
    488e:	607a      	str	r2, [r7, #4]
    4890:	2301      	movs	r3, #1
    4892:	743b      	strb	r3, [r7, #16]
    4894:	68bb      	ldr	r3, [r7, #8]
    4896:	61bb      	str	r3, [r7, #24]
    4898:	687b      	ldr	r3, [r7, #4]
    489a:	617b      	str	r3, [r7, #20]
    489c:	68fb      	ldr	r3, [r7, #12]
    489e:	685b      	ldr	r3, [r3, #4]
    48a0:	68fa      	ldr	r2, [r7, #12]
    48a2:	6811      	ldr	r1, [r2, #0]
    48a4:	f107 0210 	add.w	r2, r7, #16
    48a8:	4610      	mov	r0, r2
    48aa:	4798      	blx	r3
    48ac:	bf00      	nop
    48ae:	3720      	adds	r7, #32
    48b0:	46bd      	mov	sp, r7
    48b2:	bd80      	pop	{r7, pc}

000048b4 <tx_done_event>:
    48b4:	b580      	push	{r7, lr}
    48b6:	b086      	sub	sp, #24
    48b8:	af00      	add	r7, sp, #0
    48ba:	6078      	str	r0, [r7, #4]
    48bc:	6039      	str	r1, [r7, #0]
    48be:	2300      	movs	r3, #0
    48c0:	723b      	strb	r3, [r7, #8]
    48c2:	683b      	ldr	r3, [r7, #0]
    48c4:	613b      	str	r3, [r7, #16]
    48c6:	687b      	ldr	r3, [r7, #4]
    48c8:	689b      	ldr	r3, [r3, #8]
    48ca:	60fb      	str	r3, [r7, #12]
    48cc:	687b      	ldr	r3, [r7, #4]
    48ce:	2200      	movs	r2, #0
    48d0:	615a      	str	r2, [r3, #20]
    48d2:	687b      	ldr	r3, [r7, #4]
    48d4:	685b      	ldr	r3, [r3, #4]
    48d6:	687a      	ldr	r2, [r7, #4]
    48d8:	6811      	ldr	r1, [r2, #0]
    48da:	f107 0208 	add.w	r2, r7, #8
    48de:	4610      	mov	r0, r2
    48e0:	4798      	blx	r3
    48e2:	bf00      	nop
    48e4:	3718      	adds	r7, #24
    48e6:	46bd      	mov	sp, r7
    48e8:	bd80      	pop	{r7, pc}

000048ea <uarte_irq_handler>:
    48ea:	b580      	push	{r7, lr}
    48ec:	b088      	sub	sp, #32
    48ee:	af00      	add	r7, sp, #0
    48f0:	6078      	str	r0, [r7, #4]
    48f2:	6039      	str	r1, [r7, #0]
    48f4:	f44f 7192 	mov.w	r1, #292	; 0x124
    48f8:	6878      	ldr	r0, [r7, #4]
    48fa:	f7ff fb5f 	bl	3fbc <nrf_uarte_event_check>
    48fe:	4603      	mov	r3, r0
    4900:	2b00      	cmp	r3, #0
    4902:	d022      	beq.n	494a <uarte_irq_handler+0x60>
    4904:	f44f 7192 	mov.w	r1, #292	; 0x124
    4908:	6878      	ldr	r0, [r7, #4]
    490a:	f7ff fb40 	bl	3f8e <nrf_uarte_event_clear>
    490e:	2302      	movs	r3, #2
    4910:	723b      	strb	r3, [r7, #8]
    4912:	6878      	ldr	r0, [r7, #4]
    4914:	f7ff fb99 	bl	404a <nrf_uarte_errorsrc_get_and_clear>
    4918:	4603      	mov	r3, r0
    491a:	617b      	str	r3, [r7, #20]
    491c:	6878      	ldr	r0, [r7, #4]
    491e:	f7ff fc94 	bl	424a <nrf_uarte_rx_amount_get>
    4922:	4603      	mov	r3, r0
    4924:	613b      	str	r3, [r7, #16]
    4926:	683b      	ldr	r3, [r7, #0]
    4928:	68db      	ldr	r3, [r3, #12]
    492a:	60fb      	str	r3, [r7, #12]
    492c:	683b      	ldr	r3, [r7, #0]
    492e:	2200      	movs	r2, #0
    4930:	619a      	str	r2, [r3, #24]
    4932:	683b      	ldr	r3, [r7, #0]
    4934:	2200      	movs	r2, #0
    4936:	61da      	str	r2, [r3, #28]
    4938:	683b      	ldr	r3, [r7, #0]
    493a:	685b      	ldr	r3, [r3, #4]
    493c:	683a      	ldr	r2, [r7, #0]
    493e:	6811      	ldr	r1, [r2, #0]
    4940:	f107 0208 	add.w	r2, r7, #8
    4944:	4610      	mov	r0, r2
    4946:	4798      	blx	r3
    4948:	e03b      	b.n	49c2 <uarte_irq_handler+0xd8>
    494a:	f44f 7188 	mov.w	r1, #272	; 0x110
    494e:	6878      	ldr	r0, [r7, #4]
    4950:	f7ff fb34 	bl	3fbc <nrf_uarte_event_check>
    4954:	4603      	mov	r3, r0
    4956:	2b00      	cmp	r3, #0
    4958:	d033      	beq.n	49c2 <uarte_irq_handler+0xd8>
    495a:	f44f 7188 	mov.w	r1, #272	; 0x110
    495e:	6878      	ldr	r0, [r7, #4]
    4960:	f7ff fb15 	bl	3f8e <nrf_uarte_event_clear>
    4964:	6878      	ldr	r0, [r7, #4]
    4966:	f7ff fc70 	bl	424a <nrf_uarte_rx_amount_get>
    496a:	61f8      	str	r0, [r7, #28]
    496c:	683b      	ldr	r3, [r7, #0]
    496e:	699b      	ldr	r3, [r3, #24]
    4970:	69fa      	ldr	r2, [r7, #28]
    4972:	429a      	cmp	r2, r3
    4974:	d125      	bne.n	49c2 <uarte_irq_handler+0xd8>
    4976:	683b      	ldr	r3, [r7, #0]
    4978:	69db      	ldr	r3, [r3, #28]
    497a:	2b00      	cmp	r3, #0
    497c:	d017      	beq.n	49ae <uarte_irq_handler+0xc4>
    497e:	683b      	ldr	r3, [r7, #0]
    4980:	68db      	ldr	r3, [r3, #12]
    4982:	61bb      	str	r3, [r7, #24]
    4984:	2120      	movs	r1, #32
    4986:	6878      	ldr	r0, [r7, #4]
    4988:	f7ff fb2d 	bl	3fe6 <nrf_uarte_shorts_disable>
    498c:	683b      	ldr	r3, [r7, #0]
    498e:	69da      	ldr	r2, [r3, #28]
    4990:	683b      	ldr	r3, [r7, #0]
    4992:	619a      	str	r2, [r3, #24]
    4994:	683b      	ldr	r3, [r7, #0]
    4996:	691a      	ldr	r2, [r3, #16]
    4998:	683b      	ldr	r3, [r7, #0]
    499a:	60da      	str	r2, [r3, #12]
    499c:	683b      	ldr	r3, [r7, #0]
    499e:	2200      	movs	r2, #0
    49a0:	61da      	str	r2, [r3, #28]
    49a2:	69ba      	ldr	r2, [r7, #24]
    49a4:	69f9      	ldr	r1, [r7, #28]
    49a6:	6838      	ldr	r0, [r7, #0]
    49a8:	f7ff ff6c 	bl	4884 <rx_done_event>
    49ac:	e009      	b.n	49c2 <uarte_irq_handler+0xd8>
    49ae:	683b      	ldr	r3, [r7, #0]
    49b0:	2200      	movs	r2, #0
    49b2:	619a      	str	r2, [r3, #24]
    49b4:	683b      	ldr	r3, [r7, #0]
    49b6:	68db      	ldr	r3, [r3, #12]
    49b8:	461a      	mov	r2, r3
    49ba:	69f9      	ldr	r1, [r7, #28]
    49bc:	6838      	ldr	r0, [r7, #0]
    49be:	f7ff ff61 	bl	4884 <rx_done_event>
    49c2:	f44f 71a2 	mov.w	r1, #324	; 0x144
    49c6:	6878      	ldr	r0, [r7, #4]
    49c8:	f7ff faf8 	bl	3fbc <nrf_uarte_event_check>
    49cc:	4603      	mov	r3, r0
    49ce:	2b00      	cmp	r3, #0
    49d0:	d018      	beq.n	4a04 <uarte_irq_handler+0x11a>
    49d2:	f44f 71a2 	mov.w	r1, #324	; 0x144
    49d6:	6878      	ldr	r0, [r7, #4]
    49d8:	f7ff fad9 	bl	3f8e <nrf_uarte_event_clear>
    49dc:	683b      	ldr	r3, [r7, #0]
    49de:	699b      	ldr	r3, [r3, #24]
    49e0:	2b00      	cmp	r3, #0
    49e2:	d00f      	beq.n	4a04 <uarte_irq_handler+0x11a>
    49e4:	683b      	ldr	r3, [r7, #0]
    49e6:	2200      	movs	r2, #0
    49e8:	619a      	str	r2, [r3, #24]
    49ea:	683b      	ldr	r3, [r7, #0]
    49ec:	2200      	movs	r2, #0
    49ee:	61da      	str	r2, [r3, #28]
    49f0:	6878      	ldr	r0, [r7, #4]
    49f2:	f7ff fc2a 	bl	424a <nrf_uarte_rx_amount_get>
    49f6:	4601      	mov	r1, r0
    49f8:	683b      	ldr	r3, [r7, #0]
    49fa:	68db      	ldr	r3, [r3, #12]
    49fc:	461a      	mov	r2, r3
    49fe:	6838      	ldr	r0, [r7, #0]
    4a00:	f7ff ff40 	bl	4884 <rx_done_event>
    4a04:	f44f 7190 	mov.w	r1, #288	; 0x120
    4a08:	6878      	ldr	r0, [r7, #4]
    4a0a:	f7ff fad7 	bl	3fbc <nrf_uarte_event_check>
    4a0e:	4603      	mov	r3, r0
    4a10:	2b00      	cmp	r3, #0
    4a12:	d014      	beq.n	4a3e <uarte_irq_handler+0x154>
    4a14:	f44f 7190 	mov.w	r1, #288	; 0x120
    4a18:	6878      	ldr	r0, [r7, #4]
    4a1a:	f7ff fab8 	bl	3f8e <nrf_uarte_event_clear>
    4a1e:	210c      	movs	r1, #12
    4a20:	6878      	ldr	r0, [r7, #4]
    4a22:	f7ff fbbb 	bl	419c <nrf_uarte_task_trigger>
    4a26:	683b      	ldr	r3, [r7, #0]
    4a28:	695b      	ldr	r3, [r3, #20]
    4a2a:	2b00      	cmp	r3, #0
    4a2c:	d007      	beq.n	4a3e <uarte_irq_handler+0x154>
    4a2e:	6878      	ldr	r0, [r7, #4]
    4a30:	f7ff fbfe 	bl	4230 <nrf_uarte_tx_amount_get>
    4a34:	4603      	mov	r3, r0
    4a36:	4619      	mov	r1, r3
    4a38:	6838      	ldr	r0, [r7, #0]
    4a3a:	f7ff ff3b 	bl	48b4 <tx_done_event>
    4a3e:	f44f 71ac 	mov.w	r1, #344	; 0x158
    4a42:	6878      	ldr	r0, [r7, #4]
    4a44:	f7ff faba 	bl	3fbc <nrf_uarte_event_check>
    4a48:	4603      	mov	r3, r0
    4a4a:	2b00      	cmp	r3, #0
    4a4c:	d010      	beq.n	4a70 <uarte_irq_handler+0x186>
    4a4e:	f44f 71ac 	mov.w	r1, #344	; 0x158
    4a52:	6878      	ldr	r0, [r7, #4]
    4a54:	f7ff fa9b 	bl	3f8e <nrf_uarte_event_clear>
    4a58:	683b      	ldr	r3, [r7, #0]
    4a5a:	695b      	ldr	r3, [r3, #20]
    4a5c:	2b00      	cmp	r3, #0
    4a5e:	d007      	beq.n	4a70 <uarte_irq_handler+0x186>
    4a60:	6878      	ldr	r0, [r7, #4]
    4a62:	f7ff fbe5 	bl	4230 <nrf_uarte_tx_amount_get>
    4a66:	4603      	mov	r3, r0
    4a68:	4619      	mov	r1, r3
    4a6a:	6838      	ldr	r0, [r7, #0]
    4a6c:	f7ff ff22 	bl	48b4 <tx_done_event>
    4a70:	bf00      	nop
    4a72:	3720      	adds	r7, #32
    4a74:	46bd      	mov	sp, r7
    4a76:	bd80      	pop	{r7, pc}

00004a78 <nrfx_uarte_0_irq_handler>:
    4a78:	b580      	push	{r7, lr}
    4a7a:	af00      	add	r7, sp, #0
    4a7c:	4902      	ldr	r1, [pc, #8]	; (4a88 <nrfx_uarte_0_irq_handler+0x10>)
    4a7e:	4803      	ldr	r0, [pc, #12]	; (4a8c <nrfx_uarte_0_irq_handler+0x14>)
    4a80:	f7ff ff33 	bl	48ea <uarte_irq_handler>
    4a84:	bf00      	nop
    4a86:	bd80      	pop	{r7, pc}
    4a88:	200006cc 	.word	0x200006cc
    4a8c:	40002000 	.word	0x40002000

00004a90 <nrfx_coredep_delay_us>:
    4a90:	b580      	push	{r7, lr}
    4a92:	b084      	sub	sp, #16
    4a94:	af00      	add	r7, sp, #0
    4a96:	6078      	str	r0, [r7, #4]
    4a98:	687b      	ldr	r3, [r7, #4]
    4a9a:	2b00      	cmp	r3, #0
    4a9c:	d00a      	beq.n	4ab4 <nrfx_coredep_delay_us+0x24>
    4a9e:	4b07      	ldr	r3, [pc, #28]	; (4abc <nrfx_coredep_delay_us+0x2c>)
    4aa0:	f043 0301 	orr.w	r3, r3, #1
    4aa4:	60fb      	str	r3, [r7, #12]
    4aa6:	687b      	ldr	r3, [r7, #4]
    4aa8:	019b      	lsls	r3, r3, #6
    4aaa:	60bb      	str	r3, [r7, #8]
    4aac:	68fb      	ldr	r3, [r7, #12]
    4aae:	68b8      	ldr	r0, [r7, #8]
    4ab0:	4798      	blx	r3
    4ab2:	e000      	b.n	4ab6 <nrfx_coredep_delay_us+0x26>
    4ab4:	bf00      	nop
    4ab6:	3710      	adds	r7, #16
    4ab8:	46bd      	mov	sp, r7
    4aba:	bd80      	pop	{r7, pc}
    4abc:	00005c00 	.word	0x00005c00

00004ac0 <nrf_drv_i2s_init>:
    4ac0:	b580      	push	{r7, lr}
    4ac2:	b082      	sub	sp, #8
    4ac4:	af00      	add	r7, sp, #0
    4ac6:	6078      	str	r0, [r7, #4]
    4ac8:	6039      	str	r1, [r7, #0]
    4aca:	687b      	ldr	r3, [r7, #4]
    4acc:	2b00      	cmp	r3, #0
    4ace:	d101      	bne.n	4ad4 <nrf_drv_i2s_init+0x14>
    4ad0:	4b05      	ldr	r3, [pc, #20]	; (4ae8 <nrf_drv_i2s_init+0x28>)
    4ad2:	607b      	str	r3, [r7, #4]
    4ad4:	6839      	ldr	r1, [r7, #0]
    4ad6:	6878      	ldr	r0, [r7, #4]
    4ad8:	f7fe f884 	bl	2be4 <nrfx_i2s_init>
    4adc:	4603      	mov	r3, r0
    4ade:	4618      	mov	r0, r3
    4ae0:	3708      	adds	r7, #8
    4ae2:	46bd      	mov	sp, r7
    4ae4:	bd80      	pop	{r7, pc}
    4ae6:	bf00      	nop
    4ae8:	00005be0 	.word	0x00005be0

00004aec <nrf_delay_ms>:
    4aec:	b580      	push	{r7, lr}
    4aee:	b082      	sub	sp, #8
    4af0:	af00      	add	r7, sp, #0
    4af2:	6078      	str	r0, [r7, #4]
    4af4:	687b      	ldr	r3, [r7, #4]
    4af6:	2b00      	cmp	r3, #0
    4af8:	d00a      	beq.n	4b10 <nrf_delay_ms+0x24>
    4afa:	f44f 707a 	mov.w	r0, #1000	; 0x3e8
    4afe:	f7ff ffc7 	bl	4a90 <nrfx_coredep_delay_us>
    4b02:	687b      	ldr	r3, [r7, #4]
    4b04:	3b01      	subs	r3, #1
    4b06:	607b      	str	r3, [r7, #4]
    4b08:	687b      	ldr	r3, [r7, #4]
    4b0a:	2b00      	cmp	r3, #0
    4b0c:	d1f5      	bne.n	4afa <nrf_delay_ms+0xe>
    4b0e:	e000      	b.n	4b12 <nrf_delay_ms+0x26>
    4b10:	bf00      	nop
    4b12:	3708      	adds	r7, #8
    4b14:	46bd      	mov	sp, r7
    4b16:	bd80      	pop	{r7, pc}

00004b18 <prepare_tx_data>:
    4b18:	b480      	push	{r7}
    4b1a:	b087      	sub	sp, #28
    4b1c:	af00      	add	r7, sp, #0
    4b1e:	6078      	str	r0, [r7, #4]
    4b20:	4b20      	ldr	r3, [pc, #128]	; (4ba4 <prepare_tx_data+0x8c>)
    4b22:	781b      	ldrb	r3, [r3, #0]
    4b24:	b2db      	uxtb	r3, r3
    4b26:	2b00      	cmp	r3, #0
    4b28:	d111      	bne.n	4b4e <prepare_tx_data+0x36>
    4b2a:	4b1f      	ldr	r3, [pc, #124]	; (4ba8 <prepare_tx_data+0x90>)
    4b2c:	781b      	ldrb	r3, [r3, #0]
    4b2e:	2b00      	cmp	r3, #0
    4b30:	d10d      	bne.n	4b4e <prepare_tx_data+0x36>
    4b32:	4b1d      	ldr	r3, [pc, #116]	; (4ba8 <prepare_tx_data+0x90>)
    4b34:	2202      	movs	r2, #2
    4b36:	701a      	strb	r2, [r3, #0]
    4b38:	4b1c      	ldr	r3, [pc, #112]	; (4bac <prepare_tx_data+0x94>)
    4b3a:	f64c 22fe 	movw	r2, #51966	; 0xcafe
    4b3e:	801a      	strh	r2, [r3, #0]
    4b40:	4b1b      	ldr	r3, [pc, #108]	; (4bb0 <prepare_tx_data+0x98>)
    4b42:	f64c 22fe 	movw	r2, #51966	; 0xcafe
    4b46:	801a      	strh	r2, [r3, #0]
    4b48:	4b1a      	ldr	r3, [pc, #104]	; (4bb4 <prepare_tx_data+0x9c>)
    4b4a:	2200      	movs	r2, #0
    4b4c:	701a      	strb	r2, [r3, #0]
    4b4e:	2300      	movs	r3, #0
    4b50:	82fb      	strh	r3, [r7, #22]
    4b52:	e01c      	b.n	4b8e <prepare_tx_data+0x76>
    4b54:	4b15      	ldr	r3, [pc, #84]	; (4bac <prepare_tx_data+0x94>)
    4b56:	881b      	ldrh	r3, [r3, #0]
    4b58:	3b01      	subs	r3, #1
    4b5a:	82bb      	strh	r3, [r7, #20]
    4b5c:	4b13      	ldr	r3, [pc, #76]	; (4bac <prepare_tx_data+0x94>)
    4b5e:	881b      	ldrh	r3, [r3, #0]
    4b60:	3301      	adds	r3, #1
    4b62:	827b      	strh	r3, [r7, #18]
    4b64:	4b11      	ldr	r3, [pc, #68]	; (4bac <prepare_tx_data+0x94>)
    4b66:	881b      	ldrh	r3, [r3, #0]
    4b68:	3301      	adds	r3, #1
    4b6a:	b29a      	uxth	r2, r3
    4b6c:	4b0f      	ldr	r3, [pc, #60]	; (4bac <prepare_tx_data+0x94>)
    4b6e:	801a      	strh	r2, [r3, #0]
    4b70:	8afb      	ldrh	r3, [r7, #22]
    4b72:	009b      	lsls	r3, r3, #2
    4b74:	687a      	ldr	r2, [r7, #4]
    4b76:	4413      	add	r3, r2
    4b78:	60fb      	str	r3, [r7, #12]
    4b7a:	68fb      	ldr	r3, [r7, #12]
    4b7c:	8aba      	ldrh	r2, [r7, #20]
    4b7e:	801a      	strh	r2, [r3, #0]
    4b80:	68fb      	ldr	r3, [r7, #12]
    4b82:	3302      	adds	r3, #2
    4b84:	8a7a      	ldrh	r2, [r7, #18]
    4b86:	801a      	strh	r2, [r3, #0]
    4b88:	8afb      	ldrh	r3, [r7, #22]
    4b8a:	3301      	adds	r3, #1
    4b8c:	82fb      	strh	r3, [r7, #22]
    4b8e:	8afb      	ldrh	r3, [r7, #22]
    4b90:	f5b3 7f00 	cmp.w	r3, #512	; 0x200
    4b94:	d3de      	bcc.n	4b54 <prepare_tx_data+0x3c>
    4b96:	bf00      	nop
    4b98:	bf00      	nop
    4b9a:	371c      	adds	r7, #28
    4b9c:	46bd      	mov	sp, r7
    4b9e:	f85d 7b04 	ldr.w	r7, [sp], #4
    4ba2:	4770      	bx	lr
    4ba4:	200026f0 	.word	0x200026f0
    4ba8:	200026f1 	.word	0x200026f1
    4bac:	200026f2 	.word	0x200026f2
    4bb0:	200026f4 	.word	0x200026f4
    4bb4:	200026f6 	.word	0x200026f6

00004bb8 <check_samples>:
    4bb8:	b5f0      	push	{r4, r5, r6, r7, lr}
    4bba:	b08b      	sub	sp, #44	; 0x2c
    4bbc:	af04      	add	r7, sp, #16
    4bbe:	6078      	str	r0, [r7, #4]
    4bc0:	2300      	movs	r3, #0
    4bc2:	82fb      	strh	r3, [r7, #22]
    4bc4:	e054      	b.n	4c70 <check_samples+0xb8>
    4bc6:	8afb      	ldrh	r3, [r7, #22]
    4bc8:	009b      	lsls	r3, r3, #2
    4bca:	687a      	ldr	r2, [r7, #4]
    4bcc:	4413      	add	r3, r2
    4bce:	613b      	str	r3, [r7, #16]
    4bd0:	693b      	ldr	r3, [r7, #16]
    4bd2:	881b      	ldrh	r3, [r3, #0]
    4bd4:	81fb      	strh	r3, [r7, #14]
    4bd6:	693b      	ldr	r3, [r7, #16]
    4bd8:	3302      	adds	r3, #2
    4bda:	881b      	ldrh	r3, [r3, #0]
    4bdc:	81bb      	strh	r3, [r7, #12]
    4bde:	4b30      	ldr	r3, [pc, #192]	; (4ca0 <check_samples+0xe8>)
    4be0:	781b      	ldrb	r3, [r3, #0]
    4be2:	2b00      	cmp	r3, #0
    4be4:	d00c      	beq.n	4c00 <check_samples+0x48>
    4be6:	89fb      	ldrh	r3, [r7, #14]
    4be8:	2b00      	cmp	r3, #0
    4bea:	d109      	bne.n	4c00 <check_samples+0x48>
    4bec:	89bb      	ldrh	r3, [r7, #12]
    4bee:	2b00      	cmp	r3, #0
    4bf0:	d106      	bne.n	4c00 <check_samples+0x48>
    4bf2:	4b2b      	ldr	r3, [pc, #172]	; (4ca0 <check_samples+0xe8>)
    4bf4:	781b      	ldrb	r3, [r3, #0]
    4bf6:	3b01      	subs	r3, #1
    4bf8:	b2da      	uxtb	r2, r3
    4bfa:	4b29      	ldr	r3, [pc, #164]	; (4ca0 <check_samples+0xe8>)
    4bfc:	701a      	strb	r2, [r3, #0]
    4bfe:	e034      	b.n	4c6a <check_samples+0xb2>
    4c00:	4b27      	ldr	r3, [pc, #156]	; (4ca0 <check_samples+0xe8>)
    4c02:	2200      	movs	r2, #0
    4c04:	701a      	strb	r2, [r3, #0]
    4c06:	4b27      	ldr	r3, [pc, #156]	; (4ca4 <check_samples+0xec>)
    4c08:	881b      	ldrh	r3, [r3, #0]
    4c0a:	3b01      	subs	r3, #1
    4c0c:	817b      	strh	r3, [r7, #10]
    4c0e:	4b25      	ldr	r3, [pc, #148]	; (4ca4 <check_samples+0xec>)
    4c10:	881b      	ldrh	r3, [r3, #0]
    4c12:	3301      	adds	r3, #1
    4c14:	813b      	strh	r3, [r7, #8]
    4c16:	4b23      	ldr	r3, [pc, #140]	; (4ca4 <check_samples+0xec>)
    4c18:	881b      	ldrh	r3, [r3, #0]
    4c1a:	3301      	adds	r3, #1
    4c1c:	b29a      	uxth	r2, r3
    4c1e:	4b21      	ldr	r3, [pc, #132]	; (4ca4 <check_samples+0xec>)
    4c20:	801a      	strh	r2, [r3, #0]
    4c22:	89fa      	ldrh	r2, [r7, #14]
    4c24:	897b      	ldrh	r3, [r7, #10]
    4c26:	429a      	cmp	r2, r3
    4c28:	d103      	bne.n	4c32 <check_samples+0x7a>
    4c2a:	89ba      	ldrh	r2, [r7, #12]
    4c2c:	893b      	ldrh	r3, [r7, #8]
    4c2e:	429a      	cmp	r2, r3
    4c30:	d01b      	beq.n	4c6a <check_samples+0xb2>
    4c32:	4a1d      	ldr	r2, [pc, #116]	; (4ca8 <check_samples+0xf0>)
    4c34:	4b1d      	ldr	r3, [pc, #116]	; (4cac <check_samples+0xf4>)
    4c36:	1ad3      	subs	r3, r2, r3
    4c38:	08db      	lsrs	r3, r3, #3
    4c3a:	041b      	lsls	r3, r3, #16
    4c3c:	f043 0403 	orr.w	r4, r3, #3
    4c40:	4b1b      	ldr	r3, [pc, #108]	; (4cb0 <check_samples+0xf8>)
    4c42:	781b      	ldrb	r3, [r3, #0]
    4c44:	b2db      	uxtb	r3, r3
    4c46:	461e      	mov	r6, r3
    4c48:	89fd      	ldrh	r5, [r7, #14]
    4c4a:	89bb      	ldrh	r3, [r7, #12]
    4c4c:	897a      	ldrh	r2, [r7, #10]
    4c4e:	8939      	ldrh	r1, [r7, #8]
    4c50:	8af8      	ldrh	r0, [r7, #22]
    4c52:	9003      	str	r0, [sp, #12]
    4c54:	9102      	str	r1, [sp, #8]
    4c56:	9201      	str	r2, [sp, #4]
    4c58:	9300      	str	r3, [sp, #0]
    4c5a:	462b      	mov	r3, r5
    4c5c:	4632      	mov	r2, r6
    4c5e:	4915      	ldr	r1, [pc, #84]	; (4cb4 <check_samples+0xfc>)
    4c60:	4620      	mov	r0, r4
    4c62:	f7fc f823 	bl	cac <nrf_log_frontend_std_6>
    4c66:	2300      	movs	r3, #0
    4c68:	e015      	b.n	4c96 <check_samples+0xde>
    4c6a:	8afb      	ldrh	r3, [r7, #22]
    4c6c:	3301      	adds	r3, #1
    4c6e:	82fb      	strh	r3, [r7, #22]
    4c70:	8afb      	ldrh	r3, [r7, #22]
    4c72:	f5b3 7f00 	cmp.w	r3, #512	; 0x200
    4c76:	d3a6      	bcc.n	4bc6 <check_samples+0xe>
    4c78:	4a0b      	ldr	r2, [pc, #44]	; (4ca8 <check_samples+0xf0>)
    4c7a:	4b0c      	ldr	r3, [pc, #48]	; (4cac <check_samples+0xf4>)
    4c7c:	1ad3      	subs	r3, r2, r3
    4c7e:	08db      	lsrs	r3, r3, #3
    4c80:	041b      	lsls	r3, r3, #16
    4c82:	f043 0303 	orr.w	r3, r3, #3
    4c86:	4a0a      	ldr	r2, [pc, #40]	; (4cb0 <check_samples+0xf8>)
    4c88:	7812      	ldrb	r2, [r2, #0]
    4c8a:	b2d2      	uxtb	r2, r2
    4c8c:	490a      	ldr	r1, [pc, #40]	; (4cb8 <check_samples+0x100>)
    4c8e:	4618      	mov	r0, r3
    4c90:	f7fb fff9 	bl	c86 <nrf_log_frontend_std_1>
    4c94:	2301      	movs	r3, #1
    4c96:	4618      	mov	r0, r3
    4c98:	371c      	adds	r7, #28
    4c9a:	46bd      	mov	sp, r7
    4c9c:	bdf0      	pop	{r4, r5, r6, r7, pc}
    4c9e:	bf00      	nop
    4ca0:	200026f1 	.word	0x200026f1
    4ca4:	200026f4 	.word	0x200026f4
    4ca8:	00005d2c 	.word	0x00005d2c
    4cac:	00005d0c 	.word	0x00005d0c
    4cb0:	200026f0 	.word	0x200026f0
    4cb4:	00005b68 	.word	0x00005b68
    4cb8:	00005b94 	.word	0x00005b94

00004cbc <check_rx_data>:
    4cbc:	b580      	push	{r7, lr}
    4cbe:	b082      	sub	sp, #8
    4cc0:	af00      	add	r7, sp, #0
    4cc2:	6078      	str	r0, [r7, #4]
    4cc4:	4b19      	ldr	r3, [pc, #100]	; (4d2c <check_rx_data+0x70>)
    4cc6:	781b      	ldrb	r3, [r3, #0]
    4cc8:	b2db      	uxtb	r3, r3
    4cca:	3301      	adds	r3, #1
    4ccc:	b2da      	uxtb	r2, r3
    4cce:	4b17      	ldr	r3, [pc, #92]	; (4d2c <check_rx_data+0x70>)
    4cd0:	701a      	strb	r2, [r3, #0]
    4cd2:	4b17      	ldr	r3, [pc, #92]	; (4d30 <check_rx_data+0x74>)
    4cd4:	781b      	ldrb	r3, [r3, #0]
    4cd6:	f083 0301 	eor.w	r3, r3, #1
    4cda:	b2db      	uxtb	r3, r3
    4cdc:	2b00      	cmp	r3, #0
    4cde:	d010      	beq.n	4d02 <check_rx_data+0x46>
    4ce0:	6878      	ldr	r0, [r7, #4]
    4ce2:	f7ff ff69 	bl	4bb8 <check_samples>
    4ce6:	4603      	mov	r3, r0
    4ce8:	2b00      	cmp	r3, #0
    4cea:	bf14      	ite	ne
    4cec:	2301      	movne	r3, #1
    4cee:	2300      	moveq	r3, #0
    4cf0:	b2db      	uxtb	r3, r3
    4cf2:	f083 0301 	eor.w	r3, r3, #1
    4cf6:	b2db      	uxtb	r3, r3
    4cf8:	f003 0301 	and.w	r3, r3, #1
    4cfc:	b2da      	uxtb	r2, r3
    4cfe:	4b0c      	ldr	r3, [pc, #48]	; (4d30 <check_rx_data+0x74>)
    4d00:	701a      	strb	r2, [r3, #0]
    4d02:	4b0b      	ldr	r3, [pc, #44]	; (4d30 <check_rx_data+0x74>)
    4d04:	781b      	ldrb	r3, [r3, #0]
    4d06:	2b00      	cmp	r3, #0
    4d08:	d006      	beq.n	4d18 <check_rx_data+0x5c>
    4d0a:	2000      	movs	r0, #0
    4d0c:	f7fc fcc2 	bl	1694 <bsp_board_led_off>
    4d10:	2001      	movs	r0, #1
    4d12:	f7fc fcf9 	bl	1708 <bsp_board_led_invert>
    4d16:	e005      	b.n	4d24 <check_rx_data+0x68>
    4d18:	2001      	movs	r0, #1
    4d1a:	f7fc fcbb 	bl	1694 <bsp_board_led_off>
    4d1e:	2000      	movs	r0, #0
    4d20:	f7fc fcf2 	bl	1708 <bsp_board_led_invert>
    4d24:	bf00      	nop
    4d26:	3708      	adds	r7, #8
    4d28:	46bd      	mov	sp, r7
    4d2a:	bd80      	pop	{r7, pc}
    4d2c:	200026f0 	.word	0x200026f0
    4d30:	200026f6 	.word	0x200026f6

00004d34 <data_handler>:
    4d34:	b580      	push	{r7, lr}
    4d36:	b086      	sub	sp, #24
    4d38:	af00      	add	r7, sp, #0
    4d3a:	6078      	str	r0, [r7, #4]
    4d3c:	6039      	str	r1, [r7, #0]
    4d3e:	683b      	ldr	r3, [r7, #0]
    4d40:	f003 0301 	and.w	r3, r3, #1
    4d44:	2b00      	cmp	r3, #0
    4d46:	d02d      	beq.n	4da4 <data_handler+0x70>
    4d48:	687b      	ldr	r3, [r7, #4]
    4d4a:	681b      	ldr	r3, [r3, #0]
    4d4c:	2b00      	cmp	r3, #0
    4d4e:	d116      	bne.n	4d7e <data_handler+0x4a>
    4d50:	4a16      	ldr	r2, [pc, #88]	; (4dac <data_handler+0x78>)
    4d52:	f107 0308 	add.w	r3, r7, #8
    4d56:	e892 0003 	ldmia.w	r2, {r0, r1}
    4d5a:	e883 0003 	stmia.w	r3, {r0, r1}
    4d5e:	f107 0308 	add.w	r3, r7, #8
    4d62:	4618      	mov	r0, r3
    4d64:	f7fe f82e 	bl	2dc4 <nrfx_i2s_next_buffers_set>
    4d68:	6138      	str	r0, [r7, #16]
    4d6a:	693b      	ldr	r3, [r7, #16]
    4d6c:	2b00      	cmp	r3, #0
    4d6e:	d002      	beq.n	4d76 <data_handler+0x42>
    4d70:	6938      	ldr	r0, [r7, #16]
    4d72:	f7fc fd29 	bl	17c8 <app_error_handler_bare>
    4d76:	4b0e      	ldr	r3, [pc, #56]	; (4db0 <data_handler+0x7c>)
    4d78:	4a0e      	ldr	r2, [pc, #56]	; (4db4 <data_handler+0x80>)
    4d7a:	601a      	str	r2, [r3, #0]
    4d7c:	e013      	b.n	4da6 <data_handler+0x72>
    4d7e:	687b      	ldr	r3, [r7, #4]
    4d80:	681b      	ldr	r3, [r3, #0]
    4d82:	4a0d      	ldr	r2, [pc, #52]	; (4db8 <data_handler+0x84>)
    4d84:	6013      	str	r3, [r2, #0]
    4d86:	6878      	ldr	r0, [r7, #4]
    4d88:	f7fe f81c 	bl	2dc4 <nrfx_i2s_next_buffers_set>
    4d8c:	6178      	str	r0, [r7, #20]
    4d8e:	697b      	ldr	r3, [r7, #20]
    4d90:	2b00      	cmp	r3, #0
    4d92:	d002      	beq.n	4d9a <data_handler+0x66>
    4d94:	6978      	ldr	r0, [r7, #20]
    4d96:	f7fc fd17 	bl	17c8 <app_error_handler_bare>
    4d9a:	687b      	ldr	r3, [r7, #4]
    4d9c:	685b      	ldr	r3, [r3, #4]
    4d9e:	4a04      	ldr	r2, [pc, #16]	; (4db0 <data_handler+0x7c>)
    4da0:	6013      	str	r3, [r2, #0]
    4da2:	e000      	b.n	4da6 <data_handler+0x72>
    4da4:	bf00      	nop
    4da6:	3718      	adds	r7, #24
    4da8:	46bd      	mov	sp, r7
    4daa:	bd80      	pop	{r7, pc}
    4dac:	00005b9c 	.word	0x00005b9c
    4db0:	200026f8 	.word	0x200026f8
    4db4:	20001ef0 	.word	0x20001ef0
    4db8:	200026fc 	.word	0x200026fc

00004dbc <app_error_fault_handler>:
    4dbc:	b580      	push	{r7, lr}
    4dbe:	b084      	sub	sp, #16
    4dc0:	af00      	add	r7, sp, #0
    4dc2:	60f8      	str	r0, [r7, #12]
    4dc4:	60b9      	str	r1, [r7, #8]
    4dc6:	607a      	str	r2, [r7, #4]
    4dc8:	f7fc fc8a 	bl	16e0 <bsp_board_leds_on>
    4dcc:	687a      	ldr	r2, [r7, #4]
    4dce:	68b9      	ldr	r1, [r7, #8]
    4dd0:	68f8      	ldr	r0, [r7, #12]
    4dd2:	f7fc fd0f 	bl	17f4 <app_error_save_and_stop>
    4dd6:	bf00      	nop
    4dd8:	3710      	adds	r7, #16
    4dda:	46bd      	mov	sp, r7
    4ddc:	bd80      	pop	{r7, pc}
	...

00004de0 <main>:
    4de0:	b5b0      	push	{r4, r5, r7, lr}
    4de2:	b08c      	sub	sp, #48	; 0x30
    4de4:	af00      	add	r7, sp, #0
    4de6:	2300      	movs	r3, #0
    4de8:	62fb      	str	r3, [r7, #44]	; 0x2c
    4dea:	2001      	movs	r0, #1
    4dec:	f7fc fcd6 	bl	179c <bsp_board_init>
    4df0:	2100      	movs	r1, #0
    4df2:	2000      	movs	r0, #0
    4df4:	f7fb fc94 	bl	720 <nrf_log_init>
    4df8:	62f8      	str	r0, [r7, #44]	; 0x2c
    4dfa:	6afb      	ldr	r3, [r7, #44]	; 0x2c
    4dfc:	62bb      	str	r3, [r7, #40]	; 0x28
    4dfe:	6abb      	ldr	r3, [r7, #40]	; 0x28
    4e00:	2b00      	cmp	r3, #0
    4e02:	d002      	beq.n	4e0a <main+0x2a>
    4e04:	6ab8      	ldr	r0, [r7, #40]	; 0x28
    4e06:	f7fc fcdf 	bl	17c8 <app_error_handler_bare>
    4e0a:	f7fb fc2d 	bl	668 <nrf_log_default_backends_init>
    4e0e:	4a3e      	ldr	r2, [pc, #248]	; (4f08 <main+0x128>)
    4e10:	4b3e      	ldr	r3, [pc, #248]	; (4f0c <main+0x12c>)
    4e12:	1ad3      	subs	r3, r2, r3
    4e14:	08db      	lsrs	r3, r3, #3
    4e16:	041b      	lsls	r3, r3, #16
    4e18:	f043 0303 	orr.w	r3, r3, #3
    4e1c:	493c      	ldr	r1, [pc, #240]	; (4f10 <main+0x130>)
    4e1e:	4618      	mov	r0, r3
    4e20:	f7fb ff22 	bl	c68 <nrf_log_frontend_std_0>
    4e24:	4b3b      	ldr	r3, [pc, #236]	; (4f14 <main+0x134>)
    4e26:	f107 040c 	add.w	r4, r7, #12
    4e2a:	461d      	mov	r5, r3
    4e2c:	cd0f      	ldmia	r5!, {r0, r1, r2, r3}
    4e2e:	c40f      	stmia	r4!, {r0, r1, r2, r3}
    4e30:	682b      	ldr	r3, [r5, #0]
    4e32:	6023      	str	r3, [r4, #0]
    4e34:	231a      	movs	r3, #26
    4e36:	743b      	strb	r3, [r7, #16]
    4e38:	231b      	movs	r3, #27
    4e3a:	73fb      	strb	r3, [r7, #15]
    4e3c:	f04f 6340 	mov.w	r3, #201326592	; 0xc000000
    4e40:	61bb      	str	r3, [r7, #24]
    4e42:	2303      	movs	r3, #3
    4e44:	773b      	strb	r3, [r7, #28]
    4e46:	2300      	movs	r3, #0
    4e48:	75bb      	strb	r3, [r7, #22]
    4e4a:	f107 030c 	add.w	r3, r7, #12
    4e4e:	4932      	ldr	r1, [pc, #200]	; (4f18 <main+0x138>)
    4e50:	4618      	mov	r0, r3
    4e52:	f7ff fe35 	bl	4ac0 <nrf_drv_i2s_init>
    4e56:	62f8      	str	r0, [r7, #44]	; 0x2c
    4e58:	6afb      	ldr	r3, [r7, #44]	; 0x2c
    4e5a:	627b      	str	r3, [r7, #36]	; 0x24
    4e5c:	6a7b      	ldr	r3, [r7, #36]	; 0x24
    4e5e:	2b00      	cmp	r3, #0
    4e60:	d002      	beq.n	4e68 <main+0x88>
    4e62:	6a78      	ldr	r0, [r7, #36]	; 0x24
    4e64:	f7fc fcb0 	bl	17c8 <app_error_handler_bare>
    4e68:	4b2c      	ldr	r3, [pc, #176]	; (4f1c <main+0x13c>)
    4e6a:	2200      	movs	r2, #0
    4e6c:	701a      	strb	r2, [r3, #0]
    4e6e:	4b2c      	ldr	r3, [pc, #176]	; (4f20 <main+0x140>)
    4e70:	2200      	movs	r2, #0
    4e72:	601a      	str	r2, [r3, #0]
    4e74:	4b2b      	ldr	r3, [pc, #172]	; (4f24 <main+0x144>)
    4e76:	2200      	movs	r2, #0
    4e78:	601a      	str	r2, [r3, #0]
    4e7a:	482b      	ldr	r0, [pc, #172]	; (4f28 <main+0x148>)
    4e7c:	f7ff fe4c 	bl	4b18 <prepare_tx_data>
    4e80:	4a2a      	ldr	r2, [pc, #168]	; (4f2c <main+0x14c>)
    4e82:	1d3b      	adds	r3, r7, #4
    4e84:	e892 0003 	ldmia.w	r2, {r0, r1}
    4e88:	e883 0003 	stmia.w	r3, {r0, r1}
    4e8c:	1d3b      	adds	r3, r7, #4
    4e8e:	2200      	movs	r2, #0
    4e90:	f44f 7100 	mov.w	r1, #512	; 0x200
    4e94:	4618      	mov	r0, r3
    4e96:	f7fd feef 	bl	2c78 <nrfx_i2s_start>
    4e9a:	62f8      	str	r0, [r7, #44]	; 0x2c
    4e9c:	6afb      	ldr	r3, [r7, #44]	; 0x2c
    4e9e:	623b      	str	r3, [r7, #32]
    4ea0:	6a3b      	ldr	r3, [r7, #32]
    4ea2:	2b00      	cmp	r3, #0
    4ea4:	d002      	beq.n	4eac <main+0xcc>
    4ea6:	6a38      	ldr	r0, [r7, #32]
    4ea8:	f7fc fc8e 	bl	17c8 <app_error_handler_bare>
    4eac:	bf20      	wfe
    4eae:	bf40      	sev
    4eb0:	bf20      	wfe
    4eb2:	4b1b      	ldr	r3, [pc, #108]	; (4f20 <main+0x140>)
    4eb4:	681b      	ldr	r3, [r3, #0]
    4eb6:	2b00      	cmp	r3, #0
    4eb8:	d007      	beq.n	4eca <main+0xea>
    4eba:	4b19      	ldr	r3, [pc, #100]	; (4f20 <main+0x140>)
    4ebc:	681b      	ldr	r3, [r3, #0]
    4ebe:	4618      	mov	r0, r3
    4ec0:	f7ff fe2a 	bl	4b18 <prepare_tx_data>
    4ec4:	4b16      	ldr	r3, [pc, #88]	; (4f20 <main+0x140>)
    4ec6:	2200      	movs	r2, #0
    4ec8:	601a      	str	r2, [r3, #0]
    4eca:	4b16      	ldr	r3, [pc, #88]	; (4f24 <main+0x144>)
    4ecc:	681b      	ldr	r3, [r3, #0]
    4ece:	2b00      	cmp	r3, #0
    4ed0:	d007      	beq.n	4ee2 <main+0x102>
    4ed2:	4b14      	ldr	r3, [pc, #80]	; (4f24 <main+0x144>)
    4ed4:	681b      	ldr	r3, [r3, #0]
    4ed6:	4618      	mov	r0, r3
    4ed8:	f7ff fef0 	bl	4cbc <check_rx_data>
    4edc:	4b11      	ldr	r3, [pc, #68]	; (4f24 <main+0x144>)
    4ede:	2200      	movs	r2, #0
    4ee0:	601a      	str	r2, [r3, #0]
    4ee2:	4b0e      	ldr	r3, [pc, #56]	; (4f1c <main+0x13c>)
    4ee4:	781b      	ldrb	r3, [r3, #0]
    4ee6:	b2db      	uxtb	r3, r3
    4ee8:	2b13      	cmp	r3, #19
    4eea:	d9df      	bls.n	4eac <main+0xcc>
    4eec:	f7fd ffce 	bl	2e8c <nrfx_i2s_stop>
    4ef0:	f7fb ff0c 	bl	d0c <nrf_log_frontend_dequeue>
    4ef4:	4603      	mov	r3, r0
    4ef6:	2b00      	cmp	r3, #0
    4ef8:	d1fa      	bne.n	4ef0 <main+0x110>
    4efa:	f7fc fbdd 	bl	16b8 <bsp_board_leds_off>
    4efe:	f44f 70fa 	mov.w	r0, #500	; 0x1f4
    4f02:	f7ff fdf3 	bl	4aec <nrf_delay_ms>
    4f06:	e7af      	b.n	4e68 <main+0x88>
    4f08:	00005d2c 	.word	0x00005d2c
    4f0c:	00005d0c 	.word	0x00005d0c
    4f10:	00005ba4 	.word	0x00005ba4
    4f14:	00005bc4 	.word	0x00005bc4
    4f18:	00004d35 	.word	0x00004d35
    4f1c:	200026f0 	.word	0x200026f0
    4f20:	200026f8 	.word	0x200026f8
    4f24:	200026fc 	.word	0x200026fc
    4f28:	200016f0 	.word	0x200016f0
    4f2c:	00005bd8 	.word	0x00005bd8

00004f30 <__NVIC_SystemReset>:
    4f30:	b480      	push	{r7}
    4f32:	af00      	add	r7, sp, #0
    4f34:	f3bf 8f4f 	dsb	sy
    4f38:	bf00      	nop
    4f3a:	4b06      	ldr	r3, [pc, #24]	; (4f54 <__NVIC_SystemReset+0x24>)
    4f3c:	68db      	ldr	r3, [r3, #12]
    4f3e:	f403 62e0 	and.w	r2, r3, #1792	; 0x700
    4f42:	4904      	ldr	r1, [pc, #16]	; (4f54 <__NVIC_SystemReset+0x24>)
    4f44:	4b04      	ldr	r3, [pc, #16]	; (4f58 <__NVIC_SystemReset+0x28>)
    4f46:	4313      	orrs	r3, r2
    4f48:	60cb      	str	r3, [r1, #12]
    4f4a:	f3bf 8f4f 	dsb	sy
    4f4e:	bf00      	nop
    4f50:	bf00      	nop
    4f52:	e7fd      	b.n	4f50 <__NVIC_SystemReset+0x20>
    4f54:	e000ed00 	.word	0xe000ed00
    4f58:	05fa0004 	.word	0x05fa0004

00004f5c <nrf52_errata_12>:
    4f5c:	b480      	push	{r7}
    4f5e:	b083      	sub	sp, #12
    4f60:	af00      	add	r7, sp, #0
    4f62:	4b1d      	ldr	r3, [pc, #116]	; (4fd8 <nrf52_errata_12+0x7c>)
    4f64:	681b      	ldr	r3, [r3, #0]
    4f66:	f1b3 3fff 	cmp.w	r3, #4294967295	; 0xffffffff
    4f6a:	d10a      	bne.n	4f82 <nrf52_errata_12+0x26>
    4f6c:	4b1b      	ldr	r3, [pc, #108]	; (4fdc <nrf52_errata_12+0x80>)
    4f6e:	681b      	ldr	r3, [r3, #0]
    4f70:	b2db      	uxtb	r3, r3
    4f72:	607b      	str	r3, [r7, #4]
    4f74:	4b1a      	ldr	r3, [pc, #104]	; (4fe0 <nrf52_errata_12+0x84>)
    4f76:	681b      	ldr	r3, [r3, #0]
    4f78:	091b      	lsrs	r3, r3, #4
    4f7a:	f003 030f 	and.w	r3, r3, #15
    4f7e:	603b      	str	r3, [r7, #0]
    4f80:	e005      	b.n	4f8e <nrf52_errata_12+0x32>
    4f82:	4b15      	ldr	r3, [pc, #84]	; (4fd8 <nrf52_errata_12+0x7c>)
    4f84:	681b      	ldr	r3, [r3, #0]
    4f86:	607b      	str	r3, [r7, #4]
    4f88:	4b16      	ldr	r3, [pc, #88]	; (4fe4 <nrf52_errata_12+0x88>)
    4f8a:	681b      	ldr	r3, [r3, #0]
    4f8c:	603b      	str	r3, [r7, #0]
    4f8e:	687b      	ldr	r3, [r7, #4]
    4f90:	2b06      	cmp	r3, #6
    4f92:	d119      	bne.n	4fc8 <nrf52_errata_12+0x6c>
    4f94:	683b      	ldr	r3, [r7, #0]
    4f96:	3b03      	subs	r3, #3
    4f98:	2b03      	cmp	r3, #3
    4f9a:	d813      	bhi.n	4fc4 <nrf52_errata_12+0x68>
    4f9c:	a201      	add	r2, pc, #4	; (adr r2, 4fa4 <nrf52_errata_12+0x48>)
    4f9e:	f852 f023 	ldr.w	pc, [r2, r3, lsl #2]
    4fa2:	bf00      	nop
    4fa4:	00004fb5 	.word	0x00004fb5
    4fa8:	00004fb9 	.word	0x00004fb9
    4fac:	00004fbd 	.word	0x00004fbd
    4fb0:	00004fc1 	.word	0x00004fc1
    4fb4:	2301      	movs	r3, #1
    4fb6:	e008      	b.n	4fca <nrf52_errata_12+0x6e>
    4fb8:	2301      	movs	r3, #1
    4fba:	e006      	b.n	4fca <nrf52_errata_12+0x6e>
    4fbc:	2301      	movs	r3, #1
    4fbe:	e004      	b.n	4fca <nrf52_errata_12+0x6e>
    4fc0:	2301      	movs	r3, #1
    4fc2:	e002      	b.n	4fca <nrf52_errata_12+0x6e>
    4fc4:	2301      	movs	r3, #1
    4fc6:	e000      	b.n	4fca <nrf52_errata_12+0x6e>
    4fc8:	2300      	movs	r3, #0
    4fca:	4618      	mov	r0, r3
    4fcc:	370c      	adds	r7, #12
    4fce:	46bd      	mov	sp, r7
    4fd0:	f85d 7b04 	ldr.w	r7, [sp], #4
    4fd4:	4770      	bx	lr
    4fd6:	bf00      	nop
    4fd8:	10000130 	.word	0x10000130
    4fdc:	f0000fe0 	.word	0xf0000fe0
    4fe0:	f0000fe8 	.word	0xf0000fe8
    4fe4:	10000134 	.word	0x10000134

00004fe8 <nrf52_errata_16>:
    4fe8:	b480      	push	{r7}
    4fea:	b083      	sub	sp, #12
    4fec:	af00      	add	r7, sp, #0
    4fee:	4b17      	ldr	r3, [pc, #92]	; (504c <nrf52_errata_16+0x64>)
    4ff0:	681b      	ldr	r3, [r3, #0]
    4ff2:	b2db      	uxtb	r3, r3
    4ff4:	607b      	str	r3, [r7, #4]
    4ff6:	4b16      	ldr	r3, [pc, #88]	; (5050 <nrf52_errata_16+0x68>)
    4ff8:	681b      	ldr	r3, [r3, #0]
    4ffa:	091b      	lsrs	r3, r3, #4
    4ffc:	f003 030f 	and.w	r3, r3, #15
    5000:	603b      	str	r3, [r7, #0]
    5002:	687b      	ldr	r3, [r7, #4]
    5004:	2b06      	cmp	r3, #6
    5006:	d119      	bne.n	503c <nrf52_errata_16+0x54>
    5008:	683b      	ldr	r3, [r7, #0]
    500a:	3b03      	subs	r3, #3
    500c:	2b03      	cmp	r3, #3
    500e:	d813      	bhi.n	5038 <nrf52_errata_16+0x50>
    5010:	a201      	add	r2, pc, #4	; (adr r2, 5018 <nrf52_errata_16+0x30>)
    5012:	f852 f023 	ldr.w	pc, [r2, r3, lsl #2]
    5016:	bf00      	nop
    5018:	00005029 	.word	0x00005029
    501c:	0000502d 	.word	0x0000502d
    5020:	00005031 	.word	0x00005031
    5024:	00005035 	.word	0x00005035
    5028:	2301      	movs	r3, #1
    502a:	e008      	b.n	503e <nrf52_errata_16+0x56>
    502c:	2300      	movs	r3, #0
    502e:	e006      	b.n	503e <nrf52_errata_16+0x56>
    5030:	2300      	movs	r3, #0
    5032:	e004      	b.n	503e <nrf52_errata_16+0x56>
    5034:	2300      	movs	r3, #0
    5036:	e002      	b.n	503e <nrf52_errata_16+0x56>
    5038:	2300      	movs	r3, #0
    503a:	e000      	b.n	503e <nrf52_errata_16+0x56>
    503c:	2300      	movs	r3, #0
    503e:	4618      	mov	r0, r3
    5040:	370c      	adds	r7, #12
    5042:	46bd      	mov	sp, r7
    5044:	f85d 7b04 	ldr.w	r7, [sp], #4
    5048:	4770      	bx	lr
    504a:	bf00      	nop
    504c:	f0000fe0 	.word	0xf0000fe0
    5050:	f0000fe8 	.word	0xf0000fe8

00005054 <nrf52_errata_31>:
    5054:	b480      	push	{r7}
    5056:	b083      	sub	sp, #12
    5058:	af00      	add	r7, sp, #0
    505a:	4b1d      	ldr	r3, [pc, #116]	; (50d0 <nrf52_errata_31+0x7c>)
    505c:	681b      	ldr	r3, [r3, #0]
    505e:	f1b3 3fff 	cmp.w	r3, #4294967295	; 0xffffffff
    5062:	d10a      	bne.n	507a <nrf52_errata_31+0x26>
    5064:	4b1b      	ldr	r3, [pc, #108]	; (50d4 <nrf52_errata_31+0x80>)
    5066:	681b      	ldr	r3, [r3, #0]
    5068:	b2db      	uxtb	r3, r3
    506a:	607b      	str	r3, [r7, #4]
    506c:	4b1a      	ldr	r3, [pc, #104]	; (50d8 <nrf52_errata_31+0x84>)
    506e:	681b      	ldr	r3, [r3, #0]
    5070:	091b      	lsrs	r3, r3, #4
    5072:	f003 030f 	and.w	r3, r3, #15
    5076:	603b      	str	r3, [r7, #0]
    5078:	e005      	b.n	5086 <nrf52_errata_31+0x32>
    507a:	4b15      	ldr	r3, [pc, #84]	; (50d0 <nrf52_errata_31+0x7c>)
    507c:	681b      	ldr	r3, [r3, #0]
    507e:	607b      	str	r3, [r7, #4]
    5080:	4b16      	ldr	r3, [pc, #88]	; (50dc <nrf52_errata_31+0x88>)
    5082:	681b      	ldr	r3, [r3, #0]
    5084:	603b      	str	r3, [r7, #0]
    5086:	687b      	ldr	r3, [r7, #4]
    5088:	2b06      	cmp	r3, #6
    508a:	d119      	bne.n	50c0 <nrf52_errata_31+0x6c>
    508c:	683b      	ldr	r3, [r7, #0]
    508e:	3b03      	subs	r3, #3
    5090:	2b03      	cmp	r3, #3
    5092:	d813      	bhi.n	50bc <nrf52_errata_31+0x68>
    5094:	a201      	add	r2, pc, #4	; (adr r2, 509c <nrf52_errata_31+0x48>)
    5096:	f852 f023 	ldr.w	pc, [r2, r3, lsl #2]
    509a:	bf00      	nop
    509c:	000050ad 	.word	0x000050ad
    50a0:	000050b1 	.word	0x000050b1
    50a4:	000050b5 	.word	0x000050b5
    50a8:	000050b9 	.word	0x000050b9
    50ac:	2301      	movs	r3, #1
    50ae:	e008      	b.n	50c2 <nrf52_errata_31+0x6e>
    50b0:	2301      	movs	r3, #1
    50b2:	e006      	b.n	50c2 <nrf52_errata_31+0x6e>
    50b4:	2301      	movs	r3, #1
    50b6:	e004      	b.n	50c2 <nrf52_errata_31+0x6e>
    50b8:	2301      	movs	r3, #1
    50ba:	e002      	b.n	50c2 <nrf52_errata_31+0x6e>
    50bc:	2301      	movs	r3, #1
    50be:	e000      	b.n	50c2 <nrf52_errata_31+0x6e>
    50c0:	2300      	movs	r3, #0
    50c2:	4618      	mov	r0, r3
    50c4:	370c      	adds	r7, #12
    50c6:	46bd      	mov	sp, r7
    50c8:	f85d 7b04 	ldr.w	r7, [sp], #4
    50cc:	4770      	bx	lr
    50ce:	bf00      	nop
    50d0:	10000130 	.word	0x10000130
    50d4:	f0000fe0 	.word	0xf0000fe0
    50d8:	f0000fe8 	.word	0xf0000fe8
    50dc:	10000134 	.word	0x10000134

000050e0 <nrf52_errata_32>:
    50e0:	b480      	push	{r7}
    50e2:	b083      	sub	sp, #12
    50e4:	af00      	add	r7, sp, #0
    50e6:	4b17      	ldr	r3, [pc, #92]	; (5144 <nrf52_errata_32+0x64>)
    50e8:	681b      	ldr	r3, [r3, #0]
    50ea:	b2db      	uxtb	r3, r3
    50ec:	607b      	str	r3, [r7, #4]
    50ee:	4b16      	ldr	r3, [pc, #88]	; (5148 <nrf52_errata_32+0x68>)
    50f0:	681b      	ldr	r3, [r3, #0]
    50f2:	091b      	lsrs	r3, r3, #4
    50f4:	f003 030f 	and.w	r3, r3, #15
    50f8:	603b      	str	r3, [r7, #0]
    50fa:	687b      	ldr	r3, [r7, #4]
    50fc:	2b06      	cmp	r3, #6
    50fe:	d119      	bne.n	5134 <nrf52_errata_32+0x54>
    5100:	683b      	ldr	r3, [r7, #0]
    5102:	3b03      	subs	r3, #3
    5104:	2b03      	cmp	r3, #3
    5106:	d813      	bhi.n	5130 <nrf52_errata_32+0x50>
    5108:	a201      	add	r2, pc, #4	; (adr r2, 5110 <nrf52_errata_32+0x30>)
    510a:	f852 f023 	ldr.w	pc, [r2, r3, lsl #2]
    510e:	bf00      	nop
    5110:	00005121 	.word	0x00005121
    5114:	00005125 	.word	0x00005125
    5118:	00005129 	.word	0x00005129
    511c:	0000512d 	.word	0x0000512d
    5120:	2301      	movs	r3, #1
    5122:	e008      	b.n	5136 <nrf52_errata_32+0x56>
    5124:	2300      	movs	r3, #0
    5126:	e006      	b.n	5136 <nrf52_errata_32+0x56>
    5128:	2300      	movs	r3, #0
    512a:	e004      	b.n	5136 <nrf52_errata_32+0x56>
    512c:	2300      	movs	r3, #0
    512e:	e002      	b.n	5136 <nrf52_errata_32+0x56>
    5130:	2300      	movs	r3, #0
    5132:	e000      	b.n	5136 <nrf52_errata_32+0x56>
    5134:	2300      	movs	r3, #0
    5136:	4618      	mov	r0, r3
    5138:	370c      	adds	r7, #12
    513a:	46bd      	mov	sp, r7
    513c:	f85d 7b04 	ldr.w	r7, [sp], #4
    5140:	4770      	bx	lr
    5142:	bf00      	nop
    5144:	f0000fe0 	.word	0xf0000fe0
    5148:	f0000fe8 	.word	0xf0000fe8

0000514c <nrf52_errata_36>:
    514c:	b480      	push	{r7}
    514e:	b083      	sub	sp, #12
    5150:	af00      	add	r7, sp, #0
    5152:	4b1d      	ldr	r3, [pc, #116]	; (51c8 <nrf52_errata_36+0x7c>)
    5154:	681b      	ldr	r3, [r3, #0]
    5156:	f1b3 3fff 	cmp.w	r3, #4294967295	; 0xffffffff
    515a:	d10a      	bne.n	5172 <nrf52_errata_36+0x26>
    515c:	4b1b      	ldr	r3, [pc, #108]	; (51cc <nrf52_errata_36+0x80>)
    515e:	681b      	ldr	r3, [r3, #0]
    5160:	b2db      	uxtb	r3, r3
    5162:	607b      	str	r3, [r7, #4]
    5164:	4b1a      	ldr	r3, [pc, #104]	; (51d0 <nrf52_errata_36+0x84>)
    5166:	681b      	ldr	r3, [r3, #0]
    5168:	091b      	lsrs	r3, r3, #4
    516a:	f003 030f 	and.w	r3, r3, #15
    516e:	603b      	str	r3, [r7, #0]
    5170:	e005      	b.n	517e <nrf52_errata_36+0x32>
    5172:	4b15      	ldr	r3, [pc, #84]	; (51c8 <nrf52_errata_36+0x7c>)
    5174:	681b      	ldr	r3, [r3, #0]
    5176:	607b      	str	r3, [r7, #4]
    5178:	4b16      	ldr	r3, [pc, #88]	; (51d4 <nrf52_errata_36+0x88>)
    517a:	681b      	ldr	r3, [r3, #0]
    517c:	603b      	str	r3, [r7, #0]
    517e:	687b      	ldr	r3, [r7, #4]
    5180:	2b06      	cmp	r3, #6
    5182:	d119      	bne.n	51b8 <nrf52_errata_36+0x6c>
    5184:	683b      	ldr	r3, [r7, #0]
    5186:	3b03      	subs	r3, #3
    5188:	2b03      	cmp	r3, #3
    518a:	d813      	bhi.n	51b4 <nrf52_errata_36+0x68>
    518c:	a201      	add	r2, pc, #4	; (adr r2, 5194 <nrf52_errata_36+0x48>)
    518e:	f852 f023 	ldr.w	pc, [r2, r3, lsl #2]
    5192:	bf00      	nop
    5194:	000051a5 	.word	0x000051a5
    5198:	000051a9 	.word	0x000051a9
    519c:	000051ad 	.word	0x000051ad
    51a0:	000051b1 	.word	0x000051b1
    51a4:	2301      	movs	r3, #1
    51a6:	e008      	b.n	51ba <nrf52_errata_36+0x6e>
    51a8:	2301      	movs	r3, #1
    51aa:	e006      	b.n	51ba <nrf52_errata_36+0x6e>
    51ac:	2301      	movs	r3, #1
    51ae:	e004      	b.n	51ba <nrf52_errata_36+0x6e>
    51b0:	2301      	movs	r3, #1
    51b2:	e002      	b.n	51ba <nrf52_errata_36+0x6e>
    51b4:	2301      	movs	r3, #1
    51b6:	e000      	b.n	51ba <nrf52_errata_36+0x6e>
    51b8:	2300      	movs	r3, #0
    51ba:	4618      	mov	r0, r3
    51bc:	370c      	adds	r7, #12
    51be:	46bd      	mov	sp, r7
    51c0:	f85d 7b04 	ldr.w	r7, [sp], #4
    51c4:	4770      	bx	lr
    51c6:	bf00      	nop
    51c8:	10000130 	.word	0x10000130
    51cc:	f0000fe0 	.word	0xf0000fe0
    51d0:	f0000fe8 	.word	0xf0000fe8
    51d4:	10000134 	.word	0x10000134

000051d8 <nrf52_errata_37>:
    51d8:	b480      	push	{r7}
    51da:	b083      	sub	sp, #12
    51dc:	af00      	add	r7, sp, #0
    51de:	4b17      	ldr	r3, [pc, #92]	; (523c <nrf52_errata_37+0x64>)
    51e0:	681b      	ldr	r3, [r3, #0]
    51e2:	b2db      	uxtb	r3, r3
    51e4:	607b      	str	r3, [r7, #4]
    51e6:	4b16      	ldr	r3, [pc, #88]	; (5240 <nrf52_errata_37+0x68>)
    51e8:	681b      	ldr	r3, [r3, #0]
    51ea:	091b      	lsrs	r3, r3, #4
    51ec:	f003 030f 	and.w	r3, r3, #15
    51f0:	603b      	str	r3, [r7, #0]
    51f2:	687b      	ldr	r3, [r7, #4]
    51f4:	2b06      	cmp	r3, #6
    51f6:	d119      	bne.n	522c <nrf52_errata_37+0x54>
    51f8:	683b      	ldr	r3, [r7, #0]
    51fa:	3b03      	subs	r3, #3
    51fc:	2b03      	cmp	r3, #3
    51fe:	d813      	bhi.n	5228 <nrf52_errata_37+0x50>
    5200:	a201      	add	r2, pc, #4	; (adr r2, 5208 <nrf52_errata_37+0x30>)
    5202:	f852 f023 	ldr.w	pc, [r2, r3, lsl #2]
    5206:	bf00      	nop
    5208:	00005219 	.word	0x00005219
    520c:	0000521d 	.word	0x0000521d
    5210:	00005221 	.word	0x00005221
    5214:	00005225 	.word	0x00005225
    5218:	2301      	movs	r3, #1
    521a:	e008      	b.n	522e <nrf52_errata_37+0x56>
    521c:	2300      	movs	r3, #0
    521e:	e006      	b.n	522e <nrf52_errata_37+0x56>
    5220:	2300      	movs	r3, #0
    5222:	e004      	b.n	522e <nrf52_errata_37+0x56>
    5224:	2300      	movs	r3, #0
    5226:	e002      	b.n	522e <nrf52_errata_37+0x56>
    5228:	2300      	movs	r3, #0
    522a:	e000      	b.n	522e <nrf52_errata_37+0x56>
    522c:	2300      	movs	r3, #0
    522e:	4618      	mov	r0, r3
    5230:	370c      	adds	r7, #12
    5232:	46bd      	mov	sp, r7
    5234:	f85d 7b04 	ldr.w	r7, [sp], #4
    5238:	4770      	bx	lr
    523a:	bf00      	nop
    523c:	f0000fe0 	.word	0xf0000fe0
    5240:	f0000fe8 	.word	0xf0000fe8

00005244 <nrf52_errata_57>:
    5244:	b480      	push	{r7}
    5246:	b083      	sub	sp, #12
    5248:	af00      	add	r7, sp, #0
    524a:	4b17      	ldr	r3, [pc, #92]	; (52a8 <nrf52_errata_57+0x64>)
    524c:	681b      	ldr	r3, [r3, #0]
    524e:	b2db      	uxtb	r3, r3
    5250:	607b      	str	r3, [r7, #4]
    5252:	4b16      	ldr	r3, [pc, #88]	; (52ac <nrf52_errata_57+0x68>)
    5254:	681b      	ldr	r3, [r3, #0]
    5256:	091b      	lsrs	r3, r3, #4
    5258:	f003 030f 	and.w	r3, r3, #15
    525c:	603b      	str	r3, [r7, #0]
    525e:	687b      	ldr	r3, [r7, #4]
    5260:	2b06      	cmp	r3, #6
    5262:	d119      	bne.n	5298 <nrf52_errata_57+0x54>
    5264:	683b      	ldr	r3, [r7, #0]
    5266:	3b03      	subs	r3, #3
    5268:	2b03      	cmp	r3, #3
    526a:	d813      	bhi.n	5294 <nrf52_errata_57+0x50>
    526c:	a201      	add	r2, pc, #4	; (adr r2, 5274 <nrf52_errata_57+0x30>)
    526e:	f852 f023 	ldr.w	pc, [r2, r3, lsl #2]
    5272:	bf00      	nop
    5274:	00005285 	.word	0x00005285
    5278:	00005289 	.word	0x00005289
    527c:	0000528d 	.word	0x0000528d
    5280:	00005291 	.word	0x00005291
    5284:	2301      	movs	r3, #1
    5286:	e008      	b.n	529a <nrf52_errata_57+0x56>
    5288:	2300      	movs	r3, #0
    528a:	e006      	b.n	529a <nrf52_errata_57+0x56>
    528c:	2300      	movs	r3, #0
    528e:	e004      	b.n	529a <nrf52_errata_57+0x56>
    5290:	2300      	movs	r3, #0
    5292:	e002      	b.n	529a <nrf52_errata_57+0x56>
    5294:	2300      	movs	r3, #0
    5296:	e000      	b.n	529a <nrf52_errata_57+0x56>
    5298:	2300      	movs	r3, #0
    529a:	4618      	mov	r0, r3
    529c:	370c      	adds	r7, #12
    529e:	46bd      	mov	sp, r7
    52a0:	f85d 7b04 	ldr.w	r7, [sp], #4
    52a4:	4770      	bx	lr
    52a6:	bf00      	nop
    52a8:	f0000fe0 	.word	0xf0000fe0
    52ac:	f0000fe8 	.word	0xf0000fe8

000052b0 <nrf52_errata_66>:
    52b0:	b480      	push	{r7}
    52b2:	b083      	sub	sp, #12
    52b4:	af00      	add	r7, sp, #0
    52b6:	4b1d      	ldr	r3, [pc, #116]	; (532c <nrf52_errata_66+0x7c>)
    52b8:	681b      	ldr	r3, [r3, #0]
    52ba:	f1b3 3fff 	cmp.w	r3, #4294967295	; 0xffffffff
    52be:	d10a      	bne.n	52d6 <nrf52_errata_66+0x26>
    52c0:	4b1b      	ldr	r3, [pc, #108]	; (5330 <nrf52_errata_66+0x80>)
    52c2:	681b      	ldr	r3, [r3, #0]
    52c4:	b2db      	uxtb	r3, r3
    52c6:	607b      	str	r3, [r7, #4]
    52c8:	4b1a      	ldr	r3, [pc, #104]	; (5334 <nrf52_errata_66+0x84>)
    52ca:	681b      	ldr	r3, [r3, #0]
    52cc:	091b      	lsrs	r3, r3, #4
    52ce:	f003 030f 	and.w	r3, r3, #15
    52d2:	603b      	str	r3, [r7, #0]
    52d4:	e005      	b.n	52e2 <nrf52_errata_66+0x32>
    52d6:	4b15      	ldr	r3, [pc, #84]	; (532c <nrf52_errata_66+0x7c>)
    52d8:	681b      	ldr	r3, [r3, #0]
    52da:	607b      	str	r3, [r7, #4]
    52dc:	4b16      	ldr	r3, [pc, #88]	; (5338 <nrf52_errata_66+0x88>)
    52de:	681b      	ldr	r3, [r3, #0]
    52e0:	603b      	str	r3, [r7, #0]
    52e2:	687b      	ldr	r3, [r7, #4]
    52e4:	2b06      	cmp	r3, #6
    52e6:	d119      	bne.n	531c <nrf52_errata_66+0x6c>
    52e8:	683b      	ldr	r3, [r7, #0]
    52ea:	3b03      	subs	r3, #3
    52ec:	2b03      	cmp	r3, #3
    52ee:	d813      	bhi.n	5318 <nrf52_errata_66+0x68>
    52f0:	a201      	add	r2, pc, #4	; (adr r2, 52f8 <nrf52_errata_66+0x48>)
    52f2:	f852 f023 	ldr.w	pc, [r2, r3, lsl #2]
    52f6:	bf00      	nop
    52f8:	00005309 	.word	0x00005309
    52fc:	0000530d 	.word	0x0000530d
    5300:	00005311 	.word	0x00005311
    5304:	00005315 	.word	0x00005315
    5308:	2300      	movs	r3, #0
    530a:	e008      	b.n	531e <nrf52_errata_66+0x6e>
    530c:	2300      	movs	r3, #0
    530e:	e006      	b.n	531e <nrf52_errata_66+0x6e>
    5310:	2301      	movs	r3, #1
    5312:	e004      	b.n	531e <nrf52_errata_66+0x6e>
    5314:	2301      	movs	r3, #1
    5316:	e002      	b.n	531e <nrf52_errata_66+0x6e>
    5318:	2301      	movs	r3, #1
    531a:	e000      	b.n	531e <nrf52_errata_66+0x6e>
    531c:	2300      	movs	r3, #0
    531e:	4618      	mov	r0, r3
    5320:	370c      	adds	r7, #12
    5322:	46bd      	mov	sp, r7
    5324:	f85d 7b04 	ldr.w	r7, [sp], #4
    5328:	4770      	bx	lr
    532a:	bf00      	nop
    532c:	10000130 	.word	0x10000130
    5330:	f0000fe0 	.word	0xf0000fe0
    5334:	f0000fe8 	.word	0xf0000fe8
    5338:	10000134 	.word	0x10000134

0000533c <nrf52_errata_108>:
    533c:	b480      	push	{r7}
    533e:	b083      	sub	sp, #12
    5340:	af00      	add	r7, sp, #0
    5342:	4b1d      	ldr	r3, [pc, #116]	; (53b8 <nrf52_errata_108+0x7c>)
    5344:	681b      	ldr	r3, [r3, #0]
    5346:	f1b3 3fff 	cmp.w	r3, #4294967295	; 0xffffffff
    534a:	d10a      	bne.n	5362 <nrf52_errata_108+0x26>
    534c:	4b1b      	ldr	r3, [pc, #108]	; (53bc <nrf52_errata_108+0x80>)
    534e:	681b      	ldr	r3, [r3, #0]
    5350:	b2db      	uxtb	r3, r3
    5352:	607b      	str	r3, [r7, #4]
    5354:	4b1a      	ldr	r3, [pc, #104]	; (53c0 <nrf52_errata_108+0x84>)
    5356:	681b      	ldr	r3, [r3, #0]
    5358:	091b      	lsrs	r3, r3, #4
    535a:	f003 030f 	and.w	r3, r3, #15
    535e:	603b      	str	r3, [r7, #0]
    5360:	e005      	b.n	536e <nrf52_errata_108+0x32>
    5362:	4b15      	ldr	r3, [pc, #84]	; (53b8 <nrf52_errata_108+0x7c>)
    5364:	681b      	ldr	r3, [r3, #0]
    5366:	607b      	str	r3, [r7, #4]
    5368:	4b16      	ldr	r3, [pc, #88]	; (53c4 <nrf52_errata_108+0x88>)
    536a:	681b      	ldr	r3, [r3, #0]
    536c:	603b      	str	r3, [r7, #0]
    536e:	687b      	ldr	r3, [r7, #4]
    5370:	2b06      	cmp	r3, #6
    5372:	d119      	bne.n	53a8 <nrf52_errata_108+0x6c>
    5374:	683b      	ldr	r3, [r7, #0]
    5376:	3b03      	subs	r3, #3
    5378:	2b03      	cmp	r3, #3
    537a:	d813      	bhi.n	53a4 <nrf52_errata_108+0x68>
    537c:	a201      	add	r2, pc, #4	; (adr r2, 5384 <nrf52_errata_108+0x48>)
    537e:	f852 f023 	ldr.w	pc, [r2, r3, lsl #2]
    5382:	bf00      	nop
    5384:	00005395 	.word	0x00005395
    5388:	00005399 	.word	0x00005399
    538c:	0000539d 	.word	0x0000539d
    5390:	000053a1 	.word	0x000053a1
    5394:	2301      	movs	r3, #1
    5396:	e008      	b.n	53aa <nrf52_errata_108+0x6e>
    5398:	2301      	movs	r3, #1
    539a:	e006      	b.n	53aa <nrf52_errata_108+0x6e>
    539c:	2301      	movs	r3, #1
    539e:	e004      	b.n	53aa <nrf52_errata_108+0x6e>
    53a0:	2301      	movs	r3, #1
    53a2:	e002      	b.n	53aa <nrf52_errata_108+0x6e>
    53a4:	2301      	movs	r3, #1
    53a6:	e000      	b.n	53aa <nrf52_errata_108+0x6e>
    53a8:	2300      	movs	r3, #0
    53aa:	4618      	mov	r0, r3
    53ac:	370c      	adds	r7, #12
    53ae:	46bd      	mov	sp, r7
    53b0:	f85d 7b04 	ldr.w	r7, [sp], #4
    53b4:	4770      	bx	lr
    53b6:	bf00      	nop
    53b8:	10000130 	.word	0x10000130
    53bc:	f0000fe0 	.word	0xf0000fe0
    53c0:	f0000fe8 	.word	0xf0000fe8
    53c4:	10000134 	.word	0x10000134

000053c8 <nrf52_errata_136>:
    53c8:	b480      	push	{r7}
    53ca:	b083      	sub	sp, #12
    53cc:	af00      	add	r7, sp, #0
    53ce:	4b1d      	ldr	r3, [pc, #116]	; (5444 <nrf52_errata_136+0x7c>)
    53d0:	681b      	ldr	r3, [r3, #0]
    53d2:	f1b3 3fff 	cmp.w	r3, #4294967295	; 0xffffffff
    53d6:	d10a      	bne.n	53ee <nrf52_errata_136+0x26>
    53d8:	4b1b      	ldr	r3, [pc, #108]	; (5448 <nrf52_errata_136+0x80>)
    53da:	681b      	ldr	r3, [r3, #0]
    53dc:	b2db      	uxtb	r3, r3
    53de:	607b      	str	r3, [r7, #4]
    53e0:	4b1a      	ldr	r3, [pc, #104]	; (544c <nrf52_errata_136+0x84>)
    53e2:	681b      	ldr	r3, [r3, #0]
    53e4:	091b      	lsrs	r3, r3, #4
    53e6:	f003 030f 	and.w	r3, r3, #15
    53ea:	603b      	str	r3, [r7, #0]
    53ec:	e005      	b.n	53fa <nrf52_errata_136+0x32>
    53ee:	4b15      	ldr	r3, [pc, #84]	; (5444 <nrf52_errata_136+0x7c>)
    53f0:	681b      	ldr	r3, [r3, #0]
    53f2:	607b      	str	r3, [r7, #4]
    53f4:	4b16      	ldr	r3, [pc, #88]	; (5450 <nrf52_errata_136+0x88>)
    53f6:	681b      	ldr	r3, [r3, #0]
    53f8:	603b      	str	r3, [r7, #0]
    53fa:	687b      	ldr	r3, [r7, #4]
    53fc:	2b06      	cmp	r3, #6
    53fe:	d119      	bne.n	5434 <nrf52_errata_136+0x6c>
    5400:	683b      	ldr	r3, [r7, #0]
    5402:	3b03      	subs	r3, #3
    5404:	2b03      	cmp	r3, #3
    5406:	d813      	bhi.n	5430 <nrf52_errata_136+0x68>
    5408:	a201      	add	r2, pc, #4	; (adr r2, 5410 <nrf52_errata_136+0x48>)
    540a:	f852 f023 	ldr.w	pc, [r2, r3, lsl #2]
    540e:	bf00      	nop
    5410:	00005421 	.word	0x00005421
    5414:	00005425 	.word	0x00005425
    5418:	00005429 	.word	0x00005429
    541c:	0000542d 	.word	0x0000542d
    5420:	2301      	movs	r3, #1
    5422:	e008      	b.n	5436 <nrf52_errata_136+0x6e>
    5424:	2301      	movs	r3, #1
    5426:	e006      	b.n	5436 <nrf52_errata_136+0x6e>
    5428:	2301      	movs	r3, #1
    542a:	e004      	b.n	5436 <nrf52_errata_136+0x6e>
    542c:	2301      	movs	r3, #1
    542e:	e002      	b.n	5436 <nrf52_errata_136+0x6e>
    5430:	2301      	movs	r3, #1
    5432:	e000      	b.n	5436 <nrf52_errata_136+0x6e>
    5434:	2300      	movs	r3, #0
    5436:	4618      	mov	r0, r3
    5438:	370c      	adds	r7, #12
    543a:	46bd      	mov	sp, r7
    543c:	f85d 7b04 	ldr.w	r7, [sp], #4
    5440:	4770      	bx	lr
    5442:	bf00      	nop
    5444:	10000130 	.word	0x10000130
    5448:	f0000fe0 	.word	0xf0000fe0
    544c:	f0000fe8 	.word	0xf0000fe8
    5450:	10000134 	.word	0x10000134

00005454 <nrf52_errata_182>:
    5454:	b480      	push	{r7}
    5456:	b083      	sub	sp, #12
    5458:	af00      	add	r7, sp, #0
    545a:	4b15      	ldr	r3, [pc, #84]	; (54b0 <nrf52_errata_182+0x5c>)
    545c:	681b      	ldr	r3, [r3, #0]
    545e:	607b      	str	r3, [r7, #4]
    5460:	4b14      	ldr	r3, [pc, #80]	; (54b4 <nrf52_errata_182+0x60>)
    5462:	681b      	ldr	r3, [r3, #0]
    5464:	603b      	str	r3, [r7, #0]
    5466:	687b      	ldr	r3, [r7, #4]
    5468:	2b06      	cmp	r3, #6
    546a:	d119      	bne.n	54a0 <nrf52_errata_182+0x4c>
    546c:	683b      	ldr	r3, [r7, #0]
    546e:	3b03      	subs	r3, #3
    5470:	2b03      	cmp	r3, #3
    5472:	d813      	bhi.n	549c <nrf52_errata_182+0x48>
    5474:	a201      	add	r2, pc, #4	; (adr r2, 547c <nrf52_errata_182+0x28>)
    5476:	f852 f023 	ldr.w	pc, [r2, r3, lsl #2]
    547a:	bf00      	nop
    547c:	0000548d 	.word	0x0000548d
    5480:	00005491 	.word	0x00005491
    5484:	00005495 	.word	0x00005495
    5488:	00005499 	.word	0x00005499
    548c:	2300      	movs	r3, #0
    548e:	e008      	b.n	54a2 <nrf52_errata_182+0x4e>
    5490:	2300      	movs	r3, #0
    5492:	e006      	b.n	54a2 <nrf52_errata_182+0x4e>
    5494:	2300      	movs	r3, #0
    5496:	e004      	b.n	54a2 <nrf52_errata_182+0x4e>
    5498:	2301      	movs	r3, #1
    549a:	e002      	b.n	54a2 <nrf52_errata_182+0x4e>
    549c:	2301      	movs	r3, #1
    549e:	e000      	b.n	54a2 <nrf52_errata_182+0x4e>
    54a0:	2300      	movs	r3, #0
    54a2:	4618      	mov	r0, r3
    54a4:	370c      	adds	r7, #12
    54a6:	46bd      	mov	sp, r7
    54a8:	f85d 7b04 	ldr.w	r7, [sp], #4
    54ac:	4770      	bx	lr
    54ae:	bf00      	nop
    54b0:	10000130 	.word	0x10000130
    54b4:	10000134 	.word	0x10000134

000054b8 <SystemCoreClockUpdate>:
    54b8:	b480      	push	{r7}
    54ba:	af00      	add	r7, sp, #0
    54bc:	4b03      	ldr	r3, [pc, #12]	; (54cc <SystemCoreClockUpdate+0x14>)
    54be:	4a04      	ldr	r2, [pc, #16]	; (54d0 <SystemCoreClockUpdate+0x18>)
    54c0:	601a      	str	r2, [r3, #0]
    54c2:	bf00      	nop
    54c4:	46bd      	mov	sp, r7
    54c6:	f85d 7b04 	ldr.w	r7, [sp], #4
    54ca:	4770      	bx	lr
    54cc:	20000058 	.word	0x20000058
    54d0:	03d09000 	.word	0x03d09000

000054d4 <SystemInit>:
    54d4:	b580      	push	{r7, lr}
    54d6:	af00      	add	r7, sp, #0
    54d8:	f7ff fd40 	bl	4f5c <nrf52_errata_12>
    54dc:	4603      	mov	r3, r0
    54de:	2b00      	cmp	r3, #0
    54e0:	d006      	beq.n	54f0 <SystemInit+0x1c>
    54e2:	4ba1      	ldr	r3, [pc, #644]	; (5768 <SystemInit+0x294>)
    54e4:	681b      	ldr	r3, [r3, #0]
    54e6:	0a1b      	lsrs	r3, r3, #8
    54e8:	4aa0      	ldr	r2, [pc, #640]	; (576c <SystemInit+0x298>)
    54ea:	f003 031f 	and.w	r3, r3, #31
    54ee:	6013      	str	r3, [r2, #0]
    54f0:	f7ff fd7a 	bl	4fe8 <nrf52_errata_16>
    54f4:	4603      	mov	r3, r0
    54f6:	2b00      	cmp	r3, #0
    54f8:	d002      	beq.n	5500 <SystemInit+0x2c>
    54fa:	4b9d      	ldr	r3, [pc, #628]	; (5770 <SystemInit+0x29c>)
    54fc:	4a9d      	ldr	r2, [pc, #628]	; (5774 <SystemInit+0x2a0>)
    54fe:	601a      	str	r2, [r3, #0]
    5500:	f7ff fda8 	bl	5054 <nrf52_errata_31>
    5504:	4603      	mov	r3, r0
    5506:	2b00      	cmp	r3, #0
    5508:	d006      	beq.n	5518 <SystemInit+0x44>
    550a:	4b9b      	ldr	r3, [pc, #620]	; (5778 <SystemInit+0x2a4>)
    550c:	681b      	ldr	r3, [r3, #0]
    550e:	0b5b      	lsrs	r3, r3, #13
    5510:	4a9a      	ldr	r2, [pc, #616]	; (577c <SystemInit+0x2a8>)
    5512:	f003 0307 	and.w	r3, r3, #7
    5516:	6013      	str	r3, [r2, #0]
    5518:	f7ff fde2 	bl	50e0 <nrf52_errata_32>
    551c:	4603      	mov	r3, r0
    551e:	2b00      	cmp	r3, #0
    5520:	d005      	beq.n	552e <SystemInit+0x5a>
    5522:	4b97      	ldr	r3, [pc, #604]	; (5780 <SystemInit+0x2ac>)
    5524:	68db      	ldr	r3, [r3, #12]
    5526:	4a96      	ldr	r2, [pc, #600]	; (5780 <SystemInit+0x2ac>)
    5528:	f023 7380 	bic.w	r3, r3, #16777216	; 0x1000000
    552c:	60d3      	str	r3, [r2, #12]
    552e:	f7ff fe0d 	bl	514c <nrf52_errata_36>
    5532:	4603      	mov	r3, r0
    5534:	2b00      	cmp	r3, #0
    5536:	d00e      	beq.n	5556 <SystemInit+0x82>
    5538:	f04f 4380 	mov.w	r3, #1073741824	; 0x40000000
    553c:	2200      	movs	r2, #0
    553e:	f8c3 210c 	str.w	r2, [r3, #268]	; 0x10c
    5542:	f04f 4380 	mov.w	r3, #1073741824	; 0x40000000
    5546:	2200      	movs	r2, #0
    5548:	f8c3 2110 	str.w	r2, [r3, #272]	; 0x110
    554c:	f04f 4380 	mov.w	r3, #1073741824	; 0x40000000
    5550:	2200      	movs	r2, #0
    5552:	f8c3 2538 	str.w	r2, [r3, #1336]	; 0x538
    5556:	f7ff fe3f 	bl	51d8 <nrf52_errata_37>
    555a:	4603      	mov	r3, r0
    555c:	2b00      	cmp	r3, #0
    555e:	d002      	beq.n	5566 <SystemInit+0x92>
    5560:	4b88      	ldr	r3, [pc, #544]	; (5784 <SystemInit+0x2b0>)
    5562:	2203      	movs	r2, #3
    5564:	601a      	str	r2, [r3, #0]
    5566:	f7ff fe6d 	bl	5244 <nrf52_errata_57>
    556a:	4603      	mov	r3, r0
    556c:	2b00      	cmp	r3, #0
    556e:	d00b      	beq.n	5588 <SystemInit+0xb4>
    5570:	4b85      	ldr	r3, [pc, #532]	; (5788 <SystemInit+0x2b4>)
    5572:	2205      	movs	r2, #5
    5574:	601a      	str	r2, [r3, #0]
    5576:	4b85      	ldr	r3, [pc, #532]	; (578c <SystemInit+0x2b8>)
    5578:	2201      	movs	r2, #1
    557a:	601a      	str	r2, [r3, #0]
    557c:	4b84      	ldr	r3, [pc, #528]	; (5790 <SystemInit+0x2bc>)
    557e:	2200      	movs	r2, #0
    5580:	601a      	str	r2, [r3, #0]
    5582:	4b84      	ldr	r3, [pc, #528]	; (5794 <SystemInit+0x2c0>)
    5584:	223f      	movs	r2, #63	; 0x3f
    5586:	601a      	str	r2, [r3, #0]
    5588:	f7ff fe92 	bl	52b0 <nrf52_errata_66>
    558c:	4603      	mov	r3, r0
    558e:	2b00      	cmp	r3, #0
    5590:	d076      	beq.n	5680 <SystemInit+0x1ac>
    5592:	f04f 5380 	mov.w	r3, #268435456	; 0x10000000
    5596:	4a80      	ldr	r2, [pc, #512]	; (5798 <SystemInit+0x2c4>)
    5598:	f8d3 3404 	ldr.w	r3, [r3, #1028]	; 0x404
    559c:	f8c2 3520 	str.w	r3, [r2, #1312]	; 0x520
    55a0:	f04f 5380 	mov.w	r3, #268435456	; 0x10000000
    55a4:	4a7c      	ldr	r2, [pc, #496]	; (5798 <SystemInit+0x2c4>)
    55a6:	f8d3 3408 	ldr.w	r3, [r3, #1032]	; 0x408
    55aa:	f8c2 3524 	str.w	r3, [r2, #1316]	; 0x524
    55ae:	f04f 5380 	mov.w	r3, #268435456	; 0x10000000
    55b2:	4a79      	ldr	r2, [pc, #484]	; (5798 <SystemInit+0x2c4>)
    55b4:	f8d3 340c 	ldr.w	r3, [r3, #1036]	; 0x40c
    55b8:	f8c2 3528 	str.w	r3, [r2, #1320]	; 0x528
    55bc:	f04f 5380 	mov.w	r3, #268435456	; 0x10000000
    55c0:	4a75      	ldr	r2, [pc, #468]	; (5798 <SystemInit+0x2c4>)
    55c2:	f8d3 3410 	ldr.w	r3, [r3, #1040]	; 0x410
    55c6:	f8c2 352c 	str.w	r3, [r2, #1324]	; 0x52c
    55ca:	f04f 5380 	mov.w	r3, #268435456	; 0x10000000
    55ce:	4a72      	ldr	r2, [pc, #456]	; (5798 <SystemInit+0x2c4>)
    55d0:	f8d3 3414 	ldr.w	r3, [r3, #1044]	; 0x414
    55d4:	f8c2 3530 	str.w	r3, [r2, #1328]	; 0x530
    55d8:	f04f 5380 	mov.w	r3, #268435456	; 0x10000000
    55dc:	4a6e      	ldr	r2, [pc, #440]	; (5798 <SystemInit+0x2c4>)
    55de:	f8d3 3418 	ldr.w	r3, [r3, #1048]	; 0x418
    55e2:	f8c2 3534 	str.w	r3, [r2, #1332]	; 0x534
    55e6:	f04f 5380 	mov.w	r3, #268435456	; 0x10000000
    55ea:	4a6b      	ldr	r2, [pc, #428]	; (5798 <SystemInit+0x2c4>)
    55ec:	f8d3 341c 	ldr.w	r3, [r3, #1052]	; 0x41c
    55f0:	f8c2 3540 	str.w	r3, [r2, #1344]	; 0x540
    55f4:	f04f 5380 	mov.w	r3, #268435456	; 0x10000000
    55f8:	4a67      	ldr	r2, [pc, #412]	; (5798 <SystemInit+0x2c4>)
    55fa:	f8d3 3420 	ldr.w	r3, [r3, #1056]	; 0x420
    55fe:	f8c2 3544 	str.w	r3, [r2, #1348]	; 0x544
    5602:	f04f 5380 	mov.w	r3, #268435456	; 0x10000000
    5606:	4a64      	ldr	r2, [pc, #400]	; (5798 <SystemInit+0x2c4>)
    5608:	f8d3 3424 	ldr.w	r3, [r3, #1060]	; 0x424
    560c:	f8c2 3548 	str.w	r3, [r2, #1352]	; 0x548
    5610:	f04f 5380 	mov.w	r3, #268435456	; 0x10000000
    5614:	4a60      	ldr	r2, [pc, #384]	; (5798 <SystemInit+0x2c4>)
    5616:	f8d3 3428 	ldr.w	r3, [r3, #1064]	; 0x428
    561a:	f8c2 354c 	str.w	r3, [r2, #1356]	; 0x54c
    561e:	f04f 5380 	mov.w	r3, #268435456	; 0x10000000
    5622:	4a5d      	ldr	r2, [pc, #372]	; (5798 <SystemInit+0x2c4>)
    5624:	f8d3 342c 	ldr.w	r3, [r3, #1068]	; 0x42c
    5628:	f8c2 3550 	str.w	r3, [r2, #1360]	; 0x550
    562c:	f04f 5380 	mov.w	r3, #268435456	; 0x10000000
    5630:	4a59      	ldr	r2, [pc, #356]	; (5798 <SystemInit+0x2c4>)
    5632:	f8d3 3430 	ldr.w	r3, [r3, #1072]	; 0x430
    5636:	f8c2 3554 	str.w	r3, [r2, #1364]	; 0x554
    563a:	f04f 5380 	mov.w	r3, #268435456	; 0x10000000
    563e:	4a56      	ldr	r2, [pc, #344]	; (5798 <SystemInit+0x2c4>)
    5640:	f8d3 3434 	ldr.w	r3, [r3, #1076]	; 0x434
    5644:	f8c2 3560 	str.w	r3, [r2, #1376]	; 0x560
    5648:	f04f 5380 	mov.w	r3, #268435456	; 0x10000000
    564c:	4a52      	ldr	r2, [pc, #328]	; (5798 <SystemInit+0x2c4>)
    564e:	f8d3 3438 	ldr.w	r3, [r3, #1080]	; 0x438
    5652:	f8c2 3564 	str.w	r3, [r2, #1380]	; 0x564
    5656:	f04f 5380 	mov.w	r3, #268435456	; 0x10000000
    565a:	4a4f      	ldr	r2, [pc, #316]	; (5798 <SystemInit+0x2c4>)
    565c:	f8d3 343c 	ldr.w	r3, [r3, #1084]	; 0x43c
    5660:	f8c2 3568 	str.w	r3, [r2, #1384]	; 0x568
    5664:	f04f 5380 	mov.w	r3, #268435456	; 0x10000000
    5668:	4a4b      	ldr	r2, [pc, #300]	; (5798 <SystemInit+0x2c4>)
    566a:	f8d3 3440 	ldr.w	r3, [r3, #1088]	; 0x440
    566e:	f8c2 356c 	str.w	r3, [r2, #1388]	; 0x56c
    5672:	f04f 5380 	mov.w	r3, #268435456	; 0x10000000
    5676:	4a48      	ldr	r2, [pc, #288]	; (5798 <SystemInit+0x2c4>)
    5678:	f8d3 3444 	ldr.w	r3, [r3, #1092]	; 0x444
    567c:	f8c2 3570 	str.w	r3, [r2, #1392]	; 0x570
    5680:	f7ff fe5c 	bl	533c <nrf52_errata_108>
    5684:	4603      	mov	r3, r0
    5686:	2b00      	cmp	r3, #0
    5688:	d005      	beq.n	5696 <SystemInit+0x1c2>
    568a:	4b44      	ldr	r3, [pc, #272]	; (579c <SystemInit+0x2c8>)
    568c:	681b      	ldr	r3, [r3, #0]
    568e:	4a44      	ldr	r2, [pc, #272]	; (57a0 <SystemInit+0x2cc>)
    5690:	f003 034f 	and.w	r3, r3, #79	; 0x4f
    5694:	6013      	str	r3, [r2, #0]
    5696:	f7ff fe97 	bl	53c8 <nrf52_errata_136>
    569a:	4603      	mov	r3, r0
    569c:	2b00      	cmp	r3, #0
    569e:	d00d      	beq.n	56bc <SystemInit+0x1e8>
    56a0:	f04f 4380 	mov.w	r3, #1073741824	; 0x40000000
    56a4:	f8d3 3400 	ldr.w	r3, [r3, #1024]	; 0x400
    56a8:	f003 0301 	and.w	r3, r3, #1
    56ac:	2b00      	cmp	r3, #0
    56ae:	d005      	beq.n	56bc <SystemInit+0x1e8>
    56b0:	f04f 4380 	mov.w	r3, #1073741824	; 0x40000000
    56b4:	f06f 0201 	mvn.w	r2, #1
    56b8:	f8c3 2400 	str.w	r2, [r3, #1024]	; 0x400
    56bc:	f7ff feca 	bl	5454 <nrf52_errata_182>
    56c0:	4603      	mov	r3, r0
    56c2:	2b00      	cmp	r3, #0
    56c4:	d005      	beq.n	56d2 <SystemInit+0x1fe>
    56c6:	4b37      	ldr	r3, [pc, #220]	; (57a4 <SystemInit+0x2d0>)
    56c8:	681b      	ldr	r3, [r3, #0]
    56ca:	4a36      	ldr	r2, [pc, #216]	; (57a4 <SystemInit+0x2d0>)
    56cc:	f443 6380 	orr.w	r3, r3, #1024	; 0x400
    56d0:	6013      	str	r3, [r2, #0]
    56d2:	4b35      	ldr	r3, [pc, #212]	; (57a8 <SystemInit+0x2d4>)
    56d4:	f8d3 3088 	ldr.w	r3, [r3, #136]	; 0x88
    56d8:	4a33      	ldr	r2, [pc, #204]	; (57a8 <SystemInit+0x2d4>)
    56da:	f443 0370 	orr.w	r3, r3, #15728640	; 0xf00000
    56de:	f8c2 3088 	str.w	r3, [r2, #136]	; 0x88
    56e2:	f3bf 8f4f 	dsb	sy
    56e6:	bf00      	nop
    56e8:	f3bf 8f6f 	isb	sy
    56ec:	bf00      	nop
    56ee:	f04f 2310 	mov.w	r3, #268439552	; 0x10001000
    56f2:	f8d3 3200 	ldr.w	r3, [r3, #512]	; 0x200
    56f6:	2b00      	cmp	r3, #0
    56f8:	db05      	blt.n	5706 <SystemInit+0x232>
    56fa:	f04f 2310 	mov.w	r3, #268439552	; 0x10001000
    56fe:	f8d3 3204 	ldr.w	r3, [r3, #516]	; 0x204
    5702:	2b00      	cmp	r3, #0
    5704:	da2b      	bge.n	575e <SystemInit+0x28a>
    5706:	4b29      	ldr	r3, [pc, #164]	; (57ac <SystemInit+0x2d8>)
    5708:	2201      	movs	r2, #1
    570a:	f8c3 2504 	str.w	r2, [r3, #1284]	; 0x504
    570e:	bf00      	nop
    5710:	4b26      	ldr	r3, [pc, #152]	; (57ac <SystemInit+0x2d8>)
    5712:	f8d3 3400 	ldr.w	r3, [r3, #1024]	; 0x400
    5716:	2b00      	cmp	r3, #0
    5718:	d0fa      	beq.n	5710 <SystemInit+0x23c>
    571a:	f04f 2310 	mov.w	r3, #268439552	; 0x10001000
    571e:	2215      	movs	r2, #21
    5720:	f8c3 2200 	str.w	r2, [r3, #512]	; 0x200
    5724:	bf00      	nop
    5726:	4b21      	ldr	r3, [pc, #132]	; (57ac <SystemInit+0x2d8>)
    5728:	f8d3 3400 	ldr.w	r3, [r3, #1024]	; 0x400
    572c:	2b00      	cmp	r3, #0
    572e:	d0fa      	beq.n	5726 <SystemInit+0x252>
    5730:	f04f 2310 	mov.w	r3, #268439552	; 0x10001000
    5734:	2215      	movs	r2, #21
    5736:	f8c3 2204 	str.w	r2, [r3, #516]	; 0x204
    573a:	bf00      	nop
    573c:	4b1b      	ldr	r3, [pc, #108]	; (57ac <SystemInit+0x2d8>)
    573e:	f8d3 3400 	ldr.w	r3, [r3, #1024]	; 0x400
    5742:	2b00      	cmp	r3, #0
    5744:	d0fa      	beq.n	573c <SystemInit+0x268>
    5746:	4b19      	ldr	r3, [pc, #100]	; (57ac <SystemInit+0x2d8>)
    5748:	2200      	movs	r2, #0
    574a:	f8c3 2504 	str.w	r2, [r3, #1284]	; 0x504
    574e:	bf00      	nop
    5750:	4b16      	ldr	r3, [pc, #88]	; (57ac <SystemInit+0x2d8>)
    5752:	f8d3 3400 	ldr.w	r3, [r3, #1024]	; 0x400
    5756:	2b00      	cmp	r3, #0
    5758:	d0fa      	beq.n	5750 <SystemInit+0x27c>
    575a:	f7ff fbe9 	bl	4f30 <__NVIC_SystemReset>
    575e:	f7ff feab 	bl	54b8 <SystemCoreClockUpdate>
    5762:	bf00      	nop
    5764:	bd80      	pop	{r7, pc}
    5766:	bf00      	nop
    5768:	10000324 	.word	0x10000324
    576c:	40013540 	.word	0x40013540
    5770:	4007c074 	.word	0x4007c074
    5774:	baadf00d 	.word	0xbaadf00d
    5778:	10000244 	.word	0x10000244
    577c:	4000053c 	.word	0x4000053c
    5780:	e000edf0 	.word	0xe000edf0
    5784:	400005a0 	.word	0x400005a0
    5788:	40005610 	.word	0x40005610
    578c:	40005688 	.word	0x40005688
    5790:	40005618 	.word	0x40005618
    5794:	40005614 	.word	0x40005614
    5798:	4000c000 	.word	0x4000c000
    579c:	10000258 	.word	0x10000258
    57a0:	40000ee4 	.word	0x40000ee4
    57a4:	4000173c 	.word	0x4000173c
    57a8:	e000ed00 	.word	0xe000ed00
    57ac:	4001e000 	.word	0x4001e000

000057b0 <atexit>:
    57b0:	2300      	movs	r3, #0
    57b2:	4601      	mov	r1, r0
    57b4:	461a      	mov	r2, r3
    57b6:	4618      	mov	r0, r3
    57b8:	f000 b86a 	b.w	5890 <__register_exitproc>

000057bc <exit>:
    57bc:	b508      	push	{r3, lr}
    57be:	4b06      	ldr	r3, [pc, #24]	; (57d8 <exit+0x1c>)
    57c0:	4604      	mov	r4, r0
    57c2:	b113      	cbz	r3, 57ca <exit+0xe>
    57c4:	2100      	movs	r1, #0
    57c6:	f000 f8c1 	bl	594c <__call_exitprocs>
    57ca:	4b04      	ldr	r3, [pc, #16]	; (57dc <exit+0x20>)
    57cc:	681b      	ldr	r3, [r3, #0]
    57ce:	b103      	cbz	r3, 57d2 <exit+0x16>
    57d0:	4798      	blx	r3
    57d2:	4620      	mov	r0, r4
    57d4:	f000 f916 	bl	5a04 <_exit>
    57d8:	0000594d 	.word	0x0000594d
    57dc:	20002700 	.word	0x20002700

000057e0 <memset>:
    57e0:	4402      	add	r2, r0
    57e2:	4603      	mov	r3, r0
    57e4:	4293      	cmp	r3, r2
    57e6:	d100      	bne.n	57ea <memset+0xa>
    57e8:	4770      	bx	lr
    57ea:	f803 1b01 	strb.w	r1, [r3], #1
    57ee:	e7f9      	b.n	57e4 <memset+0x4>

000057f0 <__libc_init_array>:
    57f0:	b570      	push	{r4, r5, r6, lr}
    57f2:	4d0d      	ldr	r5, [pc, #52]	; (5828 <__libc_init_array+0x38>)
    57f4:	4c0d      	ldr	r4, [pc, #52]	; (582c <__libc_init_array+0x3c>)
    57f6:	1b64      	subs	r4, r4, r5
    57f8:	10a4      	asrs	r4, r4, #2
    57fa:	2600      	movs	r6, #0
    57fc:	42a6      	cmp	r6, r4
    57fe:	d109      	bne.n	5814 <__libc_init_array+0x24>
    5800:	4d0b      	ldr	r5, [pc, #44]	; (5830 <__libc_init_array+0x40>)
    5802:	4c0c      	ldr	r4, [pc, #48]	; (5834 <__libc_init_array+0x44>)
    5804:	f000 f900 	bl	5a08 <_init>
    5808:	1b64      	subs	r4, r4, r5
    580a:	10a4      	asrs	r4, r4, #2
    580c:	2600      	movs	r6, #0
    580e:	42a6      	cmp	r6, r4
    5810:	d105      	bne.n	581e <__libc_init_array+0x2e>
    5812:	bd70      	pop	{r4, r5, r6, pc}
    5814:	f855 3b04 	ldr.w	r3, [r5], #4
    5818:	4798      	blx	r3
    581a:	3601      	adds	r6, #1
    581c:	e7ee      	b.n	57fc <__libc_init_array+0xc>
    581e:	f855 3b04 	ldr.w	r3, [r5], #4
    5822:	4798      	blx	r3
    5824:	3601      	adds	r6, #1
    5826:	e7f2      	b.n	580e <__libc_init_array+0x1e>
    5828:	20000060 	.word	0x20000060
    582c:	20000060 	.word	0x20000060
    5830:	20000060 	.word	0x20000060
    5834:	20000064 	.word	0x20000064

00005838 <__libc_fini_array>:
    5838:	b538      	push	{r3, r4, r5, lr}
    583a:	4d07      	ldr	r5, [pc, #28]	; (5858 <__libc_fini_array+0x20>)
    583c:	4c07      	ldr	r4, [pc, #28]	; (585c <__libc_fini_array+0x24>)
    583e:	1b64      	subs	r4, r4, r5
    5840:	10a4      	asrs	r4, r4, #2
    5842:	b91c      	cbnz	r4, 584c <__libc_fini_array+0x14>
    5844:	e8bd 4038 	ldmia.w	sp!, {r3, r4, r5, lr}
    5848:	f000 b8e4 	b.w	5a14 <_fini>
    584c:	3c01      	subs	r4, #1
    584e:	f855 3024 	ldr.w	r3, [r5, r4, lsl #2]
    5852:	4798      	blx	r3
    5854:	e7f5      	b.n	5842 <__libc_fini_array+0xa>
    5856:	bf00      	nop
    5858:	20000064 	.word	0x20000064
    585c:	20000068 	.word	0x20000068

00005860 <__retarget_lock_acquire_recursive>:
    5860:	4770      	bx	lr

00005862 <__retarget_lock_release_recursive>:
    5862:	4770      	bx	lr

00005864 <memcpy>:
    5864:	440a      	add	r2, r1
    5866:	4291      	cmp	r1, r2
    5868:	f100 33ff 	add.w	r3, r0, #4294967295	; 0xffffffff
    586c:	d100      	bne.n	5870 <memcpy+0xc>
    586e:	4770      	bx	lr
    5870:	b510      	push	{r4, lr}
    5872:	f811 4b01 	ldrb.w	r4, [r1], #1
    5876:	f803 4f01 	strb.w	r4, [r3, #1]!
    587a:	4291      	cmp	r1, r2
    587c:	d1f9      	bne.n	5872 <memcpy+0xe>
    587e:	bd10      	pop	{r4, pc}

00005880 <strlen>:
    5880:	4603      	mov	r3, r0
    5882:	f813 2b01 	ldrb.w	r2, [r3], #1
    5886:	2a00      	cmp	r2, #0
    5888:	d1fb      	bne.n	5882 <strlen+0x2>
    588a:	1a18      	subs	r0, r3, r0
    588c:	3801      	subs	r0, #1
    588e:	4770      	bx	lr

00005890 <__register_exitproc>:
    5890:	e92d 43f8 	stmdb	sp!, {r3, r4, r5, r6, r7, r8, r9, lr}
    5894:	f8df 80b0 	ldr.w	r8, [pc, #176]	; 5948 <__register_exitproc+0xb8>
    5898:	4606      	mov	r6, r0
    589a:	f8d8 0000 	ldr.w	r0, [r8]
    589e:	461f      	mov	r7, r3
    58a0:	460d      	mov	r5, r1
    58a2:	4691      	mov	r9, r2
    58a4:	f7ff ffdc 	bl	5860 <__retarget_lock_acquire_recursive>
    58a8:	4b23      	ldr	r3, [pc, #140]	; (5938 <__register_exitproc+0xa8>)
    58aa:	681c      	ldr	r4, [r3, #0]
    58ac:	b934      	cbnz	r4, 58bc <__register_exitproc+0x2c>
    58ae:	4c23      	ldr	r4, [pc, #140]	; (593c <__register_exitproc+0xac>)
    58b0:	601c      	str	r4, [r3, #0]
    58b2:	4b23      	ldr	r3, [pc, #140]	; (5940 <__register_exitproc+0xb0>)
    58b4:	b113      	cbz	r3, 58bc <__register_exitproc+0x2c>
    58b6:	681b      	ldr	r3, [r3, #0]
    58b8:	f8c4 3088 	str.w	r3, [r4, #136]	; 0x88
    58bc:	6863      	ldr	r3, [r4, #4]
    58be:	2b1f      	cmp	r3, #31
    58c0:	dd07      	ble.n	58d2 <__register_exitproc+0x42>
    58c2:	f8d8 0000 	ldr.w	r0, [r8]
    58c6:	f7ff ffcc 	bl	5862 <__retarget_lock_release_recursive>
    58ca:	f04f 30ff 	mov.w	r0, #4294967295	; 0xffffffff
    58ce:	e8bd 83f8 	ldmia.w	sp!, {r3, r4, r5, r6, r7, r8, r9, pc}
    58d2:	b32e      	cbz	r6, 5920 <__register_exitproc+0x90>
    58d4:	f8d4 0088 	ldr.w	r0, [r4, #136]	; 0x88
    58d8:	b968      	cbnz	r0, 58f6 <__register_exitproc+0x66>
    58da:	4b1a      	ldr	r3, [pc, #104]	; (5944 <__register_exitproc+0xb4>)
    58dc:	2b00      	cmp	r3, #0
    58de:	d0f0      	beq.n	58c2 <__register_exitproc+0x32>
    58e0:	f44f 7084 	mov.w	r0, #264	; 0x108
    58e4:	f3af 8000 	nop.w
    58e8:	2800      	cmp	r0, #0
    58ea:	d0ea      	beq.n	58c2 <__register_exitproc+0x32>
    58ec:	2300      	movs	r3, #0
    58ee:	e9c0 3340 	strd	r3, r3, [r0, #256]	; 0x100
    58f2:	f8c4 0088 	str.w	r0, [r4, #136]	; 0x88
    58f6:	6863      	ldr	r3, [r4, #4]
    58f8:	f840 9023 	str.w	r9, [r0, r3, lsl #2]
    58fc:	2201      	movs	r2, #1
    58fe:	409a      	lsls	r2, r3
    5900:	eb00 0183 	add.w	r1, r0, r3, lsl #2
    5904:	f8d0 3100 	ldr.w	r3, [r0, #256]	; 0x100
    5908:	4313      	orrs	r3, r2
    590a:	f8c0 3100 	str.w	r3, [r0, #256]	; 0x100
    590e:	2e02      	cmp	r6, #2
    5910:	f8c1 7080 	str.w	r7, [r1, #128]	; 0x80
    5914:	bf02      	ittt	eq
    5916:	f8d0 3104 	ldreq.w	r3, [r0, #260]	; 0x104
    591a:	4313      	orreq	r3, r2
    591c:	f8c0 3104 	streq.w	r3, [r0, #260]	; 0x104
    5920:	6863      	ldr	r3, [r4, #4]
    5922:	f8d8 0000 	ldr.w	r0, [r8]
    5926:	1c5a      	adds	r2, r3, #1
    5928:	3302      	adds	r3, #2
    592a:	6062      	str	r2, [r4, #4]
    592c:	f844 5023 	str.w	r5, [r4, r3, lsl #2]
    5930:	f7ff ff97 	bl	5862 <__retarget_lock_release_recursive>
    5934:	2000      	movs	r0, #0
    5936:	e7ca      	b.n	58ce <__register_exitproc+0x3e>
    5938:	20002794 	.word	0x20002794
    593c:	20002708 	.word	0x20002708
	...
    5948:	2000005c 	.word	0x2000005c

0000594c <__call_exitprocs>:
    594c:	e92d 4ff7 	stmdb	sp!, {r0, r1, r2, r4, r5, r6, r7, r8, r9, sl, fp, lr}
    5950:	f8df 90a8 	ldr.w	r9, [pc, #168]	; 59fc <__call_exitprocs+0xb0>
    5954:	9100      	str	r1, [sp, #0]
    5956:	4680      	mov	r8, r0
    5958:	f8d9 0000 	ldr.w	r0, [r9]
    595c:	f8df a0a0 	ldr.w	sl, [pc, #160]	; 5a00 <__call_exitprocs+0xb4>
    5960:	f7ff ff7e 	bl	5860 <__retarget_lock_acquire_recursive>
    5964:	f8da 4000 	ldr.w	r4, [sl]
    5968:	b934      	cbnz	r4, 5978 <__call_exitprocs+0x2c>
    596a:	f8d9 0000 	ldr.w	r0, [r9]
    596e:	b003      	add	sp, #12
    5970:	e8bd 4ff0 	ldmia.w	sp!, {r4, r5, r6, r7, r8, r9, sl, fp, lr}
    5974:	f7ff bf75 	b.w	5862 <__retarget_lock_release_recursive>
    5978:	6865      	ldr	r5, [r4, #4]
    597a:	f8d4 7088 	ldr.w	r7, [r4, #136]	; 0x88
    597e:	1e6e      	subs	r6, r5, #1
    5980:	3501      	adds	r5, #1
    5982:	eb04 0585 	add.w	r5, r4, r5, lsl #2
    5986:	f107 0b80 	add.w	fp, r7, #128	; 0x80
    598a:	2e00      	cmp	r6, #0
    598c:	dbed      	blt.n	596a <__call_exitprocs+0x1e>
    598e:	9b00      	ldr	r3, [sp, #0]
    5990:	b143      	cbz	r3, 59a4 <__call_exitprocs+0x58>
    5992:	b917      	cbnz	r7, 599a <__call_exitprocs+0x4e>
    5994:	3e01      	subs	r6, #1
    5996:	3d04      	subs	r5, #4
    5998:	e7f7      	b.n	598a <__call_exitprocs+0x3e>
    599a:	f85b 2026 	ldr.w	r2, [fp, r6, lsl #2]
    599e:	9b00      	ldr	r3, [sp, #0]
    59a0:	429a      	cmp	r2, r3
    59a2:	d1f7      	bne.n	5994 <__call_exitprocs+0x48>
    59a4:	6861      	ldr	r1, [r4, #4]
    59a6:	682a      	ldr	r2, [r5, #0]
    59a8:	3901      	subs	r1, #1
    59aa:	42b1      	cmp	r1, r6
    59ac:	bf16      	itet	ne
    59ae:	2300      	movne	r3, #0
    59b0:	6066      	streq	r6, [r4, #4]
    59b2:	602b      	strne	r3, [r5, #0]
    59b4:	2a00      	cmp	r2, #0
    59b6:	d0ed      	beq.n	5994 <__call_exitprocs+0x48>
    59b8:	6863      	ldr	r3, [r4, #4]
    59ba:	9301      	str	r3, [sp, #4]
    59bc:	b13f      	cbz	r7, 59ce <__call_exitprocs+0x82>
    59be:	f8d7 1100 	ldr.w	r1, [r7, #256]	; 0x100
    59c2:	2301      	movs	r3, #1
    59c4:	fa03 fc06 	lsl.w	ip, r3, r6
    59c8:	ea1c 0f01 	tst.w	ip, r1
    59cc:	d109      	bne.n	59e2 <__call_exitprocs+0x96>
    59ce:	4790      	blx	r2
    59d0:	6861      	ldr	r1, [r4, #4]
    59d2:	9b01      	ldr	r3, [sp, #4]
    59d4:	f8da 2000 	ldr.w	r2, [sl]
    59d8:	4299      	cmp	r1, r3
    59da:	d1c3      	bne.n	5964 <__call_exitprocs+0x18>
    59dc:	4294      	cmp	r4, r2
    59de:	d0d9      	beq.n	5994 <__call_exitprocs+0x48>
    59e0:	e7c0      	b.n	5964 <__call_exitprocs+0x18>
    59e2:	f8d7 0104 	ldr.w	r0, [r7, #260]	; 0x104
    59e6:	f857 1026 	ldr.w	r1, [r7, r6, lsl #2]
    59ea:	ea1c 0f00 	tst.w	ip, r0
    59ee:	d102      	bne.n	59f6 <__call_exitprocs+0xaa>
    59f0:	4640      	mov	r0, r8
    59f2:	4790      	blx	r2
    59f4:	e7ec      	b.n	59d0 <__call_exitprocs+0x84>
    59f6:	4608      	mov	r0, r1
    59f8:	4790      	blx	r2
    59fa:	e7e9      	b.n	59d0 <__call_exitprocs+0x84>
    59fc:	2000005c 	.word	0x2000005c
    5a00:	20002794 	.word	0x20002794

00005a04 <_exit>:
    5a04:	e7fe      	b.n	5a04 <_exit>
    5a06:	bf00      	nop

00005a08 <_init>:
    5a08:	b5f8      	push	{r3, r4, r5, r6, r7, lr}
    5a0a:	bf00      	nop
    5a0c:	bcf8      	pop	{r3, r4, r5, r6, r7}
    5a0e:	bc08      	pop	{r3}
    5a10:	469e      	mov	lr, r3
    5a12:	4770      	bx	lr

00005a14 <_fini>:
    5a14:	b5f8      	push	{r3, r4, r5, r6, r7, lr}
    5a16:	bf00      	nop
    5a18:	bcf8      	pop	{r3, r4, r5, r6, r7}
    5a1a:	bc08      	pop	{r3}
    5a1c:	469e      	mov	lr, r3
    5a1e:	4770      	bx	lr
    5a20:	ffffffff 	.word	0xffffffff
    5a24:	ffffffff 	.word	0xffffffff
    5a28:	ffffffff 	.word	0xffffffff
    5a2c:	ffffffff 	.word	0xffffffff
	...
    5a38:	01d60000 	.word	0x01d60000
    5a3c:	00000106 	.word	0x00000106

00005a40 <nrf_log_backend_uart_api>:
    5a40:	000005ed 0000062d 00000619 74726175     ....-.......uart
    5a50:	676f6c5f 6361625f 646e656b 00000000     _log_backend....

00005a60 <m_log_push_ringbuf>:
    5a60:	20000198 0000007f 20000218 00707061     ... ....... app.
    5a70:	6b636142 73646e65 756c6620 64656873     Backends flushed
    5a80:	00000000 6f727265 00000072 6e726177     ....error...warn
    5a90:	00676e69 6f666e69 00000000 75626564     ing.info....debu
    5aa0:	00000067 6d305b1b 00000000 3b315b1b     g....[0m.....[1;
    5ab0:	006d3033 3b315b1b 006d3133 3b315b1b     30m..[1;31m..[1;
    5ac0:	006d3233 3b315b1b 006d3333 3b315b1b     32m..[1;33m..[1;
    5ad0:	006d3433 3b315b1b 006d3533 3b315b1b     34m..[1;35m..[1;
    5ae0:	006d3633 3b315b1b 006d3733 6f4c7325     36m..[1;37m.%sLo
    5af0:	64207367 70706f72 28206465 25296425     gs dropped (%d)%
    5b00:	000a0d73 00007325 3e73253c 3a732520     s...%s..<%s> %s:
    5b10:	00000020 00000a0d 32302520 00000078      ....... %02x...
    5b20:	00202020 0000007c 00006325 00000020        .|...%c.. ...

00005b30 <m_board_led_list>:
    5b30:	14131211                                ....

00005b34 <m_board_btn_list>:
    5b34:	100f0e0d                                ....

00005b38 <_aV2C.0>:
    5b38:	33323130 37363534 42413938 46454443     0123456789ABCDEF
    5b48:	00533249 00535250 54524155 00000000     I2S.PRS.UART....

00005b58 <irq_handlers.0>:
    5b58:	00003e01 54524155 00000045              .>..UARTE...

00005b64 <irq_handlers.0>:
    5b64:	00004a79 3a753325 34302520 30252f78     yJ..%3u: %04x/%0
    5b74:	202c7834 65707865 64657463 3025203a     4x, expected: %0
    5b84:	252f7834 20783430 203a6928 00297525     4x/%04x (i: %u).
    5b94:	3a753325 004b4f20 20000ef0 20001ef0     %3u: OK.... ... 
    5ba4:	20533249 706f6f6c 6b636162 61786520     I2S loopback exa
    5bb4:	656c706d 61747320 64657472 0000002e     mple started....
    5bc4:	1dff1e1f 0000061c 00010100 20000000     ............... 
    5bd4:	000000d0 200006f0 200016f0              ....... ... 

00005be0 <default_config.1>:
    5be0:	1dff1e1f 0000061c 00010100 20000000     ............... 
    5bf0:	000000d0 00000000 00000000 00000000     ................

00005c00 <delay_machine_code.0>:
    5c00:	d8fd3803                                 .8..pG

00005c06 <_ctype_>:
    5c06:	20202000 20202020 28282020 20282828     .         ((((( 
    5c16:	20202020 20202020 20202020 20202020                     
    5c26:	10108820 10101010 10101010 10101010      ...............
    5c36:	04040410 04040404 10040404 10101010     ................
    5c46:	41411010 41414141 01010101 01010101     ..AAAAAA........
    5c56:	01010101 01010101 01010101 10101010     ................
    5c66:	42421010 42424242 02020202 02020202     ..BBBBBB........
    5c76:	02020202 02020202 02020202 10101010     ................
    5c86:	00000020 00000000 00000000 00000000      ...............
	...

00005d08 <__EH_FRAME_BEGIN__>:
    5d08:	00000000                                ....
