
i2s-o1.elf:     file format elf32-littlearm


Disassembly of section .text:

00000000 <__isr_vector>:
       0:	20010000 	.word	0x20010000
       4:	000002b1 	.word	0x000002b1
       8:	000002d9 	.word	0x000002d9
       c:	000002db 	.word	0x000002db
      10:	000002dd 	.word	0x000002dd
      14:	000002df 	.word	0x000002df
      18:	000002e1 	.word	0x000002e1
	...
      2c:	000002e3 	.word	0x000002e3
      30:	000002e5 	.word	0x000002e5
      34:	00000000 	.word	0x00000000
      38:	000002e7 	.word	0x000002e7
      3c:	000002e9 	.word	0x000002e9
      40:	000002eb 	.word	0x000002eb
      44:	000002eb 	.word	0x000002eb
      48:	00001bc9 	.word	0x00001bc9
      4c:	000002eb 	.word	0x000002eb
      50:	000002eb 	.word	0x000002eb
      54:	000002eb 	.word	0x000002eb
      58:	000002eb 	.word	0x000002eb
      5c:	000002eb 	.word	0x000002eb
      60:	000002eb 	.word	0x000002eb
      64:	000002eb 	.word	0x000002eb
      68:	000002eb 	.word	0x000002eb
      6c:	000002eb 	.word	0x000002eb
      70:	000002eb 	.word	0x000002eb
      74:	000002eb 	.word	0x000002eb
      78:	000002eb 	.word	0x000002eb
      7c:	000002eb 	.word	0x000002eb
      80:	000002eb 	.word	0x000002eb
      84:	000002eb 	.word	0x000002eb
      88:	000002eb 	.word	0x000002eb
      8c:	000002eb 	.word	0x000002eb
      90:	000002eb 	.word	0x000002eb
      94:	000002eb 	.word	0x000002eb
      98:	000002eb 	.word	0x000002eb
      9c:	000002eb 	.word	0x000002eb
      a0:	000002eb 	.word	0x000002eb
      a4:	000002eb 	.word	0x000002eb
      a8:	000002eb 	.word	0x000002eb
      ac:	000002eb 	.word	0x000002eb
      b0:	000002eb 	.word	0x000002eb
      b4:	000002eb 	.word	0x000002eb
	...
      c0:	000002eb 	.word	0x000002eb
      c4:	000002eb 	.word	0x000002eb
      c8:	000002eb 	.word	0x000002eb
      cc:	000002eb 	.word	0x000002eb
      d0:	000002eb 	.word	0x000002eb
      d4:	00001a91 	.word	0x00001a91
      d8:	000002eb 	.word	0x000002eb
	...

00000200 <__do_global_dtors_aux>:
     200:	b510      	push	{r4, lr}
     202:	4c05      	ldr	r4, [pc, #20]	; (218 <__do_global_dtors_aux+0x18>)
     204:	7823      	ldrb	r3, [r4, #0]
     206:	b933      	cbnz	r3, 216 <__do_global_dtors_aux+0x16>
     208:	4b04      	ldr	r3, [pc, #16]	; (21c <__do_global_dtors_aux+0x1c>)
     20a:	b113      	cbz	r3, 212 <__do_global_dtors_aux+0x12>
     20c:	4804      	ldr	r0, [pc, #16]	; (220 <__do_global_dtors_aux+0x20>)
     20e:	f3af 8000 	nop.w
     212:	2301      	movs	r3, #1
     214:	7023      	strb	r3, [r4, #0]
     216:	bd10      	pop	{r4, pc}
     218:	2000002c 	.word	0x2000002c
     21c:	00000000 	.word	0x00000000
     220:	00003288 	.word	0x00003288

00000224 <frame_dummy>:
     224:	b508      	push	{r3, lr}
     226:	4b03      	ldr	r3, [pc, #12]	; (234 <frame_dummy+0x10>)
     228:	b11b      	cbz	r3, 232 <frame_dummy+0xe>
     22a:	4903      	ldr	r1, [pc, #12]	; (238 <frame_dummy+0x14>)
     22c:	4803      	ldr	r0, [pc, #12]	; (23c <frame_dummy+0x18>)
     22e:	f3af 8000 	nop.w
     232:	bd08      	pop	{r3, pc}
     234:	00000000 	.word	0x00000000
     238:	20000030 	.word	0x20000030
     23c:	00003288 	.word	0x00003288

00000240 <_stack_init>:
     240:	f5a3 3a80 	sub.w	sl, r3, #65536	; 0x10000
     244:	4770      	bx	lr
     246:	bf00      	nop

00000248 <_mainCRTStartup>:
     248:	4b15      	ldr	r3, [pc, #84]	; (2a0 <_mainCRTStartup+0x58>)
     24a:	2b00      	cmp	r3, #0
     24c:	bf08      	it	eq
     24e:	4b11      	ldreq	r3, [pc, #68]	; (294 <_mainCRTStartup+0x4c>)
     250:	469d      	mov	sp, r3
     252:	f7ff fff5 	bl	240 <_stack_init>
     256:	2100      	movs	r1, #0
     258:	468b      	mov	fp, r1
     25a:	460f      	mov	r7, r1
     25c:	4811      	ldr	r0, [pc, #68]	; (2a4 <_mainCRTStartup+0x5c>)
     25e:	4a12      	ldr	r2, [pc, #72]	; (2a8 <_mainCRTStartup+0x60>)
     260:	1a12      	subs	r2, r2, r0
     262:	f002 fd75 	bl	2d50 <memset>
     266:	4b0c      	ldr	r3, [pc, #48]	; (298 <_mainCRTStartup+0x50>)
     268:	2b00      	cmp	r3, #0
     26a:	d000      	beq.n	26e <_mainCRTStartup+0x26>
     26c:	4798      	blx	r3
     26e:	4b0b      	ldr	r3, [pc, #44]	; (29c <_mainCRTStartup+0x54>)
     270:	2b00      	cmp	r3, #0
     272:	d000      	beq.n	276 <_mainCRTStartup+0x2e>
     274:	4798      	blx	r3
     276:	2000      	movs	r0, #0
     278:	2100      	movs	r1, #0
     27a:	0004      	movs	r4, r0
     27c:	000d      	movs	r5, r1
     27e:	480b      	ldr	r0, [pc, #44]	; (2ac <_mainCRTStartup+0x64>)
     280:	f002 fd4e 	bl	2d20 <atexit>
     284:	f002 fd6c 	bl	2d60 <__libc_init_array>
     288:	0020      	movs	r0, r4
     28a:	0029      	movs	r1, r5
     28c:	f002 fa8c 	bl	27a8 <main>
     290:	f002 fd4c 	bl	2d2c <exit>
     294:	00080000 	.word	0x00080000
	...
     2a0:	20010000 	.word	0x20010000
     2a4:	2000002c 	.word	0x2000002c
     2a8:	20002764 	.word	0x20002764
     2ac:	00002da9 	.word	0x00002da9

000002b0 <Reset_Handler>:
     2b0:	4906      	ldr	r1, [pc, #24]	; (2cc <Reset_Handler+0x1c>)
     2b2:	4a07      	ldr	r2, [pc, #28]	; (2d0 <Reset_Handler+0x20>)
     2b4:	4b07      	ldr	r3, [pc, #28]	; (2d4 <Reset_Handler+0x24>)
     2b6:	1a9b      	subs	r3, r3, r2
     2b8:	dd03      	ble.n	2c2 <Reset_Handler+0x12>
     2ba:	3b04      	subs	r3, #4
     2bc:	58c8      	ldr	r0, [r1, r3]
     2be:	50d0      	str	r0, [r2, r3]
     2c0:	dcfb      	bgt.n	2ba <Reset_Handler+0xa>
     2c2:	f002 fb79 	bl	29b8 <SystemInit>
     2c6:	f7ff ffbf 	bl	248 <_mainCRTStartup>
     2ca:	0000      	.short	0x0000
     2cc:	000032e0 	.word	0x000032e0
     2d0:	20000000 	.word	0x20000000
     2d4:	2000002c 	.word	0x2000002c

000002d8 <NMI_Handler>:
     2d8:	e7fe      	b.n	2d8 <NMI_Handler>

000002da <HardFault_Handler>:
     2da:	e7fe      	b.n	2da <HardFault_Handler>

000002dc <MemoryManagement_Handler>:
     2dc:	e7fe      	b.n	2dc <MemoryManagement_Handler>

000002de <BusFault_Handler>:
     2de:	e7fe      	b.n	2de <BusFault_Handler>

000002e0 <UsageFault_Handler>:
     2e0:	e7fe      	b.n	2e0 <UsageFault_Handler>

000002e2 <SVC_Handler>:
     2e2:	e7fe      	b.n	2e2 <SVC_Handler>

000002e4 <DebugMon_Handler>:
     2e4:	e7fe      	b.n	2e4 <DebugMon_Handler>

000002e6 <PendSV_Handler>:
     2e6:	e7fe      	b.n	2e6 <PendSV_Handler>

000002e8 <SysTick_Handler>:
     2e8:	e7fe      	b.n	2e8 <SysTick_Handler>

000002ea <Default_Handler>:
     2ea:	e7fe      	b.n	2ea <Default_Handler>

000002ec <nrf_log_backend_serial_put>:
     2ec:	b5f0      	push	{r4, r5, r6, r7, lr}
     2ee:	b095      	sub	sp, #84	; 0x54
     2f0:	460e      	mov	r6, r1
     2f2:	4615      	mov	r5, r2
     2f4:	461c      	mov	r4, r3
     2f6:	4608      	mov	r0, r1
     2f8:	f001 f9b9 	bl	166e <nrf_memobj_get>
     2fc:	950e      	str	r5, [sp, #56]	; 0x38
     2fe:	940f      	str	r4, [sp, #60]	; 0x3c
     300:	2400      	movs	r4, #0
     302:	9410      	str	r4, [sp, #64]	; 0x40
     304:	f88d 4044 	strb.w	r4, [sp, #68]	; 0x44
     308:	9412      	str	r4, [sp, #72]	; 0x48
     30a:	9b1a      	ldr	r3, [sp, #104]	; 0x68
     30c:	9313      	str	r3, [sp, #76]	; 0x4c
     30e:	4623      	mov	r3, r4
     310:	2208      	movs	r2, #8
     312:	a908      	add	r1, sp, #32
     314:	4630      	mov	r0, r6
     316:	f001 f9c9 	bl	16ac <nrf_memobj_read>
     31a:	9b0a      	ldr	r3, [sp, #40]	; 0x28
     31c:	930b      	str	r3, [sp, #44]	; 0x2c
     31e:	f8bd 3024 	ldrh.w	r3, [sp, #36]	; 0x24
     322:	f8ad 3030 	strh.w	r3, [sp, #48]	; 0x30
     326:	f8bd 3026 	ldrh.w	r3, [sp, #38]	; 0x26
     32a:	f8ad 3032 	strh.w	r3, [sp, #50]	; 0x32
     32e:	f88d 4035 	strb.w	r4, [sp, #53]	; 0x35
     332:	f89d 3020 	ldrb.w	r3, [sp, #32]
     336:	f003 0303 	and.w	r3, r3, #3
     33a:	2b01      	cmp	r3, #1
     33c:	d006      	beq.n	34c <nrf_log_backend_serial_put+0x60>
     33e:	2b02      	cmp	r3, #2
     340:	d021      	beq.n	386 <nrf_log_backend_serial_put+0x9a>
     342:	4630      	mov	r0, r6
     344:	f001 f999 	bl	167a <nrf_memobj_put>
     348:	b015      	add	sp, #84	; 0x54
     34a:	bdf0      	pop	{r4, r5, r6, r7, pc}
     34c:	9d08      	ldr	r5, [sp, #32]
     34e:	f3c5 2595 	ubfx	r5, r5, #10, #22
     352:	f89d 3020 	ldrb.w	r3, [sp, #32]
     356:	f3c3 03c2 	ubfx	r3, r3, #3, #3
     35a:	f88d 3034 	strb.w	r3, [sp, #52]	; 0x34
     35e:	f8bd 4020 	ldrh.w	r4, [sp, #32]
     362:	f3c4 1483 	ubfx	r4, r4, #6, #4
     366:	2308      	movs	r3, #8
     368:	00a2      	lsls	r2, r4, #2
     36a:	eb0d 0103 	add.w	r1, sp, r3
     36e:	4630      	mov	r0, r6
     370:	f001 f99c 	bl	16ac <nrf_memobj_read>
     374:	ab0e      	add	r3, sp, #56	; 0x38
     376:	9300      	str	r3, [sp, #0]
     378:	ab0b      	add	r3, sp, #44	; 0x2c
     37a:	4622      	mov	r2, r4
     37c:	a902      	add	r1, sp, #8
     37e:	4628      	mov	r0, r5
     380:	f000 fc8a 	bl	c98 <nrf_log_std_entry_process>
     384:	e7dd      	b.n	342 <nrf_log_backend_serial_put+0x56>
     386:	f8bd 5022 	ldrh.w	r5, [sp, #34]	; 0x22
     38a:	f3c5 1589 	ubfx	r5, r5, #6, #10
     38e:	f89d 3020 	ldrb.w	r3, [sp, #32]
     392:	f3c3 03c2 	ubfx	r3, r3, #3, #3
     396:	f88d 3034 	strb.w	r3, [sp, #52]	; 0x34
     39a:	2708      	movs	r7, #8
     39c:	462c      	mov	r4, r5
     39e:	2d08      	cmp	r5, #8
     3a0:	bf28      	it	cs
     3a2:	2408      	movcs	r4, #8
     3a4:	463b      	mov	r3, r7
     3a6:	4622      	mov	r2, r4
     3a8:	a902      	add	r1, sp, #8
     3aa:	4630      	mov	r0, r6
     3ac:	f001 f97e 	bl	16ac <nrf_memobj_read>
     3b0:	4427      	add	r7, r4
     3b2:	1b2d      	subs	r5, r5, r4
     3b4:	ab0e      	add	r3, sp, #56	; 0x38
     3b6:	aa0b      	add	r2, sp, #44	; 0x2c
     3b8:	4621      	mov	r1, r4
     3ba:	a802      	add	r0, sp, #8
     3bc:	f000 fcce 	bl	d5c <nrf_log_hexdump_entry_process>
     3c0:	2d00      	cmp	r5, #0
     3c2:	d1eb      	bne.n	39c <nrf_log_backend_serial_put+0xb0>
     3c4:	e7bd      	b.n	342 <nrf_log_backend_serial_put+0x56>
	...

000003c8 <uart_evt_handler>:
     3c8:	4b01      	ldr	r3, [pc, #4]	; (3d0 <uart_evt_handler+0x8>)
     3ca:	2201      	movs	r2, #1
     3cc:	701a      	strb	r2, [r3, #0]
     3ce:	4770      	bx	lr
     3d0:	2000008c 	.word	0x2000008c

000003d4 <nrf_log_backend_uart_flush>:
     3d4:	4770      	bx	lr
	...

000003d8 <uart_init>:
     3d8:	b510      	push	{r4, lr}
     3da:	b088      	sub	sp, #32
     3dc:	4686      	mov	lr, r0
     3de:	46ec      	mov	ip, sp
     3e0:	4c0d      	ldr	r4, [pc, #52]	; (418 <uart_init+0x40>)
     3e2:	cc0f      	ldmia	r4!, {r0, r1, r2, r3}
     3e4:	e8ac 000f 	stmia.w	ip!, {r0, r1, r2, r3}
     3e8:	e894 000f 	ldmia.w	r4, {r0, r1, r2, r3}
     3ec:	e88c 000f 	stmia.w	ip, {r0, r1, r2, r3}
     3f0:	2306      	movs	r3, #6
     3f2:	9300      	str	r3, [sp, #0]
     3f4:	f1be 0400 	subs.w	r4, lr, #0
     3f8:	4a08      	ldr	r2, [pc, #32]	; (41c <uart_init+0x44>)
     3fa:	bf08      	it	eq
     3fc:	2200      	moveq	r2, #0
     3fe:	4669      	mov	r1, sp
     400:	4807      	ldr	r0, [pc, #28]	; (420 <uart_init+0x48>)
     402:	f001 f9a5 	bl	1750 <nrf_drv_uart_init>
     406:	b918      	cbnz	r0, 410 <uart_init+0x38>
     408:	4b06      	ldr	r3, [pc, #24]	; (424 <uart_init+0x4c>)
     40a:	701c      	strb	r4, [r3, #0]
     40c:	b008      	add	sp, #32
     40e:	bd10      	pop	{r4, pc}
     410:	f000 fd6f 	bl	ef2 <app_error_handler_bare>
     414:	e7f8      	b.n	408 <uart_init+0x30>
     416:	bf00      	nop
     418:	00002f90 	.word	0x00002f90
     41c:	000003c9 	.word	0x000003c9
     420:	20000000 	.word	0x20000000
     424:	20000048 	.word	0x20000048

00000428 <nrf_log_backend_uart_panic_set>:
     428:	b508      	push	{r3, lr}
     42a:	4b08      	ldr	r3, [pc, #32]	; (44c <nrf_log_backend_uart_panic_set+0x24>)
     42c:	781b      	ldrb	r3, [r3, #0]
     42e:	4a08      	ldr	r2, [pc, #32]	; (450 <nrf_log_backend_uart_panic_set+0x28>)
     430:	5cd3      	ldrb	r3, [r2, r3]
     432:	b133      	cbz	r3, 442 <nrf_log_backend_uart_panic_set+0x1a>
     434:	4807      	ldr	r0, [pc, #28]	; (454 <nrf_log_backend_uart_panic_set+0x2c>)
     436:	f002 f839 	bl	24ac <nrfx_uarte_uninit>
     43a:	2000      	movs	r0, #0
     43c:	f7ff ffcc 	bl	3d8 <uart_init>
     440:	bd08      	pop	{r3, pc}
     442:	4805      	ldr	r0, [pc, #20]	; (458 <nrf_log_backend_uart_panic_set+0x30>)
     444:	f001 fdba 	bl	1fbc <nrfx_uart_uninit>
     448:	e7f7      	b.n	43a <nrf_log_backend_uart_panic_set+0x12>
     44a:	bf00      	nop
     44c:	20000000 	.word	0x20000000
     450:	20000644 	.word	0x20000644
     454:	20000004 	.word	0x20000004
     458:	2000000c 	.word	0x2000000c

0000045c <nrf_log_backend_uart_put>:
     45c:	b500      	push	{lr}
     45e:	b083      	sub	sp, #12
     460:	4b04      	ldr	r3, [pc, #16]	; (474 <nrf_log_backend_uart_put+0x18>)
     462:	9300      	str	r3, [sp, #0]
     464:	2340      	movs	r3, #64	; 0x40
     466:	4a04      	ldr	r2, [pc, #16]	; (478 <nrf_log_backend_uart_put+0x1c>)
     468:	f7ff ff40 	bl	2ec <nrf_log_backend_serial_put>
     46c:	b003      	add	sp, #12
     46e:	f85d fb04 	ldr.w	pc, [sp], #4
     472:	bf00      	nop
     474:	0000047d 	.word	0x0000047d
     478:	2000004c 	.word	0x2000004c

0000047c <serial_tx>:
     47c:	b508      	push	{r3, lr}
     47e:	4b0e      	ldr	r3, [pc, #56]	; (4b8 <serial_tx+0x3c>)
     480:	2000      	movs	r0, #0
     482:	7018      	strb	r0, [r3, #0]
     484:	4b0d      	ldr	r3, [pc, #52]	; (4bc <serial_tx+0x40>)
     486:	781b      	ldrb	r3, [r3, #0]
     488:	480d      	ldr	r0, [pc, #52]	; (4c0 <serial_tx+0x44>)
     48a:	5cc3      	ldrb	r3, [r0, r3]
     48c:	b163      	cbz	r3, 4a8 <serial_tx+0x2c>
     48e:	b2d2      	uxtb	r2, r2
     490:	480c      	ldr	r0, [pc, #48]	; (4c4 <serial_tx+0x48>)
     492:	f002 f8bb 	bl	260c <nrfx_uarte_tx>
     496:	b960      	cbnz	r0, 4b2 <serial_tx+0x36>
     498:	4b0b      	ldr	r3, [pc, #44]	; (4c8 <serial_tx+0x4c>)
     49a:	781a      	ldrb	r2, [r3, #0]
     49c:	4906      	ldr	r1, [pc, #24]	; (4b8 <serial_tx+0x3c>)
     49e:	b112      	cbz	r2, 4a6 <serial_tx+0x2a>
     4a0:	780b      	ldrb	r3, [r1, #0]
     4a2:	2b00      	cmp	r3, #0
     4a4:	d0fb      	beq.n	49e <serial_tx+0x22>
     4a6:	bd08      	pop	{r3, pc}
     4a8:	b2d2      	uxtb	r2, r2
     4aa:	4808      	ldr	r0, [pc, #32]	; (4cc <serial_tx+0x50>)
     4ac:	f001 fe04 	bl	20b8 <nrfx_uart_tx>
     4b0:	e7f1      	b.n	496 <serial_tx+0x1a>
     4b2:	f000 fd1e 	bl	ef2 <app_error_handler_bare>
     4b6:	e7ef      	b.n	498 <serial_tx+0x1c>
     4b8:	2000008c 	.word	0x2000008c
     4bc:	20000000 	.word	0x20000000
     4c0:	20000644 	.word	0x20000644
     4c4:	20000004 	.word	0x20000004
     4c8:	20000048 	.word	0x20000048
     4cc:	2000000c 	.word	0x2000000c

000004d0 <nrf_log_backend_uart_init>:
     4d0:	b508      	push	{r3, lr}
     4d2:	2001      	movs	r0, #1
     4d4:	f7ff ff80 	bl	3d8 <uart_init>
     4d8:	bd08      	pop	{r3, pc}
	...

000004dc <nrf_log_default_backends_init>:
     4dc:	b508      	push	{r3, lr}
     4de:	f7ff fff7 	bl	4d0 <nrf_log_backend_uart_init>
     4e2:	2104      	movs	r1, #4
     4e4:	4803      	ldr	r0, [pc, #12]	; (4f4 <nrf_log_default_backends_init+0x18>)
     4e6:	f000 fb43 	bl	b70 <nrf_log_backend_add>
     4ea:	4b03      	ldr	r3, [pc, #12]	; (4f8 <nrf_log_default_backends_init+0x1c>)
     4ec:	2201      	movs	r2, #1
     4ee:	715a      	strb	r2, [r3, #5]
     4f0:	bd08      	pop	{r3, pc}
     4f2:	bf00      	nop
     4f4:	000032b4 	.word	0x000032b4
     4f8:	20000014 	.word	0x20000014

000004fc <invalid_packets_omit>:
     4fc:	7803      	ldrb	r3, [r0, #0]
     4fe:	f013 0f04 	tst.w	r3, #4
     502:	d018      	beq.n	536 <invalid_packets_omit+0x3a>
     504:	f003 0303 	and.w	r3, r3, #3
     508:	2b01      	cmp	r3, #1
     50a:	d003      	beq.n	514 <invalid_packets_omit+0x18>
     50c:	2b02      	cmp	r3, #2
     50e:	d00a      	beq.n	526 <invalid_packets_omit+0x2a>
     510:	2001      	movs	r0, #1
     512:	4770      	bx	lr
     514:	680b      	ldr	r3, [r1, #0]
     516:	3302      	adds	r3, #2
     518:	8802      	ldrh	r2, [r0, #0]
     51a:	f3c2 1283 	ubfx	r2, r2, #6, #4
     51e:	4413      	add	r3, r2
     520:	600b      	str	r3, [r1, #0]
     522:	2001      	movs	r0, #1
     524:	4770      	bx	lr
     526:	680b      	ldr	r3, [r1, #0]
     528:	3302      	adds	r3, #2
     52a:	8842      	ldrh	r2, [r0, #2]
     52c:	eb03 1392 	add.w	r3, r3, r2, lsr #6
     530:	600b      	str	r3, [r1, #0]
     532:	2001      	movs	r0, #1
     534:	4770      	bx	lr
     536:	2000      	movs	r0, #0
     538:	4770      	bx	lr
	...

0000053c <log_skip>:
     53c:	b510      	push	{r4, lr}
     53e:	b084      	sub	sp, #16
     540:	4c26      	ldr	r4, [pc, #152]	; (5dc <log_skip+0xa0>)
     542:	f504 6083 	add.w	r0, r4, #1048	; 0x418
     546:	f000 fd63 	bl	1010 <nrf_atomic_flag_set>
     54a:	f204 4014 	addw	r0, r4, #1044	; 0x414
     54e:	f000 fd5f 	bl	1010 <nrf_atomic_flag_set>
     552:	68a3      	ldr	r3, [r4, #8]
     554:	9303      	str	r3, [sp, #12]
     556:	b2db      	uxtb	r3, r3
     558:	3303      	adds	r3, #3
     55a:	eb04 0083 	add.w	r0, r4, r3, lsl #2
     55e:	e004      	b.n	56a <log_skip+0x2e>
     560:	f89d 000c 	ldrb.w	r0, [sp, #12]
     564:	3003      	adds	r0, #3
     566:	eb04 0080 	add.w	r0, r4, r0, lsl #2
     56a:	a903      	add	r1, sp, #12
     56c:	f7ff ffc6 	bl	4fc <invalid_packets_omit>
     570:	2800      	cmp	r0, #0
     572:	d1f5      	bne.n	560 <log_skip+0x24>
     574:	9b03      	ldr	r3, [sp, #12]
     576:	4919      	ldr	r1, [pc, #100]	; (5dc <log_skip+0xa0>)
     578:	b2da      	uxtb	r2, r3
     57a:	eb01 0282 	add.w	r2, r1, r2, lsl #2
     57e:	68d2      	ldr	r2, [r2, #12]
     580:	9200      	str	r2, [sp, #0]
     582:	1c98      	adds	r0, r3, #2
     584:	3301      	adds	r3, #1
     586:	b2db      	uxtb	r3, r3
     588:	eb01 0183 	add.w	r1, r1, r3, lsl #2
     58c:	68cb      	ldr	r3, [r1, #12]
     58e:	9301      	str	r3, [sp, #4]
     590:	9003      	str	r0, [sp, #12]
     592:	f002 0303 	and.w	r3, r2, #3
     596:	2b01      	cmp	r3, #1
     598:	d00c      	beq.n	5b4 <log_skip+0x78>
     59a:	2b02      	cmp	r3, #2
     59c:	d113      	bne.n	5c6 <log_skip+0x8a>
     59e:	f8bd 4006 	ldrh.w	r4, [sp, #6]
     5a2:	f8bd 3002 	ldrh.w	r3, [sp, #2]
     5a6:	f3c3 1389 	ubfx	r3, r3, #6, #10
     5aa:	3303      	adds	r3, #3
     5ac:	eb00 0393 	add.w	r3, r0, r3, lsr #2
     5b0:	9303      	str	r3, [sp, #12]
     5b2:	e009      	b.n	5c8 <log_skip+0x8c>
     5b4:	f8bd 4006 	ldrh.w	r4, [sp, #6]
     5b8:	f8bd 3000 	ldrh.w	r3, [sp]
     5bc:	f3c3 1383 	ubfx	r3, r3, #6, #4
     5c0:	4403      	add	r3, r0
     5c2:	9303      	str	r3, [sp, #12]
     5c4:	e000      	b.n	5c8 <log_skip+0x8c>
     5c6:	2400      	movs	r4, #0
     5c8:	4805      	ldr	r0, [pc, #20]	; (5e0 <log_skip+0xa4>)
     5ca:	f000 fd26 	bl	101a <nrf_atomic_flag_clear_fetch>
     5ce:	b110      	cbz	r0, 5d6 <log_skip+0x9a>
     5d0:	4b02      	ldr	r3, [pc, #8]	; (5dc <log_skip+0xa0>)
     5d2:	9a03      	ldr	r2, [sp, #12]
     5d4:	609a      	str	r2, [r3, #8]
     5d6:	4620      	mov	r0, r4
     5d8:	b004      	add	sp, #16
     5da:	bd10      	pop	{r4, pc}
     5dc:	20000160 	.word	0x20000160
     5e0:	20000574 	.word	0x20000574

000005e4 <nrf_log_init>:
     5e4:	b510      	push	{r4, lr}
     5e6:	4b07      	ldr	r3, [pc, #28]	; (604 <nrf_log_init+0x20>)
     5e8:	2200      	movs	r2, #0
     5ea:	701a      	strb	r2, [r3, #0]
     5ec:	4806      	ldr	r0, [pc, #24]	; (608 <nrf_log_init+0x24>)
     5ee:	f000 ffeb 	bl	15c8 <nrf_memobj_pool_init>
     5f2:	4604      	mov	r4, r0
     5f4:	b108      	cbz	r0, 5fa <nrf_log_init+0x16>
     5f6:	4620      	mov	r0, r4
     5f8:	bd10      	pop	{r4, pc}
     5fa:	4804      	ldr	r0, [pc, #16]	; (60c <nrf_log_init+0x28>)
     5fc:	f001 f861 	bl	16c2 <nrf_ringbuf_init>
     600:	e7f9      	b.n	5f6 <nrf_log_init+0x12>
     602:	bf00      	nop
     604:	20000160 	.word	0x20000160
     608:	000032c4 	.word	0x000032c4
     60c:	00002fe8 	.word	0x00002fe8

00000610 <nrf_log_module_name_get>:
     610:	b1a1      	cbz	r1, 63c <nrf_log_module_name_get+0x2c>
     612:	4b0c      	ldr	r3, [pc, #48]	; (644 <nrf_log_module_name_get+0x34>)
     614:	4a0c      	ldr	r2, [pc, #48]	; (648 <nrf_log_module_name_get+0x38>)
     616:	1a9b      	subs	r3, r3, r2
     618:	ea4f 0cd3 	mov.w	ip, r3, lsr #3
     61c:	2b07      	cmp	r3, #7
     61e:	d90a      	bls.n	636 <nrf_log_module_name_get+0x26>
     620:	2300      	movs	r3, #0
     622:	490a      	ldr	r1, [pc, #40]	; (64c <nrf_log_module_name_get+0x3c>)
     624:	f831 2023 	ldrh.w	r2, [r1, r3, lsl #2]
     628:	4282      	cmp	r2, r0
     62a:	d006      	beq.n	63a <nrf_log_module_name_get+0x2a>
     62c:	3301      	adds	r3, #1
     62e:	4563      	cmp	r3, ip
     630:	d3f8      	bcc.n	624 <nrf_log_module_name_get+0x14>
     632:	2000      	movs	r0, #0
     634:	4770      	bx	lr
     636:	2000      	movs	r0, #0
     638:	4770      	bx	lr
     63a:	4618      	mov	r0, r3
     63c:	4b02      	ldr	r3, [pc, #8]	; (648 <nrf_log_module_name_get+0x38>)
     63e:	f853 0030 	ldr.w	r0, [r3, r0, lsl #3]
     642:	4770      	bx	lr
     644:	000032b4 	.word	0x000032b4
     648:	0000328c 	.word	0x0000328c
     64c:	2000002c 	.word	0x2000002c

00000650 <nrf_log_color_id_get>:
     650:	4b09      	ldr	r3, [pc, #36]	; (678 <nrf_log_color_id_get+0x28>)
     652:	eb03 03c0 	add.w	r3, r3, r0, lsl #3
     656:	3901      	subs	r1, #1
     658:	2903      	cmp	r1, #3
     65a:	d809      	bhi.n	670 <nrf_log_color_id_get+0x20>
     65c:	e8df f001 	tbb	[pc, r1]
     660:	0604020a 	.word	0x0604020a
     664:	2004      	movs	r0, #4
     666:	4770      	bx	lr
     668:	7918      	ldrb	r0, [r3, #4]
     66a:	4770      	bx	lr
     66c:	7958      	ldrb	r0, [r3, #5]
     66e:	4770      	bx	lr
     670:	2000      	movs	r0, #0
     672:	4770      	bx	lr
     674:	2002      	movs	r0, #2
     676:	4770      	bx	lr
     678:	0000328c 	.word	0x0000328c

0000067c <buffer_is_empty>:
     67c:	4b03      	ldr	r3, [pc, #12]	; (68c <buffer_is_empty+0x10>)
     67e:	6898      	ldr	r0, [r3, #8]
     680:	685b      	ldr	r3, [r3, #4]
     682:	4298      	cmp	r0, r3
     684:	bf14      	ite	ne
     686:	2000      	movne	r0, #0
     688:	2001      	moveq	r0, #1
     68a:	4770      	bx	lr
     68c:	20000160 	.word	0x20000160

00000690 <nrf_log_frontend_dequeue>:
     690:	e92d 43f0 	stmdb	sp!, {r4, r5, r6, r7, r8, r9, lr}
     694:	b085      	sub	sp, #20
     696:	f7ff fff1 	bl	67c <buffer_is_empty>
     69a:	2800      	cmp	r0, #0
     69c:	f040 810a 	bne.w	8b4 <nrf_log_frontend_dequeue+0x224>
     6a0:	4605      	mov	r5, r0
     6a2:	4885      	ldr	r0, [pc, #532]	; (8b8 <nrf_log_frontend_dequeue+0x228>)
     6a4:	2300      	movs	r3, #0
     6a6:	f8c0 3418 	str.w	r3, [r0, #1048]	; 0x418
     6aa:	f3bf 8f4f 	dsb	sy
     6ae:	6883      	ldr	r3, [r0, #8]
     6b0:	9303      	str	r3, [sp, #12]
     6b2:	b2db      	uxtb	r3, r3
     6b4:	3303      	adds	r3, #3
     6b6:	eb00 0083 	add.w	r0, r0, r3, lsl #2
     6ba:	4c7f      	ldr	r4, [pc, #508]	; (8b8 <nrf_log_frontend_dequeue+0x228>)
     6bc:	e038      	b.n	730 <nrf_log_frontend_dequeue+0xa0>
     6be:	9b03      	ldr	r3, [sp, #12]
     6c0:	497d      	ldr	r1, [pc, #500]	; (8b8 <nrf_log_frontend_dequeue+0x228>)
     6c2:	b2da      	uxtb	r2, r3
     6c4:	eb01 0282 	add.w	r2, r1, r2, lsl #2
     6c8:	68d2      	ldr	r2, [r2, #12]
     6ca:	9200      	str	r2, [sp, #0]
     6cc:	1c9c      	adds	r4, r3, #2
     6ce:	3301      	adds	r3, #1
     6d0:	b2db      	uxtb	r3, r3
     6d2:	eb01 0183 	add.w	r1, r1, r3, lsl #2
     6d6:	68cb      	ldr	r3, [r1, #12]
     6d8:	9301      	str	r3, [sp, #4]
     6da:	9403      	str	r4, [sp, #12]
     6dc:	f002 0203 	and.w	r2, r2, #3
     6e0:	2a02      	cmp	r2, #2
     6e2:	d035      	beq.n	750 <nrf_log_frontend_dequeue+0xc0>
     6e4:	2a01      	cmp	r2, #1
     6e6:	f000 8096 	beq.w	816 <nrf_log_frontend_dequeue+0x186>
     6ea:	4b73      	ldr	r3, [pc, #460]	; (8b8 <nrf_log_frontend_dequeue+0x228>)
     6ec:	f8d3 4410 	ldr.w	r4, [r3, #1040]	; 0x410
     6f0:	b13c      	cbz	r4, 702 <nrf_log_frontend_dequeue+0x72>
     6f2:	6823      	ldr	r3, [r4, #0]
     6f4:	689b      	ldr	r3, [r3, #8]
     6f6:	4620      	mov	r0, r4
     6f8:	4798      	blx	r3
     6fa:	68e3      	ldr	r3, [r4, #12]
     6fc:	681c      	ldr	r4, [r3, #0]
     6fe:	2c00      	cmp	r4, #0
     700:	d1f7      	bne.n	6f2 <nrf_log_frontend_dequeue+0x62>
     702:	486e      	ldr	r0, [pc, #440]	; (8bc <nrf_log_frontend_dequeue+0x22c>)
     704:	4b6e      	ldr	r3, [pc, #440]	; (8c0 <nrf_log_frontend_dequeue+0x230>)
     706:	1ac0      	subs	r0, r0, r3
     708:	08c0      	lsrs	r0, r0, #3
     70a:	0400      	lsls	r0, r0, #16
     70c:	496d      	ldr	r1, [pc, #436]	; (8c4 <nrf_log_frontend_dequeue+0x234>)
     70e:	f040 0002 	orr.w	r0, r0, #2
     712:	f000 f8db 	bl	8cc <nrf_log_frontend_std_0>
     716:	f7ff ffb1 	bl	67c <buffer_is_empty>
     71a:	f080 0501 	eor.w	r5, r0, #1
     71e:	b2ed      	uxtb	r5, r5
     720:	4628      	mov	r0, r5
     722:	b005      	add	sp, #20
     724:	e8bd 83f0 	ldmia.w	sp!, {r4, r5, r6, r7, r8, r9, pc}
     728:	b2c0      	uxtb	r0, r0
     72a:	3003      	adds	r0, #3
     72c:	eb04 0080 	add.w	r0, r4, r0, lsl #2
     730:	a903      	add	r1, sp, #12
     732:	f7ff fee3 	bl	4fc <invalid_packets_omit>
     736:	2800      	cmp	r0, #0
     738:	d0c1      	beq.n	6be <nrf_log_frontend_dequeue+0x2e>
     73a:	f8d4 3418 	ldr.w	r3, [r4, #1048]	; 0x418
     73e:	2b00      	cmp	r3, #0
     740:	d1bd      	bne.n	6be <nrf_log_frontend_dequeue+0x2e>
     742:	6863      	ldr	r3, [r4, #4]
     744:	9803      	ldr	r0, [sp, #12]
     746:	4283      	cmp	r3, r0
     748:	d8ee      	bhi.n	728 <nrf_log_frontend_dequeue+0x98>
     74a:	4a5b      	ldr	r2, [pc, #364]	; (8b8 <nrf_log_frontend_dequeue+0x228>)
     74c:	6093      	str	r3, [r2, #8]
     74e:	e7e7      	b.n	720 <nrf_log_frontend_dequeue+0x90>
     750:	f8bd 3002 	ldrh.w	r3, [sp, #2]
     754:	f3c3 1789 	ubfx	r7, r3, #6, #10
     758:	463e      	mov	r6, r7
     75a:	2f50      	cmp	r7, #80	; 0x50
     75c:	bf28      	it	cs
     75e:	2650      	movcs	r6, #80	; 0x50
     760:	f366 138f 	bfi	r3, r6, #6, #10
     764:	f8ad 3002 	strh.w	r3, [sp, #2]
     768:	f106 0108 	add.w	r1, r6, #8
     76c:	4856      	ldr	r0, [pc, #344]	; (8c8 <nrf_log_frontend_dequeue+0x238>)
     76e:	f000 ff4b 	bl	1608 <nrf_memobj_alloc>
     772:	4605      	mov	r5, r0
     774:	2800      	cmp	r0, #0
     776:	d0b8      	beq.n	6ea <nrf_log_frontend_dequeue+0x5a>
     778:	f000 ff79 	bl	166e <nrf_memobj_get>
     77c:	2300      	movs	r3, #0
     77e:	2208      	movs	r2, #8
     780:	4669      	mov	r1, sp
     782:	4628      	mov	r0, r5
     784:	f000 ff87 	bl	1696 <nrf_memobj_write>
     788:	43e3      	mvns	r3, r4
     78a:	b2db      	uxtb	r3, r3
     78c:	3301      	adds	r3, #1
     78e:	009a      	lsls	r2, r3, #2
     790:	ebb6 0f83 	cmp.w	r6, r3, lsl #2
     794:	d934      	bls.n	800 <nrf_log_frontend_dequeue+0x170>
     796:	1ab6      	subs	r6, r6, r2
     798:	fa5f f886 	uxtb.w	r8, r6
     79c:	b2d6      	uxtb	r6, r2
     79e:	f8df 9118 	ldr.w	r9, [pc, #280]	; 8b8 <nrf_log_frontend_dequeue+0x228>
     7a2:	b2e1      	uxtb	r1, r4
     7a4:	3103      	adds	r1, #3
     7a6:	2308      	movs	r3, #8
     7a8:	4632      	mov	r2, r6
     7aa:	eb09 0181 	add.w	r1, r9, r1, lsl #2
     7ae:	4628      	mov	r0, r5
     7b0:	f000 ff71 	bl	1696 <nrf_memobj_write>
     7b4:	f106 0308 	add.w	r3, r6, #8
     7b8:	4642      	mov	r2, r8
     7ba:	f109 010c 	add.w	r1, r9, #12
     7be:	4628      	mov	r0, r5
     7c0:	f000 ff69 	bl	1696 <nrf_memobj_write>
     7c4:	3703      	adds	r7, #3
     7c6:	eb04 0497 	add.w	r4, r4, r7, lsr #2
     7ca:	9403      	str	r4, [sp, #12]
     7cc:	4b3a      	ldr	r3, [pc, #232]	; (8b8 <nrf_log_frontend_dequeue+0x228>)
     7ce:	f8d3 4410 	ldr.w	r4, [r3, #1040]	; 0x410
     7d2:	f8d3 3418 	ldr.w	r3, [r3, #1048]	; 0x418
     7d6:	2b00      	cmp	r3, #0
     7d8:	d15a      	bne.n	890 <nrf_log_frontend_dequeue+0x200>
     7da:	2c00      	cmp	r4, #0
     7dc:	d160      	bne.n	8a0 <nrf_log_frontend_dequeue+0x210>
     7de:	4628      	mov	r0, r5
     7e0:	f000 ff4b 	bl	167a <nrf_memobj_put>
     7e4:	2000      	movs	r0, #0
     7e6:	f000 fbd5 	bl	f94 <app_util_critical_region_enter>
     7ea:	4b33      	ldr	r3, [pc, #204]	; (8b8 <nrf_log_frontend_dequeue+0x228>)
     7ec:	f8d3 3418 	ldr.w	r3, [r3, #1048]	; 0x418
     7f0:	b913      	cbnz	r3, 7f8 <nrf_log_frontend_dequeue+0x168>
     7f2:	4b31      	ldr	r3, [pc, #196]	; (8b8 <nrf_log_frontend_dequeue+0x228>)
     7f4:	9a03      	ldr	r2, [sp, #12]
     7f6:	609a      	str	r2, [r3, #8]
     7f8:	2000      	movs	r0, #0
     7fa:	f000 fbcf 	bl	f9c <app_util_critical_region_exit>
     7fe:	e78a      	b.n	716 <nrf_log_frontend_dequeue+0x86>
     800:	b2e1      	uxtb	r1, r4
     802:	3103      	adds	r1, #3
     804:	2308      	movs	r3, #8
     806:	4632      	mov	r2, r6
     808:	482b      	ldr	r0, [pc, #172]	; (8b8 <nrf_log_frontend_dequeue+0x228>)
     80a:	eb00 0181 	add.w	r1, r0, r1, lsl #2
     80e:	4628      	mov	r0, r5
     810:	f000 ff41 	bl	1696 <nrf_memobj_write>
     814:	e7d6      	b.n	7c4 <nrf_log_frontend_dequeue+0x134>
     816:	f8bd 2000 	ldrh.w	r2, [sp]
     81a:	f3c2 1383 	ubfx	r3, r2, #6, #4
     81e:	2b06      	cmp	r3, #6
     820:	bf28      	it	cs
     822:	2306      	movcs	r3, #6
     824:	f363 1289 	bfi	r2, r3, #6, #4
     828:	f8ad 2000 	strh.w	r2, [sp]
     82c:	3302      	adds	r3, #2
     82e:	f003 010f 	and.w	r1, r3, #15
     832:	0089      	lsls	r1, r1, #2
     834:	4824      	ldr	r0, [pc, #144]	; (8c8 <nrf_log_frontend_dequeue+0x238>)
     836:	f000 fee7 	bl	1608 <nrf_memobj_alloc>
     83a:	4605      	mov	r5, r0
     83c:	2800      	cmp	r0, #0
     83e:	f43f af54 	beq.w	6ea <nrf_log_frontend_dequeue+0x5a>
     842:	f000 ff14 	bl	166e <nrf_memobj_get>
     846:	2300      	movs	r3, #0
     848:	2208      	movs	r2, #8
     84a:	4669      	mov	r1, sp
     84c:	4628      	mov	r0, r5
     84e:	f000 ff22 	bl	1696 <nrf_memobj_write>
     852:	f8bd 3000 	ldrh.w	r3, [sp]
     856:	f413 7f70 	tst.w	r3, #960	; 0x3c0
     85a:	d0b7      	beq.n	7cc <nrf_log_frontend_dequeue+0x13c>
     85c:	2600      	movs	r6, #0
     85e:	2408      	movs	r4, #8
     860:	f8df 8054 	ldr.w	r8, [pc, #84]	; 8b8 <nrf_log_frontend_dequeue+0x228>
     864:	2704      	movs	r7, #4
     866:	9b03      	ldr	r3, [sp, #12]
     868:	1c5a      	adds	r2, r3, #1
     86a:	9203      	str	r2, [sp, #12]
     86c:	b2db      	uxtb	r3, r3
     86e:	1cd9      	adds	r1, r3, #3
     870:	4623      	mov	r3, r4
     872:	463a      	mov	r2, r7
     874:	eb08 0181 	add.w	r1, r8, r1, lsl #2
     878:	4628      	mov	r0, r5
     87a:	f000 ff0c 	bl	1696 <nrf_memobj_write>
     87e:	3404      	adds	r4, #4
     880:	3601      	adds	r6, #1
     882:	f8bd 3000 	ldrh.w	r3, [sp]
     886:	f3c3 1383 	ubfx	r3, r3, #6, #4
     88a:	42b3      	cmp	r3, r6
     88c:	d8eb      	bhi.n	866 <nrf_log_frontend_dequeue+0x1d6>
     88e:	e79d      	b.n	7cc <nrf_log_frontend_dequeue+0x13c>
     890:	4628      	mov	r0, r5
     892:	f000 fef2 	bl	167a <nrf_memobj_put>
     896:	e73e      	b.n	716 <nrf_log_frontend_dequeue+0x86>
     898:	68e3      	ldr	r3, [r4, #12]
     89a:	681c      	ldr	r4, [r3, #0]
     89c:	2c00      	cmp	r4, #0
     89e:	d09e      	beq.n	7de <nrf_log_frontend_dequeue+0x14e>
     8a0:	68e3      	ldr	r3, [r4, #12]
     8a2:	795b      	ldrb	r3, [r3, #5]
     8a4:	2b00      	cmp	r3, #0
     8a6:	d0f7      	beq.n	898 <nrf_log_frontend_dequeue+0x208>
     8a8:	6823      	ldr	r3, [r4, #0]
     8aa:	681b      	ldr	r3, [r3, #0]
     8ac:	4629      	mov	r1, r5
     8ae:	4620      	mov	r0, r4
     8b0:	4798      	blx	r3
     8b2:	e7f1      	b.n	898 <nrf_log_frontend_dequeue+0x208>
     8b4:	2500      	movs	r5, #0
     8b6:	e733      	b.n	720 <nrf_log_frontend_dequeue+0x90>
     8b8:	20000160 	.word	0x20000160
     8bc:	000032ac 	.word	0x000032ac
     8c0:	0000328c 	.word	0x0000328c
     8c4:	00002fd0 	.word	0x00002fd0
     8c8:	000032c4 	.word	0x000032c4

000008cc <nrf_log_frontend_std_0>:
     8cc:	e92d 43f8 	stmdb	sp!, {r3, r4, r5, r6, r7, r8, r9, lr}
     8d0:	4680      	mov	r8, r0
     8d2:	4689      	mov	r9, r1
     8d4:	2000      	movs	r0, #0
     8d6:	f000 fb5d 	bl	f94 <app_util_critical_region_enter>
     8da:	4b2d      	ldr	r3, [pc, #180]	; (990 <nrf_log_frontend_std_0+0xc4>)
     8dc:	685e      	ldr	r6, [r3, #4]
     8de:	689b      	ldr	r3, [r3, #8]
     8e0:	f503 7380 	add.w	r3, r3, #256	; 0x100
     8e4:	1b9b      	subs	r3, r3, r6
     8e6:	2b01      	cmp	r3, #1
     8e8:	d814      	bhi.n	914 <nrf_log_frontend_std_0+0x48>
     8ea:	4c29      	ldr	r4, [pc, #164]	; (990 <nrf_log_frontend_std_0+0xc4>)
     8ec:	f204 451c 	addw	r5, r4, #1052	; 0x41c
     8f0:	2701      	movs	r7, #1
     8f2:	4639      	mov	r1, r7
     8f4:	4628      	mov	r0, r5
     8f6:	f000 fb75 	bl	fe4 <nrf_atomic_u32_add>
     8fa:	f7ff fe1f 	bl	53c <log_skip>
     8fe:	4601      	mov	r1, r0
     900:	4628      	mov	r0, r5
     902:	f000 fb6f 	bl	fe4 <nrf_atomic_u32_add>
     906:	68a3      	ldr	r3, [r4, #8]
     908:	f503 7380 	add.w	r3, r3, #256	; 0x100
     90c:	6862      	ldr	r2, [r4, #4]
     90e:	1a9b      	subs	r3, r3, r2
     910:	2b01      	cmp	r3, #1
     912:	d9ee      	bls.n	8f2 <nrf_log_frontend_std_0+0x26>
     914:	4c1e      	ldr	r4, [pc, #120]	; (990 <nrf_log_frontend_std_0+0xc4>)
     916:	6863      	ldr	r3, [r4, #4]
     918:	b2da      	uxtb	r2, r3
     91a:	3203      	adds	r2, #3
     91c:	2105      	movs	r1, #5
     91e:	f844 1022 	str.w	r1, [r4, r2, lsl #2]
     922:	3302      	adds	r3, #2
     924:	6063      	str	r3, [r4, #4]
     926:	2000      	movs	r0, #0
     928:	f000 fb38 	bl	f9c <app_util_critical_region_exit>
     92c:	2100      	movs	r1, #0
     92e:	f204 401c 	addw	r0, r4, #1052	; 0x41c
     932:	f000 fb37 	bl	fa4 <nrf_atomic_u32_fetch_store>
     936:	f380 0310 	usat	r3, #16, r0
     93a:	1c72      	adds	r2, r6, #1
     93c:	b2d2      	uxtb	r2, r2
     93e:	eb04 0282 	add.w	r2, r4, r2, lsl #2
     942:	041b      	lsls	r3, r3, #16
     944:	ea43 4318 	orr.w	r3, r3, r8, lsr #16
     948:	60d3      	str	r3, [r2, #12]
     94a:	b2f6      	uxtb	r6, r6
     94c:	3603      	adds	r6, #3
     94e:	f814 3026 	ldrb.w	r3, [r4, r6, lsl #2]
     952:	f368 03c5 	bfi	r3, r8, #3, #3
     956:	f804 3026 	strb.w	r3, [r4, r6, lsl #2]
     95a:	f834 3026 	ldrh.w	r3, [r4, r6, lsl #2]
     95e:	f36f 1389 	bfc	r3, #6, #4
     962:	f824 3026 	strh.w	r3, [r4, r6, lsl #2]
     966:	f854 3026 	ldr.w	r3, [r4, r6, lsl #2]
     96a:	f369 239f 	bfi	r3, r9, #10, #22
     96e:	f844 3026 	str.w	r3, [r4, r6, lsl #2]
     972:	2201      	movs	r2, #1
     974:	f362 0301 	bfi	r3, r2, #0, #2
     978:	f36f 0382 	bfc	r3, #2, #1
     97c:	f804 3026 	strb.w	r3, [r4, r6, lsl #2]
     980:	7823      	ldrb	r3, [r4, #0]
     982:	b11b      	cbz	r3, 98c <nrf_log_frontend_std_0+0xc0>
     984:	f7ff fe84 	bl	690 <nrf_log_frontend_dequeue>
     988:	2800      	cmp	r0, #0
     98a:	d1fb      	bne.n	984 <nrf_log_frontend_std_0+0xb8>
     98c:	e8bd 83f8 	ldmia.w	sp!, {r3, r4, r5, r6, r7, r8, r9, pc}
     990:	20000160 	.word	0x20000160

00000994 <nrf_log_frontend_std_1>:
     994:	e92d 47f0 	stmdb	sp!, {r4, r5, r6, r7, r8, r9, sl, lr}
     998:	4680      	mov	r8, r0
     99a:	4689      	mov	r9, r1
     99c:	4692      	mov	sl, r2
     99e:	2000      	movs	r0, #0
     9a0:	f000 faf8 	bl	f94 <app_util_critical_region_enter>
     9a4:	4b30      	ldr	r3, [pc, #192]	; (a68 <nrf_log_frontend_std_1+0xd4>)
     9a6:	685e      	ldr	r6, [r3, #4]
     9a8:	689b      	ldr	r3, [r3, #8]
     9aa:	f503 7380 	add.w	r3, r3, #256	; 0x100
     9ae:	1b9b      	subs	r3, r3, r6
     9b0:	2b02      	cmp	r3, #2
     9b2:	d814      	bhi.n	9de <nrf_log_frontend_std_1+0x4a>
     9b4:	4c2c      	ldr	r4, [pc, #176]	; (a68 <nrf_log_frontend_std_1+0xd4>)
     9b6:	f204 451c 	addw	r5, r4, #1052	; 0x41c
     9ba:	2701      	movs	r7, #1
     9bc:	4639      	mov	r1, r7
     9be:	4628      	mov	r0, r5
     9c0:	f000 fb10 	bl	fe4 <nrf_atomic_u32_add>
     9c4:	f7ff fdba 	bl	53c <log_skip>
     9c8:	4601      	mov	r1, r0
     9ca:	4628      	mov	r0, r5
     9cc:	f000 fb0a 	bl	fe4 <nrf_atomic_u32_add>
     9d0:	68a3      	ldr	r3, [r4, #8]
     9d2:	f503 7380 	add.w	r3, r3, #256	; 0x100
     9d6:	6862      	ldr	r2, [r4, #4]
     9d8:	1a9b      	subs	r3, r3, r2
     9da:	2b02      	cmp	r3, #2
     9dc:	d9ee      	bls.n	9bc <nrf_log_frontend_std_1+0x28>
     9de:	4c22      	ldr	r4, [pc, #136]	; (a68 <nrf_log_frontend_std_1+0xd4>)
     9e0:	6863      	ldr	r3, [r4, #4]
     9e2:	b2da      	uxtb	r2, r3
     9e4:	3203      	adds	r2, #3
     9e6:	2145      	movs	r1, #69	; 0x45
     9e8:	f844 1022 	str.w	r1, [r4, r2, lsl #2]
     9ec:	3303      	adds	r3, #3
     9ee:	6063      	str	r3, [r4, #4]
     9f0:	2000      	movs	r0, #0
     9f2:	f000 fad3 	bl	f9c <app_util_critical_region_exit>
     9f6:	1cb3      	adds	r3, r6, #2
     9f8:	b2db      	uxtb	r3, r3
     9fa:	eb04 0383 	add.w	r3, r4, r3, lsl #2
     9fe:	f8c3 a00c 	str.w	sl, [r3, #12]
     a02:	2100      	movs	r1, #0
     a04:	f204 401c 	addw	r0, r4, #1052	; 0x41c
     a08:	f000 facc 	bl	fa4 <nrf_atomic_u32_fetch_store>
     a0c:	f380 0310 	usat	r3, #16, r0
     a10:	1c72      	adds	r2, r6, #1
     a12:	b2d2      	uxtb	r2, r2
     a14:	eb04 0282 	add.w	r2, r4, r2, lsl #2
     a18:	041b      	lsls	r3, r3, #16
     a1a:	ea43 4318 	orr.w	r3, r3, r8, lsr #16
     a1e:	60d3      	str	r3, [r2, #12]
     a20:	b2f6      	uxtb	r6, r6
     a22:	3603      	adds	r6, #3
     a24:	f814 3026 	ldrb.w	r3, [r4, r6, lsl #2]
     a28:	f368 03c5 	bfi	r3, r8, #3, #3
     a2c:	f804 3026 	strb.w	r3, [r4, r6, lsl #2]
     a30:	f834 3026 	ldrh.w	r3, [r4, r6, lsl #2]
     a34:	2201      	movs	r2, #1
     a36:	f362 1389 	bfi	r3, r2, #6, #4
     a3a:	f824 3026 	strh.w	r3, [r4, r6, lsl #2]
     a3e:	f854 3026 	ldr.w	r3, [r4, r6, lsl #2]
     a42:	f369 239f 	bfi	r3, r9, #10, #22
     a46:	f844 3026 	str.w	r3, [r4, r6, lsl #2]
     a4a:	f362 0301 	bfi	r3, r2, #0, #2
     a4e:	f36f 0382 	bfc	r3, #2, #1
     a52:	f804 3026 	strb.w	r3, [r4, r6, lsl #2]
     a56:	7823      	ldrb	r3, [r4, #0]
     a58:	b11b      	cbz	r3, a62 <nrf_log_frontend_std_1+0xce>
     a5a:	f7ff fe19 	bl	690 <nrf_log_frontend_dequeue>
     a5e:	2800      	cmp	r0, #0
     a60:	d1fb      	bne.n	a5a <nrf_log_frontend_std_1+0xc6>
     a62:	e8bd 87f0 	ldmia.w	sp!, {r4, r5, r6, r7, r8, r9, sl, pc}
     a66:	bf00      	nop
     a68:	20000160 	.word	0x20000160

00000a6c <nrf_log_frontend_std_6>:
     a6c:	e92d 43f0 	stmdb	sp!, {r4, r5, r6, r7, r8, r9, lr}
     a70:	b087      	sub	sp, #28
     a72:	4680      	mov	r8, r0
     a74:	4689      	mov	r9, r1
     a76:	9200      	str	r2, [sp, #0]
     a78:	9301      	str	r3, [sp, #4]
     a7a:	9b0e      	ldr	r3, [sp, #56]	; 0x38
     a7c:	9302      	str	r3, [sp, #8]
     a7e:	9b0f      	ldr	r3, [sp, #60]	; 0x3c
     a80:	9303      	str	r3, [sp, #12]
     a82:	9b10      	ldr	r3, [sp, #64]	; 0x40
     a84:	9304      	str	r3, [sp, #16]
     a86:	9b11      	ldr	r3, [sp, #68]	; 0x44
     a88:	9305      	str	r3, [sp, #20]
     a8a:	2000      	movs	r0, #0
     a8c:	f000 fa82 	bl	f94 <app_util_critical_region_enter>
     a90:	4b36      	ldr	r3, [pc, #216]	; (b6c <nrf_log_frontend_std_6+0x100>)
     a92:	685e      	ldr	r6, [r3, #4]
     a94:	689b      	ldr	r3, [r3, #8]
     a96:	f503 7380 	add.w	r3, r3, #256	; 0x100
     a9a:	1b9b      	subs	r3, r3, r6
     a9c:	2b07      	cmp	r3, #7
     a9e:	d814      	bhi.n	aca <nrf_log_frontend_std_6+0x5e>
     aa0:	4c32      	ldr	r4, [pc, #200]	; (b6c <nrf_log_frontend_std_6+0x100>)
     aa2:	f204 451c 	addw	r5, r4, #1052	; 0x41c
     aa6:	2701      	movs	r7, #1
     aa8:	4639      	mov	r1, r7
     aaa:	4628      	mov	r0, r5
     aac:	f000 fa9a 	bl	fe4 <nrf_atomic_u32_add>
     ab0:	f7ff fd44 	bl	53c <log_skip>
     ab4:	4601      	mov	r1, r0
     ab6:	4628      	mov	r0, r5
     ab8:	f000 fa94 	bl	fe4 <nrf_atomic_u32_add>
     abc:	68a3      	ldr	r3, [r4, #8]
     abe:	f503 7380 	add.w	r3, r3, #256	; 0x100
     ac2:	6862      	ldr	r2, [r4, #4]
     ac4:	1a9b      	subs	r3, r3, r2
     ac6:	2b07      	cmp	r3, #7
     ac8:	d9ee      	bls.n	aa8 <nrf_log_frontend_std_6+0x3c>
     aca:	4a28      	ldr	r2, [pc, #160]	; (b6c <nrf_log_frontend_std_6+0x100>)
     acc:	6853      	ldr	r3, [r2, #4]
     ace:	b2d9      	uxtb	r1, r3
     ad0:	3103      	adds	r1, #3
     ad2:	f240 1085 	movw	r0, #389	; 0x185
     ad6:	f842 0021 	str.w	r0, [r2, r1, lsl #2]
     ada:	3308      	adds	r3, #8
     adc:	6053      	str	r3, [r2, #4]
     ade:	2000      	movs	r0, #0
     ae0:	f000 fa5c 	bl	f9c <app_util_critical_region_exit>
     ae4:	1cb2      	adds	r2, r6, #2
     ae6:	4669      	mov	r1, sp
     ae8:	f106 0508 	add.w	r5, r6, #8
     aec:	4c1f      	ldr	r4, [pc, #124]	; (b6c <nrf_log_frontend_std_6+0x100>)
     aee:	4613      	mov	r3, r2
     af0:	3201      	adds	r2, #1
     af2:	f851 0b04 	ldr.w	r0, [r1], #4
     af6:	b2db      	uxtb	r3, r3
     af8:	eb04 0383 	add.w	r3, r4, r3, lsl #2
     afc:	60d8      	str	r0, [r3, #12]
     afe:	42aa      	cmp	r2, r5
     b00:	d1f5      	bne.n	aee <nrf_log_frontend_std_6+0x82>
     b02:	4c1a      	ldr	r4, [pc, #104]	; (b6c <nrf_log_frontend_std_6+0x100>)
     b04:	2100      	movs	r1, #0
     b06:	f204 401c 	addw	r0, r4, #1052	; 0x41c
     b0a:	f000 fa4b 	bl	fa4 <nrf_atomic_u32_fetch_store>
     b0e:	f380 0310 	usat	r3, #16, r0
     b12:	1c72      	adds	r2, r6, #1
     b14:	b2d2      	uxtb	r2, r2
     b16:	eb04 0282 	add.w	r2, r4, r2, lsl #2
     b1a:	041b      	lsls	r3, r3, #16
     b1c:	ea43 4318 	orr.w	r3, r3, r8, lsr #16
     b20:	60d3      	str	r3, [r2, #12]
     b22:	b2f6      	uxtb	r6, r6
     b24:	3603      	adds	r6, #3
     b26:	f814 3026 	ldrb.w	r3, [r4, r6, lsl #2]
     b2a:	f368 03c5 	bfi	r3, r8, #3, #3
     b2e:	f804 3026 	strb.w	r3, [r4, r6, lsl #2]
     b32:	f834 3026 	ldrh.w	r3, [r4, r6, lsl #2]
     b36:	2206      	movs	r2, #6
     b38:	f362 1389 	bfi	r3, r2, #6, #4
     b3c:	f824 3026 	strh.w	r3, [r4, r6, lsl #2]
     b40:	f854 3026 	ldr.w	r3, [r4, r6, lsl #2]
     b44:	f369 239f 	bfi	r3, r9, #10, #22
     b48:	f844 3026 	str.w	r3, [r4, r6, lsl #2]
     b4c:	2201      	movs	r2, #1
     b4e:	f362 0301 	bfi	r3, r2, #0, #2
     b52:	f36f 0382 	bfc	r3, #2, #1
     b56:	f804 3026 	strb.w	r3, [r4, r6, lsl #2]
     b5a:	7823      	ldrb	r3, [r4, #0]
     b5c:	b11b      	cbz	r3, b66 <nrf_log_frontend_std_6+0xfa>
     b5e:	f7ff fd97 	bl	690 <nrf_log_frontend_dequeue>
     b62:	2800      	cmp	r0, #0
     b64:	d1fb      	bne.n	b5e <nrf_log_frontend_std_6+0xf2>
     b66:	b007      	add	sp, #28
     b68:	e8bd 83f0 	ldmia.w	sp!, {r4, r5, r6, r7, r8, r9, pc}
     b6c:	20000160 	.word	0x20000160

00000b70 <nrf_log_backend_add>:
     b70:	b410      	push	{r4}
     b72:	4604      	mov	r4, r0
     b74:	4b18      	ldr	r3, [pc, #96]	; (bd8 <nrf_log_backend_add+0x68>)
     b76:	f8d3 1410 	ldr.w	r1, [r3, #1040]	; 0x410
     b7a:	2000      	movs	r0, #0
     b7c:	e009      	b.n	b92 <nrf_log_backend_add+0x22>
     b7e:	4b16      	ldr	r3, [pc, #88]	; (bd8 <nrf_log_backend_add+0x68>)
     b80:	f8c3 4410 	str.w	r4, [r3, #1040]	; 0x410
     b84:	68e3      	ldr	r3, [r4, #12]
     b86:	2200      	movs	r2, #0
     b88:	601a      	str	r2, [r3, #0]
     b8a:	e021      	b.n	bd0 <nrf_log_backend_add+0x60>
     b8c:	3001      	adds	r0, #1
     b8e:	280a      	cmp	r0, #10
     b90:	d01c      	beq.n	bcc <nrf_log_backend_add+0x5c>
     b92:	b139      	cbz	r1, ba4 <nrf_log_backend_add+0x34>
     b94:	460b      	mov	r3, r1
     b96:	68db      	ldr	r3, [r3, #12]
     b98:	791a      	ldrb	r2, [r3, #4]
     b9a:	4282      	cmp	r2, r0
     b9c:	d0f6      	beq.n	b8c <nrf_log_backend_add+0x1c>
     b9e:	681b      	ldr	r3, [r3, #0]
     ba0:	2b00      	cmp	r3, #0
     ba2:	d1f8      	bne.n	b96 <nrf_log_backend_add+0x26>
     ba4:	f1b0 3fff 	cmp.w	r0, #4294967295	; 0xffffffff
     ba8:	d012      	beq.n	bd0 <nrf_log_backend_add+0x60>
     baa:	68e3      	ldr	r3, [r4, #12]
     bac:	7118      	strb	r0, [r3, #4]
     bae:	4b0a      	ldr	r3, [pc, #40]	; (bd8 <nrf_log_backend_add+0x68>)
     bb0:	f8d3 3410 	ldr.w	r3, [r3, #1040]	; 0x410
     bb4:	2b00      	cmp	r3, #0
     bb6:	d0e2      	beq.n	b7e <nrf_log_backend_add+0xe>
     bb8:	68e2      	ldr	r2, [r4, #12]
     bba:	68db      	ldr	r3, [r3, #12]
     bbc:	681b      	ldr	r3, [r3, #0]
     bbe:	6013      	str	r3, [r2, #0]
     bc0:	4b05      	ldr	r3, [pc, #20]	; (bd8 <nrf_log_backend_add+0x68>)
     bc2:	f8d3 3410 	ldr.w	r3, [r3, #1040]	; 0x410
     bc6:	68db      	ldr	r3, [r3, #12]
     bc8:	601c      	str	r4, [r3, #0]
     bca:	e001      	b.n	bd0 <nrf_log_backend_add+0x60>
     bcc:	f04f 30ff 	mov.w	r0, #4294967295	; 0xffffffff
     bd0:	f85d 4b04 	ldr.w	r4, [sp], #4
     bd4:	4770      	bx	lr
     bd6:	bf00      	nop
     bd8:	20000160 	.word	0x20000160

00000bdc <prefix_process>:
     bdc:	b570      	push	{r4, r5, r6, lr}
     bde:	b082      	sub	sp, #8
     be0:	4604      	mov	r4, r0
     be2:	460d      	mov	r5, r1
     be4:	88c3      	ldrh	r3, [r0, #6]
     be6:	b9a3      	cbnz	r3, c12 <prefix_process+0x36>
     be8:	7a21      	ldrb	r1, [r4, #8]
     bea:	2905      	cmp	r1, #5
     bec:	d00f      	beq.n	c0e <prefix_process+0x32>
     bee:	7a63      	ldrb	r3, [r4, #9]
     bf0:	b9bb      	cbnz	r3, c22 <prefix_process+0x46>
     bf2:	7a22      	ldrb	r2, [r4, #8]
     bf4:	4b10      	ldr	r3, [pc, #64]	; (c38 <prefix_process+0x5c>)
     bf6:	f853 6022 	ldr.w	r6, [r3, r2, lsl #2]
     bfa:	2100      	movs	r1, #0
     bfc:	88a0      	ldrh	r0, [r4, #4]
     bfe:	f7ff fd07 	bl	610 <nrf_log_module_name_get>
     c02:	4603      	mov	r3, r0
     c04:	4632      	mov	r2, r6
     c06:	490d      	ldr	r1, [pc, #52]	; (c3c <prefix_process+0x60>)
     c08:	4628      	mov	r0, r5
     c0a:	f000 fa69 	bl	10e0 <nrf_fprintf>
     c0e:	b002      	add	sp, #8
     c10:	bd70      	pop	{r4, r5, r6, pc}
     c12:	4a0b      	ldr	r2, [pc, #44]	; (c40 <prefix_process+0x64>)
     c14:	9200      	str	r2, [sp, #0]
     c16:	4a0b      	ldr	r2, [pc, #44]	; (c44 <prefix_process+0x68>)
     c18:	490b      	ldr	r1, [pc, #44]	; (c48 <prefix_process+0x6c>)
     c1a:	4628      	mov	r0, r5
     c1c:	f000 fa60 	bl	10e0 <nrf_fprintf>
     c20:	e7e2      	b.n	be8 <prefix_process+0xc>
     c22:	88a0      	ldrh	r0, [r4, #4]
     c24:	f7ff fd14 	bl	650 <nrf_log_color_id_get>
     c28:	4b08      	ldr	r3, [pc, #32]	; (c4c <prefix_process+0x70>)
     c2a:	f853 2020 	ldr.w	r2, [r3, r0, lsl #2]
     c2e:	4908      	ldr	r1, [pc, #32]	; (c50 <prefix_process+0x74>)
     c30:	4628      	mov	r0, r5
     c32:	f000 fa55 	bl	10e0 <nrf_fprintf>
     c36:	e7dc      	b.n	bf2 <prefix_process+0x16>
     c38:	000030c0 	.word	0x000030c0
     c3c:	00003020 	.word	0x00003020
     c40:	00003014 	.word	0x00003014
     c44:	00002ff4 	.word	0x00002ff4
     c48:	00002ffc 	.word	0x00002ffc
     c4c:	0000309c 	.word	0x0000309c
     c50:	0000301c 	.word	0x0000301c

00000c54 <postfix_process>:
     c54:	b510      	push	{r4, lr}
     c56:	460c      	mov	r4, r1
     c58:	7a03      	ldrb	r3, [r0, #8]
     c5a:	2b05      	cmp	r3, #5
     c5c:	d00f      	beq.n	c7e <postfix_process+0x2a>
     c5e:	7a43      	ldrb	r3, [r0, #9]
     c60:	b93b      	cbnz	r3, c72 <postfix_process+0x1e>
     c62:	490a      	ldr	r1, [pc, #40]	; (c8c <postfix_process+0x38>)
     c64:	4620      	mov	r0, r4
     c66:	f000 fa3b 	bl	10e0 <nrf_fprintf>
     c6a:	4620      	mov	r0, r4
     c6c:	f000 fa2c 	bl	10c8 <nrf_fprintf_buffer_flush>
     c70:	bd10      	pop	{r4, pc}
     c72:	4a07      	ldr	r2, [pc, #28]	; (c90 <postfix_process+0x3c>)
     c74:	4907      	ldr	r1, [pc, #28]	; (c94 <postfix_process+0x40>)
     c76:	4620      	mov	r0, r4
     c78:	f000 fa32 	bl	10e0 <nrf_fprintf>
     c7c:	e7f1      	b.n	c62 <postfix_process+0xe>
     c7e:	2a00      	cmp	r2, #0
     c80:	d0f3      	beq.n	c6a <postfix_process+0x16>
     c82:	4902      	ldr	r1, [pc, #8]	; (c8c <postfix_process+0x38>)
     c84:	4620      	mov	r0, r4
     c86:	f000 fa2b 	bl	10e0 <nrf_fprintf>
     c8a:	e7ee      	b.n	c6a <postfix_process+0x16>
     c8c:	0000302c 	.word	0x0000302c
     c90:	00003014 	.word	0x00003014
     c94:	0000301c 	.word	0x0000301c

00000c98 <nrf_log_std_entry_process>:
     c98:	e92d 43f0 	stmdb	sp!, {r4, r5, r6, r7, r8, r9, lr}
     c9c:	b085      	sub	sp, #20
     c9e:	4681      	mov	r9, r0
     ca0:	460d      	mov	r5, r1
     ca2:	4690      	mov	r8, r2
     ca4:	461e      	mov	r6, r3
     ca6:	9c0c      	ldr	r4, [sp, #48]	; 0x30
     ca8:	7b27      	ldrb	r7, [r4, #12]
     caa:	2300      	movs	r3, #0
     cac:	7323      	strb	r3, [r4, #12]
     cae:	4621      	mov	r1, r4
     cb0:	4630      	mov	r0, r6
     cb2:	f7ff ff93 	bl	bdc <prefix_process>
     cb6:	f1b8 0f06 	cmp.w	r8, #6
     cba:	d809      	bhi.n	cd0 <nrf_log_std_entry_process+0x38>
     cbc:	e8df f008 	tbb	[pc, r8]
     cc0:	1e171104 	.word	0x1e171104
     cc4:	3227      	.short	0x3227
     cc6:	3f          	.byte	0x3f
     cc7:	00          	.byte	0x00
     cc8:	4649      	mov	r1, r9
     cca:	4620      	mov	r0, r4
     ccc:	f000 fa08 	bl	10e0 <nrf_fprintf>
     cd0:	2200      	movs	r2, #0
     cd2:	4621      	mov	r1, r4
     cd4:	4630      	mov	r0, r6
     cd6:	f7ff ffbd 	bl	c54 <postfix_process>
     cda:	7327      	strb	r7, [r4, #12]
     cdc:	b005      	add	sp, #20
     cde:	e8bd 83f0 	ldmia.w	sp!, {r4, r5, r6, r7, r8, r9, pc}
     ce2:	682a      	ldr	r2, [r5, #0]
     ce4:	4649      	mov	r1, r9
     ce6:	4620      	mov	r0, r4
     ce8:	f000 f9fa 	bl	10e0 <nrf_fprintf>
     cec:	e7f0      	b.n	cd0 <nrf_log_std_entry_process+0x38>
     cee:	686b      	ldr	r3, [r5, #4]
     cf0:	682a      	ldr	r2, [r5, #0]
     cf2:	4649      	mov	r1, r9
     cf4:	4620      	mov	r0, r4
     cf6:	f000 f9f3 	bl	10e0 <nrf_fprintf>
     cfa:	e7e9      	b.n	cd0 <nrf_log_std_entry_process+0x38>
     cfc:	68ab      	ldr	r3, [r5, #8]
     cfe:	9300      	str	r3, [sp, #0]
     d00:	686b      	ldr	r3, [r5, #4]
     d02:	682a      	ldr	r2, [r5, #0]
     d04:	4649      	mov	r1, r9
     d06:	4620      	mov	r0, r4
     d08:	f000 f9ea 	bl	10e0 <nrf_fprintf>
     d0c:	e7e0      	b.n	cd0 <nrf_log_std_entry_process+0x38>
     d0e:	68eb      	ldr	r3, [r5, #12]
     d10:	9301      	str	r3, [sp, #4]
     d12:	68ab      	ldr	r3, [r5, #8]
     d14:	9300      	str	r3, [sp, #0]
     d16:	686b      	ldr	r3, [r5, #4]
     d18:	682a      	ldr	r2, [r5, #0]
     d1a:	4649      	mov	r1, r9
     d1c:	4620      	mov	r0, r4
     d1e:	f000 f9df 	bl	10e0 <nrf_fprintf>
     d22:	e7d5      	b.n	cd0 <nrf_log_std_entry_process+0x38>
     d24:	692b      	ldr	r3, [r5, #16]
     d26:	9302      	str	r3, [sp, #8]
     d28:	68eb      	ldr	r3, [r5, #12]
     d2a:	9301      	str	r3, [sp, #4]
     d2c:	68ab      	ldr	r3, [r5, #8]
     d2e:	9300      	str	r3, [sp, #0]
     d30:	686b      	ldr	r3, [r5, #4]
     d32:	682a      	ldr	r2, [r5, #0]
     d34:	4649      	mov	r1, r9
     d36:	4620      	mov	r0, r4
     d38:	f000 f9d2 	bl	10e0 <nrf_fprintf>
     d3c:	e7c8      	b.n	cd0 <nrf_log_std_entry_process+0x38>
     d3e:	696b      	ldr	r3, [r5, #20]
     d40:	9303      	str	r3, [sp, #12]
     d42:	692b      	ldr	r3, [r5, #16]
     d44:	9302      	str	r3, [sp, #8]
     d46:	68eb      	ldr	r3, [r5, #12]
     d48:	9301      	str	r3, [sp, #4]
     d4a:	68ab      	ldr	r3, [r5, #8]
     d4c:	9300      	str	r3, [sp, #0]
     d4e:	686b      	ldr	r3, [r5, #4]
     d50:	682a      	ldr	r2, [r5, #0]
     d52:	4649      	mov	r1, r9
     d54:	4620      	mov	r0, r4
     d56:	f000 f9c3 	bl	10e0 <nrf_fprintf>
     d5a:	e7b9      	b.n	cd0 <nrf_log_std_entry_process+0x38>

00000d5c <nrf_log_hexdump_entry_process>:
     d5c:	e92d 4ff0 	stmdb	sp!, {r4, r5, r6, r7, r8, r9, sl, fp, lr}
     d60:	b083      	sub	sp, #12
     d62:	9201      	str	r2, [sp, #4]
     d64:	2908      	cmp	r1, #8
     d66:	d902      	bls.n	d6e <nrf_log_hexdump_entry_process+0x12>
     d68:	b003      	add	sp, #12
     d6a:	e8bd 8ff0 	ldmia.w	sp!, {r4, r5, r6, r7, r8, r9, sl, fp, pc}
     d6e:	4607      	mov	r7, r0
     d70:	460e      	mov	r6, r1
     d72:	461d      	mov	r5, r3
     d74:	f893 800c 	ldrb.w	r8, [r3, #12]
     d78:	2400      	movs	r4, #0
     d7a:	731c      	strb	r4, [r3, #12]
     d7c:	4619      	mov	r1, r3
     d7e:	4610      	mov	r0, r2
     d80:	f7ff ff2c 	bl	bdc <prefix_process>
     d84:	f8df a084 	ldr.w	sl, [pc, #132]	; e0c <nrf_log_hexdump_entry_process+0xb0>
     d88:	f8df 9084 	ldr.w	r9, [pc, #132]	; e10 <nrf_log_hexdump_entry_process+0xb4>
     d8c:	e006      	b.n	d9c <nrf_log_hexdump_entry_process+0x40>
     d8e:	4651      	mov	r1, sl
     d90:	4628      	mov	r0, r5
     d92:	f000 f9a5 	bl	10e0 <nrf_fprintf>
     d96:	3401      	adds	r4, #1
     d98:	2c08      	cmp	r4, #8
     d9a:	d007      	beq.n	dac <nrf_log_hexdump_entry_process+0x50>
     d9c:	42a6      	cmp	r6, r4
     d9e:	d9f6      	bls.n	d8e <nrf_log_hexdump_entry_process+0x32>
     da0:	5d3a      	ldrb	r2, [r7, r4]
     da2:	4649      	mov	r1, r9
     da4:	4628      	mov	r0, r5
     da6:	f000 f99b 	bl	10e0 <nrf_fprintf>
     daa:	e7f4      	b.n	d96 <nrf_log_hexdump_entry_process+0x3a>
     dac:	4916      	ldr	r1, [pc, #88]	; (e08 <nrf_log_hexdump_entry_process+0xac>)
     dae:	4628      	mov	r0, r5
     db0:	f000 f996 	bl	10e0 <nrf_fprintf>
     db4:	2400      	movs	r4, #0
     db6:	f8df b05c 	ldr.w	fp, [pc, #92]	; e14 <nrf_log_hexdump_entry_process+0xb8>
     dba:	f8df 905c 	ldr.w	r9, [pc, #92]	; e18 <nrf_log_hexdump_entry_process+0xbc>
     dbe:	f8df a05c 	ldr.w	sl, [pc, #92]	; e1c <nrf_log_hexdump_entry_process+0xc0>
     dc2:	e007      	b.n	dd4 <nrf_log_hexdump_entry_process+0x78>
     dc4:	222e      	movs	r2, #46	; 0x2e
     dc6:	4649      	mov	r1, r9
     dc8:	4628      	mov	r0, r5
     dca:	f000 f989 	bl	10e0 <nrf_fprintf>
     dce:	3401      	adds	r4, #1
     dd0:	2c08      	cmp	r4, #8
     dd2:	d010      	beq.n	df6 <nrf_log_hexdump_entry_process+0x9a>
     dd4:	42a6      	cmp	r6, r4
     dd6:	d909      	bls.n	dec <nrf_log_hexdump_entry_process+0x90>
     dd8:	5d3a      	ldrb	r2, [r7, r4]
     dda:	2a7e      	cmp	r2, #126	; 0x7e
     ddc:	d8f2      	bhi.n	dc4 <nrf_log_hexdump_entry_process+0x68>
     dde:	f81a 3002 	ldrb.w	r3, [sl, r2]
     de2:	f013 0f97 	tst.w	r3, #151	; 0x97
     de6:	bf08      	it	eq
     de8:	222e      	moveq	r2, #46	; 0x2e
     dea:	e7ec      	b.n	dc6 <nrf_log_hexdump_entry_process+0x6a>
     dec:	4659      	mov	r1, fp
     dee:	4628      	mov	r0, r5
     df0:	f000 f976 	bl	10e0 <nrf_fprintf>
     df4:	e7eb      	b.n	dce <nrf_log_hexdump_entry_process+0x72>
     df6:	2201      	movs	r2, #1
     df8:	4629      	mov	r1, r5
     dfa:	9801      	ldr	r0, [sp, #4]
     dfc:	f7ff ff2a 	bl	c54 <postfix_process>
     e00:	f885 800c 	strb.w	r8, [r5, #12]
     e04:	e7b0      	b.n	d68 <nrf_log_hexdump_entry_process+0xc>
     e06:	bf00      	nop
     e08:	0000303c 	.word	0x0000303c
     e0c:	00003038 	.word	0x00003038
     e10:	00003030 	.word	0x00003030
     e14:	00003028 	.word	0x00003028
     e18:	00003040 	.word	0x00003040
     e1c:	00003187 	.word	0x00003187

00000e20 <bsp_board_led_on>:
     e20:	4b04      	ldr	r3, [pc, #16]	; (e34 <bsp_board_led_on+0x14>)
     e22:	5c1a      	ldrb	r2, [r3, r0]
     e24:	2301      	movs	r3, #1
     e26:	4093      	lsls	r3, r2
     e28:	f04f 42a0 	mov.w	r2, #1342177280	; 0x50000000
     e2c:	f8c2 350c 	str.w	r3, [r2, #1292]	; 0x50c
     e30:	4770      	bx	lr
     e32:	bf00      	nop
     e34:	000030d4 	.word	0x000030d4

00000e38 <bsp_board_led_off>:
     e38:	4b04      	ldr	r3, [pc, #16]	; (e4c <bsp_board_led_off+0x14>)
     e3a:	5c1a      	ldrb	r2, [r3, r0]
     e3c:	2301      	movs	r3, #1
     e3e:	4093      	lsls	r3, r2
     e40:	f04f 42a0 	mov.w	r2, #1342177280	; 0x50000000
     e44:	f8c2 3508 	str.w	r3, [r2, #1288]	; 0x508
     e48:	4770      	bx	lr
     e4a:	bf00      	nop
     e4c:	000030d4 	.word	0x000030d4

00000e50 <bsp_board_leds_off>:
     e50:	b508      	push	{r3, lr}
     e52:	2000      	movs	r0, #0
     e54:	f7ff fff0 	bl	e38 <bsp_board_led_off>
     e58:	2001      	movs	r0, #1
     e5a:	f7ff ffed 	bl	e38 <bsp_board_led_off>
     e5e:	2002      	movs	r0, #2
     e60:	f7ff ffea 	bl	e38 <bsp_board_led_off>
     e64:	2003      	movs	r0, #3
     e66:	f7ff ffe7 	bl	e38 <bsp_board_led_off>
     e6a:	bd08      	pop	{r3, pc}

00000e6c <bsp_board_leds_on>:
     e6c:	b508      	push	{r3, lr}
     e6e:	2000      	movs	r0, #0
     e70:	f7ff ffd6 	bl	e20 <bsp_board_led_on>
     e74:	2001      	movs	r0, #1
     e76:	f7ff ffd3 	bl	e20 <bsp_board_led_on>
     e7a:	2002      	movs	r0, #2
     e7c:	f7ff ffd0 	bl	e20 <bsp_board_led_on>
     e80:	2003      	movs	r0, #3
     e82:	f7ff ffcd 	bl	e20 <bsp_board_led_on>
     e86:	bd08      	pop	{r3, pc}

00000e88 <bsp_board_led_invert>:
     e88:	f04f 41a0 	mov.w	r1, #1342177280	; 0x50000000
     e8c:	f8d1 3504 	ldr.w	r3, [r1, #1284]	; 0x504
     e90:	4a05      	ldr	r2, [pc, #20]	; (ea8 <bsp_board_led_invert+0x20>)
     e92:	5c10      	ldrb	r0, [r2, r0]
     e94:	2201      	movs	r2, #1
     e96:	4082      	lsls	r2, r0
     e98:	ea22 0003 	bic.w	r0, r2, r3
     e9c:	f8c1 0508 	str.w	r0, [r1, #1288]	; 0x508
     ea0:	4013      	ands	r3, r2
     ea2:	f8c1 350c 	str.w	r3, [r1, #1292]	; 0x50c
     ea6:	4770      	bx	lr
     ea8:	000030d4 	.word	0x000030d4

00000eac <bsp_board_init>:
     eac:	b510      	push	{r4, lr}
     eae:	4604      	mov	r4, r0
     eb0:	f010 0f01 	tst.w	r0, #1
     eb4:	d103      	bne.n	ebe <bsp_board_init+0x12>
     eb6:	f014 0f02 	tst.w	r4, #2
     eba:	d10e      	bne.n	eda <bsp_board_init+0x2e>
     ebc:	bd10      	pop	{r4, pc}
     ebe:	f04f 43a0 	mov.w	r3, #1342177280	; 0x50000000
     ec2:	2203      	movs	r2, #3
     ec4:	f8c3 2744 	str.w	r2, [r3, #1860]	; 0x744
     ec8:	f8c3 2748 	str.w	r2, [r3, #1864]	; 0x748
     ecc:	f8c3 274c 	str.w	r2, [r3, #1868]	; 0x74c
     ed0:	f8c3 2750 	str.w	r2, [r3, #1872]	; 0x750
     ed4:	f7ff ffbc 	bl	e50 <bsp_board_leds_off>
     ed8:	e7ed      	b.n	eb6 <bsp_board_init+0xa>
     eda:	f04f 43a0 	mov.w	r3, #1342177280	; 0x50000000
     ede:	220c      	movs	r2, #12
     ee0:	f8c3 2734 	str.w	r2, [r3, #1844]	; 0x734
     ee4:	f8c3 2738 	str.w	r2, [r3, #1848]	; 0x738
     ee8:	f8c3 273c 	str.w	r2, [r3, #1852]	; 0x73c
     eec:	f8c3 2740 	str.w	r2, [r3, #1856]	; 0x740
     ef0:	e7e4      	b.n	ebc <bsp_board_init+0x10>

00000ef2 <app_error_handler_bare>:
     ef2:	b500      	push	{lr}
     ef4:	b085      	sub	sp, #20
     ef6:	2100      	movs	r1, #0
     ef8:	9101      	str	r1, [sp, #4]
     efa:	9102      	str	r1, [sp, #8]
     efc:	9003      	str	r0, [sp, #12]
     efe:	aa01      	add	r2, sp, #4
     f00:	f244 0001 	movw	r0, #16385	; 0x4001
     f04:	f001 fc44 	bl	2790 <app_error_fault_handler>
     f08:	b005      	add	sp, #20
     f0a:	f85d fb04 	ldr.w	pc, [sp], #4
	...

00000f10 <app_error_save_and_stop>:
     f10:	b082      	sub	sp, #8
     f12:	2301      	movs	r3, #1
     f14:	f88d 3007 	strb.w	r3, [sp, #7]
     f18:	f89d 3007 	ldrb.w	r3, [sp, #7]
     f1c:	4b13      	ldr	r3, [pc, #76]	; (f6c <app_error_save_and_stop+0x5c>)
     f1e:	6018      	str	r0, [r3, #0]
     f20:	6059      	str	r1, [r3, #4]
     f22:	609a      	str	r2, [r3, #8]
     f24:	f244 0301 	movw	r3, #16385	; 0x4001
     f28:	4298      	cmp	r0, r3
     f2a:	d013      	beq.n	f54 <app_error_save_and_stop+0x44>
     f2c:	f244 0302 	movw	r3, #16386	; 0x4002
     f30:	4298      	cmp	r0, r3
     f32:	d107      	bne.n	f44 <app_error_save_and_stop+0x34>
     f34:	4b0d      	ldr	r3, [pc, #52]	; (f6c <app_error_save_and_stop+0x5c>)
     f36:	60da      	str	r2, [r3, #12]
     f38:	68da      	ldr	r2, [r3, #12]
     f3a:	6812      	ldr	r2, [r2, #0]
     f3c:	619a      	str	r2, [r3, #24]
     f3e:	68da      	ldr	r2, [r3, #12]
     f40:	6852      	ldr	r2, [r2, #4]
     f42:	61da      	str	r2, [r3, #28]
     f44:	b672      	cpsid	i
     f46:	f89d 3007 	ldrb.w	r3, [sp, #7]
     f4a:	2b00      	cmp	r3, #0
     f4c:	d1fb      	bne.n	f46 <app_error_save_and_stop+0x36>
     f4e:	b662      	cpsie	i
     f50:	b002      	add	sp, #8
     f52:	4770      	bx	lr
     f54:	4b05      	ldr	r3, [pc, #20]	; (f6c <app_error_save_and_stop+0x5c>)
     f56:	611a      	str	r2, [r3, #16]
     f58:	691a      	ldr	r2, [r3, #16]
     f5a:	6892      	ldr	r2, [r2, #8]
     f5c:	615a      	str	r2, [r3, #20]
     f5e:	691a      	ldr	r2, [r3, #16]
     f60:	6812      	ldr	r2, [r2, #0]
     f62:	619a      	str	r2, [r3, #24]
     f64:	691a      	ldr	r2, [r3, #16]
     f66:	6852      	ldr	r2, [r2, #4]
     f68:	61da      	str	r2, [r3, #28]
     f6a:	e7eb      	b.n	f44 <app_error_save_and_stop+0x34>
     f6c:	20000618 	.word	0x20000618

00000f70 <app_util_disable_irq>:
     f70:	b672      	cpsid	i
     f72:	4a02      	ldr	r2, [pc, #8]	; (f7c <app_util_disable_irq+0xc>)
     f74:	6813      	ldr	r3, [r2, #0]
     f76:	3301      	adds	r3, #1
     f78:	6013      	str	r3, [r2, #0]
     f7a:	4770      	bx	lr
     f7c:	20000638 	.word	0x20000638

00000f80 <app_util_enable_irq>:
     f80:	4a03      	ldr	r2, [pc, #12]	; (f90 <app_util_enable_irq+0x10>)
     f82:	6813      	ldr	r3, [r2, #0]
     f84:	3b01      	subs	r3, #1
     f86:	6013      	str	r3, [r2, #0]
     f88:	b903      	cbnz	r3, f8c <app_util_enable_irq+0xc>
     f8a:	b662      	cpsie	i
     f8c:	4770      	bx	lr
     f8e:	bf00      	nop
     f90:	20000638 	.word	0x20000638

00000f94 <app_util_critical_region_enter>:
     f94:	b508      	push	{r3, lr}
     f96:	f7ff ffeb 	bl	f70 <app_util_disable_irq>
     f9a:	bd08      	pop	{r3, pc}

00000f9c <app_util_critical_region_exit>:
     f9c:	b508      	push	{r3, lr}
     f9e:	f7ff ffef 	bl	f80 <app_util_enable_irq>
     fa2:	bd08      	pop	{r3, pc}

00000fa4 <nrf_atomic_u32_fetch_store>:
     fa4:	4603      	mov	r3, r0
     fa6:	e853 0f00 	ldrex	r0, [r3]
     faa:	460a      	mov	r2, r1
     fac:	e843 2c00 	strex	ip, r2, [r3]
     fb0:	f09c 0f00 	teq	ip, #0
     fb4:	d1f7      	bne.n	fa6 <nrf_atomic_u32_fetch_store+0x2>
     fb6:	4770      	bx	lr

00000fb8 <nrf_atomic_u32_or>:
     fb8:	4603      	mov	r3, r0
     fba:	e853 2f00 	ldrex	r2, [r3]
     fbe:	ea42 0001 	orr.w	r0, r2, r1
     fc2:	e843 0c00 	strex	ip, r0, [r3]
     fc6:	f09c 0f00 	teq	ip, #0
     fca:	d1f6      	bne.n	fba <nrf_atomic_u32_or+0x2>
     fcc:	4770      	bx	lr

00000fce <nrf_atomic_u32_fetch_and>:
     fce:	4603      	mov	r3, r0
     fd0:	e853 0f00 	ldrex	r0, [r3]
     fd4:	ea00 0201 	and.w	r2, r0, r1
     fd8:	e843 2c00 	strex	ip, r2, [r3]
     fdc:	f09c 0f00 	teq	ip, #0
     fe0:	d1f6      	bne.n	fd0 <nrf_atomic_u32_fetch_and+0x2>
     fe2:	4770      	bx	lr

00000fe4 <nrf_atomic_u32_add>:
     fe4:	4603      	mov	r3, r0
     fe6:	e853 2f00 	ldrex	r2, [r3]
     fea:	eb02 0001 	add.w	r0, r2, r1
     fee:	e843 0c00 	strex	ip, r0, [r3]
     ff2:	f09c 0f00 	teq	ip, #0
     ff6:	d1f6      	bne.n	fe6 <nrf_atomic_u32_add+0x2>
     ff8:	4770      	bx	lr

00000ffa <nrf_atomic_u32_sub>:
     ffa:	4603      	mov	r3, r0
     ffc:	e853 2f00 	ldrex	r2, [r3]
    1000:	eba2 0001 	sub.w	r0, r2, r1
    1004:	e843 0c00 	strex	ip, r0, [r3]
    1008:	f09c 0f00 	teq	ip, #0
    100c:	d1f6      	bne.n	ffc <nrf_atomic_u32_sub+0x2>
    100e:	4770      	bx	lr

00001010 <nrf_atomic_flag_set>:
    1010:	b508      	push	{r3, lr}
    1012:	2101      	movs	r1, #1
    1014:	f7ff ffd0 	bl	fb8 <nrf_atomic_u32_or>
    1018:	bd08      	pop	{r3, pc}

0000101a <nrf_atomic_flag_clear_fetch>:
    101a:	b508      	push	{r3, lr}
    101c:	2100      	movs	r1, #0
    101e:	f7ff ffd6 	bl	fce <nrf_atomic_u32_fetch_and>
    1022:	bd08      	pop	{r3, pc}

00001024 <nrf_balloc_init>:
    1024:	4684      	mov	ip, r0
    1026:	b1b8      	cbz	r0, 1058 <nrf_balloc_init+0x34>
    1028:	6843      	ldr	r3, [r0, #4]
    102a:	6882      	ldr	r2, [r0, #8]
    102c:	1ad2      	subs	r2, r2, r3
    102e:	b2d2      	uxtb	r2, r2
    1030:	6801      	ldr	r1, [r0, #0]
    1032:	600b      	str	r3, [r1, #0]
    1034:	1e53      	subs	r3, r2, #1
    1036:	b2db      	uxtb	r3, r3
    1038:	b14a      	cbz	r2, 104e <nrf_balloc_init+0x2a>
    103a:	f8dc 1000 	ldr.w	r1, [ip]
    103e:	680a      	ldr	r2, [r1, #0]
    1040:	1c50      	adds	r0, r2, #1
    1042:	6008      	str	r0, [r1, #0]
    1044:	7013      	strb	r3, [r2, #0]
    1046:	3b01      	subs	r3, #1
    1048:	b2db      	uxtb	r3, r3
    104a:	2bff      	cmp	r3, #255	; 0xff
    104c:	d1f5      	bne.n	103a <nrf_balloc_init+0x16>
    104e:	f8dc 3000 	ldr.w	r3, [ip]
    1052:	2000      	movs	r0, #0
    1054:	7118      	strb	r0, [r3, #4]
    1056:	4770      	bx	lr
    1058:	200e      	movs	r0, #14
    105a:	4770      	bx	lr

0000105c <nrf_balloc_alloc>:
    105c:	b538      	push	{r3, r4, r5, lr}
    105e:	4604      	mov	r4, r0
    1060:	2000      	movs	r0, #0
    1062:	f7ff ff97 	bl	f94 <app_util_critical_region_enter>
    1066:	6822      	ldr	r2, [r4, #0]
    1068:	6813      	ldr	r3, [r2, #0]
    106a:	6861      	ldr	r1, [r4, #4]
    106c:	428b      	cmp	r3, r1
    106e:	d915      	bls.n	109c <nrf_balloc_alloc+0x40>
    1070:	1e59      	subs	r1, r3, #1
    1072:	6011      	str	r1, [r2, #0]
    1074:	f813 3c01 	ldrb.w	r3, [r3, #-1]
    1078:	8a22      	ldrh	r2, [r4, #16]
    107a:	68e5      	ldr	r5, [r4, #12]
    107c:	fb02 5503 	mla	r5, r2, r3, r5
    1080:	6822      	ldr	r2, [r4, #0]
    1082:	68a3      	ldr	r3, [r4, #8]
    1084:	6811      	ldr	r1, [r2, #0]
    1086:	1a5b      	subs	r3, r3, r1
    1088:	b2db      	uxtb	r3, r3
    108a:	7911      	ldrb	r1, [r2, #4]
    108c:	4299      	cmp	r1, r3
    108e:	d200      	bcs.n	1092 <nrf_balloc_alloc+0x36>
    1090:	7113      	strb	r3, [r2, #4]
    1092:	2000      	movs	r0, #0
    1094:	f7ff ff82 	bl	f9c <app_util_critical_region_exit>
    1098:	4628      	mov	r0, r5
    109a:	bd38      	pop	{r3, r4, r5, pc}
    109c:	2500      	movs	r5, #0
    109e:	e7f8      	b.n	1092 <nrf_balloc_alloc+0x36>

000010a0 <nrf_balloc_free>:
    10a0:	b538      	push	{r3, r4, r5, lr}
    10a2:	4605      	mov	r5, r0
    10a4:	460c      	mov	r4, r1
    10a6:	2000      	movs	r0, #0
    10a8:	f7ff ff74 	bl	f94 <app_util_critical_region_enter>
    10ac:	682a      	ldr	r2, [r5, #0]
    10ae:	6813      	ldr	r3, [r2, #0]
    10b0:	1c59      	adds	r1, r3, #1
    10b2:	6011      	str	r1, [r2, #0]
    10b4:	68ea      	ldr	r2, [r5, #12]
    10b6:	1aa4      	subs	r4, r4, r2
    10b8:	8a2a      	ldrh	r2, [r5, #16]
    10ba:	fbb4 f4f2 	udiv	r4, r4, r2
    10be:	701c      	strb	r4, [r3, #0]
    10c0:	2000      	movs	r0, #0
    10c2:	f7ff ff6b 	bl	f9c <app_util_critical_region_exit>
    10c6:	bd38      	pop	{r3, r4, r5, pc}

000010c8 <nrf_fprintf_buffer_flush>:
    10c8:	6882      	ldr	r2, [r0, #8]
    10ca:	b142      	cbz	r2, 10de <nrf_fprintf_buffer_flush+0x16>
    10cc:	b510      	push	{r4, lr}
    10ce:	4604      	mov	r4, r0
    10d0:	6943      	ldr	r3, [r0, #20]
    10d2:	6801      	ldr	r1, [r0, #0]
    10d4:	6900      	ldr	r0, [r0, #16]
    10d6:	4798      	blx	r3
    10d8:	2300      	movs	r3, #0
    10da:	60a3      	str	r3, [r4, #8]
    10dc:	bd10      	pop	{r4, pc}
    10de:	4770      	bx	lr

000010e0 <nrf_fprintf>:
    10e0:	b40e      	push	{r1, r2, r3}
    10e2:	b500      	push	{lr}
    10e4:	b082      	sub	sp, #8
    10e6:	9903      	ldr	r1, [sp, #12]
    10e8:	b121      	cbz	r1, 10f4 <nrf_fprintf+0x14>
    10ea:	ab04      	add	r3, sp, #16
    10ec:	9301      	str	r3, [sp, #4]
    10ee:	aa01      	add	r2, sp, #4
    10f0:	f000 f87e 	bl	11f0 <nrf_fprintf_fmt>
    10f4:	b002      	add	sp, #8
    10f6:	f85d eb04 	ldr.w	lr, [sp], #4
    10fa:	b003      	add	sp, #12
    10fc:	4770      	bx	lr

000010fe <buffer_add>:
    10fe:	b538      	push	{r3, r4, r5, lr}
    1100:	4604      	mov	r4, r0
    1102:	460d      	mov	r5, r1
    1104:	290a      	cmp	r1, #10
    1106:	d009      	beq.n	111c <buffer_add+0x1e>
    1108:	6822      	ldr	r2, [r4, #0]
    110a:	68a3      	ldr	r3, [r4, #8]
    110c:	1c59      	adds	r1, r3, #1
    110e:	60a1      	str	r1, [r4, #8]
    1110:	54d5      	strb	r5, [r2, r3]
    1112:	68a2      	ldr	r2, [r4, #8]
    1114:	6863      	ldr	r3, [r4, #4]
    1116:	429a      	cmp	r2, r3
    1118:	d204      	bcs.n	1124 <buffer_add+0x26>
    111a:	bd38      	pop	{r3, r4, r5, pc}
    111c:	210d      	movs	r1, #13
    111e:	f7ff ffee 	bl	10fe <buffer_add>
    1122:	e7f1      	b.n	1108 <buffer_add+0xa>
    1124:	4620      	mov	r0, r4
    1126:	f7ff ffcf 	bl	10c8 <nrf_fprintf_buffer_flush>
    112a:	e7f6      	b.n	111a <buffer_add+0x1c>

0000112c <unsigned_print>:
    112c:	e92d 4ff8 	stmdb	sp!, {r3, r4, r5, r6, r7, r8, r9, sl, fp, lr}
    1130:	4681      	mov	r9, r0
    1132:	460f      	mov	r7, r1
    1134:	4615      	mov	r5, r2
    1136:	461e      	mov	r6, r3
    1138:	f8dd a028 	ldr.w	sl, [sp, #40]	; 0x28
    113c:	9a0b      	ldr	r2, [sp, #44]	; 0x2c
    113e:	42a9      	cmp	r1, r5
    1140:	d325      	bcc.n	118e <unsigned_print+0x62>
    1142:	460b      	mov	r3, r1
    1144:	f04f 0801 	mov.w	r8, #1
    1148:	fbb3 f3f5 	udiv	r3, r3, r5
    114c:	f108 0801 	add.w	r8, r8, #1
    1150:	429d      	cmp	r5, r3
    1152:	d9f9      	bls.n	1148 <unsigned_print+0x1c>
    1154:	45b0      	cmp	r8, r6
    1156:	bf38      	it	cc
    1158:	46b0      	movcc	r8, r6
    115a:	f012 0b01 	ands.w	fp, r2, #1
    115e:	d114      	bne.n	118a <unsigned_print+0x5e>
    1160:	f1ba 0f00 	cmp.w	sl, #0
    1164:	d011      	beq.n	118a <unsigned_print+0x5e>
    1166:	f012 0f02 	tst.w	r2, #2
    116a:	d013      	beq.n	1194 <unsigned_print+0x68>
    116c:	2e00      	cmp	r6, #0
    116e:	bf14      	ite	ne
    1170:	2420      	movne	r4, #32
    1172:	2430      	moveq	r4, #48	; 0x30
    1174:	45c2      	cmp	sl, r8
    1176:	d908      	bls.n	118a <unsigned_print+0x5e>
    1178:	f10a 3aff 	add.w	sl, sl, #4294967295	; 0xffffffff
    117c:	4621      	mov	r1, r4
    117e:	4648      	mov	r0, r9
    1180:	f7ff ffbd 	bl	10fe <buffer_add>
    1184:	45c2      	cmp	sl, r8
    1186:	d1f7      	bne.n	1178 <unsigned_print+0x4c>
    1188:	46c2      	mov	sl, r8
    118a:	2401      	movs	r4, #1
    118c:	e007      	b.n	119e <unsigned_print+0x72>
    118e:	f04f 0801 	mov.w	r8, #1
    1192:	e7df      	b.n	1154 <unsigned_print+0x28>
    1194:	2420      	movs	r4, #32
    1196:	e7ed      	b.n	1174 <unsigned_print+0x48>
    1198:	3e01      	subs	r6, #1
    119a:	fb05 f404 	mul.w	r4, r5, r4
    119e:	2e01      	cmp	r6, #1
    11a0:	d8fa      	bhi.n	1198 <unsigned_print+0x6c>
    11a2:	fbb7 f3f4 	udiv	r3, r7, r4
    11a6:	429d      	cmp	r5, r3
    11a8:	d9f7      	bls.n	119a <unsigned_print+0x6e>
    11aa:	4e10      	ldr	r6, [pc, #64]	; (11ec <unsigned_print+0xc0>)
    11ac:	fbb7 f3f4 	udiv	r3, r7, r4
    11b0:	fb04 7713 	mls	r7, r4, r3, r7
    11b4:	5cf1      	ldrb	r1, [r6, r3]
    11b6:	4648      	mov	r0, r9
    11b8:	f7ff ffa1 	bl	10fe <buffer_add>
    11bc:	4623      	mov	r3, r4
    11be:	fbb4 f4f5 	udiv	r4, r4, r5
    11c2:	42ab      	cmp	r3, r5
    11c4:	d2f2      	bcs.n	11ac <unsigned_print+0x80>
    11c6:	f1bb 0f00 	cmp.w	fp, #0
    11ca:	d00d      	beq.n	11e8 <unsigned_print+0xbc>
    11cc:	f1ba 0f00 	cmp.w	sl, #0
    11d0:	d00a      	beq.n	11e8 <unsigned_print+0xbc>
    11d2:	45c2      	cmp	sl, r8
    11d4:	d908      	bls.n	11e8 <unsigned_print+0xbc>
    11d6:	2420      	movs	r4, #32
    11d8:	f10a 3aff 	add.w	sl, sl, #4294967295	; 0xffffffff
    11dc:	4621      	mov	r1, r4
    11de:	4648      	mov	r0, r9
    11e0:	f7ff ff8d 	bl	10fe <buffer_add>
    11e4:	45c2      	cmp	sl, r8
    11e6:	d1f7      	bne.n	11d8 <unsigned_print+0xac>
    11e8:	e8bd 8ff8 	ldmia.w	sp!, {r3, r4, r5, r6, r7, r8, r9, sl, fp, pc}
    11ec:	000030d8 	.word	0x000030d8

000011f0 <nrf_fprintf_fmt>:
    11f0:	2900      	cmp	r1, #0
    11f2:	f000 81a3 	beq.w	153c <nrf_fprintf_fmt+0x34c>
    11f6:	e92d 4ff0 	stmdb	sp!, {r4, r5, r6, r7, r8, r9, sl, fp, lr}
    11fa:	b085      	sub	sp, #20
    11fc:	4607      	mov	r7, r0
    11fe:	4691      	mov	r9, r2
    1200:	460c      	mov	r4, r1
    1202:	f8df b33c 	ldr.w	fp, [pc, #828]	; 1540 <nrf_fprintf_fmt+0x350>
    1206:	e093      	b.n	1330 <nrf_fprintf_fmt+0x140>
    1208:	2600      	movs	r6, #0
    120a:	e002      	b.n	1212 <nrf_fprintf_fmt+0x22>
    120c:	f046 0601 	orr.w	r6, r6, #1
    1210:	3401      	adds	r4, #1
    1212:	7823      	ldrb	r3, [r4, #0]
    1214:	2b2d      	cmp	r3, #45	; 0x2d
    1216:	d0f9      	beq.n	120c <nrf_fprintf_fmt+0x1c>
    1218:	2b30      	cmp	r3, #48	; 0x30
    121a:	d006      	beq.n	122a <nrf_fprintf_fmt+0x3a>
    121c:	2b2b      	cmp	r3, #43	; 0x2b
    121e:	d008      	beq.n	1232 <nrf_fprintf_fmt+0x42>
    1220:	2b2a      	cmp	r3, #42	; 0x2a
    1222:	d00a      	beq.n	123a <nrf_fprintf_fmt+0x4a>
    1224:	4621      	mov	r1, r4
    1226:	2500      	movs	r5, #0
    1228:	e01b      	b.n	1262 <nrf_fprintf_fmt+0x72>
    122a:	f046 0602 	orr.w	r6, r6, #2
    122e:	3401      	adds	r4, #1
    1230:	e7ef      	b.n	1212 <nrf_fprintf_fmt+0x22>
    1232:	f046 0604 	orr.w	r6, r6, #4
    1236:	3401      	adds	r4, #1
    1238:	e7eb      	b.n	1212 <nrf_fprintf_fmt+0x22>
    123a:	f8d9 3000 	ldr.w	r3, [r9]
    123e:	1d1a      	adds	r2, r3, #4
    1240:	f8c9 2000 	str.w	r2, [r9]
    1244:	681d      	ldr	r5, [r3, #0]
    1246:	3401      	adds	r4, #1
    1248:	7823      	ldrb	r3, [r4, #0]
    124a:	2b2e      	cmp	r3, #46	; 0x2e
    124c:	d012      	beq.n	1274 <nrf_fprintf_fmt+0x84>
    124e:	f04f 0800 	mov.w	r8, #0
    1252:	7823      	ldrb	r3, [r4, #0]
    1254:	e02c      	b.n	12b0 <nrf_fprintf_fmt+0xc0>
    1256:	eb05 0585 	add.w	r5, r5, r5, lsl #2
    125a:	eb03 0345 	add.w	r3, r3, r5, lsl #1
    125e:	f1a3 0530 	sub.w	r5, r3, #48	; 0x30
    1262:	460c      	mov	r4, r1
    1264:	f811 3b01 	ldrb.w	r3, [r1], #1
    1268:	f1a3 0230 	sub.w	r2, r3, #48	; 0x30
    126c:	b2d2      	uxtb	r2, r2
    126e:	2a09      	cmp	r2, #9
    1270:	d9f1      	bls.n	1256 <nrf_fprintf_fmt+0x66>
    1272:	e7e9      	b.n	1248 <nrf_fprintf_fmt+0x58>
    1274:	1c61      	adds	r1, r4, #1
    1276:	7863      	ldrb	r3, [r4, #1]
    1278:	f1a3 0230 	sub.w	r2, r3, #48	; 0x30
    127c:	b2d2      	uxtb	r2, r2
    127e:	2a09      	cmp	r2, #9
    1280:	d810      	bhi.n	12a4 <nrf_fprintf_fmt+0xb4>
    1282:	f04f 0800 	mov.w	r8, #0
    1286:	eb08 0888 	add.w	r8, r8, r8, lsl #2
    128a:	eb03 0348 	add.w	r3, r3, r8, lsl #1
    128e:	f1a3 0830 	sub.w	r8, r3, #48	; 0x30
    1292:	f811 3f01 	ldrb.w	r3, [r1, #1]!
    1296:	f1a3 0230 	sub.w	r2, r3, #48	; 0x30
    129a:	b2d2      	uxtb	r2, r2
    129c:	2a09      	cmp	r2, #9
    129e:	d9f2      	bls.n	1286 <nrf_fprintf_fmt+0x96>
    12a0:	460c      	mov	r4, r1
    12a2:	e7d6      	b.n	1252 <nrf_fprintf_fmt+0x62>
    12a4:	460c      	mov	r4, r1
    12a6:	f04f 0800 	mov.w	r8, #0
    12aa:	e7d2      	b.n	1252 <nrf_fprintf_fmt+0x62>
    12ac:	f814 3f01 	ldrb.w	r3, [r4, #1]!
    12b0:	f003 02fb 	and.w	r2, r3, #251	; 0xfb
    12b4:	2a68      	cmp	r2, #104	; 0x68
    12b6:	d0f9      	beq.n	12ac <nrf_fprintf_fmt+0xbc>
    12b8:	2b25      	cmp	r3, #37	; 0x25
    12ba:	f000 8131 	beq.w	1520 <nrf_fprintf_fmt+0x330>
    12be:	f1a3 0258 	sub.w	r2, r3, #88	; 0x58
    12c2:	b2d2      	uxtb	r2, r2
    12c4:	2a20      	cmp	r2, #32
    12c6:	d82e      	bhi.n	1326 <nrf_fprintf_fmt+0x136>
    12c8:	3b58      	subs	r3, #88	; 0x58
    12ca:	2b20      	cmp	r3, #32
    12cc:	d82b      	bhi.n	1326 <nrf_fprintf_fmt+0x136>
    12ce:	e8df f013 	tbh	[pc, r3, lsl #1]
    12d2:	00ba      	.short	0x00ba
    12d4:	002a002a 	.word	0x002a002a
    12d8:	002a002a 	.word	0x002a002a
    12dc:	002a002a 	.word	0x002a002a
    12e0:	002a002a 	.word	0x002a002a
    12e4:	002a002a 	.word	0x002a002a
    12e8:	003b0021 	.word	0x003b0021
    12ec:	002a002a 	.word	0x002a002a
    12f0:	002a002a 	.word	0x002a002a
    12f4:	002a003b 	.word	0x002a003b
    12f8:	002a002a 	.word	0x002a002a
    12fc:	002a002a 	.word	0x002a002a
    1300:	010f002a 	.word	0x010f002a
    1304:	002a002a 	.word	0x002a002a
    1308:	002a00c8 	.word	0x002a00c8
    130c:	002a00ac 	.word	0x002a00ac
    1310:	00ba002a 	.word	0x00ba002a
    1314:	f8d9 3000 	ldr.w	r3, [r9]
    1318:	1d1a      	adds	r2, r3, #4
    131a:	f8c9 2000 	str.w	r2, [r9]
    131e:	7819      	ldrb	r1, [r3, #0]
    1320:	4638      	mov	r0, r7
    1322:	f7ff feec 	bl	10fe <buffer_add>
    1326:	3401      	adds	r4, #1
    1328:	7823      	ldrb	r3, [r4, #0]
    132a:	2b00      	cmp	r3, #0
    132c:	f000 80fd 	beq.w	152a <nrf_fprintf_fmt+0x33a>
    1330:	f814 1b01 	ldrb.w	r1, [r4], #1
    1334:	2900      	cmp	r1, #0
    1336:	f000 80f8 	beq.w	152a <nrf_fprintf_fmt+0x33a>
    133a:	2925      	cmp	r1, #37	; 0x25
    133c:	f43f af64 	beq.w	1208 <nrf_fprintf_fmt+0x18>
    1340:	4638      	mov	r0, r7
    1342:	f7ff fedc 	bl	10fe <buffer_add>
    1346:	e7ef      	b.n	1328 <nrf_fprintf_fmt+0x138>
    1348:	f8d9 3000 	ldr.w	r3, [r9]
    134c:	1d1a      	adds	r2, r3, #4
    134e:	f8c9 2000 	str.w	r2, [r9]
    1352:	f8d3 a000 	ldr.w	sl, [r3]
    1356:	ea8a 73ea 	eor.w	r3, sl, sl, asr #31
    135a:	eba3 73ea 	sub.w	r3, r3, sl, asr #31
    135e:	2b09      	cmp	r3, #9
    1360:	dd41      	ble.n	13e6 <nrf_fprintf_fmt+0x1f6>
    1362:	2201      	movs	r2, #1
    1364:	4619      	mov	r1, r3
    1366:	fb8b c003 	smull	ip, r0, fp, r3
    136a:	17db      	asrs	r3, r3, #31
    136c:	ebc3 03a0 	rsb	r3, r3, r0, asr #2
    1370:	3201      	adds	r2, #1
    1372:	2963      	cmp	r1, #99	; 0x63
    1374:	dcf6      	bgt.n	1364 <nrf_fprintf_fmt+0x174>
    1376:	4613      	mov	r3, r2
    1378:	4542      	cmp	r2, r8
    137a:	bf38      	it	cc
    137c:	4643      	movcc	r3, r8
    137e:	9302      	str	r3, [sp, #8]
    1380:	b135      	cbz	r5, 1390 <nrf_fprintf_fmt+0x1a0>
    1382:	f1ba 0f00 	cmp.w	sl, #0
    1386:	db02      	blt.n	138e <nrf_fprintf_fmt+0x19e>
    1388:	f016 0f04 	tst.w	r6, #4
    138c:	d000      	beq.n	1390 <nrf_fprintf_fmt+0x1a0>
    138e:	3d01      	subs	r5, #1
    1390:	f016 0f02 	tst.w	r6, #2
    1394:	d002      	beq.n	139c <nrf_fprintf_fmt+0x1ac>
    1396:	f1b8 0f00 	cmp.w	r8, #0
    139a:	d011      	beq.n	13c0 <nrf_fprintf_fmt+0x1d0>
    139c:	f016 0f01 	tst.w	r6, #1
    13a0:	d10e      	bne.n	13c0 <nrf_fprintf_fmt+0x1d0>
    13a2:	b16d      	cbz	r5, 13c0 <nrf_fprintf_fmt+0x1d0>
    13a4:	9b02      	ldr	r3, [sp, #8]
    13a6:	42ab      	cmp	r3, r5
    13a8:	d20a      	bcs.n	13c0 <nrf_fprintf_fmt+0x1d0>
    13aa:	9403      	str	r4, [sp, #12]
    13ac:	461c      	mov	r4, r3
    13ae:	3d01      	subs	r5, #1
    13b0:	2120      	movs	r1, #32
    13b2:	4638      	mov	r0, r7
    13b4:	f7ff fea3 	bl	10fe <buffer_add>
    13b8:	42ac      	cmp	r4, r5
    13ba:	d1f8      	bne.n	13ae <nrf_fprintf_fmt+0x1be>
    13bc:	9c03      	ldr	r4, [sp, #12]
    13be:	9d02      	ldr	r5, [sp, #8]
    13c0:	f1ba 0f00 	cmp.w	sl, #0
    13c4:	db11      	blt.n	13ea <nrf_fprintf_fmt+0x1fa>
    13c6:	f016 0f04 	tst.w	r6, #4
    13ca:	d115      	bne.n	13f8 <nrf_fprintf_fmt+0x208>
    13cc:	f006 0303 	and.w	r3, r6, #3
    13d0:	2b02      	cmp	r3, #2
    13d2:	d016      	beq.n	1402 <nrf_fprintf_fmt+0x212>
    13d4:	9601      	str	r6, [sp, #4]
    13d6:	9500      	str	r5, [sp, #0]
    13d8:	4643      	mov	r3, r8
    13da:	220a      	movs	r2, #10
    13dc:	4651      	mov	r1, sl
    13de:	4638      	mov	r0, r7
    13e0:	f7ff fea4 	bl	112c <unsigned_print>
    13e4:	e79f      	b.n	1326 <nrf_fprintf_fmt+0x136>
    13e6:	2201      	movs	r2, #1
    13e8:	e7c5      	b.n	1376 <nrf_fprintf_fmt+0x186>
    13ea:	f1ca 0a00 	rsb	sl, sl, #0
    13ee:	212d      	movs	r1, #45	; 0x2d
    13f0:	4638      	mov	r0, r7
    13f2:	f7ff fe84 	bl	10fe <buffer_add>
    13f6:	e7e9      	b.n	13cc <nrf_fprintf_fmt+0x1dc>
    13f8:	212b      	movs	r1, #43	; 0x2b
    13fa:	4638      	mov	r0, r7
    13fc:	f7ff fe7f 	bl	10fe <buffer_add>
    1400:	e7e4      	b.n	13cc <nrf_fprintf_fmt+0x1dc>
    1402:	f1b8 0f00 	cmp.w	r8, #0
    1406:	d1e5      	bne.n	13d4 <nrf_fprintf_fmt+0x1e4>
    1408:	2d00      	cmp	r5, #0
    140a:	d0e3      	beq.n	13d4 <nrf_fprintf_fmt+0x1e4>
    140c:	9b02      	ldr	r3, [sp, #8]
    140e:	42ab      	cmp	r3, r5
    1410:	d2e0      	bcs.n	13d4 <nrf_fprintf_fmt+0x1e4>
    1412:	9403      	str	r4, [sp, #12]
    1414:	461c      	mov	r4, r3
    1416:	3d01      	subs	r5, #1
    1418:	2130      	movs	r1, #48	; 0x30
    141a:	4638      	mov	r0, r7
    141c:	f7ff fe6f 	bl	10fe <buffer_add>
    1420:	42ac      	cmp	r4, r5
    1422:	d1f8      	bne.n	1416 <nrf_fprintf_fmt+0x226>
    1424:	9c03      	ldr	r4, [sp, #12]
    1426:	9d02      	ldr	r5, [sp, #8]
    1428:	e7d4      	b.n	13d4 <nrf_fprintf_fmt+0x1e4>
    142a:	f8d9 3000 	ldr.w	r3, [r9]
    142e:	1d1a      	adds	r2, r3, #4
    1430:	f8c9 2000 	str.w	r2, [r9]
    1434:	6819      	ldr	r1, [r3, #0]
    1436:	9601      	str	r6, [sp, #4]
    1438:	9500      	str	r5, [sp, #0]
    143a:	4643      	mov	r3, r8
    143c:	220a      	movs	r2, #10
    143e:	4638      	mov	r0, r7
    1440:	f7ff fe74 	bl	112c <unsigned_print>
    1444:	e76f      	b.n	1326 <nrf_fprintf_fmt+0x136>
    1446:	f8d9 3000 	ldr.w	r3, [r9]
    144a:	1d1a      	adds	r2, r3, #4
    144c:	f8c9 2000 	str.w	r2, [r9]
    1450:	6819      	ldr	r1, [r3, #0]
    1452:	9601      	str	r6, [sp, #4]
    1454:	9500      	str	r5, [sp, #0]
    1456:	4643      	mov	r3, r8
    1458:	2210      	movs	r2, #16
    145a:	4638      	mov	r0, r7
    145c:	f7ff fe66 	bl	112c <unsigned_print>
    1460:	e761      	b.n	1326 <nrf_fprintf_fmt+0x136>
    1462:	f8d9 3000 	ldr.w	r3, [r9]
    1466:	1d1a      	adds	r2, r3, #4
    1468:	f8c9 2000 	str.w	r2, [r9]
    146c:	f8d3 8000 	ldr.w	r8, [r3]
    1470:	f016 0601 	ands.w	r6, r6, #1
    1474:	d01d      	beq.n	14b2 <nrf_fprintf_fmt+0x2c2>
    1476:	f898 1000 	ldrb.w	r1, [r8]
    147a:	b1b9      	cbz	r1, 14ac <nrf_fprintf_fmt+0x2bc>
    147c:	4646      	mov	r6, r8
    147e:	f1c8 0801 	rsb	r8, r8, #1
    1482:	eb08 0a06 	add.w	sl, r8, r6
    1486:	4638      	mov	r0, r7
    1488:	f7ff fe39 	bl	10fe <buffer_add>
    148c:	f816 1f01 	ldrb.w	r1, [r6, #1]!
    1490:	2900      	cmp	r1, #0
    1492:	d1f6      	bne.n	1482 <nrf_fprintf_fmt+0x292>
    1494:	4555      	cmp	r5, sl
    1496:	f67f af46 	bls.w	1326 <nrf_fprintf_fmt+0x136>
    149a:	2620      	movs	r6, #32
    149c:	3d01      	subs	r5, #1
    149e:	4631      	mov	r1, r6
    14a0:	4638      	mov	r0, r7
    14a2:	f7ff fe2c 	bl	10fe <buffer_add>
    14a6:	4555      	cmp	r5, sl
    14a8:	d1f8      	bne.n	149c <nrf_fprintf_fmt+0x2ac>
    14aa:	e73c      	b.n	1326 <nrf_fprintf_fmt+0x136>
    14ac:	f04f 0a00 	mov.w	sl, #0
    14b0:	e7f0      	b.n	1494 <nrf_fprintf_fmt+0x2a4>
    14b2:	f1b8 0f00 	cmp.w	r8, #0
    14b6:	d003      	beq.n	14c0 <nrf_fprintf_fmt+0x2d0>
    14b8:	4640      	mov	r0, r8
    14ba:	f001 fc99 	bl	2df0 <strlen>
    14be:	4606      	mov	r6, r0
    14c0:	42b5      	cmp	r5, r6
    14c2:	d908      	bls.n	14d6 <nrf_fprintf_fmt+0x2e6>
    14c4:	f04f 0a20 	mov.w	sl, #32
    14c8:	3d01      	subs	r5, #1
    14ca:	4651      	mov	r1, sl
    14cc:	4638      	mov	r0, r7
    14ce:	f7ff fe16 	bl	10fe <buffer_add>
    14d2:	42b5      	cmp	r5, r6
    14d4:	d1f8      	bne.n	14c8 <nrf_fprintf_fmt+0x2d8>
    14d6:	f898 1000 	ldrb.w	r1, [r8]
    14da:	2900      	cmp	r1, #0
    14dc:	f43f af23 	beq.w	1326 <nrf_fprintf_fmt+0x136>
    14e0:	4638      	mov	r0, r7
    14e2:	f7ff fe0c 	bl	10fe <buffer_add>
    14e6:	f818 1f01 	ldrb.w	r1, [r8, #1]!
    14ea:	2900      	cmp	r1, #0
    14ec:	d1f8      	bne.n	14e0 <nrf_fprintf_fmt+0x2f0>
    14ee:	e71a      	b.n	1326 <nrf_fprintf_fmt+0x136>
    14f0:	f8d9 3000 	ldr.w	r3, [r9]
    14f4:	1d1a      	adds	r2, r3, #4
    14f6:	f8c9 2000 	str.w	r2, [r9]
    14fa:	681d      	ldr	r5, [r3, #0]
    14fc:	2130      	movs	r1, #48	; 0x30
    14fe:	4638      	mov	r0, r7
    1500:	f7ff fdfd 	bl	10fe <buffer_add>
    1504:	2178      	movs	r1, #120	; 0x78
    1506:	4638      	mov	r0, r7
    1508:	f7ff fdf9 	bl	10fe <buffer_add>
    150c:	2300      	movs	r3, #0
    150e:	9301      	str	r3, [sp, #4]
    1510:	2308      	movs	r3, #8
    1512:	9300      	str	r3, [sp, #0]
    1514:	2210      	movs	r2, #16
    1516:	4629      	mov	r1, r5
    1518:	4638      	mov	r0, r7
    151a:	f7ff fe07 	bl	112c <unsigned_print>
    151e:	e702      	b.n	1326 <nrf_fprintf_fmt+0x136>
    1520:	2125      	movs	r1, #37	; 0x25
    1522:	4638      	mov	r0, r7
    1524:	f7ff fdeb 	bl	10fe <buffer_add>
    1528:	e6fd      	b.n	1326 <nrf_fprintf_fmt+0x136>
    152a:	7b3b      	ldrb	r3, [r7, #12]
    152c:	b913      	cbnz	r3, 1534 <nrf_fprintf_fmt+0x344>
    152e:	b005      	add	sp, #20
    1530:	e8bd 8ff0 	ldmia.w	sp!, {r4, r5, r6, r7, r8, r9, sl, fp, pc}
    1534:	4638      	mov	r0, r7
    1536:	f7ff fdc7 	bl	10c8 <nrf_fprintf_buffer_flush>
    153a:	e7f8      	b.n	152e <nrf_fprintf_fmt+0x33e>
    153c:	4770      	bx	lr
    153e:	bf00      	nop
    1540:	66666667 	.word	0x66666667

00001544 <memobj_op>:
    1544:	e92d 4ff8 	stmdb	sp!, {r3, r4, r5, r6, r7, r8, r9, sl, fp, lr}
    1548:	4604      	mov	r4, r0
    154a:	4689      	mov	r9, r1
    154c:	f89d a028 	ldrb.w	sl, [sp, #40]	; 0x28
    1550:	f8b0 8006 	ldrh.w	r8, [r0, #6]
    1554:	7946      	ldrb	r6, [r0, #5]
    1556:	fb08 f606 	mul.w	r6, r8, r6
    155a:	3e04      	subs	r6, #4
    155c:	1d1f      	adds	r7, r3, #4
    155e:	fbb7 f0f8 	udiv	r0, r7, r8
    1562:	fb08 7110 	mls	r1, r8, r0, r7
    1566:	6815      	ldr	r5, [r2, #0]
    1568:	eb05 0c03 	add.w	ip, r5, r3
    156c:	45b4      	cmp	ip, r6
    156e:	bf88      	it	hi
    1570:	1af5      	subhi	r5, r6, r3
    1572:	6015      	str	r5, [r2, #0]
    1574:	4547      	cmp	r7, r8
    1576:	d302      	bcc.n	157e <memobj_op+0x3a>
    1578:	6824      	ldr	r4, [r4, #0]
    157a:	3801      	subs	r0, #1
    157c:	d1fc      	bne.n	1578 <memobj_op+0x34>
    157e:	eba8 0601 	sub.w	r6, r8, r1
    1582:	42ae      	cmp	r6, r5
    1584:	bf28      	it	cs
    1586:	462e      	movcs	r6, r5
    1588:	b1e5      	cbz	r5, 15c4 <memobj_op+0x80>
    158a:	2700      	movs	r7, #0
    158c:	46bb      	mov	fp, r7
    158e:	e00c      	b.n	15aa <memobj_op+0x66>
    1590:	4632      	mov	r2, r6
    1592:	4619      	mov	r1, r3
    1594:	f001 fc1e 	bl	2dd4 <memcpy>
    1598:	6824      	ldr	r4, [r4, #0]
    159a:	1bad      	subs	r5, r5, r6
    159c:	4437      	add	r7, r6
    159e:	4646      	mov	r6, r8
    15a0:	45a8      	cmp	r8, r5
    15a2:	bf28      	it	cs
    15a4:	462e      	movcs	r6, r5
    15a6:	4659      	mov	r1, fp
    15a8:	b165      	cbz	r5, 15c4 <memobj_op+0x80>
    15aa:	eb09 0307 	add.w	r3, r9, r7
    15ae:	3104      	adds	r1, #4
    15b0:	1860      	adds	r0, r4, r1
    15b2:	f1ba 0f00 	cmp.w	sl, #0
    15b6:	d0eb      	beq.n	1590 <memobj_op+0x4c>
    15b8:	4632      	mov	r2, r6
    15ba:	4601      	mov	r1, r0
    15bc:	4618      	mov	r0, r3
    15be:	f001 fc09 	bl	2dd4 <memcpy>
    15c2:	e7e9      	b.n	1598 <memobj_op+0x54>
    15c4:	e8bd 8ff8 	ldmia.w	sp!, {r3, r4, r5, r6, r7, r8, r9, sl, fp, pc}

000015c8 <nrf_memobj_pool_init>:
    15c8:	b508      	push	{r3, lr}
    15ca:	f7ff fd2b 	bl	1024 <nrf_balloc_init>
    15ce:	bd08      	pop	{r3, pc}

000015d0 <nrf_memobj_free>:
    15d0:	b5f8      	push	{r3, r4, r5, r6, r7, lr}
    15d2:	4604      	mov	r4, r0
    15d4:	7946      	ldrb	r6, [r0, #5]
    15d6:	1e71      	subs	r1, r6, #1
    15d8:	d011      	beq.n	15fe <nrf_memobj_free+0x2e>
    15da:	4602      	mov	r2, r0
    15dc:	2300      	movs	r3, #0
    15de:	6812      	ldr	r2, [r2, #0]
    15e0:	3301      	adds	r3, #1
    15e2:	4299      	cmp	r1, r3
    15e4:	d1fb      	bne.n	15de <nrf_memobj_free+0xe>
    15e6:	6817      	ldr	r7, [r2, #0]
    15e8:	b146      	cbz	r6, 15fc <nrf_memobj_free+0x2c>
    15ea:	2500      	movs	r5, #0
    15ec:	4621      	mov	r1, r4
    15ee:	6824      	ldr	r4, [r4, #0]
    15f0:	4638      	mov	r0, r7
    15f2:	f7ff fd55 	bl	10a0 <nrf_balloc_free>
    15f6:	3501      	adds	r5, #1
    15f8:	42ae      	cmp	r6, r5
    15fa:	d8f7      	bhi.n	15ec <nrf_memobj_free+0x1c>
    15fc:	bdf8      	pop	{r3, r4, r5, r6, r7, pc}
    15fe:	4601      	mov	r1, r0
    1600:	6800      	ldr	r0, [r0, #0]
    1602:	f7ff fd4d 	bl	10a0 <nrf_balloc_free>
    1606:	e7f9      	b.n	15fc <nrf_memobj_free+0x2c>

00001608 <nrf_memobj_alloc>:
    1608:	e92d 43f8 	stmdb	sp!, {r3, r4, r5, r6, r7, r8, r9, lr}
    160c:	4607      	mov	r7, r0
    160e:	8a04      	ldrh	r4, [r0, #16]
    1610:	1f23      	subs	r3, r4, #4
    1612:	f101 0803 	add.w	r8, r1, #3
    1616:	4498      	add	r8, r3
    1618:	fbb8 f8f3 	udiv	r8, r8, r3
    161c:	f7ff fd1e 	bl	105c <nrf_balloc_alloc>
    1620:	4606      	mov	r6, r0
    1622:	b308      	cbz	r0, 1668 <nrf_memobj_alloc+0x60>
    1624:	2300      	movs	r3, #0
    1626:	7103      	strb	r3, [r0, #4]
    1628:	2301      	movs	r3, #1
    162a:	7143      	strb	r3, [r0, #5]
    162c:	3c04      	subs	r4, #4
    162e:	80c4      	strh	r4, [r0, #6]
    1630:	fa5f f888 	uxtb.w	r8, r8
    1634:	6007      	str	r7, [r0, #0]
    1636:	f1b8 0801 	subs.w	r8, r8, #1
    163a:	d015      	beq.n	1668 <nrf_memobj_alloc+0x60>
    163c:	4604      	mov	r4, r0
    163e:	2500      	movs	r5, #0
    1640:	46a1      	mov	r9, r4
    1642:	4638      	mov	r0, r7
    1644:	f7ff fd0a 	bl	105c <nrf_balloc_alloc>
    1648:	4604      	mov	r4, r0
    164a:	b148      	cbz	r0, 1660 <nrf_memobj_alloc+0x58>
    164c:	7973      	ldrb	r3, [r6, #5]
    164e:	3301      	adds	r3, #1
    1650:	7173      	strb	r3, [r6, #5]
    1652:	f8c9 0000 	str.w	r0, [r9]
    1656:	6007      	str	r7, [r0, #0]
    1658:	3501      	adds	r5, #1
    165a:	45a8      	cmp	r8, r5
    165c:	d1f0      	bne.n	1640 <nrf_memobj_alloc+0x38>
    165e:	e003      	b.n	1668 <nrf_memobj_alloc+0x60>
    1660:	4630      	mov	r0, r6
    1662:	f7ff ffb5 	bl	15d0 <nrf_memobj_free>
    1666:	4626      	mov	r6, r4
    1668:	4630      	mov	r0, r6
    166a:	e8bd 83f8 	ldmia.w	sp!, {r3, r4, r5, r6, r7, r8, r9, pc}

0000166e <nrf_memobj_get>:
    166e:	b508      	push	{r3, lr}
    1670:	2101      	movs	r1, #1
    1672:	3004      	adds	r0, #4
    1674:	f7ff fcb6 	bl	fe4 <nrf_atomic_u32_add>
    1678:	bd08      	pop	{r3, pc}

0000167a <nrf_memobj_put>:
    167a:	b510      	push	{r4, lr}
    167c:	4604      	mov	r4, r0
    167e:	2101      	movs	r1, #1
    1680:	3004      	adds	r0, #4
    1682:	f7ff fcba 	bl	ffa <nrf_atomic_u32_sub>
    1686:	f010 0fff 	tst.w	r0, #255	; 0xff
    168a:	d000      	beq.n	168e <nrf_memobj_put+0x14>
    168c:	bd10      	pop	{r4, pc}
    168e:	4620      	mov	r0, r4
    1690:	f7ff ff9e 	bl	15d0 <nrf_memobj_free>
    1694:	e7fa      	b.n	168c <nrf_memobj_put+0x12>

00001696 <nrf_memobj_write>:
    1696:	b500      	push	{lr}
    1698:	b085      	sub	sp, #20
    169a:	9203      	str	r2, [sp, #12]
    169c:	2200      	movs	r2, #0
    169e:	9200      	str	r2, [sp, #0]
    16a0:	aa03      	add	r2, sp, #12
    16a2:	f7ff ff4f 	bl	1544 <memobj_op>
    16a6:	b005      	add	sp, #20
    16a8:	f85d fb04 	ldr.w	pc, [sp], #4

000016ac <nrf_memobj_read>:
    16ac:	b500      	push	{lr}
    16ae:	b085      	sub	sp, #20
    16b0:	9203      	str	r2, [sp, #12]
    16b2:	2201      	movs	r2, #1
    16b4:	9200      	str	r2, [sp, #0]
    16b6:	aa03      	add	r2, sp, #12
    16b8:	f7ff ff44 	bl	1544 <memobj_op>
    16bc:	b005      	add	sp, #20
    16be:	f85d fb04 	ldr.w	pc, [sp], #4

000016c2 <nrf_ringbuf_init>:
    16c2:	6882      	ldr	r2, [r0, #8]
    16c4:	2300      	movs	r3, #0
    16c6:	6093      	str	r3, [r2, #8]
    16c8:	6882      	ldr	r2, [r0, #8]
    16ca:	6113      	str	r3, [r2, #16]
    16cc:	6882      	ldr	r2, [r0, #8]
    16ce:	6153      	str	r3, [r2, #20]
    16d0:	6882      	ldr	r2, [r0, #8]
    16d2:	60d3      	str	r3, [r2, #12]
    16d4:	6882      	ldr	r2, [r0, #8]
    16d6:	6053      	str	r3, [r2, #4]
    16d8:	6882      	ldr	r2, [r0, #8]
    16da:	6013      	str	r3, [r2, #0]
    16dc:	4770      	bx	lr
	...

000016e0 <uarte_evt_handler>:
    16e0:	b500      	push	{lr}
    16e2:	b085      	sub	sp, #20
    16e4:	7803      	ldrb	r3, [r0, #0]
    16e6:	f88d 3000 	strb.w	r3, [sp]
    16ea:	6843      	ldr	r3, [r0, #4]
    16ec:	9301      	str	r3, [sp, #4]
    16ee:	6883      	ldr	r3, [r0, #8]
    16f0:	f88d 3008 	strb.w	r3, [sp, #8]
    16f4:	68c3      	ldr	r3, [r0, #12]
    16f6:	9303      	str	r3, [sp, #12]
    16f8:	4b05      	ldr	r3, [pc, #20]	; (1710 <uarte_evt_handler+0x30>)
    16fa:	f853 3021 	ldr.w	r3, [r3, r1, lsl #2]
    16fe:	4a05      	ldr	r2, [pc, #20]	; (1714 <uarte_evt_handler+0x34>)
    1700:	f852 1021 	ldr.w	r1, [r2, r1, lsl #2]
    1704:	4668      	mov	r0, sp
    1706:	4798      	blx	r3
    1708:	b005      	add	sp, #20
    170a:	f85d fb04 	ldr.w	pc, [sp], #4
    170e:	bf00      	nop
    1710:	20000640 	.word	0x20000640
    1714:	2000063c 	.word	0x2000063c

00001718 <uart_evt_handler>:
    1718:	b500      	push	{lr}
    171a:	b085      	sub	sp, #20
    171c:	7803      	ldrb	r3, [r0, #0]
    171e:	f88d 3000 	strb.w	r3, [sp]
    1722:	6843      	ldr	r3, [r0, #4]
    1724:	9301      	str	r3, [sp, #4]
    1726:	6883      	ldr	r3, [r0, #8]
    1728:	f88d 3008 	strb.w	r3, [sp, #8]
    172c:	68c3      	ldr	r3, [r0, #12]
    172e:	9303      	str	r3, [sp, #12]
    1730:	4b05      	ldr	r3, [pc, #20]	; (1748 <uart_evt_handler+0x30>)
    1732:	f853 3021 	ldr.w	r3, [r3, r1, lsl #2]
    1736:	4a05      	ldr	r2, [pc, #20]	; (174c <uart_evt_handler+0x34>)
    1738:	f852 1021 	ldr.w	r1, [r2, r1, lsl #2]
    173c:	4668      	mov	r0, sp
    173e:	4798      	blx	r3
    1740:	b005      	add	sp, #20
    1742:	f85d fb04 	ldr.w	pc, [sp], #4
    1746:	bf00      	nop
    1748:	20000640 	.word	0x20000640
    174c:	2000063c 	.word	0x2000063c

00001750 <nrf_drv_uart_init>:
    1750:	b5f0      	push	{r4, r5, r6, r7, lr}
    1752:	b089      	sub	sp, #36	; 0x24
    1754:	4605      	mov	r5, r0
    1756:	468c      	mov	ip, r1
    1758:	4614      	mov	r4, r2
    175a:	7806      	ldrb	r6, [r0, #0]
    175c:	4b14      	ldr	r3, [pc, #80]	; (17b0 <nrf_drv_uart_init+0x60>)
    175e:	f843 2026 	str.w	r2, [r3, r6, lsl #2]
    1762:	690a      	ldr	r2, [r1, #16]
    1764:	4b13      	ldr	r3, [pc, #76]	; (17b4 <nrf_drv_uart_init+0x64>)
    1766:	f843 2026 	str.w	r2, [r3, r6, lsl #2]
    176a:	7f4f      	ldrb	r7, [r1, #29]
    176c:	4b12      	ldr	r3, [pc, #72]	; (17b8 <nrf_drv_uart_init+0x68>)
    176e:	559f      	strb	r7, [r3, r6]
    1770:	46ee      	mov	lr, sp
    1772:	e8bc 000f 	ldmia.w	ip!, {r0, r1, r2, r3}
    1776:	e8ae 000f 	stmia.w	lr!, {r0, r1, r2, r3}
    177a:	e89c 000f 	ldmia.w	ip, {r0, r1, r2, r3}
    177e:	e88e 000f 	stmia.w	lr, {r0, r1, r2, r3}
    1782:	9604      	str	r6, [sp, #16]
    1784:	b14f      	cbz	r7, 179a <nrf_drv_uart_init+0x4a>
    1786:	2c00      	cmp	r4, #0
    1788:	4a0c      	ldr	r2, [pc, #48]	; (17bc <nrf_drv_uart_init+0x6c>)
    178a:	bf08      	it	eq
    178c:	4622      	moveq	r2, r4
    178e:	4669      	mov	r1, sp
    1790:	1d28      	adds	r0, r5, #4
    1792:	f000 fda7 	bl	22e4 <nrfx_uarte_init>
    1796:	b009      	add	sp, #36	; 0x24
    1798:	bdf0      	pop	{r4, r5, r6, r7, pc}
    179a:	2c00      	cmp	r4, #0
    179c:	4a08      	ldr	r2, [pc, #32]	; (17c0 <nrf_drv_uart_init+0x70>)
    179e:	bf08      	it	eq
    17a0:	4622      	moveq	r2, r4
    17a2:	4669      	mov	r1, sp
    17a4:	f105 000c 	add.w	r0, r5, #12
    17a8:	f000 fb3c 	bl	1e24 <nrfx_uart_init>
    17ac:	e7f3      	b.n	1796 <nrf_drv_uart_init+0x46>
    17ae:	bf00      	nop
    17b0:	20000640 	.word	0x20000640
    17b4:	2000063c 	.word	0x2000063c
    17b8:	20000644 	.word	0x20000644
    17bc:	000016e1 	.word	0x000016e1
    17c0:	00001719 	.word	0x00001719

000017c4 <nrfx_i2s_init>:
    17c4:	4b4e      	ldr	r3, [pc, #312]	; (1900 <nrfx_i2s_init+0x13c>)
    17c6:	791b      	ldrb	r3, [r3, #4]
    17c8:	2b00      	cmp	r3, #0
    17ca:	f040 8097 	bne.w	18fc <nrfx_i2s_init+0x138>
    17ce:	b5f0      	push	{r4, r5, r6, r7, lr}
    17d0:	7982      	ldrb	r2, [r0, #6]
    17d2:	f890 e007 	ldrb.w	lr, [r0, #7]
    17d6:	f890 c008 	ldrb.w	ip, [r0, #8]
    17da:	7a44      	ldrb	r4, [r0, #9]
    17dc:	7a87      	ldrb	r7, [r0, #10]
    17de:	68c5      	ldr	r5, [r0, #12]
    17e0:	7c06      	ldrb	r6, [r0, #16]
    17e2:	b91a      	cbnz	r2, 17ec <nrfx_i2s_init+0x28>
    17e4:	2c01      	cmp	r4, #1
    17e6:	d022      	beq.n	182e <nrfx_i2s_init+0x6a>
    17e8:	2c02      	cmp	r4, #2
    17ea:	d024      	beq.n	1836 <nrfx_i2s_init+0x72>
    17ec:	4b45      	ldr	r3, [pc, #276]	; (1904 <nrfx_i2s_init+0x140>)
    17ee:	f8c3 2504 	str.w	r2, [r3, #1284]	; 0x504
    17f2:	f8c3 e524 	str.w	lr, [r3, #1316]	; 0x524
    17f6:	f8c3 c520 	str.w	ip, [r3, #1312]	; 0x520
    17fa:	f8c3 451c 	str.w	r4, [r3, #1308]	; 0x51c
    17fe:	f8c3 7528 	str.w	r7, [r3, #1320]	; 0x528
    1802:	f8c3 6518 	str.w	r6, [r3, #1304]	; 0x518
    1806:	bb05      	cbnz	r5, 184a <nrfx_i2s_init+0x86>
    1808:	2200      	movs	r2, #0
    180a:	f8c3 2510 	str.w	r2, [r3, #1296]	; 0x510
    180e:	7983      	ldrb	r3, [r0, #6]
    1810:	b313      	cbz	r3, 1858 <nrfx_i2s_init+0x94>
    1812:	7803      	ldrb	r3, [r0, #0]
    1814:	f04f 42a0 	mov.w	r2, #1342177280	; 0x50000000
    1818:	f503 73e0 	add.w	r3, r3, #448	; 0x1c0
    181c:	2400      	movs	r4, #0
    181e:	f842 4023 	str.w	r4, [r2, r3, lsl #2]
    1822:	7843      	ldrb	r3, [r0, #1]
    1824:	f503 73e0 	add.w	r3, r3, #448	; 0x1c0
    1828:	f842 4023 	str.w	r4, [r2, r3, lsl #2]
    182c:	e021      	b.n	1872 <nrfx_i2s_init+0xae>
    182e:	2e01      	cmp	r6, #1
    1830:	d1dc      	bne.n	17ec <nrfx_i2s_init+0x28>
    1832:	2007      	movs	r0, #7
    1834:	e058      	b.n	18e8 <nrfx_i2s_init+0x124>
    1836:	2e08      	cmp	r6, #8
    1838:	d8d8      	bhi.n	17ec <nrfx_i2s_init+0x28>
    183a:	f240 1355 	movw	r3, #341	; 0x155
    183e:	40f3      	lsrs	r3, r6
    1840:	f013 0f01 	tst.w	r3, #1
    1844:	d0d2      	beq.n	17ec <nrfx_i2s_init+0x28>
    1846:	2007      	movs	r0, #7
    1848:	e04e      	b.n	18e8 <nrfx_i2s_init+0x124>
    184a:	4b2e      	ldr	r3, [pc, #184]	; (1904 <nrfx_i2s_init+0x140>)
    184c:	f8c3 5514 	str.w	r5, [r3, #1300]	; 0x514
    1850:	2201      	movs	r2, #1
    1852:	f8c3 2510 	str.w	r2, [r3, #1296]	; 0x510
    1856:	e7da      	b.n	180e <nrfx_i2s_init+0x4a>
    1858:	7803      	ldrb	r3, [r0, #0]
    185a:	f04f 42a0 	mov.w	r2, #1342177280	; 0x50000000
    185e:	f503 73e0 	add.w	r3, r3, #448	; 0x1c0
    1862:	2403      	movs	r4, #3
    1864:	f842 4023 	str.w	r4, [r2, r3, lsl #2]
    1868:	7843      	ldrb	r3, [r0, #1]
    186a:	f503 73e0 	add.w	r3, r3, #448	; 0x1c0
    186e:	f842 4023 	str.w	r4, [r2, r3, lsl #2]
    1872:	7883      	ldrb	r3, [r0, #2]
    1874:	2bff      	cmp	r3, #255	; 0xff
    1876:	d038      	beq.n	18ea <nrfx_i2s_init+0x126>
    1878:	461d      	mov	r5, r3
    187a:	f503 73e0 	add.w	r3, r3, #448	; 0x1c0
    187e:	f04f 42a0 	mov.w	r2, #1342177280	; 0x50000000
    1882:	2403      	movs	r4, #3
    1884:	f842 4023 	str.w	r4, [r2, r3, lsl #2]
    1888:	78c3      	ldrb	r3, [r0, #3]
    188a:	2bff      	cmp	r3, #255	; 0xff
    188c:	d030      	beq.n	18f0 <nrfx_i2s_init+0x12c>
    188e:	461c      	mov	r4, r3
    1890:	f503 73e0 	add.w	r3, r3, #448	; 0x1c0
    1894:	f04f 42a0 	mov.w	r2, #1342177280	; 0x50000000
    1898:	2603      	movs	r6, #3
    189a:	f842 6023 	str.w	r6, [r2, r3, lsl #2]
    189e:	7903      	ldrb	r3, [r0, #4]
    18a0:	2bff      	cmp	r3, #255	; 0xff
    18a2:	d028      	beq.n	18f6 <nrfx_i2s_init+0x132>
    18a4:	461a      	mov	r2, r3
    18a6:	f503 73e0 	add.w	r3, r3, #448	; 0x1c0
    18aa:	f04f 46a0 	mov.w	r6, #1342177280	; 0x50000000
    18ae:	2700      	movs	r7, #0
    18b0:	f846 7023 	str.w	r7, [r6, r3, lsl #2]
    18b4:	7807      	ldrb	r7, [r0, #0]
    18b6:	7846      	ldrb	r6, [r0, #1]
    18b8:	4b12      	ldr	r3, [pc, #72]	; (1904 <nrfx_i2s_init+0x140>)
    18ba:	f8c3 7564 	str.w	r7, [r3, #1380]	; 0x564
    18be:	f8c3 6568 	str.w	r6, [r3, #1384]	; 0x568
    18c2:	f8c3 5560 	str.w	r5, [r3, #1376]	; 0x560
    18c6:	f8c3 4570 	str.w	r4, [r3, #1392]	; 0x570
    18ca:	f8c3 256c 	str.w	r2, [r3, #1388]	; 0x56c
    18ce:	4a0c      	ldr	r2, [pc, #48]	; (1900 <nrfx_i2s_init+0x13c>)
    18d0:	6011      	str	r1, [r2, #0]
    18d2:	7943      	ldrb	r3, [r0, #5]
    18d4:	015b      	lsls	r3, r3, #5
    18d6:	b2db      	uxtb	r3, r3
    18d8:	490b      	ldr	r1, [pc, #44]	; (1908 <nrfx_i2s_init+0x144>)
    18da:	f881 3325 	strb.w	r3, [r1, #805]	; 0x325
    18de:	2320      	movs	r3, #32
    18e0:	604b      	str	r3, [r1, #4]
    18e2:	2301      	movs	r3, #1
    18e4:	7113      	strb	r3, [r2, #4]
    18e6:	2000      	movs	r0, #0
    18e8:	bdf0      	pop	{r4, r5, r6, r7, pc}
    18ea:	f04f 35ff 	mov.w	r5, #4294967295	; 0xffffffff
    18ee:	e7cb      	b.n	1888 <nrfx_i2s_init+0xc4>
    18f0:	f04f 34ff 	mov.w	r4, #4294967295	; 0xffffffff
    18f4:	e7d3      	b.n	189e <nrfx_i2s_init+0xda>
    18f6:	f04f 32ff 	mov.w	r2, #4294967295	; 0xffffffff
    18fa:	e7db      	b.n	18b4 <nrfx_i2s_init+0xf0>
    18fc:	2008      	movs	r0, #8
    18fe:	4770      	bx	lr
    1900:	20000648 	.word	0x20000648
    1904:	40025000 	.word	0x40025000
    1908:	e000e100 	.word	0xe000e100

0000190c <nrfx_i2s_start>:
    190c:	4b39      	ldr	r3, [pc, #228]	; (19f4 <nrfx_i2s_start+0xe8>)
    190e:	791b      	ldrb	r3, [r3, #4]
    1910:	2b01      	cmp	r3, #1
    1912:	d168      	bne.n	19e6 <nrfx_i2s_start+0xda>
    1914:	b430      	push	{r4, r5}
    1916:	b084      	sub	sp, #16
    1918:	460c      	mov	r4, r1
    191a:	6803      	ldr	r3, [r0, #0]
    191c:	b123      	cbz	r3, 1928 <nrfx_i2s_start+0x1c>
    191e:	f003 4260 	and.w	r2, r3, #3758096384	; 0xe0000000
    1922:	f1b2 5f00 	cmp.w	r2, #536870912	; 0x20000000
    1926:	d160      	bne.n	19ea <nrfx_i2s_start+0xde>
    1928:	6842      	ldr	r2, [r0, #4]
    192a:	b122      	cbz	r2, 1936 <nrfx_i2s_start+0x2a>
    192c:	f002 4260 	and.w	r2, r2, #3758096384	; 0xe0000000
    1930:	f1b2 5f00 	cmp.w	r2, #536870912	; 0x20000000
    1934:	d15b      	bne.n	19ee <nrfx_i2s_start+0xe2>
    1936:	4a2f      	ldr	r2, [pc, #188]	; (19f4 <nrfx_i2s_start+0xe8>)
    1938:	3b00      	subs	r3, #0
    193a:	bf18      	it	ne
    193c:	2301      	movne	r3, #1
    193e:	7951      	ldrb	r1, [r2, #5]
    1940:	f363 0100 	bfi	r1, r3, #0, #1
    1944:	7151      	strb	r1, [r2, #5]
    1946:	6843      	ldr	r3, [r0, #4]
    1948:	1e19      	subs	r1, r3, #0
    194a:	bf18      	it	ne
    194c:	2101      	movne	r1, #1
    194e:	7953      	ldrb	r3, [r2, #5]
    1950:	f361 0341 	bfi	r3, r1, #1, #1
    1954:	f003 03f3 	and.w	r3, r3, #243	; 0xf3
    1958:	f36f 1304 	bfc	r3, #4, #1
    195c:	7153      	strb	r3, [r2, #5]
    195e:	80d4      	strh	r4, [r2, #6]
    1960:	f102 0308 	add.w	r3, r2, #8
    1964:	c803      	ldmia	r0, {r0, r1}
    1966:	e883 0003 	stmia.w	r3, {r0, r1}
    196a:	2000      	movs	r0, #0
    196c:	6110      	str	r0, [r2, #16]
    196e:	6150      	str	r0, [r2, #20]
    1970:	6895      	ldr	r5, [r2, #8]
    1972:	68d1      	ldr	r1, [r2, #12]
    1974:	4b20      	ldr	r3, [pc, #128]	; (19f8 <nrfx_i2s_start+0xec>)
    1976:	f8c3 4550 	str.w	r4, [r3, #1360]	; 0x550
    197a:	f8c3 5538 	str.w	r5, [r3, #1336]	; 0x538
    197e:	1a2d      	subs	r5, r5, r0
    1980:	bf18      	it	ne
    1982:	2501      	movne	r5, #1
    1984:	f8c3 5508 	str.w	r5, [r3, #1288]	; 0x508
    1988:	f8c3 1540 	str.w	r1, [r3, #1344]	; 0x540
    198c:	1a09      	subs	r1, r1, r0
    198e:	bf18      	it	ne
    1990:	2101      	movne	r1, #1
    1992:	f8c3 150c 	str.w	r1, [r3, #1292]	; 0x50c
    1996:	2401      	movs	r4, #1
    1998:	f8c3 4500 	str.w	r4, [r3, #1280]	; 0x500
    199c:	2102      	movs	r1, #2
    199e:	7111      	strb	r1, [r2, #4]
    19a0:	f8c3 0104 	str.w	r0, [r3, #260]	; 0x104
    19a4:	f8d3 1104 	ldr.w	r1, [r3, #260]	; 0x104
    19a8:	9103      	str	r1, [sp, #12]
    19aa:	9903      	ldr	r1, [sp, #12]
    19ac:	f8c3 0114 	str.w	r0, [r3, #276]	; 0x114
    19b0:	f8d3 1114 	ldr.w	r1, [r3, #276]	; 0x114
    19b4:	9102      	str	r1, [sp, #8]
    19b6:	9902      	ldr	r1, [sp, #8]
    19b8:	f8c3 0108 	str.w	r0, [r3, #264]	; 0x108
    19bc:	f8d3 1108 	ldr.w	r1, [r3, #264]	; 0x108
    19c0:	9101      	str	r1, [sp, #4]
    19c2:	9901      	ldr	r1, [sp, #4]
    19c4:	7951      	ldrb	r1, [r2, #5]
    19c6:	fa01 f204 	lsl.w	r2, r1, r4
    19ca:	f002 0202 	and.w	r2, r2, #2
    19ce:	0109      	lsls	r1, r1, #4
    19d0:	f001 0120 	and.w	r1, r1, #32
    19d4:	430a      	orrs	r2, r1
    19d6:	f042 0204 	orr.w	r2, r2, #4
    19da:	f8c3 2304 	str.w	r2, [r3, #772]	; 0x304
    19de:	601c      	str	r4, [r3, #0]
    19e0:	b004      	add	sp, #16
    19e2:	bc30      	pop	{r4, r5}
    19e4:	4770      	bx	lr
    19e6:	2008      	movs	r0, #8
    19e8:	4770      	bx	lr
    19ea:	2010      	movs	r0, #16
    19ec:	e7f8      	b.n	19e0 <nrfx_i2s_start+0xd4>
    19ee:	2010      	movs	r0, #16
    19f0:	e7f6      	b.n	19e0 <nrfx_i2s_start+0xd4>
    19f2:	bf00      	nop
    19f4:	20000648 	.word	0x20000648
    19f8:	40025000 	.word	0x40025000

000019fc <nrfx_i2s_next_buffers_set>:
    19fc:	4b19      	ldr	r3, [pc, #100]	; (1a64 <nrfx_i2s_next_buffers_set+0x68>)
    19fe:	795b      	ldrb	r3, [r3, #5]
    1a00:	f013 0f10 	tst.w	r3, #16
    1a04:	d028      	beq.n	1a58 <nrfx_i2s_next_buffers_set+0x5c>
    1a06:	6803      	ldr	r3, [r0, #0]
    1a08:	b123      	cbz	r3, 1a14 <nrfx_i2s_next_buffers_set+0x18>
    1a0a:	f003 4360 	and.w	r3, r3, #3758096384	; 0xe0000000
    1a0e:	f1b3 5f00 	cmp.w	r3, #536870912	; 0x20000000
    1a12:	d123      	bne.n	1a5c <nrfx_i2s_next_buffers_set+0x60>
    1a14:	6843      	ldr	r3, [r0, #4]
    1a16:	b123      	cbz	r3, 1a22 <nrfx_i2s_next_buffers_set+0x26>
    1a18:	f003 4260 	and.w	r2, r3, #3758096384	; 0xe0000000
    1a1c:	f1b2 5f00 	cmp.w	r2, #536870912	; 0x20000000
    1a20:	d11e      	bne.n	1a60 <nrfx_i2s_next_buffers_set+0x64>
    1a22:	4a10      	ldr	r2, [pc, #64]	; (1a64 <nrfx_i2s_next_buffers_set+0x68>)
    1a24:	7952      	ldrb	r2, [r2, #5]
    1a26:	f012 0f02 	tst.w	r2, #2
    1a2a:	bf1c      	itt	ne
    1a2c:	490e      	ldrne	r1, [pc, #56]	; (1a68 <nrfx_i2s_next_buffers_set+0x6c>)
    1a2e:	f8c1 3540 	strne.w	r3, [r1, #1344]	; 0x540
    1a32:	f012 0f01 	tst.w	r2, #1
    1a36:	d003      	beq.n	1a40 <nrfx_i2s_next_buffers_set+0x44>
    1a38:	6802      	ldr	r2, [r0, #0]
    1a3a:	4b0b      	ldr	r3, [pc, #44]	; (1a68 <nrfx_i2s_next_buffers_set+0x6c>)
    1a3c:	f8c3 2538 	str.w	r2, [r3, #1336]	; 0x538
    1a40:	4b08      	ldr	r3, [pc, #32]	; (1a64 <nrfx_i2s_next_buffers_set+0x68>)
    1a42:	f103 0208 	add.w	r2, r3, #8
    1a46:	c803      	ldmia	r0, {r0, r1}
    1a48:	e882 0003 	stmia.w	r2, {r0, r1}
    1a4c:	795a      	ldrb	r2, [r3, #5]
    1a4e:	f36f 1204 	bfc	r2, #4, #1
    1a52:	715a      	strb	r2, [r3, #5]
    1a54:	2000      	movs	r0, #0
    1a56:	4770      	bx	lr
    1a58:	2008      	movs	r0, #8
    1a5a:	4770      	bx	lr
    1a5c:	2010      	movs	r0, #16
    1a5e:	4770      	bx	lr
    1a60:	2010      	movs	r0, #16
    1a62:	4770      	bx	lr
    1a64:	20000648 	.word	0x20000648
    1a68:	40025000 	.word	0x40025000

00001a6c <nrfx_i2s_stop>:
    1a6c:	4b06      	ldr	r3, [pc, #24]	; (1a88 <nrfx_i2s_stop+0x1c>)
    1a6e:	795a      	ldrb	r2, [r3, #5]
    1a70:	f36f 1204 	bfc	r2, #4, #1
    1a74:	715a      	strb	r2, [r3, #5]
    1a76:	4b05      	ldr	r3, [pc, #20]	; (1a8c <nrfx_i2s_stop+0x20>)
    1a78:	2222      	movs	r2, #34	; 0x22
    1a7a:	f8c3 2308 	str.w	r2, [r3, #776]	; 0x308
    1a7e:	2201      	movs	r2, #1
    1a80:	605a      	str	r2, [r3, #4]
    1a82:	639a      	str	r2, [r3, #56]	; 0x38
    1a84:	63da      	str	r2, [r3, #60]	; 0x3c
    1a86:	4770      	bx	lr
    1a88:	20000648 	.word	0x20000648
    1a8c:	40025000 	.word	0x40025000

00001a90 <I2S_IRQHandler>:
    1a90:	b530      	push	{r4, r5, lr}
    1a92:	b085      	sub	sp, #20
    1a94:	4b4a      	ldr	r3, [pc, #296]	; (1bc0 <I2S_IRQHandler+0x130>)
    1a96:	f8d3 3114 	ldr.w	r3, [r3, #276]	; 0x114
    1a9a:	b183      	cbz	r3, 1abe <I2S_IRQHandler+0x2e>
    1a9c:	4b48      	ldr	r3, [pc, #288]	; (1bc0 <I2S_IRQHandler+0x130>)
    1a9e:	2200      	movs	r2, #0
    1aa0:	f8c3 2114 	str.w	r2, [r3, #276]	; 0x114
    1aa4:	f8d3 3114 	ldr.w	r3, [r3, #276]	; 0x114
    1aa8:	9300      	str	r3, [sp, #0]
    1aaa:	9b00      	ldr	r3, [sp, #0]
    1aac:	4a45      	ldr	r2, [pc, #276]	; (1bc4 <I2S_IRQHandler+0x134>)
    1aae:	7953      	ldrb	r3, [r2, #5]
    1ab0:	f043 0308 	orr.w	r3, r3, #8
    1ab4:	7153      	strb	r3, [r2, #5]
    1ab6:	f003 0312 	and.w	r3, r3, #18
    1aba:	2b12      	cmp	r3, #18
    1abc:	d034      	beq.n	1b28 <I2S_IRQHandler+0x98>
    1abe:	4b40      	ldr	r3, [pc, #256]	; (1bc0 <I2S_IRQHandler+0x130>)
    1ac0:	f8d3 3104 	ldr.w	r3, [r3, #260]	; 0x104
    1ac4:	b183      	cbz	r3, 1ae8 <I2S_IRQHandler+0x58>
    1ac6:	4b3e      	ldr	r3, [pc, #248]	; (1bc0 <I2S_IRQHandler+0x130>)
    1ac8:	2200      	movs	r2, #0
    1aca:	f8c3 2104 	str.w	r2, [r3, #260]	; 0x104
    1ace:	f8d3 3104 	ldr.w	r3, [r3, #260]	; 0x104
    1ad2:	9301      	str	r3, [sp, #4]
    1ad4:	9b01      	ldr	r3, [sp, #4]
    1ad6:	4a3b      	ldr	r2, [pc, #236]	; (1bc4 <I2S_IRQHandler+0x134>)
    1ad8:	7953      	ldrb	r3, [r2, #5]
    1ada:	f043 0304 	orr.w	r3, r3, #4
    1ade:	7153      	strb	r3, [r2, #5]
    1ae0:	f003 0311 	and.w	r3, r3, #17
    1ae4:	2b11      	cmp	r3, #17
    1ae6:	d024      	beq.n	1b32 <I2S_IRQHandler+0xa2>
    1ae8:	4b35      	ldr	r3, [pc, #212]	; (1bc0 <I2S_IRQHandler+0x130>)
    1aea:	f8d3 3108 	ldr.w	r3, [r3, #264]	; 0x108
    1aee:	b32b      	cbz	r3, 1b3c <I2S_IRQHandler+0xac>
    1af0:	4b33      	ldr	r3, [pc, #204]	; (1bc0 <I2S_IRQHandler+0x130>)
    1af2:	2400      	movs	r4, #0
    1af4:	f8c3 4108 	str.w	r4, [r3, #264]	; 0x108
    1af8:	f8d3 2108 	ldr.w	r2, [r3, #264]	; 0x108
    1afc:	9202      	str	r2, [sp, #8]
    1afe:	9a02      	ldr	r2, [sp, #8]
    1b00:	2204      	movs	r2, #4
    1b02:	f8c3 2308 	str.w	r2, [r3, #776]	; 0x308
    1b06:	f8c3 4500 	str.w	r4, [r3, #1280]	; 0x500
    1b0a:	4d2e      	ldr	r5, [pc, #184]	; (1bc4 <I2S_IRQHandler+0x134>)
    1b0c:	4628      	mov	r0, r5
    1b0e:	f850 3b10 	ldr.w	r3, [r0], #16
    1b12:	4621      	mov	r1, r4
    1b14:	4798      	blx	r3
    1b16:	4628      	mov	r0, r5
    1b18:	f850 3b08 	ldr.w	r3, [r0], #8
    1b1c:	4621      	mov	r1, r4
    1b1e:	4798      	blx	r3
    1b20:	2301      	movs	r3, #1
    1b22:	712b      	strb	r3, [r5, #4]
    1b24:	b005      	add	sp, #20
    1b26:	bd30      	pop	{r4, r5, pc}
    1b28:	7953      	ldrb	r3, [r2, #5]
    1b2a:	f043 0320 	orr.w	r3, r3, #32
    1b2e:	7153      	strb	r3, [r2, #5]
    1b30:	e7c5      	b.n	1abe <I2S_IRQHandler+0x2e>
    1b32:	7953      	ldrb	r3, [r2, #5]
    1b34:	f043 0320 	orr.w	r3, r3, #32
    1b38:	7153      	strb	r3, [r2, #5]
    1b3a:	e7d5      	b.n	1ae8 <I2S_IRQHandler+0x58>
    1b3c:	4b21      	ldr	r3, [pc, #132]	; (1bc4 <I2S_IRQHandler+0x134>)
    1b3e:	795b      	ldrb	r3, [r3, #5]
    1b40:	f003 020f 	and.w	r2, r3, #15
    1b44:	2a0f      	cmp	r2, #15
    1b46:	d00d      	beq.n	1b64 <I2S_IRQHandler+0xd4>
    1b48:	f013 0f01 	tst.w	r3, #1
    1b4c:	d102      	bne.n	1b54 <I2S_IRQHandler+0xc4>
    1b4e:	f013 0f08 	tst.w	r3, #8
    1b52:	d107      	bne.n	1b64 <I2S_IRQHandler+0xd4>
    1b54:	4a1b      	ldr	r2, [pc, #108]	; (1bc4 <I2S_IRQHandler+0x134>)
    1b56:	7952      	ldrb	r2, [r2, #5]
    1b58:	f012 0f02 	tst.w	r2, #2
    1b5c:	d1e2      	bne.n	1b24 <I2S_IRQHandler+0x94>
    1b5e:	f013 0f04 	tst.w	r3, #4
    1b62:	d0df      	beq.n	1b24 <I2S_IRQHandler+0x94>
    1b64:	4a17      	ldr	r2, [pc, #92]	; (1bc4 <I2S_IRQHandler+0x134>)
    1b66:	7953      	ldrb	r3, [r2, #5]
    1b68:	f003 03f7 	and.w	r3, r3, #247	; 0xf7
    1b6c:	f36f 0382 	bfc	r3, #2, #1
    1b70:	7153      	strb	r3, [r2, #5]
    1b72:	f013 0f20 	tst.w	r3, #32
    1b76:	d00a      	beq.n	1b8e <I2S_IRQHandler+0xfe>
    1b78:	b2db      	uxtb	r3, r3
    1b7a:	f003 03df 	and.w	r3, r3, #223	; 0xdf
    1b7e:	f043 0310 	orr.w	r3, r3, #16
    1b82:	7153      	strb	r3, [r2, #5]
    1b84:	6813      	ldr	r3, [r2, #0]
    1b86:	2101      	movs	r1, #1
    1b88:	2000      	movs	r0, #0
    1b8a:	4798      	blx	r3
    1b8c:	e7ca      	b.n	1b24 <I2S_IRQHandler+0x94>
    1b8e:	4b0d      	ldr	r3, [pc, #52]	; (1bc4 <I2S_IRQHandler+0x134>)
    1b90:	ac02      	add	r4, sp, #8
    1b92:	f103 0210 	add.w	r2, r3, #16
    1b96:	e892 0003 	ldmia.w	r2, {r0, r1}
    1b9a:	e884 0003 	stmia.w	r4, {r0, r1}
    1b9e:	f103 0108 	add.w	r1, r3, #8
    1ba2:	c903      	ldmia	r1, {r0, r1}
    1ba4:	e882 0003 	stmia.w	r2, {r0, r1}
    1ba8:	2200      	movs	r2, #0
    1baa:	609a      	str	r2, [r3, #8]
    1bac:	60da      	str	r2, [r3, #12]
    1bae:	795a      	ldrb	r2, [r3, #5]
    1bb0:	f042 0210 	orr.w	r2, r2, #16
    1bb4:	715a      	strb	r2, [r3, #5]
    1bb6:	681b      	ldr	r3, [r3, #0]
    1bb8:	2101      	movs	r1, #1
    1bba:	4620      	mov	r0, r4
    1bbc:	4798      	blx	r3
    1bbe:	e7b1      	b.n	1b24 <I2S_IRQHandler+0x94>
    1bc0:	40025000 	.word	0x40025000
    1bc4:	20000648 	.word	0x20000648

00001bc8 <UARTE0_UART0_IRQHandler>:
    1bc8:	b508      	push	{r3, lr}
    1bca:	4b02      	ldr	r3, [pc, #8]	; (1bd4 <UARTE0_UART0_IRQHandler+0xc>)
    1bcc:	681b      	ldr	r3, [r3, #0]
    1bce:	4798      	blx	r3
    1bd0:	bd08      	pop	{r3, pc}
    1bd2:	bf00      	nop
    1bd4:	20000660 	.word	0x20000660

00001bd8 <nrfx_prs_acquire>:
    1bd8:	4b0d      	ldr	r3, [pc, #52]	; (1c10 <nrfx_prs_acquire+0x38>)
    1bda:	4298      	cmp	r0, r3
    1bdc:	d110      	bne.n	1c00 <nrfx_prs_acquire+0x28>
    1bde:	b510      	push	{r4, lr}
    1be0:	460c      	mov	r4, r1
    1be2:	2000      	movs	r0, #0
    1be4:	f7ff f9d6 	bl	f94 <app_util_critical_region_enter>
    1be8:	4b0a      	ldr	r3, [pc, #40]	; (1c14 <nrfx_prs_acquire+0x3c>)
    1bea:	791b      	ldrb	r3, [r3, #4]
    1bec:	b953      	cbnz	r3, 1c04 <nrfx_prs_acquire+0x2c>
    1bee:	4b09      	ldr	r3, [pc, #36]	; (1c14 <nrfx_prs_acquire+0x3c>)
    1bf0:	601c      	str	r4, [r3, #0]
    1bf2:	2201      	movs	r2, #1
    1bf4:	711a      	strb	r2, [r3, #4]
    1bf6:	2000      	movs	r0, #0
    1bf8:	f7ff f9d0 	bl	f9c <app_util_critical_region_exit>
    1bfc:	2000      	movs	r0, #0
    1bfe:	bd10      	pop	{r4, pc}
    1c00:	2000      	movs	r0, #0
    1c02:	4770      	bx	lr
    1c04:	2000      	movs	r0, #0
    1c06:	f7ff f9c9 	bl	f9c <app_util_critical_region_exit>
    1c0a:	2011      	movs	r0, #17
    1c0c:	e7f7      	b.n	1bfe <nrfx_prs_acquire+0x26>
    1c0e:	bf00      	nop
    1c10:	40002000 	.word	0x40002000
    1c14:	20000660 	.word	0x20000660

00001c18 <nrfx_prs_release>:
    1c18:	4b03      	ldr	r3, [pc, #12]	; (1c28 <nrfx_prs_release+0x10>)
    1c1a:	4298      	cmp	r0, r3
    1c1c:	d103      	bne.n	1c26 <nrfx_prs_release+0xe>
    1c1e:	4b03      	ldr	r3, [pc, #12]	; (1c2c <nrfx_prs_release+0x14>)
    1c20:	2200      	movs	r2, #0
    1c22:	601a      	str	r2, [r3, #0]
    1c24:	711a      	strb	r2, [r3, #4]
    1c26:	4770      	bx	lr
    1c28:	40002000 	.word	0x40002000
    1c2c:	20000660 	.word	0x20000660

00001c30 <tx_byte>:
    1c30:	b082      	sub	sp, #8
    1c32:	2300      	movs	r3, #0
    1c34:	f8c0 311c 	str.w	r3, [r0, #284]	; 0x11c
    1c38:	f8d0 311c 	ldr.w	r3, [r0, #284]	; 0x11c
    1c3c:	9301      	str	r3, [sp, #4]
    1c3e:	9b01      	ldr	r3, [sp, #4]
    1c40:	6a0b      	ldr	r3, [r1, #32]
    1c42:	688a      	ldr	r2, [r1, #8]
    1c44:	5cd2      	ldrb	r2, [r2, r3]
    1c46:	6a0b      	ldr	r3, [r1, #32]
    1c48:	3301      	adds	r3, #1
    1c4a:	620b      	str	r3, [r1, #32]
    1c4c:	f8c0 251c 	str.w	r2, [r0, #1308]	; 0x51c
    1c50:	b002      	add	sp, #8
    1c52:	4770      	bx	lr

00001c54 <rx_byte>:
    1c54:	b082      	sub	sp, #8
    1c56:	698b      	ldr	r3, [r1, #24]
    1c58:	b183      	cbz	r3, 1c7c <rx_byte+0x28>
    1c5a:	2300      	movs	r3, #0
    1c5c:	f8c0 3108 	str.w	r3, [r0, #264]	; 0x108
    1c60:	f8d0 3108 	ldr.w	r3, [r0, #264]	; 0x108
    1c64:	9301      	str	r3, [sp, #4]
    1c66:	9b01      	ldr	r3, [sp, #4]
    1c68:	6a4b      	ldr	r3, [r1, #36]	; 0x24
    1c6a:	f8d0 0518 	ldr.w	r0, [r0, #1304]	; 0x518
    1c6e:	68ca      	ldr	r2, [r1, #12]
    1c70:	54d0      	strb	r0, [r2, r3]
    1c72:	6a4b      	ldr	r3, [r1, #36]	; 0x24
    1c74:	3301      	adds	r3, #1
    1c76:	624b      	str	r3, [r1, #36]	; 0x24
    1c78:	b002      	add	sp, #8
    1c7a:	4770      	bx	lr
    1c7c:	f8c0 3108 	str.w	r3, [r0, #264]	; 0x108
    1c80:	f8d0 3108 	ldr.w	r3, [r0, #264]	; 0x108
    1c84:	9300      	str	r3, [sp, #0]
    1c86:	9b00      	ldr	r3, [sp, #0]
    1c88:	f8d0 3518 	ldr.w	r3, [r0, #1304]	; 0x518
    1c8c:	e7f4      	b.n	1c78 <rx_byte+0x24>

00001c8e <rx_done_event>:
    1c8e:	b500      	push	{lr}
    1c90:	b085      	sub	sp, #20
    1c92:	2301      	movs	r3, #1
    1c94:	f88d 3000 	strb.w	r3, [sp]
    1c98:	9102      	str	r1, [sp, #8]
    1c9a:	9201      	str	r2, [sp, #4]
    1c9c:	6843      	ldr	r3, [r0, #4]
    1c9e:	6801      	ldr	r1, [r0, #0]
    1ca0:	4668      	mov	r0, sp
    1ca2:	4798      	blx	r3
    1ca4:	b005      	add	sp, #20
    1ca6:	f85d fb04 	ldr.w	pc, [sp], #4
	...

00001cac <nrfx_uart_0_irq_handler>:
    1cac:	b510      	push	{r4, lr}
    1cae:	b086      	sub	sp, #24
    1cb0:	4b5a      	ldr	r3, [pc, #360]	; (1e1c <nrfx_uart_0_irq_handler+0x170>)
    1cb2:	f8d3 3304 	ldr.w	r3, [r3, #772]	; 0x304
    1cb6:	f413 7f00 	tst.w	r3, #512	; 0x200
    1cba:	d02c      	beq.n	1d16 <nrfx_uart_0_irq_handler+0x6a>
    1cbc:	4b57      	ldr	r3, [pc, #348]	; (1e1c <nrfx_uart_0_irq_handler+0x170>)
    1cbe:	f8d3 3124 	ldr.w	r3, [r3, #292]	; 0x124
    1cc2:	b343      	cbz	r3, 1d16 <nrfx_uart_0_irq_handler+0x6a>
    1cc4:	4b55      	ldr	r3, [pc, #340]	; (1e1c <nrfx_uart_0_irq_handler+0x170>)
    1cc6:	2200      	movs	r2, #0
    1cc8:	f8c3 2124 	str.w	r2, [r3, #292]	; 0x124
    1ccc:	f8d3 2124 	ldr.w	r2, [r3, #292]	; 0x124
    1cd0:	9200      	str	r2, [sp, #0]
    1cd2:	9a00      	ldr	r2, [sp, #0]
    1cd4:	f44f 7201 	mov.w	r2, #516	; 0x204
    1cd8:	f8c3 2308 	str.w	r2, [r3, #776]	; 0x308
    1cdc:	4b50      	ldr	r3, [pc, #320]	; (1e20 <nrfx_uart_0_irq_handler+0x174>)
    1cde:	f893 3029 	ldrb.w	r3, [r3, #41]	; 0x29
    1ce2:	b913      	cbnz	r3, 1cea <nrfx_uart_0_irq_handler+0x3e>
    1ce4:	4b4d      	ldr	r3, [pc, #308]	; (1e1c <nrfx_uart_0_irq_handler+0x170>)
    1ce6:	2201      	movs	r2, #1
    1ce8:	605a      	str	r2, [r3, #4]
    1cea:	2302      	movs	r3, #2
    1cec:	f88d 3008 	strb.w	r3, [sp, #8]
    1cf0:	4a4a      	ldr	r2, [pc, #296]	; (1e1c <nrfx_uart_0_irq_handler+0x170>)
    1cf2:	f8d2 3480 	ldr.w	r3, [r2, #1152]	; 0x480
    1cf6:	f8c2 3480 	str.w	r3, [r2, #1152]	; 0x480
    1cfa:	9305      	str	r3, [sp, #20]
    1cfc:	4b48      	ldr	r3, [pc, #288]	; (1e20 <nrfx_uart_0_irq_handler+0x174>)
    1cfe:	699a      	ldr	r2, [r3, #24]
    1d00:	9204      	str	r2, [sp, #16]
    1d02:	68da      	ldr	r2, [r3, #12]
    1d04:	9203      	str	r2, [sp, #12]
    1d06:	2200      	movs	r2, #0
    1d08:	619a      	str	r2, [r3, #24]
    1d0a:	61da      	str	r2, [r3, #28]
    1d0c:	685a      	ldr	r2, [r3, #4]
    1d0e:	6819      	ldr	r1, [r3, #0]
    1d10:	a802      	add	r0, sp, #8
    1d12:	4790      	blx	r2
    1d14:	e00a      	b.n	1d2c <nrfx_uart_0_irq_handler+0x80>
    1d16:	4b41      	ldr	r3, [pc, #260]	; (1e1c <nrfx_uart_0_irq_handler+0x170>)
    1d18:	f8d3 3304 	ldr.w	r3, [r3, #772]	; 0x304
    1d1c:	f013 0f04 	tst.w	r3, #4
    1d20:	d004      	beq.n	1d2c <nrfx_uart_0_irq_handler+0x80>
    1d22:	4b3e      	ldr	r3, [pc, #248]	; (1e1c <nrfx_uart_0_irq_handler+0x170>)
    1d24:	f8d3 3108 	ldr.w	r3, [r3, #264]	; 0x108
    1d28:	2b00      	cmp	r3, #0
    1d2a:	d132      	bne.n	1d92 <nrfx_uart_0_irq_handler+0xe6>
    1d2c:	4b3b      	ldr	r3, [pc, #236]	; (1e1c <nrfx_uart_0_irq_handler+0x170>)
    1d2e:	f8d3 311c 	ldr.w	r3, [r3, #284]	; 0x11c
    1d32:	b1ab      	cbz	r3, 1d60 <nrfx_uart_0_irq_handler+0xb4>
    1d34:	4b3a      	ldr	r3, [pc, #232]	; (1e20 <nrfx_uart_0_irq_handler+0x174>)
    1d36:	695a      	ldr	r2, [r3, #20]
    1d38:	6a1b      	ldr	r3, [r3, #32]
    1d3a:	429a      	cmp	r2, r3
    1d3c:	d904      	bls.n	1d48 <nrfx_uart_0_irq_handler+0x9c>
    1d3e:	4b38      	ldr	r3, [pc, #224]	; (1e20 <nrfx_uart_0_irq_handler+0x174>)
    1d40:	f893 3028 	ldrb.w	r3, [r3, #40]	; 0x28
    1d44:	2b00      	cmp	r3, #0
    1d46:	d04f      	beq.n	1de8 <nrfx_uart_0_irq_handler+0x13c>
    1d48:	4b34      	ldr	r3, [pc, #208]	; (1e1c <nrfx_uart_0_irq_handler+0x170>)
    1d4a:	2200      	movs	r2, #0
    1d4c:	f8c3 211c 	str.w	r2, [r3, #284]	; 0x11c
    1d50:	f8d3 311c 	ldr.w	r3, [r3, #284]	; 0x11c
    1d54:	9301      	str	r3, [sp, #4]
    1d56:	9b01      	ldr	r3, [sp, #4]
    1d58:	4b31      	ldr	r3, [pc, #196]	; (1e20 <nrfx_uart_0_irq_handler+0x174>)
    1d5a:	695b      	ldr	r3, [r3, #20]
    1d5c:	2b00      	cmp	r3, #0
    1d5e:	d148      	bne.n	1df2 <nrfx_uart_0_irq_handler+0x146>
    1d60:	4b2e      	ldr	r3, [pc, #184]	; (1e1c <nrfx_uart_0_irq_handler+0x170>)
    1d62:	f8d3 3144 	ldr.w	r3, [r3, #324]	; 0x144
    1d66:	b193      	cbz	r3, 1d8e <nrfx_uart_0_irq_handler+0xe2>
    1d68:	4b2c      	ldr	r3, [pc, #176]	; (1e1c <nrfx_uart_0_irq_handler+0x170>)
    1d6a:	2200      	movs	r2, #0
    1d6c:	f8c3 2144 	str.w	r2, [r3, #324]	; 0x144
    1d70:	f8d3 3144 	ldr.w	r3, [r3, #324]	; 0x144
    1d74:	9302      	str	r3, [sp, #8]
    1d76:	9b02      	ldr	r3, [sp, #8]
    1d78:	4b29      	ldr	r3, [pc, #164]	; (1e20 <nrfx_uart_0_irq_handler+0x174>)
    1d7a:	f893 3029 	ldrb.w	r3, [r3, #41]	; 0x29
    1d7e:	b113      	cbz	r3, 1d86 <nrfx_uart_0_irq_handler+0xda>
    1d80:	4b26      	ldr	r3, [pc, #152]	; (1e1c <nrfx_uart_0_irq_handler+0x170>)
    1d82:	2201      	movs	r2, #1
    1d84:	601a      	str	r2, [r3, #0]
    1d86:	4b26      	ldr	r3, [pc, #152]	; (1e20 <nrfx_uart_0_irq_handler+0x174>)
    1d88:	699b      	ldr	r3, [r3, #24]
    1d8a:	2b00      	cmp	r3, #0
    1d8c:	d13e      	bne.n	1e0c <nrfx_uart_0_irq_handler+0x160>
    1d8e:	b006      	add	sp, #24
    1d90:	bd10      	pop	{r4, pc}
    1d92:	4c23      	ldr	r4, [pc, #140]	; (1e20 <nrfx_uart_0_irq_handler+0x174>)
    1d94:	4621      	mov	r1, r4
    1d96:	4821      	ldr	r0, [pc, #132]	; (1e1c <nrfx_uart_0_irq_handler+0x170>)
    1d98:	f7ff ff5c 	bl	1c54 <rx_byte>
    1d9c:	6a63      	ldr	r3, [r4, #36]	; 0x24
    1d9e:	69a2      	ldr	r2, [r4, #24]
    1da0:	429a      	cmp	r2, r3
    1da2:	d1c3      	bne.n	1d2c <nrfx_uart_0_irq_handler+0x80>
    1da4:	69e3      	ldr	r3, [r4, #28]
    1da6:	b99b      	cbnz	r3, 1dd0 <nrfx_uart_0_irq_handler+0x124>
    1da8:	4b1d      	ldr	r3, [pc, #116]	; (1e20 <nrfx_uart_0_irq_handler+0x174>)
    1daa:	f893 3029 	ldrb.w	r3, [r3, #41]	; 0x29
    1dae:	b913      	cbnz	r3, 1db6 <nrfx_uart_0_irq_handler+0x10a>
    1db0:	4b1a      	ldr	r3, [pc, #104]	; (1e1c <nrfx_uart_0_irq_handler+0x170>)
    1db2:	2201      	movs	r2, #1
    1db4:	605a      	str	r2, [r3, #4]
    1db6:	4b19      	ldr	r3, [pc, #100]	; (1e1c <nrfx_uart_0_irq_handler+0x170>)
    1db8:	f44f 7201 	mov.w	r2, #516	; 0x204
    1dbc:	f8c3 2308 	str.w	r2, [r3, #776]	; 0x308
    1dc0:	4817      	ldr	r0, [pc, #92]	; (1e20 <nrfx_uart_0_irq_handler+0x174>)
    1dc2:	2300      	movs	r3, #0
    1dc4:	6183      	str	r3, [r0, #24]
    1dc6:	6a41      	ldr	r1, [r0, #36]	; 0x24
    1dc8:	68c2      	ldr	r2, [r0, #12]
    1dca:	f7ff ff60 	bl	1c8e <rx_done_event>
    1dce:	e7ad      	b.n	1d2c <nrfx_uart_0_irq_handler+0x80>
    1dd0:	4620      	mov	r0, r4
    1dd2:	68e2      	ldr	r2, [r4, #12]
    1dd4:	6a61      	ldr	r1, [r4, #36]	; 0x24
    1dd6:	61a3      	str	r3, [r4, #24]
    1dd8:	6923      	ldr	r3, [r4, #16]
    1dda:	60e3      	str	r3, [r4, #12]
    1ddc:	2300      	movs	r3, #0
    1dde:	61e3      	str	r3, [r4, #28]
    1de0:	6263      	str	r3, [r4, #36]	; 0x24
    1de2:	f7ff ff54 	bl	1c8e <rx_done_event>
    1de6:	e7a1      	b.n	1d2c <nrfx_uart_0_irq_handler+0x80>
    1de8:	490d      	ldr	r1, [pc, #52]	; (1e20 <nrfx_uart_0_irq_handler+0x174>)
    1dea:	480c      	ldr	r0, [pc, #48]	; (1e1c <nrfx_uart_0_irq_handler+0x170>)
    1dec:	f7ff ff20 	bl	1c30 <tx_byte>
    1df0:	e7b6      	b.n	1d60 <nrfx_uart_0_irq_handler+0xb4>
    1df2:	4b0b      	ldr	r3, [pc, #44]	; (1e20 <nrfx_uart_0_irq_handler+0x174>)
    1df4:	6959      	ldr	r1, [r3, #20]
    1df6:	f88d 2008 	strb.w	r2, [sp, #8]
    1dfa:	9104      	str	r1, [sp, #16]
    1dfc:	6899      	ldr	r1, [r3, #8]
    1dfe:	9103      	str	r1, [sp, #12]
    1e00:	615a      	str	r2, [r3, #20]
    1e02:	685a      	ldr	r2, [r3, #4]
    1e04:	6819      	ldr	r1, [r3, #0]
    1e06:	a802      	add	r0, sp, #8
    1e08:	4790      	blx	r2
    1e0a:	e7a9      	b.n	1d60 <nrfx_uart_0_irq_handler+0xb4>
    1e0c:	4804      	ldr	r0, [pc, #16]	; (1e20 <nrfx_uart_0_irq_handler+0x174>)
    1e0e:	2300      	movs	r3, #0
    1e10:	6183      	str	r3, [r0, #24]
    1e12:	6a41      	ldr	r1, [r0, #36]	; 0x24
    1e14:	68c2      	ldr	r2, [r0, #12]
    1e16:	f7ff ff3a 	bl	1c8e <rx_done_event>
    1e1a:	e7b8      	b.n	1d8e <nrfx_uart_0_irq_handler+0xe2>
    1e1c:	40002000 	.word	0x40002000
    1e20:	20000668 	.word	0x20000668

00001e24 <nrfx_uart_init>:
    1e24:	b5f0      	push	{r4, r5, r6, r7, lr}
    1e26:	b083      	sub	sp, #12
    1e28:	4616      	mov	r6, r2
    1e2a:	7907      	ldrb	r7, [r0, #4]
    1e2c:	4b5e      	ldr	r3, [pc, #376]	; (1fa8 <nrfx_uart_init+0x184>)
    1e2e:	222c      	movs	r2, #44	; 0x2c
    1e30:	fb02 3307 	mla	r3, r2, r7, r3
    1e34:	f893 302a 	ldrb.w	r3, [r3, #42]	; 0x2a
    1e38:	2b00      	cmp	r3, #0
    1e3a:	f040 80b1 	bne.w	1fa0 <nrfx_uart_init+0x17c>
    1e3e:	4605      	mov	r5, r0
    1e40:	460c      	mov	r4, r1
    1e42:	495a      	ldr	r1, [pc, #360]	; (1fac <nrfx_uart_init+0x188>)
    1e44:	6800      	ldr	r0, [r0, #0]
    1e46:	f7ff fec7 	bl	1bd8 <nrfx_prs_acquire>
    1e4a:	2800      	cmp	r0, #0
    1e4c:	f040 80aa 	bne.w	1fa4 <nrfx_uart_init+0x180>
    1e50:	6823      	ldr	r3, [r4, #0]
    1e52:	f1b3 3fff 	cmp.w	r3, #4294967295	; 0xffffffff
    1e56:	d00c      	beq.n	1e72 <nrfx_uart_init+0x4e>
    1e58:	2201      	movs	r2, #1
    1e5a:	fa02 f303 	lsl.w	r3, r2, r3
    1e5e:	f04f 42a0 	mov.w	r2, #1342177280	; 0x50000000
    1e62:	f8c2 3508 	str.w	r3, [r2, #1288]	; 0x508
    1e66:	6823      	ldr	r3, [r4, #0]
    1e68:	f503 73e0 	add.w	r3, r3, #448	; 0x1c0
    1e6c:	2103      	movs	r1, #3
    1e6e:	f842 1023 	str.w	r1, [r2, r3, lsl #2]
    1e72:	6863      	ldr	r3, [r4, #4]
    1e74:	f1b3 3fff 	cmp.w	r3, #4294967295	; 0xffffffff
    1e78:	d006      	beq.n	1e88 <nrfx_uart_init+0x64>
    1e7a:	f503 73e0 	add.w	r3, r3, #448	; 0x1c0
    1e7e:	f04f 42a0 	mov.w	r2, #1342177280	; 0x50000000
    1e82:	2100      	movs	r1, #0
    1e84:	f842 1023 	str.w	r1, [r2, r3, lsl #2]
    1e88:	682b      	ldr	r3, [r5, #0]
    1e8a:	69a2      	ldr	r2, [r4, #24]
    1e8c:	f8c3 2524 	str.w	r2, [r3, #1316]	; 0x524
    1e90:	682a      	ldr	r2, [r5, #0]
    1e92:	7d63      	ldrb	r3, [r4, #21]
    1e94:	7d21      	ldrb	r1, [r4, #20]
    1e96:	430b      	orrs	r3, r1
    1e98:	f8c2 356c 	str.w	r3, [r2, #1388]	; 0x56c
    1e9c:	682b      	ldr	r3, [r5, #0]
    1e9e:	6822      	ldr	r2, [r4, #0]
    1ea0:	6861      	ldr	r1, [r4, #4]
    1ea2:	f8c3 1514 	str.w	r1, [r3, #1300]	; 0x514
    1ea6:	f8c3 250c 	str.w	r2, [r3, #1292]	; 0x50c
    1eaa:	7d23      	ldrb	r3, [r4, #20]
    1eac:	2b01      	cmp	r3, #1
    1eae:	d04c      	beq.n	1f4a <nrfx_uart_init+0x126>
    1eb0:	4a3d      	ldr	r2, [pc, #244]	; (1fa8 <nrfx_uart_init+0x184>)
    1eb2:	232c      	movs	r3, #44	; 0x2c
    1eb4:	fb07 f303 	mul.w	r3, r7, r3
    1eb8:	18d1      	adds	r1, r2, r3
    1eba:	604e      	str	r6, [r1, #4]
    1ebc:	6921      	ldr	r1, [r4, #16]
    1ebe:	50d1      	str	r1, [r2, r3]
    1ec0:	b386      	cbz	r6, 1f24 <nrfx_uart_init+0x100>
    1ec2:	7f22      	ldrb	r2, [r4, #28]
    1ec4:	682b      	ldr	r3, [r5, #0]
    1ec6:	2100      	movs	r1, #0
    1ec8:	f8c3 111c 	str.w	r1, [r3, #284]	; 0x11c
    1ecc:	f8d3 311c 	ldr.w	r3, [r3, #284]	; 0x11c
    1ed0:	9300      	str	r3, [sp, #0]
    1ed2:	9b00      	ldr	r3, [sp, #0]
    1ed4:	682b      	ldr	r3, [r5, #0]
    1ed6:	f8c3 1144 	str.w	r1, [r3, #324]	; 0x144
    1eda:	f8d3 3144 	ldr.w	r3, [r3, #324]	; 0x144
    1ede:	9301      	str	r3, [sp, #4]
    1ee0:	9b01      	ldr	r3, [sp, #4]
    1ee2:	682b      	ldr	r3, [r5, #0]
    1ee4:	4932      	ldr	r1, [pc, #200]	; (1fb0 <nrfx_uart_init+0x18c>)
    1ee6:	f8c3 1304 	str.w	r1, [r3, #772]	; 0x304
    1eea:	682b      	ldr	r3, [r5, #0]
    1eec:	0b19      	lsrs	r1, r3, #12
    1eee:	f343 3307 	sbfx	r3, r3, #12, #8
    1ef2:	2b00      	cmp	r3, #0
    1ef4:	db4d      	blt.n	1f92 <nrfx_uart_init+0x16e>
    1ef6:	0152      	lsls	r2, r2, #5
    1ef8:	b2d2      	uxtb	r2, r2
    1efa:	f103 4360 	add.w	r3, r3, #3758096384	; 0xe0000000
    1efe:	f503 4361 	add.w	r3, r3, #57600	; 0xe100
    1f02:	f883 2300 	strb.w	r2, [r3, #768]	; 0x300
    1f06:	682b      	ldr	r3, [r5, #0]
    1f08:	0b1a      	lsrs	r2, r3, #12
    1f0a:	f343 3307 	sbfx	r3, r3, #12, #8
    1f0e:	2b00      	cmp	r3, #0
    1f10:	db08      	blt.n	1f24 <nrfx_uart_init+0x100>
    1f12:	095b      	lsrs	r3, r3, #5
    1f14:	f002 021f 	and.w	r2, r2, #31
    1f18:	2101      	movs	r1, #1
    1f1a:	fa01 f202 	lsl.w	r2, r1, r2
    1f1e:	4925      	ldr	r1, [pc, #148]	; (1fb4 <nrfx_uart_init+0x190>)
    1f20:	f841 2023 	str.w	r2, [r1, r3, lsl #2]
    1f24:	682b      	ldr	r3, [r5, #0]
    1f26:	2204      	movs	r2, #4
    1f28:	f8c3 2500 	str.w	r2, [r3, #1280]	; 0x500
    1f2c:	4b1e      	ldr	r3, [pc, #120]	; (1fa8 <nrfx_uart_init+0x184>)
    1f2e:	222c      	movs	r2, #44	; 0x2c
    1f30:	fb02 3307 	mla	r3, r2, r7, r3
    1f34:	2200      	movs	r2, #0
    1f36:	619a      	str	r2, [r3, #24]
    1f38:	61da      	str	r2, [r3, #28]
    1f3a:	f883 2029 	strb.w	r2, [r3, #41]	; 0x29
    1f3e:	615a      	str	r2, [r3, #20]
    1f40:	2201      	movs	r2, #1
    1f42:	f883 202a 	strb.w	r2, [r3, #42]	; 0x2a
    1f46:	b003      	add	sp, #12
    1f48:	bdf0      	pop	{r4, r5, r6, r7, pc}
    1f4a:	68a3      	ldr	r3, [r4, #8]
    1f4c:	f1b3 3fff 	cmp.w	r3, #4294967295	; 0xffffffff
    1f50:	d006      	beq.n	1f60 <nrfx_uart_init+0x13c>
    1f52:	f503 73e0 	add.w	r3, r3, #448	; 0x1c0
    1f56:	f04f 42a0 	mov.w	r2, #1342177280	; 0x50000000
    1f5a:	2100      	movs	r1, #0
    1f5c:	f842 1023 	str.w	r1, [r2, r3, lsl #2]
    1f60:	68e3      	ldr	r3, [r4, #12]
    1f62:	f1b3 3fff 	cmp.w	r3, #4294967295	; 0xffffffff
    1f66:	d00c      	beq.n	1f82 <nrfx_uart_init+0x15e>
    1f68:	2201      	movs	r2, #1
    1f6a:	fa02 f303 	lsl.w	r3, r2, r3
    1f6e:	f04f 42a0 	mov.w	r2, #1342177280	; 0x50000000
    1f72:	f8c2 3508 	str.w	r3, [r2, #1288]	; 0x508
    1f76:	68e3      	ldr	r3, [r4, #12]
    1f78:	f503 73e0 	add.w	r3, r3, #448	; 0x1c0
    1f7c:	2103      	movs	r1, #3
    1f7e:	f842 1023 	str.w	r1, [r2, r3, lsl #2]
    1f82:	682b      	ldr	r3, [r5, #0]
    1f84:	68e1      	ldr	r1, [r4, #12]
    1f86:	68a2      	ldr	r2, [r4, #8]
    1f88:	f8c3 1508 	str.w	r1, [r3, #1288]	; 0x508
    1f8c:	f8c3 2510 	str.w	r2, [r3, #1296]	; 0x510
    1f90:	e78e      	b.n	1eb0 <nrfx_uart_init+0x8c>
    1f92:	f001 010f 	and.w	r1, r1, #15
    1f96:	0152      	lsls	r2, r2, #5
    1f98:	b2d2      	uxtb	r2, r2
    1f9a:	4b07      	ldr	r3, [pc, #28]	; (1fb8 <nrfx_uart_init+0x194>)
    1f9c:	545a      	strb	r2, [r3, r1]
    1f9e:	e7b2      	b.n	1f06 <nrfx_uart_init+0xe2>
    1fa0:	2008      	movs	r0, #8
    1fa2:	e7d0      	b.n	1f46 <nrfx_uart_init+0x122>
    1fa4:	2011      	movs	r0, #17
    1fa6:	e7ce      	b.n	1f46 <nrfx_uart_init+0x122>
    1fa8:	20000668 	.word	0x20000668
    1fac:	00001cad 	.word	0x00001cad
    1fb0:	00020080 	.word	0x00020080
    1fb4:	e000e100 	.word	0xe000e100
    1fb8:	e000ed14 	.word	0xe000ed14

00001fbc <nrfx_uart_uninit>:
    1fbc:	b5f8      	push	{r3, r4, r5, r6, r7, lr}
    1fbe:	7904      	ldrb	r4, [r0, #4]
    1fc0:	6803      	ldr	r3, [r0, #0]
    1fc2:	2200      	movs	r2, #0
    1fc4:	f8c3 2500 	str.w	r2, [r3, #1280]	; 0x500
    1fc8:	4b32      	ldr	r3, [pc, #200]	; (2094 <Heap_Size+0x94>)
    1fca:	222c      	movs	r2, #44	; 0x2c
    1fcc:	fb02 3304 	mla	r3, r2, r4, r3
    1fd0:	685b      	ldr	r3, [r3, #4]
    1fd2:	b1bb      	cbz	r3, 2004 <Heap_Size+0x4>
    1fd4:	6803      	ldr	r3, [r0, #0]
    1fd6:	4a30      	ldr	r2, [pc, #192]	; (2098 <Heap_Size+0x98>)
    1fd8:	f8c3 2308 	str.w	r2, [r3, #776]	; 0x308
    1fdc:	6803      	ldr	r3, [r0, #0]
    1fde:	0b1a      	lsrs	r2, r3, #12
    1fe0:	f343 3307 	sbfx	r3, r3, #12, #8
    1fe4:	2b00      	cmp	r3, #0
    1fe6:	db0d      	blt.n	2004 <Heap_Size+0x4>
    1fe8:	095b      	lsrs	r3, r3, #5
    1fea:	f002 021f 	and.w	r2, r2, #31
    1fee:	2101      	movs	r1, #1
    1ff0:	fa01 f202 	lsl.w	r2, r1, r2
    1ff4:	3320      	adds	r3, #32
    1ff6:	4929      	ldr	r1, [pc, #164]	; (209c <Heap_Size+0x9c>)
    1ff8:	f841 2023 	str.w	r2, [r1, r3, lsl #2]
    1ffc:	f3bf 8f4f 	dsb	sy
    2000:	f3bf 8f6f 	isb	sy
    2004:	6803      	ldr	r3, [r0, #0]
    2006:	f8d3 750c 	ldr.w	r7, [r3, #1292]	; 0x50c
    200a:	f8d3 6514 	ldr.w	r6, [r3, #1300]	; 0x514
    200e:	f8d3 1508 	ldr.w	r1, [r3, #1288]	; 0x508
    2012:	f8d3 5510 	ldr.w	r5, [r3, #1296]	; 0x510
    2016:	f04f 32ff 	mov.w	r2, #4294967295	; 0xffffffff
    201a:	f8c3 2514 	str.w	r2, [r3, #1300]	; 0x514
    201e:	f8c3 250c 	str.w	r2, [r3, #1292]	; 0x50c
    2022:	6803      	ldr	r3, [r0, #0]
    2024:	f8c3 2508 	str.w	r2, [r3, #1288]	; 0x508
    2028:	f8c3 2510 	str.w	r2, [r3, #1296]	; 0x510
    202c:	4297      	cmp	r7, r2
    202e:	d006      	beq.n	203e <Heap_Size+0x3e>
    2030:	f507 77e0 	add.w	r7, r7, #448	; 0x1c0
    2034:	f04f 43a0 	mov.w	r3, #1342177280	; 0x50000000
    2038:	2202      	movs	r2, #2
    203a:	f843 2027 	str.w	r2, [r3, r7, lsl #2]
    203e:	f1b6 3fff 	cmp.w	r6, #4294967295	; 0xffffffff
    2042:	d006      	beq.n	2052 <Heap_Size+0x52>
    2044:	f506 76e0 	add.w	r6, r6, #448	; 0x1c0
    2048:	f04f 43a0 	mov.w	r3, #1342177280	; 0x50000000
    204c:	2202      	movs	r2, #2
    204e:	f843 2026 	str.w	r2, [r3, r6, lsl #2]
    2052:	f1b5 3fff 	cmp.w	r5, #4294967295	; 0xffffffff
    2056:	d006      	beq.n	2066 <Heap_Size+0x66>
    2058:	f505 75e0 	add.w	r5, r5, #448	; 0x1c0
    205c:	f04f 43a0 	mov.w	r3, #1342177280	; 0x50000000
    2060:	2202      	movs	r2, #2
    2062:	f843 2025 	str.w	r2, [r3, r5, lsl #2]
    2066:	f1b1 3fff 	cmp.w	r1, #4294967295	; 0xffffffff
    206a:	d006      	beq.n	207a <Heap_Size+0x7a>
    206c:	f501 71e0 	add.w	r1, r1, #448	; 0x1c0
    2070:	f04f 43a0 	mov.w	r3, #1342177280	; 0x50000000
    2074:	2202      	movs	r2, #2
    2076:	f843 2021 	str.w	r2, [r3, r1, lsl #2]
    207a:	6800      	ldr	r0, [r0, #0]
    207c:	f7ff fdcc 	bl	1c18 <nrfx_prs_release>
    2080:	4b04      	ldr	r3, [pc, #16]	; (2094 <Heap_Size+0x94>)
    2082:	222c      	movs	r2, #44	; 0x2c
    2084:	fb02 3304 	mla	r3, r2, r4, r3
    2088:	2200      	movs	r2, #0
    208a:	f883 202a 	strb.w	r2, [r3, #42]	; 0x2a
    208e:	605a      	str	r2, [r3, #4]
    2090:	bdf8      	pop	{r3, r4, r5, r6, r7, pc}
    2092:	bf00      	nop
    2094:	20000668 	.word	0x20000668
    2098:	00020284 	.word	0x00020284
    209c:	e000e100 	.word	0xe000e100

000020a0 <nrfx_uart_tx_in_progress>:
    20a0:	7902      	ldrb	r2, [r0, #4]
    20a2:	4b04      	ldr	r3, [pc, #16]	; (20b4 <nrfx_uart_tx_in_progress+0x14>)
    20a4:	212c      	movs	r1, #44	; 0x2c
    20a6:	fb01 3302 	mla	r3, r1, r2, r3
    20aa:	6958      	ldr	r0, [r3, #20]
    20ac:	3800      	subs	r0, #0
    20ae:	bf18      	it	ne
    20b0:	2001      	movne	r0, #1
    20b2:	4770      	bx	lr
    20b4:	20000668 	.word	0x20000668

000020b8 <nrfx_uart_tx>:
    20b8:	e92d 43f0 	stmdb	sp!, {r4, r5, r6, r7, r8, r9, lr}
    20bc:	b083      	sub	sp, #12
    20be:	4604      	mov	r4, r0
    20c0:	4688      	mov	r8, r1
    20c2:	4616      	mov	r6, r2
    20c4:	7907      	ldrb	r7, [r0, #4]
    20c6:	f7ff ffeb 	bl	20a0 <nrfx_uart_tx_in_progress>
    20ca:	2800      	cmp	r0, #0
    20cc:	d145      	bne.n	215a <nrfx_uart_tx+0xa2>
    20ce:	4d24      	ldr	r5, [pc, #144]	; (2160 <nrfx_uart_tx+0xa8>)
    20d0:	232c      	movs	r3, #44	; 0x2c
    20d2:	fb03 5507 	mla	r5, r3, r7, r5
    20d6:	616e      	str	r6, [r5, #20]
    20d8:	f8c5 8008 	str.w	r8, [r5, #8]
    20dc:	2300      	movs	r3, #0
    20de:	622b      	str	r3, [r5, #32]
    20e0:	f885 3028 	strb.w	r3, [r5, #40]	; 0x28
    20e4:	6822      	ldr	r2, [r4, #0]
    20e6:	f8c2 311c 	str.w	r3, [r2, #284]	; 0x11c
    20ea:	f8d2 311c 	ldr.w	r3, [r2, #284]	; 0x11c
    20ee:	9301      	str	r3, [sp, #4]
    20f0:	9b01      	ldr	r3, [sp, #4]
    20f2:	6823      	ldr	r3, [r4, #0]
    20f4:	2201      	movs	r2, #1
    20f6:	609a      	str	r2, [r3, #8]
    20f8:	4629      	mov	r1, r5
    20fa:	6820      	ldr	r0, [r4, #0]
    20fc:	f7ff fd98 	bl	1c30 <tx_byte>
    2100:	686b      	ldr	r3, [r5, #4]
    2102:	b11b      	cbz	r3, 210c <nrfx_uart_tx+0x54>
    2104:	2000      	movs	r0, #0
    2106:	b003      	add	sp, #12
    2108:	e8bd 83f0 	ldmia.w	sp!, {r4, r5, r6, r7, r8, r9, pc}
    210c:	f8d4 8000 	ldr.w	r8, [r4]
    2110:	f8d5 9014 	ldr.w	r9, [r5, #20]
    2114:	6a2b      	ldr	r3, [r5, #32]
    2116:	454b      	cmp	r3, r9
    2118:	d216      	bcs.n	2148 <nrfx_uart_tx+0x90>
    211a:	462e      	mov	r6, r5
    211c:	f8d8 311c 	ldr.w	r3, [r8, #284]	; 0x11c
    2120:	b95b      	cbnz	r3, 213a <nrfx_uart_tx+0x82>
    2122:	f896 3028 	ldrb.w	r3, [r6, #40]	; 0x28
    2126:	2b00      	cmp	r3, #0
    2128:	d0f8      	beq.n	211c <nrfx_uart_tx+0x64>
    212a:	200f      	movs	r0, #15
    212c:	4b0c      	ldr	r3, [pc, #48]	; (2160 <nrfx_uart_tx+0xa8>)
    212e:	222c      	movs	r2, #44	; 0x2c
    2130:	fb02 3307 	mla	r3, r2, r7, r3
    2134:	2200      	movs	r2, #0
    2136:	615a      	str	r2, [r3, #20]
    2138:	e7e5      	b.n	2106 <nrfx_uart_tx+0x4e>
    213a:	4629      	mov	r1, r5
    213c:	4640      	mov	r0, r8
    213e:	f7ff fd77 	bl	1c30 <tx_byte>
    2142:	6a33      	ldr	r3, [r6, #32]
    2144:	4599      	cmp	r9, r3
    2146:	d8e9      	bhi.n	211c <nrfx_uart_tx+0x64>
    2148:	6822      	ldr	r2, [r4, #0]
    214a:	f8d2 311c 	ldr.w	r3, [r2, #284]	; 0x11c
    214e:	2b00      	cmp	r3, #0
    2150:	d0fb      	beq.n	214a <nrfx_uart_tx+0x92>
    2152:	2301      	movs	r3, #1
    2154:	60d3      	str	r3, [r2, #12]
    2156:	2000      	movs	r0, #0
    2158:	e7e8      	b.n	212c <nrfx_uart_tx+0x74>
    215a:	2011      	movs	r0, #17
    215c:	e7d3      	b.n	2106 <nrfx_uart_tx+0x4e>
    215e:	bf00      	nop
    2160:	20000668 	.word	0x20000668

00002164 <rx_done_event>:
    2164:	b500      	push	{lr}
    2166:	b085      	sub	sp, #20
    2168:	2301      	movs	r3, #1
    216a:	f88d 3000 	strb.w	r3, [sp]
    216e:	9102      	str	r1, [sp, #8]
    2170:	9201      	str	r2, [sp, #4]
    2172:	6843      	ldr	r3, [r0, #4]
    2174:	6801      	ldr	r1, [r0, #0]
    2176:	4668      	mov	r0, sp
    2178:	4798      	blx	r3
    217a:	b005      	add	sp, #20
    217c:	f85d fb04 	ldr.w	pc, [sp], #4

00002180 <nrfx_uarte_0_irq_handler>:
    2180:	b530      	push	{r4, r5, lr}
    2182:	b08b      	sub	sp, #44	; 0x2c
    2184:	4b55      	ldr	r3, [pc, #340]	; (22dc <nrfx_uarte_0_irq_handler+0x15c>)
    2186:	f8d3 3124 	ldr.w	r3, [r3, #292]	; 0x124
    218a:	2b00      	cmp	r3, #0
    218c:	d04f      	beq.n	222e <nrfx_uarte_0_irq_handler+0xae>
    218e:	4b53      	ldr	r3, [pc, #332]	; (22dc <nrfx_uarte_0_irq_handler+0x15c>)
    2190:	2200      	movs	r2, #0
    2192:	f8c3 2124 	str.w	r2, [r3, #292]	; 0x124
    2196:	f8d3 1124 	ldr.w	r1, [r3, #292]	; 0x124
    219a:	9104      	str	r1, [sp, #16]
    219c:	9904      	ldr	r1, [sp, #16]
    219e:	2102      	movs	r1, #2
    21a0:	f88d 1018 	strb.w	r1, [sp, #24]
    21a4:	f8d3 1480 	ldr.w	r1, [r3, #1152]	; 0x480
    21a8:	f8c3 1480 	str.w	r1, [r3, #1152]	; 0x480
    21ac:	9109      	str	r1, [sp, #36]	; 0x24
    21ae:	f8d3 353c 	ldr.w	r3, [r3, #1340]	; 0x53c
    21b2:	9308      	str	r3, [sp, #32]
    21b4:	4b4a      	ldr	r3, [pc, #296]	; (22e0 <nrfx_uarte_0_irq_handler+0x160>)
    21b6:	68d9      	ldr	r1, [r3, #12]
    21b8:	9107      	str	r1, [sp, #28]
    21ba:	619a      	str	r2, [r3, #24]
    21bc:	61da      	str	r2, [r3, #28]
    21be:	685a      	ldr	r2, [r3, #4]
    21c0:	6819      	ldr	r1, [r3, #0]
    21c2:	a806      	add	r0, sp, #24
    21c4:	4790      	blx	r2
    21c6:	4b45      	ldr	r3, [pc, #276]	; (22dc <nrfx_uarte_0_irq_handler+0x15c>)
    21c8:	f8d3 3144 	ldr.w	r3, [r3, #324]	; 0x144
    21cc:	b15b      	cbz	r3, 21e6 <nrfx_uarte_0_irq_handler+0x66>
    21ce:	4b43      	ldr	r3, [pc, #268]	; (22dc <nrfx_uarte_0_irq_handler+0x15c>)
    21d0:	2200      	movs	r2, #0
    21d2:	f8c3 2144 	str.w	r2, [r3, #324]	; 0x144
    21d6:	f8d3 3144 	ldr.w	r3, [r3, #324]	; 0x144
    21da:	9303      	str	r3, [sp, #12]
    21dc:	9b03      	ldr	r3, [sp, #12]
    21de:	4b40      	ldr	r3, [pc, #256]	; (22e0 <nrfx_uarte_0_irq_handler+0x160>)
    21e0:	699b      	ldr	r3, [r3, #24]
    21e2:	2b00      	cmp	r3, #0
    21e4:	d151      	bne.n	228a <nrfx_uarte_0_irq_handler+0x10a>
    21e6:	4b3d      	ldr	r3, [pc, #244]	; (22dc <nrfx_uarte_0_irq_handler+0x15c>)
    21e8:	f8d3 3120 	ldr.w	r3, [r3, #288]	; 0x120
    21ec:	b16b      	cbz	r3, 220a <nrfx_uarte_0_irq_handler+0x8a>
    21ee:	4b3b      	ldr	r3, [pc, #236]	; (22dc <nrfx_uarte_0_irq_handler+0x15c>)
    21f0:	2200      	movs	r2, #0
    21f2:	f8c3 2120 	str.w	r2, [r3, #288]	; 0x120
    21f6:	f8d3 2120 	ldr.w	r2, [r3, #288]	; 0x120
    21fa:	9202      	str	r2, [sp, #8]
    21fc:	9a02      	ldr	r2, [sp, #8]
    21fe:	2201      	movs	r2, #1
    2200:	60da      	str	r2, [r3, #12]
    2202:	4b37      	ldr	r3, [pc, #220]	; (22e0 <nrfx_uarte_0_irq_handler+0x160>)
    2204:	695b      	ldr	r3, [r3, #20]
    2206:	2b00      	cmp	r3, #0
    2208:	d149      	bne.n	229e <nrfx_uarte_0_irq_handler+0x11e>
    220a:	4b34      	ldr	r3, [pc, #208]	; (22dc <nrfx_uarte_0_irq_handler+0x15c>)
    220c:	f8d3 3158 	ldr.w	r3, [r3, #344]	; 0x158
    2210:	b15b      	cbz	r3, 222a <nrfx_uarte_0_irq_handler+0xaa>
    2212:	4b32      	ldr	r3, [pc, #200]	; (22dc <nrfx_uarte_0_irq_handler+0x15c>)
    2214:	2200      	movs	r2, #0
    2216:	f8c3 2158 	str.w	r2, [r3, #344]	; 0x158
    221a:	f8d3 3158 	ldr.w	r3, [r3, #344]	; 0x158
    221e:	9301      	str	r3, [sp, #4]
    2220:	9b01      	ldr	r3, [sp, #4]
    2222:	4b2f      	ldr	r3, [pc, #188]	; (22e0 <nrfx_uarte_0_irq_handler+0x160>)
    2224:	695b      	ldr	r3, [r3, #20]
    2226:	2b00      	cmp	r3, #0
    2228:	d149      	bne.n	22be <nrfx_uarte_0_irq_handler+0x13e>
    222a:	b00b      	add	sp, #44	; 0x2c
    222c:	bd30      	pop	{r4, r5, pc}
    222e:	4b2b      	ldr	r3, [pc, #172]	; (22dc <nrfx_uarte_0_irq_handler+0x15c>)
    2230:	f8d3 3110 	ldr.w	r3, [r3, #272]	; 0x110
    2234:	2b00      	cmp	r3, #0
    2236:	d0c6      	beq.n	21c6 <nrfx_uarte_0_irq_handler+0x46>
    2238:	4b28      	ldr	r3, [pc, #160]	; (22dc <nrfx_uarte_0_irq_handler+0x15c>)
    223a:	2200      	movs	r2, #0
    223c:	f8c3 2110 	str.w	r2, [r3, #272]	; 0x110
    2240:	f8d3 2110 	ldr.w	r2, [r3, #272]	; 0x110
    2244:	9205      	str	r2, [sp, #20]
    2246:	9a05      	ldr	r2, [sp, #20]
    2248:	f8d3 153c 	ldr.w	r1, [r3, #1340]	; 0x53c
    224c:	4b24      	ldr	r3, [pc, #144]	; (22e0 <nrfx_uarte_0_irq_handler+0x160>)
    224e:	699b      	ldr	r3, [r3, #24]
    2250:	4299      	cmp	r1, r3
    2252:	d1b8      	bne.n	21c6 <nrfx_uarte_0_irq_handler+0x46>
    2254:	4b22      	ldr	r3, [pc, #136]	; (22e0 <nrfx_uarte_0_irq_handler+0x160>)
    2256:	69db      	ldr	r3, [r3, #28]
    2258:	b183      	cbz	r3, 227c <nrfx_uarte_0_irq_handler+0xfc>
    225a:	4821      	ldr	r0, [pc, #132]	; (22e0 <nrfx_uarte_0_irq_handler+0x160>)
    225c:	68c2      	ldr	r2, [r0, #12]
    225e:	4d1f      	ldr	r5, [pc, #124]	; (22dc <nrfx_uarte_0_irq_handler+0x15c>)
    2260:	f8d5 4200 	ldr.w	r4, [r5, #512]	; 0x200
    2264:	f024 0420 	bic.w	r4, r4, #32
    2268:	f8c5 4200 	str.w	r4, [r5, #512]	; 0x200
    226c:	6183      	str	r3, [r0, #24]
    226e:	6903      	ldr	r3, [r0, #16]
    2270:	60c3      	str	r3, [r0, #12]
    2272:	2300      	movs	r3, #0
    2274:	61c3      	str	r3, [r0, #28]
    2276:	f7ff ff75 	bl	2164 <rx_done_event>
    227a:	e7a4      	b.n	21c6 <nrfx_uarte_0_irq_handler+0x46>
    227c:	4818      	ldr	r0, [pc, #96]	; (22e0 <nrfx_uarte_0_irq_handler+0x160>)
    227e:	2300      	movs	r3, #0
    2280:	6183      	str	r3, [r0, #24]
    2282:	68c2      	ldr	r2, [r0, #12]
    2284:	f7ff ff6e 	bl	2164 <rx_done_event>
    2288:	e79d      	b.n	21c6 <nrfx_uarte_0_irq_handler+0x46>
    228a:	4815      	ldr	r0, [pc, #84]	; (22e0 <nrfx_uarte_0_irq_handler+0x160>)
    228c:	6182      	str	r2, [r0, #24]
    228e:	61c2      	str	r2, [r0, #28]
    2290:	4b12      	ldr	r3, [pc, #72]	; (22dc <nrfx_uarte_0_irq_handler+0x15c>)
    2292:	f8d3 153c 	ldr.w	r1, [r3, #1340]	; 0x53c
    2296:	68c2      	ldr	r2, [r0, #12]
    2298:	f7ff ff64 	bl	2164 <rx_done_event>
    229c:	e7a3      	b.n	21e6 <nrfx_uarte_0_irq_handler+0x66>
    229e:	4b0f      	ldr	r3, [pc, #60]	; (22dc <nrfx_uarte_0_irq_handler+0x15c>)
    22a0:	f8d3 354c 	ldr.w	r3, [r3, #1356]	; 0x54c
    22a4:	2200      	movs	r2, #0
    22a6:	f88d 2018 	strb.w	r2, [sp, #24]
    22aa:	9308      	str	r3, [sp, #32]
    22ac:	4b0c      	ldr	r3, [pc, #48]	; (22e0 <nrfx_uarte_0_irq_handler+0x160>)
    22ae:	6899      	ldr	r1, [r3, #8]
    22b0:	9107      	str	r1, [sp, #28]
    22b2:	615a      	str	r2, [r3, #20]
    22b4:	685a      	ldr	r2, [r3, #4]
    22b6:	6819      	ldr	r1, [r3, #0]
    22b8:	a806      	add	r0, sp, #24
    22ba:	4790      	blx	r2
    22bc:	e7a5      	b.n	220a <nrfx_uarte_0_irq_handler+0x8a>
    22be:	4b07      	ldr	r3, [pc, #28]	; (22dc <nrfx_uarte_0_irq_handler+0x15c>)
    22c0:	f8d3 354c 	ldr.w	r3, [r3, #1356]	; 0x54c
    22c4:	f88d 2018 	strb.w	r2, [sp, #24]
    22c8:	9308      	str	r3, [sp, #32]
    22ca:	4b05      	ldr	r3, [pc, #20]	; (22e0 <nrfx_uarte_0_irq_handler+0x160>)
    22cc:	6899      	ldr	r1, [r3, #8]
    22ce:	9107      	str	r1, [sp, #28]
    22d0:	615a      	str	r2, [r3, #20]
    22d2:	685a      	ldr	r2, [r3, #4]
    22d4:	6819      	ldr	r1, [r3, #0]
    22d6:	a806      	add	r0, sp, #24
    22d8:	4790      	blx	r2
    22da:	e7a6      	b.n	222a <nrfx_uarte_0_irq_handler+0xaa>
    22dc:	40002000 	.word	0x40002000
    22e0:	20000694 	.word	0x20000694

000022e4 <nrfx_uarte_init>:
    22e4:	b5f0      	push	{r4, r5, r6, r7, lr}
    22e6:	b087      	sub	sp, #28
    22e8:	4617      	mov	r7, r2
    22ea:	7906      	ldrb	r6, [r0, #4]
    22ec:	eb06 02c6 	add.w	r2, r6, r6, lsl #3
    22f0:	4b69      	ldr	r3, [pc, #420]	; (2498 <nrfx_uarte_init+0x1b4>)
    22f2:	eb03 0382 	add.w	r3, r3, r2, lsl #2
    22f6:	f893 3020 	ldrb.w	r3, [r3, #32]
    22fa:	2b00      	cmp	r3, #0
    22fc:	f040 80c8 	bne.w	2490 <nrfx_uarte_init+0x1ac>
    2300:	4604      	mov	r4, r0
    2302:	460d      	mov	r5, r1
    2304:	4965      	ldr	r1, [pc, #404]	; (249c <nrfx_uarte_init+0x1b8>)
    2306:	6800      	ldr	r0, [r0, #0]
    2308:	f7ff fc66 	bl	1bd8 <nrfx_prs_acquire>
    230c:	2800      	cmp	r0, #0
    230e:	f040 80c1 	bne.w	2494 <nrfx_uarte_init+0x1b0>
    2312:	682b      	ldr	r3, [r5, #0]
    2314:	f1b3 3fff 	cmp.w	r3, #4294967295	; 0xffffffff
    2318:	d00c      	beq.n	2334 <nrfx_uarte_init+0x50>
    231a:	2201      	movs	r2, #1
    231c:	fa02 f303 	lsl.w	r3, r2, r3
    2320:	f04f 42a0 	mov.w	r2, #1342177280	; 0x50000000
    2324:	f8c2 3508 	str.w	r3, [r2, #1288]	; 0x508
    2328:	682b      	ldr	r3, [r5, #0]
    232a:	f503 73e0 	add.w	r3, r3, #448	; 0x1c0
    232e:	2103      	movs	r1, #3
    2330:	f842 1023 	str.w	r1, [r2, r3, lsl #2]
    2334:	686b      	ldr	r3, [r5, #4]
    2336:	f1b3 3fff 	cmp.w	r3, #4294967295	; 0xffffffff
    233a:	d006      	beq.n	234a <nrfx_uarte_init+0x66>
    233c:	f503 73e0 	add.w	r3, r3, #448	; 0x1c0
    2340:	f04f 42a0 	mov.w	r2, #1342177280	; 0x50000000
    2344:	2100      	movs	r1, #0
    2346:	f842 1023 	str.w	r1, [r2, r3, lsl #2]
    234a:	6823      	ldr	r3, [r4, #0]
    234c:	69aa      	ldr	r2, [r5, #24]
    234e:	f8c3 2524 	str.w	r2, [r3, #1316]	; 0x524
    2352:	6822      	ldr	r2, [r4, #0]
    2354:	7d6b      	ldrb	r3, [r5, #21]
    2356:	7d29      	ldrb	r1, [r5, #20]
    2358:	430b      	orrs	r3, r1
    235a:	f8c2 356c 	str.w	r3, [r2, #1388]	; 0x56c
    235e:	6823      	ldr	r3, [r4, #0]
    2360:	6829      	ldr	r1, [r5, #0]
    2362:	686a      	ldr	r2, [r5, #4]
    2364:	f8c3 150c 	str.w	r1, [r3, #1292]	; 0x50c
    2368:	f8c3 2514 	str.w	r2, [r3, #1300]	; 0x514
    236c:	7d2b      	ldrb	r3, [r5, #20]
    236e:	2b01      	cmp	r3, #1
    2370:	d063      	beq.n	243a <nrfx_uarte_init+0x156>
    2372:	4b49      	ldr	r3, [pc, #292]	; (2498 <nrfx_uarte_init+0x1b4>)
    2374:	eb06 02c6 	add.w	r2, r6, r6, lsl #3
    2378:	eb03 0182 	add.w	r1, r3, r2, lsl #2
    237c:	604f      	str	r7, [r1, #4]
    237e:	6929      	ldr	r1, [r5, #16]
    2380:	f843 1022 	str.w	r1, [r3, r2, lsl #2]
    2384:	2f00      	cmp	r7, #0
    2386:	d045      	beq.n	2414 <nrfx_uarte_init+0x130>
    2388:	7f2a      	ldrb	r2, [r5, #28]
    238a:	6821      	ldr	r1, [r4, #0]
    238c:	2300      	movs	r3, #0
    238e:	f8c1 3110 	str.w	r3, [r1, #272]	; 0x110
    2392:	f8d1 1110 	ldr.w	r1, [r1, #272]	; 0x110
    2396:	9101      	str	r1, [sp, #4]
    2398:	9901      	ldr	r1, [sp, #4]
    239a:	6821      	ldr	r1, [r4, #0]
    239c:	f8c1 3120 	str.w	r3, [r1, #288]	; 0x120
    23a0:	f8d1 1120 	ldr.w	r1, [r1, #288]	; 0x120
    23a4:	9102      	str	r1, [sp, #8]
    23a6:	9902      	ldr	r1, [sp, #8]
    23a8:	6821      	ldr	r1, [r4, #0]
    23aa:	f8c1 3124 	str.w	r3, [r1, #292]	; 0x124
    23ae:	f8d1 1124 	ldr.w	r1, [r1, #292]	; 0x124
    23b2:	9103      	str	r1, [sp, #12]
    23b4:	9903      	ldr	r1, [sp, #12]
    23b6:	6821      	ldr	r1, [r4, #0]
    23b8:	f8c1 3144 	str.w	r3, [r1, #324]	; 0x144
    23bc:	f8d1 1144 	ldr.w	r1, [r1, #324]	; 0x144
    23c0:	9104      	str	r1, [sp, #16]
    23c2:	9904      	ldr	r1, [sp, #16]
    23c4:	6821      	ldr	r1, [r4, #0]
    23c6:	f8c1 3158 	str.w	r3, [r1, #344]	; 0x158
    23ca:	f8d1 3158 	ldr.w	r3, [r1, #344]	; 0x158
    23ce:	9305      	str	r3, [sp, #20]
    23d0:	9b05      	ldr	r3, [sp, #20]
    23d2:	6823      	ldr	r3, [r4, #0]
    23d4:	4932      	ldr	r1, [pc, #200]	; (24a0 <nrfx_uarte_init+0x1bc>)
    23d6:	f8c3 1304 	str.w	r1, [r3, #772]	; 0x304
    23da:	6823      	ldr	r3, [r4, #0]
    23dc:	0b19      	lsrs	r1, r3, #12
    23de:	f343 3307 	sbfx	r3, r3, #12, #8
    23e2:	2b00      	cmp	r3, #0
    23e4:	db4d      	blt.n	2482 <nrfx_uarte_init+0x19e>
    23e6:	0152      	lsls	r2, r2, #5
    23e8:	b2d2      	uxtb	r2, r2
    23ea:	f103 4360 	add.w	r3, r3, #3758096384	; 0xe0000000
    23ee:	f503 4361 	add.w	r3, r3, #57600	; 0xe100
    23f2:	f883 2300 	strb.w	r2, [r3, #768]	; 0x300
    23f6:	6823      	ldr	r3, [r4, #0]
    23f8:	0b1a      	lsrs	r2, r3, #12
    23fa:	f343 3307 	sbfx	r3, r3, #12, #8
    23fe:	2b00      	cmp	r3, #0
    2400:	db08      	blt.n	2414 <nrfx_uarte_init+0x130>
    2402:	095b      	lsrs	r3, r3, #5
    2404:	f002 021f 	and.w	r2, r2, #31
    2408:	2101      	movs	r1, #1
    240a:	fa01 f202 	lsl.w	r2, r1, r2
    240e:	4925      	ldr	r1, [pc, #148]	; (24a4 <nrfx_uarte_init+0x1c0>)
    2410:	f841 2023 	str.w	r2, [r1, r3, lsl #2]
    2414:	6823      	ldr	r3, [r4, #0]
    2416:	2208      	movs	r2, #8
    2418:	f8c3 2500 	str.w	r2, [r3, #1280]	; 0x500
    241c:	4a1e      	ldr	r2, [pc, #120]	; (2498 <nrfx_uarte_init+0x1b4>)
    241e:	eb06 03c6 	add.w	r3, r6, r6, lsl #3
    2422:	eb02 0383 	add.w	r3, r2, r3, lsl #2
    2426:	2100      	movs	r1, #0
    2428:	6199      	str	r1, [r3, #24]
    242a:	61d9      	str	r1, [r3, #28]
    242c:	6159      	str	r1, [r3, #20]
    242e:	461a      	mov	r2, r3
    2430:	2301      	movs	r3, #1
    2432:	f882 3020 	strb.w	r3, [r2, #32]
    2436:	b007      	add	sp, #28
    2438:	bdf0      	pop	{r4, r5, r6, r7, pc}
    243a:	68ab      	ldr	r3, [r5, #8]
    243c:	f1b3 3fff 	cmp.w	r3, #4294967295	; 0xffffffff
    2440:	d006      	beq.n	2450 <nrfx_uarte_init+0x16c>
    2442:	f503 73e0 	add.w	r3, r3, #448	; 0x1c0
    2446:	f04f 42a0 	mov.w	r2, #1342177280	; 0x50000000
    244a:	2100      	movs	r1, #0
    244c:	f842 1023 	str.w	r1, [r2, r3, lsl #2]
    2450:	68eb      	ldr	r3, [r5, #12]
    2452:	f1b3 3fff 	cmp.w	r3, #4294967295	; 0xffffffff
    2456:	d00c      	beq.n	2472 <nrfx_uarte_init+0x18e>
    2458:	2201      	movs	r2, #1
    245a:	fa02 f303 	lsl.w	r3, r2, r3
    245e:	f04f 42a0 	mov.w	r2, #1342177280	; 0x50000000
    2462:	f8c2 3508 	str.w	r3, [r2, #1288]	; 0x508
    2466:	68eb      	ldr	r3, [r5, #12]
    2468:	f503 73e0 	add.w	r3, r3, #448	; 0x1c0
    246c:	2103      	movs	r1, #3
    246e:	f842 1023 	str.w	r1, [r2, r3, lsl #2]
    2472:	6823      	ldr	r3, [r4, #0]
    2474:	68e9      	ldr	r1, [r5, #12]
    2476:	68aa      	ldr	r2, [r5, #8]
    2478:	f8c3 1508 	str.w	r1, [r3, #1288]	; 0x508
    247c:	f8c3 2510 	str.w	r2, [r3, #1296]	; 0x510
    2480:	e777      	b.n	2372 <nrfx_uarte_init+0x8e>
    2482:	f001 010f 	and.w	r1, r1, #15
    2486:	0152      	lsls	r2, r2, #5
    2488:	b2d2      	uxtb	r2, r2
    248a:	4b07      	ldr	r3, [pc, #28]	; (24a8 <nrfx_uarte_init+0x1c4>)
    248c:	545a      	strb	r2, [r3, r1]
    248e:	e7b2      	b.n	23f6 <nrfx_uarte_init+0x112>
    2490:	2008      	movs	r0, #8
    2492:	e7d0      	b.n	2436 <nrfx_uarte_init+0x152>
    2494:	2011      	movs	r0, #17
    2496:	e7ce      	b.n	2436 <nrfx_uarte_init+0x152>
    2498:	20000694 	.word	0x20000694
    249c:	00002181 	.word	0x00002181
    24a0:	00420310 	.word	0x00420310
    24a4:	e000e100 	.word	0xe000e100
    24a8:	e000ed14 	.word	0xe000ed14

000024ac <nrfx_uarte_uninit>:
    24ac:	b5f0      	push	{r4, r5, r6, r7, lr}
    24ae:	b083      	sub	sp, #12
    24b0:	4601      	mov	r1, r0
    24b2:	7904      	ldrb	r4, [r0, #4]
    24b4:	6800      	ldr	r0, [r0, #0]
    24b6:	eb04 02c4 	add.w	r2, r4, r4, lsl #3
    24ba:	4b4a      	ldr	r3, [pc, #296]	; (25e4 <nrfx_uarte_uninit+0x138>)
    24bc:	eb03 0382 	add.w	r3, r3, r2, lsl #2
    24c0:	685b      	ldr	r3, [r3, #4]
    24c2:	b1b3      	cbz	r3, 24f2 <nrfx_uarte_uninit+0x46>
    24c4:	4b48      	ldr	r3, [pc, #288]	; (25e8 <nrfx_uarte_uninit+0x13c>)
    24c6:	f8c0 3308 	str.w	r3, [r0, #776]	; 0x308
    24ca:	680b      	ldr	r3, [r1, #0]
    24cc:	0b1a      	lsrs	r2, r3, #12
    24ce:	f343 3307 	sbfx	r3, r3, #12, #8
    24d2:	2b00      	cmp	r3, #0
    24d4:	db0d      	blt.n	24f2 <nrfx_uarte_uninit+0x46>
    24d6:	095b      	lsrs	r3, r3, #5
    24d8:	f002 021f 	and.w	r2, r2, #31
    24dc:	2501      	movs	r5, #1
    24de:	fa05 f202 	lsl.w	r2, r5, r2
    24e2:	3320      	adds	r3, #32
    24e4:	4d41      	ldr	r5, [pc, #260]	; (25ec <nrfx_uarte_uninit+0x140>)
    24e6:	f845 2023 	str.w	r2, [r5, r3, lsl #2]
    24ea:	f3bf 8f4f 	dsb	sy
    24ee:	f3bf 8f6f 	isb	sy
    24f2:	f8d0 3200 	ldr.w	r3, [r0, #512]	; 0x200
    24f6:	f023 0320 	bic.w	r3, r3, #32
    24fa:	f8c0 3200 	str.w	r3, [r0, #512]	; 0x200
    24fe:	eb04 02c4 	add.w	r2, r4, r4, lsl #3
    2502:	4b38      	ldr	r3, [pc, #224]	; (25e4 <nrfx_uarte_uninit+0x138>)
    2504:	eb03 0382 	add.w	r3, r3, r2, lsl #2
    2508:	699b      	ldr	r3, [r3, #24]
    250a:	b143      	cbz	r3, 251e <nrfx_uarte_uninit+0x72>
    250c:	2300      	movs	r3, #0
    250e:	f8c0 3144 	str.w	r3, [r0, #324]	; 0x144
    2512:	f8d0 3144 	ldr.w	r3, [r0, #324]	; 0x144
    2516:	9300      	str	r3, [sp, #0]
    2518:	9b00      	ldr	r3, [sp, #0]
    251a:	2301      	movs	r3, #1
    251c:	6043      	str	r3, [r0, #4]
    251e:	2300      	movs	r3, #0
    2520:	f8c0 3158 	str.w	r3, [r0, #344]	; 0x158
    2524:	f8d0 3158 	ldr.w	r3, [r0, #344]	; 0x158
    2528:	9301      	str	r3, [sp, #4]
    252a:	9b01      	ldr	r3, [sp, #4]
    252c:	2301      	movs	r3, #1
    252e:	60c3      	str	r3, [r0, #12]
    2530:	eb04 03c4 	add.w	r3, r4, r4, lsl #3
    2534:	4a2b      	ldr	r2, [pc, #172]	; (25e4 <nrfx_uarte_uninit+0x138>)
    2536:	eb02 0283 	add.w	r2, r2, r3, lsl #2
    253a:	f8d0 3158 	ldr.w	r3, [r0, #344]	; 0x158
    253e:	2b00      	cmp	r3, #0
    2540:	d0fb      	beq.n	253a <nrfx_uarte_uninit+0x8e>
    2542:	6993      	ldr	r3, [r2, #24]
    2544:	b11b      	cbz	r3, 254e <nrfx_uarte_uninit+0xa2>
    2546:	f8d0 3144 	ldr.w	r3, [r0, #324]	; 0x144
    254a:	2b00      	cmp	r3, #0
    254c:	d0f5      	beq.n	253a <nrfx_uarte_uninit+0x8e>
    254e:	2300      	movs	r3, #0
    2550:	f8c0 3500 	str.w	r3, [r0, #1280]	; 0x500
    2554:	680b      	ldr	r3, [r1, #0]
    2556:	f8d3 c50c 	ldr.w	ip, [r3, #1292]	; 0x50c
    255a:	f8d3 7514 	ldr.w	r7, [r3, #1300]	; 0x514
    255e:	f8d3 5508 	ldr.w	r5, [r3, #1288]	; 0x508
    2562:	f8d3 6510 	ldr.w	r6, [r3, #1296]	; 0x510
    2566:	f04f 32ff 	mov.w	r2, #4294967295	; 0xffffffff
    256a:	f8c3 250c 	str.w	r2, [r3, #1292]	; 0x50c
    256e:	f8c3 2514 	str.w	r2, [r3, #1300]	; 0x514
    2572:	680b      	ldr	r3, [r1, #0]
    2574:	f8c3 2508 	str.w	r2, [r3, #1288]	; 0x508
    2578:	f8c3 2510 	str.w	r2, [r3, #1296]	; 0x510
    257c:	4594      	cmp	ip, r2
    257e:	d006      	beq.n	258e <nrfx_uarte_uninit+0xe2>
    2580:	f50c 7ce0 	add.w	ip, ip, #448	; 0x1c0
    2584:	f04f 43a0 	mov.w	r3, #1342177280	; 0x50000000
    2588:	2202      	movs	r2, #2
    258a:	f843 202c 	str.w	r2, [r3, ip, lsl #2]
    258e:	f1b7 3fff 	cmp.w	r7, #4294967295	; 0xffffffff
    2592:	d006      	beq.n	25a2 <nrfx_uarte_uninit+0xf6>
    2594:	f507 77e0 	add.w	r7, r7, #448	; 0x1c0
    2598:	f04f 43a0 	mov.w	r3, #1342177280	; 0x50000000
    259c:	2202      	movs	r2, #2
    259e:	f843 2027 	str.w	r2, [r3, r7, lsl #2]
    25a2:	f1b6 3fff 	cmp.w	r6, #4294967295	; 0xffffffff
    25a6:	d006      	beq.n	25b6 <nrfx_uarte_uninit+0x10a>
    25a8:	f506 76e0 	add.w	r6, r6, #448	; 0x1c0
    25ac:	f04f 43a0 	mov.w	r3, #1342177280	; 0x50000000
    25b0:	2202      	movs	r2, #2
    25b2:	f843 2026 	str.w	r2, [r3, r6, lsl #2]
    25b6:	f1b5 3fff 	cmp.w	r5, #4294967295	; 0xffffffff
    25ba:	d006      	beq.n	25ca <nrfx_uarte_uninit+0x11e>
    25bc:	f505 75e0 	add.w	r5, r5, #448	; 0x1c0
    25c0:	f04f 43a0 	mov.w	r3, #1342177280	; 0x50000000
    25c4:	2202      	movs	r2, #2
    25c6:	f843 2025 	str.w	r2, [r3, r5, lsl #2]
    25ca:	f7ff fb25 	bl	1c18 <nrfx_prs_release>
    25ce:	4b05      	ldr	r3, [pc, #20]	; (25e4 <nrfx_uarte_uninit+0x138>)
    25d0:	eb04 02c4 	add.w	r2, r4, r4, lsl #3
    25d4:	eb03 0282 	add.w	r2, r3, r2, lsl #2
    25d8:	2100      	movs	r1, #0
    25da:	f882 1020 	strb.w	r1, [r2, #32]
    25de:	6051      	str	r1, [r2, #4]
    25e0:	b003      	add	sp, #12
    25e2:	bdf0      	pop	{r4, r5, r6, r7, pc}
    25e4:	20000694 	.word	0x20000694
    25e8:	00420310 	.word	0x00420310
    25ec:	e000e100 	.word	0xe000e100

000025f0 <nrfx_uarte_tx_in_progress>:
    25f0:	7903      	ldrb	r3, [r0, #4]
    25f2:	eb03 03c3 	add.w	r3, r3, r3, lsl #3
    25f6:	4a04      	ldr	r2, [pc, #16]	; (2608 <nrfx_uarte_tx_in_progress+0x18>)
    25f8:	eb02 0383 	add.w	r3, r2, r3, lsl #2
    25fc:	6958      	ldr	r0, [r3, #20]
    25fe:	3800      	subs	r0, #0
    2600:	bf18      	it	ne
    2602:	2001      	movne	r0, #1
    2604:	4770      	bx	lr
    2606:	bf00      	nop
    2608:	20000694 	.word	0x20000694

0000260c <nrfx_uarte_tx>:
    260c:	f001 4360 	and.w	r3, r1, #3758096384	; 0xe0000000
    2610:	f1b3 5f00 	cmp.w	r3, #536870912	; 0x20000000
    2614:	d001      	beq.n	261a <nrfx_uarte_tx+0xe>
    2616:	2010      	movs	r0, #16
    2618:	4770      	bx	lr
    261a:	b5f0      	push	{r4, r5, r6, r7, lr}
    261c:	b083      	sub	sp, #12
    261e:	4604      	mov	r4, r0
    2620:	460d      	mov	r5, r1
    2622:	4616      	mov	r6, r2
    2624:	7907      	ldrb	r7, [r0, #4]
    2626:	f7ff ffe3 	bl	25f0 <nrfx_uarte_tx_in_progress>
    262a:	2800      	cmp	r0, #0
    262c:	d13f      	bne.n	26ae <nrfx_uarte_tx+0xa2>
    262e:	eb07 02c7 	add.w	r2, r7, r7, lsl #3
    2632:	4b20      	ldr	r3, [pc, #128]	; (26b4 <nrfx_uarte_tx+0xa8>)
    2634:	eb03 0382 	add.w	r3, r3, r2, lsl #2
    2638:	615e      	str	r6, [r3, #20]
    263a:	609d      	str	r5, [r3, #8]
    263c:	6822      	ldr	r2, [r4, #0]
    263e:	2100      	movs	r1, #0
    2640:	f8c2 1120 	str.w	r1, [r2, #288]	; 0x120
    2644:	f8d2 2120 	ldr.w	r2, [r2, #288]	; 0x120
    2648:	9201      	str	r2, [sp, #4]
    264a:	9a01      	ldr	r2, [sp, #4]
    264c:	6822      	ldr	r2, [r4, #0]
    264e:	f8c2 1158 	str.w	r1, [r2, #344]	; 0x158
    2652:	f8d2 2158 	ldr.w	r2, [r2, #344]	; 0x158
    2656:	9200      	str	r2, [sp, #0]
    2658:	9a00      	ldr	r2, [sp, #0]
    265a:	6822      	ldr	r2, [r4, #0]
    265c:	6959      	ldr	r1, [r3, #20]
    265e:	f8c2 5544 	str.w	r5, [r2, #1348]	; 0x544
    2662:	f8c2 1548 	str.w	r1, [r2, #1352]	; 0x548
    2666:	6822      	ldr	r2, [r4, #0]
    2668:	2101      	movs	r1, #1
    266a:	6091      	str	r1, [r2, #8]
    266c:	685b      	ldr	r3, [r3, #4]
    266e:	b113      	cbz	r3, 2676 <nrfx_uarte_tx+0x6a>
    2670:	2000      	movs	r0, #0
    2672:	b003      	add	sp, #12
    2674:	bdf0      	pop	{r4, r5, r6, r7, pc}
    2676:	6823      	ldr	r3, [r4, #0]
    2678:	f8d3 2120 	ldr.w	r2, [r3, #288]	; 0x120
    267c:	f8d3 0158 	ldr.w	r0, [r3, #344]	; 0x158
    2680:	b91a      	cbnz	r2, 268a <nrfx_uarte_tx+0x7e>
    2682:	2800      	cmp	r0, #0
    2684:	d0f8      	beq.n	2678 <nrfx_uarte_tx+0x6c>
    2686:	200f      	movs	r0, #15
    2688:	e007      	b.n	269a <nrfx_uarte_tx+0x8e>
    268a:	b970      	cbnz	r0, 26aa <nrfx_uarte_tx+0x9e>
    268c:	2201      	movs	r2, #1
    268e:	60da      	str	r2, [r3, #12]
    2690:	6822      	ldr	r2, [r4, #0]
    2692:	f8d2 3158 	ldr.w	r3, [r2, #344]	; 0x158
    2696:	2b00      	cmp	r3, #0
    2698:	d0fb      	beq.n	2692 <nrfx_uarte_tx+0x86>
    269a:	eb07 07c7 	add.w	r7, r7, r7, lsl #3
    269e:	4b05      	ldr	r3, [pc, #20]	; (26b4 <nrfx_uarte_tx+0xa8>)
    26a0:	eb03 0387 	add.w	r3, r3, r7, lsl #2
    26a4:	2200      	movs	r2, #0
    26a6:	615a      	str	r2, [r3, #20]
    26a8:	e7e3      	b.n	2672 <nrfx_uarte_tx+0x66>
    26aa:	200f      	movs	r0, #15
    26ac:	e7f5      	b.n	269a <nrfx_uarte_tx+0x8e>
    26ae:	2011      	movs	r0, #17
    26b0:	e7df      	b.n	2672 <nrfx_uarte_tx+0x66>
    26b2:	bf00      	nop
    26b4:	20000694 	.word	0x20000694

000026b8 <prepare_tx_data>:
    26b8:	b510      	push	{r4, lr}
    26ba:	4b18      	ldr	r3, [pc, #96]	; (271c <prepare_tx_data+0x64>)
    26bc:	781b      	ldrb	r3, [r3, #0]
    26be:	4a18      	ldr	r2, [pc, #96]	; (2720 <prepare_tx_data+0x68>)
    26c0:	7812      	ldrb	r2, [r2, #0]
    26c2:	4313      	orrs	r3, r2
    26c4:	d10b      	bne.n	26de <prepare_tx_data+0x26>
    26c6:	4b16      	ldr	r3, [pc, #88]	; (2720 <prepare_tx_data+0x68>)
    26c8:	2202      	movs	r2, #2
    26ca:	701a      	strb	r2, [r3, #0]
    26cc:	f64c 23fe 	movw	r3, #51966	; 0xcafe
    26d0:	4a14      	ldr	r2, [pc, #80]	; (2724 <prepare_tx_data+0x6c>)
    26d2:	8013      	strh	r3, [r2, #0]
    26d4:	4a14      	ldr	r2, [pc, #80]	; (2728 <prepare_tx_data+0x70>)
    26d6:	8013      	strh	r3, [r2, #0]
    26d8:	4b14      	ldr	r3, [pc, #80]	; (272c <prepare_tx_data+0x74>)
    26da:	2200      	movs	r2, #0
    26dc:	701a      	strb	r2, [r3, #0]
    26de:	4b11      	ldr	r3, [pc, #68]	; (2724 <prepare_tx_data+0x6c>)
    26e0:	f8b3 c000 	ldrh.w	ip, [r3]
    26e4:	2200      	movs	r2, #0
    26e6:	f10c 34ff 	add.w	r4, ip, #4294967295	; 0xffffffff
    26ea:	f10c 0c01 	add.w	ip, ip, #1
    26ee:	f100 0e02 	add.w	lr, r0, #2
    26f2:	b293      	uxth	r3, r2
    26f4:	1919      	adds	r1, r3, r4
    26f6:	b289      	uxth	r1, r1
    26f8:	4463      	add	r3, ip
    26fa:	b29b      	uxth	r3, r3
    26fc:	f820 1022 	strh.w	r1, [r0, r2, lsl #2]
    2700:	f82e 3022 	strh.w	r3, [lr, r2, lsl #2]
    2704:	3201      	adds	r2, #1
    2706:	f5b2 7f00 	cmp.w	r2, #512	; 0x200
    270a:	d1f2      	bne.n	26f2 <prepare_tx_data+0x3a>
    270c:	4a05      	ldr	r2, [pc, #20]	; (2724 <prepare_tx_data+0x6c>)
    270e:	8013      	strh	r3, [r2, #0]
    2710:	f8a0 17fc 	strh.w	r1, [r0, #2044]	; 0x7fc
    2714:	f8a0 37fe 	strh.w	r3, [r0, #2046]	; 0x7fe
    2718:	bd10      	pop	{r4, pc}
    271a:	bf00      	nop
    271c:	200006b8 	.word	0x200006b8
    2720:	200026c2 	.word	0x200026c2
    2724:	200026c0 	.word	0x200026c0
    2728:	200026be 	.word	0x200026be
    272c:	200026bc 	.word	0x200026bc

00002730 <data_handler>:
    2730:	f011 0f01 	tst.w	r1, #1
    2734:	d022      	beq.n	277c <data_handler+0x4c>
    2736:	b510      	push	{r4, lr}
    2738:	b082      	sub	sp, #8
    273a:	4604      	mov	r4, r0
    273c:	6803      	ldr	r3, [r0, #0]
    273e:	b14b      	cbz	r3, 2754 <data_handler+0x24>
    2740:	4a0f      	ldr	r2, [pc, #60]	; (2780 <data_handler+0x50>)
    2742:	6013      	str	r3, [r2, #0]
    2744:	f7ff f95a 	bl	19fc <nrfx_i2s_next_buffers_set>
    2748:	b9a8      	cbnz	r0, 2776 <data_handler+0x46>
    274a:	6862      	ldr	r2, [r4, #4]
    274c:	4b0d      	ldr	r3, [pc, #52]	; (2784 <data_handler+0x54>)
    274e:	601a      	str	r2, [r3, #0]
    2750:	b002      	add	sp, #8
    2752:	bd10      	pop	{r4, pc}
    2754:	4a0c      	ldr	r2, [pc, #48]	; (2788 <data_handler+0x58>)
    2756:	466b      	mov	r3, sp
    2758:	e892 0003 	ldmia.w	r2, {r0, r1}
    275c:	e883 0003 	stmia.w	r3, {r0, r1}
    2760:	4618      	mov	r0, r3
    2762:	f7ff f94b 	bl	19fc <nrfx_i2s_next_buffers_set>
    2766:	b918      	cbnz	r0, 2770 <data_handler+0x40>
    2768:	4b06      	ldr	r3, [pc, #24]	; (2784 <data_handler+0x54>)
    276a:	4a08      	ldr	r2, [pc, #32]	; (278c <data_handler+0x5c>)
    276c:	601a      	str	r2, [r3, #0]
    276e:	e7ef      	b.n	2750 <data_handler+0x20>
    2770:	f7fe fbbf 	bl	ef2 <app_error_handler_bare>
    2774:	e7f8      	b.n	2768 <data_handler+0x38>
    2776:	f7fe fbbc 	bl	ef2 <app_error_handler_bare>
    277a:	e7e6      	b.n	274a <data_handler+0x1a>
    277c:	4770      	bx	lr
    277e:	bf00      	nop
    2780:	200026c4 	.word	0x200026c4
    2784:	200026c8 	.word	0x200026c8
    2788:	00003154 	.word	0x00003154
    278c:	20001ebc 	.word	0x20001ebc

00002790 <app_error_fault_handler>:
    2790:	b570      	push	{r4, r5, r6, lr}
    2792:	4604      	mov	r4, r0
    2794:	460d      	mov	r5, r1
    2796:	4616      	mov	r6, r2
    2798:	f7fe fb68 	bl	e6c <bsp_board_leds_on>
    279c:	4632      	mov	r2, r6
    279e:	4629      	mov	r1, r5
    27a0:	4620      	mov	r0, r4
    27a2:	f7fe fbb5 	bl	f10 <app_error_save_and_stop>
    27a6:	bd70      	pop	{r4, r5, r6, pc}

000027a8 <main>:
    27a8:	e92d 4ff0 	stmdb	sp!, {r4, r5, r6, r7, r8, r9, sl, fp, lr}
    27ac:	b08f      	sub	sp, #60	; 0x3c
    27ae:	2001      	movs	r0, #1
    27b0:	f7fe fb7c 	bl	eac <bsp_board_init>
    27b4:	2100      	movs	r1, #0
    27b6:	4608      	mov	r0, r1
    27b8:	f7fd ff14 	bl	5e4 <nrf_log_init>
    27bc:	bb78      	cbnz	r0, 281e <main+0x76>
    27be:	f7fd fe8d 	bl	4dc <nrf_log_default_backends_init>
    27c2:	4b6d      	ldr	r3, [pc, #436]	; (2978 <main+0x1d0>)
    27c4:	4a6d      	ldr	r2, [pc, #436]	; (297c <main+0x1d4>)
    27c6:	1a9b      	subs	r3, r3, r2
    27c8:	08db      	lsrs	r3, r3, #3
    27ca:	041b      	lsls	r3, r3, #16
    27cc:	f043 0303 	orr.w	r3, r3, #3
    27d0:	9304      	str	r3, [sp, #16]
    27d2:	496b      	ldr	r1, [pc, #428]	; (2980 <main+0x1d8>)
    27d4:	4618      	mov	r0, r3
    27d6:	f7fe f879 	bl	8cc <nrf_log_frontend_std_0>
    27da:	ac09      	add	r4, sp, #36	; 0x24
    27dc:	4d69      	ldr	r5, [pc, #420]	; (2984 <main+0x1dc>)
    27de:	cd0f      	ldmia	r5!, {r0, r1, r2, r3}
    27e0:	c40f      	stmia	r4!, {r0, r1, r2, r3}
    27e2:	682b      	ldr	r3, [r5, #0]
    27e4:	6023      	str	r3, [r4, #0]
    27e6:	231a      	movs	r3, #26
    27e8:	f88d 3028 	strb.w	r3, [sp, #40]	; 0x28
    27ec:	231b      	movs	r3, #27
    27ee:	f88d 3027 	strb.w	r3, [sp, #39]	; 0x27
    27f2:	f04f 6340 	mov.w	r3, #201326592	; 0xc000000
    27f6:	930c      	str	r3, [sp, #48]	; 0x30
    27f8:	2303      	movs	r3, #3
    27fa:	f88d 3034 	strb.w	r3, [sp, #52]	; 0x34
    27fe:	2300      	movs	r3, #0
    2800:	f88d 302e 	strb.w	r3, [sp, #46]	; 0x2e
    2804:	4960      	ldr	r1, [pc, #384]	; (2988 <main+0x1e0>)
    2806:	a809      	add	r0, sp, #36	; 0x24
    2808:	f7fe ffdc 	bl	17c4 <nrfx_i2s_init>
    280c:	b950      	cbnz	r0, 2824 <main+0x7c>
    280e:	4c5f      	ldr	r4, [pc, #380]	; (298c <main+0x1e4>)
    2810:	f04f 0a00 	mov.w	sl, #0
    2814:	f88d a017 	strb.w	sl, [sp, #23]
    2818:	4f5d      	ldr	r7, [pc, #372]	; (2990 <main+0x1e8>)
    281a:	4e5e      	ldr	r6, [pc, #376]	; (2994 <main+0x1ec>)
    281c:	e091      	b.n	2942 <main+0x19a>
    281e:	f7fe fb68 	bl	ef2 <app_error_handler_bare>
    2822:	e7cc      	b.n	27be <main+0x16>
    2824:	f7fe fb65 	bl	ef2 <app_error_handler_bare>
    2828:	e7f1      	b.n	280e <main+0x66>
    282a:	4b5b      	ldr	r3, [pc, #364]	; (2998 <main+0x1f0>)
    282c:	781a      	ldrb	r2, [r3, #0]
    282e:	4b5b      	ldr	r3, [pc, #364]	; (299c <main+0x1f4>)
    2830:	8819      	ldrh	r1, [r3, #0]
    2832:	46a9      	mov	r9, r5
    2834:	2000      	movs	r0, #0
    2836:	f10e 0802 	add.w	r8, lr, #2
    283a:	e010      	b.n	285e <main+0xb6>
    283c:	f101 39ff 	add.w	r9, r1, #4294967295	; 0xffffffff
    2840:	fa1f f989 	uxth.w	r9, r9
    2844:	3101      	adds	r1, #1
    2846:	b289      	uxth	r1, r1
    2848:	454b      	cmp	r3, r9
    284a:	d114      	bne.n	2876 <main+0xce>
    284c:	458c      	cmp	ip, r1
    284e:	d151      	bne.n	28f4 <main+0x14c>
    2850:	f04f 0901 	mov.w	r9, #1
    2854:	4652      	mov	r2, sl
    2856:	3001      	adds	r0, #1
    2858:	f5b0 7f00 	cmp.w	r0, #512	; 0x200
    285c:	d050      	beq.n	2900 <main+0x158>
    285e:	f83e 3020 	ldrh.w	r3, [lr, r0, lsl #2]
    2862:	f838 c020 	ldrh.w	ip, [r8, r0, lsl #2]
    2866:	2a00      	cmp	r2, #0
    2868:	d0e8      	beq.n	283c <main+0x94>
    286a:	ea53 0b0c 	orrs.w	fp, r3, ip
    286e:	d1e5      	bne.n	283c <main+0x94>
    2870:	3a01      	subs	r2, #1
    2872:	b2d2      	uxtb	r2, r2
    2874:	e7ef      	b.n	2856 <main+0xae>
    2876:	4a49      	ldr	r2, [pc, #292]	; (299c <main+0x1f4>)
    2878:	8011      	strh	r1, [r2, #0]
    287a:	4a47      	ldr	r2, [pc, #284]	; (2998 <main+0x1f0>)
    287c:	f882 a000 	strb.w	sl, [r2]
    2880:	7822      	ldrb	r2, [r4, #0]
    2882:	9003      	str	r0, [sp, #12]
    2884:	9102      	str	r1, [sp, #8]
    2886:	f8cd 9004 	str.w	r9, [sp, #4]
    288a:	f8cd c000 	str.w	ip, [sp]
    288e:	4944      	ldr	r1, [pc, #272]	; (29a0 <main+0x1f8>)
    2890:	9804      	ldr	r0, [sp, #16]
    2892:	f7fe f8eb 	bl	a6c <nrf_log_frontend_std_6>
    2896:	f085 0501 	eor.w	r5, r5, #1
    289a:	4b42      	ldr	r3, [pc, #264]	; (29a4 <main+0x1fc>)
    289c:	701d      	strb	r5, [r3, #0]
    289e:	bb15      	cbnz	r5, 28e6 <main+0x13e>
    28a0:	2001      	movs	r0, #1
    28a2:	f7fe fac9 	bl	e38 <bsp_board_led_off>
    28a6:	4650      	mov	r0, sl
    28a8:	f7fe faee 	bl	e88 <bsp_board_led_invert>
    28ac:	f8c6 a000 	str.w	sl, [r6]
    28b0:	7823      	ldrb	r3, [r4, #0]
    28b2:	b2db      	uxtb	r3, r3
    28b4:	2b13      	cmp	r3, #19
    28b6:	d831      	bhi.n	291c <main+0x174>
    28b8:	bf20      	wfe
    28ba:	bf40      	sev
    28bc:	bf20      	wfe
    28be:	683b      	ldr	r3, [r7, #0]
    28c0:	b123      	cbz	r3, 28cc <main+0x124>
    28c2:	6838      	ldr	r0, [r7, #0]
    28c4:	f7ff fef8 	bl	26b8 <prepare_tx_data>
    28c8:	f8c7 a000 	str.w	sl, [r7]
    28cc:	6833      	ldr	r3, [r6, #0]
    28ce:	2b00      	cmp	r3, #0
    28d0:	d0ee      	beq.n	28b0 <main+0x108>
    28d2:	f8d6 e000 	ldr.w	lr, [r6]
    28d6:	7823      	ldrb	r3, [r4, #0]
    28d8:	3301      	adds	r3, #1
    28da:	b2db      	uxtb	r3, r3
    28dc:	7023      	strb	r3, [r4, #0]
    28de:	4b31      	ldr	r3, [pc, #196]	; (29a4 <main+0x1fc>)
    28e0:	781d      	ldrb	r5, [r3, #0]
    28e2:	2d00      	cmp	r5, #0
    28e4:	d0a1      	beq.n	282a <main+0x82>
    28e6:	4650      	mov	r0, sl
    28e8:	f7fe faa6 	bl	e38 <bsp_board_led_off>
    28ec:	2001      	movs	r0, #1
    28ee:	f7fe facb 	bl	e88 <bsp_board_led_invert>
    28f2:	e7db      	b.n	28ac <main+0x104>
    28f4:	4a29      	ldr	r2, [pc, #164]	; (299c <main+0x1f4>)
    28f6:	8011      	strh	r1, [r2, #0]
    28f8:	4a27      	ldr	r2, [pc, #156]	; (2998 <main+0x1f0>)
    28fa:	f882 a000 	strb.w	sl, [r2]
    28fe:	e7bf      	b.n	2880 <main+0xd8>
    2900:	f1b9 0f00 	cmp.w	r9, #0
    2904:	d001      	beq.n	290a <main+0x162>
    2906:	4b25      	ldr	r3, [pc, #148]	; (299c <main+0x1f4>)
    2908:	8019      	strh	r1, [r3, #0]
    290a:	4b23      	ldr	r3, [pc, #140]	; (2998 <main+0x1f0>)
    290c:	701a      	strb	r2, [r3, #0]
    290e:	7822      	ldrb	r2, [r4, #0]
    2910:	4925      	ldr	r1, [pc, #148]	; (29a8 <main+0x200>)
    2912:	9804      	ldr	r0, [sp, #16]
    2914:	f7fe f83e 	bl	994 <nrf_log_frontend_std_1>
    2918:	2501      	movs	r5, #1
    291a:	e7bc      	b.n	2896 <main+0xee>
    291c:	f7ff f8a6 	bl	1a6c <nrfx_i2s_stop>
    2920:	f7fd feb6 	bl	690 <nrf_log_frontend_dequeue>
    2924:	2800      	cmp	r0, #0
    2926:	d1fb      	bne.n	2920 <main+0x178>
    2928:	f7fe fa92 	bl	e50 <bsp_board_leds_off>
    292c:	f44f 75fa 	mov.w	r5, #500	; 0x1f4
    2930:	4b1e      	ldr	r3, [pc, #120]	; (29ac <main+0x204>)
    2932:	f043 0801 	orr.w	r8, r3, #1
    2936:	f44f 497a 	mov.w	r9, #64000	; 0xfa00
    293a:	4648      	mov	r0, r9
    293c:	47c0      	blx	r8
    293e:	3d01      	subs	r5, #1
    2940:	d1fb      	bne.n	293a <main+0x192>
    2942:	f89d 3017 	ldrb.w	r3, [sp, #23]
    2946:	7023      	strb	r3, [r4, #0]
    2948:	f8c7 a000 	str.w	sl, [r7]
    294c:	f8c6 a000 	str.w	sl, [r6]
    2950:	4817      	ldr	r0, [pc, #92]	; (29b0 <main+0x208>)
    2952:	f7ff feb1 	bl	26b8 <prepare_tx_data>
    2956:	ab07      	add	r3, sp, #28
    2958:	4a16      	ldr	r2, [pc, #88]	; (29b4 <main+0x20c>)
    295a:	e892 0003 	ldmia.w	r2, {r0, r1}
    295e:	e883 0003 	stmia.w	r3, {r0, r1}
    2962:	4652      	mov	r2, sl
    2964:	f44f 7100 	mov.w	r1, #512	; 0x200
    2968:	4618      	mov	r0, r3
    296a:	f7fe ffcf 	bl	190c <nrfx_i2s_start>
    296e:	2800      	cmp	r0, #0
    2970:	d0a2      	beq.n	28b8 <main+0x110>
    2972:	f7fe fabe 	bl	ef2 <app_error_handler_bare>
    2976:	e79f      	b.n	28b8 <main+0x110>
    2978:	000032ac 	.word	0x000032ac
    297c:	0000328c 	.word	0x0000328c
    2980:	00003100 	.word	0x00003100
    2984:	0000315c 	.word	0x0000315c
    2988:	00002731 	.word	0x00002731
    298c:	200006b8 	.word	0x200006b8
    2990:	200026c8 	.word	0x200026c8
    2994:	200026c4 	.word	0x200026c4
    2998:	200026c2 	.word	0x200026c2
    299c:	200026be 	.word	0x200026be
    29a0:	00003120 	.word	0x00003120
    29a4:	200026bc 	.word	0x200026bc
    29a8:	0000314c 	.word	0x0000314c
    29ac:	00003180 	.word	0x00003180
    29b0:	200016bc 	.word	0x200016bc
    29b4:	00003170 	.word	0x00003170

000029b8 <SystemInit>:
    29b8:	f04f 5380 	mov.w	r3, #268435456	; 0x10000000
    29bc:	f8d3 3130 	ldr.w	r3, [r3, #304]	; 0x130
    29c0:	f1b3 3fff 	cmp.w	r3, #4294967295	; 0xffffffff
    29c4:	bf04      	itt	eq
    29c6:	f04f 4370 	moveq.w	r3, #4026531840	; 0xf0000000
    29ca:	f893 3fe0 	ldrbeq.w	r3, [r3, #4064]	; 0xfe0
    29ce:	2b06      	cmp	r3, #6
    29d0:	d108      	bne.n	29e4 <SystemInit+0x2c>
    29d2:	f04f 5380 	mov.w	r3, #268435456	; 0x10000000
    29d6:	f8d3 3324 	ldr.w	r3, [r3, #804]	; 0x324
    29da:	f3c3 2304 	ubfx	r3, r3, #8, #5
    29de:	4ac5      	ldr	r2, [pc, #788]	; (2cf4 <SystemInit+0x33c>)
    29e0:	f8c2 3540 	str.w	r3, [r2, #1344]	; 0x540
    29e4:	f04f 4370 	mov.w	r3, #4026531840	; 0xf0000000
    29e8:	f893 3fe0 	ldrb.w	r3, [r3, #4064]	; 0xfe0
    29ec:	2b06      	cmp	r3, #6
    29ee:	d070      	beq.n	2ad2 <SystemInit+0x11a>
    29f0:	f04f 5380 	mov.w	r3, #268435456	; 0x10000000
    29f4:	f8d3 3130 	ldr.w	r3, [r3, #304]	; 0x130
    29f8:	f1b3 3fff 	cmp.w	r3, #4294967295	; 0xffffffff
    29fc:	bf04      	itt	eq
    29fe:	f04f 4370 	moveq.w	r3, #4026531840	; 0xf0000000
    2a02:	f893 3fe0 	ldrbeq.w	r3, [r3, #4064]	; 0xfe0
    2a06:	2b06      	cmp	r3, #6
    2a08:	d109      	bne.n	2a1e <SystemInit+0x66>
    2a0a:	f04f 5380 	mov.w	r3, #268435456	; 0x10000000
    2a0e:	f8d3 3244 	ldr.w	r3, [r3, #580]	; 0x244
    2a12:	f3c3 3342 	ubfx	r3, r3, #13, #3
    2a16:	f04f 4280 	mov.w	r2, #1073741824	; 0x40000000
    2a1a:	f8c2 353c 	str.w	r3, [r2, #1340]	; 0x53c
    2a1e:	f04f 4370 	mov.w	r3, #4026531840	; 0xf0000000
    2a22:	f893 3fe0 	ldrb.w	r3, [r3, #4064]	; 0xfe0
    2a26:	2b06      	cmp	r3, #6
    2a28:	d05f      	beq.n	2aea <SystemInit+0x132>
    2a2a:	f04f 5380 	mov.w	r3, #268435456	; 0x10000000
    2a2e:	f8d3 3130 	ldr.w	r3, [r3, #304]	; 0x130
    2a32:	f1b3 3fff 	cmp.w	r3, #4294967295	; 0xffffffff
    2a36:	bf04      	itt	eq
    2a38:	f04f 4370 	moveq.w	r3, #4026531840	; 0xf0000000
    2a3c:	f893 3fe0 	ldrbeq.w	r3, [r3, #4064]	; 0xfe0
    2a40:	2b06      	cmp	r3, #6
    2a42:	d108      	bne.n	2a56 <SystemInit+0x9e>
    2a44:	f04f 4380 	mov.w	r3, #1073741824	; 0x40000000
    2a48:	2200      	movs	r2, #0
    2a4a:	f8c3 210c 	str.w	r2, [r3, #268]	; 0x10c
    2a4e:	f8c3 2110 	str.w	r2, [r3, #272]	; 0x110
    2a52:	f8c3 2538 	str.w	r2, [r3, #1336]	; 0x538
    2a56:	f04f 4370 	mov.w	r3, #4026531840	; 0xf0000000
    2a5a:	f893 3fe0 	ldrb.w	r3, [r3, #4064]	; 0xfe0
    2a5e:	2b06      	cmp	r3, #6
    2a60:	d053      	beq.n	2b0a <SystemInit+0x152>
    2a62:	f04f 5380 	mov.w	r3, #268435456	; 0x10000000
    2a66:	f8d3 2130 	ldr.w	r2, [r3, #304]	; 0x130
    2a6a:	f1b2 3fff 	cmp.w	r2, #4294967295	; 0xffffffff
    2a6e:	d075      	beq.n	2b5c <SystemInit+0x1a4>
    2a70:	f04f 5380 	mov.w	r3, #268435456	; 0x10000000
    2a74:	f8d3 3134 	ldr.w	r3, [r3, #308]	; 0x134
    2a78:	2a06      	cmp	r2, #6
    2a7a:	f000 80a4 	beq.w	2bc6 <SystemInit+0x20e>
    2a7e:	f04f 5380 	mov.w	r3, #268435456	; 0x10000000
    2a82:	f8d3 3130 	ldr.w	r3, [r3, #304]	; 0x130
    2a86:	2b06      	cmp	r3, #6
    2a88:	d078      	beq.n	2b7c <SystemInit+0x1c4>
    2a8a:	f04f 5380 	mov.w	r3, #268435456	; 0x10000000
    2a8e:	f8d3 3130 	ldr.w	r3, [r3, #304]	; 0x130
    2a92:	2b06      	cmp	r3, #6
    2a94:	f000 80ea 	beq.w	2c6c <SystemInit+0x2b4>
    2a98:	4a97      	ldr	r2, [pc, #604]	; (2cf8 <SystemInit+0x340>)
    2a9a:	f8d2 3088 	ldr.w	r3, [r2, #136]	; 0x88
    2a9e:	f443 0370 	orr.w	r3, r3, #15728640	; 0xf00000
    2aa2:	f8c2 3088 	str.w	r3, [r2, #136]	; 0x88
    2aa6:	f3bf 8f4f 	dsb	sy
    2aaa:	f3bf 8f6f 	isb	sy
    2aae:	f04f 2310 	mov.w	r3, #268439552	; 0x10001000
    2ab2:	f8d3 3200 	ldr.w	r3, [r3, #512]	; 0x200
    2ab6:	2b00      	cmp	r3, #0
    2ab8:	f2c0 80e8 	blt.w	2c8c <SystemInit+0x2d4>
    2abc:	f04f 2310 	mov.w	r3, #268439552	; 0x10001000
    2ac0:	f8d3 3204 	ldr.w	r3, [r3, #516]	; 0x204
    2ac4:	2b00      	cmp	r3, #0
    2ac6:	f2c0 80e1 	blt.w	2c8c <SystemInit+0x2d4>
    2aca:	4b8c      	ldr	r3, [pc, #560]	; (2cfc <SystemInit+0x344>)
    2acc:	4a8c      	ldr	r2, [pc, #560]	; (2d00 <SystemInit+0x348>)
    2ace:	601a      	str	r2, [r3, #0]
    2ad0:	4770      	bx	lr
    2ad2:	f04f 4370 	mov.w	r3, #4026531840	; 0xf0000000
    2ad6:	f8d3 3fe8 	ldr.w	r3, [r3, #4072]	; 0xfe8
    2ada:	f3c3 1303 	ubfx	r3, r3, #4, #4
    2ade:	2b03      	cmp	r3, #3
    2ae0:	d186      	bne.n	29f0 <SystemInit+0x38>
    2ae2:	4b88      	ldr	r3, [pc, #544]	; (2d04 <SystemInit+0x34c>)
    2ae4:	4a88      	ldr	r2, [pc, #544]	; (2d08 <SystemInit+0x350>)
    2ae6:	675a      	str	r2, [r3, #116]	; 0x74
    2ae8:	e782      	b.n	29f0 <SystemInit+0x38>
    2aea:	f04f 4370 	mov.w	r3, #4026531840	; 0xf0000000
    2aee:	f8d3 3fe8 	ldr.w	r3, [r3, #4072]	; 0xfe8
    2af2:	f3c3 1303 	ubfx	r3, r3, #4, #4
    2af6:	2b03      	cmp	r3, #3
    2af8:	d197      	bne.n	2a2a <SystemInit+0x72>
    2afa:	4a7f      	ldr	r2, [pc, #508]	; (2cf8 <SystemInit+0x340>)
    2afc:	f8d2 30fc 	ldr.w	r3, [r2, #252]	; 0xfc
    2b00:	f023 7380 	bic.w	r3, r3, #16777216	; 0x1000000
    2b04:	f8c2 30fc 	str.w	r3, [r2, #252]	; 0xfc
    2b08:	e78f      	b.n	2a2a <SystemInit+0x72>
    2b0a:	f04f 4370 	mov.w	r3, #4026531840	; 0xf0000000
    2b0e:	f8d3 3fe8 	ldr.w	r3, [r3, #4072]	; 0xfe8
    2b12:	f3c3 1303 	ubfx	r3, r3, #4, #4
    2b16:	2b03      	cmp	r3, #3
    2b18:	d10a      	bne.n	2b30 <SystemInit+0x178>
    2b1a:	f04f 4380 	mov.w	r3, #1073741824	; 0x40000000
    2b1e:	2203      	movs	r2, #3
    2b20:	f8c3 25a0 	str.w	r2, [r3, #1440]	; 0x5a0
    2b24:	f04f 4370 	mov.w	r3, #4026531840	; 0xf0000000
    2b28:	f893 3fe0 	ldrb.w	r3, [r3, #4064]	; 0xfe0
    2b2c:	2b06      	cmp	r3, #6
    2b2e:	d198      	bne.n	2a62 <SystemInit+0xaa>
    2b30:	f04f 4370 	mov.w	r3, #4026531840	; 0xf0000000
    2b34:	f8d3 3fe8 	ldr.w	r3, [r3, #4072]	; 0xfe8
    2b38:	f3c3 1303 	ubfx	r3, r3, #4, #4
    2b3c:	2b03      	cmp	r3, #3
    2b3e:	d190      	bne.n	2a62 <SystemInit+0xaa>
    2b40:	4b72      	ldr	r3, [pc, #456]	; (2d0c <SystemInit+0x354>)
    2b42:	2205      	movs	r2, #5
    2b44:	f8c3 2610 	str.w	r2, [r3, #1552]	; 0x610
    2b48:	2201      	movs	r2, #1
    2b4a:	f8c3 2688 	str.w	r2, [r3, #1672]	; 0x688
    2b4e:	2200      	movs	r2, #0
    2b50:	f8c3 2618 	str.w	r2, [r3, #1560]	; 0x618
    2b54:	223f      	movs	r2, #63	; 0x3f
    2b56:	f8c3 2614 	str.w	r2, [r3, #1556]	; 0x614
    2b5a:	e782      	b.n	2a62 <SystemInit+0xaa>
    2b5c:	f04f 4270 	mov.w	r2, #4026531840	; 0xf0000000
    2b60:	f8d2 3fe8 	ldr.w	r3, [r2, #4072]	; 0xfe8
    2b64:	f3c3 1303 	ubfx	r3, r3, #4, #4
    2b68:	f892 2fe0 	ldrb.w	r2, [r2, #4064]	; 0xfe0
    2b6c:	2a06      	cmp	r2, #6
    2b6e:	d02a      	beq.n	2bc6 <SystemInit+0x20e>
    2b70:	f04f 4370 	mov.w	r3, #4026531840	; 0xf0000000
    2b74:	f893 3fe0 	ldrb.w	r3, [r3, #4064]	; 0xfe0
    2b78:	2b06      	cmp	r3, #6
    2b7a:	d10e      	bne.n	2b9a <SystemInit+0x1e2>
    2b7c:	f04f 5280 	mov.w	r2, #268435456	; 0x10000000
    2b80:	f8d2 3258 	ldr.w	r3, [r2, #600]	; 0x258
    2b84:	f003 034f 	and.w	r3, r3, #79	; 0x4f
    2b88:	f04f 4180 	mov.w	r1, #1073741824	; 0x40000000
    2b8c:	f8c1 3ee4 	str.w	r3, [r1, #3812]	; 0xee4
    2b90:	f8d2 3130 	ldr.w	r3, [r2, #304]	; 0x130
    2b94:	f1b3 3fff 	cmp.w	r3, #4294967295	; 0xffffffff
    2b98:	d103      	bne.n	2ba2 <SystemInit+0x1ea>
    2b9a:	f04f 4370 	mov.w	r3, #4026531840	; 0xf0000000
    2b9e:	f893 3fe0 	ldrb.w	r3, [r3, #4064]	; 0xfe0
    2ba2:	2b06      	cmp	r3, #6
    2ba4:	f47f af71 	bne.w	2a8a <SystemInit+0xd2>
    2ba8:	f04f 4380 	mov.w	r3, #1073741824	; 0x40000000
    2bac:	f8d3 3400 	ldr.w	r3, [r3, #1024]	; 0x400
    2bb0:	f013 0f01 	tst.w	r3, #1
    2bb4:	f43f af69 	beq.w	2a8a <SystemInit+0xd2>
    2bb8:	f04f 4380 	mov.w	r3, #1073741824	; 0x40000000
    2bbc:	f06f 0201 	mvn.w	r2, #1
    2bc0:	f8c3 2400 	str.w	r2, [r3, #1024]	; 0x400
    2bc4:	e761      	b.n	2a8a <SystemInit+0xd2>
    2bc6:	3b03      	subs	r3, #3
    2bc8:	2b01      	cmp	r3, #1
    2bca:	d946      	bls.n	2c5a <SystemInit+0x2a2>
    2bcc:	f04f 5280 	mov.w	r2, #268435456	; 0x10000000
    2bd0:	f8d2 1404 	ldr.w	r1, [r2, #1028]	; 0x404
    2bd4:	4b4e      	ldr	r3, [pc, #312]	; (2d10 <SystemInit+0x358>)
    2bd6:	f8c3 1520 	str.w	r1, [r3, #1312]	; 0x520
    2bda:	f8d2 1408 	ldr.w	r1, [r2, #1032]	; 0x408
    2bde:	f8c3 1524 	str.w	r1, [r3, #1316]	; 0x524
    2be2:	f8d2 140c 	ldr.w	r1, [r2, #1036]	; 0x40c
    2be6:	f8c3 1528 	str.w	r1, [r3, #1320]	; 0x528
    2bea:	f8d2 1410 	ldr.w	r1, [r2, #1040]	; 0x410
    2bee:	f8c3 152c 	str.w	r1, [r3, #1324]	; 0x52c
    2bf2:	f8d2 1414 	ldr.w	r1, [r2, #1044]	; 0x414
    2bf6:	f8c3 1530 	str.w	r1, [r3, #1328]	; 0x530
    2bfa:	f8d2 1418 	ldr.w	r1, [r2, #1048]	; 0x418
    2bfe:	f8c3 1534 	str.w	r1, [r3, #1332]	; 0x534
    2c02:	f8d2 141c 	ldr.w	r1, [r2, #1052]	; 0x41c
    2c06:	f8c3 1540 	str.w	r1, [r3, #1344]	; 0x540
    2c0a:	f8d2 1420 	ldr.w	r1, [r2, #1056]	; 0x420
    2c0e:	f8c3 1544 	str.w	r1, [r3, #1348]	; 0x544
    2c12:	f8d2 1424 	ldr.w	r1, [r2, #1060]	; 0x424
    2c16:	f8c3 1548 	str.w	r1, [r3, #1352]	; 0x548
    2c1a:	f8d2 1428 	ldr.w	r1, [r2, #1064]	; 0x428
    2c1e:	f8c3 154c 	str.w	r1, [r3, #1356]	; 0x54c
    2c22:	f8d2 142c 	ldr.w	r1, [r2, #1068]	; 0x42c
    2c26:	f8c3 1550 	str.w	r1, [r3, #1360]	; 0x550
    2c2a:	f8d2 1430 	ldr.w	r1, [r2, #1072]	; 0x430
    2c2e:	f8c3 1554 	str.w	r1, [r3, #1364]	; 0x554
    2c32:	f8d2 1434 	ldr.w	r1, [r2, #1076]	; 0x434
    2c36:	f8c3 1560 	str.w	r1, [r3, #1376]	; 0x560
    2c3a:	f8d2 1438 	ldr.w	r1, [r2, #1080]	; 0x438
    2c3e:	f8c3 1564 	str.w	r1, [r3, #1380]	; 0x564
    2c42:	f8d2 143c 	ldr.w	r1, [r2, #1084]	; 0x43c
    2c46:	f8c3 1568 	str.w	r1, [r3, #1384]	; 0x568
    2c4a:	f8d2 1440 	ldr.w	r1, [r2, #1088]	; 0x440
    2c4e:	f8c3 156c 	str.w	r1, [r3, #1388]	; 0x56c
    2c52:	f8d2 2444 	ldr.w	r2, [r2, #1092]	; 0x444
    2c56:	f8c3 2570 	str.w	r2, [r3, #1392]	; 0x570
    2c5a:	f04f 5380 	mov.w	r3, #268435456	; 0x10000000
    2c5e:	f8d3 3130 	ldr.w	r3, [r3, #304]	; 0x130
    2c62:	f1b3 3fff 	cmp.w	r3, #4294967295	; 0xffffffff
    2c66:	f47f af0e 	bne.w	2a86 <SystemInit+0xce>
    2c6a:	e781      	b.n	2b70 <SystemInit+0x1b8>
    2c6c:	f04f 5380 	mov.w	r3, #268435456	; 0x10000000
    2c70:	f8d3 3134 	ldr.w	r3, [r3, #308]	; 0x134
    2c74:	3b03      	subs	r3, #3
    2c76:	2b02      	cmp	r3, #2
    2c78:	f67f af0e 	bls.w	2a98 <SystemInit+0xe0>
    2c7c:	4a25      	ldr	r2, [pc, #148]	; (2d14 <SystemInit+0x35c>)
    2c7e:	f8d2 373c 	ldr.w	r3, [r2, #1852]	; 0x73c
    2c82:	f443 6380 	orr.w	r3, r3, #1024	; 0x400
    2c86:	f8c2 373c 	str.w	r3, [r2, #1852]	; 0x73c
    2c8a:	e705      	b.n	2a98 <SystemInit+0xe0>
    2c8c:	4b22      	ldr	r3, [pc, #136]	; (2d18 <SystemInit+0x360>)
    2c8e:	2201      	movs	r2, #1
    2c90:	f8c3 2504 	str.w	r2, [r3, #1284]	; 0x504
    2c94:	461a      	mov	r2, r3
    2c96:	f8d2 3400 	ldr.w	r3, [r2, #1024]	; 0x400
    2c9a:	2b00      	cmp	r3, #0
    2c9c:	d0fb      	beq.n	2c96 <SystemInit+0x2de>
    2c9e:	f04f 2310 	mov.w	r3, #268439552	; 0x10001000
    2ca2:	2215      	movs	r2, #21
    2ca4:	f8c3 2200 	str.w	r2, [r3, #512]	; 0x200
    2ca8:	4a1b      	ldr	r2, [pc, #108]	; (2d18 <SystemInit+0x360>)
    2caa:	f8d2 3400 	ldr.w	r3, [r2, #1024]	; 0x400
    2cae:	2b00      	cmp	r3, #0
    2cb0:	d0fb      	beq.n	2caa <SystemInit+0x2f2>
    2cb2:	f04f 2310 	mov.w	r3, #268439552	; 0x10001000
    2cb6:	2215      	movs	r2, #21
    2cb8:	f8c3 2204 	str.w	r2, [r3, #516]	; 0x204
    2cbc:	4a16      	ldr	r2, [pc, #88]	; (2d18 <SystemInit+0x360>)
    2cbe:	f8d2 3400 	ldr.w	r3, [r2, #1024]	; 0x400
    2cc2:	2b00      	cmp	r3, #0
    2cc4:	d0fb      	beq.n	2cbe <SystemInit+0x306>
    2cc6:	4b14      	ldr	r3, [pc, #80]	; (2d18 <SystemInit+0x360>)
    2cc8:	2200      	movs	r2, #0
    2cca:	f8c3 2504 	str.w	r2, [r3, #1284]	; 0x504
    2cce:	461a      	mov	r2, r3
    2cd0:	f8d2 3400 	ldr.w	r3, [r2, #1024]	; 0x400
    2cd4:	2b00      	cmp	r3, #0
    2cd6:	d0fb      	beq.n	2cd0 <SystemInit+0x318>
    2cd8:	f3bf 8f4f 	dsb	sy
    2cdc:	4906      	ldr	r1, [pc, #24]	; (2cf8 <SystemInit+0x340>)
    2cde:	68ca      	ldr	r2, [r1, #12]
    2ce0:	f402 62e0 	and.w	r2, r2, #1792	; 0x700
    2ce4:	4b0d      	ldr	r3, [pc, #52]	; (2d1c <SystemInit+0x364>)
    2ce6:	4313      	orrs	r3, r2
    2ce8:	60cb      	str	r3, [r1, #12]
    2cea:	f3bf 8f4f 	dsb	sy
    2cee:	bf00      	nop
    2cf0:	e7fd      	b.n	2cee <SystemInit+0x336>
    2cf2:	bf00      	nop
    2cf4:	40013000 	.word	0x40013000
    2cf8:	e000ed00 	.word	0xe000ed00
    2cfc:	2000001c 	.word	0x2000001c
    2d00:	03d09000 	.word	0x03d09000
    2d04:	4007c000 	.word	0x4007c000
    2d08:	baadf00d 	.word	0xbaadf00d
    2d0c:	40005000 	.word	0x40005000
    2d10:	4000c000 	.word	0x4000c000
    2d14:	40001000 	.word	0x40001000
    2d18:	4001e000 	.word	0x4001e000
    2d1c:	05fa0004 	.word	0x05fa0004

00002d20 <atexit>:
    2d20:	2300      	movs	r3, #0
    2d22:	4601      	mov	r1, r0
    2d24:	461a      	mov	r2, r3
    2d26:	4618      	mov	r0, r3
    2d28:	f000 b86a 	b.w	2e00 <__register_exitproc>

00002d2c <exit>:
    2d2c:	b508      	push	{r3, lr}
    2d2e:	4b06      	ldr	r3, [pc, #24]	; (2d48 <exit+0x1c>)
    2d30:	4604      	mov	r4, r0
    2d32:	b113      	cbz	r3, 2d3a <exit+0xe>
    2d34:	2100      	movs	r1, #0
    2d36:	f000 f8c1 	bl	2ebc <__call_exitprocs>
    2d3a:	4b04      	ldr	r3, [pc, #16]	; (2d4c <exit+0x20>)
    2d3c:	681b      	ldr	r3, [r3, #0]
    2d3e:	b103      	cbz	r3, 2d42 <exit+0x16>
    2d40:	4798      	blx	r3
    2d42:	4620      	mov	r0, r4
    2d44:	f000 f916 	bl	2f74 <_exit>
    2d48:	00002ebd 	.word	0x00002ebd
    2d4c:	200026cc 	.word	0x200026cc

00002d50 <memset>:
    2d50:	4402      	add	r2, r0
    2d52:	4603      	mov	r3, r0
    2d54:	4293      	cmp	r3, r2
    2d56:	d100      	bne.n	2d5a <memset+0xa>
    2d58:	4770      	bx	lr
    2d5a:	f803 1b01 	strb.w	r1, [r3], #1
    2d5e:	e7f9      	b.n	2d54 <memset+0x4>

00002d60 <__libc_init_array>:
    2d60:	b570      	push	{r4, r5, r6, lr}
    2d62:	4d0d      	ldr	r5, [pc, #52]	; (2d98 <__libc_init_array+0x38>)
    2d64:	4c0d      	ldr	r4, [pc, #52]	; (2d9c <__libc_init_array+0x3c>)
    2d66:	1b64      	subs	r4, r4, r5
    2d68:	10a4      	asrs	r4, r4, #2
    2d6a:	2600      	movs	r6, #0
    2d6c:	42a6      	cmp	r6, r4
    2d6e:	d109      	bne.n	2d84 <__libc_init_array+0x24>
    2d70:	4d0b      	ldr	r5, [pc, #44]	; (2da0 <__libc_init_array+0x40>)
    2d72:	4c0c      	ldr	r4, [pc, #48]	; (2da4 <__libc_init_array+0x44>)
    2d74:	f000 f900 	bl	2f78 <_init>
    2d78:	1b64      	subs	r4, r4, r5
    2d7a:	10a4      	asrs	r4, r4, #2
    2d7c:	2600      	movs	r6, #0
    2d7e:	42a6      	cmp	r6, r4
    2d80:	d105      	bne.n	2d8e <__libc_init_array+0x2e>
    2d82:	bd70      	pop	{r4, r5, r6, pc}
    2d84:	f855 3b04 	ldr.w	r3, [r5], #4
    2d88:	4798      	blx	r3
    2d8a:	3601      	adds	r6, #1
    2d8c:	e7ee      	b.n	2d6c <__libc_init_array+0xc>
    2d8e:	f855 3b04 	ldr.w	r3, [r5], #4
    2d92:	4798      	blx	r3
    2d94:	3601      	adds	r6, #1
    2d96:	e7f2      	b.n	2d7e <__libc_init_array+0x1e>
    2d98:	20000024 	.word	0x20000024
    2d9c:	20000024 	.word	0x20000024
    2da0:	20000024 	.word	0x20000024
    2da4:	20000028 	.word	0x20000028

00002da8 <__libc_fini_array>:
    2da8:	b538      	push	{r3, r4, r5, lr}
    2daa:	4d07      	ldr	r5, [pc, #28]	; (2dc8 <__libc_fini_array+0x20>)
    2dac:	4c07      	ldr	r4, [pc, #28]	; (2dcc <__libc_fini_array+0x24>)
    2dae:	1b64      	subs	r4, r4, r5
    2db0:	10a4      	asrs	r4, r4, #2
    2db2:	b91c      	cbnz	r4, 2dbc <__libc_fini_array+0x14>
    2db4:	e8bd 4038 	ldmia.w	sp!, {r3, r4, r5, lr}
    2db8:	f000 b8e4 	b.w	2f84 <_fini>
    2dbc:	3c01      	subs	r4, #1
    2dbe:	f855 3024 	ldr.w	r3, [r5, r4, lsl #2]
    2dc2:	4798      	blx	r3
    2dc4:	e7f5      	b.n	2db2 <__libc_fini_array+0xa>
    2dc6:	bf00      	nop
    2dc8:	20000028 	.word	0x20000028
    2dcc:	2000002c 	.word	0x2000002c

00002dd0 <__retarget_lock_acquire_recursive>:
    2dd0:	4770      	bx	lr

00002dd2 <__retarget_lock_release_recursive>:
    2dd2:	4770      	bx	lr

00002dd4 <memcpy>:
    2dd4:	440a      	add	r2, r1
    2dd6:	4291      	cmp	r1, r2
    2dd8:	f100 33ff 	add.w	r3, r0, #4294967295	; 0xffffffff
    2ddc:	d100      	bne.n	2de0 <memcpy+0xc>
    2dde:	4770      	bx	lr
    2de0:	b510      	push	{r4, lr}
    2de2:	f811 4b01 	ldrb.w	r4, [r1], #1
    2de6:	f803 4f01 	strb.w	r4, [r3, #1]!
    2dea:	4291      	cmp	r1, r2
    2dec:	d1f9      	bne.n	2de2 <memcpy+0xe>
    2dee:	bd10      	pop	{r4, pc}

00002df0 <strlen>:
    2df0:	4603      	mov	r3, r0
    2df2:	f813 2b01 	ldrb.w	r2, [r3], #1
    2df6:	2a00      	cmp	r2, #0
    2df8:	d1fb      	bne.n	2df2 <strlen+0x2>
    2dfa:	1a18      	subs	r0, r3, r0
    2dfc:	3801      	subs	r0, #1
    2dfe:	4770      	bx	lr

00002e00 <__register_exitproc>:
    2e00:	e92d 43f8 	stmdb	sp!, {r3, r4, r5, r6, r7, r8, r9, lr}
    2e04:	f8df 80b0 	ldr.w	r8, [pc, #176]	; 2eb8 <__register_exitproc+0xb8>
    2e08:	4606      	mov	r6, r0
    2e0a:	f8d8 0000 	ldr.w	r0, [r8]
    2e0e:	461f      	mov	r7, r3
    2e10:	460d      	mov	r5, r1
    2e12:	4691      	mov	r9, r2
    2e14:	f7ff ffdc 	bl	2dd0 <__retarget_lock_acquire_recursive>
    2e18:	4b23      	ldr	r3, [pc, #140]	; (2ea8 <__register_exitproc+0xa8>)
    2e1a:	681c      	ldr	r4, [r3, #0]
    2e1c:	b934      	cbnz	r4, 2e2c <__register_exitproc+0x2c>
    2e1e:	4c23      	ldr	r4, [pc, #140]	; (2eac <__register_exitproc+0xac>)
    2e20:	601c      	str	r4, [r3, #0]
    2e22:	4b23      	ldr	r3, [pc, #140]	; (2eb0 <__register_exitproc+0xb0>)
    2e24:	b113      	cbz	r3, 2e2c <__register_exitproc+0x2c>
    2e26:	681b      	ldr	r3, [r3, #0]
    2e28:	f8c4 3088 	str.w	r3, [r4, #136]	; 0x88
    2e2c:	6863      	ldr	r3, [r4, #4]
    2e2e:	2b1f      	cmp	r3, #31
    2e30:	dd07      	ble.n	2e42 <__register_exitproc+0x42>
    2e32:	f8d8 0000 	ldr.w	r0, [r8]
    2e36:	f7ff ffcc 	bl	2dd2 <__retarget_lock_release_recursive>
    2e3a:	f04f 30ff 	mov.w	r0, #4294967295	; 0xffffffff
    2e3e:	e8bd 83f8 	ldmia.w	sp!, {r3, r4, r5, r6, r7, r8, r9, pc}
    2e42:	b32e      	cbz	r6, 2e90 <__register_exitproc+0x90>
    2e44:	f8d4 0088 	ldr.w	r0, [r4, #136]	; 0x88
    2e48:	b968      	cbnz	r0, 2e66 <__register_exitproc+0x66>
    2e4a:	4b1a      	ldr	r3, [pc, #104]	; (2eb4 <__register_exitproc+0xb4>)
    2e4c:	2b00      	cmp	r3, #0
    2e4e:	d0f0      	beq.n	2e32 <__register_exitproc+0x32>
    2e50:	f44f 7084 	mov.w	r0, #264	; 0x108
    2e54:	f3af 8000 	nop.w
    2e58:	2800      	cmp	r0, #0
    2e5a:	d0ea      	beq.n	2e32 <__register_exitproc+0x32>
    2e5c:	2300      	movs	r3, #0
    2e5e:	e9c0 3340 	strd	r3, r3, [r0, #256]	; 0x100
    2e62:	f8c4 0088 	str.w	r0, [r4, #136]	; 0x88
    2e66:	6863      	ldr	r3, [r4, #4]
    2e68:	f840 9023 	str.w	r9, [r0, r3, lsl #2]
    2e6c:	2201      	movs	r2, #1
    2e6e:	409a      	lsls	r2, r3
    2e70:	eb00 0183 	add.w	r1, r0, r3, lsl #2
    2e74:	f8d0 3100 	ldr.w	r3, [r0, #256]	; 0x100
    2e78:	4313      	orrs	r3, r2
    2e7a:	f8c0 3100 	str.w	r3, [r0, #256]	; 0x100
    2e7e:	2e02      	cmp	r6, #2
    2e80:	f8c1 7080 	str.w	r7, [r1, #128]	; 0x80
    2e84:	bf02      	ittt	eq
    2e86:	f8d0 3104 	ldreq.w	r3, [r0, #260]	; 0x104
    2e8a:	4313      	orreq	r3, r2
    2e8c:	f8c0 3104 	streq.w	r3, [r0, #260]	; 0x104
    2e90:	6863      	ldr	r3, [r4, #4]
    2e92:	f8d8 0000 	ldr.w	r0, [r8]
    2e96:	1c5a      	adds	r2, r3, #1
    2e98:	3302      	adds	r3, #2
    2e9a:	6062      	str	r2, [r4, #4]
    2e9c:	f844 5023 	str.w	r5, [r4, r3, lsl #2]
    2ea0:	f7ff ff97 	bl	2dd2 <__retarget_lock_release_recursive>
    2ea4:	2000      	movs	r0, #0
    2ea6:	e7ca      	b.n	2e3e <__register_exitproc+0x3e>
    2ea8:	20002760 	.word	0x20002760
    2eac:	200026d4 	.word	0x200026d4
	...
    2eb8:	20000020 	.word	0x20000020

00002ebc <__call_exitprocs>:
    2ebc:	e92d 4ff7 	stmdb	sp!, {r0, r1, r2, r4, r5, r6, r7, r8, r9, sl, fp, lr}
    2ec0:	f8df 90a8 	ldr.w	r9, [pc, #168]	; 2f6c <__call_exitprocs+0xb0>
    2ec4:	9100      	str	r1, [sp, #0]
    2ec6:	4680      	mov	r8, r0
    2ec8:	f8d9 0000 	ldr.w	r0, [r9]
    2ecc:	f8df a0a0 	ldr.w	sl, [pc, #160]	; 2f70 <__call_exitprocs+0xb4>
    2ed0:	f7ff ff7e 	bl	2dd0 <__retarget_lock_acquire_recursive>
    2ed4:	f8da 4000 	ldr.w	r4, [sl]
    2ed8:	b934      	cbnz	r4, 2ee8 <__call_exitprocs+0x2c>
    2eda:	f8d9 0000 	ldr.w	r0, [r9]
    2ede:	b003      	add	sp, #12
    2ee0:	e8bd 4ff0 	ldmia.w	sp!, {r4, r5, r6, r7, r8, r9, sl, fp, lr}
    2ee4:	f7ff bf75 	b.w	2dd2 <__retarget_lock_release_recursive>
    2ee8:	6865      	ldr	r5, [r4, #4]
    2eea:	f8d4 7088 	ldr.w	r7, [r4, #136]	; 0x88
    2eee:	1e6e      	subs	r6, r5, #1
    2ef0:	3501      	adds	r5, #1
    2ef2:	eb04 0585 	add.w	r5, r4, r5, lsl #2
    2ef6:	f107 0b80 	add.w	fp, r7, #128	; 0x80
    2efa:	2e00      	cmp	r6, #0
    2efc:	dbed      	blt.n	2eda <__call_exitprocs+0x1e>
    2efe:	9b00      	ldr	r3, [sp, #0]
    2f00:	b143      	cbz	r3, 2f14 <__call_exitprocs+0x58>
    2f02:	b917      	cbnz	r7, 2f0a <__call_exitprocs+0x4e>
    2f04:	3e01      	subs	r6, #1
    2f06:	3d04      	subs	r5, #4
    2f08:	e7f7      	b.n	2efa <__call_exitprocs+0x3e>
    2f0a:	f85b 2026 	ldr.w	r2, [fp, r6, lsl #2]
    2f0e:	9b00      	ldr	r3, [sp, #0]
    2f10:	429a      	cmp	r2, r3
    2f12:	d1f7      	bne.n	2f04 <__call_exitprocs+0x48>
    2f14:	6861      	ldr	r1, [r4, #4]
    2f16:	682a      	ldr	r2, [r5, #0]
    2f18:	3901      	subs	r1, #1
    2f1a:	42b1      	cmp	r1, r6
    2f1c:	bf16      	itet	ne
    2f1e:	2300      	movne	r3, #0
    2f20:	6066      	streq	r6, [r4, #4]
    2f22:	602b      	strne	r3, [r5, #0]
    2f24:	2a00      	cmp	r2, #0
    2f26:	d0ed      	beq.n	2f04 <__call_exitprocs+0x48>
    2f28:	6863      	ldr	r3, [r4, #4]
    2f2a:	9301      	str	r3, [sp, #4]
    2f2c:	b13f      	cbz	r7, 2f3e <__call_exitprocs+0x82>
    2f2e:	f8d7 1100 	ldr.w	r1, [r7, #256]	; 0x100
    2f32:	2301      	movs	r3, #1
    2f34:	fa03 fc06 	lsl.w	ip, r3, r6
    2f38:	ea1c 0f01 	tst.w	ip, r1
    2f3c:	d109      	bne.n	2f52 <__call_exitprocs+0x96>
    2f3e:	4790      	blx	r2
    2f40:	6861      	ldr	r1, [r4, #4]
    2f42:	9b01      	ldr	r3, [sp, #4]
    2f44:	f8da 2000 	ldr.w	r2, [sl]
    2f48:	4299      	cmp	r1, r3
    2f4a:	d1c3      	bne.n	2ed4 <__call_exitprocs+0x18>
    2f4c:	4294      	cmp	r4, r2
    2f4e:	d0d9      	beq.n	2f04 <__call_exitprocs+0x48>
    2f50:	e7c0      	b.n	2ed4 <__call_exitprocs+0x18>
    2f52:	f8d7 0104 	ldr.w	r0, [r7, #260]	; 0x104
    2f56:	f857 1026 	ldr.w	r1, [r7, r6, lsl #2]
    2f5a:	ea1c 0f00 	tst.w	ip, r0
    2f5e:	d102      	bne.n	2f66 <__call_exitprocs+0xaa>
    2f60:	4640      	mov	r0, r8
    2f62:	4790      	blx	r2
    2f64:	e7ec      	b.n	2f40 <__call_exitprocs+0x84>
    2f66:	4608      	mov	r0, r1
    2f68:	4790      	blx	r2
    2f6a:	e7e9      	b.n	2f40 <__call_exitprocs+0x84>
    2f6c:	20000020 	.word	0x20000020
    2f70:	20002760 	.word	0x20002760

00002f74 <_exit>:
    2f74:	e7fe      	b.n	2f74 <_exit>
    2f76:	bf00      	nop

00002f78 <_init>:
    2f78:	b5f8      	push	{r3, r4, r5, r6, r7, lr}
    2f7a:	bf00      	nop
    2f7c:	bcf8      	pop	{r3, r4, r5, r6, r7}
    2f7e:	bc08      	pop	{r3}
    2f80:	469e      	mov	lr, r3
    2f82:	4770      	bx	lr

00002f84 <_fini>:
    2f84:	b5f8      	push	{r3, r4, r5, r6, r7, lr}
    2f86:	bf00      	nop
    2f88:	bcf8      	pop	{r3, r4, r5, r6, r7}
    2f8a:	bc08      	pop	{r3}
    2f8c:	469e      	mov	lr, r3
    2f8e:	4770      	bx	lr
    2f90:	ffffffff 	.word	0xffffffff
    2f94:	ffffffff 	.word	0xffffffff
    2f98:	ffffffff 	.word	0xffffffff
    2f9c:	ffffffff 	.word	0xffffffff
	...
    2fa8:	01d60000 	.word	0x01d60000
    2fac:	00000106 	.word	0x00000106

00002fb0 <nrf_log_backend_uart_api>:
    2fb0:	0000045d 00000429 000003d5 74726175     ]...).......uart
    2fc0:	676f6c5f 6361625f 646e656b 00000000     _log_backend....
    2fd0:	6b636142 73646e65 756c6620 64656873     Backends flushed
    2fe0:	00000000 00707061                       ....app.

00002fe8 <m_log_push_ringbuf>:
    2fe8:	20000580 0000007f 20000600 3b315b1b     ... ....... .[1;
    2ff8:	006d3133 6f4c7325 64207367 70706f72     31m.%sLogs dropp
    3008:	28206465 25296425 000a0d73 6d305b1b     ed (%d)%s....[0m
    3018:	00000000 00007325 3e73253c 3a732520     ....%s..<%s> %s:
    3028:	00000020 00000a0d 32302520 00000078      ....... %02x...
    3038:	00202020 0000007c 00006325 3b315b1b        .|...%c...[1;
    3048:	006d3033 3b315b1b 006d3233 3b315b1b     30m..[1;32m..[1;
    3058:	006d3333 3b315b1b 006d3433 3b315b1b     33m..[1;34m..[1;
    3068:	006d3533 3b315b1b 006d3633 3b315b1b     35m..[1;36m..[1;
    3078:	006d3733 6f727265 00000072 6e726177     37m.error...warn
    3088:	00676e69 6f666e69 00000000 75626564     ing.info....debu
    3098:	00000067                                g...

0000309c <m_colors>:
    309c:	00003014 00003044 00002ff4 0000304c     .0..D0.../..L0..
    30ac:	00003054 0000305c 00003064 0000306c     T0..\0..d0..l0..
    30bc:	00003074                                t0..

000030c0 <severity_names>:
    30c0:	00000000 0000307c 00003084 0000308c     ....|0...0...0..
    30d0:	00003094                                .0..

000030d4 <m_board_led_list>:
    30d4:	14131211                                ....

000030d8 <_aV2C.0>:
    30d8:	33323130 37363534 42413938 46454443     0123456789ABCDEF
    30e8:	00533249 00535250 54524155 00000000     I2S.PRS.UART....
    30f8:	54524155 00000045 20533249 706f6f6c     UARTE...I2S loop
    3108:	6b636162 61786520 656c706d 61747320     back example sta
    3118:	64657472 0000002e 3a753325 34302520     rted....%3u: %04
    3128:	30252f78 202c7834 65707865 64657463     x/%04x, expected
    3138:	3025203a 252f7834 20783430 203a6928     : %04x/%04x (i: 
    3148:	00297525 3a753325 004b4f20 20000ebc     %u).%3u: OK.... 
    3158:	20001ebc 1dff1e1f 0000061c 00010100     ... ............
    3168:	20000000 000000d0 200006bc 200016bc     ... ....... ... 
	...

00003180 <delay_machine_code.0>:
    3180:	d8fd3803                                 .8..pG

00003186 <_ctype_>:
    3186:	20202000 20202020 28282020 20282828     .         ((((( 
    3196:	20202020 20202020 20202020 20202020                     
    31a6:	10108820 10101010 10101010 10101010      ...............
    31b6:	04040410 04040404 10040404 10101010     ................
    31c6:	41411010 41414141 01010101 01010101     ..AAAAAA........
    31d6:	01010101 01010101 01010101 10101010     ................
    31e6:	42421010 42424242 02020202 02020202     ..BBBBBB........
    31f6:	02020202 02020202 02020202 10101010     ................
    3206:	00000020 00000000 00000000 00000000      ...............
	...

00003288 <__EH_FRAME_BEGIN__>:
    3288:	00000000                                ....
