
saadc-o0.elf:     file format elf32-littlearm


Disassembly of section .text:

00000000 <__isr_vector>:
       0:	20010000 	.word	0x20010000
       4:	000002b1 	.word	0x000002b1
       8:	000002d9 	.word	0x000002d9
       c:	000002db 	.word	0x000002db
      10:	000002dd 	.word	0x000002dd
      14:	000002df 	.word	0x000002df
      18:	000002e1 	.word	0x000002e1
	...
      2c:	000002e3 	.word	0x000002e3
      30:	000002e5 	.word	0x000002e5
      34:	00000000 	.word	0x00000000
      38:	000002e7 	.word	0x000002e7
      3c:	000002e9 	.word	0x000002e9
      40:	000002eb 	.word	0x000002eb
      44:	000002eb 	.word	0x000002eb
      48:	000025c1 	.word	0x000025c1
      4c:	000002eb 	.word	0x000002eb
      50:	000002eb 	.word	0x000002eb
      54:	000002eb 	.word	0x000002eb
      58:	000002eb 	.word	0x000002eb
      5c:	000028fd 	.word	0x000028fd
      60:	0000333d 	.word	0x0000333d
      64:	000002eb 	.word	0x000002eb
      68:	000002eb 	.word	0x000002eb
      6c:	000002eb 	.word	0x000002eb
      70:	000002eb 	.word	0x000002eb
      74:	000002eb 	.word	0x000002eb
      78:	000002eb 	.word	0x000002eb
      7c:	000002eb 	.word	0x000002eb
      80:	000002eb 	.word	0x000002eb
      84:	000002eb 	.word	0x000002eb
      88:	000002eb 	.word	0x000002eb
      8c:	000002eb 	.word	0x000002eb
      90:	000002eb 	.word	0x000002eb
      94:	000002eb 	.word	0x000002eb
      98:	000002eb 	.word	0x000002eb
      9c:	000002eb 	.word	0x000002eb
      a0:	000002eb 	.word	0x000002eb
      a4:	000002eb 	.word	0x000002eb
      a8:	000002eb 	.word	0x000002eb
      ac:	000002eb 	.word	0x000002eb
      b0:	000002eb 	.word	0x000002eb
      b4:	000002eb 	.word	0x000002eb
	...
      c0:	000002eb 	.word	0x000002eb
      c4:	000002eb 	.word	0x000002eb
      c8:	000002eb 	.word	0x000002eb
      cc:	000002eb 	.word	0x000002eb
      d0:	000002eb 	.word	0x000002eb
      d4:	000002eb 	.word	0x000002eb
      d8:	000002eb 	.word	0x000002eb
	...

00000200 <__do_global_dtors_aux>:
     200:	b510      	push	{r4, lr}
     202:	4c05      	ldr	r4, [pc, #20]	; (218 <__do_global_dtors_aux+0x18>)
     204:	7823      	ldrb	r3, [r4, #0]
     206:	b933      	cbnz	r3, 216 <__do_global_dtors_aux+0x16>
     208:	4b04      	ldr	r3, [pc, #16]	; (21c <__do_global_dtors_aux+0x1c>)
     20a:	b113      	cbz	r3, 212 <__do_global_dtors_aux+0x12>
     20c:	4804      	ldr	r0, [pc, #16]	; (220 <__do_global_dtors_aux+0x20>)
     20e:	f3af 8000 	nop.w
     212:	2301      	movs	r3, #1
     214:	7023      	strb	r3, [r4, #0]
     216:	bd10      	pop	{r4, pc}
     218:	20000054 	.word	0x20000054
     21c:	00000000 	.word	0x00000000
     220:	00004844 	.word	0x00004844

00000224 <frame_dummy>:
     224:	b508      	push	{r3, lr}
     226:	4b03      	ldr	r3, [pc, #12]	; (234 <frame_dummy+0x10>)
     228:	b11b      	cbz	r3, 232 <frame_dummy+0xe>
     22a:	4903      	ldr	r1, [pc, #12]	; (238 <frame_dummy+0x14>)
     22c:	4803      	ldr	r0, [pc, #12]	; (23c <frame_dummy+0x18>)
     22e:	f3af 8000 	nop.w
     232:	bd08      	pop	{r3, pc}
     234:	00000000 	.word	0x00000000
     238:	20000058 	.word	0x20000058
     23c:	00004844 	.word	0x00004844

00000240 <_stack_init>:
     240:	f5a3 3a80 	sub.w	sl, r3, #65536	; 0x10000
     244:	4770      	bx	lr
     246:	bf00      	nop

00000248 <_mainCRTStartup>:
     248:	4b15      	ldr	r3, [pc, #84]	; (2a0 <_mainCRTStartup+0x58>)
     24a:	2b00      	cmp	r3, #0
     24c:	bf08      	it	eq
     24e:	4b11      	ldreq	r3, [pc, #68]	; (294 <_mainCRTStartup+0x4c>)
     250:	469d      	mov	sp, r3
     252:	f7ff fff5 	bl	240 <_stack_init>
     256:	2100      	movs	r1, #0
     258:	468b      	mov	fp, r1
     25a:	460f      	mov	r7, r1
     25c:	4811      	ldr	r0, [pc, #68]	; (2a4 <_mainCRTStartup+0x5c>)
     25e:	4a12      	ldr	r2, [pc, #72]	; (2a8 <_mainCRTStartup+0x60>)
     260:	1a12      	subs	r2, r2, r0
     262:	f004 f85d 	bl	4320 <memset>
     266:	4b0c      	ldr	r3, [pc, #48]	; (298 <_mainCRTStartup+0x50>)
     268:	2b00      	cmp	r3, #0
     26a:	d000      	beq.n	26e <_mainCRTStartup+0x26>
     26c:	4798      	blx	r3
     26e:	4b0b      	ldr	r3, [pc, #44]	; (29c <_mainCRTStartup+0x54>)
     270:	2b00      	cmp	r3, #0
     272:	d000      	beq.n	276 <_mainCRTStartup+0x2e>
     274:	4798      	blx	r3
     276:	2000      	movs	r0, #0
     278:	2100      	movs	r1, #0
     27a:	0004      	movs	r4, r0
     27c:	000d      	movs	r5, r1
     27e:	480b      	ldr	r0, [pc, #44]	; (2ac <_mainCRTStartup+0x64>)
     280:	f004 f836 	bl	42f0 <atexit>
     284:	f004 f854 	bl	4330 <__libc_init_array>
     288:	0020      	movs	r0, r4
     28a:	0029      	movs	r1, r5
     28c:	f003 fa52 	bl	3734 <main>
     290:	f004 f834 	bl	42fc <exit>
     294:	00080000 	.word	0x00080000
	...
     2a0:	20010000 	.word	0x20010000
     2a4:	20000054 	.word	0x20000054
     2a8:	200009d8 	.word	0x200009d8
     2ac:	00004379 	.word	0x00004379

000002b0 <Reset_Handler>:
     2b0:	4906      	ldr	r1, [pc, #24]	; (2cc <Reset_Handler+0x1c>)
     2b2:	4a07      	ldr	r2, [pc, #28]	; (2d0 <Reset_Handler+0x20>)
     2b4:	4b07      	ldr	r3, [pc, #28]	; (2d4 <Reset_Handler+0x24>)
     2b6:	1a9b      	subs	r3, r3, r2
     2b8:	dd03      	ble.n	2c2 <Reset_Handler+0x12>
     2ba:	3b04      	subs	r3, #4
     2bc:	58c8      	ldr	r0, [r1, r3]
     2be:	50d0      	str	r0, [r2, r3]
     2c0:	dcfb      	bgt.n	2ba <Reset_Handler+0xa>
     2c2:	f003 fea7 	bl	4014 <SystemInit>
     2c6:	f7ff ffbf 	bl	248 <_mainCRTStartup>
     2ca:	0000      	.short	0x0000
     2cc:	000048b4 	.word	0x000048b4
     2d0:	20000000 	.word	0x20000000
     2d4:	20000054 	.word	0x20000054

000002d8 <NMI_Handler>:
     2d8:	e7fe      	b.n	2d8 <NMI_Handler>

000002da <HardFault_Handler>:
     2da:	e7fe      	b.n	2da <HardFault_Handler>

000002dc <MemoryManagement_Handler>:
     2dc:	e7fe      	b.n	2dc <MemoryManagement_Handler>

000002de <BusFault_Handler>:
     2de:	e7fe      	b.n	2de <BusFault_Handler>

000002e0 <UsageFault_Handler>:
     2e0:	e7fe      	b.n	2e0 <UsageFault_Handler>

000002e2 <SVC_Handler>:
     2e2:	e7fe      	b.n	2e2 <SVC_Handler>

000002e4 <DebugMon_Handler>:
     2e4:	e7fe      	b.n	2e4 <DebugMon_Handler>

000002e6 <PendSV_Handler>:
     2e6:	e7fe      	b.n	2e6 <PendSV_Handler>

000002e8 <SysTick_Handler>:
     2e8:	e7fe      	b.n	2e8 <SysTick_Handler>

000002ea <Default_Handler>:
     2ea:	e7fe      	b.n	2ea <Default_Handler>

000002ec <nrfx_coredep_delay_us>:
     2ec:	b580      	push	{r7, lr}
     2ee:	b084      	sub	sp, #16
     2f0:	af00      	add	r7, sp, #0
     2f2:	6078      	str	r0, [r7, #4]
     2f4:	687b      	ldr	r3, [r7, #4]
     2f6:	2b00      	cmp	r3, #0
     2f8:	d00a      	beq.n	310 <nrfx_coredep_delay_us+0x24>
     2fa:	4b07      	ldr	r3, [pc, #28]	; (318 <nrfx_coredep_delay_us+0x2c>)
     2fc:	f043 0301 	orr.w	r3, r3, #1
     300:	60fb      	str	r3, [r7, #12]
     302:	687b      	ldr	r3, [r7, #4]
     304:	019b      	lsls	r3, r3, #6
     306:	60bb      	str	r3, [r7, #8]
     308:	68fb      	ldr	r3, [r7, #12]
     30a:	68b8      	ldr	r0, [r7, #8]
     30c:	4798      	blx	r3
     30e:	e000      	b.n	312 <nrfx_coredep_delay_us+0x26>
     310:	bf00      	nop
     312:	3710      	adds	r7, #16
     314:	46bd      	mov	sp, r7
     316:	bd80      	pop	{r7, pc}
     318:	00004580 	.word	0x00004580

0000031c <nrf_delay_ms>:
     31c:	b580      	push	{r7, lr}
     31e:	b082      	sub	sp, #8
     320:	af00      	add	r7, sp, #0
     322:	6078      	str	r0, [r7, #4]
     324:	687b      	ldr	r3, [r7, #4]
     326:	2b00      	cmp	r3, #0
     328:	d00a      	beq.n	340 <nrf_delay_ms+0x24>
     32a:	f44f 707a 	mov.w	r0, #1000	; 0x3e8
     32e:	f7ff ffdd 	bl	2ec <nrfx_coredep_delay_us>
     332:	687b      	ldr	r3, [r7, #4]
     334:	3b01      	subs	r3, #1
     336:	607b      	str	r3, [r7, #4]
     338:	687b      	ldr	r3, [r7, #4]
     33a:	2b00      	cmp	r3, #0
     33c:	d1f5      	bne.n	32a <nrf_delay_ms+0xe>
     33e:	e000      	b.n	342 <nrf_delay_ms+0x26>
     340:	bf00      	nop
     342:	3708      	adds	r7, #8
     344:	46bd      	mov	sp, r7
     346:	bd80      	pop	{r7, pc}

00000348 <nrf_log_backend_rtt_init>:
     348:	b580      	push	{r7, lr}
     34a:	af00      	add	r7, sp, #0
     34c:	f003 fb8a 	bl	3a64 <SEGGER_RTT_Init>
     350:	bf00      	nop
     352:	bd80      	pop	{r7, pc}

00000354 <serial_tx>:
     354:	b580      	push	{r7, lr}
     356:	b088      	sub	sp, #32
     358:	af00      	add	r7, sp, #0
     35a:	60f8      	str	r0, [r7, #12]
     35c:	60b9      	str	r1, [r7, #8]
     35e:	607a      	str	r2, [r7, #4]
     360:	687b      	ldr	r3, [r7, #4]
     362:	2b00      	cmp	r3, #0
     364:	d033      	beq.n	3ce <serial_tx+0x7a>
     366:	2300      	movs	r3, #0
     368:	61fb      	str	r3, [r7, #28]
     36a:	2303      	movs	r3, #3
     36c:	61bb      	str	r3, [r7, #24]
     36e:	68ba      	ldr	r2, [r7, #8]
     370:	69fb      	ldr	r3, [r7, #28]
     372:	4413      	add	r3, r2
     374:	687a      	ldr	r2, [r7, #4]
     376:	4619      	mov	r1, r3
     378:	2000      	movs	r0, #0
     37a:	f003 fb23 	bl	39c4 <SEGGER_RTT_WriteNoLock>
     37e:	6178      	str	r0, [r7, #20]
     380:	69fa      	ldr	r2, [r7, #28]
     382:	697b      	ldr	r3, [r7, #20]
     384:	4413      	add	r3, r2
     386:	61fb      	str	r3, [r7, #28]
     388:	687a      	ldr	r2, [r7, #4]
     38a:	697b      	ldr	r3, [r7, #20]
     38c:	1ad3      	subs	r3, r2, r3
     38e:	607b      	str	r3, [r7, #4]
     390:	697b      	ldr	r3, [r7, #20]
     392:	2b00      	cmp	r3, #0
     394:	d113      	bne.n	3be <serial_tx+0x6a>
     396:	4b10      	ldr	r3, [pc, #64]	; (3d8 <serial_tx+0x84>)
     398:	781b      	ldrb	r3, [r3, #0]
     39a:	f083 0301 	eor.w	r3, r3, #1
     39e:	b2db      	uxtb	r3, r3
     3a0:	2b00      	cmp	r3, #0
     3a2:	d113      	bne.n	3cc <serial_tx+0x78>
     3a4:	2001      	movs	r0, #1
     3a6:	f7ff ffb9 	bl	31c <nrf_delay_ms>
     3aa:	69bb      	ldr	r3, [r7, #24]
     3ac:	3b01      	subs	r3, #1
     3ae:	61bb      	str	r3, [r7, #24]
     3b0:	69bb      	ldr	r3, [r7, #24]
     3b2:	2b00      	cmp	r3, #0
     3b4:	d103      	bne.n	3be <serial_tx+0x6a>
     3b6:	4b08      	ldr	r3, [pc, #32]	; (3d8 <serial_tx+0x84>)
     3b8:	2200      	movs	r2, #0
     3ba:	701a      	strb	r2, [r3, #0]
     3bc:	e007      	b.n	3ce <serial_tx+0x7a>
     3be:	4b06      	ldr	r3, [pc, #24]	; (3d8 <serial_tx+0x84>)
     3c0:	2201      	movs	r2, #1
     3c2:	701a      	strb	r2, [r3, #0]
     3c4:	687b      	ldr	r3, [r7, #4]
     3c6:	2b00      	cmp	r3, #0
     3c8:	d1d1      	bne.n	36e <serial_tx+0x1a>
     3ca:	e000      	b.n	3ce <serial_tx+0x7a>
     3cc:	bf00      	nop
     3ce:	bf00      	nop
     3d0:	3720      	adds	r7, #32
     3d2:	46bd      	mov	sp, r7
     3d4:	bd80      	pop	{r7, pc}
     3d6:	bf00      	nop
     3d8:	20000070 	.word	0x20000070

000003dc <nrf_log_backend_rtt_put>:
     3dc:	b580      	push	{r7, lr}
     3de:	b084      	sub	sp, #16
     3e0:	af02      	add	r7, sp, #8
     3e2:	6078      	str	r0, [r7, #4]
     3e4:	6039      	str	r1, [r7, #0]
     3e6:	4b06      	ldr	r3, [pc, #24]	; (400 <nrf_log_backend_rtt_put+0x24>)
     3e8:	9300      	str	r3, [sp, #0]
     3ea:	2340      	movs	r3, #64	; 0x40
     3ec:	4a05      	ldr	r2, [pc, #20]	; (404 <nrf_log_backend_rtt_put+0x28>)
     3ee:	6839      	ldr	r1, [r7, #0]
     3f0:	6878      	ldr	r0, [r7, #4]
     3f2:	f000 f81d 	bl	430 <nrf_log_backend_serial_put>
     3f6:	bf00      	nop
     3f8:	3708      	adds	r7, #8
     3fa:	46bd      	mov	sp, r7
     3fc:	bd80      	pop	{r7, pc}
     3fe:	bf00      	nop
     400:	00000355 	.word	0x00000355
     404:	20000074 	.word	0x20000074

00000408 <nrf_log_backend_rtt_flush>:
     408:	b480      	push	{r7}
     40a:	b083      	sub	sp, #12
     40c:	af00      	add	r7, sp, #0
     40e:	6078      	str	r0, [r7, #4]
     410:	bf00      	nop
     412:	370c      	adds	r7, #12
     414:	46bd      	mov	sp, r7
     416:	f85d 7b04 	ldr.w	r7, [sp], #4
     41a:	4770      	bx	lr

0000041c <nrf_log_backend_rtt_panic_set>:
     41c:	b480      	push	{r7}
     41e:	b083      	sub	sp, #12
     420:	af00      	add	r7, sp, #0
     422:	6078      	str	r0, [r7, #4]
     424:	bf00      	nop
     426:	370c      	adds	r7, #12
     428:	46bd      	mov	sp, r7
     42a:	f85d 7b04 	ldr.w	r7, [sp], #4
     42e:	4770      	bx	lr

00000430 <nrf_log_backend_serial_put>:
     430:	b580      	push	{r7, lr}
     432:	b0a0      	sub	sp, #128	; 0x80
     434:	af02      	add	r7, sp, #8
     436:	60f8      	str	r0, [r7, #12]
     438:	60b9      	str	r1, [r7, #8]
     43a:	607a      	str	r2, [r7, #4]
     43c:	603b      	str	r3, [r7, #0]
     43e:	68b8      	ldr	r0, [r7, #8]
     440:	f001 fdd0 	bl	1fe4 <nrf_memobj_get>
     444:	687b      	ldr	r3, [r7, #4]
     446:	64fb      	str	r3, [r7, #76]	; 0x4c
     448:	683b      	ldr	r3, [r7, #0]
     44a:	653b      	str	r3, [r7, #80]	; 0x50
     44c:	2300      	movs	r3, #0
     44e:	657b      	str	r3, [r7, #84]	; 0x54
     450:	2300      	movs	r3, #0
     452:	f887 3058 	strb.w	r3, [r7, #88]	; 0x58
     456:	2300      	movs	r3, #0
     458:	65fb      	str	r3, [r7, #92]	; 0x5c
     45a:	f8d7 3080 	ldr.w	r3, [r7, #128]	; 0x80
     45e:	663b      	str	r3, [r7, #96]	; 0x60
     460:	2300      	movs	r3, #0
     462:	677b      	str	r3, [r7, #116]	; 0x74
     464:	f107 0134 	add.w	r1, r7, #52	; 0x34
     468:	6f7b      	ldr	r3, [r7, #116]	; 0x74
     46a:	2208      	movs	r2, #8
     46c:	68b8      	ldr	r0, [r7, #8]
     46e:	f001 fe7d 	bl	216c <nrf_memobj_read>
     472:	2308      	movs	r3, #8
     474:	677b      	str	r3, [r7, #116]	; 0x74
     476:	6bfb      	ldr	r3, [r7, #60]	; 0x3c
     478:	643b      	str	r3, [r7, #64]	; 0x40
     47a:	8f3b      	ldrh	r3, [r7, #56]	; 0x38
     47c:	f8a7 3044 	strh.w	r3, [r7, #68]	; 0x44
     480:	8f7b      	ldrh	r3, [r7, #58]	; 0x3a
     482:	f8a7 3046 	strh.w	r3, [r7, #70]	; 0x46
     486:	2300      	movs	r3, #0
     488:	f887 3049 	strb.w	r3, [r7, #73]	; 0x49
     48c:	f897 3034 	ldrb.w	r3, [r7, #52]	; 0x34
     490:	f003 0303 	and.w	r3, r3, #3
     494:	b2db      	uxtb	r3, r3
     496:	2b01      	cmp	r3, #1
     498:	d129      	bne.n	4ee <nrf_log_backend_serial_put+0xbe>
     49a:	6b7b      	ldr	r3, [r7, #52]	; 0x34
     49c:	f3c3 2395 	ubfx	r3, r3, #10, #22
     4a0:	66bb      	str	r3, [r7, #104]	; 0x68
     4a2:	f897 3034 	ldrb.w	r3, [r7, #52]	; 0x34
     4a6:	f3c3 03c2 	ubfx	r3, r3, #3, #3
     4aa:	b2db      	uxtb	r3, r3
     4ac:	f887 3048 	strb.w	r3, [r7, #72]	; 0x48
     4b0:	8ebb      	ldrh	r3, [r7, #52]	; 0x34
     4b2:	f3c3 1383 	ubfx	r3, r3, #6, #4
     4b6:	b2db      	uxtb	r3, r3
     4b8:	667b      	str	r3, [r7, #100]	; 0x64
     4ba:	6e7b      	ldr	r3, [r7, #100]	; 0x64
     4bc:	009a      	lsls	r2, r3, #2
     4be:	f107 011c 	add.w	r1, r7, #28
     4c2:	6f7b      	ldr	r3, [r7, #116]	; 0x74
     4c4:	68b8      	ldr	r0, [r7, #8]
     4c6:	f001 fe51 	bl	216c <nrf_memobj_read>
     4ca:	6e7b      	ldr	r3, [r7, #100]	; 0x64
     4cc:	009b      	lsls	r3, r3, #2
     4ce:	6f7a      	ldr	r2, [r7, #116]	; 0x74
     4d0:	4413      	add	r3, r2
     4d2:	677b      	str	r3, [r7, #116]	; 0x74
     4d4:	f107 0240 	add.w	r2, r7, #64	; 0x40
     4d8:	f107 011c 	add.w	r1, r7, #28
     4dc:	f107 034c 	add.w	r3, r7, #76	; 0x4c
     4e0:	9300      	str	r3, [sp, #0]
     4e2:	4613      	mov	r3, r2
     4e4:	6e7a      	ldr	r2, [r7, #100]	; 0x64
     4e6:	6eb8      	ldr	r0, [r7, #104]	; 0x68
     4e8:	f000 fe78 	bl	11dc <nrf_log_std_entry_process>
     4ec:	e032      	b.n	554 <nrf_log_backend_serial_put+0x124>
     4ee:	f897 3034 	ldrb.w	r3, [r7, #52]	; 0x34
     4f2:	f003 0303 	and.w	r3, r3, #3
     4f6:	b2db      	uxtb	r3, r3
     4f8:	2b02      	cmp	r3, #2
     4fa:	d12b      	bne.n	554 <nrf_log_backend_serial_put+0x124>
     4fc:	8efb      	ldrh	r3, [r7, #54]	; 0x36
     4fe:	f3c3 1389 	ubfx	r3, r3, #6, #10
     502:	b29b      	uxth	r3, r3
     504:	673b      	str	r3, [r7, #112]	; 0x70
     506:	f897 3034 	ldrb.w	r3, [r7, #52]	; 0x34
     50a:	f3c3 03c2 	ubfx	r3, r3, #3, #3
     50e:	b2db      	uxtb	r3, r3
     510:	f887 3048 	strb.w	r3, [r7, #72]	; 0x48
     514:	6f3b      	ldr	r3, [r7, #112]	; 0x70
     516:	2b08      	cmp	r3, #8
     518:	bf28      	it	cs
     51a:	2308      	movcs	r3, #8
     51c:	66fb      	str	r3, [r7, #108]	; 0x6c
     51e:	f107 0114 	add.w	r1, r7, #20
     522:	6f7b      	ldr	r3, [r7, #116]	; 0x74
     524:	6efa      	ldr	r2, [r7, #108]	; 0x6c
     526:	68b8      	ldr	r0, [r7, #8]
     528:	f001 fe20 	bl	216c <nrf_memobj_read>
     52c:	6f7a      	ldr	r2, [r7, #116]	; 0x74
     52e:	6efb      	ldr	r3, [r7, #108]	; 0x6c
     530:	4413      	add	r3, r2
     532:	677b      	str	r3, [r7, #116]	; 0x74
     534:	6f3a      	ldr	r2, [r7, #112]	; 0x70
     536:	6efb      	ldr	r3, [r7, #108]	; 0x6c
     538:	1ad3      	subs	r3, r2, r3
     53a:	673b      	str	r3, [r7, #112]	; 0x70
     53c:	f107 034c 	add.w	r3, r7, #76	; 0x4c
     540:	f107 0240 	add.w	r2, r7, #64	; 0x40
     544:	f107 0014 	add.w	r0, r7, #20
     548:	6ef9      	ldr	r1, [r7, #108]	; 0x6c
     54a:	f000 fee9 	bl	1320 <nrf_log_hexdump_entry_process>
     54e:	6f3b      	ldr	r3, [r7, #112]	; 0x70
     550:	2b00      	cmp	r3, #0
     552:	d1df      	bne.n	514 <nrf_log_backend_serial_put+0xe4>
     554:	68b8      	ldr	r0, [r7, #8]
     556:	f001 fd55 	bl	2004 <nrf_memobj_put>
     55a:	bf00      	nop
     55c:	3778      	adds	r7, #120	; 0x78
     55e:	46bd      	mov	sp, r7
     560:	bd80      	pop	{r7, pc}

00000562 <nrf_log_backend_enable>:
     562:	b480      	push	{r7}
     564:	b083      	sub	sp, #12
     566:	af00      	add	r7, sp, #0
     568:	6078      	str	r0, [r7, #4]
     56a:	687b      	ldr	r3, [r7, #4]
     56c:	68db      	ldr	r3, [r3, #12]
     56e:	2201      	movs	r2, #1
     570:	715a      	strb	r2, [r3, #5]
     572:	bf00      	nop
     574:	370c      	adds	r7, #12
     576:	46bd      	mov	sp, r7
     578:	f85d 7b04 	ldr.w	r7, [sp], #4
     57c:	4770      	bx	lr
	...

00000580 <nrf_log_default_backends_init>:
     580:	b580      	push	{r7, lr}
     582:	b082      	sub	sp, #8
     584:	af00      	add	r7, sp, #0
     586:	f04f 33ff 	mov.w	r3, #4294967295	; 0xffffffff
     58a:	607b      	str	r3, [r7, #4]
     58c:	f7ff fedc 	bl	348 <nrf_log_backend_rtt_init>
     590:	2104      	movs	r1, #4
     592:	4805      	ldr	r0, [pc, #20]	; (5a8 <nrf_log_default_backends_init+0x28>)
     594:	f000 fd34 	bl	1000 <nrf_log_backend_add>
     598:	6078      	str	r0, [r7, #4]
     59a:	4803      	ldr	r0, [pc, #12]	; (5a8 <nrf_log_default_backends_init+0x28>)
     59c:	f7ff ffe1 	bl	562 <nrf_log_backend_enable>
     5a0:	bf00      	nop
     5a2:	3708      	adds	r7, #8
     5a4:	46bd      	mov	sp, r7
     5a6:	bd80      	pop	{r7, pc}
     5a8:	00004888 	.word	0x00004888

000005ac <nrf_log_backend_put>:
     5ac:	b580      	push	{r7, lr}
     5ae:	b082      	sub	sp, #8
     5b0:	af00      	add	r7, sp, #0
     5b2:	6078      	str	r0, [r7, #4]
     5b4:	6039      	str	r1, [r7, #0]
     5b6:	687b      	ldr	r3, [r7, #4]
     5b8:	681b      	ldr	r3, [r3, #0]
     5ba:	681b      	ldr	r3, [r3, #0]
     5bc:	6839      	ldr	r1, [r7, #0]
     5be:	6878      	ldr	r0, [r7, #4]
     5c0:	4798      	blx	r3
     5c2:	bf00      	nop
     5c4:	3708      	adds	r7, #8
     5c6:	46bd      	mov	sp, r7
     5c8:	bd80      	pop	{r7, pc}

000005ca <nrf_log_backend_panic_set>:
     5ca:	b580      	push	{r7, lr}
     5cc:	b082      	sub	sp, #8
     5ce:	af00      	add	r7, sp, #0
     5d0:	6078      	str	r0, [r7, #4]
     5d2:	687b      	ldr	r3, [r7, #4]
     5d4:	681b      	ldr	r3, [r3, #0]
     5d6:	685b      	ldr	r3, [r3, #4]
     5d8:	6878      	ldr	r0, [r7, #4]
     5da:	4798      	blx	r3
     5dc:	bf00      	nop
     5de:	3708      	adds	r7, #8
     5e0:	46bd      	mov	sp, r7
     5e2:	bd80      	pop	{r7, pc}

000005e4 <nrf_log_backend_flush>:
     5e4:	b580      	push	{r7, lr}
     5e6:	b082      	sub	sp, #8
     5e8:	af00      	add	r7, sp, #0
     5ea:	6078      	str	r0, [r7, #4]
     5ec:	687b      	ldr	r3, [r7, #4]
     5ee:	681b      	ldr	r3, [r3, #0]
     5f0:	689b      	ldr	r3, [r3, #8]
     5f2:	6878      	ldr	r0, [r7, #4]
     5f4:	4798      	blx	r3
     5f6:	bf00      	nop
     5f8:	3708      	adds	r7, #8
     5fa:	46bd      	mov	sp, r7
     5fc:	bd80      	pop	{r7, pc}

000005fe <nrf_log_backend_id_set>:
     5fe:	b480      	push	{r7}
     600:	b083      	sub	sp, #12
     602:	af00      	add	r7, sp, #0
     604:	6078      	str	r0, [r7, #4]
     606:	460b      	mov	r3, r1
     608:	70fb      	strb	r3, [r7, #3]
     60a:	687b      	ldr	r3, [r7, #4]
     60c:	68db      	ldr	r3, [r3, #12]
     60e:	78fa      	ldrb	r2, [r7, #3]
     610:	711a      	strb	r2, [r3, #4]
     612:	bf00      	nop
     614:	370c      	adds	r7, #12
     616:	46bd      	mov	sp, r7
     618:	f85d 7b04 	ldr.w	r7, [sp], #4
     61c:	4770      	bx	lr

0000061e <nrf_log_backend_id_get>:
     61e:	b480      	push	{r7}
     620:	b083      	sub	sp, #12
     622:	af00      	add	r7, sp, #0
     624:	6078      	str	r0, [r7, #4]
     626:	687b      	ldr	r3, [r7, #4]
     628:	68db      	ldr	r3, [r3, #12]
     62a:	791b      	ldrb	r3, [r3, #4]
     62c:	4618      	mov	r0, r3
     62e:	370c      	adds	r7, #12
     630:	46bd      	mov	sp, r7
     632:	f85d 7b04 	ldr.w	r7, [sp], #4
     636:	4770      	bx	lr

00000638 <nrf_log_backend_enable>:
     638:	b480      	push	{r7}
     63a:	b083      	sub	sp, #12
     63c:	af00      	add	r7, sp, #0
     63e:	6078      	str	r0, [r7, #4]
     640:	687b      	ldr	r3, [r7, #4]
     642:	68db      	ldr	r3, [r3, #12]
     644:	2201      	movs	r2, #1
     646:	715a      	strb	r2, [r3, #5]
     648:	bf00      	nop
     64a:	370c      	adds	r7, #12
     64c:	46bd      	mov	sp, r7
     64e:	f85d 7b04 	ldr.w	r7, [sp], #4
     652:	4770      	bx	lr

00000654 <nrf_log_backend_is_enabled>:
     654:	b480      	push	{r7}
     656:	b083      	sub	sp, #12
     658:	af00      	add	r7, sp, #0
     65a:	6078      	str	r0, [r7, #4]
     65c:	687b      	ldr	r3, [r7, #4]
     65e:	68db      	ldr	r3, [r3, #12]
     660:	795b      	ldrb	r3, [r3, #5]
     662:	4618      	mov	r0, r3
     664:	370c      	adds	r7, #12
     666:	46bd      	mov	sp, r7
     668:	f85d 7b04 	ldr.w	r7, [sp], #4
     66c:	4770      	bx	lr
	...

00000670 <nrf_log_init>:
     670:	b580      	push	{r7, lr}
     672:	b084      	sub	sp, #16
     674:	af00      	add	r7, sp, #0
     676:	6078      	str	r0, [r7, #4]
     678:	6039      	str	r1, [r7, #0]
     67a:	4b0c      	ldr	r3, [pc, #48]	; (6ac <nrf_log_init+0x3c>)
     67c:	2200      	movs	r2, #0
     67e:	701a      	strb	r2, [r3, #0]
     680:	480b      	ldr	r0, [pc, #44]	; (6b0 <nrf_log_init+0x40>)
     682:	f001 fc15 	bl	1eb0 <nrf_memobj_pool_init>
     686:	60f8      	str	r0, [r7, #12]
     688:	68fb      	ldr	r3, [r7, #12]
     68a:	2b00      	cmp	r3, #0
     68c:	d001      	beq.n	692 <nrf_log_init+0x22>
     68e:	68fb      	ldr	r3, [r7, #12]
     690:	e008      	b.n	6a4 <nrf_log_init+0x34>
     692:	4808      	ldr	r0, [pc, #32]	; (6b4 <nrf_log_init+0x44>)
     694:	f001 fded 	bl	2272 <nrf_ringbuf_init>
     698:	4a07      	ldr	r2, [pc, #28]	; (6b8 <nrf_log_init+0x48>)
     69a:	4b08      	ldr	r3, [pc, #32]	; (6bc <nrf_log_init+0x4c>)
     69c:	1ad3      	subs	r3, r2, r3
     69e:	08db      	lsrs	r3, r3, #3
     6a0:	60bb      	str	r3, [r7, #8]
     6a2:	2300      	movs	r3, #0
     6a4:	4618      	mov	r0, r3
     6a6:	3710      	adds	r7, #16
     6a8:	46bd      	mov	sp, r7
     6aa:	bd80      	pop	{r7, pc}
     6ac:	2000021c 	.word	0x2000021c
     6b0:	00004898 	.word	0x00004898
     6b4:	00004598 	.word	0x00004598
     6b8:	00004888 	.word	0x00004888
     6bc:	00004848 	.word	0x00004848

000006c0 <nrf_log_module_cnt_get>:
     6c0:	b480      	push	{r7}
     6c2:	af00      	add	r7, sp, #0
     6c4:	4a04      	ldr	r2, [pc, #16]	; (6d8 <nrf_log_module_cnt_get+0x18>)
     6c6:	4b05      	ldr	r3, [pc, #20]	; (6dc <nrf_log_module_cnt_get+0x1c>)
     6c8:	1ad3      	subs	r3, r2, r3
     6ca:	08db      	lsrs	r3, r3, #3
     6cc:	4618      	mov	r0, r3
     6ce:	46bd      	mov	sp, r7
     6d0:	f85d 7b04 	ldr.w	r7, [sp], #4
     6d4:	4770      	bx	lr
     6d6:	bf00      	nop
     6d8:	00004888 	.word	0x00004888
     6dc:	00004848 	.word	0x00004848

000006e0 <module_idx_get>:
     6e0:	b580      	push	{r7, lr}
     6e2:	b086      	sub	sp, #24
     6e4:	af00      	add	r7, sp, #0
     6e6:	6078      	str	r0, [r7, #4]
     6e8:	460b      	mov	r3, r1
     6ea:	70fb      	strb	r3, [r7, #3]
     6ec:	78fb      	ldrb	r3, [r7, #3]
     6ee:	2b00      	cmp	r3, #0
     6f0:	d01f      	beq.n	732 <module_idx_get+0x52>
     6f2:	f7ff ffe5 	bl	6c0 <nrf_log_module_cnt_get>
     6f6:	6138      	str	r0, [r7, #16]
     6f8:	2300      	movs	r3, #0
     6fa:	617b      	str	r3, [r7, #20]
     6fc:	e013      	b.n	726 <module_idx_get+0x46>
     6fe:	697b      	ldr	r3, [r7, #20]
     700:	009b      	lsls	r3, r3, #2
     702:	4a0e      	ldr	r2, [pc, #56]	; (73c <module_idx_get+0x5c>)
     704:	4413      	add	r3, r2
     706:	60fb      	str	r3, [r7, #12]
     708:	68fb      	ldr	r3, [r7, #12]
     70a:	881b      	ldrh	r3, [r3, #0]
     70c:	461a      	mov	r2, r3
     70e:	687b      	ldr	r3, [r7, #4]
     710:	681b      	ldr	r3, [r3, #0]
     712:	429a      	cmp	r2, r3
     714:	d104      	bne.n	720 <module_idx_get+0x40>
     716:	687b      	ldr	r3, [r7, #4]
     718:	697a      	ldr	r2, [r7, #20]
     71a:	601a      	str	r2, [r3, #0]
     71c:	2300      	movs	r3, #0
     71e:	e009      	b.n	734 <module_idx_get+0x54>
     720:	697b      	ldr	r3, [r7, #20]
     722:	3301      	adds	r3, #1
     724:	617b      	str	r3, [r7, #20]
     726:	697a      	ldr	r2, [r7, #20]
     728:	693b      	ldr	r3, [r7, #16]
     72a:	429a      	cmp	r2, r3
     72c:	d3e7      	bcc.n	6fe <module_idx_get+0x1e>
     72e:	2305      	movs	r3, #5
     730:	e000      	b.n	734 <module_idx_get+0x54>
     732:	2300      	movs	r3, #0
     734:	4618      	mov	r0, r3
     736:	3718      	adds	r7, #24
     738:	46bd      	mov	sp, r7
     73a:	bd80      	pop	{r7, pc}
     73c:	20000054 	.word	0x20000054

00000740 <nrf_log_module_name_get>:
     740:	b580      	push	{r7, lr}
     742:	b084      	sub	sp, #16
     744:	af00      	add	r7, sp, #0
     746:	6078      	str	r0, [r7, #4]
     748:	460b      	mov	r3, r1
     74a:	70fb      	strb	r3, [r7, #3]
     74c:	78fa      	ldrb	r2, [r7, #3]
     74e:	1d3b      	adds	r3, r7, #4
     750:	4611      	mov	r1, r2
     752:	4618      	mov	r0, r3
     754:	f7ff ffc4 	bl	6e0 <module_idx_get>
     758:	4603      	mov	r3, r0
     75a:	2b00      	cmp	r3, #0
     75c:	d107      	bne.n	76e <nrf_log_module_name_get+0x2e>
     75e:	687b      	ldr	r3, [r7, #4]
     760:	00db      	lsls	r3, r3, #3
     762:	4a05      	ldr	r2, [pc, #20]	; (778 <nrf_log_module_name_get+0x38>)
     764:	4413      	add	r3, r2
     766:	60fb      	str	r3, [r7, #12]
     768:	68fb      	ldr	r3, [r7, #12]
     76a:	681b      	ldr	r3, [r3, #0]
     76c:	e000      	b.n	770 <nrf_log_module_name_get+0x30>
     76e:	2300      	movs	r3, #0
     770:	4618      	mov	r0, r3
     772:	3710      	adds	r7, #16
     774:	46bd      	mov	sp, r7
     776:	bd80      	pop	{r7, pc}
     778:	00004848 	.word	0x00004848

0000077c <nrf_log_color_id_get>:
     77c:	b480      	push	{r7}
     77e:	b085      	sub	sp, #20
     780:	af00      	add	r7, sp, #0
     782:	6078      	str	r0, [r7, #4]
     784:	460b      	mov	r3, r1
     786:	70fb      	strb	r3, [r7, #3]
     788:	687b      	ldr	r3, [r7, #4]
     78a:	00db      	lsls	r3, r3, #3
     78c:	4a14      	ldr	r2, [pc, #80]	; (7e0 <nrf_log_color_id_get+0x64>)
     78e:	4413      	add	r3, r2
     790:	60bb      	str	r3, [r7, #8]
     792:	78fb      	ldrb	r3, [r7, #3]
     794:	3b01      	subs	r3, #1
     796:	2b03      	cmp	r3, #3
     798:	d818      	bhi.n	7cc <nrf_log_color_id_get+0x50>
     79a:	a201      	add	r2, pc, #4	; (adr r2, 7a0 <nrf_log_color_id_get+0x24>)
     79c:	f852 f023 	ldr.w	pc, [r2, r3, lsl #2]
     7a0:	000007b1 	.word	0x000007b1
     7a4:	000007b7 	.word	0x000007b7
     7a8:	000007bd 	.word	0x000007bd
     7ac:	000007c5 	.word	0x000007c5
     7b0:	2302      	movs	r3, #2
     7b2:	73fb      	strb	r3, [r7, #15]
     7b4:	e00d      	b.n	7d2 <nrf_log_color_id_get+0x56>
     7b6:	2304      	movs	r3, #4
     7b8:	73fb      	strb	r3, [r7, #15]
     7ba:	e00a      	b.n	7d2 <nrf_log_color_id_get+0x56>
     7bc:	68bb      	ldr	r3, [r7, #8]
     7be:	791b      	ldrb	r3, [r3, #4]
     7c0:	73fb      	strb	r3, [r7, #15]
     7c2:	e006      	b.n	7d2 <nrf_log_color_id_get+0x56>
     7c4:	68bb      	ldr	r3, [r7, #8]
     7c6:	795b      	ldrb	r3, [r3, #5]
     7c8:	73fb      	strb	r3, [r7, #15]
     7ca:	e002      	b.n	7d2 <nrf_log_color_id_get+0x56>
     7cc:	2300      	movs	r3, #0
     7ce:	73fb      	strb	r3, [r7, #15]
     7d0:	bf00      	nop
     7d2:	7bfb      	ldrb	r3, [r7, #15]
     7d4:	4618      	mov	r0, r3
     7d6:	3714      	adds	r7, #20
     7d8:	46bd      	mov	sp, r7
     7da:	f85d 7b04 	ldr.w	r7, [sp], #4
     7de:	4770      	bx	lr
     7e0:	00004848 	.word	0x00004848

000007e4 <invalid_packets_omit>:
     7e4:	b480      	push	{r7}
     7e6:	b085      	sub	sp, #20
     7e8:	af00      	add	r7, sp, #0
     7ea:	6078      	str	r0, [r7, #4]
     7ec:	6039      	str	r1, [r7, #0]
     7ee:	2300      	movs	r3, #0
     7f0:	73fb      	strb	r3, [r7, #15]
     7f2:	687b      	ldr	r3, [r7, #4]
     7f4:	781b      	ldrb	r3, [r3, #0]
     7f6:	f003 0304 	and.w	r3, r3, #4
     7fa:	b2db      	uxtb	r3, r3
     7fc:	2b00      	cmp	r3, #0
     7fe:	d023      	beq.n	848 <invalid_packets_omit+0x64>
     800:	687b      	ldr	r3, [r7, #4]
     802:	781b      	ldrb	r3, [r3, #0]
     804:	f3c3 0301 	ubfx	r3, r3, #0, #2
     808:	b2db      	uxtb	r3, r3
     80a:	2b01      	cmp	r3, #1
     80c:	d002      	beq.n	814 <invalid_packets_omit+0x30>
     80e:	2b02      	cmp	r3, #2
     810:	d00c      	beq.n	82c <invalid_packets_omit+0x48>
     812:	e017      	b.n	844 <invalid_packets_omit+0x60>
     814:	683b      	ldr	r3, [r7, #0]
     816:	681b      	ldr	r3, [r3, #0]
     818:	687a      	ldr	r2, [r7, #4]
     81a:	8812      	ldrh	r2, [r2, #0]
     81c:	f3c2 1283 	ubfx	r2, r2, #6, #4
     820:	b2d2      	uxtb	r2, r2
     822:	4413      	add	r3, r2
     824:	1c9a      	adds	r2, r3, #2
     826:	683b      	ldr	r3, [r7, #0]
     828:	601a      	str	r2, [r3, #0]
     82a:	e00b      	b.n	844 <invalid_packets_omit+0x60>
     82c:	683b      	ldr	r3, [r7, #0]
     82e:	681b      	ldr	r3, [r3, #0]
     830:	687a      	ldr	r2, [r7, #4]
     832:	8852      	ldrh	r2, [r2, #2]
     834:	f3c2 1289 	ubfx	r2, r2, #6, #10
     838:	b292      	uxth	r2, r2
     83a:	4413      	add	r3, r2
     83c:	1c9a      	adds	r2, r3, #2
     83e:	683b      	ldr	r3, [r7, #0]
     840:	601a      	str	r2, [r3, #0]
     842:	bf00      	nop
     844:	2301      	movs	r3, #1
     846:	73fb      	strb	r3, [r7, #15]
     848:	7bfb      	ldrb	r3, [r7, #15]
     84a:	4618      	mov	r0, r3
     84c:	3714      	adds	r7, #20
     84e:	46bd      	mov	sp, r7
     850:	f85d 7b04 	ldr.w	r7, [sp], #4
     854:	4770      	bx	lr
	...

00000858 <log_skip>:
     858:	b580      	push	{r7, lr}
     85a:	b08a      	sub	sp, #40	; 0x28
     85c:	af00      	add	r7, sp, #0
     85e:	2300      	movs	r3, #0
     860:	84fb      	strh	r3, [r7, #38]	; 0x26
     862:	4838      	ldr	r0, [pc, #224]	; (944 <log_skip+0xec>)
     864:	f000 feed 	bl	1642 <nrf_atomic_flag_set>
     868:	4837      	ldr	r0, [pc, #220]	; (948 <log_skip+0xf0>)
     86a:	f000 feea 	bl	1642 <nrf_atomic_flag_set>
     86e:	4b37      	ldr	r3, [pc, #220]	; (94c <log_skip+0xf4>)
     870:	689b      	ldr	r3, [r3, #8]
     872:	613b      	str	r3, [r7, #16]
     874:	4b36      	ldr	r3, [pc, #216]	; (950 <log_skip+0xf8>)
     876:	681b      	ldr	r3, [r3, #0]
     878:	61bb      	str	r3, [r7, #24]
     87a:	693a      	ldr	r2, [r7, #16]
     87c:	69bb      	ldr	r3, [r7, #24]
     87e:	4013      	ands	r3, r2
     880:	3302      	adds	r3, #2
     882:	009b      	lsls	r3, r3, #2
     884:	4a31      	ldr	r2, [pc, #196]	; (94c <log_skip+0xf4>)
     886:	4413      	add	r3, r2
     888:	3304      	adds	r3, #4
     88a:	623b      	str	r3, [r7, #32]
     88c:	f107 0310 	add.w	r3, r7, #16
     890:	4619      	mov	r1, r3
     892:	6a38      	ldr	r0, [r7, #32]
     894:	f7ff ffa6 	bl	7e4 <invalid_packets_omit>
     898:	4603      	mov	r3, r0
     89a:	2b00      	cmp	r3, #0
     89c:	d009      	beq.n	8b2 <log_skip+0x5a>
     89e:	693a      	ldr	r2, [r7, #16]
     8a0:	69bb      	ldr	r3, [r7, #24]
     8a2:	4013      	ands	r3, r2
     8a4:	3302      	adds	r3, #2
     8a6:	009b      	lsls	r3, r3, #2
     8a8:	4a28      	ldr	r2, [pc, #160]	; (94c <log_skip+0xf4>)
     8aa:	4413      	add	r3, r2
     8ac:	3304      	adds	r3, #4
     8ae:	623b      	str	r3, [r7, #32]
     8b0:	e7ec      	b.n	88c <log_skip+0x34>
     8b2:	bf00      	nop
     8b4:	2300      	movs	r3, #0
     8b6:	61fb      	str	r3, [r7, #28]
     8b8:	e011      	b.n	8de <log_skip+0x86>
     8ba:	693b      	ldr	r3, [r7, #16]
     8bc:	1c5a      	adds	r2, r3, #1
     8be:	613a      	str	r2, [r7, #16]
     8c0:	69ba      	ldr	r2, [r7, #24]
     8c2:	4013      	ands	r3, r2
     8c4:	69fa      	ldr	r2, [r7, #28]
     8c6:	0092      	lsls	r2, r2, #2
     8c8:	1d39      	adds	r1, r7, #4
     8ca:	440a      	add	r2, r1
     8cc:	491f      	ldr	r1, [pc, #124]	; (94c <log_skip+0xf4>)
     8ce:	3302      	adds	r3, #2
     8d0:	009b      	lsls	r3, r3, #2
     8d2:	440b      	add	r3, r1
     8d4:	685b      	ldr	r3, [r3, #4]
     8d6:	6013      	str	r3, [r2, #0]
     8d8:	69fb      	ldr	r3, [r7, #28]
     8da:	3301      	adds	r3, #1
     8dc:	61fb      	str	r3, [r7, #28]
     8de:	69fb      	ldr	r3, [r7, #28]
     8e0:	2b01      	cmp	r3, #1
     8e2:	d9ea      	bls.n	8ba <log_skip+0x62>
     8e4:	793b      	ldrb	r3, [r7, #4]
     8e6:	f3c3 0301 	ubfx	r3, r3, #0, #2
     8ea:	b2db      	uxtb	r3, r3
     8ec:	2b01      	cmp	r3, #1
     8ee:	d00d      	beq.n	90c <log_skip+0xb4>
     8f0:	2b02      	cmp	r3, #2
     8f2:	d116      	bne.n	922 <log_skip+0xca>
     8f4:	897b      	ldrh	r3, [r7, #10]
     8f6:	84fb      	strh	r3, [r7, #38]	; 0x26
     8f8:	88fb      	ldrh	r3, [r7, #6]
     8fa:	f3c3 1389 	ubfx	r3, r3, #6, #10
     8fe:	b29b      	uxth	r3, r3
     900:	3303      	adds	r3, #3
     902:	089a      	lsrs	r2, r3, #2
     904:	693b      	ldr	r3, [r7, #16]
     906:	4413      	add	r3, r2
     908:	613b      	str	r3, [r7, #16]
     90a:	e00b      	b.n	924 <log_skip+0xcc>
     90c:	897b      	ldrh	r3, [r7, #10]
     90e:	84fb      	strh	r3, [r7, #38]	; 0x26
     910:	88bb      	ldrh	r3, [r7, #4]
     912:	f3c3 1383 	ubfx	r3, r3, #6, #4
     916:	b2db      	uxtb	r3, r3
     918:	461a      	mov	r2, r3
     91a:	693b      	ldr	r3, [r7, #16]
     91c:	4413      	add	r3, r2
     91e:	613b      	str	r3, [r7, #16]
     920:	e000      	b.n	924 <log_skip+0xcc>
     922:	bf00      	nop
     924:	4808      	ldr	r0, [pc, #32]	; (948 <log_skip+0xf0>)
     926:	f000 fe99 	bl	165c <nrf_atomic_flag_clear_fetch>
     92a:	6178      	str	r0, [r7, #20]
     92c:	697b      	ldr	r3, [r7, #20]
     92e:	2b00      	cmp	r3, #0
     930:	d002      	beq.n	938 <log_skip+0xe0>
     932:	693b      	ldr	r3, [r7, #16]
     934:	4a05      	ldr	r2, [pc, #20]	; (94c <log_skip+0xf4>)
     936:	6093      	str	r3, [r2, #8]
     938:	8cfb      	ldrh	r3, [r7, #38]	; 0x26
     93a:	4618      	mov	r0, r3
     93c:	3728      	adds	r7, #40	; 0x28
     93e:	46bd      	mov	sp, r7
     940:	bd80      	pop	{r7, pc}
     942:	bf00      	nop
     944:	20000634 	.word	0x20000634
     948:	20000630 	.word	0x20000630
     94c:	2000021c 	.word	0x2000021c
     950:	20000008 	.word	0x20000008

00000954 <dropped_sat16_get>:
     954:	b580      	push	{r7, lr}
     956:	b084      	sub	sp, #16
     958:	af00      	add	r7, sp, #0
     95a:	2100      	movs	r1, #0
     95c:	4807      	ldr	r0, [pc, #28]	; (97c <dropped_sat16_get+0x28>)
     95e:	f000 fdf4 	bl	154a <nrf_atomic_u32_fetch_store>
     962:	60f8      	str	r0, [r7, #12]
     964:	68fb      	ldr	r3, [r7, #12]
     966:	60bb      	str	r3, [r7, #8]
     968:	68bb      	ldr	r3, [r7, #8]
     96a:	f383 0310 	usat	r3, #16, r3
     96e:	607b      	str	r3, [r7, #4]
     970:	687b      	ldr	r3, [r7, #4]
     972:	4618      	mov	r0, r3
     974:	3710      	adds	r7, #16
     976:	46bd      	mov	sp, r7
     978:	bd80      	pop	{r7, pc}
     97a:	bf00      	nop
     97c:	20000638 	.word	0x20000638

00000980 <std_header_set>:
     980:	b580      	push	{r7, lr}
     982:	b088      	sub	sp, #32
     984:	af00      	add	r7, sp, #0
     986:	60f8      	str	r0, [r7, #12]
     988:	60b9      	str	r1, [r7, #8]
     98a:	607a      	str	r2, [r7, #4]
     98c:	603b      	str	r3, [r7, #0]
     98e:	68fb      	ldr	r3, [r7, #12]
     990:	0c1b      	lsrs	r3, r3, #16
     992:	61bb      	str	r3, [r7, #24]
     994:	f7ff ffde 	bl	954 <dropped_sat16_get>
     998:	61f8      	str	r0, [r7, #28]
     99a:	69fb      	ldr	r3, [r7, #28]
     99c:	0419      	lsls	r1, r3, #16
     99e:	683b      	ldr	r3, [r7, #0]
     9a0:	1c5a      	adds	r2, r3, #1
     9a2:	6abb      	ldr	r3, [r7, #40]	; 0x28
     9a4:	4013      	ands	r3, r2
     9a6:	69ba      	ldr	r2, [r7, #24]
     9a8:	430a      	orrs	r2, r1
     9aa:	491b      	ldr	r1, [pc, #108]	; (a18 <std_header_set+0x98>)
     9ac:	3302      	adds	r3, #2
     9ae:	009b      	lsls	r3, r3, #2
     9b0:	440b      	add	r3, r1
     9b2:	605a      	str	r2, [r3, #4]
     9b4:	683a      	ldr	r2, [r7, #0]
     9b6:	6abb      	ldr	r3, [r7, #40]	; 0x28
     9b8:	4013      	ands	r3, r2
     9ba:	3302      	adds	r3, #2
     9bc:	009b      	lsls	r3, r3, #2
     9be:	4a16      	ldr	r2, [pc, #88]	; (a18 <std_header_set+0x98>)
     9c0:	4413      	add	r3, r2
     9c2:	3304      	adds	r3, #4
     9c4:	617b      	str	r3, [r7, #20]
     9c6:	68fb      	ldr	r3, [r7, #12]
     9c8:	f003 0307 	and.w	r3, r3, #7
     9cc:	b2d9      	uxtb	r1, r3
     9ce:	697a      	ldr	r2, [r7, #20]
     9d0:	7813      	ldrb	r3, [r2, #0]
     9d2:	f361 03c5 	bfi	r3, r1, #3, #3
     9d6:	7013      	strb	r3, [r2, #0]
     9d8:	687b      	ldr	r3, [r7, #4]
     9da:	f003 030f 	and.w	r3, r3, #15
     9de:	b2d9      	uxtb	r1, r3
     9e0:	697a      	ldr	r2, [r7, #20]
     9e2:	8813      	ldrh	r3, [r2, #0]
     9e4:	f361 1389 	bfi	r3, r1, #6, #4
     9e8:	8013      	strh	r3, [r2, #0]
     9ea:	68bb      	ldr	r3, [r7, #8]
     9ec:	f3c3 0115 	ubfx	r1, r3, #0, #22
     9f0:	697a      	ldr	r2, [r7, #20]
     9f2:	6813      	ldr	r3, [r2, #0]
     9f4:	f361 239f 	bfi	r3, r1, #10, #22
     9f8:	6013      	str	r3, [r2, #0]
     9fa:	697a      	ldr	r2, [r7, #20]
     9fc:	7813      	ldrb	r3, [r2, #0]
     9fe:	2101      	movs	r1, #1
     a00:	f361 0301 	bfi	r3, r1, #0, #2
     a04:	7013      	strb	r3, [r2, #0]
     a06:	697a      	ldr	r2, [r7, #20]
     a08:	7813      	ldrb	r3, [r2, #0]
     a0a:	f36f 0382 	bfc	r3, #2, #1
     a0e:	7013      	strb	r3, [r2, #0]
     a10:	bf00      	nop
     a12:	3720      	adds	r7, #32
     a14:	46bd      	mov	sp, r7
     a16:	bd80      	pop	{r7, pc}
     a18:	2000021c 	.word	0x2000021c

00000a1c <buf_prealloc>:
     a1c:	b580      	push	{r7, lr}
     a1e:	b08a      	sub	sp, #40	; 0x28
     a20:	af00      	add	r7, sp, #0
     a22:	60f8      	str	r0, [r7, #12]
     a24:	60b9      	str	r1, [r7, #8]
     a26:	4613      	mov	r3, r2
     a28:	71fb      	strb	r3, [r7, #7]
     a2a:	68fb      	ldr	r3, [r7, #12]
     a2c:	3302      	adds	r3, #2
     a2e:	623b      	str	r3, [r7, #32]
     a30:	2301      	movs	r3, #1
     a32:	77fb      	strb	r3, [r7, #31]
     a34:	2000      	movs	r0, #0
     a36:	f000 fd73 	bl	1520 <app_util_critical_region_enter>
     a3a:	4b37      	ldr	r3, [pc, #220]	; (b18 <buf_prealloc+0xfc>)
     a3c:	685a      	ldr	r2, [r3, #4]
     a3e:	68bb      	ldr	r3, [r7, #8]
     a40:	601a      	str	r2, [r3, #0]
     a42:	4b36      	ldr	r3, [pc, #216]	; (b1c <buf_prealloc+0x100>)
     a44:	681a      	ldr	r2, [r3, #0]
     a46:	4b34      	ldr	r3, [pc, #208]	; (b18 <buf_prealloc+0xfc>)
     a48:	6899      	ldr	r1, [r3, #8]
     a4a:	4b33      	ldr	r3, [pc, #204]	; (b18 <buf_prealloc+0xfc>)
     a4c:	685b      	ldr	r3, [r3, #4]
     a4e:	1acb      	subs	r3, r1, r3
     a50:	4413      	add	r3, r2
     a52:	3301      	adds	r3, #1
     a54:	627b      	str	r3, [r7, #36]	; 0x24
     a56:	e014      	b.n	a82 <buf_prealloc+0x66>
     a58:	2101      	movs	r1, #1
     a5a:	4831      	ldr	r0, [pc, #196]	; (b20 <buf_prealloc+0x104>)
     a5c:	f000 fdbf 	bl	15de <nrf_atomic_u32_add>
     a60:	f7ff fefa 	bl	858 <log_skip>
     a64:	6178      	str	r0, [r7, #20]
     a66:	6979      	ldr	r1, [r7, #20]
     a68:	482d      	ldr	r0, [pc, #180]	; (b20 <buf_prealloc+0x104>)
     a6a:	f000 fdb8 	bl	15de <nrf_atomic_u32_add>
     a6e:	4b2b      	ldr	r3, [pc, #172]	; (b1c <buf_prealloc+0x100>)
     a70:	681a      	ldr	r2, [r3, #0]
     a72:	4b29      	ldr	r3, [pc, #164]	; (b18 <buf_prealloc+0xfc>)
     a74:	6899      	ldr	r1, [r3, #8]
     a76:	4b28      	ldr	r3, [pc, #160]	; (b18 <buf_prealloc+0xfc>)
     a78:	685b      	ldr	r3, [r3, #4]
     a7a:	1acb      	subs	r3, r1, r3
     a7c:	4413      	add	r3, r2
     a7e:	3301      	adds	r3, #1
     a80:	627b      	str	r3, [r7, #36]	; 0x24
     a82:	6a3a      	ldr	r2, [r7, #32]
     a84:	6a7b      	ldr	r3, [r7, #36]	; 0x24
     a86:	429a      	cmp	r2, r3
     a88:	d8e6      	bhi.n	a58 <buf_prealloc+0x3c>
     a8a:	7ffb      	ldrb	r3, [r7, #31]
     a8c:	2b00      	cmp	r3, #0
     a8e:	d03b      	beq.n	b08 <buf_prealloc+0xec>
     a90:	2300      	movs	r3, #0
     a92:	613b      	str	r3, [r7, #16]
     a94:	79fb      	ldrb	r3, [r7, #7]
     a96:	2b00      	cmp	r3, #0
     a98:	d011      	beq.n	abe <buf_prealloc+0xa2>
     a9a:	7c3b      	ldrb	r3, [r7, #16]
     a9c:	2201      	movs	r2, #1
     a9e:	f362 0301 	bfi	r3, r2, #0, #2
     aa2:	743b      	strb	r3, [r7, #16]
     aa4:	7c3b      	ldrb	r3, [r7, #16]
     aa6:	f043 0304 	orr.w	r3, r3, #4
     aaa:	743b      	strb	r3, [r7, #16]
     aac:	68fb      	ldr	r3, [r7, #12]
     aae:	f003 030f 	and.w	r3, r3, #15
     ab2:	b2da      	uxtb	r2, r3
     ab4:	8a3b      	ldrh	r3, [r7, #16]
     ab6:	f362 1389 	bfi	r3, r2, #6, #4
     aba:	823b      	strh	r3, [r7, #16]
     abc:	e010      	b.n	ae0 <buf_prealloc+0xc4>
     abe:	7c3b      	ldrb	r3, [r7, #16]
     ac0:	2202      	movs	r2, #2
     ac2:	f362 0301 	bfi	r3, r2, #0, #2
     ac6:	743b      	strb	r3, [r7, #16]
     ac8:	7c3b      	ldrb	r3, [r7, #16]
     aca:	f043 0304 	orr.w	r3, r3, #4
     ace:	743b      	strb	r3, [r7, #16]
     ad0:	68fb      	ldr	r3, [r7, #12]
     ad2:	f3c3 0309 	ubfx	r3, r3, #0, #10
     ad6:	b29a      	uxth	r2, r3
     ad8:	8a7b      	ldrh	r3, [r7, #18]
     ada:	f362 138f 	bfi	r3, r2, #6, #10
     ade:	827b      	strh	r3, [r7, #18]
     ae0:	4b0d      	ldr	r3, [pc, #52]	; (b18 <buf_prealloc+0xfc>)
     ae2:	685a      	ldr	r2, [r3, #4]
     ae4:	4b0d      	ldr	r3, [pc, #52]	; (b1c <buf_prealloc+0x100>)
     ae6:	681b      	ldr	r3, [r3, #0]
     ae8:	4013      	ands	r3, r2
     aea:	3302      	adds	r3, #2
     aec:	009b      	lsls	r3, r3, #2
     aee:	4a0a      	ldr	r2, [pc, #40]	; (b18 <buf_prealloc+0xfc>)
     af0:	4413      	add	r3, r2
     af2:	3304      	adds	r3, #4
     af4:	61bb      	str	r3, [r7, #24]
     af6:	693a      	ldr	r2, [r7, #16]
     af8:	69bb      	ldr	r3, [r7, #24]
     afa:	601a      	str	r2, [r3, #0]
     afc:	4b06      	ldr	r3, [pc, #24]	; (b18 <buf_prealloc+0xfc>)
     afe:	685a      	ldr	r2, [r3, #4]
     b00:	6a3b      	ldr	r3, [r7, #32]
     b02:	4413      	add	r3, r2
     b04:	4a04      	ldr	r2, [pc, #16]	; (b18 <buf_prealloc+0xfc>)
     b06:	6053      	str	r3, [r2, #4]
     b08:	2000      	movs	r0, #0
     b0a:	f000 fd13 	bl	1534 <app_util_critical_region_exit>
     b0e:	7ffb      	ldrb	r3, [r7, #31]
     b10:	4618      	mov	r0, r3
     b12:	3728      	adds	r7, #40	; 0x28
     b14:	46bd      	mov	sp, r7
     b16:	bd80      	pop	{r7, pc}
     b18:	2000021c 	.word	0x2000021c
     b1c:	20000008 	.word	0x20000008
     b20:	20000638 	.word	0x20000638

00000b24 <std_n>:
     b24:	b580      	push	{r7, lr}
     b26:	b08a      	sub	sp, #40	; 0x28
     b28:	af02      	add	r7, sp, #8
     b2a:	60f8      	str	r0, [r7, #12]
     b2c:	60b9      	str	r1, [r7, #8]
     b2e:	607a      	str	r2, [r7, #4]
     b30:	603b      	str	r3, [r7, #0]
     b32:	4b1f      	ldr	r3, [pc, #124]	; (bb0 <std_n+0x8c>)
     b34:	681b      	ldr	r3, [r3, #0]
     b36:	617b      	str	r3, [r7, #20]
     b38:	f107 0310 	add.w	r3, r7, #16
     b3c:	2201      	movs	r2, #1
     b3e:	4619      	mov	r1, r3
     b40:	6838      	ldr	r0, [r7, #0]
     b42:	f7ff ff6b 	bl	a1c <buf_prealloc>
     b46:	4603      	mov	r3, r0
     b48:	2b00      	cmp	r3, #0
     b4a:	d024      	beq.n	b96 <std_n+0x72>
     b4c:	693b      	ldr	r3, [r7, #16]
     b4e:	3302      	adds	r3, #2
     b50:	61fb      	str	r3, [r7, #28]
     b52:	2300      	movs	r3, #0
     b54:	61bb      	str	r3, [r7, #24]
     b56:	e011      	b.n	b7c <std_n+0x58>
     b58:	69bb      	ldr	r3, [r7, #24]
     b5a:	009b      	lsls	r3, r3, #2
     b5c:	687a      	ldr	r2, [r7, #4]
     b5e:	441a      	add	r2, r3
     b60:	69fb      	ldr	r3, [r7, #28]
     b62:	1c59      	adds	r1, r3, #1
     b64:	61f9      	str	r1, [r7, #28]
     b66:	6979      	ldr	r1, [r7, #20]
     b68:	400b      	ands	r3, r1
     b6a:	6812      	ldr	r2, [r2, #0]
     b6c:	4911      	ldr	r1, [pc, #68]	; (bb4 <std_n+0x90>)
     b6e:	3302      	adds	r3, #2
     b70:	009b      	lsls	r3, r3, #2
     b72:	440b      	add	r3, r1
     b74:	605a      	str	r2, [r3, #4]
     b76:	69bb      	ldr	r3, [r7, #24]
     b78:	3301      	adds	r3, #1
     b7a:	61bb      	str	r3, [r7, #24]
     b7c:	69ba      	ldr	r2, [r7, #24]
     b7e:	683b      	ldr	r3, [r7, #0]
     b80:	429a      	cmp	r2, r3
     b82:	d3e9      	bcc.n	b58 <std_n+0x34>
     b84:	693a      	ldr	r2, [r7, #16]
     b86:	697b      	ldr	r3, [r7, #20]
     b88:	9300      	str	r3, [sp, #0]
     b8a:	4613      	mov	r3, r2
     b8c:	683a      	ldr	r2, [r7, #0]
     b8e:	68b9      	ldr	r1, [r7, #8]
     b90:	68f8      	ldr	r0, [r7, #12]
     b92:	f7ff fef5 	bl	980 <std_header_set>
     b96:	4b07      	ldr	r3, [pc, #28]	; (bb4 <std_n+0x90>)
     b98:	781b      	ldrb	r3, [r3, #0]
     b9a:	2b00      	cmp	r3, #0
     b9c:	d004      	beq.n	ba8 <std_n+0x84>
     b9e:	f000 f83f 	bl	c20 <nrf_log_frontend_dequeue>
     ba2:	4603      	mov	r3, r0
     ba4:	2b00      	cmp	r3, #0
     ba6:	d1fa      	bne.n	b9e <std_n+0x7a>
     ba8:	bf00      	nop
     baa:	3720      	adds	r7, #32
     bac:	46bd      	mov	sp, r7
     bae:	bd80      	pop	{r7, pc}
     bb0:	20000008 	.word	0x20000008
     bb4:	2000021c 	.word	0x2000021c

00000bb8 <nrf_log_frontend_std_0>:
     bb8:	b580      	push	{r7, lr}
     bba:	b082      	sub	sp, #8
     bbc:	af00      	add	r7, sp, #0
     bbe:	6078      	str	r0, [r7, #4]
     bc0:	6039      	str	r1, [r7, #0]
     bc2:	2300      	movs	r3, #0
     bc4:	2200      	movs	r2, #0
     bc6:	6839      	ldr	r1, [r7, #0]
     bc8:	6878      	ldr	r0, [r7, #4]
     bca:	f7ff ffab 	bl	b24 <std_n>
     bce:	bf00      	nop
     bd0:	3708      	adds	r7, #8
     bd2:	46bd      	mov	sp, r7
     bd4:	bd80      	pop	{r7, pc}

00000bd6 <nrf_log_frontend_std_1>:
     bd6:	b580      	push	{r7, lr}
     bd8:	b086      	sub	sp, #24
     bda:	af00      	add	r7, sp, #0
     bdc:	60f8      	str	r0, [r7, #12]
     bde:	60b9      	str	r1, [r7, #8]
     be0:	607a      	str	r2, [r7, #4]
     be2:	687b      	ldr	r3, [r7, #4]
     be4:	617b      	str	r3, [r7, #20]
     be6:	f107 0214 	add.w	r2, r7, #20
     bea:	2301      	movs	r3, #1
     bec:	68b9      	ldr	r1, [r7, #8]
     bee:	68f8      	ldr	r0, [r7, #12]
     bf0:	f7ff ff98 	bl	b24 <std_n>
     bf4:	bf00      	nop
     bf6:	3718      	adds	r7, #24
     bf8:	46bd      	mov	sp, r7
     bfa:	bd80      	pop	{r7, pc}

00000bfc <buffer_is_empty>:
     bfc:	b480      	push	{r7}
     bfe:	af00      	add	r7, sp, #0
     c00:	4b06      	ldr	r3, [pc, #24]	; (c1c <buffer_is_empty+0x20>)
     c02:	689a      	ldr	r2, [r3, #8]
     c04:	4b05      	ldr	r3, [pc, #20]	; (c1c <buffer_is_empty+0x20>)
     c06:	685b      	ldr	r3, [r3, #4]
     c08:	429a      	cmp	r2, r3
     c0a:	bf0c      	ite	eq
     c0c:	2301      	moveq	r3, #1
     c0e:	2300      	movne	r3, #0
     c10:	b2db      	uxtb	r3, r3
     c12:	4618      	mov	r0, r3
     c14:	46bd      	mov	sp, r7
     c16:	f85d 7b04 	ldr.w	r7, [sp], #4
     c1a:	4770      	bx	lr
     c1c:	2000021c 	.word	0x2000021c

00000c20 <nrf_log_frontend_dequeue>:
     c20:	b580      	push	{r7, lr}
     c22:	b098      	sub	sp, #96	; 0x60
     c24:	af00      	add	r7, sp, #0
     c26:	f7ff ffe9 	bl	bfc <buffer_is_empty>
     c2a:	4603      	mov	r3, r0
     c2c:	2b00      	cmp	r3, #0
     c2e:	d001      	beq.n	c34 <nrf_log_frontend_dequeue+0x14>
     c30:	2300      	movs	r3, #0
     c32:	e1a7      	b.n	f84 <nrf_log_frontend_dequeue+0x364>
     c34:	4b92      	ldr	r3, [pc, #584]	; (e80 <nrf_log_frontend_dequeue+0x260>)
     c36:	2200      	movs	r2, #0
     c38:	f8c3 2418 	str.w	r2, [r3, #1048]	; 0x418
     c3c:	f3bf 8f4f 	dsb	sy
     c40:	bf00      	nop
     c42:	4b8f      	ldr	r3, [pc, #572]	; (e80 <nrf_log_frontend_dequeue+0x260>)
     c44:	689b      	ldr	r3, [r3, #8]
     c46:	613b      	str	r3, [r7, #16]
     c48:	4b8e      	ldr	r3, [pc, #568]	; (e84 <nrf_log_frontend_dequeue+0x264>)
     c4a:	681b      	ldr	r3, [r3, #0]
     c4c:	643b      	str	r3, [r7, #64]	; 0x40
     c4e:	693a      	ldr	r2, [r7, #16]
     c50:	6c3b      	ldr	r3, [r7, #64]	; 0x40
     c52:	4013      	ands	r3, r2
     c54:	3302      	adds	r3, #2
     c56:	009b      	lsls	r3, r3, #2
     c58:	4a89      	ldr	r2, [pc, #548]	; (e80 <nrf_log_frontend_dequeue+0x260>)
     c5a:	4413      	add	r3, r2
     c5c:	3304      	adds	r3, #4
     c5e:	647b      	str	r3, [r7, #68]	; 0x44
     c60:	2300      	movs	r3, #0
     c62:	65fb      	str	r3, [r7, #92]	; 0x5c
     c64:	2300      	movs	r3, #0
     c66:	65bb      	str	r3, [r7, #88]	; 0x58
     c68:	2300      	movs	r3, #0
     c6a:	63fb      	str	r3, [r7, #60]	; 0x3c
     c6c:	f107 0310 	add.w	r3, r7, #16
     c70:	4619      	mov	r1, r3
     c72:	6c78      	ldr	r0, [r7, #68]	; 0x44
     c74:	f7ff fdb6 	bl	7e4 <invalid_packets_omit>
     c78:	4603      	mov	r3, r0
     c7a:	2b00      	cmp	r3, #0
     c7c:	d019      	beq.n	cb2 <nrf_log_frontend_dequeue+0x92>
     c7e:	4b80      	ldr	r3, [pc, #512]	; (e80 <nrf_log_frontend_dequeue+0x260>)
     c80:	f8d3 3418 	ldr.w	r3, [r3, #1048]	; 0x418
     c84:	2b00      	cmp	r3, #0
     c86:	d114      	bne.n	cb2 <nrf_log_frontend_dequeue+0x92>
     c88:	4b7d      	ldr	r3, [pc, #500]	; (e80 <nrf_log_frontend_dequeue+0x260>)
     c8a:	685a      	ldr	r2, [r3, #4]
     c8c:	693b      	ldr	r3, [r7, #16]
     c8e:	429a      	cmp	r2, r3
     c90:	d805      	bhi.n	c9e <nrf_log_frontend_dequeue+0x7e>
     c92:	4b7b      	ldr	r3, [pc, #492]	; (e80 <nrf_log_frontend_dequeue+0x260>)
     c94:	685b      	ldr	r3, [r3, #4]
     c96:	4a7a      	ldr	r2, [pc, #488]	; (e80 <nrf_log_frontend_dequeue+0x260>)
     c98:	6093      	str	r3, [r2, #8]
     c9a:	2300      	movs	r3, #0
     c9c:	e172      	b.n	f84 <nrf_log_frontend_dequeue+0x364>
     c9e:	693a      	ldr	r2, [r7, #16]
     ca0:	6c3b      	ldr	r3, [r7, #64]	; 0x40
     ca2:	4013      	ands	r3, r2
     ca4:	3302      	adds	r3, #2
     ca6:	009b      	lsls	r3, r3, #2
     ca8:	4a75      	ldr	r2, [pc, #468]	; (e80 <nrf_log_frontend_dequeue+0x260>)
     caa:	4413      	add	r3, r2
     cac:	3304      	adds	r3, #4
     cae:	647b      	str	r3, [r7, #68]	; 0x44
     cb0:	e7dc      	b.n	c6c <nrf_log_frontend_dequeue+0x4c>
     cb2:	2300      	movs	r3, #0
     cb4:	657b      	str	r3, [r7, #84]	; 0x54
     cb6:	e011      	b.n	cdc <nrf_log_frontend_dequeue+0xbc>
     cb8:	693b      	ldr	r3, [r7, #16]
     cba:	1c5a      	adds	r2, r3, #1
     cbc:	613a      	str	r2, [r7, #16]
     cbe:	6c3a      	ldr	r2, [r7, #64]	; 0x40
     cc0:	4013      	ands	r3, r2
     cc2:	6d7a      	ldr	r2, [r7, #84]	; 0x54
     cc4:	0092      	lsls	r2, r2, #2
     cc6:	1d39      	adds	r1, r7, #4
     cc8:	440a      	add	r2, r1
     cca:	496d      	ldr	r1, [pc, #436]	; (e80 <nrf_log_frontend_dequeue+0x260>)
     ccc:	3302      	adds	r3, #2
     cce:	009b      	lsls	r3, r3, #2
     cd0:	440b      	add	r3, r1
     cd2:	685b      	ldr	r3, [r3, #4]
     cd4:	6013      	str	r3, [r2, #0]
     cd6:	6d7b      	ldr	r3, [r7, #84]	; 0x54
     cd8:	3301      	adds	r3, #1
     cda:	657b      	str	r3, [r7, #84]	; 0x54
     cdc:	6d7b      	ldr	r3, [r7, #84]	; 0x54
     cde:	2b01      	cmp	r3, #1
     ce0:	d9ea      	bls.n	cb8 <nrf_log_frontend_dequeue+0x98>
     ce2:	793b      	ldrb	r3, [r7, #4]
     ce4:	f003 0303 	and.w	r3, r3, #3
     ce8:	b2db      	uxtb	r3, r3
     cea:	2b02      	cmp	r3, #2
     cec:	f040 8092 	bne.w	e14 <nrf_log_frontend_dequeue+0x1f4>
     cf0:	88fb      	ldrh	r3, [r7, #6]
     cf2:	f3c3 1389 	ubfx	r3, r3, #6, #10
     cf6:	b29b      	uxth	r3, r3
     cf8:	637b      	str	r3, [r7, #52]	; 0x34
     cfa:	88fb      	ldrh	r3, [r7, #6]
     cfc:	f3c3 1389 	ubfx	r3, r3, #6, #10
     d00:	b29b      	uxth	r3, r3
     d02:	2b50      	cmp	r3, #80	; 0x50
     d04:	bf28      	it	cs
     d06:	2350      	movcs	r3, #80	; 0x50
     d08:	b29b      	uxth	r3, r3
     d0a:	633b      	str	r3, [r7, #48]	; 0x30
     d0c:	6b3b      	ldr	r3, [r7, #48]	; 0x30
     d0e:	f3c3 0309 	ubfx	r3, r3, #0, #10
     d12:	b29a      	uxth	r2, r3
     d14:	88fb      	ldrh	r3, [r7, #6]
     d16:	f362 138f 	bfi	r3, r2, #6, #10
     d1a:	80fb      	strh	r3, [r7, #6]
     d1c:	6b3b      	ldr	r3, [r7, #48]	; 0x30
     d1e:	3308      	adds	r3, #8
     d20:	62fb      	str	r3, [r7, #44]	; 0x2c
     d22:	793b      	ldrb	r3, [r7, #4]
     d24:	f3c3 03c2 	ubfx	r3, r3, #3, #3
     d28:	b2db      	uxtb	r3, r3
     d2a:	63fb      	str	r3, [r7, #60]	; 0x3c
     d2c:	6af9      	ldr	r1, [r7, #44]	; 0x2c
     d2e:	4856      	ldr	r0, [pc, #344]	; (e88 <nrf_log_frontend_dequeue+0x268>)
     d30:	f001 f8ca 	bl	1ec8 <nrf_memobj_alloc>
     d34:	65f8      	str	r0, [r7, #92]	; 0x5c
     d36:	6dfb      	ldr	r3, [r7, #92]	; 0x5c
     d38:	2b00      	cmp	r3, #0
     d3a:	f000 80c6 	beq.w	eca <nrf_log_frontend_dequeue+0x2aa>
     d3e:	6df8      	ldr	r0, [r7, #92]	; 0x5c
     d40:	f001 f950 	bl	1fe4 <nrf_memobj_get>
     d44:	1d39      	adds	r1, r7, #4
     d46:	6dbb      	ldr	r3, [r7, #88]	; 0x58
     d48:	2208      	movs	r2, #8
     d4a:	6df8      	ldr	r0, [r7, #92]	; 0x5c
     d4c:	f001 f9f8 	bl	2140 <nrf_memobj_write>
     d50:	6dbb      	ldr	r3, [r7, #88]	; 0x58
     d52:	3308      	adds	r3, #8
     d54:	65bb      	str	r3, [r7, #88]	; 0x58
     d56:	693b      	ldr	r3, [r7, #16]
     d58:	43da      	mvns	r2, r3
     d5a:	6c3b      	ldr	r3, [r7, #64]	; 0x40
     d5c:	4013      	ands	r3, r2
     d5e:	3301      	adds	r3, #1
     d60:	009b      	lsls	r3, r3, #2
     d62:	62bb      	str	r3, [r7, #40]	; 0x28
     d64:	6b3a      	ldr	r2, [r7, #48]	; 0x30
     d66:	6abb      	ldr	r3, [r7, #40]	; 0x28
     d68:	429a      	cmp	r2, r3
     d6a:	d93d      	bls.n	de8 <nrf_log_frontend_dequeue+0x1c8>
     d6c:	6abb      	ldr	r3, [r7, #40]	; 0x28
     d6e:	2b00      	cmp	r3, #0
     d70:	d008      	beq.n	d84 <nrf_log_frontend_dequeue+0x164>
     d72:	693a      	ldr	r2, [r7, #16]
     d74:	6c3b      	ldr	r3, [r7, #64]	; 0x40
     d76:	4013      	ands	r3, r2
     d78:	3302      	adds	r3, #2
     d7a:	009b      	lsls	r3, r3, #2
     d7c:	4a40      	ldr	r2, [pc, #256]	; (e80 <nrf_log_frontend_dequeue+0x260>)
     d7e:	4413      	add	r3, r2
     d80:	3304      	adds	r3, #4
     d82:	e000      	b.n	d86 <nrf_log_frontend_dequeue+0x166>
     d84:	4b41      	ldr	r3, [pc, #260]	; (e8c <nrf_log_frontend_dequeue+0x26c>)
     d86:	623b      	str	r3, [r7, #32]
     d88:	6abb      	ldr	r3, [r7, #40]	; 0x28
     d8a:	2b00      	cmp	r3, #0
     d8c:	d002      	beq.n	d94 <nrf_log_frontend_dequeue+0x174>
     d8e:	6abb      	ldr	r3, [r7, #40]	; 0x28
     d90:	b2db      	uxtb	r3, r3
     d92:	e001      	b.n	d98 <nrf_log_frontend_dequeue+0x178>
     d94:	6b3b      	ldr	r3, [r7, #48]	; 0x30
     d96:	b2db      	uxtb	r3, r3
     d98:	77fb      	strb	r3, [r7, #31]
     d9a:	6abb      	ldr	r3, [r7, #40]	; 0x28
     d9c:	2b00      	cmp	r3, #0
     d9e:	d001      	beq.n	da4 <nrf_log_frontend_dequeue+0x184>
     da0:	4b3a      	ldr	r3, [pc, #232]	; (e8c <nrf_log_frontend_dequeue+0x26c>)
     da2:	e000      	b.n	da6 <nrf_log_frontend_dequeue+0x186>
     da4:	2300      	movs	r3, #0
     da6:	61bb      	str	r3, [r7, #24]
     da8:	6abb      	ldr	r3, [r7, #40]	; 0x28
     daa:	2b00      	cmp	r3, #0
     dac:	d006      	beq.n	dbc <nrf_log_frontend_dequeue+0x19c>
     dae:	6b3b      	ldr	r3, [r7, #48]	; 0x30
     db0:	b2da      	uxtb	r2, r3
     db2:	6abb      	ldr	r3, [r7, #40]	; 0x28
     db4:	b2db      	uxtb	r3, r3
     db6:	1ad3      	subs	r3, r2, r3
     db8:	b2db      	uxtb	r3, r3
     dba:	e000      	b.n	dbe <nrf_log_frontend_dequeue+0x19e>
     dbc:	2300      	movs	r3, #0
     dbe:	75fb      	strb	r3, [r7, #23]
     dc0:	7ffa      	ldrb	r2, [r7, #31]
     dc2:	6dbb      	ldr	r3, [r7, #88]	; 0x58
     dc4:	6a39      	ldr	r1, [r7, #32]
     dc6:	6df8      	ldr	r0, [r7, #92]	; 0x5c
     dc8:	f001 f9ba 	bl	2140 <nrf_memobj_write>
     dcc:	7ffb      	ldrb	r3, [r7, #31]
     dce:	6dba      	ldr	r2, [r7, #88]	; 0x58
     dd0:	4413      	add	r3, r2
     dd2:	65bb      	str	r3, [r7, #88]	; 0x58
     dd4:	69bb      	ldr	r3, [r7, #24]
     dd6:	2b00      	cmp	r3, #0
     dd8:	d015      	beq.n	e06 <nrf_log_frontend_dequeue+0x1e6>
     dda:	7dfa      	ldrb	r2, [r7, #23]
     ddc:	6dbb      	ldr	r3, [r7, #88]	; 0x58
     dde:	69b9      	ldr	r1, [r7, #24]
     de0:	6df8      	ldr	r0, [r7, #92]	; 0x5c
     de2:	f001 f9ad 	bl	2140 <nrf_memobj_write>
     de6:	e00e      	b.n	e06 <nrf_log_frontend_dequeue+0x1e6>
     de8:	693a      	ldr	r2, [r7, #16]
     dea:	6c3b      	ldr	r3, [r7, #64]	; 0x40
     dec:	4013      	ands	r3, r2
     dee:	3302      	adds	r3, #2
     df0:	009b      	lsls	r3, r3, #2
     df2:	4a23      	ldr	r2, [pc, #140]	; (e80 <nrf_log_frontend_dequeue+0x260>)
     df4:	4413      	add	r3, r2
     df6:	3304      	adds	r3, #4
     df8:	627b      	str	r3, [r7, #36]	; 0x24
     dfa:	6dbb      	ldr	r3, [r7, #88]	; 0x58
     dfc:	6b3a      	ldr	r2, [r7, #48]	; 0x30
     dfe:	6a79      	ldr	r1, [r7, #36]	; 0x24
     e00:	6df8      	ldr	r0, [r7, #92]	; 0x5c
     e02:	f001 f99d 	bl	2140 <nrf_memobj_write>
     e06:	6b7b      	ldr	r3, [r7, #52]	; 0x34
     e08:	3303      	adds	r3, #3
     e0a:	089a      	lsrs	r2, r3, #2
     e0c:	693b      	ldr	r3, [r7, #16]
     e0e:	4413      	add	r3, r2
     e10:	613b      	str	r3, [r7, #16]
     e12:	e05a      	b.n	eca <nrf_log_frontend_dequeue+0x2aa>
     e14:	793b      	ldrb	r3, [r7, #4]
     e16:	f003 0303 	and.w	r3, r3, #3
     e1a:	b2db      	uxtb	r3, r3
     e1c:	2b01      	cmp	r3, #1
     e1e:	d154      	bne.n	eca <nrf_log_frontend_dequeue+0x2aa>
     e20:	88bb      	ldrh	r3, [r7, #4]
     e22:	f3c3 1383 	ubfx	r3, r3, #6, #4
     e26:	b2db      	uxtb	r3, r3
     e28:	2b06      	cmp	r3, #6
     e2a:	bf28      	it	cs
     e2c:	2306      	movcs	r3, #6
     e2e:	b2da      	uxtb	r2, r3
     e30:	88bb      	ldrh	r3, [r7, #4]
     e32:	f362 1389 	bfi	r3, r2, #6, #4
     e36:	80bb      	strh	r3, [r7, #4]
     e38:	88bb      	ldrh	r3, [r7, #4]
     e3a:	f3c3 1383 	ubfx	r3, r3, #6, #4
     e3e:	b2db      	uxtb	r3, r3
     e40:	3302      	adds	r3, #2
     e42:	63bb      	str	r3, [r7, #56]	; 0x38
     e44:	793b      	ldrb	r3, [r7, #4]
     e46:	f3c3 03c2 	ubfx	r3, r3, #3, #3
     e4a:	b2db      	uxtb	r3, r3
     e4c:	63fb      	str	r3, [r7, #60]	; 0x3c
     e4e:	6bbb      	ldr	r3, [r7, #56]	; 0x38
     e50:	009b      	lsls	r3, r3, #2
     e52:	4619      	mov	r1, r3
     e54:	480c      	ldr	r0, [pc, #48]	; (e88 <nrf_log_frontend_dequeue+0x268>)
     e56:	f001 f837 	bl	1ec8 <nrf_memobj_alloc>
     e5a:	65f8      	str	r0, [r7, #92]	; 0x5c
     e5c:	6dfb      	ldr	r3, [r7, #92]	; 0x5c
     e5e:	2b00      	cmp	r3, #0
     e60:	d033      	beq.n	eca <nrf_log_frontend_dequeue+0x2aa>
     e62:	6df8      	ldr	r0, [r7, #92]	; 0x5c
     e64:	f001 f8be 	bl	1fe4 <nrf_memobj_get>
     e68:	1d39      	adds	r1, r7, #4
     e6a:	6dbb      	ldr	r3, [r7, #88]	; 0x58
     e6c:	2208      	movs	r2, #8
     e6e:	6df8      	ldr	r0, [r7, #92]	; 0x5c
     e70:	f001 f966 	bl	2140 <nrf_memobj_write>
     e74:	6dbb      	ldr	r3, [r7, #88]	; 0x58
     e76:	3308      	adds	r3, #8
     e78:	65bb      	str	r3, [r7, #88]	; 0x58
     e7a:	2300      	movs	r3, #0
     e7c:	657b      	str	r3, [r7, #84]	; 0x54
     e7e:	e01c      	b.n	eba <nrf_log_frontend_dequeue+0x29a>
     e80:	2000021c 	.word	0x2000021c
     e84:	20000008 	.word	0x20000008
     e88:	00004898 	.word	0x00004898
     e8c:	20000228 	.word	0x20000228
     e90:	693b      	ldr	r3, [r7, #16]
     e92:	1c5a      	adds	r2, r3, #1
     e94:	613a      	str	r2, [r7, #16]
     e96:	6c3a      	ldr	r2, [r7, #64]	; 0x40
     e98:	4013      	ands	r3, r2
     e9a:	3302      	adds	r3, #2
     e9c:	009b      	lsls	r3, r3, #2
     e9e:	4a3b      	ldr	r2, [pc, #236]	; (f8c <nrf_log_frontend_dequeue+0x36c>)
     ea0:	4413      	add	r3, r2
     ea2:	1d19      	adds	r1, r3, #4
     ea4:	6dbb      	ldr	r3, [r7, #88]	; 0x58
     ea6:	2204      	movs	r2, #4
     ea8:	6df8      	ldr	r0, [r7, #92]	; 0x5c
     eaa:	f001 f949 	bl	2140 <nrf_memobj_write>
     eae:	6dbb      	ldr	r3, [r7, #88]	; 0x58
     eb0:	3304      	adds	r3, #4
     eb2:	65bb      	str	r3, [r7, #88]	; 0x58
     eb4:	6d7b      	ldr	r3, [r7, #84]	; 0x54
     eb6:	3301      	adds	r3, #1
     eb8:	657b      	str	r3, [r7, #84]	; 0x54
     eba:	88bb      	ldrh	r3, [r7, #4]
     ebc:	f3c3 1383 	ubfx	r3, r3, #6, #4
     ec0:	b2db      	uxtb	r3, r3
     ec2:	461a      	mov	r2, r3
     ec4:	6d7b      	ldr	r3, [r7, #84]	; 0x54
     ec6:	4293      	cmp	r3, r2
     ec8:	d3e2      	bcc.n	e90 <nrf_log_frontend_dequeue+0x270>
     eca:	6dfb      	ldr	r3, [r7, #92]	; 0x5c
     ecc:	2b00      	cmp	r3, #0
     ece:	d039      	beq.n	f44 <nrf_log_frontend_dequeue+0x324>
     ed0:	4b2e      	ldr	r3, [pc, #184]	; (f8c <nrf_log_frontend_dequeue+0x36c>)
     ed2:	f8d3 3410 	ldr.w	r3, [r3, #1040]	; 0x410
     ed6:	653b      	str	r3, [r7, #80]	; 0x50
     ed8:	4b2c      	ldr	r3, [pc, #176]	; (f8c <nrf_log_frontend_dequeue+0x36c>)
     eda:	f8d3 3418 	ldr.w	r3, [r3, #1048]	; 0x418
     ede:	2b00      	cmp	r3, #0
     ee0:	d01b      	beq.n	f1a <nrf_log_frontend_dequeue+0x2fa>
     ee2:	6df8      	ldr	r0, [r7, #92]	; 0x5c
     ee4:	f001 f88e 	bl	2004 <nrf_memobj_put>
     ee8:	e046      	b.n	f78 <nrf_log_frontend_dequeue+0x358>
     eea:	2300      	movs	r3, #0
     eec:	f887 304f 	strb.w	r3, [r7, #79]	; 0x4f
     ef0:	6d38      	ldr	r0, [r7, #80]	; 0x50
     ef2:	f7ff fbaf 	bl	654 <nrf_log_backend_is_enabled>
     ef6:	4603      	mov	r3, r0
     ef8:	2b00      	cmp	r3, #0
     efa:	d002      	beq.n	f02 <nrf_log_frontend_dequeue+0x2e2>
     efc:	2301      	movs	r3, #1
     efe:	f887 304f 	strb.w	r3, [r7, #79]	; 0x4f
     f02:	f897 304f 	ldrb.w	r3, [r7, #79]	; 0x4f
     f06:	2b00      	cmp	r3, #0
     f08:	d003      	beq.n	f12 <nrf_log_frontend_dequeue+0x2f2>
     f0a:	6df9      	ldr	r1, [r7, #92]	; 0x5c
     f0c:	6d38      	ldr	r0, [r7, #80]	; 0x50
     f0e:	f7ff fb4d 	bl	5ac <nrf_log_backend_put>
     f12:	6d3b      	ldr	r3, [r7, #80]	; 0x50
     f14:	68db      	ldr	r3, [r3, #12]
     f16:	681b      	ldr	r3, [r3, #0]
     f18:	653b      	str	r3, [r7, #80]	; 0x50
     f1a:	6d3b      	ldr	r3, [r7, #80]	; 0x50
     f1c:	2b00      	cmp	r3, #0
     f1e:	d1e4      	bne.n	eea <nrf_log_frontend_dequeue+0x2ca>
     f20:	6df8      	ldr	r0, [r7, #92]	; 0x5c
     f22:	f001 f86f 	bl	2004 <nrf_memobj_put>
     f26:	2000      	movs	r0, #0
     f28:	f000 fafa 	bl	1520 <app_util_critical_region_enter>
     f2c:	4b17      	ldr	r3, [pc, #92]	; (f8c <nrf_log_frontend_dequeue+0x36c>)
     f2e:	f8d3 3418 	ldr.w	r3, [r3, #1048]	; 0x418
     f32:	2b00      	cmp	r3, #0
     f34:	d102      	bne.n	f3c <nrf_log_frontend_dequeue+0x31c>
     f36:	693b      	ldr	r3, [r7, #16]
     f38:	4a14      	ldr	r2, [pc, #80]	; (f8c <nrf_log_frontend_dequeue+0x36c>)
     f3a:	6093      	str	r3, [r2, #8]
     f3c:	2000      	movs	r0, #0
     f3e:	f000 faf9 	bl	1534 <app_util_critical_region_exit>
     f42:	e019      	b.n	f78 <nrf_log_frontend_dequeue+0x358>
     f44:	4b11      	ldr	r3, [pc, #68]	; (f8c <nrf_log_frontend_dequeue+0x36c>)
     f46:	f8d3 3410 	ldr.w	r3, [r3, #1040]	; 0x410
     f4a:	64bb      	str	r3, [r7, #72]	; 0x48
     f4c:	e006      	b.n	f5c <nrf_log_frontend_dequeue+0x33c>
     f4e:	6cb8      	ldr	r0, [r7, #72]	; 0x48
     f50:	f7ff fb48 	bl	5e4 <nrf_log_backend_flush>
     f54:	6cbb      	ldr	r3, [r7, #72]	; 0x48
     f56:	68db      	ldr	r3, [r3, #12]
     f58:	681b      	ldr	r3, [r3, #0]
     f5a:	64bb      	str	r3, [r7, #72]	; 0x48
     f5c:	6cbb      	ldr	r3, [r7, #72]	; 0x48
     f5e:	2b00      	cmp	r3, #0
     f60:	d1f5      	bne.n	f4e <nrf_log_frontend_dequeue+0x32e>
     f62:	4a0b      	ldr	r2, [pc, #44]	; (f90 <nrf_log_frontend_dequeue+0x370>)
     f64:	4b0b      	ldr	r3, [pc, #44]	; (f94 <nrf_log_frontend_dequeue+0x374>)
     f66:	1ad3      	subs	r3, r2, r3
     f68:	08db      	lsrs	r3, r3, #3
     f6a:	041b      	lsls	r3, r3, #16
     f6c:	f043 0302 	orr.w	r3, r3, #2
     f70:	4909      	ldr	r1, [pc, #36]	; (f98 <nrf_log_frontend_dequeue+0x378>)
     f72:	4618      	mov	r0, r3
     f74:	f7ff fe20 	bl	bb8 <nrf_log_frontend_std_0>
     f78:	f7ff fe40 	bl	bfc <buffer_is_empty>
     f7c:	4603      	mov	r3, r0
     f7e:	f083 0301 	eor.w	r3, r3, #1
     f82:	b2db      	uxtb	r3, r3
     f84:	4618      	mov	r0, r3
     f86:	3760      	adds	r7, #96	; 0x60
     f88:	46bd      	mov	sp, r7
     f8a:	bd80      	pop	{r7, pc}
     f8c:	2000021c 	.word	0x2000021c
     f90:	00004878 	.word	0x00004878
     f94:	00004848 	.word	0x00004848
     f98:	000045a8 	.word	0x000045a8

00000f9c <backend_id_assign>:
     f9c:	b580      	push	{r7, lr}
     f9e:	b084      	sub	sp, #16
     fa0:	af00      	add	r7, sp, #0
     fa2:	2300      	movs	r3, #0
     fa4:	60fb      	str	r3, [r7, #12]
     fa6:	e020      	b.n	fea <backend_id_assign+0x4e>
     fa8:	4b14      	ldr	r3, [pc, #80]	; (ffc <backend_id_assign+0x60>)
     faa:	f8d3 3410 	ldr.w	r3, [r3, #1040]	; 0x410
     fae:	60bb      	str	r3, [r7, #8]
     fb0:	2301      	movs	r3, #1
     fb2:	71fb      	strb	r3, [r7, #7]
     fb4:	e00e      	b.n	fd4 <backend_id_assign+0x38>
     fb6:	68b8      	ldr	r0, [r7, #8]
     fb8:	f7ff fb31 	bl	61e <nrf_log_backend_id_get>
     fbc:	4603      	mov	r3, r0
     fbe:	461a      	mov	r2, r3
     fc0:	68fb      	ldr	r3, [r7, #12]
     fc2:	4293      	cmp	r3, r2
     fc4:	d102      	bne.n	fcc <backend_id_assign+0x30>
     fc6:	2300      	movs	r3, #0
     fc8:	71fb      	strb	r3, [r7, #7]
     fca:	e006      	b.n	fda <backend_id_assign+0x3e>
     fcc:	68bb      	ldr	r3, [r7, #8]
     fce:	68db      	ldr	r3, [r3, #12]
     fd0:	681b      	ldr	r3, [r3, #0]
     fd2:	60bb      	str	r3, [r7, #8]
     fd4:	68bb      	ldr	r3, [r7, #8]
     fd6:	2b00      	cmp	r3, #0
     fd8:	d1ed      	bne.n	fb6 <backend_id_assign+0x1a>
     fda:	79fb      	ldrb	r3, [r7, #7]
     fdc:	2b00      	cmp	r3, #0
     fde:	d001      	beq.n	fe4 <backend_id_assign+0x48>
     fe0:	68fb      	ldr	r3, [r7, #12]
     fe2:	e007      	b.n	ff4 <backend_id_assign+0x58>
     fe4:	68fb      	ldr	r3, [r7, #12]
     fe6:	3301      	adds	r3, #1
     fe8:	60fb      	str	r3, [r7, #12]
     fea:	68fb      	ldr	r3, [r7, #12]
     fec:	2b09      	cmp	r3, #9
     fee:	dddb      	ble.n	fa8 <backend_id_assign+0xc>
     ff0:	f04f 33ff 	mov.w	r3, #4294967295	; 0xffffffff
     ff4:	4618      	mov	r0, r3
     ff6:	3710      	adds	r7, #16
     ff8:	46bd      	mov	sp, r7
     ffa:	bd80      	pop	{r7, pc}
     ffc:	2000021c 	.word	0x2000021c

00001000 <nrf_log_backend_add>:
    1000:	b580      	push	{r7, lr}
    1002:	b084      	sub	sp, #16
    1004:	af00      	add	r7, sp, #0
    1006:	6078      	str	r0, [r7, #4]
    1008:	460b      	mov	r3, r1
    100a:	70fb      	strb	r3, [r7, #3]
    100c:	f7ff ffc6 	bl	f9c <backend_id_assign>
    1010:	60f8      	str	r0, [r7, #12]
    1012:	68fb      	ldr	r3, [r7, #12]
    1014:	f1b3 3fff 	cmp.w	r3, #4294967295	; 0xffffffff
    1018:	d101      	bne.n	101e <nrf_log_backend_add+0x1e>
    101a:	68fb      	ldr	r3, [r7, #12]
    101c:	e022      	b.n	1064 <nrf_log_backend_add+0x64>
    101e:	68fb      	ldr	r3, [r7, #12]
    1020:	b2db      	uxtb	r3, r3
    1022:	4619      	mov	r1, r3
    1024:	6878      	ldr	r0, [r7, #4]
    1026:	f7ff faea 	bl	5fe <nrf_log_backend_id_set>
    102a:	4b10      	ldr	r3, [pc, #64]	; (106c <nrf_log_backend_add+0x6c>)
    102c:	f8d3 3410 	ldr.w	r3, [r3, #1040]	; 0x410
    1030:	2b00      	cmp	r3, #0
    1032:	d108      	bne.n	1046 <nrf_log_backend_add+0x46>
    1034:	4a0d      	ldr	r2, [pc, #52]	; (106c <nrf_log_backend_add+0x6c>)
    1036:	687b      	ldr	r3, [r7, #4]
    1038:	f8c2 3410 	str.w	r3, [r2, #1040]	; 0x410
    103c:	687b      	ldr	r3, [r7, #4]
    103e:	68db      	ldr	r3, [r3, #12]
    1040:	2200      	movs	r2, #0
    1042:	601a      	str	r2, [r3, #0]
    1044:	e00d      	b.n	1062 <nrf_log_backend_add+0x62>
    1046:	4b09      	ldr	r3, [pc, #36]	; (106c <nrf_log_backend_add+0x6c>)
    1048:	f8d3 3410 	ldr.w	r3, [r3, #1040]	; 0x410
    104c:	68da      	ldr	r2, [r3, #12]
    104e:	687b      	ldr	r3, [r7, #4]
    1050:	68db      	ldr	r3, [r3, #12]
    1052:	6812      	ldr	r2, [r2, #0]
    1054:	601a      	str	r2, [r3, #0]
    1056:	4b05      	ldr	r3, [pc, #20]	; (106c <nrf_log_backend_add+0x6c>)
    1058:	f8d3 3410 	ldr.w	r3, [r3, #1040]	; 0x410
    105c:	68db      	ldr	r3, [r3, #12]
    105e:	687a      	ldr	r2, [r7, #4]
    1060:	601a      	str	r2, [r3, #0]
    1062:	68fb      	ldr	r3, [r7, #12]
    1064:	4618      	mov	r0, r3
    1066:	3710      	adds	r7, #16
    1068:	46bd      	mov	sp, r7
    106a:	bd80      	pop	{r7, pc}
    106c:	2000021c 	.word	0x2000021c

00001070 <nrf_log_panic>:
    1070:	b580      	push	{r7, lr}
    1072:	b082      	sub	sp, #8
    1074:	af00      	add	r7, sp, #0
    1076:	4b0d      	ldr	r3, [pc, #52]	; (10ac <nrf_log_panic+0x3c>)
    1078:	f8d3 3410 	ldr.w	r3, [r3, #1040]	; 0x410
    107c:	607b      	str	r3, [r7, #4]
    107e:	4b0b      	ldr	r3, [pc, #44]	; (10ac <nrf_log_panic+0x3c>)
    1080:	2201      	movs	r2, #1
    1082:	701a      	strb	r2, [r3, #0]
    1084:	e009      	b.n	109a <nrf_log_panic+0x2a>
    1086:	6878      	ldr	r0, [r7, #4]
    1088:	f7ff fad6 	bl	638 <nrf_log_backend_enable>
    108c:	6878      	ldr	r0, [r7, #4]
    108e:	f7ff fa9c 	bl	5ca <nrf_log_backend_panic_set>
    1092:	687b      	ldr	r3, [r7, #4]
    1094:	68db      	ldr	r3, [r3, #12]
    1096:	681b      	ldr	r3, [r3, #0]
    1098:	607b      	str	r3, [r7, #4]
    109a:	687b      	ldr	r3, [r7, #4]
    109c:	2b00      	cmp	r3, #0
    109e:	d1f2      	bne.n	1086 <nrf_log_panic+0x16>
    10a0:	bf00      	nop
    10a2:	bf00      	nop
    10a4:	3708      	adds	r7, #8
    10a6:	46bd      	mov	sp, r7
    10a8:	bd80      	pop	{r7, pc}
    10aa:	bf00      	nop
    10ac:	2000021c 	.word	0x2000021c

000010b0 <timestamp_print>:
    10b0:	b480      	push	{r7}
    10b2:	b083      	sub	sp, #12
    10b4:	af00      	add	r7, sp, #0
    10b6:	6078      	str	r0, [r7, #4]
    10b8:	6039      	str	r1, [r7, #0]
    10ba:	bf00      	nop
    10bc:	370c      	adds	r7, #12
    10be:	46bd      	mov	sp, r7
    10c0:	f85d 7b04 	ldr.w	r7, [sp], #4
    10c4:	4770      	bx	lr
	...

000010c8 <prefix_process>:
    10c8:	b590      	push	{r4, r7, lr}
    10ca:	b085      	sub	sp, #20
    10cc:	af02      	add	r7, sp, #8
    10ce:	6078      	str	r0, [r7, #4]
    10d0:	6039      	str	r1, [r7, #0]
    10d2:	687b      	ldr	r3, [r7, #4]
    10d4:	88db      	ldrh	r3, [r3, #6]
    10d6:	2b00      	cmp	r3, #0
    10d8:	d00a      	beq.n	10f0 <prefix_process+0x28>
    10da:	687b      	ldr	r3, [r7, #4]
    10dc:	88db      	ldrh	r3, [r3, #6]
    10de:	461a      	mov	r2, r3
    10e0:	4b1f      	ldr	r3, [pc, #124]	; (1160 <prefix_process+0x98>)
    10e2:	9300      	str	r3, [sp, #0]
    10e4:	4613      	mov	r3, r2
    10e6:	4a1f      	ldr	r2, [pc, #124]	; (1164 <prefix_process+0x9c>)
    10e8:	491f      	ldr	r1, [pc, #124]	; (1168 <prefix_process+0xa0>)
    10ea:	6838      	ldr	r0, [r7, #0]
    10ec:	f000 fb81 	bl	17f2 <nrf_fprintf>
    10f0:	687b      	ldr	r3, [r7, #4]
    10f2:	7a1b      	ldrb	r3, [r3, #8]
    10f4:	2b05      	cmp	r3, #5
    10f6:	d02e      	beq.n	1156 <prefix_process+0x8e>
    10f8:	687b      	ldr	r3, [r7, #4]
    10fa:	7a5b      	ldrb	r3, [r3, #9]
    10fc:	2b00      	cmp	r3, #0
    10fe:	d012      	beq.n	1126 <prefix_process+0x5e>
    1100:	687b      	ldr	r3, [r7, #4]
    1102:	889b      	ldrh	r3, [r3, #4]
    1104:	461a      	mov	r2, r3
    1106:	687b      	ldr	r3, [r7, #4]
    1108:	7a1b      	ldrb	r3, [r3, #8]
    110a:	4619      	mov	r1, r3
    110c:	4610      	mov	r0, r2
    110e:	f7ff fb35 	bl	77c <nrf_log_color_id_get>
    1112:	4603      	mov	r3, r0
    1114:	461a      	mov	r2, r3
    1116:	4b15      	ldr	r3, [pc, #84]	; (116c <prefix_process+0xa4>)
    1118:	f853 3022 	ldr.w	r3, [r3, r2, lsl #2]
    111c:	461a      	mov	r2, r3
    111e:	4914      	ldr	r1, [pc, #80]	; (1170 <prefix_process+0xa8>)
    1120:	6838      	ldr	r0, [r7, #0]
    1122:	f000 fb66 	bl	17f2 <nrf_fprintf>
    1126:	687b      	ldr	r3, [r7, #4]
    1128:	681b      	ldr	r3, [r3, #0]
    112a:	4619      	mov	r1, r3
    112c:	6838      	ldr	r0, [r7, #0]
    112e:	f7ff ffbf 	bl	10b0 <timestamp_print>
    1132:	687b      	ldr	r3, [r7, #4]
    1134:	7a1b      	ldrb	r3, [r3, #8]
    1136:	461a      	mov	r2, r3
    1138:	4b0e      	ldr	r3, [pc, #56]	; (1174 <prefix_process+0xac>)
    113a:	f853 4022 	ldr.w	r4, [r3, r2, lsl #2]
    113e:	687b      	ldr	r3, [r7, #4]
    1140:	889b      	ldrh	r3, [r3, #4]
    1142:	2100      	movs	r1, #0
    1144:	4618      	mov	r0, r3
    1146:	f7ff fafb 	bl	740 <nrf_log_module_name_get>
    114a:	4603      	mov	r3, r0
    114c:	4622      	mov	r2, r4
    114e:	490a      	ldr	r1, [pc, #40]	; (1178 <prefix_process+0xb0>)
    1150:	6838      	ldr	r0, [r7, #0]
    1152:	f000 fb4e 	bl	17f2 <nrf_fprintf>
    1156:	bf00      	nop
    1158:	370c      	adds	r7, #12
    115a:	46bd      	mov	sp, r7
    115c:	bd90      	pop	{r4, r7, pc}
    115e:	bf00      	nop
    1160:	000045dc 	.word	0x000045dc
    1164:	000045ec 	.word	0x000045ec
    1168:	00004624 	.word	0x00004624
    116c:	20000020 	.word	0x20000020
    1170:	0000463c 	.word	0x0000463c
    1174:	2000000c 	.word	0x2000000c
    1178:	00004640 	.word	0x00004640

0000117c <postfix_process>:
    117c:	b580      	push	{r7, lr}
    117e:	b084      	sub	sp, #16
    1180:	af00      	add	r7, sp, #0
    1182:	60f8      	str	r0, [r7, #12]
    1184:	60b9      	str	r1, [r7, #8]
    1186:	4613      	mov	r3, r2
    1188:	71fb      	strb	r3, [r7, #7]
    118a:	68fb      	ldr	r3, [r7, #12]
    118c:	7a1b      	ldrb	r3, [r3, #8]
    118e:	2b05      	cmp	r3, #5
    1190:	d00f      	beq.n	11b2 <postfix_process+0x36>
    1192:	68fb      	ldr	r3, [r7, #12]
    1194:	7a5b      	ldrb	r3, [r3, #9]
    1196:	2b00      	cmp	r3, #0
    1198:	d006      	beq.n	11a8 <postfix_process+0x2c>
    119a:	4b0d      	ldr	r3, [pc, #52]	; (11d0 <postfix_process+0x54>)
    119c:	681b      	ldr	r3, [r3, #0]
    119e:	461a      	mov	r2, r3
    11a0:	490c      	ldr	r1, [pc, #48]	; (11d4 <postfix_process+0x58>)
    11a2:	68b8      	ldr	r0, [r7, #8]
    11a4:	f000 fb25 	bl	17f2 <nrf_fprintf>
    11a8:	490b      	ldr	r1, [pc, #44]	; (11d8 <postfix_process+0x5c>)
    11aa:	68b8      	ldr	r0, [r7, #8]
    11ac:	f000 fb21 	bl	17f2 <nrf_fprintf>
    11b0:	e006      	b.n	11c0 <postfix_process+0x44>
    11b2:	79fb      	ldrb	r3, [r7, #7]
    11b4:	2b00      	cmp	r3, #0
    11b6:	d003      	beq.n	11c0 <postfix_process+0x44>
    11b8:	4907      	ldr	r1, [pc, #28]	; (11d8 <postfix_process+0x5c>)
    11ba:	68b8      	ldr	r0, [r7, #8]
    11bc:	f000 fb19 	bl	17f2 <nrf_fprintf>
    11c0:	68b8      	ldr	r0, [r7, #8]
    11c2:	f000 fafd 	bl	17c0 <nrf_fprintf_buffer_flush>
    11c6:	bf00      	nop
    11c8:	3710      	adds	r7, #16
    11ca:	46bd      	mov	sp, r7
    11cc:	bd80      	pop	{r7, pc}
    11ce:	bf00      	nop
    11d0:	20000020 	.word	0x20000020
    11d4:	0000463c 	.word	0x0000463c
    11d8:	0000464c 	.word	0x0000464c

000011dc <nrf_log_std_entry_process>:
    11dc:	b5b0      	push	{r4, r5, r7, lr}
    11de:	b08a      	sub	sp, #40	; 0x28
    11e0:	af04      	add	r7, sp, #16
    11e2:	60f8      	str	r0, [r7, #12]
    11e4:	60b9      	str	r1, [r7, #8]
    11e6:	607a      	str	r2, [r7, #4]
    11e8:	603b      	str	r3, [r7, #0]
    11ea:	6abb      	ldr	r3, [r7, #40]	; 0x28
    11ec:	7b1b      	ldrb	r3, [r3, #12]
    11ee:	75fb      	strb	r3, [r7, #23]
    11f0:	6abb      	ldr	r3, [r7, #40]	; 0x28
    11f2:	2200      	movs	r2, #0
    11f4:	731a      	strb	r2, [r3, #12]
    11f6:	6ab9      	ldr	r1, [r7, #40]	; 0x28
    11f8:	6838      	ldr	r0, [r7, #0]
    11fa:	f7ff ff65 	bl	10c8 <prefix_process>
    11fe:	687b      	ldr	r3, [r7, #4]
    1200:	2b06      	cmp	r3, #6
    1202:	d87f      	bhi.n	1304 <nrf_log_std_entry_process+0x128>
    1204:	a201      	add	r2, pc, #4	; (adr r2, 120c <nrf_log_std_entry_process+0x30>)
    1206:	f852 f023 	ldr.w	pc, [r2, r3, lsl #2]
    120a:	bf00      	nop
    120c:	00001229 	.word	0x00001229
    1210:	00001233 	.word	0x00001233
    1214:	00001243 	.word	0x00001243
    1218:	00001257 	.word	0x00001257
    121c:	00001275 	.word	0x00001275
    1220:	0000129d 	.word	0x0000129d
    1224:	000012cd 	.word	0x000012cd
    1228:	68f9      	ldr	r1, [r7, #12]
    122a:	6ab8      	ldr	r0, [r7, #40]	; 0x28
    122c:	f000 fae1 	bl	17f2 <nrf_fprintf>
    1230:	e069      	b.n	1306 <nrf_log_std_entry_process+0x12a>
    1232:	68bb      	ldr	r3, [r7, #8]
    1234:	681b      	ldr	r3, [r3, #0]
    1236:	461a      	mov	r2, r3
    1238:	68f9      	ldr	r1, [r7, #12]
    123a:	6ab8      	ldr	r0, [r7, #40]	; 0x28
    123c:	f000 fad9 	bl	17f2 <nrf_fprintf>
    1240:	e061      	b.n	1306 <nrf_log_std_entry_process+0x12a>
    1242:	68bb      	ldr	r3, [r7, #8]
    1244:	681a      	ldr	r2, [r3, #0]
    1246:	68bb      	ldr	r3, [r7, #8]
    1248:	3304      	adds	r3, #4
    124a:	681b      	ldr	r3, [r3, #0]
    124c:	68f9      	ldr	r1, [r7, #12]
    124e:	6ab8      	ldr	r0, [r7, #40]	; 0x28
    1250:	f000 facf 	bl	17f2 <nrf_fprintf>
    1254:	e057      	b.n	1306 <nrf_log_std_entry_process+0x12a>
    1256:	68bb      	ldr	r3, [r7, #8]
    1258:	681a      	ldr	r2, [r3, #0]
    125a:	68bb      	ldr	r3, [r7, #8]
    125c:	3304      	adds	r3, #4
    125e:	6819      	ldr	r1, [r3, #0]
    1260:	68bb      	ldr	r3, [r7, #8]
    1262:	3308      	adds	r3, #8
    1264:	681b      	ldr	r3, [r3, #0]
    1266:	9300      	str	r3, [sp, #0]
    1268:	460b      	mov	r3, r1
    126a:	68f9      	ldr	r1, [r7, #12]
    126c:	6ab8      	ldr	r0, [r7, #40]	; 0x28
    126e:	f000 fac0 	bl	17f2 <nrf_fprintf>
    1272:	e048      	b.n	1306 <nrf_log_std_entry_process+0x12a>
    1274:	68bb      	ldr	r3, [r7, #8]
    1276:	6819      	ldr	r1, [r3, #0]
    1278:	68bb      	ldr	r3, [r7, #8]
    127a:	3304      	adds	r3, #4
    127c:	6818      	ldr	r0, [r3, #0]
    127e:	68bb      	ldr	r3, [r7, #8]
    1280:	3308      	adds	r3, #8
    1282:	681b      	ldr	r3, [r3, #0]
    1284:	68ba      	ldr	r2, [r7, #8]
    1286:	320c      	adds	r2, #12
    1288:	6812      	ldr	r2, [r2, #0]
    128a:	9201      	str	r2, [sp, #4]
    128c:	9300      	str	r3, [sp, #0]
    128e:	4603      	mov	r3, r0
    1290:	460a      	mov	r2, r1
    1292:	68f9      	ldr	r1, [r7, #12]
    1294:	6ab8      	ldr	r0, [r7, #40]	; 0x28
    1296:	f000 faac 	bl	17f2 <nrf_fprintf>
    129a:	e034      	b.n	1306 <nrf_log_std_entry_process+0x12a>
    129c:	68bb      	ldr	r3, [r7, #8]
    129e:	6818      	ldr	r0, [r3, #0]
    12a0:	68bb      	ldr	r3, [r7, #8]
    12a2:	3304      	adds	r3, #4
    12a4:	681c      	ldr	r4, [r3, #0]
    12a6:	68bb      	ldr	r3, [r7, #8]
    12a8:	3308      	adds	r3, #8
    12aa:	681b      	ldr	r3, [r3, #0]
    12ac:	68ba      	ldr	r2, [r7, #8]
    12ae:	320c      	adds	r2, #12
    12b0:	6812      	ldr	r2, [r2, #0]
    12b2:	68b9      	ldr	r1, [r7, #8]
    12b4:	3110      	adds	r1, #16
    12b6:	6809      	ldr	r1, [r1, #0]
    12b8:	9102      	str	r1, [sp, #8]
    12ba:	9201      	str	r2, [sp, #4]
    12bc:	9300      	str	r3, [sp, #0]
    12be:	4623      	mov	r3, r4
    12c0:	4602      	mov	r2, r0
    12c2:	68f9      	ldr	r1, [r7, #12]
    12c4:	6ab8      	ldr	r0, [r7, #40]	; 0x28
    12c6:	f000 fa94 	bl	17f2 <nrf_fprintf>
    12ca:	e01c      	b.n	1306 <nrf_log_std_entry_process+0x12a>
    12cc:	68bb      	ldr	r3, [r7, #8]
    12ce:	681c      	ldr	r4, [r3, #0]
    12d0:	68bb      	ldr	r3, [r7, #8]
    12d2:	3304      	adds	r3, #4
    12d4:	681d      	ldr	r5, [r3, #0]
    12d6:	68bb      	ldr	r3, [r7, #8]
    12d8:	3308      	adds	r3, #8
    12da:	681b      	ldr	r3, [r3, #0]
    12dc:	68ba      	ldr	r2, [r7, #8]
    12de:	320c      	adds	r2, #12
    12e0:	6812      	ldr	r2, [r2, #0]
    12e2:	68b9      	ldr	r1, [r7, #8]
    12e4:	3110      	adds	r1, #16
    12e6:	6809      	ldr	r1, [r1, #0]
    12e8:	68b8      	ldr	r0, [r7, #8]
    12ea:	3014      	adds	r0, #20
    12ec:	6800      	ldr	r0, [r0, #0]
    12ee:	9003      	str	r0, [sp, #12]
    12f0:	9102      	str	r1, [sp, #8]
    12f2:	9201      	str	r2, [sp, #4]
    12f4:	9300      	str	r3, [sp, #0]
    12f6:	462b      	mov	r3, r5
    12f8:	4622      	mov	r2, r4
    12fa:	68f9      	ldr	r1, [r7, #12]
    12fc:	6ab8      	ldr	r0, [r7, #40]	; 0x28
    12fe:	f000 fa78 	bl	17f2 <nrf_fprintf>
    1302:	e000      	b.n	1306 <nrf_log_std_entry_process+0x12a>
    1304:	bf00      	nop
    1306:	2200      	movs	r2, #0
    1308:	6ab9      	ldr	r1, [r7, #40]	; 0x28
    130a:	6838      	ldr	r0, [r7, #0]
    130c:	f7ff ff36 	bl	117c <postfix_process>
    1310:	6abb      	ldr	r3, [r7, #40]	; 0x28
    1312:	7dfa      	ldrb	r2, [r7, #23]
    1314:	731a      	strb	r2, [r3, #12]
    1316:	bf00      	nop
    1318:	3718      	adds	r7, #24
    131a:	46bd      	mov	sp, r7
    131c:	bdb0      	pop	{r4, r5, r7, pc}
    131e:	bf00      	nop

00001320 <nrf_log_hexdump_entry_process>:
    1320:	b580      	push	{r7, lr}
    1322:	b086      	sub	sp, #24
    1324:	af00      	add	r7, sp, #0
    1326:	60f8      	str	r0, [r7, #12]
    1328:	60b9      	str	r1, [r7, #8]
    132a:	607a      	str	r2, [r7, #4]
    132c:	603b      	str	r3, [r7, #0]
    132e:	68bb      	ldr	r3, [r7, #8]
    1330:	2b08      	cmp	r3, #8
    1332:	d85c      	bhi.n	13ee <nrf_log_hexdump_entry_process+0xce>
    1334:	683b      	ldr	r3, [r7, #0]
    1336:	7b1b      	ldrb	r3, [r3, #12]
    1338:	74fb      	strb	r3, [r7, #19]
    133a:	683b      	ldr	r3, [r7, #0]
    133c:	2200      	movs	r2, #0
    133e:	731a      	strb	r2, [r3, #12]
    1340:	6839      	ldr	r1, [r7, #0]
    1342:	6878      	ldr	r0, [r7, #4]
    1344:	f7ff fec0 	bl	10c8 <prefix_process>
    1348:	2300      	movs	r3, #0
    134a:	617b      	str	r3, [r7, #20]
    134c:	e014      	b.n	1378 <nrf_log_hexdump_entry_process+0x58>
    134e:	697a      	ldr	r2, [r7, #20]
    1350:	68bb      	ldr	r3, [r7, #8]
    1352:	429a      	cmp	r2, r3
    1354:	d209      	bcs.n	136a <nrf_log_hexdump_entry_process+0x4a>
    1356:	68fa      	ldr	r2, [r7, #12]
    1358:	697b      	ldr	r3, [r7, #20]
    135a:	4413      	add	r3, r2
    135c:	781b      	ldrb	r3, [r3, #0]
    135e:	461a      	mov	r2, r3
    1360:	4925      	ldr	r1, [pc, #148]	; (13f8 <nrf_log_hexdump_entry_process+0xd8>)
    1362:	6838      	ldr	r0, [r7, #0]
    1364:	f000 fa45 	bl	17f2 <nrf_fprintf>
    1368:	e003      	b.n	1372 <nrf_log_hexdump_entry_process+0x52>
    136a:	4924      	ldr	r1, [pc, #144]	; (13fc <nrf_log_hexdump_entry_process+0xdc>)
    136c:	6838      	ldr	r0, [r7, #0]
    136e:	f000 fa40 	bl	17f2 <nrf_fprintf>
    1372:	697b      	ldr	r3, [r7, #20]
    1374:	3301      	adds	r3, #1
    1376:	617b      	str	r3, [r7, #20]
    1378:	697b      	ldr	r3, [r7, #20]
    137a:	2b07      	cmp	r3, #7
    137c:	d9e7      	bls.n	134e <nrf_log_hexdump_entry_process+0x2e>
    137e:	4920      	ldr	r1, [pc, #128]	; (1400 <nrf_log_hexdump_entry_process+0xe0>)
    1380:	6838      	ldr	r0, [r7, #0]
    1382:	f000 fa36 	bl	17f2 <nrf_fprintf>
    1386:	2300      	movs	r3, #0
    1388:	617b      	str	r3, [r7, #20]
    138a:	e024      	b.n	13d6 <nrf_log_hexdump_entry_process+0xb6>
    138c:	697a      	ldr	r2, [r7, #20]
    138e:	68bb      	ldr	r3, [r7, #8]
    1390:	429a      	cmp	r2, r3
    1392:	d219      	bcs.n	13c8 <nrf_log_hexdump_entry_process+0xa8>
    1394:	68fa      	ldr	r2, [r7, #12]
    1396:	697b      	ldr	r3, [r7, #20]
    1398:	4413      	add	r3, r2
    139a:	781b      	ldrb	r3, [r3, #0]
    139c:	74bb      	strb	r3, [r7, #18]
    139e:	7cbb      	ldrb	r3, [r7, #18]
    13a0:	2b7e      	cmp	r3, #126	; 0x7e
    13a2:	d80a      	bhi.n	13ba <nrf_log_hexdump_entry_process+0x9a>
    13a4:	7cbb      	ldrb	r3, [r7, #18]
    13a6:	3301      	adds	r3, #1
    13a8:	4a16      	ldr	r2, [pc, #88]	; (1404 <nrf_log_hexdump_entry_process+0xe4>)
    13aa:	4413      	add	r3, r2
    13ac:	781b      	ldrb	r3, [r3, #0]
    13ae:	f003 0397 	and.w	r3, r3, #151	; 0x97
    13b2:	2b00      	cmp	r3, #0
    13b4:	d001      	beq.n	13ba <nrf_log_hexdump_entry_process+0x9a>
    13b6:	7cbb      	ldrb	r3, [r7, #18]
    13b8:	e000      	b.n	13bc <nrf_log_hexdump_entry_process+0x9c>
    13ba:	232e      	movs	r3, #46	; 0x2e
    13bc:	461a      	mov	r2, r3
    13be:	4912      	ldr	r1, [pc, #72]	; (1408 <nrf_log_hexdump_entry_process+0xe8>)
    13c0:	6838      	ldr	r0, [r7, #0]
    13c2:	f000 fa16 	bl	17f2 <nrf_fprintf>
    13c6:	e003      	b.n	13d0 <nrf_log_hexdump_entry_process+0xb0>
    13c8:	4910      	ldr	r1, [pc, #64]	; (140c <nrf_log_hexdump_entry_process+0xec>)
    13ca:	6838      	ldr	r0, [r7, #0]
    13cc:	f000 fa11 	bl	17f2 <nrf_fprintf>
    13d0:	697b      	ldr	r3, [r7, #20]
    13d2:	3301      	adds	r3, #1
    13d4:	617b      	str	r3, [r7, #20]
    13d6:	697b      	ldr	r3, [r7, #20]
    13d8:	2b07      	cmp	r3, #7
    13da:	d9d7      	bls.n	138c <nrf_log_hexdump_entry_process+0x6c>
    13dc:	2201      	movs	r2, #1
    13de:	6839      	ldr	r1, [r7, #0]
    13e0:	6878      	ldr	r0, [r7, #4]
    13e2:	f7ff fecb 	bl	117c <postfix_process>
    13e6:	683b      	ldr	r3, [r7, #0]
    13e8:	7cfa      	ldrb	r2, [r7, #19]
    13ea:	731a      	strb	r2, [r3, #12]
    13ec:	e000      	b.n	13f0 <nrf_log_hexdump_entry_process+0xd0>
    13ee:	bf00      	nop
    13f0:	3718      	adds	r7, #24
    13f2:	46bd      	mov	sp, r7
    13f4:	bd80      	pop	{r7, pc}
    13f6:	bf00      	nop
    13f8:	00004650 	.word	0x00004650
    13fc:	00004658 	.word	0x00004658
    1400:	0000465c 	.word	0x0000465c
    1404:	00004743 	.word	0x00004743
    1408:	00004660 	.word	0x00004660
    140c:	00004664 	.word	0x00004664

00001410 <app_error_handler_bare>:
    1410:	b580      	push	{r7, lr}
    1412:	b086      	sub	sp, #24
    1414:	af00      	add	r7, sp, #0
    1416:	6078      	str	r0, [r7, #4]
    1418:	2300      	movs	r3, #0
    141a:	60fb      	str	r3, [r7, #12]
    141c:	2300      	movs	r3, #0
    141e:	613b      	str	r3, [r7, #16]
    1420:	687b      	ldr	r3, [r7, #4]
    1422:	617b      	str	r3, [r7, #20]
    1424:	f107 030c 	add.w	r3, r7, #12
    1428:	461a      	mov	r2, r3
    142a:	2100      	movs	r1, #0
    142c:	f244 0001 	movw	r0, #16385	; 0x4001
    1430:	f000 f81a 	bl	1468 <app_error_fault_handler>
    1434:	bf00      	nop
    1436:	3718      	adds	r7, #24
    1438:	46bd      	mov	sp, r7
    143a:	bd80      	pop	{r7, pc}

0000143c <__NVIC_SystemReset>:
    143c:	b480      	push	{r7}
    143e:	af00      	add	r7, sp, #0
    1440:	f3bf 8f4f 	dsb	sy
    1444:	bf00      	nop
    1446:	4b06      	ldr	r3, [pc, #24]	; (1460 <__NVIC_SystemReset+0x24>)
    1448:	68db      	ldr	r3, [r3, #12]
    144a:	f403 62e0 	and.w	r2, r3, #1792	; 0x700
    144e:	4904      	ldr	r1, [pc, #16]	; (1460 <__NVIC_SystemReset+0x24>)
    1450:	4b04      	ldr	r3, [pc, #16]	; (1464 <__NVIC_SystemReset+0x28>)
    1452:	4313      	orrs	r3, r2
    1454:	60cb      	str	r3, [r1, #12]
    1456:	f3bf 8f4f 	dsb	sy
    145a:	bf00      	nop
    145c:	bf00      	nop
    145e:	e7fd      	b.n	145c <__NVIC_SystemReset+0x20>
    1460:	e000ed00 	.word	0xe000ed00
    1464:	05fa0004 	.word	0x05fa0004

00001468 <app_error_fault_handler>:
    1468:	b580      	push	{r7, lr}
    146a:	b084      	sub	sp, #16
    146c:	af00      	add	r7, sp, #0
    146e:	60f8      	str	r0, [r7, #12]
    1470:	60b9      	str	r1, [r7, #8]
    1472:	607a      	str	r2, [r7, #4]
    1474:	b672      	cpsid	i
    1476:	bf00      	nop
    1478:	f7ff fdfa 	bl	1070 <nrf_log_panic>
    147c:	f7ff fbd0 	bl	c20 <nrf_log_frontend_dequeue>
    1480:	4603      	mov	r3, r0
    1482:	2b00      	cmp	r3, #0
    1484:	d1fa      	bne.n	147c <app_error_fault_handler+0x14>
    1486:	4a0f      	ldr	r2, [pc, #60]	; (14c4 <app_error_fault_handler+0x5c>)
    1488:	4b0f      	ldr	r3, [pc, #60]	; (14c8 <app_error_fault_handler+0x60>)
    148a:	1ad3      	subs	r3, r2, r3
    148c:	08db      	lsrs	r3, r3, #3
    148e:	041b      	lsls	r3, r3, #16
    1490:	f043 0301 	orr.w	r3, r3, #1
    1494:	490d      	ldr	r1, [pc, #52]	; (14cc <app_error_fault_handler+0x64>)
    1496:	4618      	mov	r0, r3
    1498:	f7ff fb8e 	bl	bb8 <nrf_log_frontend_std_0>
    149c:	4b0c      	ldr	r3, [pc, #48]	; (14d0 <app_error_fault_handler+0x68>)
    149e:	681b      	ldr	r3, [r3, #0]
    14a0:	f003 0301 	and.w	r3, r3, #1
    14a4:	2b00      	cmp	r3, #0
    14a6:	d000      	beq.n	14aa <app_error_fault_handler+0x42>
    14a8:	be00      	bkpt	0x0000
    14aa:	4a06      	ldr	r2, [pc, #24]	; (14c4 <app_error_fault_handler+0x5c>)
    14ac:	4b06      	ldr	r3, [pc, #24]	; (14c8 <app_error_fault_handler+0x60>)
    14ae:	1ad3      	subs	r3, r2, r3
    14b0:	08db      	lsrs	r3, r3, #3
    14b2:	041b      	lsls	r3, r3, #16
    14b4:	f043 0302 	orr.w	r3, r3, #2
    14b8:	4906      	ldr	r1, [pc, #24]	; (14d4 <app_error_fault_handler+0x6c>)
    14ba:	4618      	mov	r0, r3
    14bc:	f7ff fb7c 	bl	bb8 <nrf_log_frontend_std_0>
    14c0:	f7ff ffbc 	bl	143c <__NVIC_SystemReset>
    14c4:	00004878 	.word	0x00004878
    14c8:	00004848 	.word	0x00004848
    14cc:	00004668 	.word	0x00004668
    14d0:	e000edf0 	.word	0xe000edf0
    14d4:	00004674 	.word	0x00004674

000014d8 <app_util_disable_irq>:
    14d8:	b480      	push	{r7}
    14da:	af00      	add	r7, sp, #0
    14dc:	b672      	cpsid	i
    14de:	bf00      	nop
    14e0:	4b04      	ldr	r3, [pc, #16]	; (14f4 <app_util_disable_irq+0x1c>)
    14e2:	681b      	ldr	r3, [r3, #0]
    14e4:	3301      	adds	r3, #1
    14e6:	4a03      	ldr	r2, [pc, #12]	; (14f4 <app_util_disable_irq+0x1c>)
    14e8:	6013      	str	r3, [r2, #0]
    14ea:	bf00      	nop
    14ec:	46bd      	mov	sp, r7
    14ee:	f85d 7b04 	ldr.w	r7, [sp], #4
    14f2:	4770      	bx	lr
    14f4:	2000063c 	.word	0x2000063c

000014f8 <app_util_enable_irq>:
    14f8:	b480      	push	{r7}
    14fa:	af00      	add	r7, sp, #0
    14fc:	4b07      	ldr	r3, [pc, #28]	; (151c <app_util_enable_irq+0x24>)
    14fe:	681b      	ldr	r3, [r3, #0]
    1500:	3b01      	subs	r3, #1
    1502:	4a06      	ldr	r2, [pc, #24]	; (151c <app_util_enable_irq+0x24>)
    1504:	6013      	str	r3, [r2, #0]
    1506:	4b05      	ldr	r3, [pc, #20]	; (151c <app_util_enable_irq+0x24>)
    1508:	681b      	ldr	r3, [r3, #0]
    150a:	2b00      	cmp	r3, #0
    150c:	d101      	bne.n	1512 <app_util_enable_irq+0x1a>
    150e:	b662      	cpsie	i
    1510:	bf00      	nop
    1512:	bf00      	nop
    1514:	46bd      	mov	sp, r7
    1516:	f85d 7b04 	ldr.w	r7, [sp], #4
    151a:	4770      	bx	lr
    151c:	2000063c 	.word	0x2000063c

00001520 <app_util_critical_region_enter>:
    1520:	b580      	push	{r7, lr}
    1522:	b082      	sub	sp, #8
    1524:	af00      	add	r7, sp, #0
    1526:	6078      	str	r0, [r7, #4]
    1528:	f7ff ffd6 	bl	14d8 <app_util_disable_irq>
    152c:	bf00      	nop
    152e:	3708      	adds	r7, #8
    1530:	46bd      	mov	sp, r7
    1532:	bd80      	pop	{r7, pc}

00001534 <app_util_critical_region_exit>:
    1534:	b580      	push	{r7, lr}
    1536:	b082      	sub	sp, #8
    1538:	af00      	add	r7, sp, #0
    153a:	4603      	mov	r3, r0
    153c:	71fb      	strb	r3, [r7, #7]
    153e:	f7ff ffdb 	bl	14f8 <app_util_enable_irq>
    1542:	bf00      	nop
    1544:	3708      	adds	r7, #8
    1546:	46bd      	mov	sp, r7
    1548:	bd80      	pop	{r7, pc}

0000154a <nrf_atomic_u32_fetch_store>:
    154a:	b490      	push	{r4, r7}
    154c:	b086      	sub	sp, #24
    154e:	af00      	add	r7, sp, #0
    1550:	6078      	str	r0, [r7, #4]
    1552:	6039      	str	r1, [r7, #0]
    1554:	687b      	ldr	r3, [r7, #4]
    1556:	683a      	ldr	r2, [r7, #0]
    1558:	e853 4f00 	ldrex	r4, [r3]
    155c:	4610      	mov	r0, r2
    155e:	e843 0100 	strex	r1, r0, [r3]
    1562:	f091 0f00 	teq	r1, #0
    1566:	d1f7      	bne.n	1558 <nrf_atomic_u32_fetch_store+0xe>
    1568:	617c      	str	r4, [r7, #20]
    156a:	6138      	str	r0, [r7, #16]
    156c:	60f9      	str	r1, [r7, #12]
    156e:	697b      	ldr	r3, [r7, #20]
    1570:	4618      	mov	r0, r3
    1572:	3718      	adds	r7, #24
    1574:	46bd      	mov	sp, r7
    1576:	bc90      	pop	{r4, r7}
    1578:	4770      	bx	lr

0000157a <nrf_atomic_u32_or>:
    157a:	b490      	push	{r4, r7}
    157c:	b086      	sub	sp, #24
    157e:	af00      	add	r7, sp, #0
    1580:	6078      	str	r0, [r7, #4]
    1582:	6039      	str	r1, [r7, #0]
    1584:	687b      	ldr	r3, [r7, #4]
    1586:	683a      	ldr	r2, [r7, #0]
    1588:	e853 4f00 	ldrex	r4, [r3]
    158c:	ea44 0002 	orr.w	r0, r4, r2
    1590:	e843 0100 	strex	r1, r0, [r3]
    1594:	f091 0f00 	teq	r1, #0
    1598:	d1f6      	bne.n	1588 <nrf_atomic_u32_or+0xe>
    159a:	617c      	str	r4, [r7, #20]
    159c:	6138      	str	r0, [r7, #16]
    159e:	60f9      	str	r1, [r7, #12]
    15a0:	693b      	ldr	r3, [r7, #16]
    15a2:	4618      	mov	r0, r3
    15a4:	3718      	adds	r7, #24
    15a6:	46bd      	mov	sp, r7
    15a8:	bc90      	pop	{r4, r7}
    15aa:	4770      	bx	lr

000015ac <nrf_atomic_u32_fetch_and>:
    15ac:	b490      	push	{r4, r7}
    15ae:	b086      	sub	sp, #24
    15b0:	af00      	add	r7, sp, #0
    15b2:	6078      	str	r0, [r7, #4]
    15b4:	6039      	str	r1, [r7, #0]
    15b6:	687b      	ldr	r3, [r7, #4]
    15b8:	683a      	ldr	r2, [r7, #0]
    15ba:	e853 4f00 	ldrex	r4, [r3]
    15be:	ea04 0002 	and.w	r0, r4, r2
    15c2:	e843 0100 	strex	r1, r0, [r3]
    15c6:	f091 0f00 	teq	r1, #0
    15ca:	d1f6      	bne.n	15ba <nrf_atomic_u32_fetch_and+0xe>
    15cc:	617c      	str	r4, [r7, #20]
    15ce:	6138      	str	r0, [r7, #16]
    15d0:	60f9      	str	r1, [r7, #12]
    15d2:	697b      	ldr	r3, [r7, #20]
    15d4:	4618      	mov	r0, r3
    15d6:	3718      	adds	r7, #24
    15d8:	46bd      	mov	sp, r7
    15da:	bc90      	pop	{r4, r7}
    15dc:	4770      	bx	lr

000015de <nrf_atomic_u32_add>:
    15de:	b490      	push	{r4, r7}
    15e0:	b086      	sub	sp, #24
    15e2:	af00      	add	r7, sp, #0
    15e4:	6078      	str	r0, [r7, #4]
    15e6:	6039      	str	r1, [r7, #0]
    15e8:	687b      	ldr	r3, [r7, #4]
    15ea:	683a      	ldr	r2, [r7, #0]
    15ec:	e853 4f00 	ldrex	r4, [r3]
    15f0:	eb04 0002 	add.w	r0, r4, r2
    15f4:	e843 0100 	strex	r1, r0, [r3]
    15f8:	f091 0f00 	teq	r1, #0
    15fc:	d1f6      	bne.n	15ec <nrf_atomic_u32_add+0xe>
    15fe:	617c      	str	r4, [r7, #20]
    1600:	6138      	str	r0, [r7, #16]
    1602:	60f9      	str	r1, [r7, #12]
    1604:	693b      	ldr	r3, [r7, #16]
    1606:	4618      	mov	r0, r3
    1608:	3718      	adds	r7, #24
    160a:	46bd      	mov	sp, r7
    160c:	bc90      	pop	{r4, r7}
    160e:	4770      	bx	lr

00001610 <nrf_atomic_u32_sub>:
    1610:	b490      	push	{r4, r7}
    1612:	b086      	sub	sp, #24
    1614:	af00      	add	r7, sp, #0
    1616:	6078      	str	r0, [r7, #4]
    1618:	6039      	str	r1, [r7, #0]
    161a:	687b      	ldr	r3, [r7, #4]
    161c:	683a      	ldr	r2, [r7, #0]
    161e:	e853 4f00 	ldrex	r4, [r3]
    1622:	eba4 0002 	sub.w	r0, r4, r2
    1626:	e843 0100 	strex	r1, r0, [r3]
    162a:	f091 0f00 	teq	r1, #0
    162e:	d1f6      	bne.n	161e <nrf_atomic_u32_sub+0xe>
    1630:	617c      	str	r4, [r7, #20]
    1632:	6138      	str	r0, [r7, #16]
    1634:	60f9      	str	r1, [r7, #12]
    1636:	693b      	ldr	r3, [r7, #16]
    1638:	4618      	mov	r0, r3
    163a:	3718      	adds	r7, #24
    163c:	46bd      	mov	sp, r7
    163e:	bc90      	pop	{r4, r7}
    1640:	4770      	bx	lr

00001642 <nrf_atomic_flag_set>:
    1642:	b580      	push	{r7, lr}
    1644:	b082      	sub	sp, #8
    1646:	af00      	add	r7, sp, #0
    1648:	6078      	str	r0, [r7, #4]
    164a:	2101      	movs	r1, #1
    164c:	6878      	ldr	r0, [r7, #4]
    164e:	f7ff ff94 	bl	157a <nrf_atomic_u32_or>
    1652:	4603      	mov	r3, r0
    1654:	4618      	mov	r0, r3
    1656:	3708      	adds	r7, #8
    1658:	46bd      	mov	sp, r7
    165a:	bd80      	pop	{r7, pc}

0000165c <nrf_atomic_flag_clear_fetch>:
    165c:	b580      	push	{r7, lr}
    165e:	b082      	sub	sp, #8
    1660:	af00      	add	r7, sp, #0
    1662:	6078      	str	r0, [r7, #4]
    1664:	2100      	movs	r1, #0
    1666:	6878      	ldr	r0, [r7, #4]
    1668:	f7ff ffa0 	bl	15ac <nrf_atomic_u32_fetch_and>
    166c:	4603      	mov	r3, r0
    166e:	4618      	mov	r0, r3
    1670:	3708      	adds	r7, #8
    1672:	46bd      	mov	sp, r7
    1674:	bd80      	pop	{r7, pc}

00001676 <nrf_balloc_idx2block>:
    1676:	b480      	push	{r7}
    1678:	b083      	sub	sp, #12
    167a:	af00      	add	r7, sp, #0
    167c:	6078      	str	r0, [r7, #4]
    167e:	460b      	mov	r3, r1
    1680:	70fb      	strb	r3, [r7, #3]
    1682:	687b      	ldr	r3, [r7, #4]
    1684:	68da      	ldr	r2, [r3, #12]
    1686:	78fb      	ldrb	r3, [r7, #3]
    1688:	6879      	ldr	r1, [r7, #4]
    168a:	8a09      	ldrh	r1, [r1, #16]
    168c:	fb01 f303 	mul.w	r3, r1, r3
    1690:	4413      	add	r3, r2
    1692:	4618      	mov	r0, r3
    1694:	370c      	adds	r7, #12
    1696:	46bd      	mov	sp, r7
    1698:	f85d 7b04 	ldr.w	r7, [sp], #4
    169c:	4770      	bx	lr

0000169e <nrf_balloc_block2idx>:
    169e:	b480      	push	{r7}
    16a0:	b083      	sub	sp, #12
    16a2:	af00      	add	r7, sp, #0
    16a4:	6078      	str	r0, [r7, #4]
    16a6:	6039      	str	r1, [r7, #0]
    16a8:	683b      	ldr	r3, [r7, #0]
    16aa:	687a      	ldr	r2, [r7, #4]
    16ac:	68d2      	ldr	r2, [r2, #12]
    16ae:	1a9b      	subs	r3, r3, r2
    16b0:	687a      	ldr	r2, [r7, #4]
    16b2:	8a12      	ldrh	r2, [r2, #16]
    16b4:	fbb3 f3f2 	udiv	r3, r3, r2
    16b8:	b2db      	uxtb	r3, r3
    16ba:	4618      	mov	r0, r3
    16bc:	370c      	adds	r7, #12
    16be:	46bd      	mov	sp, r7
    16c0:	f85d 7b04 	ldr.w	r7, [sp], #4
    16c4:	4770      	bx	lr

000016c6 <nrf_balloc_init>:
    16c6:	b480      	push	{r7}
    16c8:	b085      	sub	sp, #20
    16ca:	af00      	add	r7, sp, #0
    16cc:	6078      	str	r0, [r7, #4]
    16ce:	687b      	ldr	r3, [r7, #4]
    16d0:	2b00      	cmp	r3, #0
    16d2:	d101      	bne.n	16d8 <nrf_balloc_init+0x12>
    16d4:	230e      	movs	r3, #14
    16d6:	e01c      	b.n	1712 <nrf_balloc_init+0x4c>
    16d8:	687b      	ldr	r3, [r7, #4]
    16da:	689a      	ldr	r2, [r3, #8]
    16dc:	687b      	ldr	r3, [r7, #4]
    16de:	685b      	ldr	r3, [r3, #4]
    16e0:	1ad3      	subs	r3, r2, r3
    16e2:	73fb      	strb	r3, [r7, #15]
    16e4:	687b      	ldr	r3, [r7, #4]
    16e6:	681b      	ldr	r3, [r3, #0]
    16e8:	687a      	ldr	r2, [r7, #4]
    16ea:	6852      	ldr	r2, [r2, #4]
    16ec:	601a      	str	r2, [r3, #0]
    16ee:	e006      	b.n	16fe <nrf_balloc_init+0x38>
    16f0:	687b      	ldr	r3, [r7, #4]
    16f2:	681a      	ldr	r2, [r3, #0]
    16f4:	6813      	ldr	r3, [r2, #0]
    16f6:	1c59      	adds	r1, r3, #1
    16f8:	6011      	str	r1, [r2, #0]
    16fa:	7bfa      	ldrb	r2, [r7, #15]
    16fc:	701a      	strb	r2, [r3, #0]
    16fe:	7bfb      	ldrb	r3, [r7, #15]
    1700:	1e5a      	subs	r2, r3, #1
    1702:	73fa      	strb	r2, [r7, #15]
    1704:	2b00      	cmp	r3, #0
    1706:	d1f3      	bne.n	16f0 <nrf_balloc_init+0x2a>
    1708:	687b      	ldr	r3, [r7, #4]
    170a:	681b      	ldr	r3, [r3, #0]
    170c:	2200      	movs	r2, #0
    170e:	711a      	strb	r2, [r3, #4]
    1710:	2300      	movs	r3, #0
    1712:	4618      	mov	r0, r3
    1714:	3714      	adds	r7, #20
    1716:	46bd      	mov	sp, r7
    1718:	f85d 7b04 	ldr.w	r7, [sp], #4
    171c:	4770      	bx	lr

0000171e <nrf_balloc_alloc>:
    171e:	b580      	push	{r7, lr}
    1720:	b084      	sub	sp, #16
    1722:	af00      	add	r7, sp, #0
    1724:	6078      	str	r0, [r7, #4]
    1726:	2300      	movs	r3, #0
    1728:	60fb      	str	r3, [r7, #12]
    172a:	2000      	movs	r0, #0
    172c:	f7ff fef8 	bl	1520 <app_util_critical_region_enter>
    1730:	687b      	ldr	r3, [r7, #4]
    1732:	681b      	ldr	r3, [r3, #0]
    1734:	681a      	ldr	r2, [r3, #0]
    1736:	687b      	ldr	r3, [r7, #4]
    1738:	685b      	ldr	r3, [r3, #4]
    173a:	429a      	cmp	r2, r3
    173c:	d91c      	bls.n	1778 <nrf_balloc_alloc+0x5a>
    173e:	687b      	ldr	r3, [r7, #4]
    1740:	681b      	ldr	r3, [r3, #0]
    1742:	681a      	ldr	r2, [r3, #0]
    1744:	3a01      	subs	r2, #1
    1746:	601a      	str	r2, [r3, #0]
    1748:	681b      	ldr	r3, [r3, #0]
    174a:	781b      	ldrb	r3, [r3, #0]
    174c:	4619      	mov	r1, r3
    174e:	6878      	ldr	r0, [r7, #4]
    1750:	f7ff ff91 	bl	1676 <nrf_balloc_idx2block>
    1754:	60f8      	str	r0, [r7, #12]
    1756:	687b      	ldr	r3, [r7, #4]
    1758:	689a      	ldr	r2, [r3, #8]
    175a:	687b      	ldr	r3, [r7, #4]
    175c:	681b      	ldr	r3, [r3, #0]
    175e:	681b      	ldr	r3, [r3, #0]
    1760:	1ad3      	subs	r3, r2, r3
    1762:	72fb      	strb	r3, [r7, #11]
    1764:	687b      	ldr	r3, [r7, #4]
    1766:	681b      	ldr	r3, [r3, #0]
    1768:	791b      	ldrb	r3, [r3, #4]
    176a:	7afa      	ldrb	r2, [r7, #11]
    176c:	429a      	cmp	r2, r3
    176e:	d903      	bls.n	1778 <nrf_balloc_alloc+0x5a>
    1770:	687b      	ldr	r3, [r7, #4]
    1772:	681b      	ldr	r3, [r3, #0]
    1774:	7afa      	ldrb	r2, [r7, #11]
    1776:	711a      	strb	r2, [r3, #4]
    1778:	2000      	movs	r0, #0
    177a:	f7ff fedb 	bl	1534 <app_util_critical_region_exit>
    177e:	68fb      	ldr	r3, [r7, #12]
    1780:	4618      	mov	r0, r3
    1782:	3710      	adds	r7, #16
    1784:	46bd      	mov	sp, r7
    1786:	bd80      	pop	{r7, pc}

00001788 <nrf_balloc_free>:
    1788:	b590      	push	{r4, r7, lr}
    178a:	b085      	sub	sp, #20
    178c:	af00      	add	r7, sp, #0
    178e:	6078      	str	r0, [r7, #4]
    1790:	6039      	str	r1, [r7, #0]
    1792:	683b      	ldr	r3, [r7, #0]
    1794:	60fb      	str	r3, [r7, #12]
    1796:	2000      	movs	r0, #0
    1798:	f7ff fec2 	bl	1520 <app_util_critical_region_enter>
    179c:	687b      	ldr	r3, [r7, #4]
    179e:	681b      	ldr	r3, [r3, #0]
    17a0:	681c      	ldr	r4, [r3, #0]
    17a2:	1c62      	adds	r2, r4, #1
    17a4:	601a      	str	r2, [r3, #0]
    17a6:	68f9      	ldr	r1, [r7, #12]
    17a8:	6878      	ldr	r0, [r7, #4]
    17aa:	f7ff ff78 	bl	169e <nrf_balloc_block2idx>
    17ae:	4603      	mov	r3, r0
    17b0:	7023      	strb	r3, [r4, #0]
    17b2:	2000      	movs	r0, #0
    17b4:	f7ff febe 	bl	1534 <app_util_critical_region_exit>
    17b8:	bf00      	nop
    17ba:	3714      	adds	r7, #20
    17bc:	46bd      	mov	sp, r7
    17be:	bd90      	pop	{r4, r7, pc}

000017c0 <nrf_fprintf_buffer_flush>:
    17c0:	b580      	push	{r7, lr}
    17c2:	b082      	sub	sp, #8
    17c4:	af00      	add	r7, sp, #0
    17c6:	6078      	str	r0, [r7, #4]
    17c8:	687b      	ldr	r3, [r7, #4]
    17ca:	689b      	ldr	r3, [r3, #8]
    17cc:	2b00      	cmp	r3, #0
    17ce:	d00c      	beq.n	17ea <nrf_fprintf_buffer_flush+0x2a>
    17d0:	687b      	ldr	r3, [r7, #4]
    17d2:	695b      	ldr	r3, [r3, #20]
    17d4:	687a      	ldr	r2, [r7, #4]
    17d6:	6910      	ldr	r0, [r2, #16]
    17d8:	687a      	ldr	r2, [r7, #4]
    17da:	6811      	ldr	r1, [r2, #0]
    17dc:	687a      	ldr	r2, [r7, #4]
    17de:	6892      	ldr	r2, [r2, #8]
    17e0:	4798      	blx	r3
    17e2:	687b      	ldr	r3, [r7, #4]
    17e4:	2200      	movs	r2, #0
    17e6:	609a      	str	r2, [r3, #8]
    17e8:	e000      	b.n	17ec <nrf_fprintf_buffer_flush+0x2c>
    17ea:	bf00      	nop
    17ec:	3708      	adds	r7, #8
    17ee:	46bd      	mov	sp, r7
    17f0:	bd80      	pop	{r7, pc}

000017f2 <nrf_fprintf>:
    17f2:	b40e      	push	{r1, r2, r3}
    17f4:	b580      	push	{r7, lr}
    17f6:	b085      	sub	sp, #20
    17f8:	af00      	add	r7, sp, #0
    17fa:	6078      	str	r0, [r7, #4]
    17fc:	69fb      	ldr	r3, [r7, #28]
    17fe:	2b00      	cmp	r3, #0
    1800:	d00c      	beq.n	181c <nrf_fprintf+0x2a>
    1802:	2300      	movs	r3, #0
    1804:	60fb      	str	r3, [r7, #12]
    1806:	f107 0320 	add.w	r3, r7, #32
    180a:	60fb      	str	r3, [r7, #12]
    180c:	f107 030c 	add.w	r3, r7, #12
    1810:	461a      	mov	r2, r3
    1812:	69f9      	ldr	r1, [r7, #28]
    1814:	6878      	ldr	r0, [r7, #4]
    1816:	f000 f9af 	bl	1b78 <nrf_fprintf_fmt>
    181a:	e000      	b.n	181e <nrf_fprintf+0x2c>
    181c:	bf00      	nop
    181e:	3714      	adds	r7, #20
    1820:	46bd      	mov	sp, r7
    1822:	e8bd 4080 	ldmia.w	sp!, {r7, lr}
    1826:	b003      	add	sp, #12
    1828:	4770      	bx	lr

0000182a <buffer_add>:
    182a:	b580      	push	{r7, lr}
    182c:	b082      	sub	sp, #8
    182e:	af00      	add	r7, sp, #0
    1830:	6078      	str	r0, [r7, #4]
    1832:	460b      	mov	r3, r1
    1834:	70fb      	strb	r3, [r7, #3]
    1836:	78fb      	ldrb	r3, [r7, #3]
    1838:	2b0a      	cmp	r3, #10
    183a:	d103      	bne.n	1844 <buffer_add+0x1a>
    183c:	210d      	movs	r1, #13
    183e:	6878      	ldr	r0, [r7, #4]
    1840:	f7ff fff3 	bl	182a <buffer_add>
    1844:	687b      	ldr	r3, [r7, #4]
    1846:	681a      	ldr	r2, [r3, #0]
    1848:	687b      	ldr	r3, [r7, #4]
    184a:	689b      	ldr	r3, [r3, #8]
    184c:	1c58      	adds	r0, r3, #1
    184e:	6879      	ldr	r1, [r7, #4]
    1850:	6088      	str	r0, [r1, #8]
    1852:	4413      	add	r3, r2
    1854:	78fa      	ldrb	r2, [r7, #3]
    1856:	701a      	strb	r2, [r3, #0]
    1858:	687b      	ldr	r3, [r7, #4]
    185a:	689a      	ldr	r2, [r3, #8]
    185c:	687b      	ldr	r3, [r7, #4]
    185e:	685b      	ldr	r3, [r3, #4]
    1860:	429a      	cmp	r2, r3
    1862:	d302      	bcc.n	186a <buffer_add+0x40>
    1864:	6878      	ldr	r0, [r7, #4]
    1866:	f7ff ffab 	bl	17c0 <nrf_fprintf_buffer_flush>
    186a:	bf00      	nop
    186c:	3708      	adds	r7, #8
    186e:	46bd      	mov	sp, r7
    1870:	bd80      	pop	{r7, pc}

00001872 <string_print>:
    1872:	b580      	push	{r7, lr}
    1874:	b086      	sub	sp, #24
    1876:	af00      	add	r7, sp, #0
    1878:	60f8      	str	r0, [r7, #12]
    187a:	60b9      	str	r1, [r7, #8]
    187c:	607a      	str	r2, [r7, #4]
    187e:	603b      	str	r3, [r7, #0]
    1880:	2300      	movs	r3, #0
    1882:	617b      	str	r3, [r7, #20]
    1884:	683b      	ldr	r3, [r7, #0]
    1886:	f003 0301 	and.w	r3, r3, #1
    188a:	2b00      	cmp	r3, #0
    188c:	d021      	beq.n	18d2 <string_print+0x60>
    188e:	e00a      	b.n	18a6 <string_print+0x34>
    1890:	68bb      	ldr	r3, [r7, #8]
    1892:	3301      	adds	r3, #1
    1894:	60bb      	str	r3, [r7, #8]
    1896:	697b      	ldr	r3, [r7, #20]
    1898:	3301      	adds	r3, #1
    189a:	617b      	str	r3, [r7, #20]
    189c:	7cfb      	ldrb	r3, [r7, #19]
    189e:	4619      	mov	r1, r3
    18a0:	68f8      	ldr	r0, [r7, #12]
    18a2:	f7ff ffc2 	bl	182a <buffer_add>
    18a6:	68bb      	ldr	r3, [r7, #8]
    18a8:	781b      	ldrb	r3, [r3, #0]
    18aa:	74fb      	strb	r3, [r7, #19]
    18ac:	7cfb      	ldrb	r3, [r7, #19]
    18ae:	2b00      	cmp	r3, #0
    18b0:	d1ee      	bne.n	1890 <string_print+0x1e>
    18b2:	e006      	b.n	18c2 <string_print+0x50>
    18b4:	687b      	ldr	r3, [r7, #4]
    18b6:	3b01      	subs	r3, #1
    18b8:	607b      	str	r3, [r7, #4]
    18ba:	2120      	movs	r1, #32
    18bc:	68f8      	ldr	r0, [r7, #12]
    18be:	f7ff ffb4 	bl	182a <buffer_add>
    18c2:	687a      	ldr	r2, [r7, #4]
    18c4:	697b      	ldr	r3, [r7, #20]
    18c6:	429a      	cmp	r2, r3
    18c8:	d92b      	bls.n	1922 <string_print+0xb0>
    18ca:	687b      	ldr	r3, [r7, #4]
    18cc:	2b00      	cmp	r3, #0
    18ce:	d1f1      	bne.n	18b4 <string_print+0x42>
    18d0:	e027      	b.n	1922 <string_print+0xb0>
    18d2:	68bb      	ldr	r3, [r7, #8]
    18d4:	2b00      	cmp	r3, #0
    18d6:	d00b      	beq.n	18f0 <string_print+0x7e>
    18d8:	68b8      	ldr	r0, [r7, #8]
    18da:	f002 fd79 	bl	43d0 <strlen>
    18de:	6178      	str	r0, [r7, #20]
    18e0:	e006      	b.n	18f0 <string_print+0x7e>
    18e2:	687b      	ldr	r3, [r7, #4]
    18e4:	3b01      	subs	r3, #1
    18e6:	607b      	str	r3, [r7, #4]
    18e8:	2120      	movs	r1, #32
    18ea:	68f8      	ldr	r0, [r7, #12]
    18ec:	f7ff ff9d 	bl	182a <buffer_add>
    18f0:	687a      	ldr	r2, [r7, #4]
    18f2:	697b      	ldr	r3, [r7, #20]
    18f4:	429a      	cmp	r2, r3
    18f6:	d90e      	bls.n	1916 <string_print+0xa4>
    18f8:	687b      	ldr	r3, [r7, #4]
    18fa:	2b00      	cmp	r3, #0
    18fc:	d1f1      	bne.n	18e2 <string_print+0x70>
    18fe:	e00a      	b.n	1916 <string_print+0xa4>
    1900:	68bb      	ldr	r3, [r7, #8]
    1902:	3301      	adds	r3, #1
    1904:	60bb      	str	r3, [r7, #8]
    1906:	697b      	ldr	r3, [r7, #20]
    1908:	3301      	adds	r3, #1
    190a:	617b      	str	r3, [r7, #20]
    190c:	7cfb      	ldrb	r3, [r7, #19]
    190e:	4619      	mov	r1, r3
    1910:	68f8      	ldr	r0, [r7, #12]
    1912:	f7ff ff8a 	bl	182a <buffer_add>
    1916:	68bb      	ldr	r3, [r7, #8]
    1918:	781b      	ldrb	r3, [r3, #0]
    191a:	74fb      	strb	r3, [r7, #19]
    191c:	7cfb      	ldrb	r3, [r7, #19]
    191e:	2b00      	cmp	r3, #0
    1920:	d1ee      	bne.n	1900 <string_print+0x8e>
    1922:	bf00      	nop
    1924:	3718      	adds	r7, #24
    1926:	46bd      	mov	sp, r7
    1928:	bd80      	pop	{r7, pc}
	...

0000192c <unsigned_print>:
    192c:	b580      	push	{r7, lr}
    192e:	b088      	sub	sp, #32
    1930:	af00      	add	r7, sp, #0
    1932:	60f8      	str	r0, [r7, #12]
    1934:	60b9      	str	r1, [r7, #8]
    1936:	607a      	str	r2, [r7, #4]
    1938:	603b      	str	r3, [r7, #0]
    193a:	68bb      	ldr	r3, [r7, #8]
    193c:	61fb      	str	r3, [r7, #28]
    193e:	2301      	movs	r3, #1
    1940:	61bb      	str	r3, [r7, #24]
    1942:	e007      	b.n	1954 <unsigned_print+0x28>
    1944:	69fa      	ldr	r2, [r7, #28]
    1946:	687b      	ldr	r3, [r7, #4]
    1948:	fbb2 f3f3 	udiv	r3, r2, r3
    194c:	61fb      	str	r3, [r7, #28]
    194e:	69bb      	ldr	r3, [r7, #24]
    1950:	3301      	adds	r3, #1
    1952:	61bb      	str	r3, [r7, #24]
    1954:	69fa      	ldr	r2, [r7, #28]
    1956:	687b      	ldr	r3, [r7, #4]
    1958:	429a      	cmp	r2, r3
    195a:	d2f3      	bcs.n	1944 <unsigned_print+0x18>
    195c:	683a      	ldr	r2, [r7, #0]
    195e:	69bb      	ldr	r3, [r7, #24]
    1960:	429a      	cmp	r2, r3
    1962:	d901      	bls.n	1968 <unsigned_print+0x3c>
    1964:	683b      	ldr	r3, [r7, #0]
    1966:	61bb      	str	r3, [r7, #24]
    1968:	6afb      	ldr	r3, [r7, #44]	; 0x2c
    196a:	f003 0301 	and.w	r3, r3, #1
    196e:	2b00      	cmp	r3, #0
    1970:	d11f      	bne.n	19b2 <unsigned_print+0x86>
    1972:	6abb      	ldr	r3, [r7, #40]	; 0x28
    1974:	2b00      	cmp	r3, #0
    1976:	d01c      	beq.n	19b2 <unsigned_print+0x86>
    1978:	6afb      	ldr	r3, [r7, #44]	; 0x2c
    197a:	f003 0302 	and.w	r3, r3, #2
    197e:	2b00      	cmp	r3, #0
    1980:	d005      	beq.n	198e <unsigned_print+0x62>
    1982:	683b      	ldr	r3, [r7, #0]
    1984:	2b00      	cmp	r3, #0
    1986:	d102      	bne.n	198e <unsigned_print+0x62>
    1988:	2330      	movs	r3, #48	; 0x30
    198a:	75fb      	strb	r3, [r7, #23]
    198c:	e001      	b.n	1992 <unsigned_print+0x66>
    198e:	2320      	movs	r3, #32
    1990:	75fb      	strb	r3, [r7, #23]
    1992:	e007      	b.n	19a4 <unsigned_print+0x78>
    1994:	6abb      	ldr	r3, [r7, #40]	; 0x28
    1996:	3b01      	subs	r3, #1
    1998:	62bb      	str	r3, [r7, #40]	; 0x28
    199a:	7dfb      	ldrb	r3, [r7, #23]
    199c:	4619      	mov	r1, r3
    199e:	68f8      	ldr	r0, [r7, #12]
    19a0:	f7ff ff43 	bl	182a <buffer_add>
    19a4:	6abb      	ldr	r3, [r7, #40]	; 0x28
    19a6:	2b00      	cmp	r3, #0
    19a8:	d003      	beq.n	19b2 <unsigned_print+0x86>
    19aa:	69ba      	ldr	r2, [r7, #24]
    19ac:	6abb      	ldr	r3, [r7, #40]	; 0x28
    19ae:	429a      	cmp	r2, r3
    19b0:	d3f0      	bcc.n	1994 <unsigned_print+0x68>
    19b2:	2301      	movs	r3, #1
    19b4:	61fb      	str	r3, [r7, #28]
    19b6:	683b      	ldr	r3, [r7, #0]
    19b8:	2b01      	cmp	r3, #1
    19ba:	d903      	bls.n	19c4 <unsigned_print+0x98>
    19bc:	683b      	ldr	r3, [r7, #0]
    19be:	3b01      	subs	r3, #1
    19c0:	603b      	str	r3, [r7, #0]
    19c2:	e009      	b.n	19d8 <unsigned_print+0xac>
    19c4:	68ba      	ldr	r2, [r7, #8]
    19c6:	69fb      	ldr	r3, [r7, #28]
    19c8:	fbb2 f3f3 	udiv	r3, r2, r3
    19cc:	613b      	str	r3, [r7, #16]
    19ce:	693a      	ldr	r2, [r7, #16]
    19d0:	687b      	ldr	r3, [r7, #4]
    19d2:	429a      	cmp	r2, r3
    19d4:	d200      	bcs.n	19d8 <unsigned_print+0xac>
    19d6:	e005      	b.n	19e4 <unsigned_print+0xb8>
    19d8:	69fb      	ldr	r3, [r7, #28]
    19da:	687a      	ldr	r2, [r7, #4]
    19dc:	fb02 f303 	mul.w	r3, r2, r3
    19e0:	61fb      	str	r3, [r7, #28]
    19e2:	e7e8      	b.n	19b6 <unsigned_print+0x8a>
    19e4:	68ba      	ldr	r2, [r7, #8]
    19e6:	69fb      	ldr	r3, [r7, #28]
    19e8:	fbb2 f3f3 	udiv	r3, r2, r3
    19ec:	613b      	str	r3, [r7, #16]
    19ee:	693b      	ldr	r3, [r7, #16]
    19f0:	69fa      	ldr	r2, [r7, #28]
    19f2:	fb02 f303 	mul.w	r3, r2, r3
    19f6:	68ba      	ldr	r2, [r7, #8]
    19f8:	1ad3      	subs	r3, r2, r3
    19fa:	60bb      	str	r3, [r7, #8]
    19fc:	4a15      	ldr	r2, [pc, #84]	; (1a54 <unsigned_print+0x128>)
    19fe:	693b      	ldr	r3, [r7, #16]
    1a00:	4413      	add	r3, r2
    1a02:	781b      	ldrb	r3, [r3, #0]
    1a04:	4619      	mov	r1, r3
    1a06:	68f8      	ldr	r0, [r7, #12]
    1a08:	f7ff ff0f 	bl	182a <buffer_add>
    1a0c:	69fa      	ldr	r2, [r7, #28]
    1a0e:	687b      	ldr	r3, [r7, #4]
    1a10:	fbb2 f3f3 	udiv	r3, r2, r3
    1a14:	61fb      	str	r3, [r7, #28]
    1a16:	69fb      	ldr	r3, [r7, #28]
    1a18:	2b00      	cmp	r3, #0
    1a1a:	d1e3      	bne.n	19e4 <unsigned_print+0xb8>
    1a1c:	6afb      	ldr	r3, [r7, #44]	; 0x2c
    1a1e:	f003 0301 	and.w	r3, r3, #1
    1a22:	2b00      	cmp	r3, #0
    1a24:	d011      	beq.n	1a4a <unsigned_print+0x11e>
    1a26:	6abb      	ldr	r3, [r7, #40]	; 0x28
    1a28:	2b00      	cmp	r3, #0
    1a2a:	d00e      	beq.n	1a4a <unsigned_print+0x11e>
    1a2c:	e006      	b.n	1a3c <unsigned_print+0x110>
    1a2e:	6abb      	ldr	r3, [r7, #40]	; 0x28
    1a30:	3b01      	subs	r3, #1
    1a32:	62bb      	str	r3, [r7, #40]	; 0x28
    1a34:	2120      	movs	r1, #32
    1a36:	68f8      	ldr	r0, [r7, #12]
    1a38:	f7ff fef7 	bl	182a <buffer_add>
    1a3c:	6abb      	ldr	r3, [r7, #40]	; 0x28
    1a3e:	2b00      	cmp	r3, #0
    1a40:	d003      	beq.n	1a4a <unsigned_print+0x11e>
    1a42:	69ba      	ldr	r2, [r7, #24]
    1a44:	6abb      	ldr	r3, [r7, #40]	; 0x28
    1a46:	429a      	cmp	r2, r3
    1a48:	d3f1      	bcc.n	1a2e <unsigned_print+0x102>
    1a4a:	bf00      	nop
    1a4c:	3720      	adds	r7, #32
    1a4e:	46bd      	mov	sp, r7
    1a50:	bd80      	pop	{r7, pc}
    1a52:	bf00      	nop
    1a54:	00004684 	.word	0x00004684

00001a58 <int_print>:
    1a58:	b580      	push	{r7, lr}
    1a5a:	b088      	sub	sp, #32
    1a5c:	af02      	add	r7, sp, #8
    1a5e:	60f8      	str	r0, [r7, #12]
    1a60:	60b9      	str	r1, [r7, #8]
    1a62:	607a      	str	r2, [r7, #4]
    1a64:	603b      	str	r3, [r7, #0]
    1a66:	68bb      	ldr	r3, [r7, #8]
    1a68:	2b00      	cmp	r3, #0
    1a6a:	bfb8      	it	lt
    1a6c:	425b      	neglt	r3, r3
    1a6e:	613b      	str	r3, [r7, #16]
    1a70:	2301      	movs	r3, #1
    1a72:	617b      	str	r3, [r7, #20]
    1a74:	e007      	b.n	1a86 <int_print+0x2e>
    1a76:	687b      	ldr	r3, [r7, #4]
    1a78:	693a      	ldr	r2, [r7, #16]
    1a7a:	fb92 f3f3 	sdiv	r3, r2, r3
    1a7e:	613b      	str	r3, [r7, #16]
    1a80:	697b      	ldr	r3, [r7, #20]
    1a82:	3301      	adds	r3, #1
    1a84:	617b      	str	r3, [r7, #20]
    1a86:	687b      	ldr	r3, [r7, #4]
    1a88:	693a      	ldr	r2, [r7, #16]
    1a8a:	429a      	cmp	r2, r3
    1a8c:	daf3      	bge.n	1a76 <int_print+0x1e>
    1a8e:	683a      	ldr	r2, [r7, #0]
    1a90:	697b      	ldr	r3, [r7, #20]
    1a92:	429a      	cmp	r2, r3
    1a94:	d901      	bls.n	1a9a <int_print+0x42>
    1a96:	683b      	ldr	r3, [r7, #0]
    1a98:	617b      	str	r3, [r7, #20]
    1a9a:	6a3b      	ldr	r3, [r7, #32]
    1a9c:	2b00      	cmp	r3, #0
    1a9e:	d00a      	beq.n	1ab6 <int_print+0x5e>
    1aa0:	68bb      	ldr	r3, [r7, #8]
    1aa2:	2b00      	cmp	r3, #0
    1aa4:	db04      	blt.n	1ab0 <int_print+0x58>
    1aa6:	6a7b      	ldr	r3, [r7, #36]	; 0x24
    1aa8:	f003 0304 	and.w	r3, r3, #4
    1aac:	2b00      	cmp	r3, #0
    1aae:	d002      	beq.n	1ab6 <int_print+0x5e>
    1ab0:	6a3b      	ldr	r3, [r7, #32]
    1ab2:	3b01      	subs	r3, #1
    1ab4:	623b      	str	r3, [r7, #32]
    1ab6:	6a7b      	ldr	r3, [r7, #36]	; 0x24
    1ab8:	f003 0302 	and.w	r3, r3, #2
    1abc:	2b00      	cmp	r3, #0
    1abe:	d002      	beq.n	1ac6 <int_print+0x6e>
    1ac0:	683b      	ldr	r3, [r7, #0]
    1ac2:	2b00      	cmp	r3, #0
    1ac4:	d016      	beq.n	1af4 <int_print+0x9c>
    1ac6:	6a7b      	ldr	r3, [r7, #36]	; 0x24
    1ac8:	f003 0301 	and.w	r3, r3, #1
    1acc:	2b00      	cmp	r3, #0
    1ace:	d111      	bne.n	1af4 <int_print+0x9c>
    1ad0:	6a3b      	ldr	r3, [r7, #32]
    1ad2:	2b00      	cmp	r3, #0
    1ad4:	d00e      	beq.n	1af4 <int_print+0x9c>
    1ad6:	e006      	b.n	1ae6 <int_print+0x8e>
    1ad8:	6a3b      	ldr	r3, [r7, #32]
    1ada:	3b01      	subs	r3, #1
    1adc:	623b      	str	r3, [r7, #32]
    1ade:	2120      	movs	r1, #32
    1ae0:	68f8      	ldr	r0, [r7, #12]
    1ae2:	f7ff fea2 	bl	182a <buffer_add>
    1ae6:	6a3b      	ldr	r3, [r7, #32]
    1ae8:	2b00      	cmp	r3, #0
    1aea:	d003      	beq.n	1af4 <int_print+0x9c>
    1aec:	697a      	ldr	r2, [r7, #20]
    1aee:	6a3b      	ldr	r3, [r7, #32]
    1af0:	429a      	cmp	r2, r3
    1af2:	d3f1      	bcc.n	1ad8 <int_print+0x80>
    1af4:	68bb      	ldr	r3, [r7, #8]
    1af6:	2b00      	cmp	r3, #0
    1af8:	da07      	bge.n	1b0a <int_print+0xb2>
    1afa:	68bb      	ldr	r3, [r7, #8]
    1afc:	425b      	negs	r3, r3
    1afe:	60bb      	str	r3, [r7, #8]
    1b00:	212d      	movs	r1, #45	; 0x2d
    1b02:	68f8      	ldr	r0, [r7, #12]
    1b04:	f7ff fe91 	bl	182a <buffer_add>
    1b08:	e008      	b.n	1b1c <int_print+0xc4>
    1b0a:	6a7b      	ldr	r3, [r7, #36]	; 0x24
    1b0c:	f003 0304 	and.w	r3, r3, #4
    1b10:	2b00      	cmp	r3, #0
    1b12:	d003      	beq.n	1b1c <int_print+0xc4>
    1b14:	212b      	movs	r1, #43	; 0x2b
    1b16:	68f8      	ldr	r0, [r7, #12]
    1b18:	f7ff fe87 	bl	182a <buffer_add>
    1b1c:	6a7b      	ldr	r3, [r7, #36]	; 0x24
    1b1e:	f003 0302 	and.w	r3, r3, #2
    1b22:	2b00      	cmp	r3, #0
    1b24:	d019      	beq.n	1b5a <int_print+0x102>
    1b26:	6a7b      	ldr	r3, [r7, #36]	; 0x24
    1b28:	f003 0301 	and.w	r3, r3, #1
    1b2c:	2b00      	cmp	r3, #0
    1b2e:	d114      	bne.n	1b5a <int_print+0x102>
    1b30:	683b      	ldr	r3, [r7, #0]
    1b32:	2b00      	cmp	r3, #0
    1b34:	d111      	bne.n	1b5a <int_print+0x102>
    1b36:	6a3b      	ldr	r3, [r7, #32]
    1b38:	2b00      	cmp	r3, #0
    1b3a:	d00e      	beq.n	1b5a <int_print+0x102>
    1b3c:	e006      	b.n	1b4c <int_print+0xf4>
    1b3e:	6a3b      	ldr	r3, [r7, #32]
    1b40:	3b01      	subs	r3, #1
    1b42:	623b      	str	r3, [r7, #32]
    1b44:	2130      	movs	r1, #48	; 0x30
    1b46:	68f8      	ldr	r0, [r7, #12]
    1b48:	f7ff fe6f 	bl	182a <buffer_add>
    1b4c:	6a3b      	ldr	r3, [r7, #32]
    1b4e:	2b00      	cmp	r3, #0
    1b50:	d003      	beq.n	1b5a <int_print+0x102>
    1b52:	697a      	ldr	r2, [r7, #20]
    1b54:	6a3b      	ldr	r3, [r7, #32]
    1b56:	429a      	cmp	r2, r3
    1b58:	d3f1      	bcc.n	1b3e <int_print+0xe6>
    1b5a:	68b9      	ldr	r1, [r7, #8]
    1b5c:	6a7b      	ldr	r3, [r7, #36]	; 0x24
    1b5e:	9301      	str	r3, [sp, #4]
    1b60:	6a3b      	ldr	r3, [r7, #32]
    1b62:	9300      	str	r3, [sp, #0]
    1b64:	683b      	ldr	r3, [r7, #0]
    1b66:	687a      	ldr	r2, [r7, #4]
    1b68:	68f8      	ldr	r0, [r7, #12]
    1b6a:	f7ff fedf 	bl	192c <unsigned_print>
    1b6e:	bf00      	nop
    1b70:	3718      	adds	r7, #24
    1b72:	46bd      	mov	sp, r7
    1b74:	bd80      	pop	{r7, pc}
	...

00001b78 <nrf_fprintf_fmt>:
    1b78:	b580      	push	{r7, lr}
    1b7a:	b08e      	sub	sp, #56	; 0x38
    1b7c:	af02      	add	r7, sp, #8
    1b7e:	60f8      	str	r0, [r7, #12]
    1b80:	60b9      	str	r1, [r7, #8]
    1b82:	607a      	str	r2, [r7, #4]
    1b84:	68bb      	ldr	r3, [r7, #8]
    1b86:	2b00      	cmp	r3, #0
    1b88:	f000 818e 	beq.w	1ea8 <nrf_fprintf_fmt+0x330>
    1b8c:	68bb      	ldr	r3, [r7, #8]
    1b8e:	781b      	ldrb	r3, [r3, #0]
    1b90:	f887 302f 	strb.w	r3, [r7, #47]	; 0x2f
    1b94:	68bb      	ldr	r3, [r7, #8]
    1b96:	3301      	adds	r3, #1
    1b98:	60bb      	str	r3, [r7, #8]
    1b9a:	f897 302f 	ldrb.w	r3, [r7, #47]	; 0x2f
    1b9e:	2b00      	cmp	r3, #0
    1ba0:	f000 8179 	beq.w	1e96 <nrf_fprintf_fmt+0x31e>
    1ba4:	f897 302f 	ldrb.w	r3, [r7, #47]	; 0x2f
    1ba8:	2b25      	cmp	r3, #37	; 0x25
    1baa:	f040 8168 	bne.w	1e7e <nrf_fprintf_fmt+0x306>
    1bae:	2300      	movs	r3, #0
    1bb0:	623b      	str	r3, [r7, #32]
    1bb2:	2301      	movs	r3, #1
    1bb4:	62bb      	str	r3, [r7, #40]	; 0x28
    1bb6:	68bb      	ldr	r3, [r7, #8]
    1bb8:	781b      	ldrb	r3, [r3, #0]
    1bba:	f887 302f 	strb.w	r3, [r7, #47]	; 0x2f
    1bbe:	f897 302f 	ldrb.w	r3, [r7, #47]	; 0x2f
    1bc2:	2b30      	cmp	r3, #48	; 0x30
    1bc4:	d00d      	beq.n	1be2 <nrf_fprintf_fmt+0x6a>
    1bc6:	2b30      	cmp	r3, #48	; 0x30
    1bc8:	dc1b      	bgt.n	1c02 <nrf_fprintf_fmt+0x8a>
    1bca:	2b2b      	cmp	r3, #43	; 0x2b
    1bcc:	d011      	beq.n	1bf2 <nrf_fprintf_fmt+0x7a>
    1bce:	2b2d      	cmp	r3, #45	; 0x2d
    1bd0:	d117      	bne.n	1c02 <nrf_fprintf_fmt+0x8a>
    1bd2:	6a3b      	ldr	r3, [r7, #32]
    1bd4:	f043 0301 	orr.w	r3, r3, #1
    1bd8:	623b      	str	r3, [r7, #32]
    1bda:	68bb      	ldr	r3, [r7, #8]
    1bdc:	3301      	adds	r3, #1
    1bde:	60bb      	str	r3, [r7, #8]
    1be0:	e012      	b.n	1c08 <nrf_fprintf_fmt+0x90>
    1be2:	6a3b      	ldr	r3, [r7, #32]
    1be4:	f043 0302 	orr.w	r3, r3, #2
    1be8:	623b      	str	r3, [r7, #32]
    1bea:	68bb      	ldr	r3, [r7, #8]
    1bec:	3301      	adds	r3, #1
    1bee:	60bb      	str	r3, [r7, #8]
    1bf0:	e00a      	b.n	1c08 <nrf_fprintf_fmt+0x90>
    1bf2:	6a3b      	ldr	r3, [r7, #32]
    1bf4:	f043 0304 	orr.w	r3, r3, #4
    1bf8:	623b      	str	r3, [r7, #32]
    1bfa:	68bb      	ldr	r3, [r7, #8]
    1bfc:	3301      	adds	r3, #1
    1bfe:	60bb      	str	r3, [r7, #8]
    1c00:	e002      	b.n	1c08 <nrf_fprintf_fmt+0x90>
    1c02:	2300      	movs	r3, #0
    1c04:	62bb      	str	r3, [r7, #40]	; 0x28
    1c06:	bf00      	nop
    1c08:	6abb      	ldr	r3, [r7, #40]	; 0x28
    1c0a:	2b00      	cmp	r3, #0
    1c0c:	d1d3      	bne.n	1bb6 <nrf_fprintf_fmt+0x3e>
    1c0e:	2300      	movs	r3, #0
    1c10:	61fb      	str	r3, [r7, #28]
    1c12:	f897 302f 	ldrb.w	r3, [r7, #47]	; 0x2f
    1c16:	2b2a      	cmp	r3, #42	; 0x2a
    1c18:	d10c      	bne.n	1c34 <nrf_fprintf_fmt+0xbc>
    1c1a:	687b      	ldr	r3, [r7, #4]
    1c1c:	681b      	ldr	r3, [r3, #0]
    1c1e:	1d19      	adds	r1, r3, #4
    1c20:	687a      	ldr	r2, [r7, #4]
    1c22:	6011      	str	r1, [r2, #0]
    1c24:	681b      	ldr	r3, [r3, #0]
    1c26:	69fa      	ldr	r2, [r7, #28]
    1c28:	4413      	add	r3, r2
    1c2a:	61fb      	str	r3, [r7, #28]
    1c2c:	68bb      	ldr	r3, [r7, #8]
    1c2e:	3301      	adds	r3, #1
    1c30:	60bb      	str	r3, [r7, #8]
    1c32:	e01a      	b.n	1c6a <nrf_fprintf_fmt+0xf2>
    1c34:	68bb      	ldr	r3, [r7, #8]
    1c36:	781b      	ldrb	r3, [r3, #0]
    1c38:	f887 302f 	strb.w	r3, [r7, #47]	; 0x2f
    1c3c:	f897 302f 	ldrb.w	r3, [r7, #47]	; 0x2f
    1c40:	2b2f      	cmp	r3, #47	; 0x2f
    1c42:	d912      	bls.n	1c6a <nrf_fprintf_fmt+0xf2>
    1c44:	f897 302f 	ldrb.w	r3, [r7, #47]	; 0x2f
    1c48:	2b39      	cmp	r3, #57	; 0x39
    1c4a:	d80e      	bhi.n	1c6a <nrf_fprintf_fmt+0xf2>
    1c4c:	68bb      	ldr	r3, [r7, #8]
    1c4e:	3301      	adds	r3, #1
    1c50:	60bb      	str	r3, [r7, #8]
    1c52:	69fa      	ldr	r2, [r7, #28]
    1c54:	4613      	mov	r3, r2
    1c56:	009b      	lsls	r3, r3, #2
    1c58:	4413      	add	r3, r2
    1c5a:	005b      	lsls	r3, r3, #1
    1c5c:	461a      	mov	r2, r3
    1c5e:	f897 302f 	ldrb.w	r3, [r7, #47]	; 0x2f
    1c62:	4413      	add	r3, r2
    1c64:	3b30      	subs	r3, #48	; 0x30
    1c66:	61fb      	str	r3, [r7, #28]
    1c68:	e7d3      	b.n	1c12 <nrf_fprintf_fmt+0x9a>
    1c6a:	2300      	movs	r3, #0
    1c6c:	627b      	str	r3, [r7, #36]	; 0x24
    1c6e:	68bb      	ldr	r3, [r7, #8]
    1c70:	781b      	ldrb	r3, [r3, #0]
    1c72:	f887 302f 	strb.w	r3, [r7, #47]	; 0x2f
    1c76:	f897 302f 	ldrb.w	r3, [r7, #47]	; 0x2f
    1c7a:	2b2e      	cmp	r3, #46	; 0x2e
    1c7c:	d11d      	bne.n	1cba <nrf_fprintf_fmt+0x142>
    1c7e:	68bb      	ldr	r3, [r7, #8]
    1c80:	3301      	adds	r3, #1
    1c82:	60bb      	str	r3, [r7, #8]
    1c84:	68bb      	ldr	r3, [r7, #8]
    1c86:	781b      	ldrb	r3, [r3, #0]
    1c88:	f887 302f 	strb.w	r3, [r7, #47]	; 0x2f
    1c8c:	f897 302f 	ldrb.w	r3, [r7, #47]	; 0x2f
    1c90:	2b2f      	cmp	r3, #47	; 0x2f
    1c92:	d912      	bls.n	1cba <nrf_fprintf_fmt+0x142>
    1c94:	f897 302f 	ldrb.w	r3, [r7, #47]	; 0x2f
    1c98:	2b39      	cmp	r3, #57	; 0x39
    1c9a:	d80e      	bhi.n	1cba <nrf_fprintf_fmt+0x142>
    1c9c:	68bb      	ldr	r3, [r7, #8]
    1c9e:	3301      	adds	r3, #1
    1ca0:	60bb      	str	r3, [r7, #8]
    1ca2:	6a7a      	ldr	r2, [r7, #36]	; 0x24
    1ca4:	4613      	mov	r3, r2
    1ca6:	009b      	lsls	r3, r3, #2
    1ca8:	4413      	add	r3, r2
    1caa:	005b      	lsls	r3, r3, #1
    1cac:	461a      	mov	r2, r3
    1cae:	f897 302f 	ldrb.w	r3, [r7, #47]	; 0x2f
    1cb2:	4413      	add	r3, r2
    1cb4:	3b30      	subs	r3, #48	; 0x30
    1cb6:	627b      	str	r3, [r7, #36]	; 0x24
    1cb8:	e7e4      	b.n	1c84 <nrf_fprintf_fmt+0x10c>
    1cba:	68bb      	ldr	r3, [r7, #8]
    1cbc:	781b      	ldrb	r3, [r3, #0]
    1cbe:	f887 302f 	strb.w	r3, [r7, #47]	; 0x2f
    1cc2:	f897 302f 	ldrb.w	r3, [r7, #47]	; 0x2f
    1cc6:	2b6c      	cmp	r3, #108	; 0x6c
    1cc8:	d003      	beq.n	1cd2 <nrf_fprintf_fmt+0x15a>
    1cca:	f897 302f 	ldrb.w	r3, [r7, #47]	; 0x2f
    1cce:	2b68      	cmp	r3, #104	; 0x68
    1cd0:	d107      	bne.n	1ce2 <nrf_fprintf_fmt+0x16a>
    1cd2:	68bb      	ldr	r3, [r7, #8]
    1cd4:	3301      	adds	r3, #1
    1cd6:	60bb      	str	r3, [r7, #8]
    1cd8:	68bb      	ldr	r3, [r7, #8]
    1cda:	781b      	ldrb	r3, [r3, #0]
    1cdc:	f887 302f 	strb.w	r3, [r7, #47]	; 0x2f
    1ce0:	e7ef      	b.n	1cc2 <nrf_fprintf_fmt+0x14a>
    1ce2:	f897 302f 	ldrb.w	r3, [r7, #47]	; 0x2f
    1ce6:	2b25      	cmp	r3, #37	; 0x25
    1ce8:	f000 80bf 	beq.w	1e6a <nrf_fprintf_fmt+0x2f2>
    1cec:	2b25      	cmp	r3, #37	; 0x25
    1cee:	f2c0 80c1 	blt.w	1e74 <nrf_fprintf_fmt+0x2fc>
    1cf2:	2b78      	cmp	r3, #120	; 0x78
    1cf4:	f300 80be 	bgt.w	1e74 <nrf_fprintf_fmt+0x2fc>
    1cf8:	2b58      	cmp	r3, #88	; 0x58
    1cfa:	f2c0 80bb 	blt.w	1e74 <nrf_fprintf_fmt+0x2fc>
    1cfe:	3b58      	subs	r3, #88	; 0x58
    1d00:	2b20      	cmp	r3, #32
    1d02:	f200 80b7 	bhi.w	1e74 <nrf_fprintf_fmt+0x2fc>
    1d06:	a201      	add	r2, pc, #4	; (adr r2, 1d0c <nrf_fprintf_fmt+0x194>)
    1d08:	f852 f023 	ldr.w	pc, [r2, r3, lsl #2]
    1d0c:	00001df7 	.word	0x00001df7
    1d10:	00001e75 	.word	0x00001e75
    1d14:	00001e75 	.word	0x00001e75
    1d18:	00001e75 	.word	0x00001e75
    1d1c:	00001e75 	.word	0x00001e75
    1d20:	00001e75 	.word	0x00001e75
    1d24:	00001e75 	.word	0x00001e75
    1d28:	00001e75 	.word	0x00001e75
    1d2c:	00001e75 	.word	0x00001e75
    1d30:	00001e75 	.word	0x00001e75
    1d34:	00001e75 	.word	0x00001e75
    1d38:	00001d91 	.word	0x00001d91
    1d3c:	00001daf 	.word	0x00001daf
    1d40:	00001e75 	.word	0x00001e75
    1d44:	00001e75 	.word	0x00001e75
    1d48:	00001e75 	.word	0x00001e75
    1d4c:	00001e75 	.word	0x00001e75
    1d50:	00001daf 	.word	0x00001daf
    1d54:	00001e75 	.word	0x00001e75
    1d58:	00001e75 	.word	0x00001e75
    1d5c:	00001e75 	.word	0x00001e75
    1d60:	00001e75 	.word	0x00001e75
    1d64:	00001e75 	.word	0x00001e75
    1d68:	00001e75 	.word	0x00001e75
    1d6c:	00001e37 	.word	0x00001e37
    1d70:	00001e75 	.word	0x00001e75
    1d74:	00001e75 	.word	0x00001e75
    1d78:	00001e1b 	.word	0x00001e1b
    1d7c:	00001e75 	.word	0x00001e75
    1d80:	00001dd3 	.word	0x00001dd3
    1d84:	00001e75 	.word	0x00001e75
    1d88:	00001e75 	.word	0x00001e75
    1d8c:	00001df7 	.word	0x00001df7
    1d90:	687b      	ldr	r3, [r7, #4]
    1d92:	681b      	ldr	r3, [r3, #0]
    1d94:	1d19      	adds	r1, r3, #4
    1d96:	687a      	ldr	r2, [r7, #4]
    1d98:	6011      	str	r1, [r2, #0]
    1d9a:	681b      	ldr	r3, [r3, #0]
    1d9c:	62bb      	str	r3, [r7, #40]	; 0x28
    1d9e:	6abb      	ldr	r3, [r7, #40]	; 0x28
    1da0:	75fb      	strb	r3, [r7, #23]
    1da2:	7dfb      	ldrb	r3, [r7, #23]
    1da4:	4619      	mov	r1, r3
    1da6:	68f8      	ldr	r0, [r7, #12]
    1da8:	f7ff fd3f 	bl	182a <buffer_add>
    1dac:	e063      	b.n	1e76 <nrf_fprintf_fmt+0x2fe>
    1dae:	687b      	ldr	r3, [r7, #4]
    1db0:	681b      	ldr	r3, [r3, #0]
    1db2:	1d19      	adds	r1, r3, #4
    1db4:	687a      	ldr	r2, [r7, #4]
    1db6:	6011      	str	r1, [r2, #0]
    1db8:	681b      	ldr	r3, [r3, #0]
    1dba:	62bb      	str	r3, [r7, #40]	; 0x28
    1dbc:	6a3b      	ldr	r3, [r7, #32]
    1dbe:	9301      	str	r3, [sp, #4]
    1dc0:	69fb      	ldr	r3, [r7, #28]
    1dc2:	9300      	str	r3, [sp, #0]
    1dc4:	6a7b      	ldr	r3, [r7, #36]	; 0x24
    1dc6:	220a      	movs	r2, #10
    1dc8:	6ab9      	ldr	r1, [r7, #40]	; 0x28
    1dca:	68f8      	ldr	r0, [r7, #12]
    1dcc:	f7ff fe44 	bl	1a58 <int_print>
    1dd0:	e051      	b.n	1e76 <nrf_fprintf_fmt+0x2fe>
    1dd2:	687b      	ldr	r3, [r7, #4]
    1dd4:	681b      	ldr	r3, [r3, #0]
    1dd6:	1d19      	adds	r1, r3, #4
    1dd8:	687a      	ldr	r2, [r7, #4]
    1dda:	6011      	str	r1, [r2, #0]
    1ddc:	681b      	ldr	r3, [r3, #0]
    1dde:	62bb      	str	r3, [r7, #40]	; 0x28
    1de0:	6ab9      	ldr	r1, [r7, #40]	; 0x28
    1de2:	6a3b      	ldr	r3, [r7, #32]
    1de4:	9301      	str	r3, [sp, #4]
    1de6:	69fb      	ldr	r3, [r7, #28]
    1de8:	9300      	str	r3, [sp, #0]
    1dea:	6a7b      	ldr	r3, [r7, #36]	; 0x24
    1dec:	220a      	movs	r2, #10
    1dee:	68f8      	ldr	r0, [r7, #12]
    1df0:	f7ff fd9c 	bl	192c <unsigned_print>
    1df4:	e03f      	b.n	1e76 <nrf_fprintf_fmt+0x2fe>
    1df6:	687b      	ldr	r3, [r7, #4]
    1df8:	681b      	ldr	r3, [r3, #0]
    1dfa:	1d19      	adds	r1, r3, #4
    1dfc:	687a      	ldr	r2, [r7, #4]
    1dfe:	6011      	str	r1, [r2, #0]
    1e00:	681b      	ldr	r3, [r3, #0]
    1e02:	62bb      	str	r3, [r7, #40]	; 0x28
    1e04:	6ab9      	ldr	r1, [r7, #40]	; 0x28
    1e06:	6a3b      	ldr	r3, [r7, #32]
    1e08:	9301      	str	r3, [sp, #4]
    1e0a:	69fb      	ldr	r3, [r7, #28]
    1e0c:	9300      	str	r3, [sp, #0]
    1e0e:	6a7b      	ldr	r3, [r7, #36]	; 0x24
    1e10:	2210      	movs	r2, #16
    1e12:	68f8      	ldr	r0, [r7, #12]
    1e14:	f7ff fd8a 	bl	192c <unsigned_print>
    1e18:	e02d      	b.n	1e76 <nrf_fprintf_fmt+0x2fe>
    1e1a:	687b      	ldr	r3, [r7, #4]
    1e1c:	681b      	ldr	r3, [r3, #0]
    1e1e:	1d19      	adds	r1, r3, #4
    1e20:	687a      	ldr	r2, [r7, #4]
    1e22:	6011      	str	r1, [r2, #0]
    1e24:	681b      	ldr	r3, [r3, #0]
    1e26:	61bb      	str	r3, [r7, #24]
    1e28:	6a3b      	ldr	r3, [r7, #32]
    1e2a:	69fa      	ldr	r2, [r7, #28]
    1e2c:	69b9      	ldr	r1, [r7, #24]
    1e2e:	68f8      	ldr	r0, [r7, #12]
    1e30:	f7ff fd1f 	bl	1872 <string_print>
    1e34:	e01f      	b.n	1e76 <nrf_fprintf_fmt+0x2fe>
    1e36:	687b      	ldr	r3, [r7, #4]
    1e38:	681b      	ldr	r3, [r3, #0]
    1e3a:	1d19      	adds	r1, r3, #4
    1e3c:	687a      	ldr	r2, [r7, #4]
    1e3e:	6011      	str	r1, [r2, #0]
    1e40:	681b      	ldr	r3, [r3, #0]
    1e42:	62bb      	str	r3, [r7, #40]	; 0x28
    1e44:	2130      	movs	r1, #48	; 0x30
    1e46:	68f8      	ldr	r0, [r7, #12]
    1e48:	f7ff fcef 	bl	182a <buffer_add>
    1e4c:	2178      	movs	r1, #120	; 0x78
    1e4e:	68f8      	ldr	r0, [r7, #12]
    1e50:	f7ff fceb 	bl	182a <buffer_add>
    1e54:	6ab9      	ldr	r1, [r7, #40]	; 0x28
    1e56:	2300      	movs	r3, #0
    1e58:	9301      	str	r3, [sp, #4]
    1e5a:	2308      	movs	r3, #8
    1e5c:	9300      	str	r3, [sp, #0]
    1e5e:	2308      	movs	r3, #8
    1e60:	2210      	movs	r2, #16
    1e62:	68f8      	ldr	r0, [r7, #12]
    1e64:	f7ff fd62 	bl	192c <unsigned_print>
    1e68:	e005      	b.n	1e76 <nrf_fprintf_fmt+0x2fe>
    1e6a:	2125      	movs	r1, #37	; 0x25
    1e6c:	68f8      	ldr	r0, [r7, #12]
    1e6e:	f7ff fcdc 	bl	182a <buffer_add>
    1e72:	e000      	b.n	1e76 <nrf_fprintf_fmt+0x2fe>
    1e74:	bf00      	nop
    1e76:	68bb      	ldr	r3, [r7, #8]
    1e78:	3301      	adds	r3, #1
    1e7a:	60bb      	str	r3, [r7, #8]
    1e7c:	e005      	b.n	1e8a <nrf_fprintf_fmt+0x312>
    1e7e:	f897 302f 	ldrb.w	r3, [r7, #47]	; 0x2f
    1e82:	4619      	mov	r1, r3
    1e84:	68f8      	ldr	r0, [r7, #12]
    1e86:	f7ff fcd0 	bl	182a <buffer_add>
    1e8a:	68bb      	ldr	r3, [r7, #8]
    1e8c:	781b      	ldrb	r3, [r3, #0]
    1e8e:	2b00      	cmp	r3, #0
    1e90:	f47f ae7c 	bne.w	1b8c <nrf_fprintf_fmt+0x14>
    1e94:	e000      	b.n	1e98 <nrf_fprintf_fmt+0x320>
    1e96:	bf00      	nop
    1e98:	68fb      	ldr	r3, [r7, #12]
    1e9a:	7b1b      	ldrb	r3, [r3, #12]
    1e9c:	2b00      	cmp	r3, #0
    1e9e:	d004      	beq.n	1eaa <nrf_fprintf_fmt+0x332>
    1ea0:	68f8      	ldr	r0, [r7, #12]
    1ea2:	f7ff fc8d 	bl	17c0 <nrf_fprintf_buffer_flush>
    1ea6:	e000      	b.n	1eaa <nrf_fprintf_fmt+0x332>
    1ea8:	bf00      	nop
    1eaa:	3730      	adds	r7, #48	; 0x30
    1eac:	46bd      	mov	sp, r7
    1eae:	bd80      	pop	{r7, pc}

00001eb0 <nrf_memobj_pool_init>:
    1eb0:	b580      	push	{r7, lr}
    1eb2:	b082      	sub	sp, #8
    1eb4:	af00      	add	r7, sp, #0
    1eb6:	6078      	str	r0, [r7, #4]
    1eb8:	6878      	ldr	r0, [r7, #4]
    1eba:	f7ff fc04 	bl	16c6 <nrf_balloc_init>
    1ebe:	4603      	mov	r3, r0
    1ec0:	4618      	mov	r0, r3
    1ec2:	3708      	adds	r7, #8
    1ec4:	46bd      	mov	sp, r7
    1ec6:	bd80      	pop	{r7, pc}

00001ec8 <nrf_memobj_alloc>:
    1ec8:	b580      	push	{r7, lr}
    1eca:	b08a      	sub	sp, #40	; 0x28
    1ecc:	af00      	add	r7, sp, #0
    1ece:	6078      	str	r0, [r7, #4]
    1ed0:	6039      	str	r1, [r7, #0]
    1ed2:	687b      	ldr	r3, [r7, #4]
    1ed4:	8a1b      	ldrh	r3, [r3, #16]
    1ed6:	3b04      	subs	r3, #4
    1ed8:	61fb      	str	r3, [r7, #28]
    1eda:	683a      	ldr	r2, [r7, #0]
    1edc:	69fb      	ldr	r3, [r7, #28]
    1ede:	4413      	add	r3, r2
    1ee0:	1cda      	adds	r2, r3, #3
    1ee2:	69fb      	ldr	r3, [r7, #28]
    1ee4:	fbb2 f3f3 	udiv	r3, r2, r3
    1ee8:	76fb      	strb	r3, [r7, #27]
    1eea:	6878      	ldr	r0, [r7, #4]
    1eec:	f7ff fc17 	bl	171e <nrf_balloc_alloc>
    1ef0:	6178      	str	r0, [r7, #20]
    1ef2:	697b      	ldr	r3, [r7, #20]
    1ef4:	2b00      	cmp	r3, #0
    1ef6:	d101      	bne.n	1efc <nrf_memobj_alloc+0x34>
    1ef8:	2300      	movs	r3, #0
    1efa:	e037      	b.n	1f6c <nrf_memobj_alloc+0xa4>
    1efc:	697b      	ldr	r3, [r7, #20]
    1efe:	2200      	movs	r2, #0
    1f00:	711a      	strb	r2, [r3, #4]
    1f02:	697b      	ldr	r3, [r7, #20]
    1f04:	2201      	movs	r2, #1
    1f06:	715a      	strb	r2, [r3, #5]
    1f08:	69fb      	ldr	r3, [r7, #28]
    1f0a:	b29a      	uxth	r2, r3
    1f0c:	697b      	ldr	r3, [r7, #20]
    1f0e:	80da      	strh	r2, [r3, #6]
    1f10:	697b      	ldr	r3, [r7, #20]
    1f12:	627b      	str	r3, [r7, #36]	; 0x24
    1f14:	7efb      	ldrb	r3, [r7, #27]
    1f16:	3b01      	subs	r3, #1
    1f18:	613b      	str	r3, [r7, #16]
    1f1a:	6a7b      	ldr	r3, [r7, #36]	; 0x24
    1f1c:	687a      	ldr	r2, [r7, #4]
    1f1e:	601a      	str	r2, [r3, #0]
    1f20:	2300      	movs	r3, #0
    1f22:	623b      	str	r3, [r7, #32]
    1f24:	e01d      	b.n	1f62 <nrf_memobj_alloc+0x9a>
    1f26:	6878      	ldr	r0, [r7, #4]
    1f28:	f7ff fbf9 	bl	171e <nrf_balloc_alloc>
    1f2c:	60f8      	str	r0, [r7, #12]
    1f2e:	68fb      	ldr	r3, [r7, #12]
    1f30:	2b00      	cmp	r3, #0
    1f32:	d00e      	beq.n	1f52 <nrf_memobj_alloc+0x8a>
    1f34:	697b      	ldr	r3, [r7, #20]
    1f36:	795b      	ldrb	r3, [r3, #5]
    1f38:	3301      	adds	r3, #1
    1f3a:	b2da      	uxtb	r2, r3
    1f3c:	697b      	ldr	r3, [r7, #20]
    1f3e:	715a      	strb	r2, [r3, #5]
    1f40:	6a7b      	ldr	r3, [r7, #36]	; 0x24
    1f42:	68fa      	ldr	r2, [r7, #12]
    1f44:	601a      	str	r2, [r3, #0]
    1f46:	68fb      	ldr	r3, [r7, #12]
    1f48:	687a      	ldr	r2, [r7, #4]
    1f4a:	601a      	str	r2, [r3, #0]
    1f4c:	68fb      	ldr	r3, [r7, #12]
    1f4e:	627b      	str	r3, [r7, #36]	; 0x24
    1f50:	e004      	b.n	1f5c <nrf_memobj_alloc+0x94>
    1f52:	6978      	ldr	r0, [r7, #20]
    1f54:	f000 f80e 	bl	1f74 <nrf_memobj_free>
    1f58:	2300      	movs	r3, #0
    1f5a:	e007      	b.n	1f6c <nrf_memobj_alloc+0xa4>
    1f5c:	6a3b      	ldr	r3, [r7, #32]
    1f5e:	3301      	adds	r3, #1
    1f60:	623b      	str	r3, [r7, #32]
    1f62:	6a3a      	ldr	r2, [r7, #32]
    1f64:	693b      	ldr	r3, [r7, #16]
    1f66:	429a      	cmp	r2, r3
    1f68:	d3dd      	bcc.n	1f26 <nrf_memobj_alloc+0x5e>
    1f6a:	697b      	ldr	r3, [r7, #20]
    1f6c:	4618      	mov	r0, r3
    1f6e:	3728      	adds	r7, #40	; 0x28
    1f70:	46bd      	mov	sp, r7
    1f72:	bd80      	pop	{r7, pc}

00001f74 <nrf_memobj_free>:
    1f74:	b580      	push	{r7, lr}
    1f76:	b08a      	sub	sp, #40	; 0x28
    1f78:	af00      	add	r7, sp, #0
    1f7a:	6078      	str	r0, [r7, #4]
    1f7c:	687b      	ldr	r3, [r7, #4]
    1f7e:	61fb      	str	r3, [r7, #28]
    1f80:	69fb      	ldr	r3, [r7, #28]
    1f82:	795b      	ldrb	r3, [r3, #5]
    1f84:	76fb      	strb	r3, [r7, #27]
    1f86:	687b      	ldr	r3, [r7, #4]
    1f88:	623b      	str	r3, [r7, #32]
    1f8a:	7efb      	ldrb	r3, [r7, #27]
    1f8c:	3b01      	subs	r3, #1
    1f8e:	617b      	str	r3, [r7, #20]
    1f90:	2300      	movs	r3, #0
    1f92:	627b      	str	r3, [r7, #36]	; 0x24
    1f94:	e005      	b.n	1fa2 <nrf_memobj_free+0x2e>
    1f96:	6a3b      	ldr	r3, [r7, #32]
    1f98:	681b      	ldr	r3, [r3, #0]
    1f9a:	623b      	str	r3, [r7, #32]
    1f9c:	6a7b      	ldr	r3, [r7, #36]	; 0x24
    1f9e:	3301      	adds	r3, #1
    1fa0:	627b      	str	r3, [r7, #36]	; 0x24
    1fa2:	6a7a      	ldr	r2, [r7, #36]	; 0x24
    1fa4:	697b      	ldr	r3, [r7, #20]
    1fa6:	429a      	cmp	r2, r3
    1fa8:	d3f5      	bcc.n	1f96 <nrf_memobj_free+0x22>
    1faa:	6a3b      	ldr	r3, [r7, #32]
    1fac:	681b      	ldr	r3, [r3, #0]
    1fae:	613b      	str	r3, [r7, #16]
    1fb0:	687b      	ldr	r3, [r7, #4]
    1fb2:	623b      	str	r3, [r7, #32]
    1fb4:	2300      	movs	r3, #0
    1fb6:	627b      	str	r3, [r7, #36]	; 0x24
    1fb8:	e00b      	b.n	1fd2 <nrf_memobj_free+0x5e>
    1fba:	6a3b      	ldr	r3, [r7, #32]
    1fbc:	681b      	ldr	r3, [r3, #0]
    1fbe:	60fb      	str	r3, [r7, #12]
    1fc0:	6a39      	ldr	r1, [r7, #32]
    1fc2:	6938      	ldr	r0, [r7, #16]
    1fc4:	f7ff fbe0 	bl	1788 <nrf_balloc_free>
    1fc8:	68fb      	ldr	r3, [r7, #12]
    1fca:	623b      	str	r3, [r7, #32]
    1fcc:	6a7b      	ldr	r3, [r7, #36]	; 0x24
    1fce:	3301      	adds	r3, #1
    1fd0:	627b      	str	r3, [r7, #36]	; 0x24
    1fd2:	7efb      	ldrb	r3, [r7, #27]
    1fd4:	6a7a      	ldr	r2, [r7, #36]	; 0x24
    1fd6:	429a      	cmp	r2, r3
    1fd8:	d3ef      	bcc.n	1fba <nrf_memobj_free+0x46>
    1fda:	bf00      	nop
    1fdc:	bf00      	nop
    1fde:	3728      	adds	r7, #40	; 0x28
    1fe0:	46bd      	mov	sp, r7
    1fe2:	bd80      	pop	{r7, pc}

00001fe4 <nrf_memobj_get>:
    1fe4:	b580      	push	{r7, lr}
    1fe6:	b084      	sub	sp, #16
    1fe8:	af00      	add	r7, sp, #0
    1fea:	6078      	str	r0, [r7, #4]
    1fec:	687b      	ldr	r3, [r7, #4]
    1fee:	60fb      	str	r3, [r7, #12]
    1ff0:	68fb      	ldr	r3, [r7, #12]
    1ff2:	3304      	adds	r3, #4
    1ff4:	2101      	movs	r1, #1
    1ff6:	4618      	mov	r0, r3
    1ff8:	f7ff faf1 	bl	15de <nrf_atomic_u32_add>
    1ffc:	bf00      	nop
    1ffe:	3710      	adds	r7, #16
    2000:	46bd      	mov	sp, r7
    2002:	bd80      	pop	{r7, pc}

00002004 <nrf_memobj_put>:
    2004:	b580      	push	{r7, lr}
    2006:	b086      	sub	sp, #24
    2008:	af00      	add	r7, sp, #0
    200a:	6078      	str	r0, [r7, #4]
    200c:	687b      	ldr	r3, [r7, #4]
    200e:	617b      	str	r3, [r7, #20]
    2010:	697b      	ldr	r3, [r7, #20]
    2012:	3304      	adds	r3, #4
    2014:	2101      	movs	r1, #1
    2016:	4618      	mov	r0, r3
    2018:	f7ff fafa 	bl	1610 <nrf_atomic_u32_sub>
    201c:	4603      	mov	r3, r0
    201e:	60fb      	str	r3, [r7, #12]
    2020:	f107 030c 	add.w	r3, r7, #12
    2024:	613b      	str	r3, [r7, #16]
    2026:	693b      	ldr	r3, [r7, #16]
    2028:	781b      	ldrb	r3, [r3, #0]
    202a:	2b00      	cmp	r3, #0
    202c:	d102      	bne.n	2034 <nrf_memobj_put+0x30>
    202e:	6878      	ldr	r0, [r7, #4]
    2030:	f7ff ffa0 	bl	1f74 <nrf_memobj_free>
    2034:	bf00      	nop
    2036:	3718      	adds	r7, #24
    2038:	46bd      	mov	sp, r7
    203a:	bd80      	pop	{r7, pc}

0000203c <memobj_op>:
    203c:	b580      	push	{r7, lr}
    203e:	b090      	sub	sp, #64	; 0x40
    2040:	af00      	add	r7, sp, #0
    2042:	60f8      	str	r0, [r7, #12]
    2044:	60b9      	str	r1, [r7, #8]
    2046:	607a      	str	r2, [r7, #4]
    2048:	603b      	str	r3, [r7, #0]
    204a:	68fb      	ldr	r3, [r7, #12]
    204c:	627b      	str	r3, [r7, #36]	; 0x24
    204e:	68fb      	ldr	r3, [r7, #12]
    2050:	63fb      	str	r3, [r7, #60]	; 0x3c
    2052:	6a7b      	ldr	r3, [r7, #36]	; 0x24
    2054:	88db      	ldrh	r3, [r3, #6]
    2056:	461a      	mov	r2, r3
    2058:	6a7b      	ldr	r3, [r7, #36]	; 0x24
    205a:	795b      	ldrb	r3, [r3, #5]
    205c:	fb02 f303 	mul.w	r3, r2, r3
    2060:	3b04      	subs	r3, #4
    2062:	623b      	str	r3, [r7, #32]
    2064:	6a7b      	ldr	r3, [r7, #36]	; 0x24
    2066:	88db      	ldrh	r3, [r3, #6]
    2068:	61fb      	str	r3, [r7, #28]
    206a:	683b      	ldr	r3, [r7, #0]
    206c:	1d1a      	adds	r2, r3, #4
    206e:	69fb      	ldr	r3, [r7, #28]
    2070:	fbb2 f3f3 	udiv	r3, r2, r3
    2074:	63bb      	str	r3, [r7, #56]	; 0x38
    2076:	683b      	ldr	r3, [r7, #0]
    2078:	3304      	adds	r3, #4
    207a:	69fa      	ldr	r2, [r7, #28]
    207c:	fbb3 f2f2 	udiv	r2, r3, r2
    2080:	69f9      	ldr	r1, [r7, #28]
    2082:	fb01 f202 	mul.w	r2, r1, r2
    2086:	1a9b      	subs	r3, r3, r2
    2088:	637b      	str	r3, [r7, #52]	; 0x34
    208a:	687b      	ldr	r3, [r7, #4]
    208c:	681a      	ldr	r2, [r3, #0]
    208e:	683b      	ldr	r3, [r7, #0]
    2090:	4413      	add	r3, r2
    2092:	6a3a      	ldr	r2, [r7, #32]
    2094:	429a      	cmp	r2, r3
    2096:	d203      	bcs.n	20a0 <memobj_op+0x64>
    2098:	6a3a      	ldr	r2, [r7, #32]
    209a:	683b      	ldr	r3, [r7, #0]
    209c:	1ad3      	subs	r3, r2, r3
    209e:	e001      	b.n	20a4 <memobj_op+0x68>
    20a0:	687b      	ldr	r3, [r7, #4]
    20a2:	681b      	ldr	r3, [r3, #0]
    20a4:	633b      	str	r3, [r7, #48]	; 0x30
    20a6:	687b      	ldr	r3, [r7, #4]
    20a8:	6b3a      	ldr	r2, [r7, #48]	; 0x30
    20aa:	601a      	str	r2, [r3, #0]
    20ac:	e005      	b.n	20ba <memobj_op+0x7e>
    20ae:	6bfb      	ldr	r3, [r7, #60]	; 0x3c
    20b0:	681b      	ldr	r3, [r3, #0]
    20b2:	63fb      	str	r3, [r7, #60]	; 0x3c
    20b4:	6bbb      	ldr	r3, [r7, #56]	; 0x38
    20b6:	3b01      	subs	r3, #1
    20b8:	63bb      	str	r3, [r7, #56]	; 0x38
    20ba:	6bbb      	ldr	r3, [r7, #56]	; 0x38
    20bc:	2b00      	cmp	r3, #0
    20be:	d1f6      	bne.n	20ae <memobj_op+0x72>
    20c0:	2300      	movs	r3, #0
    20c2:	62fb      	str	r3, [r7, #44]	; 0x2c
    20c4:	69fa      	ldr	r2, [r7, #28]
    20c6:	6b7b      	ldr	r3, [r7, #52]	; 0x34
    20c8:	1ad3      	subs	r3, r2, r3
    20ca:	62bb      	str	r3, [r7, #40]	; 0x28
    20cc:	6aba      	ldr	r2, [r7, #40]	; 0x28
    20ce:	6b3b      	ldr	r3, [r7, #48]	; 0x30
    20d0:	4293      	cmp	r3, r2
    20d2:	bf28      	it	cs
    20d4:	4613      	movcs	r3, r2
    20d6:	62bb      	str	r3, [r7, #40]	; 0x28
    20d8:	e02a      	b.n	2130 <memobj_op+0xf4>
    20da:	68ba      	ldr	r2, [r7, #8]
    20dc:	6afb      	ldr	r3, [r7, #44]	; 0x2c
    20de:	4413      	add	r3, r2
    20e0:	61bb      	str	r3, [r7, #24]
    20e2:	6bfa      	ldr	r2, [r7, #60]	; 0x3c
    20e4:	6b7b      	ldr	r3, [r7, #52]	; 0x34
    20e6:	4413      	add	r3, r2
    20e8:	3304      	adds	r3, #4
    20ea:	617b      	str	r3, [r7, #20]
    20ec:	f897 3048 	ldrb.w	r3, [r7, #72]	; 0x48
    20f0:	2b00      	cmp	r3, #0
    20f2:	d005      	beq.n	2100 <memobj_op+0xc4>
    20f4:	6aba      	ldr	r2, [r7, #40]	; 0x28
    20f6:	6979      	ldr	r1, [r7, #20]
    20f8:	69b8      	ldr	r0, [r7, #24]
    20fa:	f002 f95b 	bl	43b4 <memcpy>
    20fe:	e004      	b.n	210a <memobj_op+0xce>
    2100:	6aba      	ldr	r2, [r7, #40]	; 0x28
    2102:	69b9      	ldr	r1, [r7, #24]
    2104:	6978      	ldr	r0, [r7, #20]
    2106:	f002 f955 	bl	43b4 <memcpy>
    210a:	2300      	movs	r3, #0
    210c:	637b      	str	r3, [r7, #52]	; 0x34
    210e:	6bfb      	ldr	r3, [r7, #60]	; 0x3c
    2110:	681b      	ldr	r3, [r3, #0]
    2112:	63fb      	str	r3, [r7, #60]	; 0x3c
    2114:	6b3a      	ldr	r2, [r7, #48]	; 0x30
    2116:	6abb      	ldr	r3, [r7, #40]	; 0x28
    2118:	1ad3      	subs	r3, r2, r3
    211a:	633b      	str	r3, [r7, #48]	; 0x30
    211c:	6afa      	ldr	r2, [r7, #44]	; 0x2c
    211e:	6abb      	ldr	r3, [r7, #40]	; 0x28
    2120:	4413      	add	r3, r2
    2122:	62fb      	str	r3, [r7, #44]	; 0x2c
    2124:	69fa      	ldr	r2, [r7, #28]
    2126:	6b3b      	ldr	r3, [r7, #48]	; 0x30
    2128:	4293      	cmp	r3, r2
    212a:	bf28      	it	cs
    212c:	4613      	movcs	r3, r2
    212e:	62bb      	str	r3, [r7, #40]	; 0x28
    2130:	6b3b      	ldr	r3, [r7, #48]	; 0x30
    2132:	2b00      	cmp	r3, #0
    2134:	d1d1      	bne.n	20da <memobj_op+0x9e>
    2136:	bf00      	nop
    2138:	bf00      	nop
    213a:	3740      	adds	r7, #64	; 0x40
    213c:	46bd      	mov	sp, r7
    213e:	bd80      	pop	{r7, pc}

00002140 <nrf_memobj_write>:
    2140:	b580      	push	{r7, lr}
    2142:	b088      	sub	sp, #32
    2144:	af02      	add	r7, sp, #8
    2146:	60f8      	str	r0, [r7, #12]
    2148:	60b9      	str	r1, [r7, #8]
    214a:	607a      	str	r2, [r7, #4]
    214c:	603b      	str	r3, [r7, #0]
    214e:	687b      	ldr	r3, [r7, #4]
    2150:	617b      	str	r3, [r7, #20]
    2152:	f107 0214 	add.w	r2, r7, #20
    2156:	2300      	movs	r3, #0
    2158:	9300      	str	r3, [sp, #0]
    215a:	683b      	ldr	r3, [r7, #0]
    215c:	68b9      	ldr	r1, [r7, #8]
    215e:	68f8      	ldr	r0, [r7, #12]
    2160:	f7ff ff6c 	bl	203c <memobj_op>
    2164:	bf00      	nop
    2166:	3718      	adds	r7, #24
    2168:	46bd      	mov	sp, r7
    216a:	bd80      	pop	{r7, pc}

0000216c <nrf_memobj_read>:
    216c:	b580      	push	{r7, lr}
    216e:	b088      	sub	sp, #32
    2170:	af02      	add	r7, sp, #8
    2172:	60f8      	str	r0, [r7, #12]
    2174:	60b9      	str	r1, [r7, #8]
    2176:	607a      	str	r2, [r7, #4]
    2178:	603b      	str	r3, [r7, #0]
    217a:	687b      	ldr	r3, [r7, #4]
    217c:	617b      	str	r3, [r7, #20]
    217e:	f107 0214 	add.w	r2, r7, #20
    2182:	2301      	movs	r3, #1
    2184:	9300      	str	r3, [sp, #0]
    2186:	683b      	ldr	r3, [r7, #0]
    2188:	68b9      	ldr	r1, [r7, #8]
    218a:	68f8      	ldr	r0, [r7, #12]
    218c:	f7ff ff56 	bl	203c <memobj_op>
    2190:	bf00      	nop
    2192:	3718      	adds	r7, #24
    2194:	46bd      	mov	sp, r7
    2196:	bd80      	pop	{r7, pc}

00002198 <__NVIC_ClearPendingIRQ>:
    2198:	b480      	push	{r7}
    219a:	b083      	sub	sp, #12
    219c:	af00      	add	r7, sp, #0
    219e:	4603      	mov	r3, r0
    21a0:	71fb      	strb	r3, [r7, #7]
    21a2:	f997 3007 	ldrsb.w	r3, [r7, #7]
    21a6:	2b00      	cmp	r3, #0
    21a8:	db0c      	blt.n	21c4 <__NVIC_ClearPendingIRQ+0x2c>
    21aa:	79fb      	ldrb	r3, [r7, #7]
    21ac:	f003 021f 	and.w	r2, r3, #31
    21b0:	4907      	ldr	r1, [pc, #28]	; (21d0 <__NVIC_ClearPendingIRQ+0x38>)
    21b2:	f997 3007 	ldrsb.w	r3, [r7, #7]
    21b6:	095b      	lsrs	r3, r3, #5
    21b8:	2001      	movs	r0, #1
    21ba:	fa00 f202 	lsl.w	r2, r0, r2
    21be:	3360      	adds	r3, #96	; 0x60
    21c0:	f841 2023 	str.w	r2, [r1, r3, lsl #2]
    21c4:	bf00      	nop
    21c6:	370c      	adds	r7, #12
    21c8:	46bd      	mov	sp, r7
    21ca:	f85d 7b04 	ldr.w	r7, [sp], #4
    21ce:	4770      	bx	lr
    21d0:	e000e100 	.word	0xe000e100

000021d4 <nrf_mtx_init>:
    21d4:	b480      	push	{r7}
    21d6:	b083      	sub	sp, #12
    21d8:	af00      	add	r7, sp, #0
    21da:	6078      	str	r0, [r7, #4]
    21dc:	687b      	ldr	r3, [r7, #4]
    21de:	2200      	movs	r2, #0
    21e0:	601a      	str	r2, [r3, #0]
    21e2:	f3bf 8f5f 	dmb	sy
    21e6:	bf00      	nop
    21e8:	bf00      	nop
    21ea:	370c      	adds	r7, #12
    21ec:	46bd      	mov	sp, r7
    21ee:	f85d 7b04 	ldr.w	r7, [sp], #4
    21f2:	4770      	bx	lr

000021f4 <pwr_mgmt_fpu_sleep_prepare>:
    21f4:	b580      	push	{r7, lr}
    21f6:	b082      	sub	sp, #8
    21f8:	af00      	add	r7, sp, #0
    21fa:	2000      	movs	r0, #0
    21fc:	f7ff f990 	bl	1520 <app_util_critical_region_enter>
    2200:	eef1 3a10 	vmrs	r3, fpscr
    2204:	607b      	str	r3, [r7, #4]
    2206:	687b      	ldr	r3, [r7, #4]
    2208:	f023 039f 	bic.w	r3, r3, #159	; 0x9f
    220c:	603b      	str	r3, [r7, #0]
    220e:	683b      	ldr	r3, [r7, #0]
    2210:	eee1 3a10 	vmsr	fpscr, r3
    2214:	bf00      	nop
    2216:	f3bf 8f5f 	dmb	sy
    221a:	bf00      	nop
    221c:	2026      	movs	r0, #38	; 0x26
    221e:	f7ff ffbb 	bl	2198 <__NVIC_ClearPendingIRQ>
    2222:	2000      	movs	r0, #0
    2224:	f7ff f986 	bl	1534 <app_util_critical_region_exit>
    2228:	bf00      	nop
    222a:	3708      	adds	r7, #8
    222c:	46bd      	mov	sp, r7
    222e:	bd80      	pop	{r7, pc}

00002230 <nrf_pwr_mgmt_init>:
    2230:	b580      	push	{r7, lr}
    2232:	af00      	add	r7, sp, #0
    2234:	4b06      	ldr	r3, [pc, #24]	; (2250 <nrf_pwr_mgmt_init+0x20>)
    2236:	2200      	movs	r2, #0
    2238:	701a      	strb	r2, [r3, #0]
    223a:	4806      	ldr	r0, [pc, #24]	; (2254 <nrf_pwr_mgmt_init+0x24>)
    223c:	f7ff ffca 	bl	21d4 <nrf_mtx_init>
    2240:	4905      	ldr	r1, [pc, #20]	; (2258 <nrf_pwr_mgmt_init+0x28>)
    2242:	4806      	ldr	r0, [pc, #24]	; (225c <nrf_pwr_mgmt_init+0x2c>)
    2244:	f000 f837 	bl	22b6 <nrf_section_iter_init>
    2248:	2300      	movs	r3, #0
    224a:	4618      	mov	r0, r3
    224c:	bd80      	pop	{r7, pc}
    224e:	bf00      	nop
    2250:	20000644 	.word	0x20000644
    2254:	20000640 	.word	0x20000640
    2258:	000046a0 	.word	0x000046a0
    225c:	20000648 	.word	0x20000648

00002260 <nrf_pwr_mgmt_run>:
    2260:	b580      	push	{r7, lr}
    2262:	af00      	add	r7, sp, #0
    2264:	f7ff ffc6 	bl	21f4 <pwr_mgmt_fpu_sleep_prepare>
    2268:	bf20      	wfe
    226a:	bf40      	sev
    226c:	bf20      	wfe
    226e:	bf00      	nop
    2270:	bd80      	pop	{r7, pc}

00002272 <nrf_ringbuf_init>:
    2272:	b480      	push	{r7}
    2274:	b083      	sub	sp, #12
    2276:	af00      	add	r7, sp, #0
    2278:	6078      	str	r0, [r7, #4]
    227a:	687b      	ldr	r3, [r7, #4]
    227c:	689b      	ldr	r3, [r3, #8]
    227e:	2200      	movs	r2, #0
    2280:	609a      	str	r2, [r3, #8]
    2282:	687b      	ldr	r3, [r7, #4]
    2284:	689b      	ldr	r3, [r3, #8]
    2286:	2200      	movs	r2, #0
    2288:	611a      	str	r2, [r3, #16]
    228a:	687b      	ldr	r3, [r7, #4]
    228c:	689b      	ldr	r3, [r3, #8]
    228e:	2200      	movs	r2, #0
    2290:	615a      	str	r2, [r3, #20]
    2292:	687b      	ldr	r3, [r7, #4]
    2294:	689b      	ldr	r3, [r3, #8]
    2296:	2200      	movs	r2, #0
    2298:	60da      	str	r2, [r3, #12]
    229a:	687b      	ldr	r3, [r7, #4]
    229c:	689b      	ldr	r3, [r3, #8]
    229e:	2200      	movs	r2, #0
    22a0:	605a      	str	r2, [r3, #4]
    22a2:	687b      	ldr	r3, [r7, #4]
    22a4:	689b      	ldr	r3, [r3, #8]
    22a6:	2200      	movs	r2, #0
    22a8:	601a      	str	r2, [r3, #0]
    22aa:	bf00      	nop
    22ac:	370c      	adds	r7, #12
    22ae:	46bd      	mov	sp, r7
    22b0:	f85d 7b04 	ldr.w	r7, [sp], #4
    22b4:	4770      	bx	lr

000022b6 <nrf_section_iter_init>:
    22b6:	b480      	push	{r7}
    22b8:	b083      	sub	sp, #12
    22ba:	af00      	add	r7, sp, #0
    22bc:	6078      	str	r0, [r7, #4]
    22be:	6039      	str	r1, [r7, #0]
    22c0:	687b      	ldr	r3, [r7, #4]
    22c2:	683a      	ldr	r2, [r7, #0]
    22c4:	601a      	str	r2, [r3, #0]
    22c6:	687b      	ldr	r3, [r7, #4]
    22c8:	681b      	ldr	r3, [r3, #0]
    22ca:	681a      	ldr	r2, [r3, #0]
    22cc:	687b      	ldr	r3, [r7, #4]
    22ce:	605a      	str	r2, [r3, #4]
    22d0:	687b      	ldr	r3, [r7, #4]
    22d2:	685a      	ldr	r2, [r3, #4]
    22d4:	687b      	ldr	r3, [r7, #4]
    22d6:	681b      	ldr	r3, [r3, #0]
    22d8:	685b      	ldr	r3, [r3, #4]
    22da:	429a      	cmp	r2, r3
    22dc:	d102      	bne.n	22e4 <nrf_section_iter_init+0x2e>
    22de:	687b      	ldr	r3, [r7, #4]
    22e0:	2200      	movs	r2, #0
    22e2:	605a      	str	r2, [r3, #4]
    22e4:	bf00      	nop
    22e6:	370c      	adds	r7, #12
    22e8:	46bd      	mov	sp, r7
    22ea:	f85d 7b04 	ldr.w	r7, [sp], #4
    22ee:	4770      	bx	lr

000022f0 <nrf_drv_ppi_init>:
    22f0:	b480      	push	{r7}
    22f2:	af00      	add	r7, sp, #0
    22f4:	4b07      	ldr	r3, [pc, #28]	; (2314 <nrf_drv_ppi_init+0x24>)
    22f6:	781b      	ldrb	r3, [r3, #0]
    22f8:	2b00      	cmp	r3, #0
    22fa:	d104      	bne.n	2306 <nrf_drv_ppi_init+0x16>
    22fc:	4b05      	ldr	r3, [pc, #20]	; (2314 <nrf_drv_ppi_init+0x24>)
    22fe:	2201      	movs	r2, #1
    2300:	701a      	strb	r2, [r3, #0]
    2302:	2300      	movs	r3, #0
    2304:	e000      	b.n	2308 <nrf_drv_ppi_init+0x18>
    2306:	2385      	movs	r3, #133	; 0x85
    2308:	4618      	mov	r0, r3
    230a:	46bd      	mov	sp, r7
    230c:	f85d 7b04 	ldr.w	r7, [sp], #4
    2310:	4770      	bx	lr
    2312:	bf00      	nop
    2314:	20000650 	.word	0x20000650

00002318 <nrf_ppi_channel_enable>:
    2318:	b480      	push	{r7}
    231a:	b083      	sub	sp, #12
    231c:	af00      	add	r7, sp, #0
    231e:	4603      	mov	r3, r0
    2320:	71fb      	strb	r3, [r7, #7]
    2322:	79fb      	ldrb	r3, [r7, #7]
    2324:	4a05      	ldr	r2, [pc, #20]	; (233c <nrf_ppi_channel_enable+0x24>)
    2326:	2101      	movs	r1, #1
    2328:	fa01 f303 	lsl.w	r3, r1, r3
    232c:	f8c2 3504 	str.w	r3, [r2, #1284]	; 0x504
    2330:	bf00      	nop
    2332:	370c      	adds	r7, #12
    2334:	46bd      	mov	sp, r7
    2336:	f85d 7b04 	ldr.w	r7, [sp], #4
    233a:	4770      	bx	lr
    233c:	4001f000 	.word	0x4001f000

00002340 <nrf_ppi_channel_endpoint_setup>:
    2340:	b480      	push	{r7}
    2342:	b085      	sub	sp, #20
    2344:	af00      	add	r7, sp, #0
    2346:	4603      	mov	r3, r0
    2348:	60b9      	str	r1, [r7, #8]
    234a:	607a      	str	r2, [r7, #4]
    234c:	73fb      	strb	r3, [r7, #15]
    234e:	4909      	ldr	r1, [pc, #36]	; (2374 <nrf_ppi_channel_endpoint_setup+0x34>)
    2350:	7bfb      	ldrb	r3, [r7, #15]
    2352:	33a2      	adds	r3, #162	; 0xa2
    2354:	68ba      	ldr	r2, [r7, #8]
    2356:	f841 2033 	str.w	r2, [r1, r3, lsl #3]
    235a:	4a06      	ldr	r2, [pc, #24]	; (2374 <nrf_ppi_channel_endpoint_setup+0x34>)
    235c:	7bfb      	ldrb	r3, [r7, #15]
    235e:	33a2      	adds	r3, #162	; 0xa2
    2360:	00db      	lsls	r3, r3, #3
    2362:	4413      	add	r3, r2
    2364:	687a      	ldr	r2, [r7, #4]
    2366:	605a      	str	r2, [r3, #4]
    2368:	bf00      	nop
    236a:	3714      	adds	r7, #20
    236c:	46bd      	mov	sp, r7
    236e:	f85d 7b04 	ldr.w	r7, [sp], #4
    2372:	4770      	bx	lr
    2374:	4001f000 	.word	0x4001f000

00002378 <nrfx_ppi_channel_to_mask>:
    2378:	b480      	push	{r7}
    237a:	b083      	sub	sp, #12
    237c:	af00      	add	r7, sp, #0
    237e:	4603      	mov	r3, r0
    2380:	71fb      	strb	r3, [r7, #7]
    2382:	79fb      	ldrb	r3, [r7, #7]
    2384:	2201      	movs	r2, #1
    2386:	fa02 f303 	lsl.w	r3, r2, r3
    238a:	4618      	mov	r0, r3
    238c:	370c      	adds	r7, #12
    238e:	46bd      	mov	sp, r7
    2390:	f85d 7b04 	ldr.w	r7, [sp], #4
    2394:	4770      	bx	lr

00002396 <is_programmable_app_channel>:
    2396:	b580      	push	{r7, lr}
    2398:	b082      	sub	sp, #8
    239a:	af00      	add	r7, sp, #0
    239c:	4603      	mov	r3, r0
    239e:	71fb      	strb	r3, [r7, #7]
    23a0:	79fb      	ldrb	r3, [r7, #7]
    23a2:	4618      	mov	r0, r3
    23a4:	f7ff ffe8 	bl	2378 <nrfx_ppi_channel_to_mask>
    23a8:	4603      	mov	r3, r0
    23aa:	f3c3 0313 	ubfx	r3, r3, #0, #20
    23ae:	2b00      	cmp	r3, #0
    23b0:	bf14      	ite	ne
    23b2:	2301      	movne	r3, #1
    23b4:	2300      	moveq	r3, #0
    23b6:	b2db      	uxtb	r3, r3
    23b8:	4618      	mov	r0, r3
    23ba:	3708      	adds	r7, #8
    23bc:	46bd      	mov	sp, r7
    23be:	bd80      	pop	{r7, pc}

000023c0 <are_app_channels>:
    23c0:	b480      	push	{r7}
    23c2:	b083      	sub	sp, #12
    23c4:	af00      	add	r7, sp, #0
    23c6:	6078      	str	r0, [r7, #4]
    23c8:	2301      	movs	r3, #1
    23ca:	4618      	mov	r0, r3
    23cc:	370c      	adds	r7, #12
    23ce:	46bd      	mov	sp, r7
    23d0:	f85d 7b04 	ldr.w	r7, [sp], #4
    23d4:	4770      	bx	lr

000023d6 <is_app_channel>:
    23d6:	b580      	push	{r7, lr}
    23d8:	b082      	sub	sp, #8
    23da:	af00      	add	r7, sp, #0
    23dc:	4603      	mov	r3, r0
    23de:	71fb      	strb	r3, [r7, #7]
    23e0:	79fb      	ldrb	r3, [r7, #7]
    23e2:	4618      	mov	r0, r3
    23e4:	f7ff ffc8 	bl	2378 <nrfx_ppi_channel_to_mask>
    23e8:	4603      	mov	r3, r0
    23ea:	4618      	mov	r0, r3
    23ec:	f7ff ffe8 	bl	23c0 <are_app_channels>
    23f0:	4603      	mov	r3, r0
    23f2:	4618      	mov	r0, r3
    23f4:	3708      	adds	r7, #8
    23f6:	46bd      	mov	sp, r7
    23f8:	bd80      	pop	{r7, pc}
	...

000023fc <is_allocated_channel>:
    23fc:	b580      	push	{r7, lr}
    23fe:	b082      	sub	sp, #8
    2400:	af00      	add	r7, sp, #0
    2402:	4603      	mov	r3, r0
    2404:	71fb      	strb	r3, [r7, #7]
    2406:	79fb      	ldrb	r3, [r7, #7]
    2408:	4618      	mov	r0, r3
    240a:	f7ff ffb5 	bl	2378 <nrfx_ppi_channel_to_mask>
    240e:	4602      	mov	r2, r0
    2410:	4b05      	ldr	r3, [pc, #20]	; (2428 <is_allocated_channel+0x2c>)
    2412:	681b      	ldr	r3, [r3, #0]
    2414:	4013      	ands	r3, r2
    2416:	2b00      	cmp	r3, #0
    2418:	bf14      	ite	ne
    241a:	2301      	movne	r3, #1
    241c:	2300      	moveq	r3, #0
    241e:	b2db      	uxtb	r3, r3
    2420:	4618      	mov	r0, r3
    2422:	3708      	adds	r7, #8
    2424:	46bd      	mov	sp, r7
    2426:	bd80      	pop	{r7, pc}
    2428:	20000654 	.word	0x20000654

0000242c <channel_allocated_set>:
    242c:	b580      	push	{r7, lr}
    242e:	b082      	sub	sp, #8
    2430:	af00      	add	r7, sp, #0
    2432:	4603      	mov	r3, r0
    2434:	71fb      	strb	r3, [r7, #7]
    2436:	79fb      	ldrb	r3, [r7, #7]
    2438:	4618      	mov	r0, r3
    243a:	f7ff ff9d 	bl	2378 <nrfx_ppi_channel_to_mask>
    243e:	4602      	mov	r2, r0
    2440:	4b04      	ldr	r3, [pc, #16]	; (2454 <channel_allocated_set+0x28>)
    2442:	681b      	ldr	r3, [r3, #0]
    2444:	4313      	orrs	r3, r2
    2446:	4a03      	ldr	r2, [pc, #12]	; (2454 <channel_allocated_set+0x28>)
    2448:	6013      	str	r3, [r2, #0]
    244a:	bf00      	nop
    244c:	3708      	adds	r7, #8
    244e:	46bd      	mov	sp, r7
    2450:	bd80      	pop	{r7, pc}
    2452:	bf00      	nop
    2454:	20000654 	.word	0x20000654

00002458 <nrfx_ppi_channel_alloc>:
    2458:	b580      	push	{r7, lr}
    245a:	b086      	sub	sp, #24
    245c:	af00      	add	r7, sp, #0
    245e:	6078      	str	r0, [r7, #4]
    2460:	2300      	movs	r3, #0
    2462:	613b      	str	r3, [r7, #16]
    2464:	2300      	movs	r3, #0
    2466:	617b      	str	r3, [r7, #20]
    2468:	2304      	movs	r3, #4
    246a:	613b      	str	r3, [r7, #16]
    246c:	4b1f      	ldr	r3, [pc, #124]	; (24ec <nrfx_ppi_channel_alloc+0x94>)
    246e:	617b      	str	r3, [r7, #20]
    2470:	2300      	movs	r3, #0
    2472:	73fb      	strb	r3, [r7, #15]
    2474:	e030      	b.n	24d8 <nrfx_ppi_channel_alloc+0x80>
    2476:	2000      	movs	r0, #0
    2478:	f7ff f852 	bl	1520 <app_util_critical_region_enter>
    247c:	7bfb      	ldrb	r3, [r7, #15]
    247e:	4618      	mov	r0, r3
    2480:	f7ff ff7a 	bl	2378 <nrfx_ppi_channel_to_mask>
    2484:	4602      	mov	r2, r0
    2486:	697b      	ldr	r3, [r7, #20]
    2488:	4013      	ands	r3, r2
    248a:	2b00      	cmp	r3, #0
    248c:	d012      	beq.n	24b4 <nrfx_ppi_channel_alloc+0x5c>
    248e:	7bfb      	ldrb	r3, [r7, #15]
    2490:	4618      	mov	r0, r3
    2492:	f7ff ffb3 	bl	23fc <is_allocated_channel>
    2496:	4603      	mov	r3, r0
    2498:	f083 0301 	eor.w	r3, r3, #1
    249c:	b2db      	uxtb	r3, r3
    249e:	2b00      	cmp	r3, #0
    24a0:	d008      	beq.n	24b4 <nrfx_ppi_channel_alloc+0x5c>
    24a2:	7bfb      	ldrb	r3, [r7, #15]
    24a4:	4618      	mov	r0, r3
    24a6:	f7ff ffc1 	bl	242c <channel_allocated_set>
    24aa:	687b      	ldr	r3, [r7, #4]
    24ac:	7bfa      	ldrb	r2, [r7, #15]
    24ae:	701a      	strb	r2, [r3, #0]
    24b0:	2300      	movs	r3, #0
    24b2:	613b      	str	r3, [r7, #16]
    24b4:	2000      	movs	r0, #0
    24b6:	f7ff f83d 	bl	1534 <app_util_critical_region_exit>
    24ba:	693b      	ldr	r3, [r7, #16]
    24bc:	2b00      	cmp	r3, #0
    24be:	d00f      	beq.n	24e0 <nrfx_ppi_channel_alloc+0x88>
    24c0:	7bfb      	ldrb	r3, [r7, #15]
    24c2:	4618      	mov	r0, r3
    24c4:	f7ff ff58 	bl	2378 <nrfx_ppi_channel_to_mask>
    24c8:	4603      	mov	r3, r0
    24ca:	43db      	mvns	r3, r3
    24cc:	697a      	ldr	r2, [r7, #20]
    24ce:	4013      	ands	r3, r2
    24d0:	617b      	str	r3, [r7, #20]
    24d2:	7bfb      	ldrb	r3, [r7, #15]
    24d4:	3301      	adds	r3, #1
    24d6:	73fb      	strb	r3, [r7, #15]
    24d8:	697b      	ldr	r3, [r7, #20]
    24da:	2b00      	cmp	r3, #0
    24dc:	d1cb      	bne.n	2476 <nrfx_ppi_channel_alloc+0x1e>
    24de:	e000      	b.n	24e2 <nrfx_ppi_channel_alloc+0x8a>
    24e0:	bf00      	nop
    24e2:	693b      	ldr	r3, [r7, #16]
    24e4:	4618      	mov	r0, r3
    24e6:	3718      	adds	r7, #24
    24e8:	46bd      	mov	sp, r7
    24ea:	bd80      	pop	{r7, pc}
    24ec:	000fffff 	.word	0x000fffff

000024f0 <nrfx_ppi_channel_assign>:
    24f0:	b580      	push	{r7, lr}
    24f2:	b086      	sub	sp, #24
    24f4:	af00      	add	r7, sp, #0
    24f6:	4603      	mov	r3, r0
    24f8:	60b9      	str	r1, [r7, #8]
    24fa:	607a      	str	r2, [r7, #4]
    24fc:	73fb      	strb	r3, [r7, #15]
    24fe:	68bb      	ldr	r3, [r7, #8]
    2500:	2b00      	cmp	r3, #0
    2502:	d002      	beq.n	250a <nrfx_ppi_channel_assign+0x1a>
    2504:	687b      	ldr	r3, [r7, #4]
    2506:	2b00      	cmp	r3, #0
    2508:	d101      	bne.n	250e <nrfx_ppi_channel_assign+0x1e>
    250a:	230e      	movs	r3, #14
    250c:	e022      	b.n	2554 <nrfx_ppi_channel_assign+0x64>
    250e:	2300      	movs	r3, #0
    2510:	617b      	str	r3, [r7, #20]
    2512:	7bfb      	ldrb	r3, [r7, #15]
    2514:	4618      	mov	r0, r3
    2516:	f7ff ff3e 	bl	2396 <is_programmable_app_channel>
    251a:	4603      	mov	r3, r0
    251c:	f083 0301 	eor.w	r3, r3, #1
    2520:	b2db      	uxtb	r3, r3
    2522:	2b00      	cmp	r3, #0
    2524:	d002      	beq.n	252c <nrfx_ppi_channel_assign+0x3c>
    2526:	2307      	movs	r3, #7
    2528:	617b      	str	r3, [r7, #20]
    252a:	e012      	b.n	2552 <nrfx_ppi_channel_assign+0x62>
    252c:	7bfb      	ldrb	r3, [r7, #15]
    252e:	4618      	mov	r0, r3
    2530:	f7ff ff64 	bl	23fc <is_allocated_channel>
    2534:	4603      	mov	r3, r0
    2536:	f083 0301 	eor.w	r3, r3, #1
    253a:	b2db      	uxtb	r3, r3
    253c:	2b00      	cmp	r3, #0
    253e:	d002      	beq.n	2546 <nrfx_ppi_channel_assign+0x56>
    2540:	2308      	movs	r3, #8
    2542:	617b      	str	r3, [r7, #20]
    2544:	e005      	b.n	2552 <nrfx_ppi_channel_assign+0x62>
    2546:	7bfb      	ldrb	r3, [r7, #15]
    2548:	687a      	ldr	r2, [r7, #4]
    254a:	68b9      	ldr	r1, [r7, #8]
    254c:	4618      	mov	r0, r3
    254e:	f7ff fef7 	bl	2340 <nrf_ppi_channel_endpoint_setup>
    2552:	697b      	ldr	r3, [r7, #20]
    2554:	4618      	mov	r0, r3
    2556:	3718      	adds	r7, #24
    2558:	46bd      	mov	sp, r7
    255a:	bd80      	pop	{r7, pc}

0000255c <nrfx_ppi_channel_enable>:
    255c:	b580      	push	{r7, lr}
    255e:	b084      	sub	sp, #16
    2560:	af00      	add	r7, sp, #0
    2562:	4603      	mov	r3, r0
    2564:	71fb      	strb	r3, [r7, #7]
    2566:	2300      	movs	r3, #0
    2568:	60fb      	str	r3, [r7, #12]
    256a:	79fb      	ldrb	r3, [r7, #7]
    256c:	4618      	mov	r0, r3
    256e:	f7ff ff32 	bl	23d6 <is_app_channel>
    2572:	4603      	mov	r3, r0
    2574:	f083 0301 	eor.w	r3, r3, #1
    2578:	b2db      	uxtb	r3, r3
    257a:	2b00      	cmp	r3, #0
    257c:	d002      	beq.n	2584 <nrfx_ppi_channel_enable+0x28>
    257e:	2307      	movs	r3, #7
    2580:	60fb      	str	r3, [r7, #12]
    2582:	e017      	b.n	25b4 <nrfx_ppi_channel_enable+0x58>
    2584:	79fb      	ldrb	r3, [r7, #7]
    2586:	4618      	mov	r0, r3
    2588:	f7ff ff05 	bl	2396 <is_programmable_app_channel>
    258c:	4603      	mov	r3, r0
    258e:	2b00      	cmp	r3, #0
    2590:	d00c      	beq.n	25ac <nrfx_ppi_channel_enable+0x50>
    2592:	79fb      	ldrb	r3, [r7, #7]
    2594:	4618      	mov	r0, r3
    2596:	f7ff ff31 	bl	23fc <is_allocated_channel>
    259a:	4603      	mov	r3, r0
    259c:	f083 0301 	eor.w	r3, r3, #1
    25a0:	b2db      	uxtb	r3, r3
    25a2:	2b00      	cmp	r3, #0
    25a4:	d002      	beq.n	25ac <nrfx_ppi_channel_enable+0x50>
    25a6:	2308      	movs	r3, #8
    25a8:	60fb      	str	r3, [r7, #12]
    25aa:	e003      	b.n	25b4 <nrfx_ppi_channel_enable+0x58>
    25ac:	79fb      	ldrb	r3, [r7, #7]
    25ae:	4618      	mov	r0, r3
    25b0:	f7ff feb2 	bl	2318 <nrf_ppi_channel_enable>
    25b4:	68fb      	ldr	r3, [r7, #12]
    25b6:	4618      	mov	r0, r3
    25b8:	3710      	adds	r7, #16
    25ba:	46bd      	mov	sp, r7
    25bc:	bd80      	pop	{r7, pc}
	...

000025c0 <UARTE0_UART0_IRQHandler>:
    25c0:	b580      	push	{r7, lr}
    25c2:	af00      	add	r7, sp, #0
    25c4:	4b01      	ldr	r3, [pc, #4]	; (25cc <UARTE0_UART0_IRQHandler+0xc>)
    25c6:	681b      	ldr	r3, [r3, #0]
    25c8:	4798      	blx	r3
    25ca:	bd80      	pop	{r7, pc}
    25cc:	20000658 	.word	0x20000658

000025d0 <__NVIC_EnableIRQ>:
    25d0:	b480      	push	{r7}
    25d2:	b083      	sub	sp, #12
    25d4:	af00      	add	r7, sp, #0
    25d6:	4603      	mov	r3, r0
    25d8:	71fb      	strb	r3, [r7, #7]
    25da:	f997 3007 	ldrsb.w	r3, [r7, #7]
    25de:	2b00      	cmp	r3, #0
    25e0:	db0b      	blt.n	25fa <__NVIC_EnableIRQ+0x2a>
    25e2:	79fb      	ldrb	r3, [r7, #7]
    25e4:	f003 021f 	and.w	r2, r3, #31
    25e8:	4907      	ldr	r1, [pc, #28]	; (2608 <__NVIC_EnableIRQ+0x38>)
    25ea:	f997 3007 	ldrsb.w	r3, [r7, #7]
    25ee:	095b      	lsrs	r3, r3, #5
    25f0:	2001      	movs	r0, #1
    25f2:	fa00 f202 	lsl.w	r2, r0, r2
    25f6:	f841 2023 	str.w	r2, [r1, r3, lsl #2]
    25fa:	bf00      	nop
    25fc:	370c      	adds	r7, #12
    25fe:	46bd      	mov	sp, r7
    2600:	f85d 7b04 	ldr.w	r7, [sp], #4
    2604:	4770      	bx	lr
    2606:	bf00      	nop
    2608:	e000e100 	.word	0xe000e100

0000260c <__NVIC_SetPriority>:
    260c:	b480      	push	{r7}
    260e:	b083      	sub	sp, #12
    2610:	af00      	add	r7, sp, #0
    2612:	4603      	mov	r3, r0
    2614:	6039      	str	r1, [r7, #0]
    2616:	71fb      	strb	r3, [r7, #7]
    2618:	f997 3007 	ldrsb.w	r3, [r7, #7]
    261c:	2b00      	cmp	r3, #0
    261e:	db0a      	blt.n	2636 <__NVIC_SetPriority+0x2a>
    2620:	683b      	ldr	r3, [r7, #0]
    2622:	b2da      	uxtb	r2, r3
    2624:	490c      	ldr	r1, [pc, #48]	; (2658 <__NVIC_SetPriority+0x4c>)
    2626:	f997 3007 	ldrsb.w	r3, [r7, #7]
    262a:	0152      	lsls	r2, r2, #5
    262c:	b2d2      	uxtb	r2, r2
    262e:	440b      	add	r3, r1
    2630:	f883 2300 	strb.w	r2, [r3, #768]	; 0x300
    2634:	e00a      	b.n	264c <__NVIC_SetPriority+0x40>
    2636:	683b      	ldr	r3, [r7, #0]
    2638:	b2da      	uxtb	r2, r3
    263a:	4908      	ldr	r1, [pc, #32]	; (265c <__NVIC_SetPriority+0x50>)
    263c:	79fb      	ldrb	r3, [r7, #7]
    263e:	f003 030f 	and.w	r3, r3, #15
    2642:	3b04      	subs	r3, #4
    2644:	0152      	lsls	r2, r2, #5
    2646:	b2d2      	uxtb	r2, r2
    2648:	440b      	add	r3, r1
    264a:	761a      	strb	r2, [r3, #24]
    264c:	bf00      	nop
    264e:	370c      	adds	r7, #12
    2650:	46bd      	mov	sp, r7
    2652:	f85d 7b04 	ldr.w	r7, [sp], #4
    2656:	4770      	bx	lr
    2658:	e000e100 	.word	0xe000e100
    265c:	e000ed00 	.word	0xe000ed00

00002660 <_NRFX_IRQ_PRIORITY_SET>:
    2660:	b580      	push	{r7, lr}
    2662:	b082      	sub	sp, #8
    2664:	af00      	add	r7, sp, #0
    2666:	4603      	mov	r3, r0
    2668:	460a      	mov	r2, r1
    266a:	71fb      	strb	r3, [r7, #7]
    266c:	4613      	mov	r3, r2
    266e:	71bb      	strb	r3, [r7, #6]
    2670:	79ba      	ldrb	r2, [r7, #6]
    2672:	f997 3007 	ldrsb.w	r3, [r7, #7]
    2676:	4611      	mov	r1, r2
    2678:	4618      	mov	r0, r3
    267a:	f7ff ffc7 	bl	260c <__NVIC_SetPriority>
    267e:	bf00      	nop
    2680:	3708      	adds	r7, #8
    2682:	46bd      	mov	sp, r7
    2684:	bd80      	pop	{r7, pc}

00002686 <_NRFX_IRQ_ENABLE>:
    2686:	b580      	push	{r7, lr}
    2688:	b082      	sub	sp, #8
    268a:	af00      	add	r7, sp, #0
    268c:	4603      	mov	r3, r0
    268e:	71fb      	strb	r3, [r7, #7]
    2690:	f997 3007 	ldrsb.w	r3, [r7, #7]
    2694:	4618      	mov	r0, r3
    2696:	f7ff ff9b 	bl	25d0 <__NVIC_EnableIRQ>
    269a:	bf00      	nop
    269c:	3708      	adds	r7, #8
    269e:	46bd      	mov	sp, r7
    26a0:	bd80      	pop	{r7, pc}

000026a2 <nrf_saadc_task_trigger>:
    26a2:	b480      	push	{r7}
    26a4:	b083      	sub	sp, #12
    26a6:	af00      	add	r7, sp, #0
    26a8:	4603      	mov	r3, r0
    26aa:	71fb      	strb	r3, [r7, #7]
    26ac:	79fb      	ldrb	r3, [r7, #7]
    26ae:	f103 4380 	add.w	r3, r3, #1073741824	; 0x40000000
    26b2:	f503 43e0 	add.w	r3, r3, #28672	; 0x7000
    26b6:	2201      	movs	r2, #1
    26b8:	601a      	str	r2, [r3, #0]
    26ba:	bf00      	nop
    26bc:	370c      	adds	r7, #12
    26be:	46bd      	mov	sp, r7
    26c0:	f85d 7b04 	ldr.w	r7, [sp], #4
    26c4:	4770      	bx	lr

000026c6 <nrf_saadc_task_address_get>:
    26c6:	b480      	push	{r7}
    26c8:	b083      	sub	sp, #12
    26ca:	af00      	add	r7, sp, #0
    26cc:	4603      	mov	r3, r0
    26ce:	71fb      	strb	r3, [r7, #7]
    26d0:	79fb      	ldrb	r3, [r7, #7]
    26d2:	f103 4380 	add.w	r3, r3, #1073741824	; 0x40000000
    26d6:	f503 43e0 	add.w	r3, r3, #28672	; 0x7000
    26da:	4618      	mov	r0, r3
    26dc:	370c      	adds	r7, #12
    26de:	46bd      	mov	sp, r7
    26e0:	f85d 7b04 	ldr.w	r7, [sp], #4
    26e4:	4770      	bx	lr

000026e6 <nrf_saadc_event_check>:
    26e6:	b480      	push	{r7}
    26e8:	b083      	sub	sp, #12
    26ea:	af00      	add	r7, sp, #0
    26ec:	4603      	mov	r3, r0
    26ee:	80fb      	strh	r3, [r7, #6]
    26f0:	88fb      	ldrh	r3, [r7, #6]
    26f2:	f103 4380 	add.w	r3, r3, #1073741824	; 0x40000000
    26f6:	f503 43e0 	add.w	r3, r3, #28672	; 0x7000
    26fa:	681b      	ldr	r3, [r3, #0]
    26fc:	2b00      	cmp	r3, #0
    26fe:	bf14      	ite	ne
    2700:	2301      	movne	r3, #1
    2702:	2300      	moveq	r3, #0
    2704:	b2db      	uxtb	r3, r3
    2706:	4618      	mov	r0, r3
    2708:	370c      	adds	r7, #12
    270a:	46bd      	mov	sp, r7
    270c:	f85d 7b04 	ldr.w	r7, [sp], #4
    2710:	4770      	bx	lr

00002712 <nrf_saadc_event_clear>:
    2712:	b480      	push	{r7}
    2714:	b085      	sub	sp, #20
    2716:	af00      	add	r7, sp, #0
    2718:	4603      	mov	r3, r0
    271a:	80fb      	strh	r3, [r7, #6]
    271c:	88fb      	ldrh	r3, [r7, #6]
    271e:	f103 4380 	add.w	r3, r3, #1073741824	; 0x40000000
    2722:	f503 43e0 	add.w	r3, r3, #28672	; 0x7000
    2726:	2200      	movs	r2, #0
    2728:	601a      	str	r2, [r3, #0]
    272a:	88fb      	ldrh	r3, [r7, #6]
    272c:	f103 4380 	add.w	r3, r3, #1073741824	; 0x40000000
    2730:	f503 43e0 	add.w	r3, r3, #28672	; 0x7000
    2734:	681b      	ldr	r3, [r3, #0]
    2736:	60fb      	str	r3, [r7, #12]
    2738:	68fb      	ldr	r3, [r7, #12]
    273a:	bf00      	nop
    273c:	3714      	adds	r7, #20
    273e:	46bd      	mov	sp, r7
    2740:	f85d 7b04 	ldr.w	r7, [sp], #4
    2744:	4770      	bx	lr
	...

00002748 <nrf_saadc_channel_input_set>:
    2748:	b480      	push	{r7}
    274a:	b083      	sub	sp, #12
    274c:	af00      	add	r7, sp, #0
    274e:	4603      	mov	r3, r0
    2750:	71fb      	strb	r3, [r7, #7]
    2752:	460b      	mov	r3, r1
    2754:	71bb      	strb	r3, [r7, #6]
    2756:	4613      	mov	r3, r2
    2758:	717b      	strb	r3, [r7, #5]
    275a:	490a      	ldr	r1, [pc, #40]	; (2784 <nrf_saadc_channel_input_set+0x3c>)
    275c:	79fb      	ldrb	r3, [r7, #7]
    275e:	797a      	ldrb	r2, [r7, #5]
    2760:	3351      	adds	r3, #81	; 0x51
    2762:	011b      	lsls	r3, r3, #4
    2764:	440b      	add	r3, r1
    2766:	3304      	adds	r3, #4
    2768:	601a      	str	r2, [r3, #0]
    276a:	4906      	ldr	r1, [pc, #24]	; (2784 <nrf_saadc_channel_input_set+0x3c>)
    276c:	79fb      	ldrb	r3, [r7, #7]
    276e:	79ba      	ldrb	r2, [r7, #6]
    2770:	3351      	adds	r3, #81	; 0x51
    2772:	011b      	lsls	r3, r3, #4
    2774:	440b      	add	r3, r1
    2776:	601a      	str	r2, [r3, #0]
    2778:	bf00      	nop
    277a:	370c      	adds	r7, #12
    277c:	46bd      	mov	sp, r7
    277e:	f85d 7b04 	ldr.w	r7, [sp], #4
    2782:	4770      	bx	lr
    2784:	40007000 	.word	0x40007000

00002788 <nrf_saadc_int_enable>:
    2788:	b480      	push	{r7}
    278a:	b083      	sub	sp, #12
    278c:	af00      	add	r7, sp, #0
    278e:	6078      	str	r0, [r7, #4]
    2790:	4a04      	ldr	r2, [pc, #16]	; (27a4 <nrf_saadc_int_enable+0x1c>)
    2792:	687b      	ldr	r3, [r7, #4]
    2794:	f8c2 3304 	str.w	r3, [r2, #772]	; 0x304
    2798:	bf00      	nop
    279a:	370c      	adds	r7, #12
    279c:	46bd      	mov	sp, r7
    279e:	f85d 7b04 	ldr.w	r7, [sp], #4
    27a2:	4770      	bx	lr
    27a4:	40007000 	.word	0x40007000

000027a8 <nrf_saadc_int_disable>:
    27a8:	b480      	push	{r7}
    27aa:	b083      	sub	sp, #12
    27ac:	af00      	add	r7, sp, #0
    27ae:	6078      	str	r0, [r7, #4]
    27b0:	4a04      	ldr	r2, [pc, #16]	; (27c4 <nrf_saadc_int_disable+0x1c>)
    27b2:	687b      	ldr	r3, [r7, #4]
    27b4:	f8c2 3308 	str.w	r3, [r2, #776]	; 0x308
    27b8:	bf00      	nop
    27ba:	370c      	adds	r7, #12
    27bc:	46bd      	mov	sp, r7
    27be:	f85d 7b04 	ldr.w	r7, [sp], #4
    27c2:	4770      	bx	lr
    27c4:	40007000 	.word	0x40007000

000027c8 <nrf_saadc_enable>:
    27c8:	b480      	push	{r7}
    27ca:	af00      	add	r7, sp, #0
    27cc:	4b04      	ldr	r3, [pc, #16]	; (27e0 <nrf_saadc_enable+0x18>)
    27ce:	2201      	movs	r2, #1
    27d0:	f8c3 2500 	str.w	r2, [r3, #1280]	; 0x500
    27d4:	bf00      	nop
    27d6:	46bd      	mov	sp, r7
    27d8:	f85d 7b04 	ldr.w	r7, [sp], #4
    27dc:	4770      	bx	lr
    27de:	bf00      	nop
    27e0:	40007000 	.word	0x40007000

000027e4 <nrf_saadc_disable>:
    27e4:	b480      	push	{r7}
    27e6:	af00      	add	r7, sp, #0
    27e8:	4b04      	ldr	r3, [pc, #16]	; (27fc <nrf_saadc_disable+0x18>)
    27ea:	2200      	movs	r2, #0
    27ec:	f8c3 2500 	str.w	r2, [r3, #1280]	; 0x500
    27f0:	bf00      	nop
    27f2:	46bd      	mov	sp, r7
    27f4:	f85d 7b04 	ldr.w	r7, [sp], #4
    27f8:	4770      	bx	lr
    27fa:	bf00      	nop
    27fc:	40007000 	.word	0x40007000

00002800 <nrf_saadc_buffer_init>:
    2800:	b480      	push	{r7}
    2802:	b083      	sub	sp, #12
    2804:	af00      	add	r7, sp, #0
    2806:	6078      	str	r0, [r7, #4]
    2808:	6039      	str	r1, [r7, #0]
    280a:	4a07      	ldr	r2, [pc, #28]	; (2828 <nrf_saadc_buffer_init+0x28>)
    280c:	687b      	ldr	r3, [r7, #4]
    280e:	f8c2 362c 	str.w	r3, [r2, #1580]	; 0x62c
    2812:	4a05      	ldr	r2, [pc, #20]	; (2828 <nrf_saadc_buffer_init+0x28>)
    2814:	683b      	ldr	r3, [r7, #0]
    2816:	f8c2 3630 	str.w	r3, [r2, #1584]	; 0x630
    281a:	bf00      	nop
    281c:	370c      	adds	r7, #12
    281e:	46bd      	mov	sp, r7
    2820:	f85d 7b04 	ldr.w	r7, [sp], #4
    2824:	4770      	bx	lr
    2826:	bf00      	nop
    2828:	40007000 	.word	0x40007000

0000282c <nrf_saadc_resolution_set>:
    282c:	b480      	push	{r7}
    282e:	b083      	sub	sp, #12
    2830:	af00      	add	r7, sp, #0
    2832:	4603      	mov	r3, r0
    2834:	71fb      	strb	r3, [r7, #7]
    2836:	4a05      	ldr	r2, [pc, #20]	; (284c <nrf_saadc_resolution_set+0x20>)
    2838:	79fb      	ldrb	r3, [r7, #7]
    283a:	f8c2 35f0 	str.w	r3, [r2, #1520]	; 0x5f0
    283e:	bf00      	nop
    2840:	370c      	adds	r7, #12
    2842:	46bd      	mov	sp, r7
    2844:	f85d 7b04 	ldr.w	r7, [sp], #4
    2848:	4770      	bx	lr
    284a:	bf00      	nop
    284c:	40007000 	.word	0x40007000

00002850 <nrf_saadc_oversample_set>:
    2850:	b480      	push	{r7}
    2852:	b083      	sub	sp, #12
    2854:	af00      	add	r7, sp, #0
    2856:	4603      	mov	r3, r0
    2858:	71fb      	strb	r3, [r7, #7]
    285a:	4a05      	ldr	r2, [pc, #20]	; (2870 <nrf_saadc_oversample_set+0x20>)
    285c:	79fb      	ldrb	r3, [r7, #7]
    285e:	f8c2 35f4 	str.w	r3, [r2, #1524]	; 0x5f4
    2862:	bf00      	nop
    2864:	370c      	adds	r7, #12
    2866:	46bd      	mov	sp, r7
    2868:	f85d 7b04 	ldr.w	r7, [sp], #4
    286c:	4770      	bx	lr
    286e:	bf00      	nop
    2870:	40007000 	.word	0x40007000

00002874 <nrf_saadc_channel_init>:
    2874:	b580      	push	{r7, lr}
    2876:	b082      	sub	sp, #8
    2878:	af00      	add	r7, sp, #0
    287a:	4603      	mov	r3, r0
    287c:	6039      	str	r1, [r7, #0]
    287e:	71fb      	strb	r3, [r7, #7]
    2880:	683b      	ldr	r3, [r7, #0]
    2882:	781b      	ldrb	r3, [r3, #0]
    2884:	f003 0203 	and.w	r2, r3, #3
    2888:	683b      	ldr	r3, [r7, #0]
    288a:	785b      	ldrb	r3, [r3, #1]
    288c:	011b      	lsls	r3, r3, #4
    288e:	f003 0330 	and.w	r3, r3, #48	; 0x30
    2892:	431a      	orrs	r2, r3
    2894:	683b      	ldr	r3, [r7, #0]
    2896:	789b      	ldrb	r3, [r3, #2]
    2898:	021b      	lsls	r3, r3, #8
    289a:	f403 63e0 	and.w	r3, r3, #1792	; 0x700
    289e:	431a      	orrs	r2, r3
    28a0:	683b      	ldr	r3, [r7, #0]
    28a2:	78db      	ldrb	r3, [r3, #3]
    28a4:	031b      	lsls	r3, r3, #12
    28a6:	f403 5380 	and.w	r3, r3, #4096	; 0x1000
    28aa:	431a      	orrs	r2, r3
    28ac:	683b      	ldr	r3, [r7, #0]
    28ae:	791b      	ldrb	r3, [r3, #4]
    28b0:	041b      	lsls	r3, r3, #16
    28b2:	f403 23e0 	and.w	r3, r3, #458752	; 0x70000
    28b6:	431a      	orrs	r2, r3
    28b8:	683b      	ldr	r3, [r7, #0]
    28ba:	795b      	ldrb	r3, [r3, #5]
    28bc:	051b      	lsls	r3, r3, #20
    28be:	f403 1380 	and.w	r3, r3, #1048576	; 0x100000
    28c2:	ea42 0103 	orr.w	r1, r2, r3
    28c6:	683b      	ldr	r3, [r7, #0]
    28c8:	799b      	ldrb	r3, [r3, #6]
    28ca:	061b      	lsls	r3, r3, #24
    28cc:	f003 7280 	and.w	r2, r3, #16777216	; 0x1000000
    28d0:	4809      	ldr	r0, [pc, #36]	; (28f8 <nrf_saadc_channel_init+0x84>)
    28d2:	79fb      	ldrb	r3, [r7, #7]
    28d4:	430a      	orrs	r2, r1
    28d6:	011b      	lsls	r3, r3, #4
    28d8:	4403      	add	r3, r0
    28da:	f503 63a3 	add.w	r3, r3, #1304	; 0x518
    28de:	601a      	str	r2, [r3, #0]
    28e0:	683b      	ldr	r3, [r7, #0]
    28e2:	79d9      	ldrb	r1, [r3, #7]
    28e4:	683b      	ldr	r3, [r7, #0]
    28e6:	7a1a      	ldrb	r2, [r3, #8]
    28e8:	79fb      	ldrb	r3, [r7, #7]
    28ea:	4618      	mov	r0, r3
    28ec:	f7ff ff2c 	bl	2748 <nrf_saadc_channel_input_set>
    28f0:	bf00      	nop
    28f2:	3708      	adds	r7, #8
    28f4:	46bd      	mov	sp, r7
    28f6:	bd80      	pop	{r7, pc}
    28f8:	40007000 	.word	0x40007000

000028fc <SAADC_IRQHandler>:
    28fc:	b580      	push	{r7, lr}
    28fe:	b08e      	sub	sp, #56	; 0x38
    2900:	af00      	add	r7, sp, #0
    2902:	f44f 7082 	mov.w	r0, #260	; 0x104
    2906:	f7ff feee 	bl	26e6 <nrf_saadc_event_check>
    290a:	4603      	mov	r3, r0
    290c:	2b00      	cmp	r3, #0
    290e:	d045      	beq.n	299c <SAADC_IRQHandler+0xa0>
    2910:	f44f 7082 	mov.w	r0, #260	; 0x104
    2914:	f7ff fefd 	bl	2712 <nrf_saadc_event_clear>
    2918:	4b8b      	ldr	r3, [pc, #556]	; (2b48 <SAADC_IRQHandler+0x24c>)
    291a:	f893 302e 	ldrb.w	r3, [r3, #46]	; 0x2e
    291e:	f083 0301 	eor.w	r3, r3, #1
    2922:	b2db      	uxtb	r3, r3
    2924:	2b00      	cmp	r3, #0
    2926:	d104      	bne.n	2932 <SAADC_IRQHandler+0x36>
    2928:	4b87      	ldr	r3, [pc, #540]	; (2b48 <SAADC_IRQHandler+0x24c>)
    292a:	f893 302f 	ldrb.w	r3, [r3, #47]	; 0x2f
    292e:	2b00      	cmp	r3, #0
    2930:	d034      	beq.n	299c <SAADC_IRQHandler+0xa0>
    2932:	2300      	movs	r3, #0
    2934:	773b      	strb	r3, [r7, #28]
    2936:	4b84      	ldr	r3, [pc, #528]	; (2b48 <SAADC_IRQHandler+0x24c>)
    2938:	685b      	ldr	r3, [r3, #4]
    293a:	623b      	str	r3, [r7, #32]
    293c:	4b82      	ldr	r3, [pc, #520]	; (2b48 <SAADC_IRQHandler+0x24c>)
    293e:	891b      	ldrh	r3, [r3, #8]
    2940:	b29b      	uxth	r3, r3
    2942:	84bb      	strh	r3, [r7, #36]	; 0x24
    2944:	4b80      	ldr	r3, [pc, #512]	; (2b48 <SAADC_IRQHandler+0x24c>)
    2946:	68db      	ldr	r3, [r3, #12]
    2948:	2b00      	cmp	r3, #0
    294a:	d103      	bne.n	2954 <SAADC_IRQHandler+0x58>
    294c:	4b7e      	ldr	r3, [pc, #504]	; (2b48 <SAADC_IRQHandler+0x24c>)
    294e:	2200      	movs	r2, #0
    2950:	741a      	strb	r2, [r3, #16]
    2952:	e019      	b.n	2988 <SAADC_IRQHandler+0x8c>
    2954:	4b7c      	ldr	r3, [pc, #496]	; (2b48 <SAADC_IRQHandler+0x24c>)
    2956:	8b1a      	ldrh	r2, [r3, #24]
    2958:	4b7b      	ldr	r3, [pc, #492]	; (2b48 <SAADC_IRQHandler+0x24c>)
    295a:	835a      	strh	r2, [r3, #26]
    295c:	4b7a      	ldr	r3, [pc, #488]	; (2b48 <SAADC_IRQHandler+0x24c>)
    295e:	68db      	ldr	r3, [r3, #12]
    2960:	4a79      	ldr	r2, [pc, #484]	; (2b48 <SAADC_IRQHandler+0x24c>)
    2962:	6053      	str	r3, [r2, #4]
    2964:	4b78      	ldr	r3, [pc, #480]	; (2b48 <SAADC_IRQHandler+0x24c>)
    2966:	8b1a      	ldrh	r2, [r3, #24]
    2968:	4b77      	ldr	r3, [pc, #476]	; (2b48 <SAADC_IRQHandler+0x24c>)
    296a:	811a      	strh	r2, [r3, #8]
    296c:	4b76      	ldr	r3, [pc, #472]	; (2b48 <SAADC_IRQHandler+0x24c>)
    296e:	2200      	movs	r2, #0
    2970:	60da      	str	r2, [r3, #12]
    2972:	4b75      	ldr	r3, [pc, #468]	; (2b48 <SAADC_IRQHandler+0x24c>)
    2974:	f893 302e 	ldrb.w	r3, [r3, #46]	; 0x2e
    2978:	f083 0301 	eor.w	r3, r3, #1
    297c:	b2db      	uxtb	r3, r3
    297e:	2b00      	cmp	r3, #0
    2980:	d002      	beq.n	2988 <SAADC_IRQHandler+0x8c>
    2982:	2000      	movs	r0, #0
    2984:	f7ff fe8d 	bl	26a2 <nrf_saadc_task_trigger>
    2988:	4b6f      	ldr	r3, [pc, #444]	; (2b48 <SAADC_IRQHandler+0x24c>)
    298a:	681b      	ldr	r3, [r3, #0]
    298c:	f107 021c 	add.w	r2, r7, #28
    2990:	4610      	mov	r0, r2
    2992:	4798      	blx	r3
    2994:	4b6c      	ldr	r3, [pc, #432]	; (2b48 <SAADC_IRQHandler+0x24c>)
    2996:	2200      	movs	r2, #0
    2998:	f883 202f 	strb.w	r2, [r3, #47]	; 0x2f
    299c:	4b6a      	ldr	r3, [pc, #424]	; (2b48 <SAADC_IRQHandler+0x24c>)
    299e:	f893 302e 	ldrb.w	r3, [r3, #46]	; 0x2e
    29a2:	2b00      	cmp	r3, #0
    29a4:	d062      	beq.n	2a6c <SAADC_IRQHandler+0x170>
    29a6:	f44f 7080 	mov.w	r0, #256	; 0x100
    29aa:	f7ff fe9c 	bl	26e6 <nrf_saadc_event_check>
    29ae:	4603      	mov	r3, r0
    29b0:	2b00      	cmp	r3, #0
    29b2:	d05b      	beq.n	2a6c <SAADC_IRQHandler+0x170>
    29b4:	f44f 7080 	mov.w	r0, #256	; 0x100
    29b8:	f7ff feab 	bl	2712 <nrf_saadc_event_clear>
    29bc:	4b62      	ldr	r3, [pc, #392]	; (2b48 <SAADC_IRQHandler+0x24c>)
    29be:	8b5a      	ldrh	r2, [r3, #26]
    29c0:	4b61      	ldr	r3, [pc, #388]	; (2b48 <SAADC_IRQHandler+0x24c>)
    29c2:	f893 302d 	ldrb.w	r3, [r3, #45]	; 0x2d
    29c6:	b29b      	uxth	r3, r3
    29c8:	429a      	cmp	r2, r3
    29ca:	d91c      	bls.n	2a06 <SAADC_IRQHandler+0x10a>
    29cc:	4b5e      	ldr	r3, [pc, #376]	; (2b48 <SAADC_IRQHandler+0x24c>)
    29ce:	8b5a      	ldrh	r2, [r3, #26]
    29d0:	4b5d      	ldr	r3, [pc, #372]	; (2b48 <SAADC_IRQHandler+0x24c>)
    29d2:	f893 302d 	ldrb.w	r3, [r3, #45]	; 0x2d
    29d6:	b29b      	uxth	r3, r3
    29d8:	1ad3      	subs	r3, r2, r3
    29da:	b29a      	uxth	r2, r3
    29dc:	4b5a      	ldr	r3, [pc, #360]	; (2b48 <SAADC_IRQHandler+0x24c>)
    29de:	835a      	strh	r2, [r3, #26]
    29e0:	4b59      	ldr	r3, [pc, #356]	; (2b48 <SAADC_IRQHandler+0x24c>)
    29e2:	685a      	ldr	r2, [r3, #4]
    29e4:	4b58      	ldr	r3, [pc, #352]	; (2b48 <SAADC_IRQHandler+0x24c>)
    29e6:	891b      	ldrh	r3, [r3, #8]
    29e8:	b29b      	uxth	r3, r3
    29ea:	4619      	mov	r1, r3
    29ec:	4b56      	ldr	r3, [pc, #344]	; (2b48 <SAADC_IRQHandler+0x24c>)
    29ee:	8b5b      	ldrh	r3, [r3, #26]
    29f0:	1acb      	subs	r3, r1, r3
    29f2:	005b      	lsls	r3, r3, #1
    29f4:	4413      	add	r3, r2
    29f6:	4a54      	ldr	r2, [pc, #336]	; (2b48 <SAADC_IRQHandler+0x24c>)
    29f8:	f892 202d 	ldrb.w	r2, [r2, #45]	; 0x2d
    29fc:	4611      	mov	r1, r2
    29fe:	4618      	mov	r0, r3
    2a00:	f7ff fefe 	bl	2800 <nrf_saadc_buffer_init>
    2a04:	e02b      	b.n	2a5e <SAADC_IRQHandler+0x162>
    2a06:	4b50      	ldr	r3, [pc, #320]	; (2b48 <SAADC_IRQHandler+0x24c>)
    2a08:	8b5a      	ldrh	r2, [r3, #26]
    2a0a:	4b4f      	ldr	r3, [pc, #316]	; (2b48 <SAADC_IRQHandler+0x24c>)
    2a0c:	f893 302d 	ldrb.w	r3, [r3, #45]	; 0x2d
    2a10:	b29b      	uxth	r3, r3
    2a12:	429a      	cmp	r2, r3
    2a14:	d114      	bne.n	2a40 <SAADC_IRQHandler+0x144>
    2a16:	4b4c      	ldr	r3, [pc, #304]	; (2b48 <SAADC_IRQHandler+0x24c>)
    2a18:	68db      	ldr	r3, [r3, #12]
    2a1a:	2b00      	cmp	r3, #0
    2a1c:	d010      	beq.n	2a40 <SAADC_IRQHandler+0x144>
    2a1e:	4b4a      	ldr	r3, [pc, #296]	; (2b48 <SAADC_IRQHandler+0x24c>)
    2a20:	2201      	movs	r2, #1
    2a22:	f883 202f 	strb.w	r2, [r3, #47]	; 0x2f
    2a26:	4b48      	ldr	r3, [pc, #288]	; (2b48 <SAADC_IRQHandler+0x24c>)
    2a28:	2200      	movs	r2, #0
    2a2a:	835a      	strh	r2, [r3, #26]
    2a2c:	4b46      	ldr	r3, [pc, #280]	; (2b48 <SAADC_IRQHandler+0x24c>)
    2a2e:	68db      	ldr	r3, [r3, #12]
    2a30:	4a45      	ldr	r2, [pc, #276]	; (2b48 <SAADC_IRQHandler+0x24c>)
    2a32:	f892 202d 	ldrb.w	r2, [r2, #45]	; 0x2d
    2a36:	4611      	mov	r1, r2
    2a38:	4618      	mov	r0, r3
    2a3a:	f7ff fee1 	bl	2800 <nrf_saadc_buffer_init>
    2a3e:	e00e      	b.n	2a5e <SAADC_IRQHandler+0x162>
    2a40:	4b41      	ldr	r3, [pc, #260]	; (2b48 <SAADC_IRQHandler+0x24c>)
    2a42:	8b5a      	ldrh	r2, [r3, #26]
    2a44:	4b40      	ldr	r3, [pc, #256]	; (2b48 <SAADC_IRQHandler+0x24c>)
    2a46:	f893 302d 	ldrb.w	r3, [r3, #45]	; 0x2d
    2a4a:	b29b      	uxth	r3, r3
    2a4c:	429a      	cmp	r2, r3
    2a4e:	d106      	bne.n	2a5e <SAADC_IRQHandler+0x162>
    2a50:	4b3d      	ldr	r3, [pc, #244]	; (2b48 <SAADC_IRQHandler+0x24c>)
    2a52:	2201      	movs	r2, #1
    2a54:	f883 202f 	strb.w	r2, [r3, #47]	; 0x2f
    2a58:	4b3b      	ldr	r3, [pc, #236]	; (2b48 <SAADC_IRQHandler+0x24c>)
    2a5a:	2200      	movs	r2, #0
    2a5c:	835a      	strh	r2, [r3, #26]
    2a5e:	f44f 7082 	mov.w	r0, #260	; 0x104
    2a62:	f7ff fe56 	bl	2712 <nrf_saadc_event_clear>
    2a66:	2004      	movs	r0, #4
    2a68:	f7ff fe1b 	bl	26a2 <nrf_saadc_task_trigger>
    2a6c:	f44f 7088 	mov.w	r0, #272	; 0x110
    2a70:	f7ff fe39 	bl	26e6 <nrf_saadc_event_check>
    2a74:	4603      	mov	r3, r0
    2a76:	2b00      	cmp	r3, #0
    2a78:	d00e      	beq.n	2a98 <SAADC_IRQHandler+0x19c>
    2a7a:	f44f 7088 	mov.w	r0, #272	; 0x110
    2a7e:	f7ff fe48 	bl	2712 <nrf_saadc_event_clear>
    2a82:	4b31      	ldr	r3, [pc, #196]	; (2b48 <SAADC_IRQHandler+0x24c>)
    2a84:	2200      	movs	r2, #0
    2a86:	741a      	strb	r2, [r3, #16]
    2a88:	2302      	movs	r3, #2
    2a8a:	743b      	strb	r3, [r7, #16]
    2a8c:	4b2e      	ldr	r3, [pc, #184]	; (2b48 <SAADC_IRQHandler+0x24c>)
    2a8e:	681b      	ldr	r3, [r3, #0]
    2a90:	f107 0210 	add.w	r2, r7, #16
    2a94:	4610      	mov	r0, r2
    2a96:	4798      	blx	r3
    2a98:	f44f 708a 	mov.w	r0, #276	; 0x114
    2a9c:	f7ff fe23 	bl	26e6 <nrf_saadc_event_check>
    2aa0:	4603      	mov	r3, r0
    2aa2:	2b00      	cmp	r3, #0
    2aa4:	d007      	beq.n	2ab6 <SAADC_IRQHandler+0x1ba>
    2aa6:	f44f 708a 	mov.w	r0, #276	; 0x114
    2aaa:	f7ff fe32 	bl	2712 <nrf_saadc_event_clear>
    2aae:	4b26      	ldr	r3, [pc, #152]	; (2b48 <SAADC_IRQHandler+0x24c>)
    2ab0:	2200      	movs	r2, #0
    2ab2:	741a      	strb	r2, [r3, #16]
    2ab4:	e044      	b.n	2b40 <SAADC_IRQHandler+0x244>
    2ab6:	4b24      	ldr	r3, [pc, #144]	; (2b48 <SAADC_IRQHandler+0x24c>)
    2ab8:	695b      	ldr	r3, [r3, #20]
    2aba:	637b      	str	r3, [r7, #52]	; 0x34
    2abc:	e03d      	b.n	2b3a <SAADC_IRQHandler+0x23e>
    2abe:	6b7b      	ldr	r3, [r7, #52]	; 0x34
    2ac0:	62bb      	str	r3, [r7, #40]	; 0x28
    2ac2:	6abb      	ldr	r3, [r7, #40]	; 0x28
    2ac4:	2b00      	cmp	r3, #0
    2ac6:	d101      	bne.n	2acc <SAADC_IRQHandler+0x1d0>
    2ac8:	2320      	movs	r3, #32
    2aca:	e003      	b.n	2ad4 <SAADC_IRQHandler+0x1d8>
    2acc:	6abb      	ldr	r3, [r7, #40]	; 0x28
    2ace:	fab3 f383 	clz	r3, r3
    2ad2:	b2db      	uxtb	r3, r3
    2ad4:	633b      	str	r3, [r7, #48]	; 0x30
    2ad6:	f04f 4200 	mov.w	r2, #2147483648	; 0x80000000
    2ada:	6b3b      	ldr	r3, [r7, #48]	; 0x30
    2adc:	fa22 f303 	lsr.w	r3, r2, r3
    2ae0:	43db      	mvns	r3, r3
    2ae2:	6b7a      	ldr	r2, [r7, #52]	; 0x34
    2ae4:	4013      	ands	r3, r2
    2ae6:	637b      	str	r3, [r7, #52]	; 0x34
    2ae8:	6b3b      	ldr	r3, [r7, #48]	; 0x30
    2aea:	b29b      	uxth	r3, r3
    2aec:	3346      	adds	r3, #70	; 0x46
    2aee:	b29b      	uxth	r3, r3
    2af0:	009b      	lsls	r3, r3, #2
    2af2:	85fb      	strh	r3, [r7, #46]	; 0x2e
    2af4:	8dfb      	ldrh	r3, [r7, #46]	; 0x2e
    2af6:	4618      	mov	r0, r3
    2af8:	f7ff fdf5 	bl	26e6 <nrf_saadc_event_check>
    2afc:	4603      	mov	r3, r0
    2afe:	2b00      	cmp	r3, #0
    2b00:	d01b      	beq.n	2b3a <SAADC_IRQHandler+0x23e>
    2b02:	8dfb      	ldrh	r3, [r7, #46]	; 0x2e
    2b04:	4618      	mov	r0, r3
    2b06:	f7ff fe04 	bl	2712 <nrf_saadc_event_clear>
    2b0a:	2301      	movs	r3, #1
    2b0c:	713b      	strb	r3, [r7, #4]
    2b0e:	8dfb      	ldrh	r3, [r7, #46]	; 0x2e
    2b10:	f5a3 738c 	sub.w	r3, r3, #280	; 0x118
    2b14:	08db      	lsrs	r3, r3, #3
    2b16:	b2db      	uxtb	r3, r3
    2b18:	723b      	strb	r3, [r7, #8]
    2b1a:	8dfb      	ldrh	r3, [r7, #46]	; 0x2e
    2b1c:	f5a3 738c 	sub.w	r3, r3, #280	; 0x118
    2b20:	f003 0304 	and.w	r3, r3, #4
    2b24:	2b00      	cmp	r3, #0
    2b26:	bf0c      	ite	eq
    2b28:	2301      	moveq	r3, #1
    2b2a:	2300      	movne	r3, #0
    2b2c:	b2db      	uxtb	r3, r3
    2b2e:	727b      	strb	r3, [r7, #9]
    2b30:	4b05      	ldr	r3, [pc, #20]	; (2b48 <SAADC_IRQHandler+0x24c>)
    2b32:	681b      	ldr	r3, [r3, #0]
    2b34:	1d3a      	adds	r2, r7, #4
    2b36:	4610      	mov	r0, r2
    2b38:	4798      	blx	r3
    2b3a:	6b7b      	ldr	r3, [r7, #52]	; 0x34
    2b3c:	2b00      	cmp	r3, #0
    2b3e:	d1be      	bne.n	2abe <SAADC_IRQHandler+0x1c2>
    2b40:	bf00      	nop
    2b42:	3738      	adds	r7, #56	; 0x38
    2b44:	46bd      	mov	sp, r7
    2b46:	bd80      	pop	{r7, pc}
    2b48:	20000660 	.word	0x20000660

00002b4c <nrfx_saadc_init>:
    2b4c:	b580      	push	{r7, lr}
    2b4e:	b084      	sub	sp, #16
    2b50:	af00      	add	r7, sp, #0
    2b52:	6078      	str	r0, [r7, #4]
    2b54:	6039      	str	r1, [r7, #0]
    2b56:	4b2d      	ldr	r3, [pc, #180]	; (2c0c <nrfx_saadc_init+0xc0>)
    2b58:	f893 302c 	ldrb.w	r3, [r3, #44]	; 0x2c
    2b5c:	2b00      	cmp	r3, #0
    2b5e:	d003      	beq.n	2b68 <nrfx_saadc_init+0x1c>
    2b60:	2308      	movs	r3, #8
    2b62:	60fb      	str	r3, [r7, #12]
    2b64:	68fb      	ldr	r3, [r7, #12]
    2b66:	e04c      	b.n	2c02 <nrfx_saadc_init+0xb6>
    2b68:	4a28      	ldr	r2, [pc, #160]	; (2c0c <nrfx_saadc_init+0xc0>)
    2b6a:	683b      	ldr	r3, [r7, #0]
    2b6c:	6013      	str	r3, [r2, #0]
    2b6e:	687b      	ldr	r3, [r7, #4]
    2b70:	781b      	ldrb	r3, [r3, #0]
    2b72:	4618      	mov	r0, r3
    2b74:	f7ff fe5a 	bl	282c <nrf_saadc_resolution_set>
    2b78:	687b      	ldr	r3, [r7, #4]
    2b7a:	785b      	ldrb	r3, [r3, #1]
    2b7c:	4618      	mov	r0, r3
    2b7e:	f7ff fe67 	bl	2850 <nrf_saadc_oversample_set>
    2b82:	687b      	ldr	r3, [r7, #4]
    2b84:	78da      	ldrb	r2, [r3, #3]
    2b86:	4b21      	ldr	r3, [pc, #132]	; (2c0c <nrfx_saadc_init+0xc0>)
    2b88:	f883 202e 	strb.w	r2, [r3, #46]	; 0x2e
    2b8c:	4b1f      	ldr	r3, [pc, #124]	; (2c0c <nrfx_saadc_init+0xc0>)
    2b8e:	2201      	movs	r2, #1
    2b90:	f883 202c 	strb.w	r2, [r3, #44]	; 0x2c
    2b94:	4b1d      	ldr	r3, [pc, #116]	; (2c0c <nrfx_saadc_init+0xc0>)
    2b96:	2200      	movs	r2, #0
    2b98:	741a      	strb	r2, [r3, #16]
    2b9a:	4b1c      	ldr	r3, [pc, #112]	; (2c0c <nrfx_saadc_init+0xc0>)
    2b9c:	2200      	movs	r2, #0
    2b9e:	f883 202d 	strb.w	r2, [r3, #45]	; 0x2d
    2ba2:	4b1a      	ldr	r3, [pc, #104]	; (2c0c <nrfx_saadc_init+0xc0>)
    2ba4:	2200      	movs	r2, #0
    2ba6:	615a      	str	r2, [r3, #20]
    2ba8:	4b18      	ldr	r3, [pc, #96]	; (2c0c <nrfx_saadc_init+0xc0>)
    2baa:	2200      	movs	r2, #0
    2bac:	f883 202f 	strb.w	r2, [r3, #47]	; 0x2f
    2bb0:	f06f 4000 	mvn.w	r0, #2147483648	; 0x80000000
    2bb4:	f7ff fdf8 	bl	27a8 <nrf_saadc_int_disable>
    2bb8:	f44f 7082 	mov.w	r0, #260	; 0x104
    2bbc:	f7ff fda9 	bl	2712 <nrf_saadc_event_clear>
    2bc0:	f44f 7080 	mov.w	r0, #256	; 0x100
    2bc4:	f7ff fda5 	bl	2712 <nrf_saadc_event_clear>
    2bc8:	f44f 708a 	mov.w	r0, #276	; 0x114
    2bcc:	f7ff fda1 	bl	2712 <nrf_saadc_event_clear>
    2bd0:	687b      	ldr	r3, [r7, #4]
    2bd2:	789b      	ldrb	r3, [r3, #2]
    2bd4:	4619      	mov	r1, r3
    2bd6:	2007      	movs	r0, #7
    2bd8:	f7ff fd42 	bl	2660 <_NRFX_IRQ_PRIORITY_SET>
    2bdc:	2007      	movs	r0, #7
    2bde:	f7ff fd52 	bl	2686 <_NRFX_IRQ_ENABLE>
    2be2:	2002      	movs	r0, #2
    2be4:	f7ff fdd0 	bl	2788 <nrf_saadc_int_enable>
    2be8:	4b08      	ldr	r3, [pc, #32]	; (2c0c <nrfx_saadc_init+0xc0>)
    2bea:	f893 302e 	ldrb.w	r3, [r3, #46]	; 0x2e
    2bee:	2b00      	cmp	r3, #0
    2bf0:	d002      	beq.n	2bf8 <nrfx_saadc_init+0xac>
    2bf2:	2001      	movs	r0, #1
    2bf4:	f7ff fdc8 	bl	2788 <nrf_saadc_int_enable>
    2bf8:	f7ff fde6 	bl	27c8 <nrf_saadc_enable>
    2bfc:	2300      	movs	r3, #0
    2bfe:	60fb      	str	r3, [r7, #12]
    2c00:	68fb      	ldr	r3, [r7, #12]
    2c02:	4618      	mov	r0, r3
    2c04:	3710      	adds	r7, #16
    2c06:	46bd      	mov	sp, r7
    2c08:	bd80      	pop	{r7, pc}
    2c0a:	bf00      	nop
    2c0c:	20000660 	.word	0x20000660

00002c10 <nrfx_saadc_channel_init>:
    2c10:	b580      	push	{r7, lr}
    2c12:	b084      	sub	sp, #16
    2c14:	af00      	add	r7, sp, #0
    2c16:	4603      	mov	r3, r0
    2c18:	6039      	str	r1, [r7, #0]
    2c1a:	71fb      	strb	r3, [r7, #7]
    2c1c:	4b25      	ldr	r3, [pc, #148]	; (2cb4 <nrfx_saadc_channel_init+0xa4>)
    2c1e:	7c1b      	ldrb	r3, [r3, #16]
    2c20:	b2db      	uxtb	r3, r3
    2c22:	2b00      	cmp	r3, #0
    2c24:	d003      	beq.n	2c2e <nrfx_saadc_channel_init+0x1e>
    2c26:	2311      	movs	r3, #17
    2c28:	60fb      	str	r3, [r7, #12]
    2c2a:	68fb      	ldr	r3, [r7, #12]
    2c2c:	e03d      	b.n	2caa <nrfx_saadc_channel_init+0x9a>
    2c2e:	683b      	ldr	r3, [r7, #0]
    2c30:	791b      	ldrb	r3, [r3, #4]
    2c32:	2b00      	cmp	r3, #0
    2c34:	d003      	beq.n	2c3e <nrfx_saadc_channel_init+0x2e>
    2c36:	683b      	ldr	r3, [r7, #0]
    2c38:	791b      	ldrb	r3, [r3, #4]
    2c3a:	2b01      	cmp	r3, #1
    2c3c:	d101      	bne.n	2c42 <nrfx_saadc_channel_init+0x32>
    2c3e:	f7ff fdd1 	bl	27e4 <nrf_saadc_disable>
    2c42:	79fb      	ldrb	r3, [r7, #7]
    2c44:	4a1b      	ldr	r2, [pc, #108]	; (2cb4 <nrfx_saadc_channel_init+0xa4>)
    2c46:	330c      	adds	r3, #12
    2c48:	005b      	lsls	r3, r3, #1
    2c4a:	4413      	add	r3, r2
    2c4c:	791b      	ldrb	r3, [r3, #4]
    2c4e:	2b00      	cmp	r3, #0
    2c50:	d107      	bne.n	2c62 <nrfx_saadc_channel_init+0x52>
    2c52:	4b18      	ldr	r3, [pc, #96]	; (2cb4 <nrfx_saadc_channel_init+0xa4>)
    2c54:	f893 302d 	ldrb.w	r3, [r3, #45]	; 0x2d
    2c58:	3301      	adds	r3, #1
    2c5a:	b2da      	uxtb	r2, r3
    2c5c:	4b15      	ldr	r3, [pc, #84]	; (2cb4 <nrfx_saadc_channel_init+0xa4>)
    2c5e:	f883 202d 	strb.w	r2, [r3, #45]	; 0x2d
    2c62:	79fb      	ldrb	r3, [r7, #7]
    2c64:	683a      	ldr	r2, [r7, #0]
    2c66:	79d1      	ldrb	r1, [r2, #7]
    2c68:	4a12      	ldr	r2, [pc, #72]	; (2cb4 <nrfx_saadc_channel_init+0xa4>)
    2c6a:	330c      	adds	r3, #12
    2c6c:	005b      	lsls	r3, r3, #1
    2c6e:	4413      	add	r3, r2
    2c70:	460a      	mov	r2, r1
    2c72:	711a      	strb	r2, [r3, #4]
    2c74:	79fb      	ldrb	r3, [r7, #7]
    2c76:	683a      	ldr	r2, [r7, #0]
    2c78:	7a11      	ldrb	r1, [r2, #8]
    2c7a:	4a0e      	ldr	r2, [pc, #56]	; (2cb4 <nrfx_saadc_channel_init+0xa4>)
    2c7c:	330c      	adds	r3, #12
    2c7e:	005b      	lsls	r3, r3, #1
    2c80:	4413      	add	r3, r2
    2c82:	460a      	mov	r2, r1
    2c84:	715a      	strb	r2, [r3, #5]
    2c86:	79fb      	ldrb	r3, [r7, #7]
    2c88:	6839      	ldr	r1, [r7, #0]
    2c8a:	4618      	mov	r0, r3
    2c8c:	f7ff fdf2 	bl	2874 <nrf_saadc_channel_init>
    2c90:	683b      	ldr	r3, [r7, #0]
    2c92:	791b      	ldrb	r3, [r3, #4]
    2c94:	2b00      	cmp	r3, #0
    2c96:	d003      	beq.n	2ca0 <nrfx_saadc_channel_init+0x90>
    2c98:	683b      	ldr	r3, [r7, #0]
    2c9a:	791b      	ldrb	r3, [r3, #4]
    2c9c:	2b01      	cmp	r3, #1
    2c9e:	d101      	bne.n	2ca4 <nrfx_saadc_channel_init+0x94>
    2ca0:	f7ff fd92 	bl	27c8 <nrf_saadc_enable>
    2ca4:	2300      	movs	r3, #0
    2ca6:	60fb      	str	r3, [r7, #12]
    2ca8:	68fb      	ldr	r3, [r7, #12]
    2caa:	4618      	mov	r0, r3
    2cac:	3710      	adds	r7, #16
    2cae:	46bd      	mov	sp, r7
    2cb0:	bd80      	pop	{r7, pc}
    2cb2:	bf00      	nop
    2cb4:	20000660 	.word	0x20000660

00002cb8 <nrfx_saadc_sample_task_get>:
    2cb8:	b580      	push	{r7, lr}
    2cba:	af00      	add	r7, sp, #0
    2cbc:	4b06      	ldr	r3, [pc, #24]	; (2cd8 <nrfx_saadc_sample_task_get+0x20>)
    2cbe:	f893 302e 	ldrb.w	r3, [r3, #46]	; 0x2e
    2cc2:	2b00      	cmp	r3, #0
    2cc4:	d001      	beq.n	2cca <nrfx_saadc_sample_task_get+0x12>
    2cc6:	2300      	movs	r3, #0
    2cc8:	e000      	b.n	2ccc <nrfx_saadc_sample_task_get+0x14>
    2cca:	2304      	movs	r3, #4
    2ccc:	4618      	mov	r0, r3
    2cce:	f7ff fcfa 	bl	26c6 <nrf_saadc_task_address_get>
    2cd2:	4603      	mov	r3, r0
    2cd4:	4618      	mov	r0, r3
    2cd6:	bd80      	pop	{r7, pc}
    2cd8:	20000660 	.word	0x20000660

00002cdc <nrfx_saadc_buffer_convert>:
    2cdc:	b580      	push	{r7, lr}
    2cde:	b084      	sub	sp, #16
    2ce0:	af00      	add	r7, sp, #0
    2ce2:	6078      	str	r0, [r7, #4]
    2ce4:	460b      	mov	r3, r1
    2ce6:	807b      	strh	r3, [r7, #2]
    2ce8:	2012      	movs	r0, #18
    2cea:	f7ff fd5d 	bl	27a8 <nrf_saadc_int_disable>
    2cee:	4b3b      	ldr	r3, [pc, #236]	; (2ddc <nrfx_saadc_buffer_convert+0x100>)
    2cf0:	7c1b      	ldrb	r3, [r3, #16]
    2cf2:	b2db      	uxtb	r3, r3
    2cf4:	2b02      	cmp	r3, #2
    2cf6:	d106      	bne.n	2d06 <nrfx_saadc_buffer_convert+0x2a>
    2cf8:	2012      	movs	r0, #18
    2cfa:	f7ff fd45 	bl	2788 <nrf_saadc_int_enable>
    2cfe:	2311      	movs	r3, #17
    2d00:	60fb      	str	r3, [r7, #12]
    2d02:	68fb      	ldr	r3, [r7, #12]
    2d04:	e066      	b.n	2dd4 <nrfx_saadc_buffer_convert+0xf8>
    2d06:	4b35      	ldr	r3, [pc, #212]	; (2ddc <nrfx_saadc_buffer_convert+0x100>)
    2d08:	7c1b      	ldrb	r3, [r3, #16]
    2d0a:	b2db      	uxtb	r3, r3
    2d0c:	2b01      	cmp	r3, #1
    2d0e:	d133      	bne.n	2d78 <nrfx_saadc_buffer_convert+0x9c>
    2d10:	4b32      	ldr	r3, [pc, #200]	; (2ddc <nrfx_saadc_buffer_convert+0x100>)
    2d12:	68db      	ldr	r3, [r3, #12]
    2d14:	2b00      	cmp	r3, #0
    2d16:	d006      	beq.n	2d26 <nrfx_saadc_buffer_convert+0x4a>
    2d18:	2002      	movs	r0, #2
    2d1a:	f7ff fd35 	bl	2788 <nrf_saadc_int_enable>
    2d1e:	2311      	movs	r3, #17
    2d20:	60fb      	str	r3, [r7, #12]
    2d22:	68fb      	ldr	r3, [r7, #12]
    2d24:	e056      	b.n	2dd4 <nrfx_saadc_buffer_convert+0xf8>
    2d26:	4a2d      	ldr	r2, [pc, #180]	; (2ddc <nrfx_saadc_buffer_convert+0x100>)
    2d28:	687b      	ldr	r3, [r7, #4]
    2d2a:	60d3      	str	r3, [r2, #12]
    2d2c:	4a2b      	ldr	r2, [pc, #172]	; (2ddc <nrfx_saadc_buffer_convert+0x100>)
    2d2e:	887b      	ldrh	r3, [r7, #2]
    2d30:	8313      	strh	r3, [r2, #24]
    2d32:	4b2a      	ldr	r3, [pc, #168]	; (2ddc <nrfx_saadc_buffer_convert+0x100>)
    2d34:	f893 302e 	ldrb.w	r3, [r3, #46]	; 0x2e
    2d38:	f083 0301 	eor.w	r3, r3, #1
    2d3c:	b2db      	uxtb	r3, r3
    2d3e:	2b00      	cmp	r3, #0
    2d40:	d013      	beq.n	2d6a <nrfx_saadc_buffer_convert+0x8e>
    2d42:	bf00      	nop
    2d44:	f44f 7080 	mov.w	r0, #256	; 0x100
    2d48:	f7ff fccd 	bl	26e6 <nrf_saadc_event_check>
    2d4c:	4603      	mov	r3, r0
    2d4e:	f083 0301 	eor.w	r3, r3, #1
    2d52:	b2db      	uxtb	r3, r3
    2d54:	2b00      	cmp	r3, #0
    2d56:	d1f5      	bne.n	2d44 <nrfx_saadc_buffer_convert+0x68>
    2d58:	f44f 7080 	mov.w	r0, #256	; 0x100
    2d5c:	f7ff fcd9 	bl	2712 <nrf_saadc_event_clear>
    2d60:	887b      	ldrh	r3, [r7, #2]
    2d62:	4619      	mov	r1, r3
    2d64:	6878      	ldr	r0, [r7, #4]
    2d66:	f7ff fd4b 	bl	2800 <nrf_saadc_buffer_init>
    2d6a:	2002      	movs	r0, #2
    2d6c:	f7ff fd0c 	bl	2788 <nrf_saadc_int_enable>
    2d70:	2300      	movs	r3, #0
    2d72:	60fb      	str	r3, [r7, #12]
    2d74:	68fb      	ldr	r3, [r7, #12]
    2d76:	e02d      	b.n	2dd4 <nrfx_saadc_buffer_convert+0xf8>
    2d78:	2002      	movs	r0, #2
    2d7a:	f7ff fd05 	bl	2788 <nrf_saadc_int_enable>
    2d7e:	4b17      	ldr	r3, [pc, #92]	; (2ddc <nrfx_saadc_buffer_convert+0x100>)
    2d80:	2201      	movs	r2, #1
    2d82:	741a      	strb	r2, [r3, #16]
    2d84:	4a15      	ldr	r2, [pc, #84]	; (2ddc <nrfx_saadc_buffer_convert+0x100>)
    2d86:	687b      	ldr	r3, [r7, #4]
    2d88:	6053      	str	r3, [r2, #4]
    2d8a:	4a14      	ldr	r2, [pc, #80]	; (2ddc <nrfx_saadc_buffer_convert+0x100>)
    2d8c:	887b      	ldrh	r3, [r7, #2]
    2d8e:	8113      	strh	r3, [r2, #8]
    2d90:	4b12      	ldr	r3, [pc, #72]	; (2ddc <nrfx_saadc_buffer_convert+0x100>)
    2d92:	2200      	movs	r2, #0
    2d94:	60da      	str	r2, [r3, #12]
    2d96:	4b11      	ldr	r3, [pc, #68]	; (2ddc <nrfx_saadc_buffer_convert+0x100>)
    2d98:	f893 302e 	ldrb.w	r3, [r3, #46]	; 0x2e
    2d9c:	2b00      	cmp	r3, #0
    2d9e:	d00a      	beq.n	2db6 <nrfx_saadc_buffer_convert+0xda>
    2da0:	4a0e      	ldr	r2, [pc, #56]	; (2ddc <nrfx_saadc_buffer_convert+0x100>)
    2da2:	887b      	ldrh	r3, [r7, #2]
    2da4:	8353      	strh	r3, [r2, #26]
    2da6:	4b0d      	ldr	r3, [pc, #52]	; (2ddc <nrfx_saadc_buffer_convert+0x100>)
    2da8:	f893 302d 	ldrb.w	r3, [r3, #45]	; 0x2d
    2dac:	4619      	mov	r1, r3
    2dae:	6878      	ldr	r0, [r7, #4]
    2db0:	f7ff fd26 	bl	2800 <nrf_saadc_buffer_init>
    2db4:	e00b      	b.n	2dce <nrfx_saadc_buffer_convert+0xf2>
    2db6:	887b      	ldrh	r3, [r7, #2]
    2db8:	4619      	mov	r1, r3
    2dba:	6878      	ldr	r0, [r7, #4]
    2dbc:	f7ff fd20 	bl	2800 <nrf_saadc_buffer_init>
    2dc0:	f44f 7080 	mov.w	r0, #256	; 0x100
    2dc4:	f7ff fca5 	bl	2712 <nrf_saadc_event_clear>
    2dc8:	2000      	movs	r0, #0
    2dca:	f7ff fc6a 	bl	26a2 <nrf_saadc_task_trigger>
    2dce:	2300      	movs	r3, #0
    2dd0:	60fb      	str	r3, [r7, #12]
    2dd2:	68fb      	ldr	r3, [r7, #12]
    2dd4:	4618      	mov	r0, r3
    2dd6:	3710      	adds	r7, #16
    2dd8:	46bd      	mov	sp, r7
    2dda:	bd80      	pop	{r7, pc}
    2ddc:	20000660 	.word	0x20000660

00002de0 <__NVIC_EnableIRQ>:
    2de0:	b480      	push	{r7}
    2de2:	b083      	sub	sp, #12
    2de4:	af00      	add	r7, sp, #0
    2de6:	4603      	mov	r3, r0
    2de8:	71fb      	strb	r3, [r7, #7]
    2dea:	f997 3007 	ldrsb.w	r3, [r7, #7]
    2dee:	2b00      	cmp	r3, #0
    2df0:	db0b      	blt.n	2e0a <__NVIC_EnableIRQ+0x2a>
    2df2:	79fb      	ldrb	r3, [r7, #7]
    2df4:	f003 021f 	and.w	r2, r3, #31
    2df8:	4907      	ldr	r1, [pc, #28]	; (2e18 <__NVIC_EnableIRQ+0x38>)
    2dfa:	f997 3007 	ldrsb.w	r3, [r7, #7]
    2dfe:	095b      	lsrs	r3, r3, #5
    2e00:	2001      	movs	r0, #1
    2e02:	fa00 f202 	lsl.w	r2, r0, r2
    2e06:	f841 2023 	str.w	r2, [r1, r3, lsl #2]
    2e0a:	bf00      	nop
    2e0c:	370c      	adds	r7, #12
    2e0e:	46bd      	mov	sp, r7
    2e10:	f85d 7b04 	ldr.w	r7, [sp], #4
    2e14:	4770      	bx	lr
    2e16:	bf00      	nop
    2e18:	e000e100 	.word	0xe000e100

00002e1c <__NVIC_SetPriority>:
    2e1c:	b480      	push	{r7}
    2e1e:	b083      	sub	sp, #12
    2e20:	af00      	add	r7, sp, #0
    2e22:	4603      	mov	r3, r0
    2e24:	6039      	str	r1, [r7, #0]
    2e26:	71fb      	strb	r3, [r7, #7]
    2e28:	f997 3007 	ldrsb.w	r3, [r7, #7]
    2e2c:	2b00      	cmp	r3, #0
    2e2e:	db0a      	blt.n	2e46 <__NVIC_SetPriority+0x2a>
    2e30:	683b      	ldr	r3, [r7, #0]
    2e32:	b2da      	uxtb	r2, r3
    2e34:	490c      	ldr	r1, [pc, #48]	; (2e68 <__NVIC_SetPriority+0x4c>)
    2e36:	f997 3007 	ldrsb.w	r3, [r7, #7]
    2e3a:	0152      	lsls	r2, r2, #5
    2e3c:	b2d2      	uxtb	r2, r2
    2e3e:	440b      	add	r3, r1
    2e40:	f883 2300 	strb.w	r2, [r3, #768]	; 0x300
    2e44:	e00a      	b.n	2e5c <__NVIC_SetPriority+0x40>
    2e46:	683b      	ldr	r3, [r7, #0]
    2e48:	b2da      	uxtb	r2, r3
    2e4a:	4908      	ldr	r1, [pc, #32]	; (2e6c <__NVIC_SetPriority+0x50>)
    2e4c:	79fb      	ldrb	r3, [r7, #7]
    2e4e:	f003 030f 	and.w	r3, r3, #15
    2e52:	3b04      	subs	r3, #4
    2e54:	0152      	lsls	r2, r2, #5
    2e56:	b2d2      	uxtb	r2, r2
    2e58:	440b      	add	r3, r1
    2e5a:	761a      	strb	r2, [r3, #24]
    2e5c:	bf00      	nop
    2e5e:	370c      	adds	r7, #12
    2e60:	46bd      	mov	sp, r7
    2e62:	f85d 7b04 	ldr.w	r7, [sp], #4
    2e66:	4770      	bx	lr
    2e68:	e000e100 	.word	0xe000e100
    2e6c:	e000ed00 	.word	0xe000ed00

00002e70 <nrfx_get_irq_number>:
    2e70:	b480      	push	{r7}
    2e72:	b083      	sub	sp, #12
    2e74:	af00      	add	r7, sp, #0
    2e76:	6078      	str	r0, [r7, #4]
    2e78:	687b      	ldr	r3, [r7, #4]
    2e7a:	0b1b      	lsrs	r3, r3, #12
    2e7c:	b25b      	sxtb	r3, r3
    2e7e:	4618      	mov	r0, r3
    2e80:	370c      	adds	r7, #12
    2e82:	46bd      	mov	sp, r7
    2e84:	f85d 7b04 	ldr.w	r7, [sp], #4
    2e88:	4770      	bx	lr

00002e8a <_NRFX_IRQ_PRIORITY_SET>:
    2e8a:	b580      	push	{r7, lr}
    2e8c:	b082      	sub	sp, #8
    2e8e:	af00      	add	r7, sp, #0
    2e90:	4603      	mov	r3, r0
    2e92:	460a      	mov	r2, r1
    2e94:	71fb      	strb	r3, [r7, #7]
    2e96:	4613      	mov	r3, r2
    2e98:	71bb      	strb	r3, [r7, #6]
    2e9a:	79ba      	ldrb	r2, [r7, #6]
    2e9c:	f997 3007 	ldrsb.w	r3, [r7, #7]
    2ea0:	4611      	mov	r1, r2
    2ea2:	4618      	mov	r0, r3
    2ea4:	f7ff ffba 	bl	2e1c <__NVIC_SetPriority>
    2ea8:	bf00      	nop
    2eaa:	3708      	adds	r7, #8
    2eac:	46bd      	mov	sp, r7
    2eae:	bd80      	pop	{r7, pc}

00002eb0 <_NRFX_IRQ_ENABLE>:
    2eb0:	b580      	push	{r7, lr}
    2eb2:	b082      	sub	sp, #8
    2eb4:	af00      	add	r7, sp, #0
    2eb6:	4603      	mov	r3, r0
    2eb8:	71fb      	strb	r3, [r7, #7]
    2eba:	f997 3007 	ldrsb.w	r3, [r7, #7]
    2ebe:	4618      	mov	r0, r3
    2ec0:	f7ff ff8e 	bl	2de0 <__NVIC_EnableIRQ>
    2ec4:	bf00      	nop
    2ec6:	3708      	adds	r7, #8
    2ec8:	46bd      	mov	sp, r7
    2eca:	bd80      	pop	{r7, pc}

00002ecc <nrf_timer_task_trigger>:
    2ecc:	b480      	push	{r7}
    2ece:	b083      	sub	sp, #12
    2ed0:	af00      	add	r7, sp, #0
    2ed2:	6078      	str	r0, [r7, #4]
    2ed4:	460b      	mov	r3, r1
    2ed6:	70fb      	strb	r3, [r7, #3]
    2ed8:	78fb      	ldrb	r3, [r7, #3]
    2eda:	687a      	ldr	r2, [r7, #4]
    2edc:	4413      	add	r3, r2
    2ede:	2201      	movs	r2, #1
    2ee0:	601a      	str	r2, [r3, #0]
    2ee2:	bf00      	nop
    2ee4:	370c      	adds	r7, #12
    2ee6:	46bd      	mov	sp, r7
    2ee8:	f85d 7b04 	ldr.w	r7, [sp], #4
    2eec:	4770      	bx	lr

00002eee <nrf_timer_event_clear>:
    2eee:	b480      	push	{r7}
    2ef0:	b085      	sub	sp, #20
    2ef2:	af00      	add	r7, sp, #0
    2ef4:	6078      	str	r0, [r7, #4]
    2ef6:	460b      	mov	r3, r1
    2ef8:	807b      	strh	r3, [r7, #2]
    2efa:	887b      	ldrh	r3, [r7, #2]
    2efc:	687a      	ldr	r2, [r7, #4]
    2efe:	4413      	add	r3, r2
    2f00:	2200      	movs	r2, #0
    2f02:	601a      	str	r2, [r3, #0]
    2f04:	887b      	ldrh	r3, [r7, #2]
    2f06:	687a      	ldr	r2, [r7, #4]
    2f08:	4413      	add	r3, r2
    2f0a:	681b      	ldr	r3, [r3, #0]
    2f0c:	60fb      	str	r3, [r7, #12]
    2f0e:	68fb      	ldr	r3, [r7, #12]
    2f10:	bf00      	nop
    2f12:	3714      	adds	r7, #20
    2f14:	46bd      	mov	sp, r7
    2f16:	f85d 7b04 	ldr.w	r7, [sp], #4
    2f1a:	4770      	bx	lr

00002f1c <nrf_timer_event_check>:
    2f1c:	b480      	push	{r7}
    2f1e:	b083      	sub	sp, #12
    2f20:	af00      	add	r7, sp, #0
    2f22:	6078      	str	r0, [r7, #4]
    2f24:	460b      	mov	r3, r1
    2f26:	807b      	strh	r3, [r7, #2]
    2f28:	887b      	ldrh	r3, [r7, #2]
    2f2a:	687a      	ldr	r2, [r7, #4]
    2f2c:	4413      	add	r3, r2
    2f2e:	681b      	ldr	r3, [r3, #0]
    2f30:	2b00      	cmp	r3, #0
    2f32:	bf14      	ite	ne
    2f34:	2301      	movne	r3, #1
    2f36:	2300      	moveq	r3, #0
    2f38:	b2db      	uxtb	r3, r3
    2f3a:	4618      	mov	r0, r3
    2f3c:	370c      	adds	r7, #12
    2f3e:	46bd      	mov	sp, r7
    2f40:	f85d 7b04 	ldr.w	r7, [sp], #4
    2f44:	4770      	bx	lr

00002f46 <nrf_timer_shorts_enable>:
    2f46:	b480      	push	{r7}
    2f48:	b083      	sub	sp, #12
    2f4a:	af00      	add	r7, sp, #0
    2f4c:	6078      	str	r0, [r7, #4]
    2f4e:	6039      	str	r1, [r7, #0]
    2f50:	687b      	ldr	r3, [r7, #4]
    2f52:	f8d3 2200 	ldr.w	r2, [r3, #512]	; 0x200
    2f56:	683b      	ldr	r3, [r7, #0]
    2f58:	431a      	orrs	r2, r3
    2f5a:	687b      	ldr	r3, [r7, #4]
    2f5c:	f8c3 2200 	str.w	r2, [r3, #512]	; 0x200
    2f60:	bf00      	nop
    2f62:	370c      	adds	r7, #12
    2f64:	46bd      	mov	sp, r7
    2f66:	f85d 7b04 	ldr.w	r7, [sp], #4
    2f6a:	4770      	bx	lr

00002f6c <nrf_timer_shorts_disable>:
    2f6c:	b480      	push	{r7}
    2f6e:	b083      	sub	sp, #12
    2f70:	af00      	add	r7, sp, #0
    2f72:	6078      	str	r0, [r7, #4]
    2f74:	6039      	str	r1, [r7, #0]
    2f76:	687b      	ldr	r3, [r7, #4]
    2f78:	f8d3 2200 	ldr.w	r2, [r3, #512]	; 0x200
    2f7c:	683b      	ldr	r3, [r7, #0]
    2f7e:	43db      	mvns	r3, r3
    2f80:	401a      	ands	r2, r3
    2f82:	687b      	ldr	r3, [r7, #4]
    2f84:	f8c3 2200 	str.w	r2, [r3, #512]	; 0x200
    2f88:	bf00      	nop
    2f8a:	370c      	adds	r7, #12
    2f8c:	46bd      	mov	sp, r7
    2f8e:	f85d 7b04 	ldr.w	r7, [sp], #4
    2f92:	4770      	bx	lr

00002f94 <nrf_timer_int_enable>:
    2f94:	b480      	push	{r7}
    2f96:	b083      	sub	sp, #12
    2f98:	af00      	add	r7, sp, #0
    2f9a:	6078      	str	r0, [r7, #4]
    2f9c:	6039      	str	r1, [r7, #0]
    2f9e:	687b      	ldr	r3, [r7, #4]
    2fa0:	683a      	ldr	r2, [r7, #0]
    2fa2:	f8c3 2304 	str.w	r2, [r3, #772]	; 0x304
    2fa6:	bf00      	nop
    2fa8:	370c      	adds	r7, #12
    2faa:	46bd      	mov	sp, r7
    2fac:	f85d 7b04 	ldr.w	r7, [sp], #4
    2fb0:	4770      	bx	lr

00002fb2 <nrf_timer_int_disable>:
    2fb2:	b480      	push	{r7}
    2fb4:	b083      	sub	sp, #12
    2fb6:	af00      	add	r7, sp, #0
    2fb8:	6078      	str	r0, [r7, #4]
    2fba:	6039      	str	r1, [r7, #0]
    2fbc:	687b      	ldr	r3, [r7, #4]
    2fbe:	683a      	ldr	r2, [r7, #0]
    2fc0:	f8c3 2308 	str.w	r2, [r3, #776]	; 0x308
    2fc4:	bf00      	nop
    2fc6:	370c      	adds	r7, #12
    2fc8:	46bd      	mov	sp, r7
    2fca:	f85d 7b04 	ldr.w	r7, [sp], #4
    2fce:	4770      	bx	lr

00002fd0 <nrf_timer_int_enable_check>:
    2fd0:	b480      	push	{r7}
    2fd2:	b083      	sub	sp, #12
    2fd4:	af00      	add	r7, sp, #0
    2fd6:	6078      	str	r0, [r7, #4]
    2fd8:	6039      	str	r1, [r7, #0]
    2fda:	687b      	ldr	r3, [r7, #4]
    2fdc:	f8d3 2304 	ldr.w	r2, [r3, #772]	; 0x304
    2fe0:	683b      	ldr	r3, [r7, #0]
    2fe2:	4013      	ands	r3, r2
    2fe4:	2b00      	cmp	r3, #0
    2fe6:	bf14      	ite	ne
    2fe8:	2301      	movne	r3, #1
    2fea:	2300      	moveq	r3, #0
    2fec:	b2db      	uxtb	r3, r3
    2fee:	4618      	mov	r0, r3
    2ff0:	370c      	adds	r7, #12
    2ff2:	46bd      	mov	sp, r7
    2ff4:	f85d 7b04 	ldr.w	r7, [sp], #4
    2ff8:	4770      	bx	lr

00002ffa <nrf_timer_mode_set>:
    2ffa:	b480      	push	{r7}
    2ffc:	b083      	sub	sp, #12
    2ffe:	af00      	add	r7, sp, #0
    3000:	6078      	str	r0, [r7, #4]
    3002:	460b      	mov	r3, r1
    3004:	70fb      	strb	r3, [r7, #3]
    3006:	687b      	ldr	r3, [r7, #4]
    3008:	f8d3 3504 	ldr.w	r3, [r3, #1284]	; 0x504
    300c:	f023 0203 	bic.w	r2, r3, #3
    3010:	78fb      	ldrb	r3, [r7, #3]
    3012:	f003 0303 	and.w	r3, r3, #3
    3016:	431a      	orrs	r2, r3
    3018:	687b      	ldr	r3, [r7, #4]
    301a:	f8c3 2504 	str.w	r2, [r3, #1284]	; 0x504
    301e:	bf00      	nop
    3020:	370c      	adds	r7, #12
    3022:	46bd      	mov	sp, r7
    3024:	f85d 7b04 	ldr.w	r7, [sp], #4
    3028:	4770      	bx	lr

0000302a <nrf_timer_bit_width_set>:
    302a:	b480      	push	{r7}
    302c:	b083      	sub	sp, #12
    302e:	af00      	add	r7, sp, #0
    3030:	6078      	str	r0, [r7, #4]
    3032:	460b      	mov	r3, r1
    3034:	70fb      	strb	r3, [r7, #3]
    3036:	687b      	ldr	r3, [r7, #4]
    3038:	f8d3 3508 	ldr.w	r3, [r3, #1288]	; 0x508
    303c:	f023 0203 	bic.w	r2, r3, #3
    3040:	78fb      	ldrb	r3, [r7, #3]
    3042:	f003 0303 	and.w	r3, r3, #3
    3046:	431a      	orrs	r2, r3
    3048:	687b      	ldr	r3, [r7, #4]
    304a:	f8c3 2508 	str.w	r2, [r3, #1288]	; 0x508
    304e:	bf00      	nop
    3050:	370c      	adds	r7, #12
    3052:	46bd      	mov	sp, r7
    3054:	f85d 7b04 	ldr.w	r7, [sp], #4
    3058:	4770      	bx	lr

0000305a <nrf_timer_frequency_set>:
    305a:	b480      	push	{r7}
    305c:	b083      	sub	sp, #12
    305e:	af00      	add	r7, sp, #0
    3060:	6078      	str	r0, [r7, #4]
    3062:	460b      	mov	r3, r1
    3064:	70fb      	strb	r3, [r7, #3]
    3066:	687b      	ldr	r3, [r7, #4]
    3068:	f8d3 3510 	ldr.w	r3, [r3, #1296]	; 0x510
    306c:	f023 020f 	bic.w	r2, r3, #15
    3070:	78fb      	ldrb	r3, [r7, #3]
    3072:	f003 030f 	and.w	r3, r3, #15
    3076:	431a      	orrs	r2, r3
    3078:	687b      	ldr	r3, [r7, #4]
    307a:	f8c3 2510 	str.w	r2, [r3, #1296]	; 0x510
    307e:	bf00      	nop
    3080:	370c      	adds	r7, #12
    3082:	46bd      	mov	sp, r7
    3084:	f85d 7b04 	ldr.w	r7, [sp], #4
    3088:	4770      	bx	lr

0000308a <nrf_timer_cc_write>:
    308a:	b480      	push	{r7}
    308c:	b085      	sub	sp, #20
    308e:	af00      	add	r7, sp, #0
    3090:	60f8      	str	r0, [r7, #12]
    3092:	460b      	mov	r3, r1
    3094:	607a      	str	r2, [r7, #4]
    3096:	72fb      	strb	r3, [r7, #11]
    3098:	7afa      	ldrb	r2, [r7, #11]
    309a:	68fb      	ldr	r3, [r7, #12]
    309c:	f502 72a8 	add.w	r2, r2, #336	; 0x150
    30a0:	6879      	ldr	r1, [r7, #4]
    30a2:	f843 1022 	str.w	r1, [r3, r2, lsl #2]
    30a6:	bf00      	nop
    30a8:	3714      	adds	r7, #20
    30aa:	46bd      	mov	sp, r7
    30ac:	f85d 7b04 	ldr.w	r7, [sp], #4
    30b0:	4770      	bx	lr

000030b2 <nrf_timer_compare_event_get>:
    30b2:	b480      	push	{r7}
    30b4:	b083      	sub	sp, #12
    30b6:	af00      	add	r7, sp, #0
    30b8:	6078      	str	r0, [r7, #4]
    30ba:	687b      	ldr	r3, [r7, #4]
    30bc:	009b      	lsls	r3, r3, #2
    30be:	f503 73a0 	add.w	r3, r3, #320	; 0x140
    30c2:	b29b      	uxth	r3, r3
    30c4:	4618      	mov	r0, r3
    30c6:	370c      	adds	r7, #12
    30c8:	46bd      	mov	sp, r7
    30ca:	f85d 7b04 	ldr.w	r7, [sp], #4
    30ce:	4770      	bx	lr

000030d0 <nrf_timer_compare_int_get>:
    30d0:	b480      	push	{r7}
    30d2:	b083      	sub	sp, #12
    30d4:	af00      	add	r7, sp, #0
    30d6:	6078      	str	r0, [r7, #4]
    30d8:	f44f 3280 	mov.w	r2, #65536	; 0x10000
    30dc:	687b      	ldr	r3, [r7, #4]
    30de:	fa02 f303 	lsl.w	r3, r2, r3
    30e2:	4618      	mov	r0, r3
    30e4:	370c      	adds	r7, #12
    30e6:	46bd      	mov	sp, r7
    30e8:	f85d 7b04 	ldr.w	r7, [sp], #4
    30ec:	4770      	bx	lr
	...

000030f0 <nrfx_timer_init>:
    30f0:	b590      	push	{r4, r7, lr}
    30f2:	b089      	sub	sp, #36	; 0x24
    30f4:	af00      	add	r7, sp, #0
    30f6:	60f8      	str	r0, [r7, #12]
    30f8:	60b9      	str	r1, [r7, #8]
    30fa:	607a      	str	r2, [r7, #4]
    30fc:	68fb      	ldr	r3, [r7, #12]
    30fe:	791b      	ldrb	r3, [r3, #4]
    3100:	461a      	mov	r2, r3
    3102:	4613      	mov	r3, r2
    3104:	005b      	lsls	r3, r3, #1
    3106:	4413      	add	r3, r2
    3108:	009b      	lsls	r3, r3, #2
    310a:	4a30      	ldr	r2, [pc, #192]	; (31cc <nrfx_timer_init+0xdc>)
    310c:	4413      	add	r3, r2
    310e:	617b      	str	r3, [r7, #20]
    3110:	697b      	ldr	r3, [r7, #20]
    3112:	7a1b      	ldrb	r3, [r3, #8]
    3114:	2b00      	cmp	r3, #0
    3116:	d003      	beq.n	3120 <nrfx_timer_init+0x30>
    3118:	2308      	movs	r3, #8
    311a:	61fb      	str	r3, [r7, #28]
    311c:	69fb      	ldr	r3, [r7, #28]
    311e:	e050      	b.n	31c2 <nrfx_timer_init+0xd2>
    3120:	697b      	ldr	r3, [r7, #20]
    3122:	687a      	ldr	r2, [r7, #4]
    3124:	601a      	str	r2, [r3, #0]
    3126:	68bb      	ldr	r3, [r7, #8]
    3128:	685a      	ldr	r2, [r3, #4]
    312a:	697b      	ldr	r3, [r7, #20]
    312c:	605a      	str	r2, [r3, #4]
    312e:	2300      	movs	r3, #0
    3130:	76fb      	strb	r3, [r7, #27]
    3132:	e00d      	b.n	3150 <nrfx_timer_init+0x60>
    3134:	68fb      	ldr	r3, [r7, #12]
    3136:	681c      	ldr	r4, [r3, #0]
    3138:	7efb      	ldrb	r3, [r7, #27]
    313a:	4618      	mov	r0, r3
    313c:	f7ff ffb9 	bl	30b2 <nrf_timer_compare_event_get>
    3140:	4603      	mov	r3, r0
    3142:	4619      	mov	r1, r3
    3144:	4620      	mov	r0, r4
    3146:	f7ff fed2 	bl	2eee <nrf_timer_event_clear>
    314a:	7efb      	ldrb	r3, [r7, #27]
    314c:	3301      	adds	r3, #1
    314e:	76fb      	strb	r3, [r7, #27]
    3150:	68fb      	ldr	r3, [r7, #12]
    3152:	795b      	ldrb	r3, [r3, #5]
    3154:	7efa      	ldrb	r2, [r7, #27]
    3156:	429a      	cmp	r2, r3
    3158:	d3ec      	bcc.n	3134 <nrfx_timer_init+0x44>
    315a:	68fb      	ldr	r3, [r7, #12]
    315c:	681b      	ldr	r3, [r3, #0]
    315e:	4618      	mov	r0, r3
    3160:	f7ff fe86 	bl	2e70 <nrfx_get_irq_number>
    3164:	4603      	mov	r3, r0
    3166:	461a      	mov	r2, r3
    3168:	68bb      	ldr	r3, [r7, #8]
    316a:	78db      	ldrb	r3, [r3, #3]
    316c:	4619      	mov	r1, r3
    316e:	4610      	mov	r0, r2
    3170:	f7ff fe8b 	bl	2e8a <_NRFX_IRQ_PRIORITY_SET>
    3174:	68fb      	ldr	r3, [r7, #12]
    3176:	681b      	ldr	r3, [r3, #0]
    3178:	4618      	mov	r0, r3
    317a:	f7ff fe79 	bl	2e70 <nrfx_get_irq_number>
    317e:	4603      	mov	r3, r0
    3180:	4618      	mov	r0, r3
    3182:	f7ff fe95 	bl	2eb0 <_NRFX_IRQ_ENABLE>
    3186:	68fb      	ldr	r3, [r7, #12]
    3188:	681a      	ldr	r2, [r3, #0]
    318a:	68bb      	ldr	r3, [r7, #8]
    318c:	785b      	ldrb	r3, [r3, #1]
    318e:	4619      	mov	r1, r3
    3190:	4610      	mov	r0, r2
    3192:	f7ff ff32 	bl	2ffa <nrf_timer_mode_set>
    3196:	68fb      	ldr	r3, [r7, #12]
    3198:	681a      	ldr	r2, [r3, #0]
    319a:	68bb      	ldr	r3, [r7, #8]
    319c:	789b      	ldrb	r3, [r3, #2]
    319e:	4619      	mov	r1, r3
    31a0:	4610      	mov	r0, r2
    31a2:	f7ff ff42 	bl	302a <nrf_timer_bit_width_set>
    31a6:	68fb      	ldr	r3, [r7, #12]
    31a8:	681a      	ldr	r2, [r3, #0]
    31aa:	68bb      	ldr	r3, [r7, #8]
    31ac:	781b      	ldrb	r3, [r3, #0]
    31ae:	4619      	mov	r1, r3
    31b0:	4610      	mov	r0, r2
    31b2:	f7ff ff52 	bl	305a <nrf_timer_frequency_set>
    31b6:	697b      	ldr	r3, [r7, #20]
    31b8:	2201      	movs	r2, #1
    31ba:	721a      	strb	r2, [r3, #8]
    31bc:	2300      	movs	r3, #0
    31be:	61fb      	str	r3, [r7, #28]
    31c0:	69fb      	ldr	r3, [r7, #28]
    31c2:	4618      	mov	r0, r3
    31c4:	3724      	adds	r7, #36	; 0x24
    31c6:	46bd      	mov	sp, r7
    31c8:	bd90      	pop	{r4, r7, pc}
    31ca:	bf00      	nop
    31cc:	20000690 	.word	0x20000690

000031d0 <nrfx_timer_enable>:
    31d0:	b580      	push	{r7, lr}
    31d2:	b082      	sub	sp, #8
    31d4:	af00      	add	r7, sp, #0
    31d6:	6078      	str	r0, [r7, #4]
    31d8:	687b      	ldr	r3, [r7, #4]
    31da:	681b      	ldr	r3, [r3, #0]
    31dc:	2100      	movs	r1, #0
    31de:	4618      	mov	r0, r3
    31e0:	f7ff fe74 	bl	2ecc <nrf_timer_task_trigger>
    31e4:	687b      	ldr	r3, [r7, #4]
    31e6:	791b      	ldrb	r3, [r3, #4]
    31e8:	4619      	mov	r1, r3
    31ea:	4a06      	ldr	r2, [pc, #24]	; (3204 <nrfx_timer_enable+0x34>)
    31ec:	460b      	mov	r3, r1
    31ee:	005b      	lsls	r3, r3, #1
    31f0:	440b      	add	r3, r1
    31f2:	009b      	lsls	r3, r3, #2
    31f4:	4413      	add	r3, r2
    31f6:	3308      	adds	r3, #8
    31f8:	2202      	movs	r2, #2
    31fa:	701a      	strb	r2, [r3, #0]
    31fc:	bf00      	nop
    31fe:	3708      	adds	r7, #8
    3200:	46bd      	mov	sp, r7
    3202:	bd80      	pop	{r7, pc}
    3204:	20000690 	.word	0x20000690

00003208 <nrfx_timer_compare>:
    3208:	b590      	push	{r4, r7, lr}
    320a:	b087      	sub	sp, #28
    320c:	af00      	add	r7, sp, #0
    320e:	60f8      	str	r0, [r7, #12]
    3210:	607a      	str	r2, [r7, #4]
    3212:	461a      	mov	r2, r3
    3214:	460b      	mov	r3, r1
    3216:	72fb      	strb	r3, [r7, #11]
    3218:	4613      	mov	r3, r2
    321a:	72bb      	strb	r3, [r7, #10]
    321c:	7afb      	ldrb	r3, [r7, #11]
    321e:	4618      	mov	r0, r3
    3220:	f7ff ff56 	bl	30d0 <nrf_timer_compare_int_get>
    3224:	6178      	str	r0, [r7, #20]
    3226:	7abb      	ldrb	r3, [r7, #10]
    3228:	2b00      	cmp	r3, #0
    322a:	d011      	beq.n	3250 <nrfx_timer_compare+0x48>
    322c:	68fb      	ldr	r3, [r7, #12]
    322e:	681c      	ldr	r4, [r3, #0]
    3230:	7afb      	ldrb	r3, [r7, #11]
    3232:	4618      	mov	r0, r3
    3234:	f7ff ff3d 	bl	30b2 <nrf_timer_compare_event_get>
    3238:	4603      	mov	r3, r0
    323a:	4619      	mov	r1, r3
    323c:	4620      	mov	r0, r4
    323e:	f7ff fe56 	bl	2eee <nrf_timer_event_clear>
    3242:	68fb      	ldr	r3, [r7, #12]
    3244:	681b      	ldr	r3, [r3, #0]
    3246:	6979      	ldr	r1, [r7, #20]
    3248:	4618      	mov	r0, r3
    324a:	f7ff fea3 	bl	2f94 <nrf_timer_int_enable>
    324e:	e005      	b.n	325c <nrfx_timer_compare+0x54>
    3250:	68fb      	ldr	r3, [r7, #12]
    3252:	681b      	ldr	r3, [r3, #0]
    3254:	6979      	ldr	r1, [r7, #20]
    3256:	4618      	mov	r0, r3
    3258:	f7ff feab 	bl	2fb2 <nrf_timer_int_disable>
    325c:	68fb      	ldr	r3, [r7, #12]
    325e:	681b      	ldr	r3, [r3, #0]
    3260:	7af9      	ldrb	r1, [r7, #11]
    3262:	687a      	ldr	r2, [r7, #4]
    3264:	4618      	mov	r0, r3
    3266:	f7ff ff10 	bl	308a <nrf_timer_cc_write>
    326a:	bf00      	nop
    326c:	371c      	adds	r7, #28
    326e:	46bd      	mov	sp, r7
    3270:	bd90      	pop	{r4, r7, pc}

00003272 <nrfx_timer_extended_compare>:
    3272:	b580      	push	{r7, lr}
    3274:	b084      	sub	sp, #16
    3276:	af00      	add	r7, sp, #0
    3278:	60f8      	str	r0, [r7, #12]
    327a:	607a      	str	r2, [r7, #4]
    327c:	461a      	mov	r2, r3
    327e:	460b      	mov	r3, r1
    3280:	72fb      	strb	r3, [r7, #11]
    3282:	4613      	mov	r3, r2
    3284:	813b      	strh	r3, [r7, #8]
    3286:	68fb      	ldr	r3, [r7, #12]
    3288:	6818      	ldr	r0, [r3, #0]
    328a:	7afb      	ldrb	r3, [r7, #11]
    328c:	f44f 7280 	mov.w	r2, #256	; 0x100
    3290:	409a      	lsls	r2, r3
    3292:	7afb      	ldrb	r3, [r7, #11]
    3294:	2101      	movs	r1, #1
    3296:	fa01 f303 	lsl.w	r3, r1, r3
    329a:	4313      	orrs	r3, r2
    329c:	4619      	mov	r1, r3
    329e:	f7ff fe65 	bl	2f6c <nrf_timer_shorts_disable>
    32a2:	68fb      	ldr	r3, [r7, #12]
    32a4:	681b      	ldr	r3, [r3, #0]
    32a6:	893a      	ldrh	r2, [r7, #8]
    32a8:	4611      	mov	r1, r2
    32aa:	4618      	mov	r0, r3
    32ac:	f7ff fe4b 	bl	2f46 <nrf_timer_shorts_enable>
    32b0:	7e3b      	ldrb	r3, [r7, #24]
    32b2:	7af9      	ldrb	r1, [r7, #11]
    32b4:	687a      	ldr	r2, [r7, #4]
    32b6:	68f8      	ldr	r0, [r7, #12]
    32b8:	f7ff ffa6 	bl	3208 <nrfx_timer_compare>
    32bc:	bf00      	nop
    32be:	3710      	adds	r7, #16
    32c0:	46bd      	mov	sp, r7
    32c2:	bd80      	pop	{r7, pc}

000032c4 <irq_handler>:
    32c4:	b580      	push	{r7, lr}
    32c6:	b086      	sub	sp, #24
    32c8:	af00      	add	r7, sp, #0
    32ca:	60f8      	str	r0, [r7, #12]
    32cc:	60b9      	str	r1, [r7, #8]
    32ce:	4613      	mov	r3, r2
    32d0:	71fb      	strb	r3, [r7, #7]
    32d2:	2300      	movs	r3, #0
    32d4:	75fb      	strb	r3, [r7, #23]
    32d6:	e028      	b.n	332a <irq_handler+0x66>
    32d8:	7dfb      	ldrb	r3, [r7, #23]
    32da:	4618      	mov	r0, r3
    32dc:	f7ff fee9 	bl	30b2 <nrf_timer_compare_event_get>
    32e0:	4603      	mov	r3, r0
    32e2:	82bb      	strh	r3, [r7, #20]
    32e4:	7dfb      	ldrb	r3, [r7, #23]
    32e6:	4618      	mov	r0, r3
    32e8:	f7ff fef2 	bl	30d0 <nrf_timer_compare_int_get>
    32ec:	6138      	str	r0, [r7, #16]
    32ee:	8abb      	ldrh	r3, [r7, #20]
    32f0:	4619      	mov	r1, r3
    32f2:	68f8      	ldr	r0, [r7, #12]
    32f4:	f7ff fe12 	bl	2f1c <nrf_timer_event_check>
    32f8:	4603      	mov	r3, r0
    32fa:	2b00      	cmp	r3, #0
    32fc:	d012      	beq.n	3324 <irq_handler+0x60>
    32fe:	6939      	ldr	r1, [r7, #16]
    3300:	68f8      	ldr	r0, [r7, #12]
    3302:	f7ff fe65 	bl	2fd0 <nrf_timer_int_enable_check>
    3306:	4603      	mov	r3, r0
    3308:	2b00      	cmp	r3, #0
    330a:	d00b      	beq.n	3324 <irq_handler+0x60>
    330c:	8abb      	ldrh	r3, [r7, #20]
    330e:	4619      	mov	r1, r3
    3310:	68f8      	ldr	r0, [r7, #12]
    3312:	f7ff fdec 	bl	2eee <nrf_timer_event_clear>
    3316:	68bb      	ldr	r3, [r7, #8]
    3318:	681b      	ldr	r3, [r3, #0]
    331a:	68ba      	ldr	r2, [r7, #8]
    331c:	6851      	ldr	r1, [r2, #4]
    331e:	8aba      	ldrh	r2, [r7, #20]
    3320:	4610      	mov	r0, r2
    3322:	4798      	blx	r3
    3324:	7dfb      	ldrb	r3, [r7, #23]
    3326:	3301      	adds	r3, #1
    3328:	75fb      	strb	r3, [r7, #23]
    332a:	7dfa      	ldrb	r2, [r7, #23]
    332c:	79fb      	ldrb	r3, [r7, #7]
    332e:	429a      	cmp	r2, r3
    3330:	d3d2      	bcc.n	32d8 <irq_handler+0x14>
    3332:	bf00      	nop
    3334:	bf00      	nop
    3336:	3718      	adds	r7, #24
    3338:	46bd      	mov	sp, r7
    333a:	bd80      	pop	{r7, pc}

0000333c <TIMER0_IRQHandler>:
    333c:	b580      	push	{r7, lr}
    333e:	af00      	add	r7, sp, #0
    3340:	2204      	movs	r2, #4
    3342:	4903      	ldr	r1, [pc, #12]	; (3350 <TIMER0_IRQHandler+0x14>)
    3344:	4803      	ldr	r0, [pc, #12]	; (3354 <TIMER0_IRQHandler+0x18>)
    3346:	f7ff ffbd 	bl	32c4 <irq_handler>
    334a:	bf00      	nop
    334c:	bd80      	pop	{r7, pc}
    334e:	bf00      	nop
    3350:	20000690 	.word	0x20000690
    3354:	40008000 	.word	0x40008000

00003358 <nrf_drv_saadc_init>:
    3358:	b580      	push	{r7, lr}
    335a:	b082      	sub	sp, #8
    335c:	af00      	add	r7, sp, #0
    335e:	6078      	str	r0, [r7, #4]
    3360:	6039      	str	r1, [r7, #0]
    3362:	687b      	ldr	r3, [r7, #4]
    3364:	2b00      	cmp	r3, #0
    3366:	d101      	bne.n	336c <nrf_drv_saadc_init+0x14>
    3368:	4b05      	ldr	r3, [pc, #20]	; (3380 <nrf_drv_saadc_init+0x28>)
    336a:	607b      	str	r3, [r7, #4]
    336c:	6839      	ldr	r1, [r7, #0]
    336e:	6878      	ldr	r0, [r7, #4]
    3370:	f7ff fbec 	bl	2b4c <nrfx_saadc_init>
    3374:	4603      	mov	r3, r0
    3376:	4618      	mov	r0, r3
    3378:	3708      	adds	r7, #8
    337a:	46bd      	mov	sp, r7
    337c:	bd80      	pop	{r7, pc}
    337e:	bf00      	nop
    3380:	00004728 	.word	0x00004728

00003384 <nrf_timer_event_address_get>:
    3384:	b480      	push	{r7}
    3386:	b083      	sub	sp, #12
    3388:	af00      	add	r7, sp, #0
    338a:	6078      	str	r0, [r7, #4]
    338c:	460b      	mov	r3, r1
    338e:	807b      	strh	r3, [r7, #2]
    3390:	887b      	ldrh	r3, [r7, #2]
    3392:	687a      	ldr	r2, [r7, #4]
    3394:	4413      	add	r3, r2
    3396:	4618      	mov	r0, r3
    3398:	370c      	adds	r7, #12
    339a:	46bd      	mov	sp, r7
    339c:	f85d 7b04 	ldr.w	r7, [sp], #4
    33a0:	4770      	bx	lr

000033a2 <nrf_timer_frequency_get>:
    33a2:	b480      	push	{r7}
    33a4:	b083      	sub	sp, #12
    33a6:	af00      	add	r7, sp, #0
    33a8:	6078      	str	r0, [r7, #4]
    33aa:	687b      	ldr	r3, [r7, #4]
    33ac:	f8d3 3510 	ldr.w	r3, [r3, #1296]	; 0x510
    33b0:	b2db      	uxtb	r3, r3
    33b2:	4618      	mov	r0, r3
    33b4:	370c      	adds	r7, #12
    33b6:	46bd      	mov	sp, r7
    33b8:	f85d 7b04 	ldr.w	r7, [sp], #4
    33bc:	4770      	bx	lr

000033be <nrf_timer_compare_event_get>:
    33be:	b480      	push	{r7}
    33c0:	b083      	sub	sp, #12
    33c2:	af00      	add	r7, sp, #0
    33c4:	6078      	str	r0, [r7, #4]
    33c6:	687b      	ldr	r3, [r7, #4]
    33c8:	009b      	lsls	r3, r3, #2
    33ca:	f503 73a0 	add.w	r3, r3, #320	; 0x140
    33ce:	b29b      	uxth	r3, r3
    33d0:	4618      	mov	r0, r3
    33d2:	370c      	adds	r7, #12
    33d4:	46bd      	mov	sp, r7
    33d6:	f85d 7b04 	ldr.w	r7, [sp], #4
    33da:	4770      	bx	lr

000033dc <nrf_timer_ms_to_ticks>:
    33dc:	e92d 0ff0 	stmdb	sp!, {r4, r5, r6, r7, r8, r9, sl, fp}
    33e0:	b088      	sub	sp, #32
    33e2:	af00      	add	r7, sp, #0
    33e4:	60f8      	str	r0, [r7, #12]
    33e6:	72f9      	strb	r1, [r7, #11]
    33e8:	7af9      	ldrb	r1, [r7, #11]
    33ea:	61f9      	str	r1, [r7, #28]
    33ec:	68f9      	ldr	r1, [r7, #12]
    33ee:	2000      	movs	r0, #0
    33f0:	4688      	mov	r8, r1
    33f2:	4681      	mov	r9, r0
    33f4:	4640      	mov	r0, r8
    33f6:	4649      	mov	r1, r9
    33f8:	f04f 0400 	mov.w	r4, #0
    33fc:	f04f 0500 	mov.w	r5, #0
    3400:	014e      	lsls	r6, r1, #5
    3402:	4635      	mov	r5, r6
    3404:	462e      	mov	r6, r5
    3406:	ea46 66d0 	orr.w	r6, r6, r0, lsr #27
    340a:	4635      	mov	r5, r6
    340c:	0141      	lsls	r1, r0, #5
    340e:	460c      	mov	r4, r1
    3410:	4620      	mov	r0, r4
    3412:	4629      	mov	r1, r5
    3414:	ebb0 0208 	subs.w	r2, r0, r8
    3418:	eb61 0309 	sbc.w	r3, r1, r9
    341c:	f04f 0000 	mov.w	r0, #0
    3420:	f04f 0100 	mov.w	r1, #0
    3424:	0099      	lsls	r1, r3, #2
    3426:	ea41 7192 	orr.w	r1, r1, r2, lsr #30
    342a:	0090      	lsls	r0, r2, #2
    342c:	4602      	mov	r2, r0
    342e:	460b      	mov	r3, r1
    3430:	eb12 0a08 	adds.w	sl, r2, r8
    3434:	eb43 0b09 	adc.w	fp, r3, r9
    3438:	f04f 0200 	mov.w	r2, #0
    343c:	f04f 0300 	mov.w	r3, #0
    3440:	ea4f 13cb 	mov.w	r3, fp, lsl #7
    3444:	ea43 635a 	orr.w	r3, r3, sl, lsr #25
    3448:	ea4f 12ca 	mov.w	r2, sl, lsl #7
    344c:	4692      	mov	sl, r2
    344e:	469b      	mov	fp, r3
    3450:	4652      	mov	r2, sl
    3452:	465b      	mov	r3, fp
    3454:	69f9      	ldr	r1, [r7, #28]
    3456:	f1c1 0620 	rsb	r6, r1, #32
    345a:	f1a1 0020 	sub.w	r0, r1, #32
    345e:	fa22 f401 	lsr.w	r4, r2, r1
    3462:	603c      	str	r4, [r7, #0]
    3464:	fa03 f606 	lsl.w	r6, r3, r6
    3468:	683c      	ldr	r4, [r7, #0]
    346a:	4334      	orrs	r4, r6
    346c:	603c      	str	r4, [r7, #0]
    346e:	fa23 f000 	lsr.w	r0, r3, r0
    3472:	683c      	ldr	r4, [r7, #0]
    3474:	4304      	orrs	r4, r0
    3476:	603c      	str	r4, [r7, #0]
    3478:	40cb      	lsrs	r3, r1
    347a:	607b      	str	r3, [r7, #4]
    347c:	e9d7 3400 	ldrd	r3, r4, [r7]
    3480:	e9c7 3404 	strd	r3, r4, [r7, #16]
    3484:	693b      	ldr	r3, [r7, #16]
    3486:	4618      	mov	r0, r3
    3488:	3720      	adds	r7, #32
    348a:	46bd      	mov	sp, r7
    348c:	e8bd 0ff0 	ldmia.w	sp!, {r4, r5, r6, r7, r8, r9, sl, fp}
    3490:	4770      	bx	lr

00003492 <nrfx_timer_compare_event_address_get>:
    3492:	b590      	push	{r4, r7, lr}
    3494:	b083      	sub	sp, #12
    3496:	af00      	add	r7, sp, #0
    3498:	6078      	str	r0, [r7, #4]
    349a:	6039      	str	r1, [r7, #0]
    349c:	687b      	ldr	r3, [r7, #4]
    349e:	681c      	ldr	r4, [r3, #0]
    34a0:	6838      	ldr	r0, [r7, #0]
    34a2:	f7ff ff8c 	bl	33be <nrf_timer_compare_event_get>
    34a6:	4603      	mov	r3, r0
    34a8:	4619      	mov	r1, r3
    34aa:	4620      	mov	r0, r4
    34ac:	f7ff ff6a 	bl	3384 <nrf_timer_event_address_get>
    34b0:	4603      	mov	r3, r0
    34b2:	4618      	mov	r0, r3
    34b4:	370c      	adds	r7, #12
    34b6:	46bd      	mov	sp, r7
    34b8:	bd90      	pop	{r4, r7, pc}

000034ba <nrfx_timer_ms_to_ticks>:
    34ba:	b580      	push	{r7, lr}
    34bc:	b082      	sub	sp, #8
    34be:	af00      	add	r7, sp, #0
    34c0:	6078      	str	r0, [r7, #4]
    34c2:	6039      	str	r1, [r7, #0]
    34c4:	687b      	ldr	r3, [r7, #4]
    34c6:	681b      	ldr	r3, [r3, #0]
    34c8:	4618      	mov	r0, r3
    34ca:	f7ff ff6a 	bl	33a2 <nrf_timer_frequency_get>
    34ce:	4603      	mov	r3, r0
    34d0:	4619      	mov	r1, r3
    34d2:	6838      	ldr	r0, [r7, #0]
    34d4:	f7ff ff82 	bl	33dc <nrf_timer_ms_to_ticks>
    34d8:	4603      	mov	r3, r0
    34da:	4618      	mov	r0, r3
    34dc:	3708      	adds	r7, #8
    34de:	46bd      	mov	sp, r7
    34e0:	bd80      	pop	{r7, pc}

000034e2 <timer_handler>:
    34e2:	b480      	push	{r7}
    34e4:	b083      	sub	sp, #12
    34e6:	af00      	add	r7, sp, #0
    34e8:	4603      	mov	r3, r0
    34ea:	6039      	str	r1, [r7, #0]
    34ec:	80fb      	strh	r3, [r7, #6]
    34ee:	bf00      	nop
    34f0:	370c      	adds	r7, #12
    34f2:	46bd      	mov	sp, r7
    34f4:	f85d 7b04 	ldr.w	r7, [sp], #4
    34f8:	4770      	bx	lr
	...

000034fc <saadc_sampling_event_init>:
    34fc:	b580      	push	{r7, lr}
    34fe:	b08c      	sub	sp, #48	; 0x30
    3500:	af02      	add	r7, sp, #8
    3502:	f7fe fef5 	bl	22f0 <nrf_drv_ppi_init>
    3506:	6278      	str	r0, [r7, #36]	; 0x24
    3508:	6a7b      	ldr	r3, [r7, #36]	; 0x24
    350a:	623b      	str	r3, [r7, #32]
    350c:	6a3b      	ldr	r3, [r7, #32]
    350e:	2b00      	cmp	r3, #0
    3510:	d002      	beq.n	3518 <saadc_sampling_event_init+0x1c>
    3512:	6a38      	ldr	r0, [r7, #32]
    3514:	f7fd ff7c 	bl	1410 <app_error_handler_bare>
    3518:	2300      	movs	r3, #0
    351a:	703b      	strb	r3, [r7, #0]
    351c:	2300      	movs	r3, #0
    351e:	707b      	strb	r3, [r7, #1]
    3520:	2300      	movs	r3, #0
    3522:	70bb      	strb	r3, [r7, #2]
    3524:	2306      	movs	r3, #6
    3526:	70fb      	strb	r3, [r7, #3]
    3528:	2300      	movs	r3, #0
    352a:	607b      	str	r3, [r7, #4]
    352c:	2303      	movs	r3, #3
    352e:	70bb      	strb	r3, [r7, #2]
    3530:	463b      	mov	r3, r7
    3532:	4a23      	ldr	r2, [pc, #140]	; (35c0 <saadc_sampling_event_init+0xc4>)
    3534:	4619      	mov	r1, r3
    3536:	4823      	ldr	r0, [pc, #140]	; (35c4 <saadc_sampling_event_init+0xc8>)
    3538:	f7ff fdda 	bl	30f0 <nrfx_timer_init>
    353c:	6278      	str	r0, [r7, #36]	; 0x24
    353e:	6a7b      	ldr	r3, [r7, #36]	; 0x24
    3540:	61fb      	str	r3, [r7, #28]
    3542:	69fb      	ldr	r3, [r7, #28]
    3544:	2b00      	cmp	r3, #0
    3546:	d002      	beq.n	354e <saadc_sampling_event_init+0x52>
    3548:	69f8      	ldr	r0, [r7, #28]
    354a:	f7fd ff61 	bl	1410 <app_error_handler_bare>
    354e:	f44f 71c8 	mov.w	r1, #400	; 0x190
    3552:	481c      	ldr	r0, [pc, #112]	; (35c4 <saadc_sampling_event_init+0xc8>)
    3554:	f7ff ffb1 	bl	34ba <nrfx_timer_ms_to_ticks>
    3558:	61b8      	str	r0, [r7, #24]
    355a:	2300      	movs	r3, #0
    355c:	9300      	str	r3, [sp, #0]
    355e:	2301      	movs	r3, #1
    3560:	69ba      	ldr	r2, [r7, #24]
    3562:	2100      	movs	r1, #0
    3564:	4817      	ldr	r0, [pc, #92]	; (35c4 <saadc_sampling_event_init+0xc8>)
    3566:	f7ff fe84 	bl	3272 <nrfx_timer_extended_compare>
    356a:	4816      	ldr	r0, [pc, #88]	; (35c4 <saadc_sampling_event_init+0xc8>)
    356c:	f7ff fe30 	bl	31d0 <nrfx_timer_enable>
    3570:	2100      	movs	r1, #0
    3572:	4814      	ldr	r0, [pc, #80]	; (35c4 <saadc_sampling_event_init+0xc8>)
    3574:	f7ff ff8d 	bl	3492 <nrfx_timer_compare_event_address_get>
    3578:	6178      	str	r0, [r7, #20]
    357a:	f7ff fb9d 	bl	2cb8 <nrfx_saadc_sample_task_get>
    357e:	6138      	str	r0, [r7, #16]
    3580:	4811      	ldr	r0, [pc, #68]	; (35c8 <saadc_sampling_event_init+0xcc>)
    3582:	f7fe ff69 	bl	2458 <nrfx_ppi_channel_alloc>
    3586:	6278      	str	r0, [r7, #36]	; 0x24
    3588:	6a7b      	ldr	r3, [r7, #36]	; 0x24
    358a:	60fb      	str	r3, [r7, #12]
    358c:	68fb      	ldr	r3, [r7, #12]
    358e:	2b00      	cmp	r3, #0
    3590:	d002      	beq.n	3598 <saadc_sampling_event_init+0x9c>
    3592:	68f8      	ldr	r0, [r7, #12]
    3594:	f7fd ff3c 	bl	1410 <app_error_handler_bare>
    3598:	4b0b      	ldr	r3, [pc, #44]	; (35c8 <saadc_sampling_event_init+0xcc>)
    359a:	781b      	ldrb	r3, [r3, #0]
    359c:	693a      	ldr	r2, [r7, #16]
    359e:	6979      	ldr	r1, [r7, #20]
    35a0:	4618      	mov	r0, r3
    35a2:	f7fe ffa5 	bl	24f0 <nrfx_ppi_channel_assign>
    35a6:	6278      	str	r0, [r7, #36]	; 0x24
    35a8:	6a7b      	ldr	r3, [r7, #36]	; 0x24
    35aa:	60bb      	str	r3, [r7, #8]
    35ac:	68bb      	ldr	r3, [r7, #8]
    35ae:	2b00      	cmp	r3, #0
    35b0:	d002      	beq.n	35b8 <saadc_sampling_event_init+0xbc>
    35b2:	68b8      	ldr	r0, [r7, #8]
    35b4:	f7fd ff2c 	bl	1410 <app_error_handler_bare>
    35b8:	bf00      	nop
    35ba:	3728      	adds	r7, #40	; 0x28
    35bc:	46bd      	mov	sp, r7
    35be:	bd80      	pop	{r7, pc}
    35c0:	000034e3 	.word	0x000034e3
    35c4:	000046d4 	.word	0x000046d4
    35c8:	200006b0 	.word	0x200006b0

000035cc <saadc_sampling_event_enable>:
    35cc:	b580      	push	{r7, lr}
    35ce:	b082      	sub	sp, #8
    35d0:	af00      	add	r7, sp, #0
    35d2:	4b09      	ldr	r3, [pc, #36]	; (35f8 <saadc_sampling_event_enable+0x2c>)
    35d4:	781b      	ldrb	r3, [r3, #0]
    35d6:	4618      	mov	r0, r3
    35d8:	f7fe ffc0 	bl	255c <nrfx_ppi_channel_enable>
    35dc:	6078      	str	r0, [r7, #4]
    35de:	687b      	ldr	r3, [r7, #4]
    35e0:	603b      	str	r3, [r7, #0]
    35e2:	683b      	ldr	r3, [r7, #0]
    35e4:	2b00      	cmp	r3, #0
    35e6:	d002      	beq.n	35ee <saadc_sampling_event_enable+0x22>
    35e8:	6838      	ldr	r0, [r7, #0]
    35ea:	f7fd ff11 	bl	1410 <app_error_handler_bare>
    35ee:	bf00      	nop
    35f0:	3708      	adds	r7, #8
    35f2:	46bd      	mov	sp, r7
    35f4:	bd80      	pop	{r7, pc}
    35f6:	bf00      	nop
    35f8:	200006b0 	.word	0x200006b0

000035fc <saadc_callback>:
    35fc:	b580      	push	{r7, lr}
    35fe:	b086      	sub	sp, #24
    3600:	af00      	add	r7, sp, #0
    3602:	6078      	str	r0, [r7, #4]
    3604:	687b      	ldr	r3, [r7, #4]
    3606:	781b      	ldrb	r3, [r3, #0]
    3608:	2b00      	cmp	r3, #0
    360a:	d13b      	bne.n	3684 <saadc_callback+0x88>
    360c:	687b      	ldr	r3, [r7, #4]
    360e:	685b      	ldr	r3, [r3, #4]
    3610:	2105      	movs	r1, #5
    3612:	4618      	mov	r0, r3
    3614:	f7ff fb62 	bl	2cdc <nrfx_saadc_buffer_convert>
    3618:	6138      	str	r0, [r7, #16]
    361a:	693b      	ldr	r3, [r7, #16]
    361c:	60fb      	str	r3, [r7, #12]
    361e:	68fb      	ldr	r3, [r7, #12]
    3620:	2b00      	cmp	r3, #0
    3622:	d002      	beq.n	362a <saadc_callback+0x2e>
    3624:	68f8      	ldr	r0, [r7, #12]
    3626:	f7fd fef3 	bl	1410 <app_error_handler_bare>
    362a:	4a18      	ldr	r2, [pc, #96]	; (368c <saadc_callback+0x90>)
    362c:	4b18      	ldr	r3, [pc, #96]	; (3690 <saadc_callback+0x94>)
    362e:	1ad3      	subs	r3, r2, r3
    3630:	08db      	lsrs	r3, r3, #3
    3632:	041b      	lsls	r3, r3, #16
    3634:	f043 0303 	orr.w	r3, r3, #3
    3638:	4a16      	ldr	r2, [pc, #88]	; (3694 <saadc_callback+0x98>)
    363a:	6812      	ldr	r2, [r2, #0]
    363c:	4916      	ldr	r1, [pc, #88]	; (3698 <saadc_callback+0x9c>)
    363e:	4618      	mov	r0, r3
    3640:	f7fd fac9 	bl	bd6 <nrf_log_frontend_std_1>
    3644:	2300      	movs	r3, #0
    3646:	617b      	str	r3, [r7, #20]
    3648:	e014      	b.n	3674 <saadc_callback+0x78>
    364a:	4a10      	ldr	r2, [pc, #64]	; (368c <saadc_callback+0x90>)
    364c:	4b10      	ldr	r3, [pc, #64]	; (3690 <saadc_callback+0x94>)
    364e:	1ad3      	subs	r3, r2, r3
    3650:	08db      	lsrs	r3, r3, #3
    3652:	041b      	lsls	r3, r3, #16
    3654:	f043 0003 	orr.w	r0, r3, #3
    3658:	687b      	ldr	r3, [r7, #4]
    365a:	685a      	ldr	r2, [r3, #4]
    365c:	697b      	ldr	r3, [r7, #20]
    365e:	005b      	lsls	r3, r3, #1
    3660:	4413      	add	r3, r2
    3662:	f9b3 3000 	ldrsh.w	r3, [r3]
    3666:	461a      	mov	r2, r3
    3668:	490c      	ldr	r1, [pc, #48]	; (369c <saadc_callback+0xa0>)
    366a:	f7fd fab4 	bl	bd6 <nrf_log_frontend_std_1>
    366e:	697b      	ldr	r3, [r7, #20]
    3670:	3301      	adds	r3, #1
    3672:	617b      	str	r3, [r7, #20]
    3674:	697b      	ldr	r3, [r7, #20]
    3676:	2b04      	cmp	r3, #4
    3678:	dde7      	ble.n	364a <saadc_callback+0x4e>
    367a:	4b06      	ldr	r3, [pc, #24]	; (3694 <saadc_callback+0x98>)
    367c:	681b      	ldr	r3, [r3, #0]
    367e:	3301      	adds	r3, #1
    3680:	4a04      	ldr	r2, [pc, #16]	; (3694 <saadc_callback+0x98>)
    3682:	6013      	str	r3, [r2, #0]
    3684:	bf00      	nop
    3686:	3718      	adds	r7, #24
    3688:	46bd      	mov	sp, r7
    368a:	bd80      	pop	{r7, pc}
    368c:	00004878 	.word	0x00004878
    3690:	00004848 	.word	0x00004848
    3694:	200006b4 	.word	0x200006b4
    3698:	000046dc 	.word	0x000046dc
    369c:	000046f4 	.word	0x000046f4

000036a0 <saadc_init>:
    36a0:	b580      	push	{r7, lr}
    36a2:	b088      	sub	sp, #32
    36a4:	af00      	add	r7, sp, #0
    36a6:	4a1f      	ldr	r2, [pc, #124]	; (3724 <saadc_init+0x84>)
    36a8:	463b      	mov	r3, r7
    36aa:	ca07      	ldmia	r2, {r0, r1, r2}
    36ac:	c303      	stmia	r3!, {r0, r1}
    36ae:	701a      	strb	r2, [r3, #0]
    36b0:	491d      	ldr	r1, [pc, #116]	; (3728 <saadc_init+0x88>)
    36b2:	2000      	movs	r0, #0
    36b4:	f7ff fe50 	bl	3358 <nrf_drv_saadc_init>
    36b8:	61f8      	str	r0, [r7, #28]
    36ba:	69fb      	ldr	r3, [r7, #28]
    36bc:	61bb      	str	r3, [r7, #24]
    36be:	69bb      	ldr	r3, [r7, #24]
    36c0:	2b00      	cmp	r3, #0
    36c2:	d002      	beq.n	36ca <saadc_init+0x2a>
    36c4:	69b8      	ldr	r0, [r7, #24]
    36c6:	f7fd fea3 	bl	1410 <app_error_handler_bare>
    36ca:	463b      	mov	r3, r7
    36cc:	4619      	mov	r1, r3
    36ce:	2000      	movs	r0, #0
    36d0:	f7ff fa9e 	bl	2c10 <nrfx_saadc_channel_init>
    36d4:	61f8      	str	r0, [r7, #28]
    36d6:	69fb      	ldr	r3, [r7, #28]
    36d8:	617b      	str	r3, [r7, #20]
    36da:	697b      	ldr	r3, [r7, #20]
    36dc:	2b00      	cmp	r3, #0
    36de:	d002      	beq.n	36e6 <saadc_init+0x46>
    36e0:	6978      	ldr	r0, [r7, #20]
    36e2:	f7fd fe95 	bl	1410 <app_error_handler_bare>
    36e6:	2105      	movs	r1, #5
    36e8:	4810      	ldr	r0, [pc, #64]	; (372c <saadc_init+0x8c>)
    36ea:	f7ff faf7 	bl	2cdc <nrfx_saadc_buffer_convert>
    36ee:	61f8      	str	r0, [r7, #28]
    36f0:	69fb      	ldr	r3, [r7, #28]
    36f2:	613b      	str	r3, [r7, #16]
    36f4:	693b      	ldr	r3, [r7, #16]
    36f6:	2b00      	cmp	r3, #0
    36f8:	d002      	beq.n	3700 <saadc_init+0x60>
    36fa:	6938      	ldr	r0, [r7, #16]
    36fc:	f7fd fe88 	bl	1410 <app_error_handler_bare>
    3700:	2105      	movs	r1, #5
    3702:	480b      	ldr	r0, [pc, #44]	; (3730 <saadc_init+0x90>)
    3704:	f7ff faea 	bl	2cdc <nrfx_saadc_buffer_convert>
    3708:	61f8      	str	r0, [r7, #28]
    370a:	69fb      	ldr	r3, [r7, #28]
    370c:	60fb      	str	r3, [r7, #12]
    370e:	68fb      	ldr	r3, [r7, #12]
    3710:	2b00      	cmp	r3, #0
    3712:	d002      	beq.n	371a <saadc_init+0x7a>
    3714:	68f8      	ldr	r0, [r7, #12]
    3716:	f7fd fe7b 	bl	1410 <app_error_handler_bare>
    371a:	bf00      	nop
    371c:	3720      	adds	r7, #32
    371e:	46bd      	mov	sp, r7
    3720:	bd80      	pop	{r7, pc}
    3722:	bf00      	nop
    3724:	000046f8 	.word	0x000046f8
    3728:	000035fd 	.word	0x000035fd
    372c:	2000069c 	.word	0x2000069c
    3730:	200006a6 	.word	0x200006a6

00003734 <main>:
    3734:	b580      	push	{r7, lr}
    3736:	b084      	sub	sp, #16
    3738:	af00      	add	r7, sp, #0
    373a:	2100      	movs	r1, #0
    373c:	2000      	movs	r0, #0
    373e:	f7fc ff97 	bl	670 <nrf_log_init>
    3742:	60f8      	str	r0, [r7, #12]
    3744:	68fb      	ldr	r3, [r7, #12]
    3746:	60bb      	str	r3, [r7, #8]
    3748:	68bb      	ldr	r3, [r7, #8]
    374a:	2b00      	cmp	r3, #0
    374c:	d002      	beq.n	3754 <main+0x20>
    374e:	68b8      	ldr	r0, [r7, #8]
    3750:	f7fd fe5e 	bl	1410 <app_error_handler_bare>
    3754:	f7fc ff14 	bl	580 <nrf_log_default_backends_init>
    3758:	f7fe fd6a 	bl	2230 <nrf_pwr_mgmt_init>
    375c:	6078      	str	r0, [r7, #4]
    375e:	687b      	ldr	r3, [r7, #4]
    3760:	603b      	str	r3, [r7, #0]
    3762:	683b      	ldr	r3, [r7, #0]
    3764:	2b00      	cmp	r3, #0
    3766:	d002      	beq.n	376e <main+0x3a>
    3768:	6838      	ldr	r0, [r7, #0]
    376a:	f7fd fe51 	bl	1410 <app_error_handler_bare>
    376e:	f7ff ff97 	bl	36a0 <saadc_init>
    3772:	f7ff fec3 	bl	34fc <saadc_sampling_event_init>
    3776:	f7ff ff29 	bl	35cc <saadc_sampling_event_enable>
    377a:	4a09      	ldr	r2, [pc, #36]	; (37a0 <main+0x6c>)
    377c:	4b09      	ldr	r3, [pc, #36]	; (37a4 <main+0x70>)
    377e:	1ad3      	subs	r3, r2, r3
    3780:	08db      	lsrs	r3, r3, #3
    3782:	041b      	lsls	r3, r3, #16
    3784:	f043 0303 	orr.w	r3, r3, #3
    3788:	4907      	ldr	r1, [pc, #28]	; (37a8 <main+0x74>)
    378a:	4618      	mov	r0, r3
    378c:	f7fd fa14 	bl	bb8 <nrf_log_frontend_std_0>
    3790:	f7fe fd66 	bl	2260 <nrf_pwr_mgmt_run>
    3794:	f7fd fa44 	bl	c20 <nrf_log_frontend_dequeue>
    3798:	4603      	mov	r3, r0
    379a:	2b00      	cmp	r3, #0
    379c:	d1fa      	bne.n	3794 <main+0x60>
    379e:	e7f7      	b.n	3790 <main+0x5c>
    37a0:	00004878 	.word	0x00004878
    37a4:	00004848 	.word	0x00004848
    37a8:	00004704 	.word	0x00004704

000037ac <_DoInit>:
    37ac:	b580      	push	{r7, lr}
    37ae:	b082      	sub	sp, #8
    37b0:	af00      	add	r7, sp, #0
    37b2:	4b1f      	ldr	r3, [pc, #124]	; (3830 <_DoInit+0x84>)
    37b4:	607b      	str	r3, [r7, #4]
    37b6:	687b      	ldr	r3, [r7, #4]
    37b8:	2202      	movs	r2, #2
    37ba:	611a      	str	r2, [r3, #16]
    37bc:	687b      	ldr	r3, [r7, #4]
    37be:	2202      	movs	r2, #2
    37c0:	615a      	str	r2, [r3, #20]
    37c2:	687b      	ldr	r3, [r7, #4]
    37c4:	4a1b      	ldr	r2, [pc, #108]	; (3834 <_DoInit+0x88>)
    37c6:	619a      	str	r2, [r3, #24]
    37c8:	687b      	ldr	r3, [r7, #4]
    37ca:	4a1b      	ldr	r2, [pc, #108]	; (3838 <_DoInit+0x8c>)
    37cc:	61da      	str	r2, [r3, #28]
    37ce:	687b      	ldr	r3, [r7, #4]
    37d0:	f44f 7200 	mov.w	r2, #512	; 0x200
    37d4:	621a      	str	r2, [r3, #32]
    37d6:	687b      	ldr	r3, [r7, #4]
    37d8:	2200      	movs	r2, #0
    37da:	629a      	str	r2, [r3, #40]	; 0x28
    37dc:	687b      	ldr	r3, [r7, #4]
    37de:	2200      	movs	r2, #0
    37e0:	625a      	str	r2, [r3, #36]	; 0x24
    37e2:	687b      	ldr	r3, [r7, #4]
    37e4:	2200      	movs	r2, #0
    37e6:	62da      	str	r2, [r3, #44]	; 0x2c
    37e8:	687b      	ldr	r3, [r7, #4]
    37ea:	4a12      	ldr	r2, [pc, #72]	; (3834 <_DoInit+0x88>)
    37ec:	649a      	str	r2, [r3, #72]	; 0x48
    37ee:	687b      	ldr	r3, [r7, #4]
    37f0:	4a12      	ldr	r2, [pc, #72]	; (383c <_DoInit+0x90>)
    37f2:	64da      	str	r2, [r3, #76]	; 0x4c
    37f4:	687b      	ldr	r3, [r7, #4]
    37f6:	2210      	movs	r2, #16
    37f8:	651a      	str	r2, [r3, #80]	; 0x50
    37fa:	687b      	ldr	r3, [r7, #4]
    37fc:	2200      	movs	r2, #0
    37fe:	659a      	str	r2, [r3, #88]	; 0x58
    3800:	687b      	ldr	r3, [r7, #4]
    3802:	2200      	movs	r2, #0
    3804:	655a      	str	r2, [r3, #84]	; 0x54
    3806:	687b      	ldr	r3, [r7, #4]
    3808:	2200      	movs	r2, #0
    380a:	65da      	str	r2, [r3, #92]	; 0x5c
    380c:	687b      	ldr	r3, [r7, #4]
    380e:	3307      	adds	r3, #7
    3810:	490b      	ldr	r1, [pc, #44]	; (3840 <_DoInit+0x94>)
    3812:	4618      	mov	r0, r3
    3814:	f000 fdc6 	bl	43a4 <strcpy>
    3818:	687b      	ldr	r3, [r7, #4]
    381a:	490a      	ldr	r1, [pc, #40]	; (3844 <_DoInit+0x98>)
    381c:	4618      	mov	r0, r3
    381e:	f000 fdc1 	bl	43a4 <strcpy>
    3822:	687b      	ldr	r3, [r7, #4]
    3824:	2220      	movs	r2, #32
    3826:	719a      	strb	r2, [r3, #6]
    3828:	bf00      	nop
    382a:	3708      	adds	r7, #8
    382c:	46bd      	mov	sp, r7
    382e:	bd80      	pop	{r7, pc}
    3830:	200006b8 	.word	0x200006b8
    3834:	0000472c 	.word	0x0000472c
    3838:	20000730 	.word	0x20000730
    383c:	20000930 	.word	0x20000930
    3840:	00004738 	.word	0x00004738
    3844:	0000473c 	.word	0x0000473c

00003848 <_WriteBlocking>:
    3848:	b580      	push	{r7, lr}
    384a:	b088      	sub	sp, #32
    384c:	af00      	add	r7, sp, #0
    384e:	60f8      	str	r0, [r7, #12]
    3850:	60b9      	str	r1, [r7, #8]
    3852:	607a      	str	r2, [r7, #4]
    3854:	2300      	movs	r3, #0
    3856:	61bb      	str	r3, [r7, #24]
    3858:	68fb      	ldr	r3, [r7, #12]
    385a:	68db      	ldr	r3, [r3, #12]
