
spi-o1.elf:     file format elf32-littlearm


Disassembly of section .text:

00000000 <__isr_vector>:
       0:	20010000 	.word	0x20010000
       4:	000002b1 	.word	0x000002b1
       8:	000002d9 	.word	0x000002d9
       c:	000002db 	.word	0x000002db
      10:	000002dd 	.word	0x000002dd
      14:	000002df 	.word	0x000002df
      18:	000002e1 	.word	0x000002e1
	...
      2c:	000002e3 	.word	0x000002e3
      30:	000002e5 	.word	0x000002e5
      34:	00000000 	.word	0x00000000
      38:	000002e7 	.word	0x000002e7
      3c:	000002e9 	.word	0x000002e9
      40:	000002eb 	.word	0x000002eb
      44:	000002eb 	.word	0x000002eb
      48:	00001979 	.word	0x00001979
      4c:	000019e1 	.word	0x000019e1
      50:	000002eb 	.word	0x000002eb
      54:	000002eb 	.word	0x000002eb
      58:	00001801 	.word	0x00001801
      5c:	000002eb 	.word	0x000002eb
      60:	000002eb 	.word	0x000002eb
      64:	000002eb 	.word	0x000002eb
      68:	000002eb 	.word	0x000002eb
      6c:	000002eb 	.word	0x000002eb
      70:	000002eb 	.word	0x000002eb
      74:	000002eb 	.word	0x000002eb
      78:	000002eb 	.word	0x000002eb
      7c:	000002eb 	.word	0x000002eb
      80:	000002eb 	.word	0x000002eb
      84:	00000efd 	.word	0x00000efd
      88:	000002eb 	.word	0x000002eb
      8c:	000002eb 	.word	0x000002eb
      90:	000002eb 	.word	0x000002eb
      94:	000002eb 	.word	0x000002eb
      98:	000002eb 	.word	0x000002eb
      9c:	000002eb 	.word	0x000002eb
      a0:	000002eb 	.word	0x000002eb
      a4:	000002eb 	.word	0x000002eb
      a8:	000002eb 	.word	0x000002eb
      ac:	000002eb 	.word	0x000002eb
      b0:	000002eb 	.word	0x000002eb
      b4:	000002eb 	.word	0x000002eb
	...
      c0:	000002eb 	.word	0x000002eb
      c4:	000002eb 	.word	0x000002eb
      c8:	000002eb 	.word	0x000002eb
      cc:	000002eb 	.word	0x000002eb
      d0:	000002eb 	.word	0x000002eb
      d4:	000002eb 	.word	0x000002eb
      d8:	000002eb 	.word	0x000002eb
	...

00000200 <__do_global_dtors_aux>:
     200:	b510      	push	{r4, lr}
     202:	4c05      	ldr	r4, [pc, #20]	; (218 <__do_global_dtors_aux+0x18>)
     204:	7823      	ldrb	r3, [r4, #0]
     206:	b933      	cbnz	r3, 216 <__do_global_dtors_aux+0x16>
     208:	4b04      	ldr	r3, [pc, #16]	; (21c <__do_global_dtors_aux+0x1c>)
     20a:	b113      	cbz	r3, 212 <__do_global_dtors_aux+0x12>
     20c:	4804      	ldr	r0, [pc, #16]	; (220 <__do_global_dtors_aux+0x20>)
     20e:	f3af 8000 	nop.w
     212:	2301      	movs	r3, #1
     214:	7023      	strb	r3, [r4, #0]
     216:	bd10      	pop	{r4, pc}
     218:	20000034 	.word	0x20000034
     21c:	00000000 	.word	0x00000000
     220:	0000329c 	.word	0x0000329c

00000224 <frame_dummy>:
     224:	b508      	push	{r3, lr}
     226:	4b03      	ldr	r3, [pc, #12]	; (234 <frame_dummy+0x10>)
     228:	b11b      	cbz	r3, 232 <frame_dummy+0xe>
     22a:	4903      	ldr	r1, [pc, #12]	; (238 <frame_dummy+0x14>)
     22c:	4803      	ldr	r0, [pc, #12]	; (23c <frame_dummy+0x18>)
     22e:	f3af 8000 	nop.w
     232:	bd08      	pop	{r3, pc}
     234:	00000000 	.word	0x00000000
     238:	20000038 	.word	0x20000038
     23c:	0000329c 	.word	0x0000329c

00000240 <_stack_init>:
     240:	f5a3 3a80 	sub.w	sl, r3, #65536	; 0x10000
     244:	4770      	bx	lr
     246:	bf00      	nop

00000248 <_mainCRTStartup>:
     248:	4b15      	ldr	r3, [pc, #84]	; (2a0 <_mainCRTStartup+0x58>)
     24a:	2b00      	cmp	r3, #0
     24c:	bf08      	it	eq
     24e:	4b11      	ldreq	r3, [pc, #68]	; (294 <_mainCRTStartup+0x4c>)
     250:	469d      	mov	sp, r3
     252:	f7ff fff5 	bl	240 <_stack_init>
     256:	2100      	movs	r1, #0
     258:	468b      	mov	fp, r1
     25a:	460f      	mov	r7, r1
     25c:	4811      	ldr	r0, [pc, #68]	; (2a4 <_mainCRTStartup+0x5c>)
     25e:	4a12      	ldr	r2, [pc, #72]	; (2a8 <_mainCRTStartup+0x60>)
     260:	1a12      	subs	r2, r2, r0
     262:	f002 fd61 	bl	2d28 <memset>
     266:	4b0c      	ldr	r3, [pc, #48]	; (298 <_mainCRTStartup+0x50>)
     268:	2b00      	cmp	r3, #0
     26a:	d000      	beq.n	26e <_mainCRTStartup+0x26>
     26c:	4798      	blx	r3
     26e:	4b0b      	ldr	r3, [pc, #44]	; (29c <_mainCRTStartup+0x54>)
     270:	2b00      	cmp	r3, #0
     272:	d000      	beq.n	276 <_mainCRTStartup+0x2e>
     274:	4798      	blx	r3
     276:	2000      	movs	r0, #0
     278:	2100      	movs	r1, #0
     27a:	0004      	movs	r4, r0
     27c:	000d      	movs	r5, r1
     27e:	480b      	ldr	r0, [pc, #44]	; (2ac <_mainCRTStartup+0x64>)
     280:	f002 fd3a 	bl	2cf8 <atexit>
     284:	f002 fd58 	bl	2d38 <__libc_init_array>
     288:	0020      	movs	r0, r4
     28a:	0029      	movs	r1, r5
     28c:	f002 fafc 	bl	2888 <main>
     290:	f002 fd38 	bl	2d04 <exit>
     294:	00080000 	.word	0x00080000
	...
     2a0:	20010000 	.word	0x20010000
     2a4:	20000034 	.word	0x20000034
     2a8:	200007d0 	.word	0x200007d0
     2ac:	00002d81 	.word	0x00002d81

000002b0 <Reset_Handler>:
     2b0:	4906      	ldr	r1, [pc, #24]	; (2cc <Reset_Handler+0x1c>)
     2b2:	4a07      	ldr	r2, [pc, #28]	; (2d0 <Reset_Handler+0x20>)
     2b4:	4b07      	ldr	r3, [pc, #28]	; (2d4 <Reset_Handler+0x24>)
     2b6:	1a9b      	subs	r3, r3, r2
     2b8:	dd03      	ble.n	2c2 <Reset_Handler+0x12>
     2ba:	3b04      	subs	r3, #4
     2bc:	58c8      	ldr	r0, [r1, r3]
     2be:	50d0      	str	r0, [r2, r3]
     2c0:	dcfb      	bgt.n	2ba <Reset_Handler+0xa>
     2c2:	f002 fb65 	bl	2990 <SystemInit>
     2c6:	f7ff ffbf 	bl	248 <_mainCRTStartup>
     2ca:	0000      	.short	0x0000
     2cc:	00003314 	.word	0x00003314
     2d0:	20000000 	.word	0x20000000
     2d4:	20000034 	.word	0x20000034

000002d8 <NMI_Handler>:
     2d8:	e7fe      	b.n	2d8 <NMI_Handler>

000002da <HardFault_Handler>:
     2da:	e7fe      	b.n	2da <HardFault_Handler>

000002dc <MemoryManagement_Handler>:
     2dc:	e7fe      	b.n	2dc <MemoryManagement_Handler>

000002de <BusFault_Handler>:
     2de:	e7fe      	b.n	2de <BusFault_Handler>

000002e0 <UsageFault_Handler>:
     2e0:	e7fe      	b.n	2e0 <UsageFault_Handler>

000002e2 <SVC_Handler>:
     2e2:	e7fe      	b.n	2e2 <SVC_Handler>

000002e4 <DebugMon_Handler>:
     2e4:	e7fe      	b.n	2e4 <DebugMon_Handler>

000002e6 <PendSV_Handler>:
     2e6:	e7fe      	b.n	2e6 <PendSV_Handler>

000002e8 <SysTick_Handler>:
     2e8:	e7fe      	b.n	2e8 <SysTick_Handler>

000002ea <Default_Handler>:
     2ea:	e7fe      	b.n	2ea <Default_Handler>

000002ec <nrf_log_backend_serial_put>:
     2ec:	b5f0      	push	{r4, r5, r6, r7, lr}
     2ee:	b095      	sub	sp, #84	; 0x54
     2f0:	460e      	mov	r6, r1
     2f2:	4615      	mov	r5, r2
     2f4:	461c      	mov	r4, r3
     2f6:	4608      	mov	r0, r1
     2f8:	f001 f971 	bl	15de <nrf_memobj_get>
     2fc:	950e      	str	r5, [sp, #56]	; 0x38
     2fe:	940f      	str	r4, [sp, #60]	; 0x3c
     300:	2400      	movs	r4, #0
     302:	9410      	str	r4, [sp, #64]	; 0x40
     304:	f88d 4044 	strb.w	r4, [sp, #68]	; 0x44
     308:	9412      	str	r4, [sp, #72]	; 0x48
     30a:	9b1a      	ldr	r3, [sp, #104]	; 0x68
     30c:	9313      	str	r3, [sp, #76]	; 0x4c
     30e:	4623      	mov	r3, r4
     310:	2208      	movs	r2, #8
     312:	a908      	add	r1, sp, #32
     314:	4630      	mov	r0, r6
     316:	f001 f981 	bl	161c <nrf_memobj_read>
     31a:	9b0a      	ldr	r3, [sp, #40]	; 0x28
     31c:	930b      	str	r3, [sp, #44]	; 0x2c
     31e:	f8bd 3024 	ldrh.w	r3, [sp, #36]	; 0x24
     322:	f8ad 3030 	strh.w	r3, [sp, #48]	; 0x30
     326:	f8bd 3026 	ldrh.w	r3, [sp, #38]	; 0x26
     32a:	f8ad 3032 	strh.w	r3, [sp, #50]	; 0x32
     32e:	f88d 4035 	strb.w	r4, [sp, #53]	; 0x35
     332:	f89d 3020 	ldrb.w	r3, [sp, #32]
     336:	f003 0303 	and.w	r3, r3, #3
     33a:	2b01      	cmp	r3, #1
     33c:	d006      	beq.n	34c <nrf_log_backend_serial_put+0x60>
     33e:	2b02      	cmp	r3, #2
     340:	d021      	beq.n	386 <nrf_log_backend_serial_put+0x9a>
     342:	4630      	mov	r0, r6
     344:	f001 f951 	bl	15ea <nrf_memobj_put>
     348:	b015      	add	sp, #84	; 0x54
     34a:	bdf0      	pop	{r4, r5, r6, r7, pc}
     34c:	9d08      	ldr	r5, [sp, #32]
     34e:	f3c5 2595 	ubfx	r5, r5, #10, #22
     352:	f89d 3020 	ldrb.w	r3, [sp, #32]
     356:	f3c3 03c2 	ubfx	r3, r3, #3, #3
     35a:	f88d 3034 	strb.w	r3, [sp, #52]	; 0x34
     35e:	f8bd 4020 	ldrh.w	r4, [sp, #32]
     362:	f3c4 1483 	ubfx	r4, r4, #6, #4
     366:	2308      	movs	r3, #8
     368:	00a2      	lsls	r2, r4, #2
     36a:	eb0d 0103 	add.w	r1, sp, r3
     36e:	4630      	mov	r0, r6
     370:	f001 f954 	bl	161c <nrf_memobj_read>
     374:	ab0e      	add	r3, sp, #56	; 0x38
     376:	9300      	str	r3, [sp, #0]
     378:	ab0b      	add	r3, sp, #44	; 0x2c
     37a:	4622      	mov	r2, r4
     37c:	a902      	add	r1, sp, #8
     37e:	4628      	mov	r0, r5
     380:	f000 fc48 	bl	c14 <nrf_log_std_entry_process>
     384:	e7dd      	b.n	342 <nrf_log_backend_serial_put+0x56>
     386:	f8bd 5022 	ldrh.w	r5, [sp, #34]	; 0x22
     38a:	f3c5 1589 	ubfx	r5, r5, #6, #10
     38e:	f89d 3020 	ldrb.w	r3, [sp, #32]
     392:	f3c3 03c2 	ubfx	r3, r3, #3, #3
     396:	f88d 3034 	strb.w	r3, [sp, #52]	; 0x34
     39a:	2708      	movs	r7, #8
     39c:	462c      	mov	r4, r5
     39e:	2d08      	cmp	r5, #8
     3a0:	bf28      	it	cs
     3a2:	2408      	movcs	r4, #8
     3a4:	463b      	mov	r3, r7
     3a6:	4622      	mov	r2, r4
     3a8:	a902      	add	r1, sp, #8
     3aa:	4630      	mov	r0, r6
     3ac:	f001 f936 	bl	161c <nrf_memobj_read>
     3b0:	4427      	add	r7, r4
     3b2:	1b2d      	subs	r5, r5, r4
     3b4:	ab0e      	add	r3, sp, #56	; 0x38
     3b6:	aa0b      	add	r2, sp, #44	; 0x2c
     3b8:	4621      	mov	r1, r4
     3ba:	a802      	add	r0, sp, #8
     3bc:	f000 fc8c 	bl	cd8 <nrf_log_hexdump_entry_process>
     3c0:	2d00      	cmp	r5, #0
     3c2:	d1eb      	bne.n	39c <nrf_log_backend_serial_put+0xb0>
     3c4:	e7bd      	b.n	342 <nrf_log_backend_serial_put+0x56>
	...

000003c8 <uart_evt_handler>:
     3c8:	4b01      	ldr	r3, [pc, #4]	; (3d0 <uart_evt_handler+0x8>)
     3ca:	2201      	movs	r2, #1
     3cc:	701a      	strb	r2, [r3, #0]
     3ce:	4770      	bx	lr
     3d0:	20000094 	.word	0x20000094

000003d4 <nrf_log_backend_uart_flush>:
     3d4:	4770      	bx	lr
	...

000003d8 <uart_init>:
     3d8:	b510      	push	{r4, lr}
     3da:	b088      	sub	sp, #32
     3dc:	4686      	mov	lr, r0
     3de:	46ec      	mov	ip, sp
     3e0:	4c0d      	ldr	r4, [pc, #52]	; (418 <uart_init+0x40>)
     3e2:	cc0f      	ldmia	r4!, {r0, r1, r2, r3}
     3e4:	e8ac 000f 	stmia.w	ip!, {r0, r1, r2, r3}
     3e8:	e894 000f 	ldmia.w	r4, {r0, r1, r2, r3}
     3ec:	e88c 000f 	stmia.w	ip, {r0, r1, r2, r3}
     3f0:	2306      	movs	r3, #6
     3f2:	9300      	str	r3, [sp, #0]
     3f4:	f1be 0400 	subs.w	r4, lr, #0
     3f8:	4a08      	ldr	r2, [pc, #32]	; (41c <uart_init+0x44>)
     3fa:	bf08      	it	eq
     3fc:	2200      	moveq	r2, #0
     3fe:	4669      	mov	r1, sp
     400:	4807      	ldr	r0, [pc, #28]	; (420 <uart_init+0x48>)
     402:	f001 f9c3 	bl	178c <nrf_drv_uart_init>
     406:	b918      	cbnz	r0, 410 <uart_init+0x38>
     408:	4b06      	ldr	r3, [pc, #24]	; (424 <uart_init+0x4c>)
     40a:	701c      	strb	r4, [r3, #0]
     40c:	b008      	add	sp, #32
     40e:	bd10      	pop	{r4, pc}
     410:	f000 fd13 	bl	e3a <app_error_handler_bare>
     414:	e7f8      	b.n	408 <uart_init+0x30>
     416:	bf00      	nop
     418:	00002f68 	.word	0x00002f68
     41c:	000003c9 	.word	0x000003c9
     420:	20000000 	.word	0x20000000
     424:	20000050 	.word	0x20000050

00000428 <nrf_log_backend_uart_panic_set>:
     428:	b508      	push	{r3, lr}
     42a:	4b08      	ldr	r3, [pc, #32]	; (44c <nrf_log_backend_uart_panic_set+0x24>)
     42c:	781b      	ldrb	r3, [r3, #0]
     42e:	4a08      	ldr	r2, [pc, #32]	; (450 <nrf_log_backend_uart_panic_set+0x28>)
     430:	5cd3      	ldrb	r3, [r2, r3]
     432:	b133      	cbz	r3, 442 <nrf_log_backend_uart_panic_set+0x1a>
     434:	4807      	ldr	r0, [pc, #28]	; (454 <nrf_log_backend_uart_panic_set+0x2c>)
     436:	f002 f8f3 	bl	2620 <nrfx_uarte_uninit>
     43a:	2000      	movs	r0, #0
     43c:	f7ff ffcc 	bl	3d8 <uart_init>
     440:	bd08      	pop	{r3, pc}
     442:	4805      	ldr	r0, [pc, #20]	; (458 <nrf_log_backend_uart_panic_set+0x30>)
     444:	f001 fe74 	bl	2130 <nrfx_uart_uninit>
     448:	e7f7      	b.n	43a <nrf_log_backend_uart_panic_set+0x12>
     44a:	bf00      	nop
     44c:	20000000 	.word	0x20000000
     450:	20000650 	.word	0x20000650
     454:	20000004 	.word	0x20000004
     458:	2000000c 	.word	0x2000000c

0000045c <nrf_log_backend_uart_put>:
     45c:	b500      	push	{lr}
     45e:	b083      	sub	sp, #12
     460:	4b04      	ldr	r3, [pc, #16]	; (474 <nrf_log_backend_uart_put+0x18>)
     462:	9300      	str	r3, [sp, #0]
     464:	2340      	movs	r3, #64	; 0x40
     466:	4a04      	ldr	r2, [pc, #16]	; (478 <nrf_log_backend_uart_put+0x1c>)
     468:	f7ff ff40 	bl	2ec <nrf_log_backend_serial_put>
     46c:	b003      	add	sp, #12
     46e:	f85d fb04 	ldr.w	pc, [sp], #4
     472:	bf00      	nop
     474:	0000047d 	.word	0x0000047d
     478:	20000054 	.word	0x20000054

0000047c <serial_tx>:
     47c:	b508      	push	{r3, lr}
     47e:	4b0e      	ldr	r3, [pc, #56]	; (4b8 <serial_tx+0x3c>)
     480:	2000      	movs	r0, #0
     482:	7018      	strb	r0, [r3, #0]
     484:	4b0d      	ldr	r3, [pc, #52]	; (4bc <serial_tx+0x40>)
     486:	781b      	ldrb	r3, [r3, #0]
     488:	480d      	ldr	r0, [pc, #52]	; (4c0 <serial_tx+0x44>)
     48a:	5cc3      	ldrb	r3, [r0, r3]
     48c:	b163      	cbz	r3, 4a8 <serial_tx+0x2c>
     48e:	b2d2      	uxtb	r2, r2
     490:	480c      	ldr	r0, [pc, #48]	; (4c4 <serial_tx+0x48>)
     492:	f002 f975 	bl	2780 <nrfx_uarte_tx>
     496:	b960      	cbnz	r0, 4b2 <serial_tx+0x36>
     498:	4b0b      	ldr	r3, [pc, #44]	; (4c8 <serial_tx+0x4c>)
     49a:	781a      	ldrb	r2, [r3, #0]
     49c:	4906      	ldr	r1, [pc, #24]	; (4b8 <serial_tx+0x3c>)
     49e:	b112      	cbz	r2, 4a6 <serial_tx+0x2a>
     4a0:	780b      	ldrb	r3, [r1, #0]
     4a2:	2b00      	cmp	r3, #0
     4a4:	d0fb      	beq.n	49e <serial_tx+0x22>
     4a6:	bd08      	pop	{r3, pc}
     4a8:	b2d2      	uxtb	r2, r2
     4aa:	4808      	ldr	r0, [pc, #32]	; (4cc <serial_tx+0x50>)
     4ac:	f001 febe 	bl	222c <nrfx_uart_tx>
     4b0:	e7f1      	b.n	496 <serial_tx+0x1a>
     4b2:	f000 fcc2 	bl	e3a <app_error_handler_bare>
     4b6:	e7ef      	b.n	498 <serial_tx+0x1c>
     4b8:	20000094 	.word	0x20000094
     4bc:	20000000 	.word	0x20000000
     4c0:	20000650 	.word	0x20000650
     4c4:	20000004 	.word	0x20000004
     4c8:	20000050 	.word	0x20000050
     4cc:	2000000c 	.word	0x2000000c

000004d0 <nrf_log_backend_uart_init>:
     4d0:	b508      	push	{r3, lr}
     4d2:	2001      	movs	r0, #1
     4d4:	f7ff ff80 	bl	3d8 <uart_init>
     4d8:	bd08      	pop	{r3, pc}
	...

000004dc <nrf_log_default_backends_init>:
     4dc:	b508      	push	{r3, lr}
     4de:	f7ff fff7 	bl	4d0 <nrf_log_backend_uart_init>
     4e2:	2104      	movs	r1, #4
     4e4:	4803      	ldr	r0, [pc, #12]	; (4f4 <nrf_log_default_backends_init+0x18>)
     4e6:	f000 faeb 	bl	ac0 <nrf_log_backend_add>
     4ea:	4b03      	ldr	r3, [pc, #12]	; (4f8 <nrf_log_default_backends_init+0x1c>)
     4ec:	2201      	movs	r2, #1
     4ee:	715a      	strb	r2, [r3, #5]
     4f0:	bd08      	pop	{r3, pc}
     4f2:	bf00      	nop
     4f4:	000032e8 	.word	0x000032e8
     4f8:	20000014 	.word	0x20000014

000004fc <invalid_packets_omit>:
     4fc:	7803      	ldrb	r3, [r0, #0]
     4fe:	f013 0f04 	tst.w	r3, #4
     502:	d018      	beq.n	536 <invalid_packets_omit+0x3a>
     504:	f003 0303 	and.w	r3, r3, #3
     508:	2b01      	cmp	r3, #1
     50a:	d003      	beq.n	514 <invalid_packets_omit+0x18>
     50c:	2b02      	cmp	r3, #2
     50e:	d00a      	beq.n	526 <invalid_packets_omit+0x2a>
     510:	2001      	movs	r0, #1
     512:	4770      	bx	lr
     514:	680b      	ldr	r3, [r1, #0]
     516:	3302      	adds	r3, #2
     518:	8802      	ldrh	r2, [r0, #0]
     51a:	f3c2 1283 	ubfx	r2, r2, #6, #4
     51e:	4413      	add	r3, r2
     520:	600b      	str	r3, [r1, #0]
     522:	2001      	movs	r0, #1
     524:	4770      	bx	lr
     526:	680b      	ldr	r3, [r1, #0]
     528:	3302      	adds	r3, #2
     52a:	8842      	ldrh	r2, [r0, #2]
     52c:	eb03 1392 	add.w	r3, r3, r2, lsr #6
     530:	600b      	str	r3, [r1, #0]
     532:	2001      	movs	r0, #1
     534:	4770      	bx	lr
     536:	2000      	movs	r0, #0
     538:	4770      	bx	lr
	...

0000053c <log_skip>:
     53c:	b510      	push	{r4, lr}
     53e:	b084      	sub	sp, #16
     540:	4c26      	ldr	r4, [pc, #152]	; (5dc <log_skip+0xa0>)
     542:	f504 6083 	add.w	r0, r4, #1048	; 0x418
     546:	f000 fd1b 	bl	f80 <nrf_atomic_flag_set>
     54a:	f204 4014 	addw	r0, r4, #1044	; 0x414
     54e:	f000 fd17 	bl	f80 <nrf_atomic_flag_set>
     552:	68a3      	ldr	r3, [r4, #8]
     554:	9303      	str	r3, [sp, #12]
     556:	b2db      	uxtb	r3, r3
     558:	3303      	adds	r3, #3
     55a:	eb04 0083 	add.w	r0, r4, r3, lsl #2
     55e:	e004      	b.n	56a <log_skip+0x2e>
     560:	f89d 000c 	ldrb.w	r0, [sp, #12]
     564:	3003      	adds	r0, #3
     566:	eb04 0080 	add.w	r0, r4, r0, lsl #2
     56a:	a903      	add	r1, sp, #12
     56c:	f7ff ffc6 	bl	4fc <invalid_packets_omit>
     570:	2800      	cmp	r0, #0
     572:	d1f5      	bne.n	560 <log_skip+0x24>
     574:	9b03      	ldr	r3, [sp, #12]
     576:	4919      	ldr	r1, [pc, #100]	; (5dc <log_skip+0xa0>)
     578:	b2da      	uxtb	r2, r3
     57a:	eb01 0282 	add.w	r2, r1, r2, lsl #2
     57e:	68d2      	ldr	r2, [r2, #12]
     580:	9200      	str	r2, [sp, #0]
     582:	1c98      	adds	r0, r3, #2
     584:	3301      	adds	r3, #1
     586:	b2db      	uxtb	r3, r3
     588:	eb01 0183 	add.w	r1, r1, r3, lsl #2
     58c:	68cb      	ldr	r3, [r1, #12]
     58e:	9301      	str	r3, [sp, #4]
     590:	9003      	str	r0, [sp, #12]
     592:	f002 0303 	and.w	r3, r2, #3
     596:	2b01      	cmp	r3, #1
     598:	d00c      	beq.n	5b4 <log_skip+0x78>
     59a:	2b02      	cmp	r3, #2
     59c:	d113      	bne.n	5c6 <log_skip+0x8a>
     59e:	f8bd 4006 	ldrh.w	r4, [sp, #6]
     5a2:	f8bd 3002 	ldrh.w	r3, [sp, #2]
     5a6:	f3c3 1389 	ubfx	r3, r3, #6, #10
     5aa:	3303      	adds	r3, #3
     5ac:	eb00 0393 	add.w	r3, r0, r3, lsr #2
     5b0:	9303      	str	r3, [sp, #12]
     5b2:	e009      	b.n	5c8 <log_skip+0x8c>
     5b4:	f8bd 4006 	ldrh.w	r4, [sp, #6]
     5b8:	f8bd 3000 	ldrh.w	r3, [sp]
     5bc:	f3c3 1383 	ubfx	r3, r3, #6, #4
     5c0:	4403      	add	r3, r0
     5c2:	9303      	str	r3, [sp, #12]
     5c4:	e000      	b.n	5c8 <log_skip+0x8c>
     5c6:	2400      	movs	r4, #0
     5c8:	4805      	ldr	r0, [pc, #20]	; (5e0 <log_skip+0xa4>)
     5ca:	f000 fcde 	bl	f8a <nrf_atomic_flag_clear_fetch>
     5ce:	b110      	cbz	r0, 5d6 <log_skip+0x9a>
     5d0:	4b02      	ldr	r3, [pc, #8]	; (5dc <log_skip+0xa0>)
     5d2:	9a03      	ldr	r2, [sp, #12]
     5d4:	609a      	str	r2, [r3, #8]
     5d6:	4620      	mov	r0, r4
     5d8:	b004      	add	sp, #16
     5da:	bd10      	pop	{r4, pc}
     5dc:	20000168 	.word	0x20000168
     5e0:	2000057c 	.word	0x2000057c

000005e4 <nrf_log_init>:
     5e4:	b510      	push	{r4, lr}
     5e6:	4b07      	ldr	r3, [pc, #28]	; (604 <nrf_log_init+0x20>)
     5e8:	2200      	movs	r2, #0
     5ea:	701a      	strb	r2, [r3, #0]
     5ec:	4806      	ldr	r0, [pc, #24]	; (608 <nrf_log_init+0x24>)
     5ee:	f000 ffa3 	bl	1538 <nrf_memobj_pool_init>
     5f2:	4604      	mov	r4, r0
     5f4:	b108      	cbz	r0, 5fa <nrf_log_init+0x16>
     5f6:	4620      	mov	r0, r4
     5f8:	bd10      	pop	{r4, pc}
     5fa:	4804      	ldr	r0, [pc, #16]	; (60c <nrf_log_init+0x28>)
     5fc:	f001 f819 	bl	1632 <nrf_ringbuf_init>
     600:	e7f9      	b.n	5f6 <nrf_log_init+0x12>
     602:	bf00      	nop
     604:	20000168 	.word	0x20000168
     608:	000032f8 	.word	0x000032f8
     60c:	00002fc0 	.word	0x00002fc0

00000610 <nrf_log_module_name_get>:
     610:	b1a1      	cbz	r1, 63c <nrf_log_module_name_get+0x2c>
     612:	4b0c      	ldr	r3, [pc, #48]	; (644 <nrf_log_module_name_get+0x34>)
     614:	4a0c      	ldr	r2, [pc, #48]	; (648 <nrf_log_module_name_get+0x38>)
     616:	1a9b      	subs	r3, r3, r2
     618:	ea4f 0cd3 	mov.w	ip, r3, lsr #3
     61c:	2b07      	cmp	r3, #7
     61e:	d90a      	bls.n	636 <nrf_log_module_name_get+0x26>
     620:	2300      	movs	r3, #0
     622:	490a      	ldr	r1, [pc, #40]	; (64c <nrf_log_module_name_get+0x3c>)
     624:	f831 2023 	ldrh.w	r2, [r1, r3, lsl #2]
     628:	4282      	cmp	r2, r0
     62a:	d006      	beq.n	63a <nrf_log_module_name_get+0x2a>
     62c:	3301      	adds	r3, #1
     62e:	4563      	cmp	r3, ip
     630:	d3f8      	bcc.n	624 <nrf_log_module_name_get+0x14>
     632:	2000      	movs	r0, #0
     634:	4770      	bx	lr
     636:	2000      	movs	r0, #0
     638:	4770      	bx	lr
     63a:	4618      	mov	r0, r3
     63c:	4b02      	ldr	r3, [pc, #8]	; (648 <nrf_log_module_name_get+0x38>)
     63e:	f853 0030 	ldr.w	r0, [r3, r0, lsl #3]
     642:	4770      	bx	lr
     644:	000032e8 	.word	0x000032e8
     648:	000032a0 	.word	0x000032a0
     64c:	20000034 	.word	0x20000034

00000650 <nrf_log_color_id_get>:
     650:	4b09      	ldr	r3, [pc, #36]	; (678 <nrf_log_color_id_get+0x28>)
     652:	eb03 03c0 	add.w	r3, r3, r0, lsl #3
     656:	3901      	subs	r1, #1
     658:	2903      	cmp	r1, #3
     65a:	d809      	bhi.n	670 <nrf_log_color_id_get+0x20>
     65c:	e8df f001 	tbb	[pc, r1]
     660:	0604020a 	.word	0x0604020a
     664:	2004      	movs	r0, #4
     666:	4770      	bx	lr
     668:	7918      	ldrb	r0, [r3, #4]
     66a:	4770      	bx	lr
     66c:	7958      	ldrb	r0, [r3, #5]
     66e:	4770      	bx	lr
     670:	2000      	movs	r0, #0
     672:	4770      	bx	lr
     674:	2002      	movs	r0, #2
     676:	4770      	bx	lr
     678:	000032a0 	.word	0x000032a0

0000067c <buffer_is_empty>:
     67c:	4b03      	ldr	r3, [pc, #12]	; (68c <buffer_is_empty+0x10>)
     67e:	6898      	ldr	r0, [r3, #8]
     680:	685b      	ldr	r3, [r3, #4]
     682:	4298      	cmp	r0, r3
     684:	bf14      	ite	ne
     686:	2000      	movne	r0, #0
     688:	2001      	moveq	r0, #1
     68a:	4770      	bx	lr
     68c:	20000168 	.word	0x20000168

00000690 <nrf_log_frontend_dequeue>:
     690:	e92d 43f0 	stmdb	sp!, {r4, r5, r6, r7, r8, r9, lr}
     694:	b085      	sub	sp, #20
     696:	f7ff fff1 	bl	67c <buffer_is_empty>
     69a:	2800      	cmp	r0, #0
     69c:	f040 810a 	bne.w	8b4 <nrf_log_frontend_dequeue+0x224>
     6a0:	4605      	mov	r5, r0
     6a2:	4885      	ldr	r0, [pc, #532]	; (8b8 <nrf_log_frontend_dequeue+0x228>)
     6a4:	2300      	movs	r3, #0
     6a6:	f8c0 3418 	str.w	r3, [r0, #1048]	; 0x418
     6aa:	f3bf 8f4f 	dsb	sy
     6ae:	6883      	ldr	r3, [r0, #8]
     6b0:	9303      	str	r3, [sp, #12]
     6b2:	b2db      	uxtb	r3, r3
     6b4:	3303      	adds	r3, #3
     6b6:	eb00 0083 	add.w	r0, r0, r3, lsl #2
     6ba:	4c7f      	ldr	r4, [pc, #508]	; (8b8 <nrf_log_frontend_dequeue+0x228>)
     6bc:	e038      	b.n	730 <nrf_log_frontend_dequeue+0xa0>
     6be:	9b03      	ldr	r3, [sp, #12]
     6c0:	497d      	ldr	r1, [pc, #500]	; (8b8 <nrf_log_frontend_dequeue+0x228>)
     6c2:	b2da      	uxtb	r2, r3
     6c4:	eb01 0282 	add.w	r2, r1, r2, lsl #2
     6c8:	68d2      	ldr	r2, [r2, #12]
     6ca:	9200      	str	r2, [sp, #0]
     6cc:	1c9c      	adds	r4, r3, #2
     6ce:	3301      	adds	r3, #1
     6d0:	b2db      	uxtb	r3, r3
     6d2:	eb01 0183 	add.w	r1, r1, r3, lsl #2
     6d6:	68cb      	ldr	r3, [r1, #12]
     6d8:	9301      	str	r3, [sp, #4]
     6da:	9403      	str	r4, [sp, #12]
     6dc:	f002 0203 	and.w	r2, r2, #3
     6e0:	2a02      	cmp	r2, #2
     6e2:	d035      	beq.n	750 <nrf_log_frontend_dequeue+0xc0>
     6e4:	2a01      	cmp	r2, #1
     6e6:	f000 8096 	beq.w	816 <nrf_log_frontend_dequeue+0x186>
     6ea:	4b73      	ldr	r3, [pc, #460]	; (8b8 <nrf_log_frontend_dequeue+0x228>)
     6ec:	f8d3 4410 	ldr.w	r4, [r3, #1040]	; 0x410
     6f0:	b13c      	cbz	r4, 702 <nrf_log_frontend_dequeue+0x72>
     6f2:	6823      	ldr	r3, [r4, #0]
     6f4:	689b      	ldr	r3, [r3, #8]
     6f6:	4620      	mov	r0, r4
     6f8:	4798      	blx	r3
     6fa:	68e3      	ldr	r3, [r4, #12]
     6fc:	681c      	ldr	r4, [r3, #0]
     6fe:	2c00      	cmp	r4, #0
     700:	d1f7      	bne.n	6f2 <nrf_log_frontend_dequeue+0x62>
     702:	486e      	ldr	r0, [pc, #440]	; (8bc <nrf_log_frontend_dequeue+0x22c>)
     704:	4b6e      	ldr	r3, [pc, #440]	; (8c0 <nrf_log_frontend_dequeue+0x230>)
     706:	1ac0      	subs	r0, r0, r3
     708:	08c0      	lsrs	r0, r0, #3
     70a:	0400      	lsls	r0, r0, #16
     70c:	496d      	ldr	r1, [pc, #436]	; (8c4 <nrf_log_frontend_dequeue+0x234>)
     70e:	f040 0002 	orr.w	r0, r0, #2
     712:	f000 f8db 	bl	8cc <nrf_log_frontend_std_0>
     716:	f7ff ffb1 	bl	67c <buffer_is_empty>
     71a:	f080 0501 	eor.w	r5, r0, #1
     71e:	b2ed      	uxtb	r5, r5
     720:	4628      	mov	r0, r5
     722:	b005      	add	sp, #20
     724:	e8bd 83f0 	ldmia.w	sp!, {r4, r5, r6, r7, r8, r9, pc}
     728:	b2c0      	uxtb	r0, r0
     72a:	3003      	adds	r0, #3
     72c:	eb04 0080 	add.w	r0, r4, r0, lsl #2
     730:	a903      	add	r1, sp, #12
     732:	f7ff fee3 	bl	4fc <invalid_packets_omit>
     736:	2800      	cmp	r0, #0
     738:	d0c1      	beq.n	6be <nrf_log_frontend_dequeue+0x2e>
     73a:	f8d4 3418 	ldr.w	r3, [r4, #1048]	; 0x418
     73e:	2b00      	cmp	r3, #0
     740:	d1bd      	bne.n	6be <nrf_log_frontend_dequeue+0x2e>
     742:	6863      	ldr	r3, [r4, #4]
     744:	9803      	ldr	r0, [sp, #12]
     746:	4283      	cmp	r3, r0
     748:	d8ee      	bhi.n	728 <nrf_log_frontend_dequeue+0x98>
     74a:	4a5b      	ldr	r2, [pc, #364]	; (8b8 <nrf_log_frontend_dequeue+0x228>)
     74c:	6093      	str	r3, [r2, #8]
     74e:	e7e7      	b.n	720 <nrf_log_frontend_dequeue+0x90>
     750:	f8bd 3002 	ldrh.w	r3, [sp, #2]
     754:	f3c3 1789 	ubfx	r7, r3, #6, #10
     758:	463e      	mov	r6, r7
     75a:	2f50      	cmp	r7, #80	; 0x50
     75c:	bf28      	it	cs
     75e:	2650      	movcs	r6, #80	; 0x50
     760:	f366 138f 	bfi	r3, r6, #6, #10
     764:	f8ad 3002 	strh.w	r3, [sp, #2]
     768:	f106 0108 	add.w	r1, r6, #8
     76c:	4856      	ldr	r0, [pc, #344]	; (8c8 <nrf_log_frontend_dequeue+0x238>)
     76e:	f000 ff03 	bl	1578 <nrf_memobj_alloc>
     772:	4605      	mov	r5, r0
     774:	2800      	cmp	r0, #0
     776:	d0b8      	beq.n	6ea <nrf_log_frontend_dequeue+0x5a>
     778:	f000 ff31 	bl	15de <nrf_memobj_get>
     77c:	2300      	movs	r3, #0
     77e:	2208      	movs	r2, #8
     780:	4669      	mov	r1, sp
     782:	4628      	mov	r0, r5
     784:	f000 ff3f 	bl	1606 <nrf_memobj_write>
     788:	43e3      	mvns	r3, r4
     78a:	b2db      	uxtb	r3, r3
     78c:	3301      	adds	r3, #1
     78e:	009a      	lsls	r2, r3, #2
     790:	ebb6 0f83 	cmp.w	r6, r3, lsl #2
     794:	d934      	bls.n	800 <nrf_log_frontend_dequeue+0x170>
     796:	1ab6      	subs	r6, r6, r2
     798:	fa5f f886 	uxtb.w	r8, r6
     79c:	b2d6      	uxtb	r6, r2
     79e:	f8df 9118 	ldr.w	r9, [pc, #280]	; 8b8 <nrf_log_frontend_dequeue+0x228>
     7a2:	b2e1      	uxtb	r1, r4
     7a4:	3103      	adds	r1, #3
     7a6:	2308      	movs	r3, #8
     7a8:	4632      	mov	r2, r6
     7aa:	eb09 0181 	add.w	r1, r9, r1, lsl #2
     7ae:	4628      	mov	r0, r5
     7b0:	f000 ff29 	bl	1606 <nrf_memobj_write>
     7b4:	f106 0308 	add.w	r3, r6, #8
     7b8:	4642      	mov	r2, r8
     7ba:	f109 010c 	add.w	r1, r9, #12
     7be:	4628      	mov	r0, r5
     7c0:	f000 ff21 	bl	1606 <nrf_memobj_write>
     7c4:	3703      	adds	r7, #3
     7c6:	eb04 0497 	add.w	r4, r4, r7, lsr #2
     7ca:	9403      	str	r4, [sp, #12]
     7cc:	4b3a      	ldr	r3, [pc, #232]	; (8b8 <nrf_log_frontend_dequeue+0x228>)
     7ce:	f8d3 4410 	ldr.w	r4, [r3, #1040]	; 0x410
     7d2:	f8d3 3418 	ldr.w	r3, [r3, #1048]	; 0x418
     7d6:	2b00      	cmp	r3, #0
     7d8:	d15a      	bne.n	890 <nrf_log_frontend_dequeue+0x200>
     7da:	2c00      	cmp	r4, #0
     7dc:	d160      	bne.n	8a0 <nrf_log_frontend_dequeue+0x210>
     7de:	4628      	mov	r0, r5
     7e0:	f000 ff03 	bl	15ea <nrf_memobj_put>
     7e4:	2000      	movs	r0, #0
     7e6:	f000 fb81 	bl	eec <app_util_critical_region_enter>
     7ea:	4b33      	ldr	r3, [pc, #204]	; (8b8 <nrf_log_frontend_dequeue+0x228>)
     7ec:	f8d3 3418 	ldr.w	r3, [r3, #1048]	; 0x418
     7f0:	b913      	cbnz	r3, 7f8 <nrf_log_frontend_dequeue+0x168>
     7f2:	4b31      	ldr	r3, [pc, #196]	; (8b8 <nrf_log_frontend_dequeue+0x228>)
     7f4:	9a03      	ldr	r2, [sp, #12]
     7f6:	609a      	str	r2, [r3, #8]
     7f8:	2000      	movs	r0, #0
     7fa:	f000 fb7b 	bl	ef4 <app_util_critical_region_exit>
     7fe:	e78a      	b.n	716 <nrf_log_frontend_dequeue+0x86>
     800:	b2e1      	uxtb	r1, r4
     802:	3103      	adds	r1, #3
     804:	2308      	movs	r3, #8
     806:	4632      	mov	r2, r6
     808:	482b      	ldr	r0, [pc, #172]	; (8b8 <nrf_log_frontend_dequeue+0x228>)
     80a:	eb00 0181 	add.w	r1, r0, r1, lsl #2
     80e:	4628      	mov	r0, r5
     810:	f000 fef9 	bl	1606 <nrf_memobj_write>
     814:	e7d6      	b.n	7c4 <nrf_log_frontend_dequeue+0x134>
     816:	f8bd 2000 	ldrh.w	r2, [sp]
     81a:	f3c2 1383 	ubfx	r3, r2, #6, #4
     81e:	2b06      	cmp	r3, #6
     820:	bf28      	it	cs
     822:	2306      	movcs	r3, #6
     824:	f363 1289 	bfi	r2, r3, #6, #4
     828:	f8ad 2000 	strh.w	r2, [sp]
     82c:	3302      	adds	r3, #2
     82e:	f003 010f 	and.w	r1, r3, #15
     832:	0089      	lsls	r1, r1, #2
     834:	4824      	ldr	r0, [pc, #144]	; (8c8 <nrf_log_frontend_dequeue+0x238>)
     836:	f000 fe9f 	bl	1578 <nrf_memobj_alloc>
     83a:	4605      	mov	r5, r0
     83c:	2800      	cmp	r0, #0
     83e:	f43f af54 	beq.w	6ea <nrf_log_frontend_dequeue+0x5a>
     842:	f000 fecc 	bl	15de <nrf_memobj_get>
     846:	2300      	movs	r3, #0
     848:	2208      	movs	r2, #8
     84a:	4669      	mov	r1, sp
     84c:	4628      	mov	r0, r5
     84e:	f000 feda 	bl	1606 <nrf_memobj_write>
     852:	f8bd 3000 	ldrh.w	r3, [sp]
     856:	f413 7f70 	tst.w	r3, #960	; 0x3c0
     85a:	d0b7      	beq.n	7cc <nrf_log_frontend_dequeue+0x13c>
     85c:	2600      	movs	r6, #0
     85e:	2408      	movs	r4, #8
     860:	f8df 8054 	ldr.w	r8, [pc, #84]	; 8b8 <nrf_log_frontend_dequeue+0x228>
     864:	2704      	movs	r7, #4
     866:	9b03      	ldr	r3, [sp, #12]
     868:	1c5a      	adds	r2, r3, #1
     86a:	9203      	str	r2, [sp, #12]
     86c:	b2db      	uxtb	r3, r3
     86e:	1cd9      	adds	r1, r3, #3
     870:	4623      	mov	r3, r4
     872:	463a      	mov	r2, r7
     874:	eb08 0181 	add.w	r1, r8, r1, lsl #2
     878:	4628      	mov	r0, r5
     87a:	f000 fec4 	bl	1606 <nrf_memobj_write>
     87e:	3404      	adds	r4, #4
     880:	3601      	adds	r6, #1
     882:	f8bd 3000 	ldrh.w	r3, [sp]
     886:	f3c3 1383 	ubfx	r3, r3, #6, #4
     88a:	42b3      	cmp	r3, r6
     88c:	d8eb      	bhi.n	866 <nrf_log_frontend_dequeue+0x1d6>
     88e:	e79d      	b.n	7cc <nrf_log_frontend_dequeue+0x13c>
     890:	4628      	mov	r0, r5
     892:	f000 feaa 	bl	15ea <nrf_memobj_put>
     896:	e73e      	b.n	716 <nrf_log_frontend_dequeue+0x86>
     898:	68e3      	ldr	r3, [r4, #12]
     89a:	681c      	ldr	r4, [r3, #0]
     89c:	2c00      	cmp	r4, #0
     89e:	d09e      	beq.n	7de <nrf_log_frontend_dequeue+0x14e>
     8a0:	68e3      	ldr	r3, [r4, #12]
     8a2:	795b      	ldrb	r3, [r3, #5]
     8a4:	2b00      	cmp	r3, #0
     8a6:	d0f7      	beq.n	898 <nrf_log_frontend_dequeue+0x208>
     8a8:	6823      	ldr	r3, [r4, #0]
     8aa:	681b      	ldr	r3, [r3, #0]
     8ac:	4629      	mov	r1, r5
     8ae:	4620      	mov	r0, r4
     8b0:	4798      	blx	r3
     8b2:	e7f1      	b.n	898 <nrf_log_frontend_dequeue+0x208>
     8b4:	2500      	movs	r5, #0
     8b6:	e733      	b.n	720 <nrf_log_frontend_dequeue+0x90>
     8b8:	20000168 	.word	0x20000168
     8bc:	000032c8 	.word	0x000032c8
     8c0:	000032a0 	.word	0x000032a0
     8c4:	00002fa8 	.word	0x00002fa8
     8c8:	000032f8 	.word	0x000032f8

000008cc <nrf_log_frontend_std_0>:
     8cc:	e92d 43f8 	stmdb	sp!, {r3, r4, r5, r6, r7, r8, r9, lr}
     8d0:	4680      	mov	r8, r0
     8d2:	4689      	mov	r9, r1
     8d4:	2000      	movs	r0, #0
     8d6:	f000 fb09 	bl	eec <app_util_critical_region_enter>
     8da:	4b2d      	ldr	r3, [pc, #180]	; (990 <nrf_log_frontend_std_0+0xc4>)
     8dc:	685e      	ldr	r6, [r3, #4]
     8de:	689b      	ldr	r3, [r3, #8]
     8e0:	f503 7380 	add.w	r3, r3, #256	; 0x100
     8e4:	1b9b      	subs	r3, r3, r6
     8e6:	2b01      	cmp	r3, #1
     8e8:	d814      	bhi.n	914 <nrf_log_frontend_std_0+0x48>
     8ea:	4c29      	ldr	r4, [pc, #164]	; (990 <nrf_log_frontend_std_0+0xc4>)
     8ec:	f204 451c 	addw	r5, r4, #1052	; 0x41c
     8f0:	2701      	movs	r7, #1
     8f2:	4639      	mov	r1, r7
     8f4:	4628      	mov	r0, r5
     8f6:	f000 fb2d 	bl	f54 <nrf_atomic_u32_add>
     8fa:	f7ff fe1f 	bl	53c <log_skip>
     8fe:	4601      	mov	r1, r0
     900:	4628      	mov	r0, r5
     902:	f000 fb27 	bl	f54 <nrf_atomic_u32_add>
     906:	68a3      	ldr	r3, [r4, #8]
     908:	f503 7380 	add.w	r3, r3, #256	; 0x100
     90c:	6862      	ldr	r2, [r4, #4]
     90e:	1a9b      	subs	r3, r3, r2
     910:	2b01      	cmp	r3, #1
     912:	d9ee      	bls.n	8f2 <nrf_log_frontend_std_0+0x26>
     914:	4c1e      	ldr	r4, [pc, #120]	; (990 <nrf_log_frontend_std_0+0xc4>)
     916:	6863      	ldr	r3, [r4, #4]
     918:	b2da      	uxtb	r2, r3
     91a:	3203      	adds	r2, #3
     91c:	2105      	movs	r1, #5
     91e:	f844 1022 	str.w	r1, [r4, r2, lsl #2]
     922:	3302      	adds	r3, #2
     924:	6063      	str	r3, [r4, #4]
     926:	2000      	movs	r0, #0
     928:	f000 fae4 	bl	ef4 <app_util_critical_region_exit>
     92c:	2100      	movs	r1, #0
     92e:	f204 401c 	addw	r0, r4, #1052	; 0x41c
     932:	f000 faef 	bl	f14 <nrf_atomic_u32_fetch_store>
     936:	f380 0310 	usat	r3, #16, r0
     93a:	1c72      	adds	r2, r6, #1
     93c:	b2d2      	uxtb	r2, r2
     93e:	eb04 0282 	add.w	r2, r4, r2, lsl #2
     942:	041b      	lsls	r3, r3, #16
     944:	ea43 4318 	orr.w	r3, r3, r8, lsr #16
     948:	60d3      	str	r3, [r2, #12]
     94a:	b2f6      	uxtb	r6, r6
     94c:	3603      	adds	r6, #3
     94e:	f814 3026 	ldrb.w	r3, [r4, r6, lsl #2]
     952:	f368 03c5 	bfi	r3, r8, #3, #3
     956:	f804 3026 	strb.w	r3, [r4, r6, lsl #2]
     95a:	f834 3026 	ldrh.w	r3, [r4, r6, lsl #2]
     95e:	f36f 1389 	bfc	r3, #6, #4
     962:	f824 3026 	strh.w	r3, [r4, r6, lsl #2]
     966:	f854 3026 	ldr.w	r3, [r4, r6, lsl #2]
     96a:	f369 239f 	bfi	r3, r9, #10, #22
     96e:	f844 3026 	str.w	r3, [r4, r6, lsl #2]
     972:	2201      	movs	r2, #1
     974:	f362 0301 	bfi	r3, r2, #0, #2
     978:	f36f 0382 	bfc	r3, #2, #1
     97c:	f804 3026 	strb.w	r3, [r4, r6, lsl #2]
     980:	7823      	ldrb	r3, [r4, #0]
     982:	b11b      	cbz	r3, 98c <nrf_log_frontend_std_0+0xc0>
     984:	f7ff fe84 	bl	690 <nrf_log_frontend_dequeue>
     988:	2800      	cmp	r0, #0
     98a:	d1fb      	bne.n	984 <nrf_log_frontend_std_0+0xb8>
     98c:	e8bd 83f8 	ldmia.w	sp!, {r3, r4, r5, r6, r7, r8, r9, pc}
     990:	20000168 	.word	0x20000168

00000994 <nrf_log_frontend_hexdump>:
     994:	e92d 4ff0 	stmdb	sp!, {r4, r5, r6, r7, r8, r9, sl, fp, lr}
     998:	b083      	sub	sp, #12
     99a:	4682      	mov	sl, r0
     99c:	9101      	str	r1, [sp, #4]
     99e:	4691      	mov	r9, r2
     9a0:	f102 0b03 	add.w	fp, r2, #3
     9a4:	ea4f 0b9b 	mov.w	fp, fp, lsr #2
     9a8:	f10b 0702 	add.w	r7, fp, #2
     9ac:	2000      	movs	r0, #0
     9ae:	f000 fa9d 	bl	eec <app_util_critical_region_enter>
     9b2:	4b42      	ldr	r3, [pc, #264]	; (abc <nrf_log_frontend_hexdump+0x128>)
     9b4:	685e      	ldr	r6, [r3, #4]
     9b6:	689b      	ldr	r3, [r3, #8]
     9b8:	f503 7380 	add.w	r3, r3, #256	; 0x100
     9bc:	1b9b      	subs	r3, r3, r6
     9be:	429f      	cmp	r7, r3
     9c0:	d915      	bls.n	9ee <nrf_log_frontend_hexdump+0x5a>
     9c2:	4c3e      	ldr	r4, [pc, #248]	; (abc <nrf_log_frontend_hexdump+0x128>)
     9c4:	f204 451c 	addw	r5, r4, #1052	; 0x41c
     9c8:	f04f 0801 	mov.w	r8, #1
     9cc:	4641      	mov	r1, r8
     9ce:	4628      	mov	r0, r5
     9d0:	f000 fac0 	bl	f54 <nrf_atomic_u32_add>
     9d4:	f7ff fdb2 	bl	53c <log_skip>
     9d8:	4601      	mov	r1, r0
     9da:	4628      	mov	r0, r5
     9dc:	f000 faba 	bl	f54 <nrf_atomic_u32_add>
     9e0:	68a3      	ldr	r3, [r4, #8]
     9e2:	f503 7380 	add.w	r3, r3, #256	; 0x100
     9e6:	6862      	ldr	r2, [r4, #4]
     9e8:	1a9b      	subs	r3, r3, r2
     9ea:	429f      	cmp	r7, r3
     9ec:	d8ee      	bhi.n	9cc <nrf_log_frontend_hexdump+0x38>
     9ee:	2006      	movs	r0, #6
     9f0:	f36b 509f 	bfi	r0, fp, #22, #10
     9f4:	4b31      	ldr	r3, [pc, #196]	; (abc <nrf_log_frontend_hexdump+0x128>)
     9f6:	6859      	ldr	r1, [r3, #4]
     9f8:	b2ca      	uxtb	r2, r1
     9fa:	3203      	adds	r2, #3
     9fc:	f843 0022 	str.w	r0, [r3, r2, lsl #2]
     a00:	440f      	add	r7, r1
     a02:	605f      	str	r7, [r3, #4]
     a04:	2000      	movs	r0, #0
     a06:	f000 fa75 	bl	ef4 <app_util_critical_region_exit>
     a0a:	1cb0      	adds	r0, r6, #2
     a0c:	b2c0      	uxtb	r0, r0
     a0e:	f5c0 7380 	rsb	r3, r0, #256	; 0x100
     a12:	009c      	lsls	r4, r3, #2
     a14:	ebb9 0f83 	cmp.w	r9, r3, lsl #2
     a18:	d83e      	bhi.n	a98 <nrf_log_frontend_hexdump+0x104>
     a1a:	3003      	adds	r0, #3
     a1c:	464a      	mov	r2, r9
     a1e:	9901      	ldr	r1, [sp, #4]
     a20:	4b26      	ldr	r3, [pc, #152]	; (abc <nrf_log_frontend_hexdump+0x128>)
     a22:	eb03 0080 	add.w	r0, r3, r0, lsl #2
     a26:	f002 f9c1 	bl	2dac <memcpy>
     a2a:	4c24      	ldr	r4, [pc, #144]	; (abc <nrf_log_frontend_hexdump+0x128>)
     a2c:	2100      	movs	r1, #0
     a2e:	f204 401c 	addw	r0, r4, #1052	; 0x41c
     a32:	f000 fa6f 	bl	f14 <nrf_atomic_u32_fetch_store>
     a36:	f380 0010 	usat	r0, #16, r0
     a3a:	1c73      	adds	r3, r6, #1
     a3c:	b2db      	uxtb	r3, r3
     a3e:	eb04 0383 	add.w	r3, r4, r3, lsl #2
     a42:	ea4f 421a 	mov.w	r2, sl, lsr #16
     a46:	ea42 4200 	orr.w	r2, r2, r0, lsl #16
     a4a:	60da      	str	r2, [r3, #12]
     a4c:	b2f6      	uxtb	r6, r6
     a4e:	3603      	adds	r6, #3
     a50:	eb04 0386 	add.w	r3, r4, r6, lsl #2
     a54:	f814 2026 	ldrb.w	r2, [r4, r6, lsl #2]
     a58:	f36a 02c5 	bfi	r2, sl, #3, #3
     a5c:	f804 2026 	strb.w	r2, [r4, r6, lsl #2]
     a60:	f834 2026 	ldrh.w	r2, [r4, r6, lsl #2]
     a64:	f36f 128f 	bfc	r2, #6, #10
     a68:	f824 2026 	strh.w	r2, [r4, r6, lsl #2]
     a6c:	885a      	ldrh	r2, [r3, #2]
     a6e:	f369 128f 	bfi	r2, r9, #6, #10
     a72:	805a      	strh	r2, [r3, #2]
     a74:	f814 3026 	ldrb.w	r3, [r4, r6, lsl #2]
     a78:	2202      	movs	r2, #2
     a7a:	f362 0301 	bfi	r3, r2, #0, #2
     a7e:	f36f 0382 	bfc	r3, #2, #1
     a82:	f804 3026 	strb.w	r3, [r4, r6, lsl #2]
     a86:	7823      	ldrb	r3, [r4, #0]
     a88:	b11b      	cbz	r3, a92 <nrf_log_frontend_hexdump+0xfe>
     a8a:	f7ff fe01 	bl	690 <nrf_log_frontend_dequeue>
     a8e:	2800      	cmp	r0, #0
     a90:	d1fb      	bne.n	a8a <nrf_log_frontend_hexdump+0xf6>
     a92:	b003      	add	sp, #12
     a94:	e8bd 8ff0 	ldmia.w	sp!, {r4, r5, r6, r7, r8, r9, sl, fp, pc}
     a98:	4d08      	ldr	r5, [pc, #32]	; (abc <nrf_log_frontend_hexdump+0x128>)
     a9a:	3003      	adds	r0, #3
     a9c:	4622      	mov	r2, r4
     a9e:	9f01      	ldr	r7, [sp, #4]
     aa0:	4639      	mov	r1, r7
     aa2:	eb05 0080 	add.w	r0, r5, r0, lsl #2
     aa6:	f002 f981 	bl	2dac <memcpy>
     aaa:	eba9 0204 	sub.w	r2, r9, r4
     aae:	4639      	mov	r1, r7
     ab0:	4421      	add	r1, r4
     ab2:	f105 000c 	add.w	r0, r5, #12
     ab6:	f002 f979 	bl	2dac <memcpy>
     aba:	e7b6      	b.n	a2a <nrf_log_frontend_hexdump+0x96>
     abc:	20000168 	.word	0x20000168

00000ac0 <nrf_log_backend_add>:
     ac0:	b410      	push	{r4}
     ac2:	4604      	mov	r4, r0
     ac4:	4b18      	ldr	r3, [pc, #96]	; (b28 <nrf_log_backend_add+0x68>)
     ac6:	f8d3 1410 	ldr.w	r1, [r3, #1040]	; 0x410
     aca:	2000      	movs	r0, #0
     acc:	e009      	b.n	ae2 <nrf_log_backend_add+0x22>
     ace:	4b16      	ldr	r3, [pc, #88]	; (b28 <nrf_log_backend_add+0x68>)
     ad0:	f8c3 4410 	str.w	r4, [r3, #1040]	; 0x410
     ad4:	68e3      	ldr	r3, [r4, #12]
     ad6:	2200      	movs	r2, #0
     ad8:	601a      	str	r2, [r3, #0]
     ada:	e021      	b.n	b20 <nrf_log_backend_add+0x60>
     adc:	3001      	adds	r0, #1
     ade:	280a      	cmp	r0, #10
     ae0:	d01c      	beq.n	b1c <nrf_log_backend_add+0x5c>
     ae2:	b139      	cbz	r1, af4 <nrf_log_backend_add+0x34>
     ae4:	460b      	mov	r3, r1
     ae6:	68db      	ldr	r3, [r3, #12]
     ae8:	791a      	ldrb	r2, [r3, #4]
     aea:	4282      	cmp	r2, r0
     aec:	d0f6      	beq.n	adc <nrf_log_backend_add+0x1c>
     aee:	681b      	ldr	r3, [r3, #0]
     af0:	2b00      	cmp	r3, #0
     af2:	d1f8      	bne.n	ae6 <nrf_log_backend_add+0x26>
     af4:	f1b0 3fff 	cmp.w	r0, #4294967295	; 0xffffffff
     af8:	d012      	beq.n	b20 <nrf_log_backend_add+0x60>
     afa:	68e3      	ldr	r3, [r4, #12]
     afc:	7118      	strb	r0, [r3, #4]
     afe:	4b0a      	ldr	r3, [pc, #40]	; (b28 <nrf_log_backend_add+0x68>)
     b00:	f8d3 3410 	ldr.w	r3, [r3, #1040]	; 0x410
     b04:	2b00      	cmp	r3, #0
     b06:	d0e2      	beq.n	ace <nrf_log_backend_add+0xe>
     b08:	68e2      	ldr	r2, [r4, #12]
     b0a:	68db      	ldr	r3, [r3, #12]
     b0c:	681b      	ldr	r3, [r3, #0]
     b0e:	6013      	str	r3, [r2, #0]
     b10:	4b05      	ldr	r3, [pc, #20]	; (b28 <nrf_log_backend_add+0x68>)
     b12:	f8d3 3410 	ldr.w	r3, [r3, #1040]	; 0x410
     b16:	68db      	ldr	r3, [r3, #12]
     b18:	601c      	str	r4, [r3, #0]
     b1a:	e001      	b.n	b20 <nrf_log_backend_add+0x60>
     b1c:	f04f 30ff 	mov.w	r0, #4294967295	; 0xffffffff
     b20:	f85d 4b04 	ldr.w	r4, [sp], #4
     b24:	4770      	bx	lr
     b26:	bf00      	nop
     b28:	20000168 	.word	0x20000168

00000b2c <nrf_log_panic>:
     b2c:	b538      	push	{r3, r4, r5, lr}
     b2e:	4b09      	ldr	r3, [pc, #36]	; (b54 <nrf_log_panic+0x28>)
     b30:	f8d3 4410 	ldr.w	r4, [r3, #1040]	; 0x410
     b34:	2201      	movs	r2, #1
     b36:	701a      	strb	r2, [r3, #0]
     b38:	b154      	cbz	r4, b50 <nrf_log_panic+0x24>
     b3a:	4615      	mov	r5, r2
     b3c:	68e3      	ldr	r3, [r4, #12]
     b3e:	715d      	strb	r5, [r3, #5]
     b40:	6823      	ldr	r3, [r4, #0]
     b42:	685b      	ldr	r3, [r3, #4]
     b44:	4620      	mov	r0, r4
     b46:	4798      	blx	r3
     b48:	68e3      	ldr	r3, [r4, #12]
     b4a:	681c      	ldr	r4, [r3, #0]
     b4c:	2c00      	cmp	r4, #0
     b4e:	d1f5      	bne.n	b3c <nrf_log_panic+0x10>
     b50:	bd38      	pop	{r3, r4, r5, pc}
     b52:	bf00      	nop
     b54:	20000168 	.word	0x20000168

00000b58 <prefix_process>:
     b58:	b570      	push	{r4, r5, r6, lr}
     b5a:	b082      	sub	sp, #8
     b5c:	4604      	mov	r4, r0
     b5e:	460d      	mov	r5, r1
     b60:	88c3      	ldrh	r3, [r0, #6]
     b62:	b9a3      	cbnz	r3, b8e <prefix_process+0x36>
     b64:	7a21      	ldrb	r1, [r4, #8]
     b66:	2905      	cmp	r1, #5
     b68:	d00f      	beq.n	b8a <prefix_process+0x32>
     b6a:	7a63      	ldrb	r3, [r4, #9]
     b6c:	b9bb      	cbnz	r3, b9e <prefix_process+0x46>
     b6e:	7a22      	ldrb	r2, [r4, #8]
     b70:	4b10      	ldr	r3, [pc, #64]	; (bb4 <prefix_process+0x5c>)
     b72:	f853 6022 	ldr.w	r6, [r3, r2, lsl #2]
     b76:	2100      	movs	r1, #0
     b78:	88a0      	ldrh	r0, [r4, #4]
     b7a:	f7ff fd49 	bl	610 <nrf_log_module_name_get>
     b7e:	4603      	mov	r3, r0
     b80:	4632      	mov	r2, r6
     b82:	490d      	ldr	r1, [pc, #52]	; (bb8 <prefix_process+0x60>)
     b84:	4628      	mov	r0, r5
     b86:	f000 fa63 	bl	1050 <nrf_fprintf>
     b8a:	b002      	add	sp, #8
     b8c:	bd70      	pop	{r4, r5, r6, pc}
     b8e:	4a0b      	ldr	r2, [pc, #44]	; (bbc <prefix_process+0x64>)
     b90:	9200      	str	r2, [sp, #0]
     b92:	4a0b      	ldr	r2, [pc, #44]	; (bc0 <prefix_process+0x68>)
     b94:	490b      	ldr	r1, [pc, #44]	; (bc4 <prefix_process+0x6c>)
     b96:	4628      	mov	r0, r5
     b98:	f000 fa5a 	bl	1050 <nrf_fprintf>
     b9c:	e7e2      	b.n	b64 <prefix_process+0xc>
     b9e:	88a0      	ldrh	r0, [r4, #4]
     ba0:	f7ff fd56 	bl	650 <nrf_log_color_id_get>
     ba4:	4b08      	ldr	r3, [pc, #32]	; (bc8 <prefix_process+0x70>)
     ba6:	f853 2020 	ldr.w	r2, [r3, r0, lsl #2]
     baa:	4908      	ldr	r1, [pc, #32]	; (bcc <prefix_process+0x74>)
     bac:	4628      	mov	r0, r5
     bae:	f000 fa4f 	bl	1050 <nrf_fprintf>
     bb2:	e7dc      	b.n	b6e <prefix_process+0x16>
     bb4:	00003098 	.word	0x00003098
     bb8:	00002ff8 	.word	0x00002ff8
     bbc:	00002fec 	.word	0x00002fec
     bc0:	00002fcc 	.word	0x00002fcc
     bc4:	00002fd4 	.word	0x00002fd4
     bc8:	00003074 	.word	0x00003074
     bcc:	00002ff4 	.word	0x00002ff4

00000bd0 <postfix_process>:
     bd0:	b510      	push	{r4, lr}
     bd2:	460c      	mov	r4, r1
     bd4:	7a03      	ldrb	r3, [r0, #8]
     bd6:	2b05      	cmp	r3, #5
     bd8:	d00f      	beq.n	bfa <postfix_process+0x2a>
     bda:	7a43      	ldrb	r3, [r0, #9]
     bdc:	b93b      	cbnz	r3, bee <postfix_process+0x1e>
     bde:	490a      	ldr	r1, [pc, #40]	; (c08 <postfix_process+0x38>)
     be0:	4620      	mov	r0, r4
     be2:	f000 fa35 	bl	1050 <nrf_fprintf>
     be6:	4620      	mov	r0, r4
     be8:	f000 fa26 	bl	1038 <nrf_fprintf_buffer_flush>
     bec:	bd10      	pop	{r4, pc}
     bee:	4a07      	ldr	r2, [pc, #28]	; (c0c <postfix_process+0x3c>)
     bf0:	4907      	ldr	r1, [pc, #28]	; (c10 <postfix_process+0x40>)
     bf2:	4620      	mov	r0, r4
     bf4:	f000 fa2c 	bl	1050 <nrf_fprintf>
     bf8:	e7f1      	b.n	bde <postfix_process+0xe>
     bfa:	2a00      	cmp	r2, #0
     bfc:	d0f3      	beq.n	be6 <postfix_process+0x16>
     bfe:	4902      	ldr	r1, [pc, #8]	; (c08 <postfix_process+0x38>)
     c00:	4620      	mov	r0, r4
     c02:	f000 fa25 	bl	1050 <nrf_fprintf>
     c06:	e7ee      	b.n	be6 <postfix_process+0x16>
     c08:	00003004 	.word	0x00003004
     c0c:	00002fec 	.word	0x00002fec
     c10:	00002ff4 	.word	0x00002ff4

00000c14 <nrf_log_std_entry_process>:
     c14:	e92d 43f0 	stmdb	sp!, {r4, r5, r6, r7, r8, r9, lr}
     c18:	b085      	sub	sp, #20
     c1a:	4681      	mov	r9, r0
     c1c:	460d      	mov	r5, r1
     c1e:	4690      	mov	r8, r2
     c20:	461e      	mov	r6, r3
     c22:	9c0c      	ldr	r4, [sp, #48]	; 0x30
     c24:	7b27      	ldrb	r7, [r4, #12]
     c26:	2300      	movs	r3, #0
     c28:	7323      	strb	r3, [r4, #12]
     c2a:	4621      	mov	r1, r4
     c2c:	4630      	mov	r0, r6
     c2e:	f7ff ff93 	bl	b58 <prefix_process>
     c32:	f1b8 0f06 	cmp.w	r8, #6
     c36:	d809      	bhi.n	c4c <nrf_log_std_entry_process+0x38>
     c38:	e8df f008 	tbb	[pc, r8]
     c3c:	1e171104 	.word	0x1e171104
     c40:	3227      	.short	0x3227
     c42:	3f          	.byte	0x3f
     c43:	00          	.byte	0x00
     c44:	4649      	mov	r1, r9
     c46:	4620      	mov	r0, r4
     c48:	f000 fa02 	bl	1050 <nrf_fprintf>
     c4c:	2200      	movs	r2, #0
     c4e:	4621      	mov	r1, r4
     c50:	4630      	mov	r0, r6
     c52:	f7ff ffbd 	bl	bd0 <postfix_process>
     c56:	7327      	strb	r7, [r4, #12]
     c58:	b005      	add	sp, #20
     c5a:	e8bd 83f0 	ldmia.w	sp!, {r4, r5, r6, r7, r8, r9, pc}
     c5e:	682a      	ldr	r2, [r5, #0]
     c60:	4649      	mov	r1, r9
     c62:	4620      	mov	r0, r4
     c64:	f000 f9f4 	bl	1050 <nrf_fprintf>
     c68:	e7f0      	b.n	c4c <nrf_log_std_entry_process+0x38>
     c6a:	686b      	ldr	r3, [r5, #4]
     c6c:	682a      	ldr	r2, [r5, #0]
     c6e:	4649      	mov	r1, r9
     c70:	4620      	mov	r0, r4
     c72:	f000 f9ed 	bl	1050 <nrf_fprintf>
     c76:	e7e9      	b.n	c4c <nrf_log_std_entry_process+0x38>
     c78:	68ab      	ldr	r3, [r5, #8]
     c7a:	9300      	str	r3, [sp, #0]
     c7c:	686b      	ldr	r3, [r5, #4]
     c7e:	682a      	ldr	r2, [r5, #0]
     c80:	4649      	mov	r1, r9
     c82:	4620      	mov	r0, r4
     c84:	f000 f9e4 	bl	1050 <nrf_fprintf>
     c88:	e7e0      	b.n	c4c <nrf_log_std_entry_process+0x38>
     c8a:	68eb      	ldr	r3, [r5, #12]
     c8c:	9301      	str	r3, [sp, #4]
     c8e:	68ab      	ldr	r3, [r5, #8]
     c90:	9300      	str	r3, [sp, #0]
     c92:	686b      	ldr	r3, [r5, #4]
     c94:	682a      	ldr	r2, [r5, #0]
     c96:	4649      	mov	r1, r9
     c98:	4620      	mov	r0, r4
     c9a:	f000 f9d9 	bl	1050 <nrf_fprintf>
     c9e:	e7d5      	b.n	c4c <nrf_log_std_entry_process+0x38>
     ca0:	692b      	ldr	r3, [r5, #16]
     ca2:	9302      	str	r3, [sp, #8]
     ca4:	68eb      	ldr	r3, [r5, #12]
     ca6:	9301      	str	r3, [sp, #4]
     ca8:	68ab      	ldr	r3, [r5, #8]
     caa:	9300      	str	r3, [sp, #0]
     cac:	686b      	ldr	r3, [r5, #4]
     cae:	682a      	ldr	r2, [r5, #0]
     cb0:	4649      	mov	r1, r9
     cb2:	4620      	mov	r0, r4
     cb4:	f000 f9cc 	bl	1050 <nrf_fprintf>
     cb8:	e7c8      	b.n	c4c <nrf_log_std_entry_process+0x38>
     cba:	696b      	ldr	r3, [r5, #20]
     cbc:	9303      	str	r3, [sp, #12]
     cbe:	692b      	ldr	r3, [r5, #16]
     cc0:	9302      	str	r3, [sp, #8]
     cc2:	68eb      	ldr	r3, [r5, #12]
     cc4:	9301      	str	r3, [sp, #4]
     cc6:	68ab      	ldr	r3, [r5, #8]
     cc8:	9300      	str	r3, [sp, #0]
     cca:	686b      	ldr	r3, [r5, #4]
     ccc:	682a      	ldr	r2, [r5, #0]
     cce:	4649      	mov	r1, r9
     cd0:	4620      	mov	r0, r4
     cd2:	f000 f9bd 	bl	1050 <nrf_fprintf>
     cd6:	e7b9      	b.n	c4c <nrf_log_std_entry_process+0x38>

00000cd8 <nrf_log_hexdump_entry_process>:
     cd8:	e92d 4ff0 	stmdb	sp!, {r4, r5, r6, r7, r8, r9, sl, fp, lr}
     cdc:	b083      	sub	sp, #12
     cde:	9201      	str	r2, [sp, #4]
     ce0:	2908      	cmp	r1, #8
     ce2:	d902      	bls.n	cea <nrf_log_hexdump_entry_process+0x12>
     ce4:	b003      	add	sp, #12
     ce6:	e8bd 8ff0 	ldmia.w	sp!, {r4, r5, r6, r7, r8, r9, sl, fp, pc}
     cea:	4607      	mov	r7, r0
     cec:	460e      	mov	r6, r1
     cee:	461d      	mov	r5, r3
     cf0:	f893 800c 	ldrb.w	r8, [r3, #12]
     cf4:	2400      	movs	r4, #0
     cf6:	731c      	strb	r4, [r3, #12]
     cf8:	4619      	mov	r1, r3
     cfa:	4610      	mov	r0, r2
     cfc:	f7ff ff2c 	bl	b58 <prefix_process>
     d00:	f8df a084 	ldr.w	sl, [pc, #132]	; d88 <nrf_log_hexdump_entry_process+0xb0>
     d04:	f8df 9084 	ldr.w	r9, [pc, #132]	; d8c <nrf_log_hexdump_entry_process+0xb4>
     d08:	e006      	b.n	d18 <nrf_log_hexdump_entry_process+0x40>
     d0a:	4651      	mov	r1, sl
     d0c:	4628      	mov	r0, r5
     d0e:	f000 f99f 	bl	1050 <nrf_fprintf>
     d12:	3401      	adds	r4, #1
     d14:	2c08      	cmp	r4, #8
     d16:	d007      	beq.n	d28 <nrf_log_hexdump_entry_process+0x50>
     d18:	42a6      	cmp	r6, r4
     d1a:	d9f6      	bls.n	d0a <nrf_log_hexdump_entry_process+0x32>
     d1c:	5d3a      	ldrb	r2, [r7, r4]
     d1e:	4649      	mov	r1, r9
     d20:	4628      	mov	r0, r5
     d22:	f000 f995 	bl	1050 <nrf_fprintf>
     d26:	e7f4      	b.n	d12 <nrf_log_hexdump_entry_process+0x3a>
     d28:	4916      	ldr	r1, [pc, #88]	; (d84 <nrf_log_hexdump_entry_process+0xac>)
     d2a:	4628      	mov	r0, r5
     d2c:	f000 f990 	bl	1050 <nrf_fprintf>
     d30:	2400      	movs	r4, #0
     d32:	f8df b05c 	ldr.w	fp, [pc, #92]	; d90 <nrf_log_hexdump_entry_process+0xb8>
     d36:	f8df 905c 	ldr.w	r9, [pc, #92]	; d94 <nrf_log_hexdump_entry_process+0xbc>
     d3a:	f8df a05c 	ldr.w	sl, [pc, #92]	; d98 <nrf_log_hexdump_entry_process+0xc0>
     d3e:	e007      	b.n	d50 <nrf_log_hexdump_entry_process+0x78>
     d40:	222e      	movs	r2, #46	; 0x2e
     d42:	4649      	mov	r1, r9
     d44:	4628      	mov	r0, r5
     d46:	f000 f983 	bl	1050 <nrf_fprintf>
     d4a:	3401      	adds	r4, #1
     d4c:	2c08      	cmp	r4, #8
     d4e:	d010      	beq.n	d72 <nrf_log_hexdump_entry_process+0x9a>
     d50:	42a6      	cmp	r6, r4
     d52:	d909      	bls.n	d68 <nrf_log_hexdump_entry_process+0x90>
     d54:	5d3a      	ldrb	r2, [r7, r4]
     d56:	2a7e      	cmp	r2, #126	; 0x7e
     d58:	d8f2      	bhi.n	d40 <nrf_log_hexdump_entry_process+0x68>
     d5a:	f81a 3002 	ldrb.w	r3, [sl, r2]
     d5e:	f013 0f97 	tst.w	r3, #151	; 0x97
     d62:	bf08      	it	eq
     d64:	222e      	moveq	r2, #46	; 0x2e
     d66:	e7ec      	b.n	d42 <nrf_log_hexdump_entry_process+0x6a>
     d68:	4659      	mov	r1, fp
     d6a:	4628      	mov	r0, r5
     d6c:	f000 f970 	bl	1050 <nrf_fprintf>
     d70:	e7eb      	b.n	d4a <nrf_log_hexdump_entry_process+0x72>
     d72:	2201      	movs	r2, #1
     d74:	4629      	mov	r1, r5
     d76:	9801      	ldr	r0, [sp, #4]
     d78:	f7ff ff2a 	bl	bd0 <postfix_process>
     d7c:	f885 800c 	strb.w	r8, [r5, #12]
     d80:	e7b0      	b.n	ce4 <nrf_log_hexdump_entry_process+0xc>
     d82:	bf00      	nop
     d84:	00003014 	.word	0x00003014
     d88:	00003010 	.word	0x00003010
     d8c:	00003008 	.word	0x00003008
     d90:	00003000 	.word	0x00003000
     d94:	00003018 	.word	0x00003018
     d98:	00003199 	.word	0x00003199

00000d9c <bsp_board_led_off>:
     d9c:	4b04      	ldr	r3, [pc, #16]	; (db0 <bsp_board_led_off+0x14>)
     d9e:	5c1a      	ldrb	r2, [r3, r0]
     da0:	2301      	movs	r3, #1
     da2:	4093      	lsls	r3, r2
     da4:	f04f 42a0 	mov.w	r2, #1342177280	; 0x50000000
     da8:	f8c2 3508 	str.w	r3, [r2, #1288]	; 0x508
     dac:	4770      	bx	lr
     dae:	bf00      	nop
     db0:	000030ac 	.word	0x000030ac

00000db4 <bsp_board_leds_off>:
     db4:	b508      	push	{r3, lr}
     db6:	2000      	movs	r0, #0
     db8:	f7ff fff0 	bl	d9c <bsp_board_led_off>
     dbc:	2001      	movs	r0, #1
     dbe:	f7ff ffed 	bl	d9c <bsp_board_led_off>
     dc2:	2002      	movs	r0, #2
     dc4:	f7ff ffea 	bl	d9c <bsp_board_led_off>
     dc8:	2003      	movs	r0, #3
     dca:	f7ff ffe7 	bl	d9c <bsp_board_led_off>
     dce:	bd08      	pop	{r3, pc}

00000dd0 <bsp_board_led_invert>:
     dd0:	f04f 41a0 	mov.w	r1, #1342177280	; 0x50000000
     dd4:	f8d1 3504 	ldr.w	r3, [r1, #1284]	; 0x504
     dd8:	4a05      	ldr	r2, [pc, #20]	; (df0 <bsp_board_led_invert+0x20>)
     dda:	5c10      	ldrb	r0, [r2, r0]
     ddc:	2201      	movs	r2, #1
     dde:	4082      	lsls	r2, r0
     de0:	ea22 0003 	bic.w	r0, r2, r3
     de4:	f8c1 0508 	str.w	r0, [r1, #1288]	; 0x508
     de8:	4013      	ands	r3, r2
     dea:	f8c1 350c 	str.w	r3, [r1, #1292]	; 0x50c
     dee:	4770      	bx	lr
     df0:	000030ac 	.word	0x000030ac

00000df4 <bsp_board_init>:
     df4:	b510      	push	{r4, lr}
     df6:	4604      	mov	r4, r0
     df8:	f010 0f01 	tst.w	r0, #1
     dfc:	d103      	bne.n	e06 <bsp_board_init+0x12>
     dfe:	f014 0f02 	tst.w	r4, #2
     e02:	d10e      	bne.n	e22 <bsp_board_init+0x2e>
     e04:	bd10      	pop	{r4, pc}
     e06:	f04f 43a0 	mov.w	r3, #1342177280	; 0x50000000
     e0a:	2203      	movs	r2, #3
     e0c:	f8c3 2744 	str.w	r2, [r3, #1860]	; 0x744
     e10:	f8c3 2748 	str.w	r2, [r3, #1864]	; 0x748
     e14:	f8c3 274c 	str.w	r2, [r3, #1868]	; 0x74c
     e18:	f8c3 2750 	str.w	r2, [r3, #1872]	; 0x750
     e1c:	f7ff ffca 	bl	db4 <bsp_board_leds_off>
     e20:	e7ed      	b.n	dfe <bsp_board_init+0xa>
     e22:	f04f 43a0 	mov.w	r3, #1342177280	; 0x50000000
     e26:	220c      	movs	r2, #12
     e28:	f8c3 2734 	str.w	r2, [r3, #1844]	; 0x734
     e2c:	f8c3 2738 	str.w	r2, [r3, #1848]	; 0x738
     e30:	f8c3 273c 	str.w	r2, [r3, #1852]	; 0x73c
     e34:	f8c3 2740 	str.w	r2, [r3, #1856]	; 0x740
     e38:	e7e4      	b.n	e04 <bsp_board_init+0x10>

00000e3a <app_error_handler_bare>:
     e3a:	b500      	push	{lr}
     e3c:	b085      	sub	sp, #20
     e3e:	2100      	movs	r1, #0
     e40:	9101      	str	r1, [sp, #4]
     e42:	9102      	str	r1, [sp, #8]
     e44:	9003      	str	r0, [sp, #12]
     e46:	aa01      	add	r2, sp, #4
     e48:	f244 0001 	movw	r0, #16385	; 0x4001
     e4c:	f000 f804 	bl	e58 <app_error_fault_handler>
     e50:	b005      	add	sp, #20
     e52:	f85d fb04 	ldr.w	pc, [sp], #4
	...

00000e58 <app_error_fault_handler>:
     e58:	b510      	push	{r4, lr}
     e5a:	b672      	cpsid	i
     e5c:	f7ff fe66 	bl	b2c <nrf_log_panic>
     e60:	f7ff fc16 	bl	690 <nrf_log_frontend_dequeue>
     e64:	2800      	cmp	r0, #0
     e66:	d1fb      	bne.n	e60 <app_error_fault_handler+0x8>
     e68:	4c11      	ldr	r4, [pc, #68]	; (eb0 <app_error_fault_handler+0x58>)
     e6a:	4b12      	ldr	r3, [pc, #72]	; (eb4 <app_error_fault_handler+0x5c>)
     e6c:	1ae4      	subs	r4, r4, r3
     e6e:	08e4      	lsrs	r4, r4, #3
     e70:	0424      	lsls	r4, r4, #16
     e72:	4911      	ldr	r1, [pc, #68]	; (eb8 <app_error_fault_handler+0x60>)
     e74:	f044 0001 	orr.w	r0, r4, #1
     e78:	f7ff fd28 	bl	8cc <nrf_log_frontend_std_0>
     e7c:	4b0f      	ldr	r3, [pc, #60]	; (ebc <app_error_fault_handler+0x64>)
     e7e:	f8d3 30f0 	ldr.w	r3, [r3, #240]	; 0xf0
     e82:	f013 0f01 	tst.w	r3, #1
     e86:	d000      	beq.n	e8a <app_error_fault_handler+0x32>
     e88:	be00      	bkpt	0x0000
     e8a:	490d      	ldr	r1, [pc, #52]	; (ec0 <app_error_fault_handler+0x68>)
     e8c:	f044 0002 	orr.w	r0, r4, #2
     e90:	f7ff fd1c 	bl	8cc <nrf_log_frontend_std_0>
     e94:	f3bf 8f4f 	dsb	sy
     e98:	4908      	ldr	r1, [pc, #32]	; (ebc <app_error_fault_handler+0x64>)
     e9a:	68ca      	ldr	r2, [r1, #12]
     e9c:	f402 62e0 	and.w	r2, r2, #1792	; 0x700
     ea0:	4b08      	ldr	r3, [pc, #32]	; (ec4 <app_error_fault_handler+0x6c>)
     ea2:	4313      	orrs	r3, r2
     ea4:	60cb      	str	r3, [r1, #12]
     ea6:	f3bf 8f4f 	dsb	sy
     eaa:	bf00      	nop
     eac:	e7fd      	b.n	eaa <app_error_fault_handler+0x52>
     eae:	bf00      	nop
     eb0:	000032c8 	.word	0x000032c8
     eb4:	000032a0 	.word	0x000032a0
     eb8:	000030bc 	.word	0x000030bc
     ebc:	e000ed00 	.word	0xe000ed00
     ec0:	000030c8 	.word	0x000030c8
     ec4:	05fa0004 	.word	0x05fa0004

00000ec8 <app_util_disable_irq>:
     ec8:	b672      	cpsid	i
     eca:	4a02      	ldr	r2, [pc, #8]	; (ed4 <app_util_disable_irq+0xc>)
     ecc:	6813      	ldr	r3, [r2, #0]
     ece:	3301      	adds	r3, #1
     ed0:	6013      	str	r3, [r2, #0]
     ed2:	4770      	bx	lr
     ed4:	20000620 	.word	0x20000620

00000ed8 <app_util_enable_irq>:
     ed8:	4a03      	ldr	r2, [pc, #12]	; (ee8 <app_util_enable_irq+0x10>)
     eda:	6813      	ldr	r3, [r2, #0]
     edc:	3b01      	subs	r3, #1
     ede:	6013      	str	r3, [r2, #0]
     ee0:	b903      	cbnz	r3, ee4 <app_util_enable_irq+0xc>
     ee2:	b662      	cpsie	i
     ee4:	4770      	bx	lr
     ee6:	bf00      	nop
     ee8:	20000620 	.word	0x20000620

00000eec <app_util_critical_region_enter>:
     eec:	b508      	push	{r3, lr}
     eee:	f7ff ffeb 	bl	ec8 <app_util_disable_irq>
     ef2:	bd08      	pop	{r3, pc}

00000ef4 <app_util_critical_region_exit>:
     ef4:	b508      	push	{r3, lr}
     ef6:	f7ff ffef 	bl	ed8 <app_util_enable_irq>
     efa:	bd08      	pop	{r3, pc}

00000efc <RTC1_IRQHandler>:
     efc:	b508      	push	{r3, lr}
     efe:	4b03      	ldr	r3, [pc, #12]	; (f0c <RTC1_IRQHandler+0x10>)
     f00:	681b      	ldr	r3, [r3, #0]
     f02:	4a03      	ldr	r2, [pc, #12]	; (f10 <RTC1_IRQHandler+0x14>)
     f04:	6810      	ldr	r0, [r2, #0]
     f06:	4798      	blx	r3
     f08:	bd08      	pop	{r3, pc}
     f0a:	bf00      	nop
     f0c:	2000062c 	.word	0x2000062c
     f10:	20000624 	.word	0x20000624

00000f14 <nrf_atomic_u32_fetch_store>:
     f14:	4603      	mov	r3, r0
     f16:	e853 0f00 	ldrex	r0, [r3]
     f1a:	460a      	mov	r2, r1
     f1c:	e843 2c00 	strex	ip, r2, [r3]
     f20:	f09c 0f00 	teq	ip, #0
     f24:	d1f7      	bne.n	f16 <nrf_atomic_u32_fetch_store+0x2>
     f26:	4770      	bx	lr

00000f28 <nrf_atomic_u32_or>:
     f28:	4603      	mov	r3, r0
     f2a:	e853 2f00 	ldrex	r2, [r3]
     f2e:	ea42 0001 	orr.w	r0, r2, r1
     f32:	e843 0c00 	strex	ip, r0, [r3]
     f36:	f09c 0f00 	teq	ip, #0
     f3a:	d1f6      	bne.n	f2a <nrf_atomic_u32_or+0x2>
     f3c:	4770      	bx	lr

00000f3e <nrf_atomic_u32_fetch_and>:
     f3e:	4603      	mov	r3, r0
     f40:	e853 0f00 	ldrex	r0, [r3]
     f44:	ea00 0201 	and.w	r2, r0, r1
     f48:	e843 2c00 	strex	ip, r2, [r3]
     f4c:	f09c 0f00 	teq	ip, #0
     f50:	d1f6      	bne.n	f40 <nrf_atomic_u32_fetch_and+0x2>
     f52:	4770      	bx	lr

00000f54 <nrf_atomic_u32_add>:
     f54:	4603      	mov	r3, r0
     f56:	e853 2f00 	ldrex	r2, [r3]
     f5a:	eb02 0001 	add.w	r0, r2, r1
     f5e:	e843 0c00 	strex	ip, r0, [r3]
     f62:	f09c 0f00 	teq	ip, #0
     f66:	d1f6      	bne.n	f56 <nrf_atomic_u32_add+0x2>
     f68:	4770      	bx	lr

00000f6a <nrf_atomic_u32_sub>:
     f6a:	4603      	mov	r3, r0
     f6c:	e853 2f00 	ldrex	r2, [r3]
     f70:	eba2 0001 	sub.w	r0, r2, r1
     f74:	e843 0c00 	strex	ip, r0, [r3]
     f78:	f09c 0f00 	teq	ip, #0
     f7c:	d1f6      	bne.n	f6c <nrf_atomic_u32_sub+0x2>
     f7e:	4770      	bx	lr

00000f80 <nrf_atomic_flag_set>:
     f80:	b508      	push	{r3, lr}
     f82:	2101      	movs	r1, #1
     f84:	f7ff ffd0 	bl	f28 <nrf_atomic_u32_or>
     f88:	bd08      	pop	{r3, pc}

00000f8a <nrf_atomic_flag_clear_fetch>:
     f8a:	b508      	push	{r3, lr}
     f8c:	2100      	movs	r1, #0
     f8e:	f7ff ffd6 	bl	f3e <nrf_atomic_u32_fetch_and>
     f92:	bd08      	pop	{r3, pc}

00000f94 <nrf_balloc_init>:
     f94:	4684      	mov	ip, r0
     f96:	b1b8      	cbz	r0, fc8 <nrf_balloc_init+0x34>
     f98:	6843      	ldr	r3, [r0, #4]
     f9a:	6882      	ldr	r2, [r0, #8]
     f9c:	1ad2      	subs	r2, r2, r3
     f9e:	b2d2      	uxtb	r2, r2
     fa0:	6801      	ldr	r1, [r0, #0]
     fa2:	600b      	str	r3, [r1, #0]
     fa4:	1e53      	subs	r3, r2, #1
     fa6:	b2db      	uxtb	r3, r3
     fa8:	b14a      	cbz	r2, fbe <nrf_balloc_init+0x2a>
     faa:	f8dc 1000 	ldr.w	r1, [ip]
     fae:	680a      	ldr	r2, [r1, #0]
     fb0:	1c50      	adds	r0, r2, #1
     fb2:	6008      	str	r0, [r1, #0]
     fb4:	7013      	strb	r3, [r2, #0]
     fb6:	3b01      	subs	r3, #1
     fb8:	b2db      	uxtb	r3, r3
     fba:	2bff      	cmp	r3, #255	; 0xff
     fbc:	d1f5      	bne.n	faa <nrf_balloc_init+0x16>
     fbe:	f8dc 3000 	ldr.w	r3, [ip]
     fc2:	2000      	movs	r0, #0
     fc4:	7118      	strb	r0, [r3, #4]
     fc6:	4770      	bx	lr
     fc8:	200e      	movs	r0, #14
     fca:	4770      	bx	lr

00000fcc <nrf_balloc_alloc>:
     fcc:	b538      	push	{r3, r4, r5, lr}
     fce:	4604      	mov	r4, r0
     fd0:	2000      	movs	r0, #0
     fd2:	f7ff ff8b 	bl	eec <app_util_critical_region_enter>
     fd6:	6822      	ldr	r2, [r4, #0]
     fd8:	6813      	ldr	r3, [r2, #0]
     fda:	6861      	ldr	r1, [r4, #4]
     fdc:	428b      	cmp	r3, r1
     fde:	d915      	bls.n	100c <nrf_balloc_alloc+0x40>
     fe0:	1e59      	subs	r1, r3, #1
     fe2:	6011      	str	r1, [r2, #0]
     fe4:	f813 3c01 	ldrb.w	r3, [r3, #-1]
     fe8:	8a22      	ldrh	r2, [r4, #16]
     fea:	68e5      	ldr	r5, [r4, #12]
     fec:	fb02 5503 	mla	r5, r2, r3, r5
     ff0:	6822      	ldr	r2, [r4, #0]
     ff2:	68a3      	ldr	r3, [r4, #8]
     ff4:	6811      	ldr	r1, [r2, #0]
     ff6:	1a5b      	subs	r3, r3, r1
     ff8:	b2db      	uxtb	r3, r3
     ffa:	7911      	ldrb	r1, [r2, #4]
     ffc:	4299      	cmp	r1, r3
     ffe:	d200      	bcs.n	1002 <nrf_balloc_alloc+0x36>
    1000:	7113      	strb	r3, [r2, #4]
    1002:	2000      	movs	r0, #0
    1004:	f7ff ff76 	bl	ef4 <app_util_critical_region_exit>
    1008:	4628      	mov	r0, r5
    100a:	bd38      	pop	{r3, r4, r5, pc}
    100c:	2500      	movs	r5, #0
    100e:	e7f8      	b.n	1002 <nrf_balloc_alloc+0x36>

00001010 <nrf_balloc_free>:
    1010:	b538      	push	{r3, r4, r5, lr}
    1012:	4605      	mov	r5, r0
    1014:	460c      	mov	r4, r1
    1016:	2000      	movs	r0, #0
    1018:	f7ff ff68 	bl	eec <app_util_critical_region_enter>
    101c:	682a      	ldr	r2, [r5, #0]
    101e:	6813      	ldr	r3, [r2, #0]
    1020:	1c59      	adds	r1, r3, #1
    1022:	6011      	str	r1, [r2, #0]
    1024:	68ea      	ldr	r2, [r5, #12]
    1026:	1aa4      	subs	r4, r4, r2
    1028:	8a2a      	ldrh	r2, [r5, #16]
    102a:	fbb4 f4f2 	udiv	r4, r4, r2
    102e:	701c      	strb	r4, [r3, #0]
    1030:	2000      	movs	r0, #0
    1032:	f7ff ff5f 	bl	ef4 <app_util_critical_region_exit>
    1036:	bd38      	pop	{r3, r4, r5, pc}

00001038 <nrf_fprintf_buffer_flush>:
    1038:	6882      	ldr	r2, [r0, #8]
    103a:	b142      	cbz	r2, 104e <nrf_fprintf_buffer_flush+0x16>
    103c:	b510      	push	{r4, lr}
    103e:	4604      	mov	r4, r0
    1040:	6943      	ldr	r3, [r0, #20]
    1042:	6801      	ldr	r1, [r0, #0]
    1044:	6900      	ldr	r0, [r0, #16]
    1046:	4798      	blx	r3
    1048:	2300      	movs	r3, #0
    104a:	60a3      	str	r3, [r4, #8]
    104c:	bd10      	pop	{r4, pc}
    104e:	4770      	bx	lr

00001050 <nrf_fprintf>:
    1050:	b40e      	push	{r1, r2, r3}
    1052:	b500      	push	{lr}
    1054:	b082      	sub	sp, #8
    1056:	9903      	ldr	r1, [sp, #12]
    1058:	b121      	cbz	r1, 1064 <nrf_fprintf+0x14>
    105a:	ab04      	add	r3, sp, #16
    105c:	9301      	str	r3, [sp, #4]
    105e:	aa01      	add	r2, sp, #4
    1060:	f000 f87e 	bl	1160 <nrf_fprintf_fmt>
    1064:	b002      	add	sp, #8
    1066:	f85d eb04 	ldr.w	lr, [sp], #4
    106a:	b003      	add	sp, #12
    106c:	4770      	bx	lr

0000106e <buffer_add>:
    106e:	b538      	push	{r3, r4, r5, lr}
    1070:	4604      	mov	r4, r0
    1072:	460d      	mov	r5, r1
    1074:	290a      	cmp	r1, #10
    1076:	d009      	beq.n	108c <buffer_add+0x1e>
    1078:	6822      	ldr	r2, [r4, #0]
    107a:	68a3      	ldr	r3, [r4, #8]
    107c:	1c59      	adds	r1, r3, #1
    107e:	60a1      	str	r1, [r4, #8]
    1080:	54d5      	strb	r5, [r2, r3]
    1082:	68a2      	ldr	r2, [r4, #8]
    1084:	6863      	ldr	r3, [r4, #4]
    1086:	429a      	cmp	r2, r3
    1088:	d204      	bcs.n	1094 <buffer_add+0x26>
    108a:	bd38      	pop	{r3, r4, r5, pc}
    108c:	210d      	movs	r1, #13
    108e:	f7ff ffee 	bl	106e <buffer_add>
    1092:	e7f1      	b.n	1078 <buffer_add+0xa>
    1094:	4620      	mov	r0, r4
    1096:	f7ff ffcf 	bl	1038 <nrf_fprintf_buffer_flush>
    109a:	e7f6      	b.n	108a <buffer_add+0x1c>

0000109c <unsigned_print>:
    109c:	e92d 4ff8 	stmdb	sp!, {r3, r4, r5, r6, r7, r8, r9, sl, fp, lr}
    10a0:	4681      	mov	r9, r0
    10a2:	460f      	mov	r7, r1
    10a4:	4615      	mov	r5, r2
    10a6:	461e      	mov	r6, r3
    10a8:	f8dd a028 	ldr.w	sl, [sp, #40]	; 0x28
    10ac:	9a0b      	ldr	r2, [sp, #44]	; 0x2c
    10ae:	42a9      	cmp	r1, r5
    10b0:	d325      	bcc.n	10fe <unsigned_print+0x62>
    10b2:	460b      	mov	r3, r1
    10b4:	f04f 0801 	mov.w	r8, #1
    10b8:	fbb3 f3f5 	udiv	r3, r3, r5
    10bc:	f108 0801 	add.w	r8, r8, #1
    10c0:	429d      	cmp	r5, r3
    10c2:	d9f9      	bls.n	10b8 <unsigned_print+0x1c>
    10c4:	45b0      	cmp	r8, r6
    10c6:	bf38      	it	cc
    10c8:	46b0      	movcc	r8, r6
    10ca:	f012 0b01 	ands.w	fp, r2, #1
    10ce:	d114      	bne.n	10fa <unsigned_print+0x5e>
    10d0:	f1ba 0f00 	cmp.w	sl, #0
    10d4:	d011      	beq.n	10fa <unsigned_print+0x5e>
    10d6:	f012 0f02 	tst.w	r2, #2
    10da:	d013      	beq.n	1104 <unsigned_print+0x68>
    10dc:	2e00      	cmp	r6, #0
    10de:	bf14      	ite	ne
    10e0:	2420      	movne	r4, #32
    10e2:	2430      	moveq	r4, #48	; 0x30
    10e4:	45c2      	cmp	sl, r8
    10e6:	d908      	bls.n	10fa <unsigned_print+0x5e>
    10e8:	f10a 3aff 	add.w	sl, sl, #4294967295	; 0xffffffff
    10ec:	4621      	mov	r1, r4
    10ee:	4648      	mov	r0, r9
    10f0:	f7ff ffbd 	bl	106e <buffer_add>
    10f4:	45c2      	cmp	sl, r8
    10f6:	d1f7      	bne.n	10e8 <unsigned_print+0x4c>
    10f8:	46c2      	mov	sl, r8
    10fa:	2401      	movs	r4, #1
    10fc:	e007      	b.n	110e <unsigned_print+0x72>
    10fe:	f04f 0801 	mov.w	r8, #1
    1102:	e7df      	b.n	10c4 <unsigned_print+0x28>
    1104:	2420      	movs	r4, #32
    1106:	e7ed      	b.n	10e4 <unsigned_print+0x48>
    1108:	3e01      	subs	r6, #1
    110a:	fb05 f404 	mul.w	r4, r5, r4
    110e:	2e01      	cmp	r6, #1
    1110:	d8fa      	bhi.n	1108 <unsigned_print+0x6c>
    1112:	fbb7 f3f4 	udiv	r3, r7, r4
    1116:	429d      	cmp	r5, r3
    1118:	d9f7      	bls.n	110a <unsigned_print+0x6e>
    111a:	4e10      	ldr	r6, [pc, #64]	; (115c <unsigned_print+0xc0>)
    111c:	fbb7 f3f4 	udiv	r3, r7, r4
    1120:	fb04 7713 	mls	r7, r4, r3, r7
    1124:	5cf1      	ldrb	r1, [r6, r3]
    1126:	4648      	mov	r0, r9
    1128:	f7ff ffa1 	bl	106e <buffer_add>
    112c:	4623      	mov	r3, r4
    112e:	fbb4 f4f5 	udiv	r4, r4, r5
    1132:	42ab      	cmp	r3, r5
    1134:	d2f2      	bcs.n	111c <unsigned_print+0x80>
    1136:	f1bb 0f00 	cmp.w	fp, #0
    113a:	d00d      	beq.n	1158 <unsigned_print+0xbc>
    113c:	f1ba 0f00 	cmp.w	sl, #0
    1140:	d00a      	beq.n	1158 <unsigned_print+0xbc>
    1142:	45c2      	cmp	sl, r8
    1144:	d908      	bls.n	1158 <unsigned_print+0xbc>
    1146:	2420      	movs	r4, #32
    1148:	f10a 3aff 	add.w	sl, sl, #4294967295	; 0xffffffff
    114c:	4621      	mov	r1, r4
    114e:	4648      	mov	r0, r9
    1150:	f7ff ff8d 	bl	106e <buffer_add>
    1154:	45c2      	cmp	sl, r8
    1156:	d1f7      	bne.n	1148 <unsigned_print+0xac>
    1158:	e8bd 8ff8 	ldmia.w	sp!, {r3, r4, r5, r6, r7, r8, r9, sl, fp, pc}
    115c:	000030e4 	.word	0x000030e4

00001160 <nrf_fprintf_fmt>:
    1160:	2900      	cmp	r1, #0
    1162:	f000 81a3 	beq.w	14ac <nrf_fprintf_fmt+0x34c>
    1166:	e92d 4ff0 	stmdb	sp!, {r4, r5, r6, r7, r8, r9, sl, fp, lr}
    116a:	b085      	sub	sp, #20
    116c:	4607      	mov	r7, r0
    116e:	4691      	mov	r9, r2
    1170:	460c      	mov	r4, r1
    1172:	f8df b33c 	ldr.w	fp, [pc, #828]	; 14b0 <nrf_fprintf_fmt+0x350>
    1176:	e093      	b.n	12a0 <nrf_fprintf_fmt+0x140>
    1178:	2600      	movs	r6, #0
    117a:	e002      	b.n	1182 <nrf_fprintf_fmt+0x22>
    117c:	f046 0601 	orr.w	r6, r6, #1
    1180:	3401      	adds	r4, #1
    1182:	7823      	ldrb	r3, [r4, #0]
    1184:	2b2d      	cmp	r3, #45	; 0x2d
    1186:	d0f9      	beq.n	117c <nrf_fprintf_fmt+0x1c>
    1188:	2b30      	cmp	r3, #48	; 0x30
    118a:	d006      	beq.n	119a <nrf_fprintf_fmt+0x3a>
    118c:	2b2b      	cmp	r3, #43	; 0x2b
    118e:	d008      	beq.n	11a2 <nrf_fprintf_fmt+0x42>
    1190:	2b2a      	cmp	r3, #42	; 0x2a
    1192:	d00a      	beq.n	11aa <nrf_fprintf_fmt+0x4a>
    1194:	4621      	mov	r1, r4
    1196:	2500      	movs	r5, #0
    1198:	e01b      	b.n	11d2 <nrf_fprintf_fmt+0x72>
    119a:	f046 0602 	orr.w	r6, r6, #2
    119e:	3401      	adds	r4, #1
    11a0:	e7ef      	b.n	1182 <nrf_fprintf_fmt+0x22>
    11a2:	f046 0604 	orr.w	r6, r6, #4
    11a6:	3401      	adds	r4, #1
    11a8:	e7eb      	b.n	1182 <nrf_fprintf_fmt+0x22>
    11aa:	f8d9 3000 	ldr.w	r3, [r9]
    11ae:	1d1a      	adds	r2, r3, #4
    11b0:	f8c9 2000 	str.w	r2, [r9]
    11b4:	681d      	ldr	r5, [r3, #0]
    11b6:	3401      	adds	r4, #1
    11b8:	7823      	ldrb	r3, [r4, #0]
    11ba:	2b2e      	cmp	r3, #46	; 0x2e
    11bc:	d012      	beq.n	11e4 <nrf_fprintf_fmt+0x84>
    11be:	f04f 0800 	mov.w	r8, #0
    11c2:	7823      	ldrb	r3, [r4, #0]
    11c4:	e02c      	b.n	1220 <nrf_fprintf_fmt+0xc0>
    11c6:	eb05 0585 	add.w	r5, r5, r5, lsl #2
    11ca:	eb03 0345 	add.w	r3, r3, r5, lsl #1
    11ce:	f1a3 0530 	sub.w	r5, r3, #48	; 0x30
    11d2:	460c      	mov	r4, r1
    11d4:	f811 3b01 	ldrb.w	r3, [r1], #1
    11d8:	f1a3 0230 	sub.w	r2, r3, #48	; 0x30
    11dc:	b2d2      	uxtb	r2, r2
    11de:	2a09      	cmp	r2, #9
    11e0:	d9f1      	bls.n	11c6 <nrf_fprintf_fmt+0x66>
    11e2:	e7e9      	b.n	11b8 <nrf_fprintf_fmt+0x58>
    11e4:	1c61      	adds	r1, r4, #1
    11e6:	7863      	ldrb	r3, [r4, #1]
    11e8:	f1a3 0230 	sub.w	r2, r3, #48	; 0x30
    11ec:	b2d2      	uxtb	r2, r2
    11ee:	2a09      	cmp	r2, #9
    11f0:	d810      	bhi.n	1214 <nrf_fprintf_fmt+0xb4>
    11f2:	f04f 0800 	mov.w	r8, #0
    11f6:	eb08 0888 	add.w	r8, r8, r8, lsl #2
    11fa:	eb03 0348 	add.w	r3, r3, r8, lsl #1
    11fe:	f1a3 0830 	sub.w	r8, r3, #48	; 0x30
    1202:	f811 3f01 	ldrb.w	r3, [r1, #1]!
    1206:	f1a3 0230 	sub.w	r2, r3, #48	; 0x30
    120a:	b2d2      	uxtb	r2, r2
    120c:	2a09      	cmp	r2, #9
    120e:	d9f2      	bls.n	11f6 <nrf_fprintf_fmt+0x96>
    1210:	460c      	mov	r4, r1
    1212:	e7d6      	b.n	11c2 <nrf_fprintf_fmt+0x62>
    1214:	460c      	mov	r4, r1
    1216:	f04f 0800 	mov.w	r8, #0
    121a:	e7d2      	b.n	11c2 <nrf_fprintf_fmt+0x62>
    121c:	f814 3f01 	ldrb.w	r3, [r4, #1]!
    1220:	f003 02fb 	and.w	r2, r3, #251	; 0xfb
    1224:	2a68      	cmp	r2, #104	; 0x68
    1226:	d0f9      	beq.n	121c <nrf_fprintf_fmt+0xbc>
    1228:	2b25      	cmp	r3, #37	; 0x25
    122a:	f000 8131 	beq.w	1490 <nrf_fprintf_fmt+0x330>
    122e:	f1a3 0258 	sub.w	r2, r3, #88	; 0x58
    1232:	b2d2      	uxtb	r2, r2
    1234:	2a20      	cmp	r2, #32
    1236:	d82e      	bhi.n	1296 <nrf_fprintf_fmt+0x136>
    1238:	3b58      	subs	r3, #88	; 0x58
    123a:	2b20      	cmp	r3, #32
    123c:	d82b      	bhi.n	1296 <nrf_fprintf_fmt+0x136>
    123e:	e8df f013 	tbh	[pc, r3, lsl #1]
    1242:	00ba      	.short	0x00ba
    1244:	002a002a 	.word	0x002a002a
    1248:	002a002a 	.word	0x002a002a
    124c:	002a002a 	.word	0x002a002a
    1250:	002a002a 	.word	0x002a002a
    1254:	002a002a 	.word	0x002a002a
    1258:	003b0021 	.word	0x003b0021
    125c:	002a002a 	.word	0x002a002a
    1260:	002a002a 	.word	0x002a002a
    1264:	002a003b 	.word	0x002a003b
    1268:	002a002a 	.word	0x002a002a
    126c:	002a002a 	.word	0x002a002a
    1270:	010f002a 	.word	0x010f002a
    1274:	002a002a 	.word	0x002a002a
    1278:	002a00c8 	.word	0x002a00c8
    127c:	002a00ac 	.word	0x002a00ac
    1280:	00ba002a 	.word	0x00ba002a
    1284:	f8d9 3000 	ldr.w	r3, [r9]
    1288:	1d1a      	adds	r2, r3, #4
    128a:	f8c9 2000 	str.w	r2, [r9]
    128e:	7819      	ldrb	r1, [r3, #0]
    1290:	4638      	mov	r0, r7
    1292:	f7ff feec 	bl	106e <buffer_add>
    1296:	3401      	adds	r4, #1
    1298:	7823      	ldrb	r3, [r4, #0]
    129a:	2b00      	cmp	r3, #0
    129c:	f000 80fd 	beq.w	149a <nrf_fprintf_fmt+0x33a>
    12a0:	f814 1b01 	ldrb.w	r1, [r4], #1
    12a4:	2900      	cmp	r1, #0
    12a6:	f000 80f8 	beq.w	149a <nrf_fprintf_fmt+0x33a>
    12aa:	2925      	cmp	r1, #37	; 0x25
    12ac:	f43f af64 	beq.w	1178 <nrf_fprintf_fmt+0x18>
    12b0:	4638      	mov	r0, r7
    12b2:	f7ff fedc 	bl	106e <buffer_add>
    12b6:	e7ef      	b.n	1298 <nrf_fprintf_fmt+0x138>
    12b8:	f8d9 3000 	ldr.w	r3, [r9]
    12bc:	1d1a      	adds	r2, r3, #4
    12be:	f8c9 2000 	str.w	r2, [r9]
    12c2:	f8d3 a000 	ldr.w	sl, [r3]
    12c6:	ea8a 73ea 	eor.w	r3, sl, sl, asr #31
    12ca:	eba3 73ea 	sub.w	r3, r3, sl, asr #31
    12ce:	2b09      	cmp	r3, #9
    12d0:	dd41      	ble.n	1356 <nrf_fprintf_fmt+0x1f6>
    12d2:	2201      	movs	r2, #1
    12d4:	4619      	mov	r1, r3
    12d6:	fb8b c003 	smull	ip, r0, fp, r3
    12da:	17db      	asrs	r3, r3, #31
    12dc:	ebc3 03a0 	rsb	r3, r3, r0, asr #2
    12e0:	3201      	adds	r2, #1
    12e2:	2963      	cmp	r1, #99	; 0x63
    12e4:	dcf6      	bgt.n	12d4 <nrf_fprintf_fmt+0x174>
    12e6:	4613      	mov	r3, r2
    12e8:	4542      	cmp	r2, r8
    12ea:	bf38      	it	cc
    12ec:	4643      	movcc	r3, r8
    12ee:	9302      	str	r3, [sp, #8]
    12f0:	b135      	cbz	r5, 1300 <nrf_fprintf_fmt+0x1a0>
    12f2:	f1ba 0f00 	cmp.w	sl, #0
    12f6:	db02      	blt.n	12fe <nrf_fprintf_fmt+0x19e>
    12f8:	f016 0f04 	tst.w	r6, #4
    12fc:	d000      	beq.n	1300 <nrf_fprintf_fmt+0x1a0>
    12fe:	3d01      	subs	r5, #1
    1300:	f016 0f02 	tst.w	r6, #2
    1304:	d002      	beq.n	130c <nrf_fprintf_fmt+0x1ac>
    1306:	f1b8 0f00 	cmp.w	r8, #0
    130a:	d011      	beq.n	1330 <nrf_fprintf_fmt+0x1d0>
    130c:	f016 0f01 	tst.w	r6, #1
    1310:	d10e      	bne.n	1330 <nrf_fprintf_fmt+0x1d0>
    1312:	b16d      	cbz	r5, 1330 <nrf_fprintf_fmt+0x1d0>
    1314:	9b02      	ldr	r3, [sp, #8]
    1316:	42ab      	cmp	r3, r5
    1318:	d20a      	bcs.n	1330 <nrf_fprintf_fmt+0x1d0>
    131a:	9403      	str	r4, [sp, #12]
    131c:	461c      	mov	r4, r3
    131e:	3d01      	subs	r5, #1
    1320:	2120      	movs	r1, #32
    1322:	4638      	mov	r0, r7
    1324:	f7ff fea3 	bl	106e <buffer_add>
    1328:	42ac      	cmp	r4, r5
    132a:	d1f8      	bne.n	131e <nrf_fprintf_fmt+0x1be>
    132c:	9c03      	ldr	r4, [sp, #12]
    132e:	9d02      	ldr	r5, [sp, #8]
    1330:	f1ba 0f00 	cmp.w	sl, #0
    1334:	db11      	blt.n	135a <nrf_fprintf_fmt+0x1fa>
    1336:	f016 0f04 	tst.w	r6, #4
    133a:	d115      	bne.n	1368 <nrf_fprintf_fmt+0x208>
    133c:	f006 0303 	and.w	r3, r6, #3
    1340:	2b02      	cmp	r3, #2
    1342:	d016      	beq.n	1372 <nrf_fprintf_fmt+0x212>
    1344:	9601      	str	r6, [sp, #4]
    1346:	9500      	str	r5, [sp, #0]
    1348:	4643      	mov	r3, r8
    134a:	220a      	movs	r2, #10
    134c:	4651      	mov	r1, sl
    134e:	4638      	mov	r0, r7
    1350:	f7ff fea4 	bl	109c <unsigned_print>
    1354:	e79f      	b.n	1296 <nrf_fprintf_fmt+0x136>
    1356:	2201      	movs	r2, #1
    1358:	e7c5      	b.n	12e6 <nrf_fprintf_fmt+0x186>
    135a:	f1ca 0a00 	rsb	sl, sl, #0
    135e:	212d      	movs	r1, #45	; 0x2d
    1360:	4638      	mov	r0, r7
    1362:	f7ff fe84 	bl	106e <buffer_add>
    1366:	e7e9      	b.n	133c <nrf_fprintf_fmt+0x1dc>
    1368:	212b      	movs	r1, #43	; 0x2b
    136a:	4638      	mov	r0, r7
    136c:	f7ff fe7f 	bl	106e <buffer_add>
    1370:	e7e4      	b.n	133c <nrf_fprintf_fmt+0x1dc>
    1372:	f1b8 0f00 	cmp.w	r8, #0
    1376:	d1e5      	bne.n	1344 <nrf_fprintf_fmt+0x1e4>
    1378:	2d00      	cmp	r5, #0
    137a:	d0e3      	beq.n	1344 <nrf_fprintf_fmt+0x1e4>
    137c:	9b02      	ldr	r3, [sp, #8]
    137e:	42ab      	cmp	r3, r5
    1380:	d2e0      	bcs.n	1344 <nrf_fprintf_fmt+0x1e4>
    1382:	9403      	str	r4, [sp, #12]
    1384:	461c      	mov	r4, r3
    1386:	3d01      	subs	r5, #1
    1388:	2130      	movs	r1, #48	; 0x30
    138a:	4638      	mov	r0, r7
    138c:	f7ff fe6f 	bl	106e <buffer_add>
    1390:	42ac      	cmp	r4, r5
    1392:	d1f8      	bne.n	1386 <nrf_fprintf_fmt+0x226>
    1394:	9c03      	ldr	r4, [sp, #12]
    1396:	9d02      	ldr	r5, [sp, #8]
    1398:	e7d4      	b.n	1344 <nrf_fprintf_fmt+0x1e4>
    139a:	f8d9 3000 	ldr.w	r3, [r9]
    139e:	1d1a      	adds	r2, r3, #4
    13a0:	f8c9 2000 	str.w	r2, [r9]
    13a4:	6819      	ldr	r1, [r3, #0]
    13a6:	9601      	str	r6, [sp, #4]
    13a8:	9500      	str	r5, [sp, #0]
    13aa:	4643      	mov	r3, r8
    13ac:	220a      	movs	r2, #10
    13ae:	4638      	mov	r0, r7
    13b0:	f7ff fe74 	bl	109c <unsigned_print>
    13b4:	e76f      	b.n	1296 <nrf_fprintf_fmt+0x136>
    13b6:	f8d9 3000 	ldr.w	r3, [r9]
    13ba:	1d1a      	adds	r2, r3, #4
    13bc:	f8c9 2000 	str.w	r2, [r9]
    13c0:	6819      	ldr	r1, [r3, #0]
    13c2:	9601      	str	r6, [sp, #4]
    13c4:	9500      	str	r5, [sp, #0]
    13c6:	4643      	mov	r3, r8
    13c8:	2210      	movs	r2, #16
    13ca:	4638      	mov	r0, r7
    13cc:	f7ff fe66 	bl	109c <unsigned_print>
    13d0:	e761      	b.n	1296 <nrf_fprintf_fmt+0x136>
    13d2:	f8d9 3000 	ldr.w	r3, [r9]
    13d6:	1d1a      	adds	r2, r3, #4
    13d8:	f8c9 2000 	str.w	r2, [r9]
    13dc:	f8d3 8000 	ldr.w	r8, [r3]
    13e0:	f016 0601 	ands.w	r6, r6, #1
    13e4:	d01d      	beq.n	1422 <nrf_fprintf_fmt+0x2c2>
    13e6:	f898 1000 	ldrb.w	r1, [r8]
    13ea:	b1b9      	cbz	r1, 141c <nrf_fprintf_fmt+0x2bc>
    13ec:	4646      	mov	r6, r8
    13ee:	f1c8 0801 	rsb	r8, r8, #1
    13f2:	eb08 0a06 	add.w	sl, r8, r6
    13f6:	4638      	mov	r0, r7
    13f8:	f7ff fe39 	bl	106e <buffer_add>
    13fc:	f816 1f01 	ldrb.w	r1, [r6, #1]!
    1400:	2900      	cmp	r1, #0
    1402:	d1f6      	bne.n	13f2 <nrf_fprintf_fmt+0x292>
    1404:	4555      	cmp	r5, sl
    1406:	f67f af46 	bls.w	1296 <nrf_fprintf_fmt+0x136>
    140a:	2620      	movs	r6, #32
    140c:	3d01      	subs	r5, #1
    140e:	4631      	mov	r1, r6
    1410:	4638      	mov	r0, r7
    1412:	f7ff fe2c 	bl	106e <buffer_add>
    1416:	4555      	cmp	r5, sl
    1418:	d1f8      	bne.n	140c <nrf_fprintf_fmt+0x2ac>
    141a:	e73c      	b.n	1296 <nrf_fprintf_fmt+0x136>
    141c:	f04f 0a00 	mov.w	sl, #0
    1420:	e7f0      	b.n	1404 <nrf_fprintf_fmt+0x2a4>
    1422:	f1b8 0f00 	cmp.w	r8, #0
    1426:	d003      	beq.n	1430 <nrf_fprintf_fmt+0x2d0>
    1428:	4640      	mov	r0, r8
    142a:	f001 fccd 	bl	2dc8 <strlen>
    142e:	4606      	mov	r6, r0
    1430:	42b5      	cmp	r5, r6
    1432:	d908      	bls.n	1446 <nrf_fprintf_fmt+0x2e6>
    1434:	f04f 0a20 	mov.w	sl, #32
    1438:	3d01      	subs	r5, #1
    143a:	4651      	mov	r1, sl
    143c:	4638      	mov	r0, r7
    143e:	f7ff fe16 	bl	106e <buffer_add>
    1442:	42b5      	cmp	r5, r6
    1444:	d1f8      	bne.n	1438 <nrf_fprintf_fmt+0x2d8>
    1446:	f898 1000 	ldrb.w	r1, [r8]
    144a:	2900      	cmp	r1, #0
    144c:	f43f af23 	beq.w	1296 <nrf_fprintf_fmt+0x136>
    1450:	4638      	mov	r0, r7
    1452:	f7ff fe0c 	bl	106e <buffer_add>
    1456:	f818 1f01 	ldrb.w	r1, [r8, #1]!
    145a:	2900      	cmp	r1, #0
    145c:	d1f8      	bne.n	1450 <nrf_fprintf_fmt+0x2f0>
    145e:	e71a      	b.n	1296 <nrf_fprintf_fmt+0x136>
    1460:	f8d9 3000 	ldr.w	r3, [r9]
    1464:	1d1a      	adds	r2, r3, #4
    1466:	f8c9 2000 	str.w	r2, [r9]
    146a:	681d      	ldr	r5, [r3, #0]
    146c:	2130      	movs	r1, #48	; 0x30
    146e:	4638      	mov	r0, r7
    1470:	f7ff fdfd 	bl	106e <buffer_add>
    1474:	2178      	movs	r1, #120	; 0x78
    1476:	4638      	mov	r0, r7
    1478:	f7ff fdf9 	bl	106e <buffer_add>
    147c:	2300      	movs	r3, #0
    147e:	9301      	str	r3, [sp, #4]
    1480:	2308      	movs	r3, #8
    1482:	9300      	str	r3, [sp, #0]
    1484:	2210      	movs	r2, #16
    1486:	4629      	mov	r1, r5
    1488:	4638      	mov	r0, r7
    148a:	f7ff fe07 	bl	109c <unsigned_print>
    148e:	e702      	b.n	1296 <nrf_fprintf_fmt+0x136>
    1490:	2125      	movs	r1, #37	; 0x25
    1492:	4638      	mov	r0, r7
    1494:	f7ff fdeb 	bl	106e <buffer_add>
    1498:	e6fd      	b.n	1296 <nrf_fprintf_fmt+0x136>
    149a:	7b3b      	ldrb	r3, [r7, #12]
    149c:	b913      	cbnz	r3, 14a4 <nrf_fprintf_fmt+0x344>
    149e:	b005      	add	sp, #20
    14a0:	e8bd 8ff0 	ldmia.w	sp!, {r4, r5, r6, r7, r8, r9, sl, fp, pc}
    14a4:	4638      	mov	r0, r7
    14a6:	f7ff fdc7 	bl	1038 <nrf_fprintf_buffer_flush>
    14aa:	e7f8      	b.n	149e <nrf_fprintf_fmt+0x33e>
    14ac:	4770      	bx	lr
    14ae:	bf00      	nop
    14b0:	66666667 	.word	0x66666667

000014b4 <memobj_op>:
    14b4:	e92d 4ff8 	stmdb	sp!, {r3, r4, r5, r6, r7, r8, r9, sl, fp, lr}
    14b8:	4604      	mov	r4, r0
    14ba:	4689      	mov	r9, r1
    14bc:	f89d a028 	ldrb.w	sl, [sp, #40]	; 0x28
    14c0:	f8b0 8006 	ldrh.w	r8, [r0, #6]
    14c4:	7946      	ldrb	r6, [r0, #5]
    14c6:	fb08 f606 	mul.w	r6, r8, r6
    14ca:	3e04      	subs	r6, #4
    14cc:	1d1f      	adds	r7, r3, #4
    14ce:	fbb7 f0f8 	udiv	r0, r7, r8
    14d2:	fb08 7110 	mls	r1, r8, r0, r7
    14d6:	6815      	ldr	r5, [r2, #0]
    14d8:	eb05 0c03 	add.w	ip, r5, r3
    14dc:	45b4      	cmp	ip, r6
    14de:	bf88      	it	hi
    14e0:	1af5      	subhi	r5, r6, r3
    14e2:	6015      	str	r5, [r2, #0]
    14e4:	4547      	cmp	r7, r8
    14e6:	d302      	bcc.n	14ee <memobj_op+0x3a>
    14e8:	6824      	ldr	r4, [r4, #0]
    14ea:	3801      	subs	r0, #1
    14ec:	d1fc      	bne.n	14e8 <memobj_op+0x34>
    14ee:	eba8 0601 	sub.w	r6, r8, r1
    14f2:	42ae      	cmp	r6, r5
    14f4:	bf28      	it	cs
    14f6:	462e      	movcs	r6, r5
    14f8:	b1e5      	cbz	r5, 1534 <memobj_op+0x80>
    14fa:	2700      	movs	r7, #0
    14fc:	46bb      	mov	fp, r7
    14fe:	e00c      	b.n	151a <memobj_op+0x66>
    1500:	4632      	mov	r2, r6
    1502:	4619      	mov	r1, r3
    1504:	f001 fc52 	bl	2dac <memcpy>
    1508:	6824      	ldr	r4, [r4, #0]
    150a:	1bad      	subs	r5, r5, r6
    150c:	4437      	add	r7, r6
    150e:	4646      	mov	r6, r8
    1510:	45a8      	cmp	r8, r5
    1512:	bf28      	it	cs
    1514:	462e      	movcs	r6, r5
    1516:	4659      	mov	r1, fp
    1518:	b165      	cbz	r5, 1534 <memobj_op+0x80>
    151a:	eb09 0307 	add.w	r3, r9, r7
    151e:	3104      	adds	r1, #4
    1520:	1860      	adds	r0, r4, r1
    1522:	f1ba 0f00 	cmp.w	sl, #0
    1526:	d0eb      	beq.n	1500 <memobj_op+0x4c>
    1528:	4632      	mov	r2, r6
    152a:	4601      	mov	r1, r0
    152c:	4618      	mov	r0, r3
    152e:	f001 fc3d 	bl	2dac <memcpy>
    1532:	e7e9      	b.n	1508 <memobj_op+0x54>
    1534:	e8bd 8ff8 	ldmia.w	sp!, {r3, r4, r5, r6, r7, r8, r9, sl, fp, pc}

00001538 <nrf_memobj_pool_init>:
    1538:	b508      	push	{r3, lr}
    153a:	f7ff fd2b 	bl	f94 <nrf_balloc_init>
    153e:	bd08      	pop	{r3, pc}

00001540 <nrf_memobj_free>:
    1540:	b5f8      	push	{r3, r4, r5, r6, r7, lr}
    1542:	4604      	mov	r4, r0
    1544:	7946      	ldrb	r6, [r0, #5]
    1546:	1e71      	subs	r1, r6, #1
    1548:	d011      	beq.n	156e <nrf_memobj_free+0x2e>
    154a:	4602      	mov	r2, r0
    154c:	2300      	movs	r3, #0
    154e:	6812      	ldr	r2, [r2, #0]
    1550:	3301      	adds	r3, #1
    1552:	4299      	cmp	r1, r3
    1554:	d1fb      	bne.n	154e <nrf_memobj_free+0xe>
    1556:	6817      	ldr	r7, [r2, #0]
    1558:	b146      	cbz	r6, 156c <nrf_memobj_free+0x2c>
    155a:	2500      	movs	r5, #0
    155c:	4621      	mov	r1, r4
    155e:	6824      	ldr	r4, [r4, #0]
    1560:	4638      	mov	r0, r7
    1562:	f7ff fd55 	bl	1010 <nrf_balloc_free>
    1566:	3501      	adds	r5, #1
    1568:	42ae      	cmp	r6, r5
    156a:	d8f7      	bhi.n	155c <nrf_memobj_free+0x1c>
    156c:	bdf8      	pop	{r3, r4, r5, r6, r7, pc}
    156e:	4601      	mov	r1, r0
    1570:	6800      	ldr	r0, [r0, #0]
    1572:	f7ff fd4d 	bl	1010 <nrf_balloc_free>
    1576:	e7f9      	b.n	156c <nrf_memobj_free+0x2c>

00001578 <nrf_memobj_alloc>:
    1578:	e92d 43f8 	stmdb	sp!, {r3, r4, r5, r6, r7, r8, r9, lr}
    157c:	4607      	mov	r7, r0
    157e:	8a04      	ldrh	r4, [r0, #16]
    1580:	1f23      	subs	r3, r4, #4
    1582:	f101 0803 	add.w	r8, r1, #3
    1586:	4498      	add	r8, r3
    1588:	fbb8 f8f3 	udiv	r8, r8, r3
    158c:	f7ff fd1e 	bl	fcc <nrf_balloc_alloc>
    1590:	4606      	mov	r6, r0
    1592:	b308      	cbz	r0, 15d8 <nrf_memobj_alloc+0x60>
    1594:	2300      	movs	r3, #0
    1596:	7103      	strb	r3, [r0, #4]
    1598:	2301      	movs	r3, #1
    159a:	7143      	strb	r3, [r0, #5]
    159c:	3c04      	subs	r4, #4
    159e:	80c4      	strh	r4, [r0, #6]
    15a0:	fa5f f888 	uxtb.w	r8, r8
    15a4:	6007      	str	r7, [r0, #0]
    15a6:	f1b8 0801 	subs.w	r8, r8, #1
    15aa:	d015      	beq.n	15d8 <nrf_memobj_alloc+0x60>
    15ac:	4604      	mov	r4, r0
    15ae:	2500      	movs	r5, #0
    15b0:	46a1      	mov	r9, r4
    15b2:	4638      	mov	r0, r7
    15b4:	f7ff fd0a 	bl	fcc <nrf_balloc_alloc>
    15b8:	4604      	mov	r4, r0
    15ba:	b148      	cbz	r0, 15d0 <nrf_memobj_alloc+0x58>
    15bc:	7973      	ldrb	r3, [r6, #5]
    15be:	3301      	adds	r3, #1
    15c0:	7173      	strb	r3, [r6, #5]
    15c2:	f8c9 0000 	str.w	r0, [r9]
    15c6:	6007      	str	r7, [r0, #0]
    15c8:	3501      	adds	r5, #1
    15ca:	45a8      	cmp	r8, r5
    15cc:	d1f0      	bne.n	15b0 <nrf_memobj_alloc+0x38>
    15ce:	e003      	b.n	15d8 <nrf_memobj_alloc+0x60>
    15d0:	4630      	mov	r0, r6
    15d2:	f7ff ffb5 	bl	1540 <nrf_memobj_free>
    15d6:	4626      	mov	r6, r4
    15d8:	4630      	mov	r0, r6
    15da:	e8bd 83f8 	ldmia.w	sp!, {r3, r4, r5, r6, r7, r8, r9, pc}

000015de <nrf_memobj_get>:
    15de:	b508      	push	{r3, lr}
    15e0:	2101      	movs	r1, #1
    15e2:	3004      	adds	r0, #4
    15e4:	f7ff fcb6 	bl	f54 <nrf_atomic_u32_add>
    15e8:	bd08      	pop	{r3, pc}

000015ea <nrf_memobj_put>:
    15ea:	b510      	push	{r4, lr}
    15ec:	4604      	mov	r4, r0
    15ee:	2101      	movs	r1, #1
    15f0:	3004      	adds	r0, #4
    15f2:	f7ff fcba 	bl	f6a <nrf_atomic_u32_sub>
    15f6:	f010 0fff 	tst.w	r0, #255	; 0xff
    15fa:	d000      	beq.n	15fe <nrf_memobj_put+0x14>
    15fc:	bd10      	pop	{r4, pc}
    15fe:	4620      	mov	r0, r4
    1600:	f7ff ff9e 	bl	1540 <nrf_memobj_free>
    1604:	e7fa      	b.n	15fc <nrf_memobj_put+0x12>

00001606 <nrf_memobj_write>:
    1606:	b500      	push	{lr}
    1608:	b085      	sub	sp, #20
    160a:	9203      	str	r2, [sp, #12]
    160c:	2200      	movs	r2, #0
    160e:	9200      	str	r2, [sp, #0]
    1610:	aa03      	add	r2, sp, #12
    1612:	f7ff ff4f 	bl	14b4 <memobj_op>
    1616:	b005      	add	sp, #20
    1618:	f85d fb04 	ldr.w	pc, [sp], #4

0000161c <nrf_memobj_read>:
    161c:	b500      	push	{lr}
    161e:	b085      	sub	sp, #20
    1620:	9203      	str	r2, [sp, #12]
    1622:	2201      	movs	r2, #1
    1624:	9200      	str	r2, [sp, #0]
    1626:	aa03      	add	r2, sp, #12
    1628:	f7ff ff44 	bl	14b4 <memobj_op>
    162c:	b005      	add	sp, #20
    162e:	f85d fb04 	ldr.w	pc, [sp], #4

00001632 <nrf_ringbuf_init>:
    1632:	6882      	ldr	r2, [r0, #8]
    1634:	2300      	movs	r3, #0
    1636:	6093      	str	r3, [r2, #8]
    1638:	6882      	ldr	r2, [r0, #8]
    163a:	6113      	str	r3, [r2, #16]
    163c:	6882      	ldr	r2, [r0, #8]
    163e:	6153      	str	r3, [r2, #20]
    1640:	6882      	ldr	r2, [r0, #8]
    1642:	60d3      	str	r3, [r2, #12]
    1644:	6882      	ldr	r2, [r0, #8]
    1646:	6053      	str	r3, [r2, #4]
    1648:	6882      	ldr	r2, [r0, #8]
    164a:	6013      	str	r3, [r2, #0]
    164c:	4770      	bx	lr
	...

00001650 <spim_evt_handler>:
    1650:	b500      	push	{lr}
    1652:	b087      	sub	sp, #28
    1654:	7803      	ldrb	r3, [r0, #0]
    1656:	f88d 3004 	strb.w	r3, [sp, #4]
    165a:	6843      	ldr	r3, [r0, #4]
    165c:	9302      	str	r3, [sp, #8]
    165e:	6883      	ldr	r3, [r0, #8]
    1660:	f88d 300c 	strb.w	r3, [sp, #12]
    1664:	68c3      	ldr	r3, [r0, #12]
    1666:	9304      	str	r3, [sp, #16]
    1668:	6903      	ldr	r3, [r0, #16]
    166a:	f88d 3014 	strb.w	r3, [sp, #20]
    166e:	4b05      	ldr	r3, [pc, #20]	; (1684 <spim_evt_handler+0x34>)
    1670:	f853 3021 	ldr.w	r3, [r3, r1, lsl #2]
    1674:	4a04      	ldr	r2, [pc, #16]	; (1688 <spim_evt_handler+0x38>)
    1676:	f852 1021 	ldr.w	r1, [r2, r1, lsl #2]
    167a:	a801      	add	r0, sp, #4
    167c:	4798      	blx	r3
    167e:	b007      	add	sp, #28
    1680:	f85d fb04 	ldr.w	pc, [sp], #4
    1684:	2000063c 	.word	0x2000063c
    1688:	20000630 	.word	0x20000630

0000168c <nrf_drv_spi_init>:
    168c:	b570      	push	{r4, r5, r6, lr}
    168e:	b084      	sub	sp, #16
    1690:	468c      	mov	ip, r1
    1692:	4614      	mov	r4, r2
    1694:	4686      	mov	lr, r0
    1696:	f81e 5b04 	ldrb.w	r5, [lr], #4
    169a:	4a1c      	ldr	r2, [pc, #112]	; (170c <nrf_drv_spi_init+0x80>)
    169c:	f842 4025 	str.w	r4, [r2, r5, lsl #2]
    16a0:	4a1b      	ldr	r2, [pc, #108]	; (1710 <nrf_drv_spi_init+0x84>)
    16a2:	f842 3025 	str.w	r3, [r2, r5, lsl #2]
    16a6:	4b1b      	ldr	r3, [pc, #108]	; (1714 <nrf_drv_spi_init+0x88>)
    16a8:	cb0f      	ldmia	r3, {r0, r1, r2, r3}
    16aa:	ae04      	add	r6, sp, #16
    16ac:	e906 000f 	stmdb	r6, {r0, r1, r2, r3}
    16b0:	f89c 3000 	ldrb.w	r3, [ip]
    16b4:	f88d 3000 	strb.w	r3, [sp]
    16b8:	f89c 3001 	ldrb.w	r3, [ip, #1]
    16bc:	f88d 3001 	strb.w	r3, [sp, #1]
    16c0:	f89c 3002 	ldrb.w	r3, [ip, #2]
    16c4:	f88d 3002 	strb.w	r3, [sp, #2]
    16c8:	f89c 3003 	ldrb.w	r3, [ip, #3]
    16cc:	f88d 3003 	strb.w	r3, [sp, #3]
    16d0:	f89c 3004 	ldrb.w	r3, [ip, #4]
    16d4:	f88d 3005 	strb.w	r3, [sp, #5]
    16d8:	f89c 3005 	ldrb.w	r3, [ip, #5]
    16dc:	f88d 3006 	strb.w	r3, [sp, #6]
    16e0:	f8dc 3008 	ldr.w	r3, [ip, #8]
    16e4:	9302      	str	r3, [sp, #8]
    16e6:	f89c 300c 	ldrb.w	r3, [ip, #12]
    16ea:	f88d 300c 	strb.w	r3, [sp, #12]
    16ee:	f89c 300d 	ldrb.w	r3, [ip, #13]
    16f2:	f88d 300d 	strb.w	r3, [sp, #13]
    16f6:	2c00      	cmp	r4, #0
    16f8:	462b      	mov	r3, r5
    16fa:	4a07      	ldr	r2, [pc, #28]	; (1718 <nrf_drv_spi_init+0x8c>)
    16fc:	bf08      	it	eq
    16fe:	4622      	moveq	r2, r4
    1700:	4669      	mov	r1, sp
    1702:	4670      	mov	r0, lr
    1704:	f000 f9a2 	bl	1a4c <nrfx_spim_init>
    1708:	b004      	add	sp, #16
    170a:	bd70      	pop	{r4, r5, r6, pc}
    170c:	2000063c 	.word	0x2000063c
    1710:	20000630 	.word	0x20000630
    1714:	00003100 	.word	0x00003100
    1718:	00001651 	.word	0x00001651

0000171c <uarte_evt_handler>:
    171c:	b500      	push	{lr}
    171e:	b085      	sub	sp, #20
    1720:	7803      	ldrb	r3, [r0, #0]
    1722:	f88d 3000 	strb.w	r3, [sp]
    1726:	6843      	ldr	r3, [r0, #4]
    1728:	9301      	str	r3, [sp, #4]
    172a:	6883      	ldr	r3, [r0, #8]
    172c:	f88d 3008 	strb.w	r3, [sp, #8]
    1730:	68c3      	ldr	r3, [r0, #12]
    1732:	9303      	str	r3, [sp, #12]
    1734:	4b05      	ldr	r3, [pc, #20]	; (174c <uarte_evt_handler+0x30>)
    1736:	f853 3021 	ldr.w	r3, [r3, r1, lsl #2]
    173a:	4a05      	ldr	r2, [pc, #20]	; (1750 <uarte_evt_handler+0x34>)
    173c:	f852 1021 	ldr.w	r1, [r2, r1, lsl #2]
    1740:	4668      	mov	r0, sp
    1742:	4798      	blx	r3
    1744:	b005      	add	sp, #20
    1746:	f85d fb04 	ldr.w	pc, [sp], #4
    174a:	bf00      	nop
    174c:	2000064c 	.word	0x2000064c
    1750:	20000648 	.word	0x20000648

00001754 <uart_evt_handler>:
    1754:	b500      	push	{lr}
    1756:	b085      	sub	sp, #20
    1758:	7803      	ldrb	r3, [r0, #0]
    175a:	f88d 3000 	strb.w	r3, [sp]
    175e:	6843      	ldr	r3, [r0, #4]
    1760:	9301      	str	r3, [sp, #4]
    1762:	6883      	ldr	r3, [r0, #8]
    1764:	f88d 3008 	strb.w	r3, [sp, #8]
    1768:	68c3      	ldr	r3, [r0, #12]
    176a:	9303      	str	r3, [sp, #12]
    176c:	4b05      	ldr	r3, [pc, #20]	; (1784 <uart_evt_handler+0x30>)
    176e:	f853 3021 	ldr.w	r3, [r3, r1, lsl #2]
    1772:	4a05      	ldr	r2, [pc, #20]	; (1788 <uart_evt_handler+0x34>)
    1774:	f852 1021 	ldr.w	r1, [r2, r1, lsl #2]
    1778:	4668      	mov	r0, sp
    177a:	4798      	blx	r3
    177c:	b005      	add	sp, #20
    177e:	f85d fb04 	ldr.w	pc, [sp], #4
    1782:	bf00      	nop
    1784:	2000064c 	.word	0x2000064c
    1788:	20000648 	.word	0x20000648

0000178c <nrf_drv_uart_init>:
    178c:	b5f0      	push	{r4, r5, r6, r7, lr}
    178e:	b089      	sub	sp, #36	; 0x24
    1790:	4605      	mov	r5, r0
    1792:	468c      	mov	ip, r1
    1794:	4614      	mov	r4, r2
    1796:	7806      	ldrb	r6, [r0, #0]
    1798:	4b14      	ldr	r3, [pc, #80]	; (17ec <nrf_drv_uart_init+0x60>)
    179a:	f843 2026 	str.w	r2, [r3, r6, lsl #2]
    179e:	690a      	ldr	r2, [r1, #16]
    17a0:	4b13      	ldr	r3, [pc, #76]	; (17f0 <nrf_drv_uart_init+0x64>)
    17a2:	f843 2026 	str.w	r2, [r3, r6, lsl #2]
    17a6:	7f4f      	ldrb	r7, [r1, #29]
    17a8:	4b12      	ldr	r3, [pc, #72]	; (17f4 <nrf_drv_uart_init+0x68>)
    17aa:	559f      	strb	r7, [r3, r6]
    17ac:	46ee      	mov	lr, sp
    17ae:	e8bc 000f 	ldmia.w	ip!, {r0, r1, r2, r3}
    17b2:	e8ae 000f 	stmia.w	lr!, {r0, r1, r2, r3}
    17b6:	e89c 000f 	ldmia.w	ip, {r0, r1, r2, r3}
    17ba:	e88e 000f 	stmia.w	lr, {r0, r1, r2, r3}
    17be:	9604      	str	r6, [sp, #16]
    17c0:	b14f      	cbz	r7, 17d6 <nrf_drv_uart_init+0x4a>
    17c2:	2c00      	cmp	r4, #0
    17c4:	4a0c      	ldr	r2, [pc, #48]	; (17f8 <nrf_drv_uart_init+0x6c>)
    17c6:	bf08      	it	eq
    17c8:	4622      	moveq	r2, r4
    17ca:	4669      	mov	r1, sp
    17cc:	1d28      	adds	r0, r5, #4
    17ce:	f000 fe43 	bl	2458 <nrfx_uarte_init>
    17d2:	b009      	add	sp, #36	; 0x24
    17d4:	bdf0      	pop	{r4, r5, r6, r7, pc}
    17d6:	2c00      	cmp	r4, #0
    17d8:	4a08      	ldr	r2, [pc, #32]	; (17fc <nrf_drv_uart_init+0x70>)
    17da:	bf08      	it	eq
    17dc:	4622      	moveq	r2, r4
    17de:	4669      	mov	r1, sp
    17e0:	f105 000c 	add.w	r0, r5, #12
    17e4:	f000 fbd8 	bl	1f98 <nrfx_uart_init>
    17e8:	e7f3      	b.n	17d2 <nrf_drv_uart_init+0x46>
    17ea:	bf00      	nop
    17ec:	2000064c 	.word	0x2000064c
    17f0:	20000648 	.word	0x20000648
    17f4:	20000650 	.word	0x20000650
    17f8:	0000171d 	.word	0x0000171d
    17fc:	00001755 	.word	0x00001755

00001800 <GPIOTE_IRQHandler>:
    1800:	e92d 41f0 	stmdb	sp!, {r4, r5, r6, r7, r8, lr}
    1804:	b084      	sub	sp, #16
    1806:	2500      	movs	r5, #0
    1808:	9503      	str	r5, [sp, #12]
    180a:	4b57      	ldr	r3, [pc, #348]	; (1968 <GPIOTE_IRQHandler+0x168>)
    180c:	2201      	movs	r2, #1
    180e:	4e57      	ldr	r6, [pc, #348]	; (196c <GPIOTE_IRQHandler+0x16c>)
    1810:	462f      	mov	r7, r5
    1812:	4c57      	ldr	r4, [pc, #348]	; (1970 <GPIOTE_IRQHandler+0x170>)
    1814:	e003      	b.n	181e <GPIOTE_IRQHandler+0x1e>
    1816:	0052      	lsls	r2, r2, #1
    1818:	3304      	adds	r3, #4
    181a:	42a3      	cmp	r3, r4
    181c:	d00c      	beq.n	1838 <GPIOTE_IRQHandler+0x38>
    181e:	6819      	ldr	r1, [r3, #0]
    1820:	2901      	cmp	r1, #1
    1822:	d1f8      	bne.n	1816 <GPIOTE_IRQHandler+0x16>
    1824:	f8d6 1304 	ldr.w	r1, [r6, #772]	; 0x304
    1828:	4211      	tst	r1, r2
    182a:	d0f4      	beq.n	1816 <GPIOTE_IRQHandler+0x16>
    182c:	601f      	str	r7, [r3, #0]
    182e:	6819      	ldr	r1, [r3, #0]
    1830:	9101      	str	r1, [sp, #4]
    1832:	9901      	ldr	r1, [sp, #4]
    1834:	4315      	orrs	r5, r2
    1836:	e7ee      	b.n	1816 <GPIOTE_IRQHandler+0x16>
    1838:	4b4c      	ldr	r3, [pc, #304]	; (196c <GPIOTE_IRQHandler+0x16c>)
    183a:	f8d3 317c 	ldr.w	r3, [r3, #380]	; 0x17c
    183e:	2b01      	cmp	r3, #1
    1840:	d006      	beq.n	1850 <GPIOTE_IRQHandler+0x50>
    1842:	f015 0fff 	tst.w	r5, #255	; 0xff
    1846:	d031      	beq.n	18ac <GPIOTE_IRQHandler+0xac>
    1848:	2400      	movs	r4, #0
    184a:	2601      	movs	r6, #1
    184c:	4f49      	ldr	r7, [pc, #292]	; (1974 <GPIOTE_IRQHandler+0x174>)
    184e:	e018      	b.n	1882 <GPIOTE_IRQHandler+0x82>
    1850:	4b46      	ldr	r3, [pc, #280]	; (196c <GPIOTE_IRQHandler+0x16c>)
    1852:	2200      	movs	r2, #0
    1854:	f8c3 217c 	str.w	r2, [r3, #380]	; 0x17c
    1858:	f8d3 317c 	ldr.w	r3, [r3, #380]	; 0x17c
    185c:	9302      	str	r3, [sp, #8]
    185e:	9b02      	ldr	r3, [sp, #8]
    1860:	f04f 43a0 	mov.w	r3, #1342177280	; 0x50000000
    1864:	f8d3 2520 	ldr.w	r2, [r3, #1312]	; 0x520
    1868:	9203      	str	r2, [sp, #12]
    186a:	f8c3 2520 	str.w	r2, [r3, #1312]	; 0x520
    186e:	f015 0fff 	tst.w	r5, #255	; 0xff
    1872:	d01d      	beq.n	18b0 <GPIOTE_IRQHandler+0xb0>
    1874:	f045 4500 	orr.w	r5, r5, #2147483648	; 0x80000000
    1878:	e7e6      	b.n	1848 <GPIOTE_IRQHandler+0x48>
    187a:	0076      	lsls	r6, r6, #1
    187c:	3401      	adds	r4, #1
    187e:	2c08      	cmp	r4, #8
    1880:	d014      	beq.n	18ac <GPIOTE_IRQHandler+0xac>
    1882:	4235      	tst	r5, r6
    1884:	d0f9      	beq.n	187a <GPIOTE_IRQHandler+0x7a>
    1886:	00a3      	lsls	r3, r4, #2
    1888:	f103 4380 	add.w	r3, r3, #1073741824	; 0x40000000
    188c:	f503 43c0 	add.w	r3, r3, #24576	; 0x6000
    1890:	f8d3 0510 	ldr.w	r0, [r3, #1296]	; 0x510
    1894:	f8d3 1510 	ldr.w	r1, [r3, #1296]	; 0x510
    1898:	f857 3024 	ldr.w	r3, [r7, r4, lsl #2]
    189c:	2b00      	cmp	r3, #0
    189e:	d0ec      	beq.n	187a <GPIOTE_IRQHandler+0x7a>
    18a0:	f3c1 4101 	ubfx	r1, r1, #16, #2
    18a4:	f3c0 2004 	ubfx	r0, r0, #8, #5
    18a8:	4798      	blx	r3
    18aa:	e7e6      	b.n	187a <GPIOTE_IRQHandler+0x7a>
    18ac:	2d00      	cmp	r5, #0
    18ae:	da57      	bge.n	1960 <GPIOTE_IRQHandler+0x160>
    18b0:	4e30      	ldr	r6, [pc, #192]	; (1974 <GPIOTE_IRQHandler+0x174>)
    18b2:	f106 0753 	add.w	r7, r6, #83	; 0x53
    18b6:	f04f 44a0 	mov.w	r4, #1342177280	; 0x50000000
    18ba:	f106 054f 	add.w	r5, r6, #79	; 0x4f
    18be:	f04f 0801 	mov.w	r8, #1
    18c2:	e004      	b.n	18ce <GPIOTE_IRQHandler+0xce>
    18c4:	2901      	cmp	r1, #1
    18c6:	d100      	bne.n	18ca <GPIOTE_IRQHandler+0xca>
    18c8:	4798      	blx	r3
    18ca:	42bd      	cmp	r5, r7
    18cc:	d041      	beq.n	1952 <GPIOTE_IRQHandler+0x152>
    18ce:	f915 3f01 	ldrsb.w	r3, [r5, #1]!
    18d2:	f1b3 3fff 	cmp.w	r3, #4294967295	; 0xffffffff
    18d6:	d0f8      	beq.n	18ca <GPIOTE_IRQHandler+0xca>
    18d8:	b2d9      	uxtb	r1, r3
    18da:	f003 003f 	and.w	r0, r3, #63	; 0x3f
    18de:	f3c3 02c2 	ubfx	r2, r3, #3, #3
    18e2:	3210      	adds	r2, #16
    18e4:	446a      	add	r2, sp
    18e6:	f812 2c04 	ldrb.w	r2, [r2, #-4]
    18ea:	f003 0307 	and.w	r3, r3, #7
    18ee:	fa08 f303 	lsl.w	r3, r8, r3
    18f2:	421a      	tst	r2, r3
    18f4:	d0e9      	beq.n	18ca <GPIOTE_IRQHandler+0xca>
    18f6:	0083      	lsls	r3, r0, #2
    18f8:	f103 43a0 	add.w	r3, r3, #1342177280	; 0x50000000
    18fc:	f8d3 2700 	ldr.w	r2, [r3, #1792]	; 0x700
    1900:	f3c2 4201 	ubfx	r2, r2, #16, #2
    1904:	2a02      	cmp	r2, #2
    1906:	bf0c      	ite	eq
    1908:	f04f 0e03 	moveq.w	lr, #3
    190c:	f04f 0e02 	movne.w	lr, #2
    1910:	f8d3 c700 	ldr.w	ip, [r3, #1792]	; 0x700
    1914:	f42c 3c40 	bic.w	ip, ip, #196608	; 0x30000
    1918:	f8c3 c700 	str.w	ip, [r3, #1792]	; 0x700
    191c:	f8d3 c700 	ldr.w	ip, [r3, #1792]	; 0x700
    1920:	ea4c 4c0e 	orr.w	ip, ip, lr, lsl #16
    1924:	f8c3 c700 	str.w	ip, [r3, #1792]	; 0x700
    1928:	fa08 f300 	lsl.w	r3, r8, r0
    192c:	f8c4 3520 	str.w	r3, [r4, #1312]	; 0x520
    1930:	1833      	adds	r3, r6, r0
    1932:	f993 3030 	ldrsb.w	r3, [r3, #48]	; 0x30
    1936:	f856 3023 	ldr.w	r3, [r6, r3, lsl #2]
    193a:	2b00      	cmp	r3, #0
    193c:	d0c5      	beq.n	18ca <GPIOTE_IRQHandler+0xca>
    193e:	0989      	lsrs	r1, r1, #6
    1940:	2903      	cmp	r1, #3
    1942:	d0c1      	beq.n	18c8 <GPIOTE_IRQHandler+0xc8>
    1944:	2a02      	cmp	r2, #2
    1946:	d0bd      	beq.n	18c4 <GPIOTE_IRQHandler+0xc4>
    1948:	2a03      	cmp	r2, #3
    194a:	d1be      	bne.n	18ca <GPIOTE_IRQHandler+0xca>
    194c:	2902      	cmp	r1, #2
    194e:	d1bc      	bne.n	18ca <GPIOTE_IRQHandler+0xca>
    1950:	e7ba      	b.n	18c8 <GPIOTE_IRQHandler+0xc8>
    1952:	f8d4 3520 	ldr.w	r3, [r4, #1312]	; 0x520
    1956:	9303      	str	r3, [sp, #12]
    1958:	f8c4 3520 	str.w	r3, [r4, #1312]	; 0x520
    195c:	2b00      	cmp	r3, #0
    195e:	d1ac      	bne.n	18ba <GPIOTE_IRQHandler+0xba>
    1960:	b004      	add	sp, #16
    1962:	e8bd 81f0 	ldmia.w	sp!, {r4, r5, r6, r7, r8, pc}
    1966:	bf00      	nop
    1968:	40006100 	.word	0x40006100
    196c:	40006000 	.word	0x40006000
    1970:	40006120 	.word	0x40006120
    1974:	20000654 	.word	0x20000654

00001978 <UARTE0_UART0_IRQHandler>:
    1978:	b508      	push	{r3, lr}
    197a:	4b02      	ldr	r3, [pc, #8]	; (1984 <UARTE0_UART0_IRQHandler+0xc>)
    197c:	681b      	ldr	r3, [r3, #0]
    197e:	4798      	blx	r3
    1980:	bd08      	pop	{r3, pc}
    1982:	bf00      	nop
    1984:	200006b0 	.word	0x200006b0

00001988 <nrfx_prs_acquire>:
    1988:	4b0d      	ldr	r3, [pc, #52]	; (19c0 <nrfx_prs_acquire+0x38>)
    198a:	4298      	cmp	r0, r3
    198c:	d110      	bne.n	19b0 <nrfx_prs_acquire+0x28>
    198e:	b510      	push	{r4, lr}
    1990:	460c      	mov	r4, r1
    1992:	2000      	movs	r0, #0
    1994:	f7ff faaa 	bl	eec <app_util_critical_region_enter>
    1998:	4b0a      	ldr	r3, [pc, #40]	; (19c4 <nrfx_prs_acquire+0x3c>)
    199a:	791b      	ldrb	r3, [r3, #4]
    199c:	b953      	cbnz	r3, 19b4 <nrfx_prs_acquire+0x2c>
    199e:	4b09      	ldr	r3, [pc, #36]	; (19c4 <nrfx_prs_acquire+0x3c>)
    19a0:	601c      	str	r4, [r3, #0]
    19a2:	2201      	movs	r2, #1
    19a4:	711a      	strb	r2, [r3, #4]
    19a6:	2000      	movs	r0, #0
    19a8:	f7ff faa4 	bl	ef4 <app_util_critical_region_exit>
    19ac:	2000      	movs	r0, #0
    19ae:	bd10      	pop	{r4, pc}
    19b0:	2000      	movs	r0, #0
    19b2:	4770      	bx	lr
    19b4:	2000      	movs	r0, #0
    19b6:	f7ff fa9d 	bl	ef4 <app_util_critical_region_exit>
    19ba:	2011      	movs	r0, #17
    19bc:	e7f7      	b.n	19ae <nrfx_prs_acquire+0x26>
    19be:	bf00      	nop
    19c0:	40002000 	.word	0x40002000
    19c4:	200006b0 	.word	0x200006b0

000019c8 <nrfx_prs_release>:
    19c8:	4b03      	ldr	r3, [pc, #12]	; (19d8 <nrfx_prs_release+0x10>)
    19ca:	4298      	cmp	r0, r3
    19cc:	d103      	bne.n	19d6 <nrfx_prs_release+0xe>
    19ce:	4b03      	ldr	r3, [pc, #12]	; (19dc <nrfx_prs_release+0x14>)
    19d0:	2200      	movs	r2, #0
    19d2:	601a      	str	r2, [r3, #0]
    19d4:	711a      	strb	r2, [r3, #4]
    19d6:	4770      	bx	lr
    19d8:	40002000 	.word	0x40002000
    19dc:	200006b0 	.word	0x200006b0

000019e0 <SPIM0_SPIS0_TWIM0_TWIS0_SPI0_TWI0_IRQHandler>:
    19e0:	4b18      	ldr	r3, [pc, #96]	; (1a44 <SPIM0_SPIS0_TWIM0_TWIS0_SPI0_TWI0_IRQHandler+0x64>)
    19e2:	f8d3 3118 	ldr.w	r3, [r3, #280]	; 0x118
    19e6:	b903      	cbnz	r3, 19ea <SPIM0_SPIS0_TWIM0_TWIS0_SPI0_TWI0_IRQHandler+0xa>
    19e8:	4770      	bx	lr
    19ea:	b500      	push	{lr}
    19ec:	b083      	sub	sp, #12
    19ee:	4b15      	ldr	r3, [pc, #84]	; (1a44 <SPIM0_SPIS0_TWIM0_TWIS0_SPI0_TWI0_IRQHandler+0x64>)
    19f0:	2200      	movs	r2, #0
    19f2:	f8c3 2118 	str.w	r2, [r3, #280]	; 0x118
    19f6:	f8d3 3118 	ldr.w	r3, [r3, #280]	; 0x118
    19fa:	9301      	str	r3, [sp, #4]
    19fc:	9b01      	ldr	r3, [sp, #4]
    19fe:	4b12      	ldr	r3, [pc, #72]	; (1a48 <SPIM0_SPIS0_TWIM0_TWIS0_SPI0_TWI0_IRQHandler+0x68>)
    1a00:	7fdb      	ldrb	r3, [r3, #31]
    1a02:	2bff      	cmp	r3, #255	; 0xff
    1a04:	d009      	beq.n	1a1a <SPIM0_SPIS0_TWIM0_TWIS0_SPI0_TWI0_IRQHandler+0x3a>
    1a06:	4a10      	ldr	r2, [pc, #64]	; (1a48 <SPIM0_SPIS0_TWIM0_TWIS0_SPI0_TWI0_IRQHandler+0x68>)
    1a08:	7f92      	ldrb	r2, [r2, #30]
    1a0a:	b192      	cbz	r2, 1a32 <SPIM0_SPIS0_TWIM0_TWIS0_SPI0_TWI0_IRQHandler+0x52>
    1a0c:	2201      	movs	r2, #1
    1a0e:	fa02 f303 	lsl.w	r3, r2, r3
    1a12:	f04f 42a0 	mov.w	r2, #1342177280	; 0x50000000
    1a16:	f8c2 350c 	str.w	r3, [r2, #1292]	; 0x50c
    1a1a:	4b0b      	ldr	r3, [pc, #44]	; (1a48 <SPIM0_SPIS0_TWIM0_TWIS0_SPI0_TWI0_IRQHandler+0x68>)
    1a1c:	2200      	movs	r2, #0
    1a1e:	775a      	strb	r2, [r3, #29]
    1a20:	721a      	strb	r2, [r3, #8]
    1a22:	4618      	mov	r0, r3
    1a24:	f850 2b08 	ldr.w	r2, [r0], #8
    1a28:	6859      	ldr	r1, [r3, #4]
    1a2a:	4790      	blx	r2
    1a2c:	b003      	add	sp, #12
    1a2e:	f85d fb04 	ldr.w	pc, [sp], #4
    1a32:	2201      	movs	r2, #1
    1a34:	fa02 f303 	lsl.w	r3, r2, r3
    1a38:	f04f 42a0 	mov.w	r2, #1342177280	; 0x50000000
    1a3c:	f8c2 3508 	str.w	r3, [r2, #1288]	; 0x508
    1a40:	e7eb      	b.n	1a1a <SPIM0_SPIS0_TWIM0_TWIS0_SPI0_TWI0_IRQHandler+0x3a>
    1a42:	bf00      	nop
    1a44:	40003000 	.word	0x40003000
    1a48:	200006b8 	.word	0x200006b8

00001a4c <nrfx_spim_init>:
    1a4c:	e92d 43f8 	stmdb	sp!, {r3, r4, r5, r6, r7, r8, r9, lr}
    1a50:	4690      	mov	r8, r2
    1a52:	4699      	mov	r9, r3
    1a54:	7905      	ldrb	r5, [r0, #4]
    1a56:	eb05 03c5 	add.w	r3, r5, r5, lsl #3
    1a5a:	4a6f      	ldr	r2, [pc, #444]	; (1c18 <nrfx_spim_init+0x1cc>)
    1a5c:	eb02 0283 	add.w	r2, r2, r3, lsl #2
    1a60:	7f13      	ldrb	r3, [r2, #28]
    1a62:	2b00      	cmp	r3, #0
    1a64:	f040 80d4 	bne.w	1c10 <nrfx_spim_init+0x1c4>
    1a68:	4606      	mov	r6, r0
    1a6a:	460c      	mov	r4, r1
    1a6c:	6807      	ldr	r7, [r0, #0]
    1a6e:	496b      	ldr	r1, [pc, #428]	; (1c1c <nrfx_spim_init+0x1d0>)
    1a70:	4638      	mov	r0, r7
    1a72:	f7ff ff89 	bl	1988 <nrfx_prs_acquire>
    1a76:	2800      	cmp	r0, #0
    1a78:	f040 80cc 	bne.w	1c14 <nrfx_spim_init+0x1c8>
    1a7c:	4b66      	ldr	r3, [pc, #408]	; (1c18 <nrfx_spim_init+0x1cc>)
    1a7e:	eb05 02c5 	add.w	r2, r5, r5, lsl #3
    1a82:	eb03 0182 	add.w	r1, r3, r2, lsl #2
    1a86:	f843 8022 	str.w	r8, [r3, r2, lsl #2]
    1a8a:	f8c1 9004 	str.w	r9, [r1, #4]
    1a8e:	7b23      	ldrb	r3, [r4, #12]
    1a90:	2b01      	cmp	r3, #1
    1a92:	7822      	ldrb	r2, [r4, #0]
    1a94:	f04f 0301 	mov.w	r3, #1
    1a98:	fa03 f302 	lsl.w	r3, r3, r2
    1a9c:	f04f 42a0 	mov.w	r2, #1342177280	; 0x50000000
    1aa0:	bf94      	ite	ls
    1aa2:	f8c2 350c 	strls.w	r3, [r2, #1292]	; 0x50c
    1aa6:	f8c2 3508 	strhi.w	r3, [r2, #1288]	; 0x508
    1aaa:	7823      	ldrb	r3, [r4, #0]
    1aac:	f503 73e0 	add.w	r3, r3, #448	; 0x1c0
    1ab0:	f04f 42a0 	mov.w	r2, #1342177280	; 0x50000000
    1ab4:	2101      	movs	r1, #1
    1ab6:	f842 1023 	str.w	r1, [r2, r3, lsl #2]
    1aba:	7863      	ldrb	r3, [r4, #1]
    1abc:	2bff      	cmp	r3, #255	; 0xff
    1abe:	f000 808a 	beq.w	1bd6 <nrfx_spim_init+0x18a>
    1ac2:	4619      	mov	r1, r3
    1ac4:	2201      	movs	r2, #1
    1ac6:	409a      	lsls	r2, r3
    1ac8:	f04f 4ca0 	mov.w	ip, #1342177280	; 0x50000000
    1acc:	f8cc 250c 	str.w	r2, [ip, #1292]	; 0x50c
    1ad0:	f503 73e0 	add.w	r3, r3, #448	; 0x1c0
    1ad4:	2203      	movs	r2, #3
    1ad6:	f84c 2023 	str.w	r2, [ip, r3, lsl #2]
    1ada:	78a3      	ldrb	r3, [r4, #2]
    1adc:	2bff      	cmp	r3, #255	; 0xff
    1ade:	d07d      	beq.n	1bdc <nrfx_spim_init+0x190>
    1ae0:	469c      	mov	ip, r3
    1ae2:	f503 73e0 	add.w	r3, r3, #448	; 0x1c0
    1ae6:	f04f 42a0 	mov.w	r2, #1342177280	; 0x50000000
    1aea:	f04f 0e04 	mov.w	lr, #4
    1aee:	f842 e023 	str.w	lr, [r2, r3, lsl #2]
    1af2:	f894 e002 	ldrb.w	lr, [r4, #2]
    1af6:	eb05 02c5 	add.w	r2, r5, r5, lsl #3
    1afa:	4b47      	ldr	r3, [pc, #284]	; (1c18 <nrfx_spim_init+0x1cc>)
    1afc:	eb03 0382 	add.w	r3, r3, r2, lsl #2
    1b00:	f883 e020 	strb.w	lr, [r3, #32]
    1b04:	78e2      	ldrb	r2, [r4, #3]
    1b06:	77da      	strb	r2, [r3, #31]
    1b08:	2aff      	cmp	r2, #255	; 0xff
    1b0a:	d01a      	beq.n	1b42 <nrfx_spim_init+0xf6>
    1b0c:	7923      	ldrb	r3, [r4, #4]
    1b0e:	2b00      	cmp	r3, #0
    1b10:	d067      	beq.n	1be2 <nrfx_spim_init+0x196>
    1b12:	2301      	movs	r3, #1
    1b14:	4093      	lsls	r3, r2
    1b16:	f04f 42a0 	mov.w	r2, #1342177280	; 0x50000000
    1b1a:	f8c2 350c 	str.w	r3, [r2, #1292]	; 0x50c
    1b1e:	78e3      	ldrb	r3, [r4, #3]
    1b20:	f503 73e0 	add.w	r3, r3, #448	; 0x1c0
    1b24:	f04f 42a0 	mov.w	r2, #1342177280	; 0x50000000
    1b28:	f04f 0e03 	mov.w	lr, #3
    1b2c:	f842 e023 	str.w	lr, [r2, r3, lsl #2]
    1b30:	f894 e004 	ldrb.w	lr, [r4, #4]
    1b34:	eb05 02c5 	add.w	r2, r5, r5, lsl #3
    1b38:	4b37      	ldr	r3, [pc, #220]	; (1c18 <nrfx_spim_init+0x1cc>)
    1b3a:	eb03 0382 	add.w	r3, r3, r2, lsl #2
    1b3e:	f883 e01e 	strb.w	lr, [r3, #30]
    1b42:	7823      	ldrb	r3, [r4, #0]
    1b44:	f8c7 3508 	str.w	r3, [r7, #1288]	; 0x508
    1b48:	f8c7 150c 	str.w	r1, [r7, #1292]	; 0x50c
    1b4c:	f8c7 c510 	str.w	ip, [r7, #1296]	; 0x510
    1b50:	68a3      	ldr	r3, [r4, #8]
    1b52:	f8c7 3524 	str.w	r3, [r7, #1316]	; 0x524
    1b56:	7b22      	ldrb	r2, [r4, #12]
    1b58:	7b63      	ldrb	r3, [r4, #13]
    1b5a:	3b00      	subs	r3, #0
    1b5c:	bf18      	it	ne
    1b5e:	2301      	movne	r3, #1
    1b60:	2a02      	cmp	r2, #2
    1b62:	d048      	beq.n	1bf6 <nrfx_spim_init+0x1aa>
    1b64:	2a03      	cmp	r2, #3
    1b66:	d049      	beq.n	1bfc <nrfx_spim_init+0x1b0>
    1b68:	2a01      	cmp	r2, #1
    1b6a:	d041      	beq.n	1bf0 <nrfx_spim_init+0x1a4>
    1b6c:	f8c7 3554 	str.w	r3, [r7, #1364]	; 0x554
    1b70:	79a3      	ldrb	r3, [r4, #6]
    1b72:	f8c7 35c0 	str.w	r3, [r7, #1472]	; 0x5c0
    1b76:	2307      	movs	r3, #7
    1b78:	f8c7 3500 	str.w	r3, [r7, #1280]	; 0x500
    1b7c:	f1b8 0f00 	cmp.w	r8, #0
    1b80:	d01d      	beq.n	1bbe <nrfx_spim_init+0x172>
    1b82:	6833      	ldr	r3, [r6, #0]
    1b84:	0b19      	lsrs	r1, r3, #12
    1b86:	f343 3307 	sbfx	r3, r3, #12, #8
    1b8a:	7962      	ldrb	r2, [r4, #5]
    1b8c:	2b00      	cmp	r3, #0
    1b8e:	db38      	blt.n	1c02 <nrfx_spim_init+0x1b6>
    1b90:	0152      	lsls	r2, r2, #5
    1b92:	b2d2      	uxtb	r2, r2
    1b94:	f103 4360 	add.w	r3, r3, #3758096384	; 0xe0000000
    1b98:	f503 4361 	add.w	r3, r3, #57600	; 0xe100
    1b9c:	f883 2300 	strb.w	r2, [r3, #768]	; 0x300
    1ba0:	6833      	ldr	r3, [r6, #0]
    1ba2:	0b1a      	lsrs	r2, r3, #12
    1ba4:	f343 3307 	sbfx	r3, r3, #12, #8
    1ba8:	2b00      	cmp	r3, #0
    1baa:	db08      	blt.n	1bbe <nrfx_spim_init+0x172>
    1bac:	095b      	lsrs	r3, r3, #5
    1bae:	f002 021f 	and.w	r2, r2, #31
    1bb2:	2101      	movs	r1, #1
    1bb4:	fa01 f202 	lsl.w	r2, r1, r2
    1bb8:	4919      	ldr	r1, [pc, #100]	; (1c20 <nrfx_spim_init+0x1d4>)
    1bba:	f841 2023 	str.w	r2, [r1, r3, lsl #2]
    1bbe:	4b16      	ldr	r3, [pc, #88]	; (1c18 <nrfx_spim_init+0x1cc>)
    1bc0:	eb05 02c5 	add.w	r2, r5, r5, lsl #3
    1bc4:	eb03 0282 	add.w	r2, r3, r2, lsl #2
    1bc8:	2100      	movs	r1, #0
    1bca:	7751      	strb	r1, [r2, #29]
    1bcc:	4613      	mov	r3, r2
    1bce:	2201      	movs	r2, #1
    1bd0:	771a      	strb	r2, [r3, #28]
    1bd2:	e8bd 83f8 	ldmia.w	sp!, {r3, r4, r5, r6, r7, r8, r9, pc}
    1bd6:	f04f 31ff 	mov.w	r1, #4294967295	; 0xffffffff
    1bda:	e77e      	b.n	1ada <nrfx_spim_init+0x8e>
    1bdc:	f04f 3cff 	mov.w	ip, #4294967295	; 0xffffffff
    1be0:	e787      	b.n	1af2 <nrfx_spim_init+0xa6>
    1be2:	2301      	movs	r3, #1
    1be4:	4093      	lsls	r3, r2
    1be6:	f04f 42a0 	mov.w	r2, #1342177280	; 0x50000000
    1bea:	f8c2 3508 	str.w	r3, [r2, #1288]	; 0x508
    1bee:	e796      	b.n	1b1e <nrfx_spim_init+0xd2>
    1bf0:	f043 0302 	orr.w	r3, r3, #2
    1bf4:	e7ba      	b.n	1b6c <nrfx_spim_init+0x120>
    1bf6:	f043 0304 	orr.w	r3, r3, #4
    1bfa:	e7b7      	b.n	1b6c <nrfx_spim_init+0x120>
    1bfc:	f043 0306 	orr.w	r3, r3, #6
    1c00:	e7b4      	b.n	1b6c <nrfx_spim_init+0x120>
    1c02:	f001 010f 	and.w	r1, r1, #15
    1c06:	0152      	lsls	r2, r2, #5
    1c08:	b2d2      	uxtb	r2, r2
    1c0a:	4b06      	ldr	r3, [pc, #24]	; (1c24 <nrfx_spim_init+0x1d8>)
    1c0c:	545a      	strb	r2, [r3, r1]
    1c0e:	e7c7      	b.n	1ba0 <nrfx_spim_init+0x154>
    1c10:	2008      	movs	r0, #8
    1c12:	e7de      	b.n	1bd2 <nrfx_spim_init+0x186>
    1c14:	2011      	movs	r0, #17
    1c16:	e7dc      	b.n	1bd2 <nrfx_spim_init+0x186>
    1c18:	200006b8 	.word	0x200006b8
    1c1c:	000019e1 	.word	0x000019e1
    1c20:	e000e100 	.word	0xe000e100
    1c24:	e000ed14 	.word	0xe000ed14

00001c28 <nrfx_spim_xfer>:
    1c28:	b5f0      	push	{r4, r5, r6, r7, lr}
    1c2a:	b083      	sub	sp, #12
    1c2c:	4614      	mov	r4, r2
    1c2e:	f890 c004 	ldrb.w	ip, [r0, #4]
    1c32:	eb0c 02cc 	add.w	r2, ip, ip, lsl #3
    1c36:	4b5a      	ldr	r3, [pc, #360]	; (1da0 <nrfx_spim_xfer+0x178>)
    1c38:	eb03 0382 	add.w	r3, r3, r2, lsl #2
    1c3c:	7f5b      	ldrb	r3, [r3, #29]
    1c3e:	2b00      	cmp	r3, #0
    1c40:	f040 80aa 	bne.w	1d98 <nrfx_spim_xfer+0x170>
    1c44:	4605      	mov	r5, r0
    1c46:	468e      	mov	lr, r1
    1c48:	4613      	mov	r3, r2
    1c4a:	4a55      	ldr	r2, [pc, #340]	; (1da0 <nrfx_spim_xfer+0x178>)
    1c4c:	f852 3023 	ldr.w	r3, [r2, r3, lsl #2]
    1c50:	b14b      	cbz	r3, 1c66 <nrfx_spim_xfer+0x3e>
    1c52:	f014 0f14 	tst.w	r4, #20
    1c56:	d106      	bne.n	1c66 <nrfx_spim_xfer+0x3e>
    1c58:	eb0c 02cc 	add.w	r2, ip, ip, lsl #3
    1c5c:	4b50      	ldr	r3, [pc, #320]	; (1da0 <nrfx_spim_xfer+0x178>)
    1c5e:	eb03 0382 	add.w	r3, r3, r2, lsl #2
    1c62:	2201      	movs	r2, #1
    1c64:	775a      	strb	r2, [r3, #29]
    1c66:	eb0c 03cc 	add.w	r3, ip, ip, lsl #3
    1c6a:	4e4d      	ldr	r6, [pc, #308]	; (1da0 <nrfx_spim_xfer+0x178>)
    1c6c:	eb06 0683 	add.w	r6, r6, r3, lsl #2
    1c70:	f106 070c 	add.w	r7, r6, #12
    1c74:	e89e 000f 	ldmia.w	lr, {r0, r1, r2, r3}
    1c78:	e887 000f 	stmia.w	r7, {r0, r1, r2, r3}
    1c7c:	7ff3      	ldrb	r3, [r6, #31]
    1c7e:	2bff      	cmp	r3, #255	; 0xff
    1c80:	d009      	beq.n	1c96 <nrfx_spim_xfer+0x6e>
    1c82:	7fb2      	ldrb	r2, [r6, #30]
    1c84:	2a00      	cmp	r2, #0
    1c86:	d050      	beq.n	1d2a <nrfx_spim_xfer+0x102>
    1c88:	2201      	movs	r2, #1
    1c8a:	fa02 f303 	lsl.w	r3, r2, r3
    1c8e:	f04f 42a0 	mov.w	r2, #1342177280	; 0x50000000
    1c92:	f8c2 3508 	str.w	r3, [r2, #1288]	; 0x508
    1c96:	682b      	ldr	r3, [r5, #0]
    1c98:	f8de 2000 	ldr.w	r2, [lr]
    1c9c:	b122      	cbz	r2, 1ca8 <nrfx_spim_xfer+0x80>
    1c9e:	f002 4160 	and.w	r1, r2, #3758096384	; 0xe0000000
    1ca2:	f1b1 5f00 	cmp.w	r1, #536870912	; 0x20000000
    1ca6:	d148      	bne.n	1d3a <nrfx_spim_xfer+0x112>
    1ca8:	f8de 1008 	ldr.w	r1, [lr, #8]
    1cac:	b121      	cbz	r1, 1cb8 <nrfx_spim_xfer+0x90>
    1cae:	f001 4160 	and.w	r1, r1, #3758096384	; 0xe0000000
    1cb2:	f1b1 5f00 	cmp.w	r1, #536870912	; 0x20000000
    1cb6:	d140      	bne.n	1d3a <nrfx_spim_xfer+0x112>
    1cb8:	f8de 1004 	ldr.w	r1, [lr, #4]
    1cbc:	f8c3 2544 	str.w	r2, [r3, #1348]	; 0x544
    1cc0:	f8c3 1548 	str.w	r1, [r3, #1352]	; 0x548
    1cc4:	f8de 200c 	ldr.w	r2, [lr, #12]
    1cc8:	f8de 1008 	ldr.w	r1, [lr, #8]
    1ccc:	f8c3 1534 	str.w	r1, [r3, #1332]	; 0x534
    1cd0:	f8c3 2538 	str.w	r2, [r3, #1336]	; 0x538
    1cd4:	2200      	movs	r2, #0
    1cd6:	f8c3 2118 	str.w	r2, [r3, #280]	; 0x118
    1cda:	f8d3 2118 	ldr.w	r2, [r3, #280]	; 0x118
    1cde:	9201      	str	r2, [sp, #4]
    1ce0:	9a01      	ldr	r2, [sp, #4]
    1ce2:	f014 0f01 	tst.w	r4, #1
    1ce6:	bf14      	ite	ne
    1ce8:	2201      	movne	r2, #1
    1cea:	2200      	moveq	r2, #0
    1cec:	f8c3 2550 	str.w	r2, [r3, #1360]	; 0x550
    1cf0:	f014 0f02 	tst.w	r4, #2
    1cf4:	bf14      	ite	ne
    1cf6:	2201      	movne	r2, #1
    1cf8:	2200      	moveq	r2, #0
    1cfa:	f8c3 2540 	str.w	r2, [r3, #1344]	; 0x540
    1cfe:	f014 0f08 	tst.w	r4, #8
    1d02:	bf04      	itt	eq
    1d04:	2201      	moveq	r2, #1
    1d06:	611a      	streq	r2, [r3, #16]
    1d08:	eb0c 02cc 	add.w	r2, ip, ip, lsl #3
    1d0c:	4924      	ldr	r1, [pc, #144]	; (1da0 <nrfx_spim_xfer+0x178>)
    1d0e:	f851 2022 	ldr.w	r2, [r1, r2, lsl #2]
    1d12:	b1ea      	cbz	r2, 1d50 <nrfx_spim_xfer+0x128>
    1d14:	f014 0004 	ands.w	r0, r4, #4
    1d18:	f04f 0240 	mov.w	r2, #64	; 0x40
    1d1c:	bf1a      	itte	ne
    1d1e:	f8c3 2308 	strne.w	r2, [r3, #776]	; 0x308
    1d22:	2000      	movne	r0, #0
    1d24:	f8c3 2304 	streq.w	r2, [r3, #772]	; 0x304
    1d28:	e010      	b.n	1d4c <nrfx_spim_xfer+0x124>
    1d2a:	2201      	movs	r2, #1
    1d2c:	fa02 f303 	lsl.w	r3, r2, r3
    1d30:	f04f 42a0 	mov.w	r2, #1342177280	; 0x50000000
    1d34:	f8c2 350c 	str.w	r3, [r2, #1292]	; 0x50c
    1d38:	e7ad      	b.n	1c96 <nrfx_spim_xfer+0x6e>
    1d3a:	eb0c 0ccc 	add.w	ip, ip, ip, lsl #3
    1d3e:	4b18      	ldr	r3, [pc, #96]	; (1da0 <nrfx_spim_xfer+0x178>)
    1d40:	eb03 0c8c 	add.w	ip, r3, ip, lsl #2
    1d44:	2300      	movs	r3, #0
    1d46:	f88c 301d 	strb.w	r3, [ip, #29]
    1d4a:	2010      	movs	r0, #16
    1d4c:	b003      	add	sp, #12
    1d4e:	bdf0      	pop	{r4, r5, r6, r7, pc}
    1d50:	f8d3 2118 	ldr.w	r2, [r3, #280]	; 0x118
    1d54:	2a00      	cmp	r2, #0
    1d56:	d0fb      	beq.n	1d50 <nrfx_spim_xfer+0x128>
    1d58:	eb0c 02cc 	add.w	r2, ip, ip, lsl #3
    1d5c:	4b10      	ldr	r3, [pc, #64]	; (1da0 <nrfx_spim_xfer+0x178>)
    1d5e:	eb03 0382 	add.w	r3, r3, r2, lsl #2
    1d62:	7fdb      	ldrb	r3, [r3, #31]
    1d64:	2bff      	cmp	r3, #255	; 0xff
    1d66:	d019      	beq.n	1d9c <nrfx_spim_xfer+0x174>
    1d68:	4694      	mov	ip, r2
    1d6a:	4a0d      	ldr	r2, [pc, #52]	; (1da0 <nrfx_spim_xfer+0x178>)
    1d6c:	eb02 028c 	add.w	r2, r2, ip, lsl #2
    1d70:	7f92      	ldrb	r2, [r2, #30]
    1d72:	b142      	cbz	r2, 1d86 <nrfx_spim_xfer+0x15e>
    1d74:	2201      	movs	r2, #1
    1d76:	fa02 f303 	lsl.w	r3, r2, r3
    1d7a:	f04f 42a0 	mov.w	r2, #1342177280	; 0x50000000
    1d7e:	f8c2 350c 	str.w	r3, [r2, #1292]	; 0x50c
    1d82:	2000      	movs	r0, #0
    1d84:	e7e2      	b.n	1d4c <nrfx_spim_xfer+0x124>
    1d86:	2201      	movs	r2, #1
    1d88:	fa02 f303 	lsl.w	r3, r2, r3
    1d8c:	f04f 42a0 	mov.w	r2, #1342177280	; 0x50000000
    1d90:	f8c2 3508 	str.w	r3, [r2, #1288]	; 0x508
    1d94:	2000      	movs	r0, #0
    1d96:	e7d9      	b.n	1d4c <nrfx_spim_xfer+0x124>
    1d98:	2011      	movs	r0, #17
    1d9a:	e7d7      	b.n	1d4c <nrfx_spim_xfer+0x124>
    1d9c:	2000      	movs	r0, #0
    1d9e:	e7d5      	b.n	1d4c <nrfx_spim_xfer+0x124>
    1da0:	200006b8 	.word	0x200006b8

00001da4 <tx_byte>:
    1da4:	b082      	sub	sp, #8
    1da6:	2300      	movs	r3, #0
    1da8:	f8c0 311c 	str.w	r3, [r0, #284]	; 0x11c
    1dac:	f8d0 311c 	ldr.w	r3, [r0, #284]	; 0x11c
    1db0:	9301      	str	r3, [sp, #4]
    1db2:	9b01      	ldr	r3, [sp, #4]
    1db4:	6a0b      	ldr	r3, [r1, #32]
    1db6:	688a      	ldr	r2, [r1, #8]
    1db8:	5cd2      	ldrb	r2, [r2, r3]
    1dba:	6a0b      	ldr	r3, [r1, #32]
    1dbc:	3301      	adds	r3, #1
    1dbe:	620b      	str	r3, [r1, #32]
    1dc0:	f8c0 251c 	str.w	r2, [r0, #1308]	; 0x51c
    1dc4:	b002      	add	sp, #8
    1dc6:	4770      	bx	lr

00001dc8 <rx_byte>:
    1dc8:	b082      	sub	sp, #8
    1dca:	698b      	ldr	r3, [r1, #24]
    1dcc:	b183      	cbz	r3, 1df0 <rx_byte+0x28>
    1dce:	2300      	movs	r3, #0
    1dd0:	f8c0 3108 	str.w	r3, [r0, #264]	; 0x108
    1dd4:	f8d0 3108 	ldr.w	r3, [r0, #264]	; 0x108
    1dd8:	9301      	str	r3, [sp, #4]
    1dda:	9b01      	ldr	r3, [sp, #4]
    1ddc:	6a4b      	ldr	r3, [r1, #36]	; 0x24
    1dde:	f8d0 0518 	ldr.w	r0, [r0, #1304]	; 0x518
    1de2:	68ca      	ldr	r2, [r1, #12]
    1de4:	54d0      	strb	r0, [r2, r3]
    1de6:	6a4b      	ldr	r3, [r1, #36]	; 0x24
    1de8:	3301      	adds	r3, #1
    1dea:	624b      	str	r3, [r1, #36]	; 0x24
    1dec:	b002      	add	sp, #8
    1dee:	4770      	bx	lr
    1df0:	f8c0 3108 	str.w	r3, [r0, #264]	; 0x108
    1df4:	f8d0 3108 	ldr.w	r3, [r0, #264]	; 0x108
    1df8:	9300      	str	r3, [sp, #0]
    1dfa:	9b00      	ldr	r3, [sp, #0]
    1dfc:	f8d0 3518 	ldr.w	r3, [r0, #1304]	; 0x518
    1e00:	e7f4      	b.n	1dec <rx_byte+0x24>

00001e02 <rx_done_event>:
    1e02:	b500      	push	{lr}
    1e04:	b085      	sub	sp, #20
    1e06:	2301      	movs	r3, #1
    1e08:	f88d 3000 	strb.w	r3, [sp]
    1e0c:	9102      	str	r1, [sp, #8]
    1e0e:	9201      	str	r2, [sp, #4]
    1e10:	6843      	ldr	r3, [r0, #4]
    1e12:	6801      	ldr	r1, [r0, #0]
    1e14:	4668      	mov	r0, sp
    1e16:	4798      	blx	r3
    1e18:	b005      	add	sp, #20
    1e1a:	f85d fb04 	ldr.w	pc, [sp], #4
	...

00001e20 <nrfx_uart_0_irq_handler>:
    1e20:	b510      	push	{r4, lr}
    1e22:	b086      	sub	sp, #24
    1e24:	4b5a      	ldr	r3, [pc, #360]	; (1f90 <nrfx_uart_0_irq_handler+0x170>)
    1e26:	f8d3 3304 	ldr.w	r3, [r3, #772]	; 0x304
    1e2a:	f413 7f00 	tst.w	r3, #512	; 0x200
    1e2e:	d02c      	beq.n	1e8a <nrfx_uart_0_irq_handler+0x6a>
    1e30:	4b57      	ldr	r3, [pc, #348]	; (1f90 <nrfx_uart_0_irq_handler+0x170>)
    1e32:	f8d3 3124 	ldr.w	r3, [r3, #292]	; 0x124
    1e36:	b343      	cbz	r3, 1e8a <nrfx_uart_0_irq_handler+0x6a>
    1e38:	4b55      	ldr	r3, [pc, #340]	; (1f90 <nrfx_uart_0_irq_handler+0x170>)
    1e3a:	2200      	movs	r2, #0
    1e3c:	f8c3 2124 	str.w	r2, [r3, #292]	; 0x124
    1e40:	f8d3 2124 	ldr.w	r2, [r3, #292]	; 0x124
    1e44:	9200      	str	r2, [sp, #0]
    1e46:	9a00      	ldr	r2, [sp, #0]
    1e48:	f44f 7201 	mov.w	r2, #516	; 0x204
    1e4c:	f8c3 2308 	str.w	r2, [r3, #776]	; 0x308
    1e50:	4b50      	ldr	r3, [pc, #320]	; (1f94 <nrfx_uart_0_irq_handler+0x174>)
    1e52:	f893 3029 	ldrb.w	r3, [r3, #41]	; 0x29
    1e56:	b913      	cbnz	r3, 1e5e <nrfx_uart_0_irq_handler+0x3e>
    1e58:	4b4d      	ldr	r3, [pc, #308]	; (1f90 <nrfx_uart_0_irq_handler+0x170>)
    1e5a:	2201      	movs	r2, #1
    1e5c:	605a      	str	r2, [r3, #4]
    1e5e:	2302      	movs	r3, #2
    1e60:	f88d 3008 	strb.w	r3, [sp, #8]
    1e64:	4a4a      	ldr	r2, [pc, #296]	; (1f90 <nrfx_uart_0_irq_handler+0x170>)
    1e66:	f8d2 3480 	ldr.w	r3, [r2, #1152]	; 0x480
    1e6a:	f8c2 3480 	str.w	r3, [r2, #1152]	; 0x480
    1e6e:	9305      	str	r3, [sp, #20]
    1e70:	4b48      	ldr	r3, [pc, #288]	; (1f94 <nrfx_uart_0_irq_handler+0x174>)
    1e72:	699a      	ldr	r2, [r3, #24]
    1e74:	9204      	str	r2, [sp, #16]
    1e76:	68da      	ldr	r2, [r3, #12]
    1e78:	9203      	str	r2, [sp, #12]
    1e7a:	2200      	movs	r2, #0
    1e7c:	619a      	str	r2, [r3, #24]
    1e7e:	61da      	str	r2, [r3, #28]
    1e80:	685a      	ldr	r2, [r3, #4]
    1e82:	6819      	ldr	r1, [r3, #0]
    1e84:	a802      	add	r0, sp, #8
    1e86:	4790      	blx	r2
    1e88:	e00a      	b.n	1ea0 <nrfx_uart_0_irq_handler+0x80>
    1e8a:	4b41      	ldr	r3, [pc, #260]	; (1f90 <nrfx_uart_0_irq_handler+0x170>)
    1e8c:	f8d3 3304 	ldr.w	r3, [r3, #772]	; 0x304
    1e90:	f013 0f04 	tst.w	r3, #4
    1e94:	d004      	beq.n	1ea0 <nrfx_uart_0_irq_handler+0x80>
    1e96:	4b3e      	ldr	r3, [pc, #248]	; (1f90 <nrfx_uart_0_irq_handler+0x170>)
    1e98:	f8d3 3108 	ldr.w	r3, [r3, #264]	; 0x108
    1e9c:	2b00      	cmp	r3, #0
    1e9e:	d132      	bne.n	1f06 <nrfx_uart_0_irq_handler+0xe6>
    1ea0:	4b3b      	ldr	r3, [pc, #236]	; (1f90 <nrfx_uart_0_irq_handler+0x170>)
    1ea2:	f8d3 311c 	ldr.w	r3, [r3, #284]	; 0x11c
    1ea6:	b1ab      	cbz	r3, 1ed4 <nrfx_uart_0_irq_handler+0xb4>
    1ea8:	4b3a      	ldr	r3, [pc, #232]	; (1f94 <nrfx_uart_0_irq_handler+0x174>)
    1eaa:	695a      	ldr	r2, [r3, #20]
    1eac:	6a1b      	ldr	r3, [r3, #32]
    1eae:	429a      	cmp	r2, r3
    1eb0:	d904      	bls.n	1ebc <nrfx_uart_0_irq_handler+0x9c>
    1eb2:	4b38      	ldr	r3, [pc, #224]	; (1f94 <nrfx_uart_0_irq_handler+0x174>)
    1eb4:	f893 3028 	ldrb.w	r3, [r3, #40]	; 0x28
    1eb8:	2b00      	cmp	r3, #0
    1eba:	d04f      	beq.n	1f5c <nrfx_uart_0_irq_handler+0x13c>
    1ebc:	4b34      	ldr	r3, [pc, #208]	; (1f90 <nrfx_uart_0_irq_handler+0x170>)
    1ebe:	2200      	movs	r2, #0
    1ec0:	f8c3 211c 	str.w	r2, [r3, #284]	; 0x11c
    1ec4:	f8d3 311c 	ldr.w	r3, [r3, #284]	; 0x11c
    1ec8:	9301      	str	r3, [sp, #4]
    1eca:	9b01      	ldr	r3, [sp, #4]
    1ecc:	4b31      	ldr	r3, [pc, #196]	; (1f94 <nrfx_uart_0_irq_handler+0x174>)
    1ece:	695b      	ldr	r3, [r3, #20]
    1ed0:	2b00      	cmp	r3, #0
    1ed2:	d148      	bne.n	1f66 <nrfx_uart_0_irq_handler+0x146>
    1ed4:	4b2e      	ldr	r3, [pc, #184]	; (1f90 <nrfx_uart_0_irq_handler+0x170>)
    1ed6:	f8d3 3144 	ldr.w	r3, [r3, #324]	; 0x144
    1eda:	b193      	cbz	r3, 1f02 <nrfx_uart_0_irq_handler+0xe2>
    1edc:	4b2c      	ldr	r3, [pc, #176]	; (1f90 <nrfx_uart_0_irq_handler+0x170>)
    1ede:	2200      	movs	r2, #0
    1ee0:	f8c3 2144 	str.w	r2, [r3, #324]	; 0x144
    1ee4:	f8d3 3144 	ldr.w	r3, [r3, #324]	; 0x144
    1ee8:	9302      	str	r3, [sp, #8]
    1eea:	9b02      	ldr	r3, [sp, #8]
    1eec:	4b29      	ldr	r3, [pc, #164]	; (1f94 <nrfx_uart_0_irq_handler+0x174>)
    1eee:	f893 3029 	ldrb.w	r3, [r3, #41]	; 0x29
    1ef2:	b113      	cbz	r3, 1efa <nrfx_uart_0_irq_handler+0xda>
    1ef4:	4b26      	ldr	r3, [pc, #152]	; (1f90 <nrfx_uart_0_irq_handler+0x170>)
    1ef6:	2201      	movs	r2, #1
    1ef8:	601a      	str	r2, [r3, #0]
    1efa:	4b26      	ldr	r3, [pc, #152]	; (1f94 <nrfx_uart_0_irq_handler+0x174>)
    1efc:	699b      	ldr	r3, [r3, #24]
    1efe:	2b00      	cmp	r3, #0
    1f00:	d13e      	bne.n	1f80 <nrfx_uart_0_irq_handler+0x160>
    1f02:	b006      	add	sp, #24
    1f04:	bd10      	pop	{r4, pc}
    1f06:	4c23      	ldr	r4, [pc, #140]	; (1f94 <nrfx_uart_0_irq_handler+0x174>)
    1f08:	4621      	mov	r1, r4
    1f0a:	4821      	ldr	r0, [pc, #132]	; (1f90 <nrfx_uart_0_irq_handler+0x170>)
    1f0c:	f7ff ff5c 	bl	1dc8 <rx_byte>
    1f10:	6a63      	ldr	r3, [r4, #36]	; 0x24
    1f12:	69a2      	ldr	r2, [r4, #24]
    1f14:	429a      	cmp	r2, r3
    1f16:	d1c3      	bne.n	1ea0 <nrfx_uart_0_irq_handler+0x80>
    1f18:	69e3      	ldr	r3, [r4, #28]
    1f1a:	b99b      	cbnz	r3, 1f44 <nrfx_uart_0_irq_handler+0x124>
    1f1c:	4b1d      	ldr	r3, [pc, #116]	; (1f94 <nrfx_uart_0_irq_handler+0x174>)
    1f1e:	f893 3029 	ldrb.w	r3, [r3, #41]	; 0x29
    1f22:	b913      	cbnz	r3, 1f2a <nrfx_uart_0_irq_handler+0x10a>
    1f24:	4b1a      	ldr	r3, [pc, #104]	; (1f90 <nrfx_uart_0_irq_handler+0x170>)
    1f26:	2201      	movs	r2, #1
    1f28:	605a      	str	r2, [r3, #4]
    1f2a:	4b19      	ldr	r3, [pc, #100]	; (1f90 <nrfx_uart_0_irq_handler+0x170>)
    1f2c:	f44f 7201 	mov.w	r2, #516	; 0x204
    1f30:	f8c3 2308 	str.w	r2, [r3, #776]	; 0x308
    1f34:	4817      	ldr	r0, [pc, #92]	; (1f94 <nrfx_uart_0_irq_handler+0x174>)
    1f36:	2300      	movs	r3, #0
    1f38:	6183      	str	r3, [r0, #24]
    1f3a:	6a41      	ldr	r1, [r0, #36]	; 0x24
    1f3c:	68c2      	ldr	r2, [r0, #12]
    1f3e:	f7ff ff60 	bl	1e02 <rx_done_event>
    1f42:	e7ad      	b.n	1ea0 <nrfx_uart_0_irq_handler+0x80>
    1f44:	4620      	mov	r0, r4
    1f46:	68e2      	ldr	r2, [r4, #12]
    1f48:	6a61      	ldr	r1, [r4, #36]	; 0x24
    1f4a:	61a3      	str	r3, [r4, #24]
    1f4c:	6923      	ldr	r3, [r4, #16]
    1f4e:	60e3      	str	r3, [r4, #12]
    1f50:	2300      	movs	r3, #0
    1f52:	61e3      	str	r3, [r4, #28]
    1f54:	6263      	str	r3, [r4, #36]	; 0x24
    1f56:	f7ff ff54 	bl	1e02 <rx_done_event>
    1f5a:	e7a1      	b.n	1ea0 <nrfx_uart_0_irq_handler+0x80>
    1f5c:	490d      	ldr	r1, [pc, #52]	; (1f94 <nrfx_uart_0_irq_handler+0x174>)
    1f5e:	480c      	ldr	r0, [pc, #48]	; (1f90 <nrfx_uart_0_irq_handler+0x170>)
    1f60:	f7ff ff20 	bl	1da4 <tx_byte>
    1f64:	e7b6      	b.n	1ed4 <nrfx_uart_0_irq_handler+0xb4>
    1f66:	4b0b      	ldr	r3, [pc, #44]	; (1f94 <nrfx_uart_0_irq_handler+0x174>)
    1f68:	6959      	ldr	r1, [r3, #20]
    1f6a:	f88d 2008 	strb.w	r2, [sp, #8]
    1f6e:	9104      	str	r1, [sp, #16]
    1f70:	6899      	ldr	r1, [r3, #8]
    1f72:	9103      	str	r1, [sp, #12]
    1f74:	615a      	str	r2, [r3, #20]
    1f76:	685a      	ldr	r2, [r3, #4]
    1f78:	6819      	ldr	r1, [r3, #0]
    1f7a:	a802      	add	r0, sp, #8
    1f7c:	4790      	blx	r2
    1f7e:	e7a9      	b.n	1ed4 <nrfx_uart_0_irq_handler+0xb4>
    1f80:	4804      	ldr	r0, [pc, #16]	; (1f94 <nrfx_uart_0_irq_handler+0x174>)
    1f82:	2300      	movs	r3, #0
    1f84:	6183      	str	r3, [r0, #24]
    1f86:	6a41      	ldr	r1, [r0, #36]	; 0x24
    1f88:	68c2      	ldr	r2, [r0, #12]
    1f8a:	f7ff ff3a 	bl	1e02 <rx_done_event>
    1f8e:	e7b8      	b.n	1f02 <nrfx_uart_0_irq_handler+0xe2>
    1f90:	40002000 	.word	0x40002000
    1f94:	200006dc 	.word	0x200006dc

00001f98 <nrfx_uart_init>:
    1f98:	b5f0      	push	{r4, r5, r6, r7, lr}
    1f9a:	b083      	sub	sp, #12
    1f9c:	4616      	mov	r6, r2
    1f9e:	7907      	ldrb	r7, [r0, #4]
    1fa0:	4b5e      	ldr	r3, [pc, #376]	; (211c <Heap_Size+0x11c>)
    1fa2:	222c      	movs	r2, #44	; 0x2c
    1fa4:	fb02 3307 	mla	r3, r2, r7, r3
    1fa8:	f893 302a 	ldrb.w	r3, [r3, #42]	; 0x2a
    1fac:	2b00      	cmp	r3, #0
    1fae:	f040 80b1 	bne.w	2114 <Heap_Size+0x114>
    1fb2:	4605      	mov	r5, r0
    1fb4:	460c      	mov	r4, r1
    1fb6:	495a      	ldr	r1, [pc, #360]	; (2120 <Heap_Size+0x120>)
    1fb8:	6800      	ldr	r0, [r0, #0]
    1fba:	f7ff fce5 	bl	1988 <nrfx_prs_acquire>
    1fbe:	2800      	cmp	r0, #0
    1fc0:	f040 80aa 	bne.w	2118 <Heap_Size+0x118>
    1fc4:	6823      	ldr	r3, [r4, #0]
    1fc6:	f1b3 3fff 	cmp.w	r3, #4294967295	; 0xffffffff
    1fca:	d00c      	beq.n	1fe6 <nrfx_uart_init+0x4e>
    1fcc:	2201      	movs	r2, #1
    1fce:	fa02 f303 	lsl.w	r3, r2, r3
    1fd2:	f04f 42a0 	mov.w	r2, #1342177280	; 0x50000000
    1fd6:	f8c2 3508 	str.w	r3, [r2, #1288]	; 0x508
    1fda:	6823      	ldr	r3, [r4, #0]
    1fdc:	f503 73e0 	add.w	r3, r3, #448	; 0x1c0
    1fe0:	2103      	movs	r1, #3
    1fe2:	f842 1023 	str.w	r1, [r2, r3, lsl #2]
    1fe6:	6863      	ldr	r3, [r4, #4]
    1fe8:	f1b3 3fff 	cmp.w	r3, #4294967295	; 0xffffffff
    1fec:	d006      	beq.n	1ffc <nrfx_uart_init+0x64>
    1fee:	f503 73e0 	add.w	r3, r3, #448	; 0x1c0
    1ff2:	f04f 42a0 	mov.w	r2, #1342177280	; 0x50000000
    1ff6:	2100      	movs	r1, #0
    1ff8:	f842 1023 	str.w	r1, [r2, r3, lsl #2]
    1ffc:	682b      	ldr	r3, [r5, #0]
    1ffe:	69a2      	ldr	r2, [r4, #24]
    2000:	f8c3 2524 	str.w	r2, [r3, #1316]	; 0x524
    2004:	682a      	ldr	r2, [r5, #0]
    2006:	7d63      	ldrb	r3, [r4, #21]
    2008:	7d21      	ldrb	r1, [r4, #20]
    200a:	430b      	orrs	r3, r1
    200c:	f8c2 356c 	str.w	r3, [r2, #1388]	; 0x56c
    2010:	682b      	ldr	r3, [r5, #0]
    2012:	6822      	ldr	r2, [r4, #0]
    2014:	6861      	ldr	r1, [r4, #4]
    2016:	f8c3 1514 	str.w	r1, [r3, #1300]	; 0x514
    201a:	f8c3 250c 	str.w	r2, [r3, #1292]	; 0x50c
    201e:	7d23      	ldrb	r3, [r4, #20]
    2020:	2b01      	cmp	r3, #1
    2022:	d04c      	beq.n	20be <Heap_Size+0xbe>
    2024:	4a3d      	ldr	r2, [pc, #244]	; (211c <Heap_Size+0x11c>)
    2026:	232c      	movs	r3, #44	; 0x2c
    2028:	fb07 f303 	mul.w	r3, r7, r3
    202c:	18d1      	adds	r1, r2, r3
    202e:	604e      	str	r6, [r1, #4]
    2030:	6921      	ldr	r1, [r4, #16]
    2032:	50d1      	str	r1, [r2, r3]
    2034:	b386      	cbz	r6, 2098 <Heap_Size+0x98>
    2036:	7f22      	ldrb	r2, [r4, #28]
    2038:	682b      	ldr	r3, [r5, #0]
    203a:	2100      	movs	r1, #0
    203c:	f8c3 111c 	str.w	r1, [r3, #284]	; 0x11c
    2040:	f8d3 311c 	ldr.w	r3, [r3, #284]	; 0x11c
    2044:	9300      	str	r3, [sp, #0]
    2046:	9b00      	ldr	r3, [sp, #0]
    2048:	682b      	ldr	r3, [r5, #0]
    204a:	f8c3 1144 	str.w	r1, [r3, #324]	; 0x144
    204e:	f8d3 3144 	ldr.w	r3, [r3, #324]	; 0x144
    2052:	9301      	str	r3, [sp, #4]
    2054:	9b01      	ldr	r3, [sp, #4]
    2056:	682b      	ldr	r3, [r5, #0]
    2058:	4932      	ldr	r1, [pc, #200]	; (2124 <Heap_Size+0x124>)
    205a:	f8c3 1304 	str.w	r1, [r3, #772]	; 0x304
    205e:	682b      	ldr	r3, [r5, #0]
    2060:	0b19      	lsrs	r1, r3, #12
    2062:	f343 3307 	sbfx	r3, r3, #12, #8
    2066:	2b00      	cmp	r3, #0
    2068:	db4d      	blt.n	2106 <Heap_Size+0x106>
    206a:	0152      	lsls	r2, r2, #5
    206c:	b2d2      	uxtb	r2, r2
    206e:	f103 4360 	add.w	r3, r3, #3758096384	; 0xe0000000
    2072:	f503 4361 	add.w	r3, r3, #57600	; 0xe100
    2076:	f883 2300 	strb.w	r2, [r3, #768]	; 0x300
    207a:	682b      	ldr	r3, [r5, #0]
    207c:	0b1a      	lsrs	r2, r3, #12
    207e:	f343 3307 	sbfx	r3, r3, #12, #8
    2082:	2b00      	cmp	r3, #0
    2084:	db08      	blt.n	2098 <Heap_Size+0x98>
    2086:	095b      	lsrs	r3, r3, #5
    2088:	f002 021f 	and.w	r2, r2, #31
    208c:	2101      	movs	r1, #1
    208e:	fa01 f202 	lsl.w	r2, r1, r2
    2092:	4925      	ldr	r1, [pc, #148]	; (2128 <Heap_Size+0x128>)
    2094:	f841 2023 	str.w	r2, [r1, r3, lsl #2]
    2098:	682b      	ldr	r3, [r5, #0]
    209a:	2204      	movs	r2, #4
    209c:	f8c3 2500 	str.w	r2, [r3, #1280]	; 0x500
    20a0:	4b1e      	ldr	r3, [pc, #120]	; (211c <Heap_Size+0x11c>)
    20a2:	222c      	movs	r2, #44	; 0x2c
    20a4:	fb02 3307 	mla	r3, r2, r7, r3
    20a8:	2200      	movs	r2, #0
    20aa:	619a      	str	r2, [r3, #24]
    20ac:	61da      	str	r2, [r3, #28]
    20ae:	f883 2029 	strb.w	r2, [r3, #41]	; 0x29
    20b2:	615a      	str	r2, [r3, #20]
    20b4:	2201      	movs	r2, #1
    20b6:	f883 202a 	strb.w	r2, [r3, #42]	; 0x2a
    20ba:	b003      	add	sp, #12
    20bc:	bdf0      	pop	{r4, r5, r6, r7, pc}
    20be:	68a3      	ldr	r3, [r4, #8]
    20c0:	f1b3 3fff 	cmp.w	r3, #4294967295	; 0xffffffff
    20c4:	d006      	beq.n	20d4 <Heap_Size+0xd4>
    20c6:	f503 73e0 	add.w	r3, r3, #448	; 0x1c0
    20ca:	f04f 42a0 	mov.w	r2, #1342177280	; 0x50000000
    20ce:	2100      	movs	r1, #0
    20d0:	f842 1023 	str.w	r1, [r2, r3, lsl #2]
    20d4:	68e3      	ldr	r3, [r4, #12]
    20d6:	f1b3 3fff 	cmp.w	r3, #4294967295	; 0xffffffff
    20da:	d00c      	beq.n	20f6 <Heap_Size+0xf6>
    20dc:	2201      	movs	r2, #1
    20de:	fa02 f303 	lsl.w	r3, r2, r3
    20e2:	f04f 42a0 	mov.w	r2, #1342177280	; 0x50000000
    20e6:	f8c2 3508 	str.w	r3, [r2, #1288]	; 0x508
    20ea:	68e3      	ldr	r3, [r4, #12]
    20ec:	f503 73e0 	add.w	r3, r3, #448	; 0x1c0
    20f0:	2103      	movs	r1, #3
    20f2:	f842 1023 	str.w	r1, [r2, r3, lsl #2]
    20f6:	682b      	ldr	r3, [r5, #0]
    20f8:	68e1      	ldr	r1, [r4, #12]
    20fa:	68a2      	ldr	r2, [r4, #8]
    20fc:	f8c3 1508 	str.w	r1, [r3, #1288]	; 0x508
    2100:	f8c3 2510 	str.w	r2, [r3, #1296]	; 0x510
    2104:	e78e      	b.n	2024 <Heap_Size+0x24>
    2106:	f001 010f 	and.w	r1, r1, #15
    210a:	0152      	lsls	r2, r2, #5
    210c:	b2d2      	uxtb	r2, r2
    210e:	4b07      	ldr	r3, [pc, #28]	; (212c <Heap_Size+0x12c>)
    2110:	545a      	strb	r2, [r3, r1]
    2112:	e7b2      	b.n	207a <Heap_Size+0x7a>
    2114:	2008      	movs	r0, #8
    2116:	e7d0      	b.n	20ba <Heap_Size+0xba>
    2118:	2011      	movs	r0, #17
    211a:	e7ce      	b.n	20ba <Heap_Size+0xba>
    211c:	200006dc 	.word	0x200006dc
    2120:	00001e21 	.word	0x00001e21
    2124:	00020080 	.word	0x00020080
    2128:	e000e100 	.word	0xe000e100
    212c:	e000ed14 	.word	0xe000ed14

00002130 <nrfx_uart_uninit>:
    2130:	b5f8      	push	{r3, r4, r5, r6, r7, lr}
    2132:	7904      	ldrb	r4, [r0, #4]
    2134:	6803      	ldr	r3, [r0, #0]
    2136:	2200      	movs	r2, #0
    2138:	f8c3 2500 	str.w	r2, [r3, #1280]	; 0x500
    213c:	4b32      	ldr	r3, [pc, #200]	; (2208 <nrfx_uart_uninit+0xd8>)
    213e:	222c      	movs	r2, #44	; 0x2c
    2140:	fb02 3304 	mla	r3, r2, r4, r3
    2144:	685b      	ldr	r3, [r3, #4]
    2146:	b1bb      	cbz	r3, 2178 <nrfx_uart_uninit+0x48>
    2148:	6803      	ldr	r3, [r0, #0]
    214a:	4a30      	ldr	r2, [pc, #192]	; (220c <nrfx_uart_uninit+0xdc>)
    214c:	f8c3 2308 	str.w	r2, [r3, #776]	; 0x308
    2150:	6803      	ldr	r3, [r0, #0]
    2152:	0b1a      	lsrs	r2, r3, #12
    2154:	f343 3307 	sbfx	r3, r3, #12, #8
    2158:	2b00      	cmp	r3, #0
    215a:	db0d      	blt.n	2178 <nrfx_uart_uninit+0x48>
    215c:	095b      	lsrs	r3, r3, #5
    215e:	f002 021f 	and.w	r2, r2, #31
    2162:	2101      	movs	r1, #1
    2164:	fa01 f202 	lsl.w	r2, r1, r2
    2168:	3320      	adds	r3, #32
    216a:	4929      	ldr	r1, [pc, #164]	; (2210 <nrfx_uart_uninit+0xe0>)
    216c:	f841 2023 	str.w	r2, [r1, r3, lsl #2]
    2170:	f3bf 8f4f 	dsb	sy
    2174:	f3bf 8f6f 	isb	sy
    2178:	6803      	ldr	r3, [r0, #0]
    217a:	f8d3 750c 	ldr.w	r7, [r3, #1292]	; 0x50c
    217e:	f8d3 6514 	ldr.w	r6, [r3, #1300]	; 0x514
    2182:	f8d3 1508 	ldr.w	r1, [r3, #1288]	; 0x508
    2186:	f8d3 5510 	ldr.w	r5, [r3, #1296]	; 0x510
    218a:	f04f 32ff 	mov.w	r2, #4294967295	; 0xffffffff
    218e:	f8c3 2514 	str.w	r2, [r3, #1300]	; 0x514
    2192:	f8c3 250c 	str.w	r2, [r3, #1292]	; 0x50c
    2196:	6803      	ldr	r3, [r0, #0]
    2198:	f8c3 2508 	str.w	r2, [r3, #1288]	; 0x508
    219c:	f8c3 2510 	str.w	r2, [r3, #1296]	; 0x510
    21a0:	4297      	cmp	r7, r2
    21a2:	d006      	beq.n	21b2 <nrfx_uart_uninit+0x82>
    21a4:	f507 77e0 	add.w	r7, r7, #448	; 0x1c0
    21a8:	f04f 43a0 	mov.w	r3, #1342177280	; 0x50000000
    21ac:	2202      	movs	r2, #2
    21ae:	f843 2027 	str.w	r2, [r3, r7, lsl #2]
    21b2:	f1b6 3fff 	cmp.w	r6, #4294967295	; 0xffffffff
    21b6:	d006      	beq.n	21c6 <nrfx_uart_uninit+0x96>
    21b8:	f506 76e0 	add.w	r6, r6, #448	; 0x1c0
    21bc:	f04f 43a0 	mov.w	r3, #1342177280	; 0x50000000
    21c0:	2202      	movs	r2, #2
    21c2:	f843 2026 	str.w	r2, [r3, r6, lsl #2]
    21c6:	f1b5 3fff 	cmp.w	r5, #4294967295	; 0xffffffff
    21ca:	d006      	beq.n	21da <nrfx_uart_uninit+0xaa>
    21cc:	f505 75e0 	add.w	r5, r5, #448	; 0x1c0
    21d0:	f04f 43a0 	mov.w	r3, #1342177280	; 0x50000000
    21d4:	2202      	movs	r2, #2
    21d6:	f843 2025 	str.w	r2, [r3, r5, lsl #2]
    21da:	f1b1 3fff 	cmp.w	r1, #4294967295	; 0xffffffff
    21de:	d006      	beq.n	21ee <nrfx_uart_uninit+0xbe>
    21e0:	f501 71e0 	add.w	r1, r1, #448	; 0x1c0
    21e4:	f04f 43a0 	mov.w	r3, #1342177280	; 0x50000000
    21e8:	2202      	movs	r2, #2
    21ea:	f843 2021 	str.w	r2, [r3, r1, lsl #2]
    21ee:	6800      	ldr	r0, [r0, #0]
    21f0:	f7ff fbea 	bl	19c8 <nrfx_prs_release>
    21f4:	4b04      	ldr	r3, [pc, #16]	; (2208 <nrfx_uart_uninit+0xd8>)
    21f6:	222c      	movs	r2, #44	; 0x2c
    21f8:	fb02 3304 	mla	r3, r2, r4, r3
    21fc:	2200      	movs	r2, #0
    21fe:	f883 202a 	strb.w	r2, [r3, #42]	; 0x2a
    2202:	605a      	str	r2, [r3, #4]
    2204:	bdf8      	pop	{r3, r4, r5, r6, r7, pc}
    2206:	bf00      	nop
    2208:	200006dc 	.word	0x200006dc
    220c:	00020284 	.word	0x00020284
    2210:	e000e100 	.word	0xe000e100

00002214 <nrfx_uart_tx_in_progress>:
    2214:	7902      	ldrb	r2, [r0, #4]
    2216:	4b04      	ldr	r3, [pc, #16]	; (2228 <nrfx_uart_tx_in_progress+0x14>)
    2218:	212c      	movs	r1, #44	; 0x2c
    221a:	fb01 3302 	mla	r3, r1, r2, r3
    221e:	6958      	ldr	r0, [r3, #20]
    2220:	3800      	subs	r0, #0
    2222:	bf18      	it	ne
    2224:	2001      	movne	r0, #1
    2226:	4770      	bx	lr
    2228:	200006dc 	.word	0x200006dc

0000222c <nrfx_uart_tx>:
    222c:	e92d 43f0 	stmdb	sp!, {r4, r5, r6, r7, r8, r9, lr}
    2230:	b083      	sub	sp, #12
    2232:	4604      	mov	r4, r0
    2234:	4688      	mov	r8, r1
    2236:	4616      	mov	r6, r2
    2238:	7907      	ldrb	r7, [r0, #4]
    223a:	f7ff ffeb 	bl	2214 <nrfx_uart_tx_in_progress>
    223e:	2800      	cmp	r0, #0
    2240:	d145      	bne.n	22ce <nrfx_uart_tx+0xa2>
    2242:	4d24      	ldr	r5, [pc, #144]	; (22d4 <nrfx_uart_tx+0xa8>)
    2244:	232c      	movs	r3, #44	; 0x2c
    2246:	fb03 5507 	mla	r5, r3, r7, r5
    224a:	616e      	str	r6, [r5, #20]
    224c:	f8c5 8008 	str.w	r8, [r5, #8]
    2250:	2300      	movs	r3, #0
    2252:	622b      	str	r3, [r5, #32]
    2254:	f885 3028 	strb.w	r3, [r5, #40]	; 0x28
    2258:	6822      	ldr	r2, [r4, #0]
    225a:	f8c2 311c 	str.w	r3, [r2, #284]	; 0x11c
    225e:	f8d2 311c 	ldr.w	r3, [r2, #284]	; 0x11c
    2262:	9301      	str	r3, [sp, #4]
    2264:	9b01      	ldr	r3, [sp, #4]
    2266:	6823      	ldr	r3, [r4, #0]
    2268:	2201      	movs	r2, #1
    226a:	609a      	str	r2, [r3, #8]
    226c:	4629      	mov	r1, r5
    226e:	6820      	ldr	r0, [r4, #0]
    2270:	f7ff fd98 	bl	1da4 <tx_byte>
    2274:	686b      	ldr	r3, [r5, #4]
    2276:	b11b      	cbz	r3, 2280 <nrfx_uart_tx+0x54>
    2278:	2000      	movs	r0, #0
    227a:	b003      	add	sp, #12
    227c:	e8bd 83f0 	ldmia.w	sp!, {r4, r5, r6, r7, r8, r9, pc}
    2280:	f8d4 8000 	ldr.w	r8, [r4]
    2284:	f8d5 9014 	ldr.w	r9, [r5, #20]
    2288:	6a2b      	ldr	r3, [r5, #32]
    228a:	454b      	cmp	r3, r9
    228c:	d216      	bcs.n	22bc <nrfx_uart_tx+0x90>
    228e:	462e      	mov	r6, r5
    2290:	f8d8 311c 	ldr.w	r3, [r8, #284]	; 0x11c
    2294:	b95b      	cbnz	r3, 22ae <nrfx_uart_tx+0x82>
    2296:	f896 3028 	ldrb.w	r3, [r6, #40]	; 0x28
    229a:	2b00      	cmp	r3, #0
    229c:	d0f8      	beq.n	2290 <nrfx_uart_tx+0x64>
    229e:	200f      	movs	r0, #15
    22a0:	4b0c      	ldr	r3, [pc, #48]	; (22d4 <nrfx_uart_tx+0xa8>)
    22a2:	222c      	movs	r2, #44	; 0x2c
    22a4:	fb02 3307 	mla	r3, r2, r7, r3
    22a8:	2200      	movs	r2, #0
    22aa:	615a      	str	r2, [r3, #20]
    22ac:	e7e5      	b.n	227a <nrfx_uart_tx+0x4e>
    22ae:	4629      	mov	r1, r5
    22b0:	4640      	mov	r0, r8
    22b2:	f7ff fd77 	bl	1da4 <tx_byte>
    22b6:	6a33      	ldr	r3, [r6, #32]
    22b8:	4599      	cmp	r9, r3
    22ba:	d8e9      	bhi.n	2290 <nrfx_uart_tx+0x64>
    22bc:	6822      	ldr	r2, [r4, #0]
    22be:	f8d2 311c 	ldr.w	r3, [r2, #284]	; 0x11c
    22c2:	2b00      	cmp	r3, #0
    22c4:	d0fb      	beq.n	22be <nrfx_uart_tx+0x92>
    22c6:	2301      	movs	r3, #1
    22c8:	60d3      	str	r3, [r2, #12]
    22ca:	2000      	movs	r0, #0
    22cc:	e7e8      	b.n	22a0 <nrfx_uart_tx+0x74>
    22ce:	2011      	movs	r0, #17
    22d0:	e7d3      	b.n	227a <nrfx_uart_tx+0x4e>
    22d2:	bf00      	nop
    22d4:	200006dc 	.word	0x200006dc

000022d8 <rx_done_event>:
    22d8:	b500      	push	{lr}
    22da:	b085      	sub	sp, #20
    22dc:	2301      	movs	r3, #1
    22de:	f88d 3000 	strb.w	r3, [sp]
    22e2:	9102      	str	r1, [sp, #8]
    22e4:	9201      	str	r2, [sp, #4]
    22e6:	6843      	ldr	r3, [r0, #4]
    22e8:	6801      	ldr	r1, [r0, #0]
    22ea:	4668      	mov	r0, sp
    22ec:	4798      	blx	r3
    22ee:	b005      	add	sp, #20
    22f0:	f85d fb04 	ldr.w	pc, [sp], #4

000022f4 <nrfx_uarte_0_irq_handler>:
    22f4:	b530      	push	{r4, r5, lr}
    22f6:	b08b      	sub	sp, #44	; 0x2c
    22f8:	4b55      	ldr	r3, [pc, #340]	; (2450 <nrfx_uarte_0_irq_handler+0x15c>)
    22fa:	f8d3 3124 	ldr.w	r3, [r3, #292]	; 0x124
    22fe:	2b00      	cmp	r3, #0
    2300:	d04f      	beq.n	23a2 <nrfx_uarte_0_irq_handler+0xae>
    2302:	4b53      	ldr	r3, [pc, #332]	; (2450 <nrfx_uarte_0_irq_handler+0x15c>)
    2304:	2200      	movs	r2, #0
    2306:	f8c3 2124 	str.w	r2, [r3, #292]	; 0x124
    230a:	f8d3 1124 	ldr.w	r1, [r3, #292]	; 0x124
    230e:	9104      	str	r1, [sp, #16]
    2310:	9904      	ldr	r1, [sp, #16]
    2312:	2102      	movs	r1, #2
    2314:	f88d 1018 	strb.w	r1, [sp, #24]
    2318:	f8d3 1480 	ldr.w	r1, [r3, #1152]	; 0x480
    231c:	f8c3 1480 	str.w	r1, [r3, #1152]	; 0x480
    2320:	9109      	str	r1, [sp, #36]	; 0x24
    2322:	f8d3 353c 	ldr.w	r3, [r3, #1340]	; 0x53c
    2326:	9308      	str	r3, [sp, #32]
    2328:	4b4a      	ldr	r3, [pc, #296]	; (2454 <nrfx_uarte_0_irq_handler+0x160>)
    232a:	68d9      	ldr	r1, [r3, #12]
    232c:	9107      	str	r1, [sp, #28]
    232e:	619a      	str	r2, [r3, #24]
    2330:	61da      	str	r2, [r3, #28]
    2332:	685a      	ldr	r2, [r3, #4]
    2334:	6819      	ldr	r1, [r3, #0]
    2336:	a806      	add	r0, sp, #24
    2338:	4790      	blx	r2
    233a:	4b45      	ldr	r3, [pc, #276]	; (2450 <nrfx_uarte_0_irq_handler+0x15c>)
    233c:	f8d3 3144 	ldr.w	r3, [r3, #324]	; 0x144
    2340:	b15b      	cbz	r3, 235a <nrfx_uarte_0_irq_handler+0x66>
    2342:	4b43      	ldr	r3, [pc, #268]	; (2450 <nrfx_uarte_0_irq_handler+0x15c>)
    2344:	2200      	movs	r2, #0
    2346:	f8c3 2144 	str.w	r2, [r3, #324]	; 0x144
    234a:	f8d3 3144 	ldr.w	r3, [r3, #324]	; 0x144
    234e:	9303      	str	r3, [sp, #12]
    2350:	9b03      	ldr	r3, [sp, #12]
    2352:	4b40      	ldr	r3, [pc, #256]	; (2454 <nrfx_uarte_0_irq_handler+0x160>)
    2354:	699b      	ldr	r3, [r3, #24]
    2356:	2b00      	cmp	r3, #0
    2358:	d151      	bne.n	23fe <nrfx_uarte_0_irq_handler+0x10a>
    235a:	4b3d      	ldr	r3, [pc, #244]	; (2450 <nrfx_uarte_0_irq_handler+0x15c>)
    235c:	f8d3 3120 	ldr.w	r3, [r3, #288]	; 0x120
    2360:	b16b      	cbz	r3, 237e <nrfx_uarte_0_irq_handler+0x8a>
    2362:	4b3b      	ldr	r3, [pc, #236]	; (2450 <nrfx_uarte_0_irq_handler+0x15c>)
    2364:	2200      	movs	r2, #0
    2366:	f8c3 2120 	str.w	r2, [r3, #288]	; 0x120
    236a:	f8d3 2120 	ldr.w	r2, [r3, #288]	; 0x120
    236e:	9202      	str	r2, [sp, #8]
    2370:	9a02      	ldr	r2, [sp, #8]
    2372:	2201      	movs	r2, #1
    2374:	60da      	str	r2, [r3, #12]
    2376:	4b37      	ldr	r3, [pc, #220]	; (2454 <nrfx_uarte_0_irq_handler+0x160>)
    2378:	695b      	ldr	r3, [r3, #20]
    237a:	2b00      	cmp	r3, #0
    237c:	d149      	bne.n	2412 <nrfx_uarte_0_irq_handler+0x11e>
    237e:	4b34      	ldr	r3, [pc, #208]	; (2450 <nrfx_uarte_0_irq_handler+0x15c>)
    2380:	f8d3 3158 	ldr.w	r3, [r3, #344]	; 0x158
    2384:	b15b      	cbz	r3, 239e <nrfx_uarte_0_irq_handler+0xaa>
    2386:	4b32      	ldr	r3, [pc, #200]	; (2450 <nrfx_uarte_0_irq_handler+0x15c>)
    2388:	2200      	movs	r2, #0
    238a:	f8c3 2158 	str.w	r2, [r3, #344]	; 0x158
    238e:	f8d3 3158 	ldr.w	r3, [r3, #344]	; 0x158
    2392:	9301      	str	r3, [sp, #4]
    2394:	9b01      	ldr	r3, [sp, #4]
    2396:	4b2f      	ldr	r3, [pc, #188]	; (2454 <nrfx_uarte_0_irq_handler+0x160>)
    2398:	695b      	ldr	r3, [r3, #20]
    239a:	2b00      	cmp	r3, #0
    239c:	d149      	bne.n	2432 <nrfx_uarte_0_irq_handler+0x13e>
    239e:	b00b      	add	sp, #44	; 0x2c
    23a0:	bd30      	pop	{r4, r5, pc}
    23a2:	4b2b      	ldr	r3, [pc, #172]	; (2450 <nrfx_uarte_0_irq_handler+0x15c>)
    23a4:	f8d3 3110 	ldr.w	r3, [r3, #272]	; 0x110
    23a8:	2b00      	cmp	r3, #0
    23aa:	d0c6      	beq.n	233a <nrfx_uarte_0_irq_handler+0x46>
    23ac:	4b28      	ldr	r3, [pc, #160]	; (2450 <nrfx_uarte_0_irq_handler+0x15c>)
    23ae:	2200      	movs	r2, #0
    23b0:	f8c3 2110 	str.w	r2, [r3, #272]	; 0x110
    23b4:	f8d3 2110 	ldr.w	r2, [r3, #272]	; 0x110
    23b8:	9205      	str	r2, [sp, #20]
    23ba:	9a05      	ldr	r2, [sp, #20]
    23bc:	f8d3 153c 	ldr.w	r1, [r3, #1340]	; 0x53c
    23c0:	4b24      	ldr	r3, [pc, #144]	; (2454 <nrfx_uarte_0_irq_handler+0x160>)
    23c2:	699b      	ldr	r3, [r3, #24]
    23c4:	4299      	cmp	r1, r3
    23c6:	d1b8      	bne.n	233a <nrfx_uarte_0_irq_handler+0x46>
    23c8:	4b22      	ldr	r3, [pc, #136]	; (2454 <nrfx_uarte_0_irq_handler+0x160>)
    23ca:	69db      	ldr	r3, [r3, #28]
    23cc:	b183      	cbz	r3, 23f0 <nrfx_uarte_0_irq_handler+0xfc>
    23ce:	4821      	ldr	r0, [pc, #132]	; (2454 <nrfx_uarte_0_irq_handler+0x160>)
    23d0:	68c2      	ldr	r2, [r0, #12]
    23d2:	4d1f      	ldr	r5, [pc, #124]	; (2450 <nrfx_uarte_0_irq_handler+0x15c>)
    23d4:	f8d5 4200 	ldr.w	r4, [r5, #512]	; 0x200
    23d8:	f024 0420 	bic.w	r4, r4, #32
    23dc:	f8c5 4200 	str.w	r4, [r5, #512]	; 0x200
    23e0:	6183      	str	r3, [r0, #24]
    23e2:	6903      	ldr	r3, [r0, #16]
    23e4:	60c3      	str	r3, [r0, #12]
    23e6:	2300      	movs	r3, #0
    23e8:	61c3      	str	r3, [r0, #28]
    23ea:	f7ff ff75 	bl	22d8 <rx_done_event>
    23ee:	e7a4      	b.n	233a <nrfx_uarte_0_irq_handler+0x46>
    23f0:	4818      	ldr	r0, [pc, #96]	; (2454 <nrfx_uarte_0_irq_handler+0x160>)
    23f2:	2300      	movs	r3, #0
    23f4:	6183      	str	r3, [r0, #24]
    23f6:	68c2      	ldr	r2, [r0, #12]
    23f8:	f7ff ff6e 	bl	22d8 <rx_done_event>
    23fc:	e79d      	b.n	233a <nrfx_uarte_0_irq_handler+0x46>
    23fe:	4815      	ldr	r0, [pc, #84]	; (2454 <nrfx_uarte_0_irq_handler+0x160>)
    2400:	6182      	str	r2, [r0, #24]
    2402:	61c2      	str	r2, [r0, #28]
    2404:	4b12      	ldr	r3, [pc, #72]	; (2450 <nrfx_uarte_0_irq_handler+0x15c>)
    2406:	f8d3 153c 	ldr.w	r1, [r3, #1340]	; 0x53c
    240a:	68c2      	ldr	r2, [r0, #12]
    240c:	f7ff ff64 	bl	22d8 <rx_done_event>
    2410:	e7a3      	b.n	235a <nrfx_uarte_0_irq_handler+0x66>
    2412:	4b0f      	ldr	r3, [pc, #60]	; (2450 <nrfx_uarte_0_irq_handler+0x15c>)
    2414:	f8d3 354c 	ldr.w	r3, [r3, #1356]	; 0x54c
    2418:	2200      	movs	r2, #0
    241a:	f88d 2018 	strb.w	r2, [sp, #24]
    241e:	9308      	str	r3, [sp, #32]
    2420:	4b0c      	ldr	r3, [pc, #48]	; (2454 <nrfx_uarte_0_irq_handler+0x160>)
    2422:	6899      	ldr	r1, [r3, #8]
    2424:	9107      	str	r1, [sp, #28]
    2426:	615a      	str	r2, [r3, #20]
    2428:	685a      	ldr	r2, [r3, #4]
    242a:	6819      	ldr	r1, [r3, #0]
    242c:	a806      	add	r0, sp, #24
    242e:	4790      	blx	r2
    2430:	e7a5      	b.n	237e <nrfx_uarte_0_irq_handler+0x8a>
    2432:	4b07      	ldr	r3, [pc, #28]	; (2450 <nrfx_uarte_0_irq_handler+0x15c>)
    2434:	f8d3 354c 	ldr.w	r3, [r3, #1356]	; 0x54c
    2438:	f88d 2018 	strb.w	r2, [sp, #24]
    243c:	9308      	str	r3, [sp, #32]
    243e:	4b05      	ldr	r3, [pc, #20]	; (2454 <nrfx_uarte_0_irq_handler+0x160>)
    2440:	6899      	ldr	r1, [r3, #8]
    2442:	9107      	str	r1, [sp, #28]
    2444:	615a      	str	r2, [r3, #20]
    2446:	685a      	ldr	r2, [r3, #4]
    2448:	6819      	ldr	r1, [r3, #0]
    244a:	a806      	add	r0, sp, #24
    244c:	4790      	blx	r2
    244e:	e7a6      	b.n	239e <nrfx_uarte_0_irq_handler+0xaa>
    2450:	40002000 	.word	0x40002000
    2454:	20000708 	.word	0x20000708

00002458 <nrfx_uarte_init>:
    2458:	b5f0      	push	{r4, r5, r6, r7, lr}
    245a:	b087      	sub	sp, #28
    245c:	4617      	mov	r7, r2
    245e:	7906      	ldrb	r6, [r0, #4]
    2460:	eb06 02c6 	add.w	r2, r6, r6, lsl #3
    2464:	4b69      	ldr	r3, [pc, #420]	; (260c <nrfx_uarte_init+0x1b4>)
    2466:	eb03 0382 	add.w	r3, r3, r2, lsl #2
    246a:	f893 3020 	ldrb.w	r3, [r3, #32]
    246e:	2b00      	cmp	r3, #0
    2470:	f040 80c8 	bne.w	2604 <nrfx_uarte_init+0x1ac>
    2474:	4604      	mov	r4, r0
    2476:	460d      	mov	r5, r1
    2478:	4965      	ldr	r1, [pc, #404]	; (2610 <nrfx_uarte_init+0x1b8>)
    247a:	6800      	ldr	r0, [r0, #0]
    247c:	f7ff fa84 	bl	1988 <nrfx_prs_acquire>
    2480:	2800      	cmp	r0, #0
    2482:	f040 80c1 	bne.w	2608 <nrfx_uarte_init+0x1b0>
    2486:	682b      	ldr	r3, [r5, #0]
    2488:	f1b3 3fff 	cmp.w	r3, #4294967295	; 0xffffffff
    248c:	d00c      	beq.n	24a8 <nrfx_uarte_init+0x50>
    248e:	2201      	movs	r2, #1
    2490:	fa02 f303 	lsl.w	r3, r2, r3
    2494:	f04f 42a0 	mov.w	r2, #1342177280	; 0x50000000
    2498:	f8c2 3508 	str.w	r3, [r2, #1288]	; 0x508
    249c:	682b      	ldr	r3, [r5, #0]
    249e:	f503 73e0 	add.w	r3, r3, #448	; 0x1c0
    24a2:	2103      	movs	r1, #3
    24a4:	f842 1023 	str.w	r1, [r2, r3, lsl #2]
    24a8:	686b      	ldr	r3, [r5, #4]
    24aa:	f1b3 3fff 	cmp.w	r3, #4294967295	; 0xffffffff
    24ae:	d006      	beq.n	24be <nrfx_uarte_init+0x66>
    24b0:	f503 73e0 	add.w	r3, r3, #448	; 0x1c0
    24b4:	f04f 42a0 	mov.w	r2, #1342177280	; 0x50000000
    24b8:	2100      	movs	r1, #0
    24ba:	f842 1023 	str.w	r1, [r2, r3, lsl #2]
    24be:	6823      	ldr	r3, [r4, #0]
    24c0:	69aa      	ldr	r2, [r5, #24]
    24c2:	f8c3 2524 	str.w	r2, [r3, #1316]	; 0x524
    24c6:	6822      	ldr	r2, [r4, #0]
    24c8:	7d6b      	ldrb	r3, [r5, #21]
    24ca:	7d29      	ldrb	r1, [r5, #20]
    24cc:	430b      	orrs	r3, r1
    24ce:	f8c2 356c 	str.w	r3, [r2, #1388]	; 0x56c
    24d2:	6823      	ldr	r3, [r4, #0]
    24d4:	6829      	ldr	r1, [r5, #0]
    24d6:	686a      	ldr	r2, [r5, #4]
    24d8:	f8c3 150c 	str.w	r1, [r3, #1292]	; 0x50c
    24dc:	f8c3 2514 	str.w	r2, [r3, #1300]	; 0x514
    24e0:	7d2b      	ldrb	r3, [r5, #20]
    24e2:	2b01      	cmp	r3, #1
    24e4:	d063      	beq.n	25ae <nrfx_uarte_init+0x156>
    24e6:	4b49      	ldr	r3, [pc, #292]	; (260c <nrfx_uarte_init+0x1b4>)
    24e8:	eb06 02c6 	add.w	r2, r6, r6, lsl #3
    24ec:	eb03 0182 	add.w	r1, r3, r2, lsl #2
    24f0:	604f      	str	r7, [r1, #4]
    24f2:	6929      	ldr	r1, [r5, #16]
    24f4:	f843 1022 	str.w	r1, [r3, r2, lsl #2]
    24f8:	2f00      	cmp	r7, #0
    24fa:	d045      	beq.n	2588 <nrfx_uarte_init+0x130>
    24fc:	7f2a      	ldrb	r2, [r5, #28]
    24fe:	6821      	ldr	r1, [r4, #0]
    2500:	2300      	movs	r3, #0
    2502:	f8c1 3110 	str.w	r3, [r1, #272]	; 0x110
    2506:	f8d1 1110 	ldr.w	r1, [r1, #272]	; 0x110
    250a:	9101      	str	r1, [sp, #4]
    250c:	9901      	ldr	r1, [sp, #4]
    250e:	6821      	ldr	r1, [r4, #0]
    2510:	f8c1 3120 	str.w	r3, [r1, #288]	; 0x120
    2514:	f8d1 1120 	ldr.w	r1, [r1, #288]	; 0x120
    2518:	9102      	str	r1, [sp, #8]
    251a:	9902      	ldr	r1, [sp, #8]
    251c:	6821      	ldr	r1, [r4, #0]
    251e:	f8c1 3124 	str.w	r3, [r1, #292]	; 0x124
    2522:	f8d1 1124 	ldr.w	r1, [r1, #292]	; 0x124
    2526:	9103      	str	r1, [sp, #12]
    2528:	9903      	ldr	r1, [sp, #12]
    252a:	6821      	ldr	r1, [r4, #0]
    252c:	f8c1 3144 	str.w	r3, [r1, #324]	; 0x144
    2530:	f8d1 1144 	ldr.w	r1, [r1, #324]	; 0x144
    2534:	9104      	str	r1, [sp, #16]
    2536:	9904      	ldr	r1, [sp, #16]
    2538:	6821      	ldr	r1, [r4, #0]
    253a:	f8c1 3158 	str.w	r3, [r1, #344]	; 0x158
    253e:	f8d1 3158 	ldr.w	r3, [r1, #344]	; 0x158
    2542:	9305      	str	r3, [sp, #20]
    2544:	9b05      	ldr	r3, [sp, #20]
    2546:	6823      	ldr	r3, [r4, #0]
    2548:	4932      	ldr	r1, [pc, #200]	; (2614 <nrfx_uarte_init+0x1bc>)
    254a:	f8c3 1304 	str.w	r1, [r3, #772]	; 0x304
    254e:	6823      	ldr	r3, [r4, #0]
    2550:	0b19      	lsrs	r1, r3, #12
    2552:	f343 3307 	sbfx	r3, r3, #12, #8
    2556:	2b00      	cmp	r3, #0
    2558:	db4d      	blt.n	25f6 <nrfx_uarte_init+0x19e>
    255a:	0152      	lsls	r2, r2, #5
    255c:	b2d2      	uxtb	r2, r2
    255e:	f103 4360 	add.w	r3, r3, #3758096384	; 0xe0000000
    2562:	f503 4361 	add.w	r3, r3, #57600	; 0xe100
    2566:	f883 2300 	strb.w	r2, [r3, #768]	; 0x300
    256a:	6823      	ldr	r3, [r4, #0]
    256c:	0b1a      	lsrs	r2, r3, #12
    256e:	f343 3307 	sbfx	r3, r3, #12, #8
    2572:	2b00      	cmp	r3, #0
    2574:	db08      	blt.n	2588 <nrfx_uarte_init+0x130>
    2576:	095b      	lsrs	r3, r3, #5
    2578:	f002 021f 	and.w	r2, r2, #31
    257c:	2101      	movs	r1, #1
    257e:	fa01 f202 	lsl.w	r2, r1, r2
    2582:	4925      	ldr	r1, [pc, #148]	; (2618 <nrfx_uarte_init+0x1c0>)
    2584:	f841 2023 	str.w	r2, [r1, r3, lsl #2]
    2588:	6823      	ldr	r3, [r4, #0]
    258a:	2208      	movs	r2, #8
    258c:	f8c3 2500 	str.w	r2, [r3, #1280]	; 0x500
    2590:	4a1e      	ldr	r2, [pc, #120]	; (260c <nrfx_uarte_init+0x1b4>)
    2592:	eb06 03c6 	add.w	r3, r6, r6, lsl #3
    2596:	eb02 0383 	add.w	r3, r2, r3, lsl #2
    259a:	2100      	movs	r1, #0
    259c:	6199      	str	r1, [r3, #24]
    259e:	61d9      	str	r1, [r3, #28]
    25a0:	6159      	str	r1, [r3, #20]
    25a2:	461a      	mov	r2, r3
    25a4:	2301      	movs	r3, #1
    25a6:	f882 3020 	strb.w	r3, [r2, #32]
    25aa:	b007      	add	sp, #28
    25ac:	bdf0      	pop	{r4, r5, r6, r7, pc}
    25ae:	68ab      	ldr	r3, [r5, #8]
    25b0:	f1b3 3fff 	cmp.w	r3, #4294967295	; 0xffffffff
    25b4:	d006      	beq.n	25c4 <nrfx_uarte_init+0x16c>
    25b6:	f503 73e0 	add.w	r3, r3, #448	; 0x1c0
    25ba:	f04f 42a0 	mov.w	r2, #1342177280	; 0x50000000
    25be:	2100      	movs	r1, #0
    25c0:	f842 1023 	str.w	r1, [r2, r3, lsl #2]
    25c4:	68eb      	ldr	r3, [r5, #12]
    25c6:	f1b3 3fff 	cmp.w	r3, #4294967295	; 0xffffffff
    25ca:	d00c      	beq.n	25e6 <nrfx_uarte_init+0x18e>
    25cc:	2201      	movs	r2, #1
    25ce:	fa02 f303 	lsl.w	r3, r2, r3
    25d2:	f04f 42a0 	mov.w	r2, #1342177280	; 0x50000000
    25d6:	f8c2 3508 	str.w	r3, [r2, #1288]	; 0x508
    25da:	68eb      	ldr	r3, [r5, #12]
    25dc:	f503 73e0 	add.w	r3, r3, #448	; 0x1c0
    25e0:	2103      	movs	r1, #3
    25e2:	f842 1023 	str.w	r1, [r2, r3, lsl #2]
    25e6:	6823      	ldr	r3, [r4, #0]
    25e8:	68e9      	ldr	r1, [r5, #12]
    25ea:	68aa      	ldr	r2, [r5, #8]
    25ec:	f8c3 1508 	str.w	r1, [r3, #1288]	; 0x508
    25f0:	f8c3 2510 	str.w	r2, [r3, #1296]	; 0x510
    25f4:	e777      	b.n	24e6 <nrfx_uarte_init+0x8e>
    25f6:	f001 010f 	and.w	r1, r1, #15
    25fa:	0152      	lsls	r2, r2, #5
    25fc:	b2d2      	uxtb	r2, r2
    25fe:	4b07      	ldr	r3, [pc, #28]	; (261c <nrfx_uarte_init+0x1c4>)
    2600:	545a      	strb	r2, [r3, r1]
    2602:	e7b2      	b.n	256a <nrfx_uarte_init+0x112>
    2604:	2008      	movs	r0, #8
    2606:	e7d0      	b.n	25aa <nrfx_uarte_init+0x152>
    2608:	2011      	movs	r0, #17
    260a:	e7ce      	b.n	25aa <nrfx_uarte_init+0x152>
    260c:	20000708 	.word	0x20000708
    2610:	000022f5 	.word	0x000022f5
    2614:	00420310 	.word	0x00420310
    2618:	e000e100 	.word	0xe000e100
    261c:	e000ed14 	.word	0xe000ed14

00002620 <nrfx_uarte_uninit>:
    2620:	b5f0      	push	{r4, r5, r6, r7, lr}
    2622:	b083      	sub	sp, #12
    2624:	4601      	mov	r1, r0
    2626:	7904      	ldrb	r4, [r0, #4]
    2628:	6800      	ldr	r0, [r0, #0]
    262a:	eb04 02c4 	add.w	r2, r4, r4, lsl #3
    262e:	4b4a      	ldr	r3, [pc, #296]	; (2758 <nrfx_uarte_uninit+0x138>)
    2630:	eb03 0382 	add.w	r3, r3, r2, lsl #2
    2634:	685b      	ldr	r3, [r3, #4]
    2636:	b1b3      	cbz	r3, 2666 <nrfx_uarte_uninit+0x46>
    2638:	4b48      	ldr	r3, [pc, #288]	; (275c <nrfx_uarte_uninit+0x13c>)
    263a:	f8c0 3308 	str.w	r3, [r0, #776]	; 0x308
    263e:	680b      	ldr	r3, [r1, #0]
    2640:	0b1a      	lsrs	r2, r3, #12
    2642:	f343 3307 	sbfx	r3, r3, #12, #8
    2646:	2b00      	cmp	r3, #0
    2648:	db0d      	blt.n	2666 <nrfx_uarte_uninit+0x46>
    264a:	095b      	lsrs	r3, r3, #5
    264c:	f002 021f 	and.w	r2, r2, #31
    2650:	2501      	movs	r5, #1
    2652:	fa05 f202 	lsl.w	r2, r5, r2
    2656:	3320      	adds	r3, #32
    2658:	4d41      	ldr	r5, [pc, #260]	; (2760 <nrfx_uarte_uninit+0x140>)
    265a:	f845 2023 	str.w	r2, [r5, r3, lsl #2]
    265e:	f3bf 8f4f 	dsb	sy
    2662:	f3bf 8f6f 	isb	sy
    2666:	f8d0 3200 	ldr.w	r3, [r0, #512]	; 0x200
    266a:	f023 0320 	bic.w	r3, r3, #32
    266e:	f8c0 3200 	str.w	r3, [r0, #512]	; 0x200
    2672:	eb04 02c4 	add.w	r2, r4, r4, lsl #3
    2676:	4b38      	ldr	r3, [pc, #224]	; (2758 <nrfx_uarte_uninit+0x138>)
    2678:	eb03 0382 	add.w	r3, r3, r2, lsl #2
    267c:	699b      	ldr	r3, [r3, #24]
    267e:	b143      	cbz	r3, 2692 <nrfx_uarte_uninit+0x72>
    2680:	2300      	movs	r3, #0
    2682:	f8c0 3144 	str.w	r3, [r0, #324]	; 0x144
    2686:	f8d0 3144 	ldr.w	r3, [r0, #324]	; 0x144
    268a:	9300      	str	r3, [sp, #0]
    268c:	9b00      	ldr	r3, [sp, #0]
    268e:	2301      	movs	r3, #1
    2690:	6043      	str	r3, [r0, #4]
    2692:	2300      	movs	r3, #0
    2694:	f8c0 3158 	str.w	r3, [r0, #344]	; 0x158
    2698:	f8d0 3158 	ldr.w	r3, [r0, #344]	; 0x158
    269c:	9301      	str	r3, [sp, #4]
    269e:	9b01      	ldr	r3, [sp, #4]
    26a0:	2301      	movs	r3, #1
    26a2:	60c3      	str	r3, [r0, #12]
    26a4:	eb04 03c4 	add.w	r3, r4, r4, lsl #3
    26a8:	4a2b      	ldr	r2, [pc, #172]	; (2758 <nrfx_uarte_uninit+0x138>)
    26aa:	eb02 0283 	add.w	r2, r2, r3, lsl #2
    26ae:	f8d0 3158 	ldr.w	r3, [r0, #344]	; 0x158
    26b2:	2b00      	cmp	r3, #0
    26b4:	d0fb      	beq.n	26ae <nrfx_uarte_uninit+0x8e>
    26b6:	6993      	ldr	r3, [r2, #24]
    26b8:	b11b      	cbz	r3, 26c2 <nrfx_uarte_uninit+0xa2>
    26ba:	f8d0 3144 	ldr.w	r3, [r0, #324]	; 0x144
    26be:	2b00      	cmp	r3, #0
    26c0:	d0f5      	beq.n	26ae <nrfx_uarte_uninit+0x8e>
    26c2:	2300      	movs	r3, #0
    26c4:	f8c0 3500 	str.w	r3, [r0, #1280]	; 0x500
    26c8:	680b      	ldr	r3, [r1, #0]
    26ca:	f8d3 c50c 	ldr.w	ip, [r3, #1292]	; 0x50c
    26ce:	f8d3 7514 	ldr.w	r7, [r3, #1300]	; 0x514
    26d2:	f8d3 5508 	ldr.w	r5, [r3, #1288]	; 0x508
    26d6:	f8d3 6510 	ldr.w	r6, [r3, #1296]	; 0x510
    26da:	f04f 32ff 	mov.w	r2, #4294967295	; 0xffffffff
    26de:	f8c3 250c 	str.w	r2, [r3, #1292]	; 0x50c
    26e2:	f8c3 2514 	str.w	r2, [r3, #1300]	; 0x514
    26e6:	680b      	ldr	r3, [r1, #0]
    26e8:	f8c3 2508 	str.w	r2, [r3, #1288]	; 0x508
    26ec:	f8c3 2510 	str.w	r2, [r3, #1296]	; 0x510
    26f0:	4594      	cmp	ip, r2
    26f2:	d006      	beq.n	2702 <nrfx_uarte_uninit+0xe2>
    26f4:	f50c 7ce0 	add.w	ip, ip, #448	; 0x1c0
    26f8:	f04f 43a0 	mov.w	r3, #1342177280	; 0x50000000
    26fc:	2202      	movs	r2, #2
    26fe:	f843 202c 	str.w	r2, [r3, ip, lsl #2]
    2702:	f1b7 3fff 	cmp.w	r7, #4294967295	; 0xffffffff
    2706:	d006      	beq.n	2716 <nrfx_uarte_uninit+0xf6>
    2708:	f507 77e0 	add.w	r7, r7, #448	; 0x1c0
    270c:	f04f 43a0 	mov.w	r3, #1342177280	; 0x50000000
    2710:	2202      	movs	r2, #2
    2712:	f843 2027 	str.w	r2, [r3, r7, lsl #2]
    2716:	f1b6 3fff 	cmp.w	r6, #4294967295	; 0xffffffff
    271a:	d006      	beq.n	272a <nrfx_uarte_uninit+0x10a>
    271c:	f506 76e0 	add.w	r6, r6, #448	; 0x1c0
    2720:	f04f 43a0 	mov.w	r3, #1342177280	; 0x50000000
    2724:	2202      	movs	r2, #2
    2726:	f843 2026 	str.w	r2, [r3, r6, lsl #2]
    272a:	f1b5 3fff 	cmp.w	r5, #4294967295	; 0xffffffff
    272e:	d006      	beq.n	273e <nrfx_uarte_uninit+0x11e>
    2730:	f505 75e0 	add.w	r5, r5, #448	; 0x1c0
    2734:	f04f 43a0 	mov.w	r3, #1342177280	; 0x50000000
    2738:	2202      	movs	r2, #2
    273a:	f843 2025 	str.w	r2, [r3, r5, lsl #2]
    273e:	f7ff f943 	bl	19c8 <nrfx_prs_release>
    2742:	4b05      	ldr	r3, [pc, #20]	; (2758 <nrfx_uarte_uninit+0x138>)
    2744:	eb04 02c4 	add.w	r2, r4, r4, lsl #3
    2748:	eb03 0282 	add.w	r2, r3, r2, lsl #2
    274c:	2100      	movs	r1, #0
    274e:	f882 1020 	strb.w	r1, [r2, #32]
    2752:	6051      	str	r1, [r2, #4]
    2754:	b003      	add	sp, #12
    2756:	bdf0      	pop	{r4, r5, r6, r7, pc}
    2758:	20000708 	.word	0x20000708
    275c:	00420310 	.word	0x00420310
    2760:	e000e100 	.word	0xe000e100

00002764 <nrfx_uarte_tx_in_progress>:
    2764:	7903      	ldrb	r3, [r0, #4]
    2766:	eb03 03c3 	add.w	r3, r3, r3, lsl #3
    276a:	4a04      	ldr	r2, [pc, #16]	; (277c <nrfx_uarte_tx_in_progress+0x18>)
    276c:	eb02 0383 	add.w	r3, r2, r3, lsl #2
    2770:	6958      	ldr	r0, [r3, #20]
    2772:	3800      	subs	r0, #0
    2774:	bf18      	it	ne
    2776:	2001      	movne	r0, #1
    2778:	4770      	bx	lr
    277a:	bf00      	nop
    277c:	20000708 	.word	0x20000708

00002780 <nrfx_uarte_tx>:
    2780:	f001 4360 	and.w	r3, r1, #3758096384	; 0xe0000000
    2784:	f1b3 5f00 	cmp.w	r3, #536870912	; 0x20000000
    2788:	d001      	beq.n	278e <nrfx_uarte_tx+0xe>
    278a:	2010      	movs	r0, #16
    278c:	4770      	bx	lr
    278e:	b5f0      	push	{r4, r5, r6, r7, lr}
    2790:	b083      	sub	sp, #12
    2792:	4604      	mov	r4, r0
    2794:	460d      	mov	r5, r1
    2796:	4616      	mov	r6, r2
    2798:	7907      	ldrb	r7, [r0, #4]
    279a:	f7ff ffe3 	bl	2764 <nrfx_uarte_tx_in_progress>
    279e:	2800      	cmp	r0, #0
    27a0:	d13f      	bne.n	2822 <nrfx_uarte_tx+0xa2>
    27a2:	eb07 02c7 	add.w	r2, r7, r7, lsl #3
    27a6:	4b20      	ldr	r3, [pc, #128]	; (2828 <nrfx_uarte_tx+0xa8>)
    27a8:	eb03 0382 	add.w	r3, r3, r2, lsl #2
    27ac:	615e      	str	r6, [r3, #20]
    27ae:	609d      	str	r5, [r3, #8]
    27b0:	6822      	ldr	r2, [r4, #0]
    27b2:	2100      	movs	r1, #0
    27b4:	f8c2 1120 	str.w	r1, [r2, #288]	; 0x120
    27b8:	f8d2 2120 	ldr.w	r2, [r2, #288]	; 0x120
    27bc:	9201      	str	r2, [sp, #4]
    27be:	9a01      	ldr	r2, [sp, #4]
    27c0:	6822      	ldr	r2, [r4, #0]
    27c2:	f8c2 1158 	str.w	r1, [r2, #344]	; 0x158
    27c6:	f8d2 2158 	ldr.w	r2, [r2, #344]	; 0x158
    27ca:	9200      	str	r2, [sp, #0]
    27cc:	9a00      	ldr	r2, [sp, #0]
    27ce:	6822      	ldr	r2, [r4, #0]
    27d0:	6959      	ldr	r1, [r3, #20]
    27d2:	f8c2 5544 	str.w	r5, [r2, #1348]	; 0x544
    27d6:	f8c2 1548 	str.w	r1, [r2, #1352]	; 0x548
    27da:	6822      	ldr	r2, [r4, #0]
    27dc:	2101      	movs	r1, #1
    27de:	6091      	str	r1, [r2, #8]
    27e0:	685b      	ldr	r3, [r3, #4]
    27e2:	b113      	cbz	r3, 27ea <nrfx_uarte_tx+0x6a>
    27e4:	2000      	movs	r0, #0
    27e6:	b003      	add	sp, #12
    27e8:	bdf0      	pop	{r4, r5, r6, r7, pc}
    27ea:	6823      	ldr	r3, [r4, #0]
    27ec:	f8d3 2120 	ldr.w	r2, [r3, #288]	; 0x120
    27f0:	f8d3 0158 	ldr.w	r0, [r3, #344]	; 0x158
    27f4:	b91a      	cbnz	r2, 27fe <nrfx_uarte_tx+0x7e>
    27f6:	2800      	cmp	r0, #0
    27f8:	d0f8      	beq.n	27ec <nrfx_uarte_tx+0x6c>
    27fa:	200f      	movs	r0, #15
    27fc:	e007      	b.n	280e <nrfx_uarte_tx+0x8e>
    27fe:	b970      	cbnz	r0, 281e <nrfx_uarte_tx+0x9e>
    2800:	2201      	movs	r2, #1
    2802:	60da      	str	r2, [r3, #12]
    2804:	6822      	ldr	r2, [r4, #0]
    2806:	f8d2 3158 	ldr.w	r3, [r2, #344]	; 0x158
    280a:	2b00      	cmp	r3, #0
    280c:	d0fb      	beq.n	2806 <nrfx_uarte_tx+0x86>
    280e:	eb07 07c7 	add.w	r7, r7, r7, lsl #3
    2812:	4b05      	ldr	r3, [pc, #20]	; (2828 <nrfx_uarte_tx+0xa8>)
    2814:	eb03 0387 	add.w	r3, r3, r7, lsl #2
    2818:	2200      	movs	r2, #0
    281a:	615a      	str	r2, [r3, #20]
    281c:	e7e3      	b.n	27e6 <nrfx_uarte_tx+0x66>
    281e:	200f      	movs	r0, #15
    2820:	e7f5      	b.n	280e <nrfx_uarte_tx+0x8e>
    2822:	2011      	movs	r0, #17
    2824:	e7df      	b.n	27e6 <nrfx_uarte_tx+0x66>
    2826:	bf00      	nop
    2828:	20000708 	.word	0x20000708

0000282c <spi_event_handler>:
    282c:	b538      	push	{r3, r4, r5, lr}
    282e:	4b10      	ldr	r3, [pc, #64]	; (2870 <spi_event_handler+0x44>)
    2830:	2201      	movs	r2, #1
    2832:	701a      	strb	r2, [r3, #0]
    2834:	4c0f      	ldr	r4, [pc, #60]	; (2874 <spi_event_handler+0x48>)
    2836:	4b10      	ldr	r3, [pc, #64]	; (2878 <spi_event_handler+0x4c>)
    2838:	1ae4      	subs	r4, r4, r3
    283a:	08e4      	lsrs	r4, r4, #3
    283c:	0424      	lsls	r4, r4, #16
    283e:	f044 0403 	orr.w	r4, r4, #3
    2842:	490e      	ldr	r1, [pc, #56]	; (287c <spi_event_handler+0x50>)
    2844:	4620      	mov	r0, r4
    2846:	f7fe f841 	bl	8cc <nrf_log_frontend_std_0>
    284a:	4b0d      	ldr	r3, [pc, #52]	; (2880 <spi_event_handler+0x54>)
    284c:	781b      	ldrb	r3, [r3, #0]
    284e:	b903      	cbnz	r3, 2852 <spi_event_handler+0x26>
    2850:	bd38      	pop	{r3, r4, r5, pc}
    2852:	490c      	ldr	r1, [pc, #48]	; (2884 <spi_event_handler+0x58>)
    2854:	4620      	mov	r0, r4
    2856:	f7fe f839 	bl	8cc <nrf_log_frontend_std_0>
    285a:	4d09      	ldr	r5, [pc, #36]	; (2880 <spi_event_handler+0x54>)
    285c:	4628      	mov	r0, r5
    285e:	f000 fab3 	bl	2dc8 <strlen>
    2862:	b282      	uxth	r2, r0
    2864:	4629      	mov	r1, r5
    2866:	4620      	mov	r0, r4
    2868:	f7fe f894 	bl	994 <nrf_log_frontend_hexdump>
    286c:	e7f0      	b.n	2850 <spi_event_handler+0x24>
    286e:	bf00      	nop
    2870:	20000734 	.word	0x20000734
    2874:	000032c8 	.word	0x000032c8
    2878:	000032a0 	.word	0x000032a0
    287c:	00003134 	.word	0x00003134
    2880:	2000072c 	.word	0x2000072c
    2884:	00003148 	.word	0x00003148

00002888 <main>:
    2888:	e92d 4ff0 	stmdb	sp!, {r4, r5, r6, r7, r8, r9, sl, fp, lr}
    288c:	b089      	sub	sp, #36	; 0x24
    288e:	2001      	movs	r0, #1
    2890:	f7fe fab0 	bl	df4 <bsp_board_init>
    2894:	f44f 4180 	mov.w	r1, #16384	; 0x4000
    2898:	2000      	movs	r0, #0
    289a:	f7fd fea3 	bl	5e4 <nrf_log_init>
    289e:	bb78      	cbnz	r0, 2900 <main+0x78>
    28a0:	f7fd fe1c 	bl	4dc <nrf_log_default_backends_init>
    28a4:	4b2f      	ldr	r3, [pc, #188]	; (2964 <main+0xdc>)
    28a6:	ac04      	add	r4, sp, #16
    28a8:	cb0f      	ldmia	r3, {r0, r1, r2, r3}
    28aa:	e884 000f 	stmia.w	r4, {r0, r1, r2, r3}
    28ae:	231f      	movs	r3, #31
    28b0:	f88d 3013 	strb.w	r3, [sp, #19]
    28b4:	231e      	movs	r3, #30
    28b6:	f88d 3012 	strb.w	r3, [sp, #18]
    28ba:	231d      	movs	r3, #29
    28bc:	f88d 3011 	strb.w	r3, [sp, #17]
    28c0:	231a      	movs	r3, #26
    28c2:	f88d 3010 	strb.w	r3, [sp, #16]
    28c6:	2300      	movs	r3, #0
    28c8:	4a27      	ldr	r2, [pc, #156]	; (2968 <main+0xe0>)
    28ca:	4621      	mov	r1, r4
    28cc:	4827      	ldr	r0, [pc, #156]	; (296c <main+0xe4>)
    28ce:	f7fe fedd 	bl	168c <nrf_drv_spi_init>
    28d2:	b9c0      	cbnz	r0, 2906 <main+0x7e>
    28d4:	4826      	ldr	r0, [pc, #152]	; (2970 <main+0xe8>)
    28d6:	4b27      	ldr	r3, [pc, #156]	; (2974 <main+0xec>)
    28d8:	1ac0      	subs	r0, r0, r3
    28da:	08c0      	lsrs	r0, r0, #3
    28dc:	0400      	lsls	r0, r0, #16
    28de:	4926      	ldr	r1, [pc, #152]	; (2978 <main+0xf0>)
    28e0:	f040 0003 	orr.w	r0, r0, #3
    28e4:	f7fd fff2 	bl	8cc <nrf_log_frontend_std_0>
    28e8:	f8df 909c 	ldr.w	r9, [pc, #156]	; 2988 <main+0x100>
    28ec:	f04f 0807 	mov.w	r8, #7
    28f0:	2700      	movs	r7, #0
    28f2:	4d22      	ldr	r5, [pc, #136]	; (297c <main+0xf4>)
    28f4:	f8df a094 	ldr.w	sl, [pc, #148]	; 298c <main+0x104>
    28f8:	4e21      	ldr	r6, [pc, #132]	; (2980 <main+0xf8>)
    28fa:	f046 0601 	orr.w	r6, r6, #1
    28fe:	e019      	b.n	2934 <main+0xac>
    2900:	f7fe fa9b 	bl	e3a <app_error_handler_bare>
    2904:	e7cc      	b.n	28a0 <main+0x18>
    2906:	f7fe fa98 	bl	e3a <app_error_handler_bare>
    290a:	e7e3      	b.n	28d4 <main+0x4c>
    290c:	782b      	ldrb	r3, [r5, #0]
    290e:	b91b      	cbnz	r3, 2918 <main+0x90>
    2910:	bf20      	wfe
    2912:	782b      	ldrb	r3, [r5, #0]
    2914:	2b00      	cmp	r3, #0
    2916:	d0fb      	beq.n	2910 <main+0x88>
    2918:	f7fd feba 	bl	690 <nrf_log_frontend_dequeue>
    291c:	2800      	cmp	r0, #0
    291e:	d1fb      	bne.n	2918 <main+0x90>
    2920:	4638      	mov	r0, r7
    2922:	f7fe fa55 	bl	dd0 <bsp_board_led_invert>
    2926:	24c8      	movs	r4, #200	; 0xc8
    2928:	f44f 4b7a 	mov.w	fp, #64000	; 0xfa00
    292c:	4658      	mov	r0, fp
    292e:	47b0      	blx	r6
    2930:	3c01      	subs	r4, #1
    2932:	d1fb      	bne.n	292c <main+0xa4>
    2934:	4642      	mov	r2, r8
    2936:	4639      	mov	r1, r7
    2938:	4648      	mov	r0, r9
    293a:	f000 f9f5 	bl	2d28 <memset>
    293e:	702f      	strb	r7, [r5, #0]
    2940:	4b10      	ldr	r3, [pc, #64]	; (2984 <main+0xfc>)
    2942:	9300      	str	r3, [sp, #0]
    2944:	f8cd 8004 	str.w	r8, [sp, #4]
    2948:	f8cd 9008 	str.w	r9, [sp, #8]
    294c:	f8cd 800c 	str.w	r8, [sp, #12]
    2950:	463a      	mov	r2, r7
    2952:	4669      	mov	r1, sp
    2954:	4650      	mov	r0, sl
    2956:	f7ff f967 	bl	1c28 <nrfx_spim_xfer>
    295a:	2800      	cmp	r0, #0
    295c:	d0d6      	beq.n	290c <main+0x84>
    295e:	f7fe fa6c 	bl	e3a <app_error_handler_bare>
    2962:	e7d3      	b.n	290c <main+0x84>
    2964:	0000316c 	.word	0x0000316c
    2968:	0000282d 	.word	0x0000282d
    296c:	00003188 	.word	0x00003188
    2970:	000032c8 	.word	0x000032c8
    2974:	000032a0 	.word	0x000032a0
    2978:	00003154 	.word	0x00003154
    297c:	20000734 	.word	0x20000734
    2980:	00003180 	.word	0x00003180
    2984:	2000001c 	.word	0x2000001c
    2988:	2000072c 	.word	0x2000072c
    298c:	0000318c 	.word	0x0000318c

00002990 <SystemInit>:
    2990:	f04f 5380 	mov.w	r3, #268435456	; 0x10000000
    2994:	f8d3 3130 	ldr.w	r3, [r3, #304]	; 0x130
    2998:	f1b3 3fff 	cmp.w	r3, #4294967295	; 0xffffffff
    299c:	bf04      	itt	eq
    299e:	f04f 4370 	moveq.w	r3, #4026531840	; 0xf0000000
    29a2:	f893 3fe0 	ldrbeq.w	r3, [r3, #4064]	; 0xfe0
    29a6:	2b06      	cmp	r3, #6
    29a8:	d108      	bne.n	29bc <SystemInit+0x2c>
    29aa:	f04f 5380 	mov.w	r3, #268435456	; 0x10000000
    29ae:	f8d3 3324 	ldr.w	r3, [r3, #804]	; 0x324
    29b2:	f3c3 2304 	ubfx	r3, r3, #8, #5
    29b6:	4ac5      	ldr	r2, [pc, #788]	; (2ccc <SystemInit+0x33c>)
    29b8:	f8c2 3540 	str.w	r3, [r2, #1344]	; 0x540
    29bc:	f04f 4370 	mov.w	r3, #4026531840	; 0xf0000000
    29c0:	f893 3fe0 	ldrb.w	r3, [r3, #4064]	; 0xfe0
    29c4:	2b06      	cmp	r3, #6
    29c6:	d070      	beq.n	2aaa <SystemInit+0x11a>
    29c8:	f04f 5380 	mov.w	r3, #268435456	; 0x10000000
    29cc:	f8d3 3130 	ldr.w	r3, [r3, #304]	; 0x130
    29d0:	f1b3 3fff 	cmp.w	r3, #4294967295	; 0xffffffff
    29d4:	bf04      	itt	eq
    29d6:	f04f 4370 	moveq.w	r3, #4026531840	; 0xf0000000
    29da:	f893 3fe0 	ldrbeq.w	r3, [r3, #4064]	; 0xfe0
    29de:	2b06      	cmp	r3, #6
    29e0:	d109      	bne.n	29f6 <SystemInit+0x66>
    29e2:	f04f 5380 	mov.w	r3, #268435456	; 0x10000000
    29e6:	f8d3 3244 	ldr.w	r3, [r3, #580]	; 0x244
    29ea:	f3c3 3342 	ubfx	r3, r3, #13, #3
    29ee:	f04f 4280 	mov.w	r2, #1073741824	; 0x40000000
    29f2:	f8c2 353c 	str.w	r3, [r2, #1340]	; 0x53c
    29f6:	f04f 4370 	mov.w	r3, #4026531840	; 0xf0000000
    29fa:	f893 3fe0 	ldrb.w	r3, [r3, #4064]	; 0xfe0
    29fe:	2b06      	cmp	r3, #6
    2a00:	d05f      	beq.n	2ac2 <SystemInit+0x132>
    2a02:	f04f 5380 	mov.w	r3, #268435456	; 0x10000000
    2a06:	f8d3 3130 	ldr.w	r3, [r3, #304]	; 0x130
    2a0a:	f1b3 3fff 	cmp.w	r3, #4294967295	; 0xffffffff
    2a0e:	bf04      	itt	eq
    2a10:	f04f 4370 	moveq.w	r3, #4026531840	; 0xf0000000
    2a14:	f893 3fe0 	ldrbeq.w	r3, [r3, #4064]	; 0xfe0
    2a18:	2b06      	cmp	r3, #6
    2a1a:	d108      	bne.n	2a2e <SystemInit+0x9e>
    2a1c:	f04f 4380 	mov.w	r3, #1073741824	; 0x40000000
    2a20:	2200      	movs	r2, #0
    2a22:	f8c3 210c 	str.w	r2, [r3, #268]	; 0x10c
    2a26:	f8c3 2110 	str.w	r2, [r3, #272]	; 0x110
    2a2a:	f8c3 2538 	str.w	r2, [r3, #1336]	; 0x538
    2a2e:	f04f 4370 	mov.w	r3, #4026531840	; 0xf0000000
    2a32:	f893 3fe0 	ldrb.w	r3, [r3, #4064]	; 0xfe0
    2a36:	2b06      	cmp	r3, #6
    2a38:	d053      	beq.n	2ae2 <SystemInit+0x152>
    2a3a:	f04f 5380 	mov.w	r3, #268435456	; 0x10000000
    2a3e:	f8d3 2130 	ldr.w	r2, [r3, #304]	; 0x130
    2a42:	f1b2 3fff 	cmp.w	r2, #4294967295	; 0xffffffff
    2a46:	d075      	beq.n	2b34 <SystemInit+0x1a4>
    2a48:	f04f 5380 	mov.w	r3, #268435456	; 0x10000000
    2a4c:	f8d3 3134 	ldr.w	r3, [r3, #308]	; 0x134
    2a50:	2a06      	cmp	r2, #6
    2a52:	f000 80a4 	beq.w	2b9e <SystemInit+0x20e>
    2a56:	f04f 5380 	mov.w	r3, #268435456	; 0x10000000
    2a5a:	f8d3 3130 	ldr.w	r3, [r3, #304]	; 0x130
    2a5e:	2b06      	cmp	r3, #6
    2a60:	d078      	beq.n	2b54 <SystemInit+0x1c4>
    2a62:	f04f 5380 	mov.w	r3, #268435456	; 0x10000000
    2a66:	f8d3 3130 	ldr.w	r3, [r3, #304]	; 0x130
    2a6a:	2b06      	cmp	r3, #6
    2a6c:	f000 80ea 	beq.w	2c44 <SystemInit+0x2b4>
    2a70:	4a97      	ldr	r2, [pc, #604]	; (2cd0 <SystemInit+0x340>)
    2a72:	f8d2 3088 	ldr.w	r3, [r2, #136]	; 0x88
    2a76:	f443 0370 	orr.w	r3, r3, #15728640	; 0xf00000
    2a7a:	f8c2 3088 	str.w	r3, [r2, #136]	; 0x88
    2a7e:	f3bf 8f4f 	dsb	sy
    2a82:	f3bf 8f6f 	isb	sy
    2a86:	f04f 2310 	mov.w	r3, #268439552	; 0x10001000
    2a8a:	f8d3 3200 	ldr.w	r3, [r3, #512]	; 0x200
    2a8e:	2b00      	cmp	r3, #0
    2a90:	f2c0 80e8 	blt.w	2c64 <SystemInit+0x2d4>
    2a94:	f04f 2310 	mov.w	r3, #268439552	; 0x10001000
    2a98:	f8d3 3204 	ldr.w	r3, [r3, #516]	; 0x204
    2a9c:	2b00      	cmp	r3, #0
    2a9e:	f2c0 80e1 	blt.w	2c64 <SystemInit+0x2d4>
    2aa2:	4b8c      	ldr	r3, [pc, #560]	; (2cd4 <SystemInit+0x344>)
    2aa4:	4a8c      	ldr	r2, [pc, #560]	; (2cd8 <SystemInit+0x348>)
    2aa6:	601a      	str	r2, [r3, #0]
    2aa8:	4770      	bx	lr
    2aaa:	f04f 4370 	mov.w	r3, #4026531840	; 0xf0000000
    2aae:	f8d3 3fe8 	ldr.w	r3, [r3, #4072]	; 0xfe8
    2ab2:	f3c3 1303 	ubfx	r3, r3, #4, #4
    2ab6:	2b03      	cmp	r3, #3
    2ab8:	d186      	bne.n	29c8 <SystemInit+0x38>
    2aba:	4b88      	ldr	r3, [pc, #544]	; (2cdc <SystemInit+0x34c>)
    2abc:	4a88      	ldr	r2, [pc, #544]	; (2ce0 <SystemInit+0x350>)
    2abe:	675a      	str	r2, [r3, #116]	; 0x74
    2ac0:	e782      	b.n	29c8 <SystemInit+0x38>
    2ac2:	f04f 4370 	mov.w	r3, #4026531840	; 0xf0000000
    2ac6:	f8d3 3fe8 	ldr.w	r3, [r3, #4072]	; 0xfe8
    2aca:	f3c3 1303 	ubfx	r3, r3, #4, #4
    2ace:	2b03      	cmp	r3, #3
    2ad0:	d197      	bne.n	2a02 <SystemInit+0x72>
    2ad2:	4a7f      	ldr	r2, [pc, #508]	; (2cd0 <SystemInit+0x340>)
    2ad4:	f8d2 30fc 	ldr.w	r3, [r2, #252]	; 0xfc
    2ad8:	f023 7380 	bic.w	r3, r3, #16777216	; 0x1000000
    2adc:	f8c2 30fc 	str.w	r3, [r2, #252]	; 0xfc
    2ae0:	e78f      	b.n	2a02 <SystemInit+0x72>
    2ae2:	f04f 4370 	mov.w	r3, #4026531840	; 0xf0000000
    2ae6:	f8d3 3fe8 	ldr.w	r3, [r3, #4072]	; 0xfe8
    2aea:	f3c3 1303 	ubfx	r3, r3, #4, #4
    2aee:	2b03      	cmp	r3, #3
    2af0:	d10a      	bne.n	2b08 <SystemInit+0x178>
    2af2:	f04f 4380 	mov.w	r3, #1073741824	; 0x40000000
    2af6:	2203      	movs	r2, #3
    2af8:	f8c3 25a0 	str.w	r2, [r3, #1440]	; 0x5a0
    2afc:	f04f 4370 	mov.w	r3, #4026531840	; 0xf0000000
    2b00:	f893 3fe0 	ldrb.w	r3, [r3, #4064]	; 0xfe0
    2b04:	2b06      	cmp	r3, #6
    2b06:	d198      	bne.n	2a3a <SystemInit+0xaa>
    2b08:	f04f 4370 	mov.w	r3, #4026531840	; 0xf0000000
    2b0c:	f8d3 3fe8 	ldr.w	r3, [r3, #4072]	; 0xfe8
    2b10:	f3c3 1303 	ubfx	r3, r3, #4, #4
    2b14:	2b03      	cmp	r3, #3
    2b16:	d190      	bne.n	2a3a <SystemInit+0xaa>
    2b18:	4b72      	ldr	r3, [pc, #456]	; (2ce4 <SystemInit+0x354>)
    2b1a:	2205      	movs	r2, #5
    2b1c:	f8c3 2610 	str.w	r2, [r3, #1552]	; 0x610
    2b20:	2201      	movs	r2, #1
    2b22:	f8c3 2688 	str.w	r2, [r3, #1672]	; 0x688
    2b26:	2200      	movs	r2, #0
    2b28:	f8c3 2618 	str.w	r2, [r3, #1560]	; 0x618
    2b2c:	223f      	movs	r2, #63	; 0x3f
    2b2e:	f8c3 2614 	str.w	r2, [r3, #1556]	; 0x614
    2b32:	e782      	b.n	2a3a <SystemInit+0xaa>
    2b34:	f04f 4270 	mov.w	r2, #4026531840	; 0xf0000000
    2b38:	f8d2 3fe8 	ldr.w	r3, [r2, #4072]	; 0xfe8
    2b3c:	f3c3 1303 	ubfx	r3, r3, #4, #4
    2b40:	f892 2fe0 	ldrb.w	r2, [r2, #4064]	; 0xfe0
    2b44:	2a06      	cmp	r2, #6
    2b46:	d02a      	beq.n	2b9e <SystemInit+0x20e>
    2b48:	f04f 4370 	mov.w	r3, #4026531840	; 0xf0000000
    2b4c:	f893 3fe0 	ldrb.w	r3, [r3, #4064]	; 0xfe0
    2b50:	2b06      	cmp	r3, #6
    2b52:	d10e      	bne.n	2b72 <SystemInit+0x1e2>
    2b54:	f04f 5280 	mov.w	r2, #268435456	; 0x10000000
    2b58:	f8d2 3258 	ldr.w	r3, [r2, #600]	; 0x258
    2b5c:	f003 034f 	and.w	r3, r3, #79	; 0x4f
    2b60:	f04f 4180 	mov.w	r1, #1073741824	; 0x40000000
    2b64:	f8c1 3ee4 	str.w	r3, [r1, #3812]	; 0xee4
    2b68:	f8d2 3130 	ldr.w	r3, [r2, #304]	; 0x130
    2b6c:	f1b3 3fff 	cmp.w	r3, #4294967295	; 0xffffffff
    2b70:	d103      	bne.n	2b7a <SystemInit+0x1ea>
    2b72:	f04f 4370 	mov.w	r3, #4026531840	; 0xf0000000
    2b76:	f893 3fe0 	ldrb.w	r3, [r3, #4064]	; 0xfe0
    2b7a:	2b06      	cmp	r3, #6
    2b7c:	f47f af71 	bne.w	2a62 <SystemInit+0xd2>
    2b80:	f04f 4380 	mov.w	r3, #1073741824	; 0x40000000
    2b84:	f8d3 3400 	ldr.w	r3, [r3, #1024]	; 0x400
    2b88:	f013 0f01 	tst.w	r3, #1
    2b8c:	f43f af69 	beq.w	2a62 <SystemInit+0xd2>
    2b90:	f04f 4380 	mov.w	r3, #1073741824	; 0x40000000
    2b94:	f06f 0201 	mvn.w	r2, #1
    2b98:	f8c3 2400 	str.w	r2, [r3, #1024]	; 0x400
    2b9c:	e761      	b.n	2a62 <SystemInit+0xd2>
    2b9e:	3b03      	subs	r3, #3
    2ba0:	2b01      	cmp	r3, #1
    2ba2:	d946      	bls.n	2c32 <SystemInit+0x2a2>
    2ba4:	f04f 5280 	mov.w	r2, #268435456	; 0x10000000
    2ba8:	f8d2 1404 	ldr.w	r1, [r2, #1028]	; 0x404
    2bac:	4b4e      	ldr	r3, [pc, #312]	; (2ce8 <SystemInit+0x358>)
    2bae:	f8c3 1520 	str.w	r1, [r3, #1312]	; 0x520
    2bb2:	f8d2 1408 	ldr.w	r1, [r2, #1032]	; 0x408
    2bb6:	f8c3 1524 	str.w	r1, [r3, #1316]	; 0x524
    2bba:	f8d2 140c 	ldr.w	r1, [r2, #1036]	; 0x40c
    2bbe:	f8c3 1528 	str.w	r1, [r3, #1320]	; 0x528
    2bc2:	f8d2 1410 	ldr.w	r1, [r2, #1040]	; 0x410
    2bc6:	f8c3 152c 	str.w	r1, [r3, #1324]	; 0x52c
    2bca:	f8d2 1414 	ldr.w	r1, [r2, #1044]	; 0x414
    2bce:	f8c3 1530 	str.w	r1, [r3, #1328]	; 0x530
    2bd2:	f8d2 1418 	ldr.w	r1, [r2, #1048]	; 0x418
    2bd6:	f8c3 1534 	str.w	r1, [r3, #1332]	; 0x534
    2bda:	f8d2 141c 	ldr.w	r1, [r2, #1052]	; 0x41c
    2bde:	f8c3 1540 	str.w	r1, [r3, #1344]	; 0x540
    2be2:	f8d2 1420 	ldr.w	r1, [r2, #1056]	; 0x420
    2be6:	f8c3 1544 	str.w	r1, [r3, #1348]	; 0x544
    2bea:	f8d2 1424 	ldr.w	r1, [r2, #1060]	; 0x424
    2bee:	f8c3 1548 	str.w	r1, [r3, #1352]	; 0x548
    2bf2:	f8d2 1428 	ldr.w	r1, [r2, #1064]	; 0x428
    2bf6:	f8c3 154c 	str.w	r1, [r3, #1356]	; 0x54c
    2bfa:	f8d2 142c 	ldr.w	r1, [r2, #1068]	; 0x42c
    2bfe:	f8c3 1550 	str.w	r1, [r3, #1360]	; 0x550
    2c02:	f8d2 1430 	ldr.w	r1, [r2, #1072]	; 0x430
    2c06:	f8c3 1554 	str.w	r1, [r3, #1364]	; 0x554
    2c0a:	f8d2 1434 	ldr.w	r1, [r2, #1076]	; 0x434
    2c0e:	f8c3 1560 	str.w	r1, [r3, #1376]	; 0x560
    2c12:	f8d2 1438 	ldr.w	r1, [r2, #1080]	; 0x438
    2c16:	f8c3 1564 	str.w	r1, [r3, #1380]	; 0x564
    2c1a:	f8d2 143c 	ldr.w	r1, [r2, #1084]	; 0x43c
    2c1e:	f8c3 1568 	str.w	r1, [r3, #1384]	; 0x568
    2c22:	f8d2 1440 	ldr.w	r1, [r2, #1088]	; 0x440
    2c26:	f8c3 156c 	str.w	r1, [r3, #1388]	; 0x56c
    2c2a:	f8d2 2444 	ldr.w	r2, [r2, #1092]	; 0x444
    2c2e:	f8c3 2570 	str.w	r2, [r3, #1392]	; 0x570
    2c32:	f04f 5380 	mov.w	r3, #268435456	; 0x10000000
    2c36:	f8d3 3130 	ldr.w	r3, [r3, #304]	; 0x130
    2c3a:	f1b3 3fff 	cmp.w	r3, #4294967295	; 0xffffffff
    2c3e:	f47f af0e 	bne.w	2a5e <SystemInit+0xce>
    2c42:	e781      	b.n	2b48 <SystemInit+0x1b8>
    2c44:	f04f 5380 	mov.w	r3, #268435456	; 0x10000000
    2c48:	f8d3 3134 	ldr.w	r3, [r3, #308]	; 0x134
    2c4c:	3b03      	subs	r3, #3
    2c4e:	2b02      	cmp	r3, #2
    2c50:	f67f af0e 	bls.w	2a70 <SystemInit+0xe0>
    2c54:	4a25      	ldr	r2, [pc, #148]	; (2cec <SystemInit+0x35c>)
    2c56:	f8d2 373c 	ldr.w	r3, [r2, #1852]	; 0x73c
    2c5a:	f443 6380 	orr.w	r3, r3, #1024	; 0x400
    2c5e:	f8c2 373c 	str.w	r3, [r2, #1852]	; 0x73c
    2c62:	e705      	b.n	2a70 <SystemInit+0xe0>
    2c64:	4b22      	ldr	r3, [pc, #136]	; (2cf0 <SystemInit+0x360>)
    2c66:	2201      	movs	r2, #1
    2c68:	f8c3 2504 	str.w	r2, [r3, #1284]	; 0x504
    2c6c:	461a      	mov	r2, r3
    2c6e:	f8d2 3400 	ldr.w	r3, [r2, #1024]	; 0x400
    2c72:	2b00      	cmp	r3, #0
    2c74:	d0fb      	beq.n	2c6e <SystemInit+0x2de>
    2c76:	f04f 2310 	mov.w	r3, #268439552	; 0x10001000
    2c7a:	2215      	movs	r2, #21
    2c7c:	f8c3 2200 	str.w	r2, [r3, #512]	; 0x200
    2c80:	4a1b      	ldr	r2, [pc, #108]	; (2cf0 <SystemInit+0x360>)
    2c82:	f8d2 3400 	ldr.w	r3, [r2, #1024]	; 0x400
    2c86:	2b00      	cmp	r3, #0
    2c88:	d0fb      	beq.n	2c82 <SystemInit+0x2f2>
    2c8a:	f04f 2310 	mov.w	r3, #268439552	; 0x10001000
    2c8e:	2215      	movs	r2, #21
    2c90:	f8c3 2204 	str.w	r2, [r3, #516]	; 0x204
    2c94:	4a16      	ldr	r2, [pc, #88]	; (2cf0 <SystemInit+0x360>)
    2c96:	f8d2 3400 	ldr.w	r3, [r2, #1024]	; 0x400
    2c9a:	2b00      	cmp	r3, #0
    2c9c:	d0fb      	beq.n	2c96 <SystemInit+0x306>
    2c9e:	4b14      	ldr	r3, [pc, #80]	; (2cf0 <SystemInit+0x360>)
    2ca0:	2200      	movs	r2, #0
    2ca2:	f8c3 2504 	str.w	r2, [r3, #1284]	; 0x504
    2ca6:	461a      	mov	r2, r3
    2ca8:	f8d2 3400 	ldr.w	r3, [r2, #1024]	; 0x400
    2cac:	2b00      	cmp	r3, #0
    2cae:	d0fb      	beq.n	2ca8 <SystemInit+0x318>
    2cb0:	f3bf 8f4f 	dsb	sy
    2cb4:	4906      	ldr	r1, [pc, #24]	; (2cd0 <SystemInit+0x340>)
    2cb6:	68ca      	ldr	r2, [r1, #12]
    2cb8:	f402 62e0 	and.w	r2, r2, #1792	; 0x700
    2cbc:	4b0d      	ldr	r3, [pc, #52]	; (2cf4 <SystemInit+0x364>)
    2cbe:	4313      	orrs	r3, r2
    2cc0:	60cb      	str	r3, [r1, #12]
    2cc2:	f3bf 8f4f 	dsb	sy
    2cc6:	bf00      	nop
    2cc8:	e7fd      	b.n	2cc6 <SystemInit+0x336>
    2cca:	bf00      	nop
    2ccc:	40013000 	.word	0x40013000
    2cd0:	e000ed00 	.word	0xe000ed00
    2cd4:	20000024 	.word	0x20000024
    2cd8:	03d09000 	.word	0x03d09000
    2cdc:	4007c000 	.word	0x4007c000
    2ce0:	baadf00d 	.word	0xbaadf00d
    2ce4:	40005000 	.word	0x40005000
    2ce8:	4000c000 	.word	0x4000c000
    2cec:	40001000 	.word	0x40001000
    2cf0:	4001e000 	.word	0x4001e000
    2cf4:	05fa0004 	.word	0x05fa0004

00002cf8 <atexit>:
    2cf8:	2300      	movs	r3, #0
    2cfa:	4601      	mov	r1, r0
    2cfc:	461a      	mov	r2, r3
    2cfe:	4618      	mov	r0, r3
    2d00:	f000 b86a 	b.w	2dd8 <__register_exitproc>

00002d04 <exit>:
    2d04:	b508      	push	{r3, lr}
    2d06:	4b06      	ldr	r3, [pc, #24]	; (2d20 <exit+0x1c>)
    2d08:	4604      	mov	r4, r0
    2d0a:	b113      	cbz	r3, 2d12 <exit+0xe>
    2d0c:	2100      	movs	r1, #0
    2d0e:	f000 f8c1 	bl	2e94 <__call_exitprocs>
    2d12:	4b04      	ldr	r3, [pc, #16]	; (2d24 <exit+0x20>)
    2d14:	681b      	ldr	r3, [r3, #0]
    2d16:	b103      	cbz	r3, 2d1a <exit+0x16>
    2d18:	4798      	blx	r3
    2d1a:	4620      	mov	r0, r4
    2d1c:	f000 f916 	bl	2f4c <_exit>
    2d20:	00002e95 	.word	0x00002e95
    2d24:	20000738 	.word	0x20000738

00002d28 <memset>:
    2d28:	4402      	add	r2, r0
    2d2a:	4603      	mov	r3, r0
    2d2c:	4293      	cmp	r3, r2
    2d2e:	d100      	bne.n	2d32 <memset+0xa>
    2d30:	4770      	bx	lr
    2d32:	f803 1b01 	strb.w	r1, [r3], #1
    2d36:	e7f9      	b.n	2d2c <memset+0x4>

00002d38 <__libc_init_array>:
    2d38:	b570      	push	{r4, r5, r6, lr}
    2d3a:	4d0d      	ldr	r5, [pc, #52]	; (2d70 <__libc_init_array+0x38>)
    2d3c:	4c0d      	ldr	r4, [pc, #52]	; (2d74 <__libc_init_array+0x3c>)
    2d3e:	1b64      	subs	r4, r4, r5
    2d40:	10a4      	asrs	r4, r4, #2
    2d42:	2600      	movs	r6, #0
    2d44:	42a6      	cmp	r6, r4
    2d46:	d109      	bne.n	2d5c <__libc_init_array+0x24>
    2d48:	4d0b      	ldr	r5, [pc, #44]	; (2d78 <__libc_init_array+0x40>)
    2d4a:	4c0c      	ldr	r4, [pc, #48]	; (2d7c <__libc_init_array+0x44>)
    2d4c:	f000 f900 	bl	2f50 <_init>
    2d50:	1b64      	subs	r4, r4, r5
    2d52:	10a4      	asrs	r4, r4, #2
    2d54:	2600      	movs	r6, #0
    2d56:	42a6      	cmp	r6, r4
    2d58:	d105      	bne.n	2d66 <__libc_init_array+0x2e>
    2d5a:	bd70      	pop	{r4, r5, r6, pc}
    2d5c:	f855 3b04 	ldr.w	r3, [r5], #4
    2d60:	4798      	blx	r3
    2d62:	3601      	adds	r6, #1
    2d64:	e7ee      	b.n	2d44 <__libc_init_array+0xc>
    2d66:	f855 3b04 	ldr.w	r3, [r5], #4
    2d6a:	4798      	blx	r3
    2d6c:	3601      	adds	r6, #1
    2d6e:	e7f2      	b.n	2d56 <__libc_init_array+0x1e>
    2d70:	2000002c 	.word	0x2000002c
    2d74:	2000002c 	.word	0x2000002c
    2d78:	2000002c 	.word	0x2000002c
    2d7c:	20000030 	.word	0x20000030

00002d80 <__libc_fini_array>:
    2d80:	b538      	push	{r3, r4, r5, lr}
    2d82:	4d07      	ldr	r5, [pc, #28]	; (2da0 <__libc_fini_array+0x20>)
    2d84:	4c07      	ldr	r4, [pc, #28]	; (2da4 <__libc_fini_array+0x24>)
    2d86:	1b64      	subs	r4, r4, r5
    2d88:	10a4      	asrs	r4, r4, #2
    2d8a:	b91c      	cbnz	r4, 2d94 <__libc_fini_array+0x14>
    2d8c:	e8bd 4038 	ldmia.w	sp!, {r3, r4, r5, lr}
    2d90:	f000 b8e4 	b.w	2f5c <_fini>
    2d94:	3c01      	subs	r4, #1
    2d96:	f855 3024 	ldr.w	r3, [r5, r4, lsl #2]
    2d9a:	4798      	blx	r3
    2d9c:	e7f5      	b.n	2d8a <__libc_fini_array+0xa>
    2d9e:	bf00      	nop
    2da0:	20000030 	.word	0x20000030
    2da4:	20000034 	.word	0x20000034

00002da8 <__retarget_lock_acquire_recursive>:
    2da8:	4770      	bx	lr

00002daa <__retarget_lock_release_recursive>:
    2daa:	4770      	bx	lr

00002dac <memcpy>:
    2dac:	440a      	add	r2, r1
    2dae:	4291      	cmp	r1, r2
    2db0:	f100 33ff 	add.w	r3, r0, #4294967295	; 0xffffffff
    2db4:	d100      	bne.n	2db8 <memcpy+0xc>
    2db6:	4770      	bx	lr
    2db8:	b510      	push	{r4, lr}
    2dba:	f811 4b01 	ldrb.w	r4, [r1], #1
    2dbe:	f803 4f01 	strb.w	r4, [r3, #1]!
    2dc2:	4291      	cmp	r1, r2
    2dc4:	d1f9      	bne.n	2dba <memcpy+0xe>
    2dc6:	bd10      	pop	{r4, pc}

00002dc8 <strlen>:
    2dc8:	4603      	mov	r3, r0
    2dca:	f813 2b01 	ldrb.w	r2, [r3], #1
    2dce:	2a00      	cmp	r2, #0
    2dd0:	d1fb      	bne.n	2dca <strlen+0x2>
    2dd2:	1a18      	subs	r0, r3, r0
    2dd4:	3801      	subs	r0, #1
    2dd6:	4770      	bx	lr

00002dd8 <__register_exitproc>:
    2dd8:	e92d 43f8 	stmdb	sp!, {r3, r4, r5, r6, r7, r8, r9, lr}
    2ddc:	f8df 80b0 	ldr.w	r8, [pc, #176]	; 2e90 <__register_exitproc+0xb8>
    2de0:	4606      	mov	r6, r0
    2de2:	f8d8 0000 	ldr.w	r0, [r8]
    2de6:	461f      	mov	r7, r3
    2de8:	460d      	mov	r5, r1
    2dea:	4691      	mov	r9, r2
    2dec:	f7ff ffdc 	bl	2da8 <__retarget_lock_acquire_recursive>
    2df0:	4b23      	ldr	r3, [pc, #140]	; (2e80 <__register_exitproc+0xa8>)
    2df2:	681c      	ldr	r4, [r3, #0]
    2df4:	b934      	cbnz	r4, 2e04 <__register_exitproc+0x2c>
    2df6:	4c23      	ldr	r4, [pc, #140]	; (2e84 <__register_exitproc+0xac>)
    2df8:	601c      	str	r4, [r3, #0]
    2dfa:	4b23      	ldr	r3, [pc, #140]	; (2e88 <__register_exitproc+0xb0>)
    2dfc:	b113      	cbz	r3, 2e04 <__register_exitproc+0x2c>
    2dfe:	681b      	ldr	r3, [r3, #0]
    2e00:	f8c4 3088 	str.w	r3, [r4, #136]	; 0x88
    2e04:	6863      	ldr	r3, [r4, #4]
    2e06:	2b1f      	cmp	r3, #31
    2e08:	dd07      	ble.n	2e1a <__register_exitproc+0x42>
    2e0a:	f8d8 0000 	ldr.w	r0, [r8]
    2e0e:	f7ff ffcc 	bl	2daa <__retarget_lock_release_recursive>
    2e12:	f04f 30ff 	mov.w	r0, #4294967295	; 0xffffffff
    2e16:	e8bd 83f8 	ldmia.w	sp!, {r3, r4, r5, r6, r7, r8, r9, pc}
    2e1a:	b32e      	cbz	r6, 2e68 <__register_exitproc+0x90>
    2e1c:	f8d4 0088 	ldr.w	r0, [r4, #136]	; 0x88
    2e20:	b968      	cbnz	r0, 2e3e <__register_exitproc+0x66>
    2e22:	4b1a      	ldr	r3, [pc, #104]	; (2e8c <__register_exitproc+0xb4>)
    2e24:	2b00      	cmp	r3, #0
    2e26:	d0f0      	beq.n	2e0a <__register_exitproc+0x32>
    2e28:	f44f 7084 	mov.w	r0, #264	; 0x108
    2e2c:	f3af 8000 	nop.w
    2e30:	2800      	cmp	r0, #0
    2e32:	d0ea      	beq.n	2e0a <__register_exitproc+0x32>
    2e34:	2300      	movs	r3, #0
    2e36:	e9c0 3340 	strd	r3, r3, [r0, #256]	; 0x100
    2e3a:	f8c4 0088 	str.w	r0, [r4, #136]	; 0x88
    2e3e:	6863      	ldr	r3, [r4, #4]
    2e40:	f840 9023 	str.w	r9, [r0, r3, lsl #2]
    2e44:	2201      	movs	r2, #1
    2e46:	409a      	lsls	r2, r3
    2e48:	eb00 0183 	add.w	r1, r0, r3, lsl #2
    2e4c:	f8d0 3100 	ldr.w	r3, [r0, #256]	; 0x100
    2e50:	4313      	orrs	r3, r2
    2e52:	f8c0 3100 	str.w	r3, [r0, #256]	; 0x100
    2e56:	2e02      	cmp	r6, #2
    2e58:	f8c1 7080 	str.w	r7, [r1, #128]	; 0x80
    2e5c:	bf02      	ittt	eq
    2e5e:	f8d0 3104 	ldreq.w	r3, [r0, #260]	; 0x104
    2e62:	4313      	orreq	r3, r2
    2e64:	f8c0 3104 	streq.w	r3, [r0, #260]	; 0x104
    2e68:	6863      	ldr	r3, [r4, #4]
    2e6a:	f8d8 0000 	ldr.w	r0, [r8]
    2e6e:	1c5a      	adds	r2, r3, #1
    2e70:	3302      	adds	r3, #2
    2e72:	6062      	str	r2, [r4, #4]
    2e74:	f844 5023 	str.w	r5, [r4, r3, lsl #2]
    2e78:	f7ff ff97 	bl	2daa <__retarget_lock_release_recursive>
    2e7c:	2000      	movs	r0, #0
    2e7e:	e7ca      	b.n	2e16 <__register_exitproc+0x3e>
    2e80:	200007cc 	.word	0x200007cc
    2e84:	20000740 	.word	0x20000740
	...
    2e90:	20000028 	.word	0x20000028

00002e94 <__call_exitprocs>:
    2e94:	e92d 4ff7 	stmdb	sp!, {r0, r1, r2, r4, r5, r6, r7, r8, r9, sl, fp, lr}
    2e98:	f8df 90a8 	ldr.w	r9, [pc, #168]	; 2f44 <__call_exitprocs+0xb0>
    2e9c:	9100      	str	r1, [sp, #0]
    2e9e:	4680      	mov	r8, r0
    2ea0:	f8d9 0000 	ldr.w	r0, [r9]
    2ea4:	f8df a0a0 	ldr.w	sl, [pc, #160]	; 2f48 <__call_exitprocs+0xb4>
    2ea8:	f7ff ff7e 	bl	2da8 <__retarget_lock_acquire_recursive>
    2eac:	f8da 4000 	ldr.w	r4, [sl]
    2eb0:	b934      	cbnz	r4, 2ec0 <__call_exitprocs+0x2c>
    2eb2:	f8d9 0000 	ldr.w	r0, [r9]
    2eb6:	b003      	add	sp, #12
    2eb8:	e8bd 4ff0 	ldmia.w	sp!, {r4, r5, r6, r7, r8, r9, sl, fp, lr}
    2ebc:	f7ff bf75 	b.w	2daa <__retarget_lock_release_recursive>
    2ec0:	6865      	ldr	r5, [r4, #4]
    2ec2:	f8d4 7088 	ldr.w	r7, [r4, #136]	; 0x88
    2ec6:	1e6e      	subs	r6, r5, #1
    2ec8:	3501      	adds	r5, #1
    2eca:	eb04 0585 	add.w	r5, r4, r5, lsl #2
    2ece:	f107 0b80 	add.w	fp, r7, #128	; 0x80
    2ed2:	2e00      	cmp	r6, #0
    2ed4:	dbed      	blt.n	2eb2 <__call_exitprocs+0x1e>
    2ed6:	9b00      	ldr	r3, [sp, #0]
    2ed8:	b143      	cbz	r3, 2eec <__call_exitprocs+0x58>
    2eda:	b917      	cbnz	r7, 2ee2 <__call_exitprocs+0x4e>
    2edc:	3e01      	subs	r6, #1
    2ede:	3d04      	subs	r5, #4
    2ee0:	e7f7      	b.n	2ed2 <__call_exitprocs+0x3e>
    2ee2:	f85b 2026 	ldr.w	r2, [fp, r6, lsl #2]
    2ee6:	9b00      	ldr	r3, [sp, #0]
    2ee8:	429a      	cmp	r2, r3
    2eea:	d1f7      	bne.n	2edc <__call_exitprocs+0x48>
    2eec:	6861      	ldr	r1, [r4, #4]
    2eee:	682a      	ldr	r2, [r5, #0]
    2ef0:	3901      	subs	r1, #1
    2ef2:	42b1      	cmp	r1, r6
    2ef4:	bf16      	itet	ne
    2ef6:	2300      	movne	r3, #0
    2ef8:	6066      	streq	r6, [r4, #4]
    2efa:	602b      	strne	r3, [r5, #0]
    2efc:	2a00      	cmp	r2, #0
    2efe:	d0ed      	beq.n	2edc <__call_exitprocs+0x48>
    2f00:	6863      	ldr	r3, [r4, #4]
    2f02:	9301      	str	r3, [sp, #4]
    2f04:	b13f      	cbz	r7, 2f16 <__call_exitprocs+0x82>
    2f06:	f8d7 1100 	ldr.w	r1, [r7, #256]	; 0x100
    2f0a:	2301      	movs	r3, #1
    2f0c:	fa03 fc06 	lsl.w	ip, r3, r6
    2f10:	ea1c 0f01 	tst.w	ip, r1
    2f14:	d109      	bne.n	2f2a <__call_exitprocs+0x96>
    2f16:	4790      	blx	r2
    2f18:	6861      	ldr	r1, [r4, #4]
    2f1a:	9b01      	ldr	r3, [sp, #4]
    2f1c:	f8da 2000 	ldr.w	r2, [sl]
    2f20:	4299      	cmp	r1, r3
    2f22:	d1c3      	bne.n	2eac <__call_exitprocs+0x18>
    2f24:	4294      	cmp	r4, r2
    2f26:	d0d9      	beq.n	2edc <__call_exitprocs+0x48>
    2f28:	e7c0      	b.n	2eac <__call_exitprocs+0x18>
    2f2a:	f8d7 0104 	ldr.w	r0, [r7, #260]	; 0x104
    2f2e:	f857 1026 	ldr.w	r1, [r7, r6, lsl #2]
    2f32:	ea1c 0f00 	tst.w	ip, r0
    2f36:	d102      	bne.n	2f3e <__call_exitprocs+0xaa>
    2f38:	4640      	mov	r0, r8
    2f3a:	4790      	blx	r2
    2f3c:	e7ec      	b.n	2f18 <__call_exitprocs+0x84>
    2f3e:	4608      	mov	r0, r1
    2f40:	4790      	blx	r2
    2f42:	e7e9      	b.n	2f18 <__call_exitprocs+0x84>
    2f44:	20000028 	.word	0x20000028
    2f48:	200007cc 	.word	0x200007cc

00002f4c <_exit>:
    2f4c:	e7fe      	b.n	2f4c <_exit>
    2f4e:	bf00      	nop

00002f50 <_init>:
    2f50:	b5f8      	push	{r3, r4, r5, r6, r7, lr}
    2f52:	bf00      	nop
    2f54:	bcf8      	pop	{r3, r4, r5, r6, r7}
    2f56:	bc08      	pop	{r3}
    2f58:	469e      	mov	lr, r3
    2f5a:	4770      	bx	lr

00002f5c <_fini>:
    2f5c:	b5f8      	push	{r3, r4, r5, r6, r7, lr}
    2f5e:	bf00      	nop
    2f60:	bcf8      	pop	{r3, r4, r5, r6, r7}
    2f62:	bc08      	pop	{r3}
    2f64:	469e      	mov	lr, r3
    2f66:	4770      	bx	lr
    2f68:	ffffffff 	.word	0xffffffff
    2f6c:	ffffffff 	.word	0xffffffff
    2f70:	ffffffff 	.word	0xffffffff
    2f74:	ffffffff 	.word	0xffffffff
	...
    2f80:	01d60000 	.word	0x01d60000
    2f84:	00000106 	.word	0x00000106

00002f88 <nrf_log_backend_uart_api>:
    2f88:	0000045d 00000429 000003d5 74726175     ]...).......uart
    2f98:	676f6c5f 6361625f 646e656b 00000000     _log_backend....
    2fa8:	6b636142 73646e65 756c6620 64656873     Backends flushed
    2fb8:	00000000 00707061                       ....app.

00002fc0 <m_log_push_ringbuf>:
    2fc0:	20000588 0000007f 20000608 3b315b1b     ... ....... .[1;
    2fd0:	006d3133 6f4c7325 64207367 70706f72     31m.%sLogs dropp
    2fe0:	28206465 25296425 000a0d73 6d305b1b     ed (%d)%s....[0m
    2ff0:	00000000 00007325 3e73253c 3a732520     ....%s..<%s> %s:
    3000:	00000020 00000a0d 32302520 00000078      ....... %02x...
    3010:	00202020 0000007c 00006325 3b315b1b        .|...%c...[1;
    3020:	006d3033 3b315b1b 006d3233 3b315b1b     30m..[1;32m..[1;
    3030:	006d3333 3b315b1b 006d3433 3b315b1b     33m..[1;34m..[1;
    3040:	006d3533 3b315b1b 006d3633 3b315b1b     35m..[1;36m..[1;
    3050:	006d3733 6f727265 00000072 6e726177     37m.error...warn
    3060:	00676e69 6f666e69 00000000 75626564     ing.info....debu
    3070:	00000067                                g...

00003074 <m_colors>:
    3074:	00002fec 0000301c 00002fcc 00003024     ./...0.../..$0..
    3084:	0000302c 00003034 0000303c 00003044     ,0..40..<0..D0..
    3094:	0000304c                                L0..

00003098 <severity_names>:
    3098:	00000000 00003054 0000305c 00003064     ....T0..\0..d0..
    30a8:	0000306c                                l0..

000030ac <m_board_led_list>:
    30ac:	14131211 5f707061 74747562 00006e6f     ....app_button..
    30bc:	61746146 7265206c 00726f72 74737953     Fatal error.Syst
    30cc:	72206d65 74657365 00000000 5f707061     em reset....app_
    30dc:	656d6974 00000072                       timer...

000030e4 <_aV2C.0>:
    30e4:	33323130 37363534 42413938 46454443     0123456789ABCDEF
    30f4:	74726f73 7473696c 00000000 ffffffff     sortlist........
    3104:	00ff0600 40000000 00000000 4f495047     .......@....GPIO
    3114:	00004554 00535250 4d495053 00000000     TE..PRS.SPIM....
    3124:	54524155 00000000 54524155 00000045     UART....UARTE...
    3134:	6e617254 72656673 6d6f6320 74656c70     Transfer complet
    3144:	002e6465 63655220 65766965 00003a64     ed.. Received:..
    3154:	20495053 6d617865 20656c70 72617473     SPI example star
    3164:	2e646574 00000000 ffffffff 0000ff06     ted.............
    3174:	40000000 00000000 00000000              ...@........

00003180 <delay_machine_code.0>:
    3180:	d8fd3803 00004770                       .8..pG..

00003188 <spi>:
    3188:	00000000 40003000 00000000 00000001     .....0.@........

00003198 <_ctype_>:
    3198:	20202000 20202020 28282020 20282828     .         ((((( 
    31a8:	20202020 20202020 20202020 20202020                     
    31b8:	10108820 10101010 10101010 10101010      ...............
    31c8:	04040410 04040404 10040404 10101010     ................
    31d8:	41411010 41414141 01010101 01010101     ..AAAAAA........
    31e8:	01010101 01010101 01010101 10101010     ................
    31f8:	42421010 42424242 02020202 02020202     ..BBBBBB........
    3208:	02020202 02020202 02020202 10101010     ................
    3218:	00000020 00000000 00000000 00000000      ...............
	...

0000329c <__EH_FRAME_BEGIN__>:
    329c:	00000000                                ....
