
spi-o2.elf:     file format elf32-littlearm


Disassembly of section .text:

00000000 <__isr_vector>:
       0:	20010000 	.word	0x20010000
       4:	000002b1 	.word	0x000002b1
       8:	000002d9 	.word	0x000002d9
       c:	000002db 	.word	0x000002db
      10:	000002dd 	.word	0x000002dd
      14:	000002df 	.word	0x000002df
      18:	000002e1 	.word	0x000002e1
	...
      2c:	000002e3 	.word	0x000002e3
      30:	000002e5 	.word	0x000002e5
      34:	00000000 	.word	0x00000000
      38:	000002e7 	.word	0x000002e7
      3c:	000002e9 	.word	0x000002e9
      40:	000002eb 	.word	0x000002eb
      44:	000002eb 	.word	0x000002eb
      48:	00001b5d 	.word	0x00001b5d
      4c:	00001bbd 	.word	0x00001bbd
      50:	000002eb 	.word	0x000002eb
      54:	000002eb 	.word	0x000002eb
      58:	000019d1 	.word	0x000019d1
      5c:	000002eb 	.word	0x000002eb
      60:	000002eb 	.word	0x000002eb
      64:	000002eb 	.word	0x000002eb
      68:	000002eb 	.word	0x000002eb
      6c:	000002eb 	.word	0x000002eb
      70:	000002eb 	.word	0x000002eb
      74:	000002eb 	.word	0x000002eb
      78:	000002eb 	.word	0x000002eb
      7c:	000002eb 	.word	0x000002eb
      80:	000002eb 	.word	0x000002eb
      84:	00000ed5 	.word	0x00000ed5
      88:	000002eb 	.word	0x000002eb
      8c:	000002eb 	.word	0x000002eb
      90:	000002eb 	.word	0x000002eb
      94:	000002eb 	.word	0x000002eb
      98:	000002eb 	.word	0x000002eb
      9c:	000002eb 	.word	0x000002eb
      a0:	000002eb 	.word	0x000002eb
      a4:	000002eb 	.word	0x000002eb
      a8:	000002eb 	.word	0x000002eb
      ac:	000002eb 	.word	0x000002eb
      b0:	000002eb 	.word	0x000002eb
      b4:	000002eb 	.word	0x000002eb
	...
      c0:	000002eb 	.word	0x000002eb
      c4:	000002eb 	.word	0x000002eb
      c8:	000002eb 	.word	0x000002eb
      cc:	000002eb 	.word	0x000002eb
      d0:	000002eb 	.word	0x000002eb
      d4:	000002eb 	.word	0x000002eb
      d8:	000002eb 	.word	0x000002eb
	...

00000200 <__do_global_dtors_aux>:
     200:	b510      	push	{r4, lr}
     202:	4c05      	ldr	r4, [pc, #20]	; (218 <__do_global_dtors_aux+0x18>)
     204:	7823      	ldrb	r3, [r4, #0]
     206:	b933      	cbnz	r3, 216 <__do_global_dtors_aux+0x16>
     208:	4b04      	ldr	r3, [pc, #16]	; (21c <__do_global_dtors_aux+0x1c>)
     20a:	b113      	cbz	r3, 212 <__do_global_dtors_aux+0x12>
     20c:	4804      	ldr	r0, [pc, #16]	; (220 <__do_global_dtors_aux+0x20>)
     20e:	f3af 8000 	nop.w
     212:	2301      	movs	r3, #1
     214:	7023      	strb	r3, [r4, #0]
     216:	bd10      	pop	{r4, pc}
     218:	20000034 	.word	0x20000034
     21c:	00000000 	.word	0x00000000
     220:	00003448 	.word	0x00003448

00000224 <frame_dummy>:
     224:	b508      	push	{r3, lr}
     226:	4b03      	ldr	r3, [pc, #12]	; (234 <frame_dummy+0x10>)
     228:	b11b      	cbz	r3, 232 <frame_dummy+0xe>
     22a:	4903      	ldr	r1, [pc, #12]	; (238 <frame_dummy+0x14>)
     22c:	4803      	ldr	r0, [pc, #12]	; (23c <frame_dummy+0x18>)
     22e:	f3af 8000 	nop.w
     232:	bd08      	pop	{r3, pc}
     234:	00000000 	.word	0x00000000
     238:	20000038 	.word	0x20000038
     23c:	00003448 	.word	0x00003448

00000240 <_stack_init>:
     240:	f5a3 3a80 	sub.w	sl, r3, #65536	; 0x10000
     244:	4770      	bx	lr
     246:	bf00      	nop

00000248 <_mainCRTStartup>:
     248:	4b15      	ldr	r3, [pc, #84]	; (2a0 <_mainCRTStartup+0x58>)
     24a:	2b00      	cmp	r3, #0
     24c:	bf08      	it	eq
     24e:	4b11      	ldreq	r3, [pc, #68]	; (294 <_mainCRTStartup+0x4c>)
     250:	469d      	mov	sp, r3
     252:	f7ff fff5 	bl	240 <_stack_init>
     256:	2100      	movs	r1, #0
     258:	468b      	mov	fp, r1
     25a:	460f      	mov	r7, r1
     25c:	4811      	ldr	r0, [pc, #68]	; (2a4 <_mainCRTStartup+0x5c>)
     25e:	4a12      	ldr	r2, [pc, #72]	; (2a8 <_mainCRTStartup+0x60>)
     260:	1a12      	subs	r2, r2, r0
     262:	f002 fe31 	bl	2ec8 <memset>
     266:	4b0c      	ldr	r3, [pc, #48]	; (298 <_mainCRTStartup+0x50>)
     268:	2b00      	cmp	r3, #0
     26a:	d000      	beq.n	26e <_mainCRTStartup+0x26>
     26c:	4798      	blx	r3
     26e:	4b0b      	ldr	r3, [pc, #44]	; (29c <_mainCRTStartup+0x54>)
     270:	2b00      	cmp	r3, #0
     272:	d000      	beq.n	276 <_mainCRTStartup+0x2e>
     274:	4798      	blx	r3
     276:	2000      	movs	r0, #0
     278:	2100      	movs	r1, #0
     27a:	0004      	movs	r4, r0
     27c:	000d      	movs	r5, r1
     27e:	480b      	ldr	r0, [pc, #44]	; (2ac <_mainCRTStartup+0x64>)
     280:	f002 fe0a 	bl	2e98 <atexit>
     284:	f002 fe28 	bl	2ed8 <__libc_init_array>
     288:	0020      	movs	r0, r4
     28a:	0029      	movs	r1, r5
     28c:	f002 fbbe 	bl	2a0c <main>
     290:	f002 fe08 	bl	2ea4 <exit>
     294:	00080000 	.word	0x00080000
	...
     2a0:	20010000 	.word	0x20010000
     2a4:	20000034 	.word	0x20000034
     2a8:	200007d0 	.word	0x200007d0
     2ac:	00002f21 	.word	0x00002f21

000002b0 <Reset_Handler>:
     2b0:	4906      	ldr	r1, [pc, #24]	; (2cc <Reset_Handler+0x1c>)
     2b2:	4a07      	ldr	r2, [pc, #28]	; (2d0 <Reset_Handler+0x20>)
     2b4:	4b07      	ldr	r3, [pc, #28]	; (2d4 <Reset_Handler+0x24>)
     2b6:	1a9b      	subs	r3, r3, r2
     2b8:	dd03      	ble.n	2c2 <Reset_Handler+0x12>
     2ba:	3b04      	subs	r3, #4
     2bc:	58c8      	ldr	r0, [r1, r3]
     2be:	50d0      	str	r0, [r2, r3]
     2c0:	dcfb      	bgt.n	2ba <Reset_Handler+0xa>
     2c2:	f002 fc1b 	bl	2afc <SystemInit>
     2c6:	f7ff ffbf 	bl	248 <_mainCRTStartup>
     2ca:	0000      	.short	0x0000
     2cc:	000034c0 	.word	0x000034c0
     2d0:	20000000 	.word	0x20000000
     2d4:	20000034 	.word	0x20000034

000002d8 <NMI_Handler>:
     2d8:	e7fe      	b.n	2d8 <NMI_Handler>

000002da <HardFault_Handler>:
     2da:	e7fe      	b.n	2da <HardFault_Handler>

000002dc <MemoryManagement_Handler>:
     2dc:	e7fe      	b.n	2dc <MemoryManagement_Handler>

000002de <BusFault_Handler>:
     2de:	e7fe      	b.n	2de <BusFault_Handler>

000002e0 <UsageFault_Handler>:
     2e0:	e7fe      	b.n	2e0 <UsageFault_Handler>

000002e2 <SVC_Handler>:
     2e2:	e7fe      	b.n	2e2 <SVC_Handler>

000002e4 <DebugMon_Handler>:
     2e4:	e7fe      	b.n	2e4 <DebugMon_Handler>

000002e6 <PendSV_Handler>:
     2e6:	e7fe      	b.n	2e6 <PendSV_Handler>

000002e8 <SysTick_Handler>:
     2e8:	e7fe      	b.n	2e8 <SysTick_Handler>

000002ea <Default_Handler>:
     2ea:	e7fe      	b.n	2ea <Default_Handler>

000002ec <nrf_log_backend_serial_put>:
     2ec:	b5f0      	push	{r4, r5, r6, r7, lr}
     2ee:	b095      	sub	sp, #84	; 0x54
     2f0:	4608      	mov	r0, r1
     2f2:	2400      	movs	r4, #0
     2f4:	460e      	mov	r6, r1
     2f6:	4617      	mov	r7, r2
     2f8:	461d      	mov	r5, r3
     2fa:	f001 fa4d 	bl	1798 <nrf_memobj_get>
     2fe:	9a1a      	ldr	r2, [sp, #104]	; 0x68
     300:	920d      	str	r2, [sp, #52]	; 0x34
     302:	4623      	mov	r3, r4
     304:	2208      	movs	r2, #8
     306:	a905      	add	r1, sp, #20
     308:	4630      	mov	r0, r6
     30a:	e9cd 5409 	strd	r5, r4, [sp, #36]	; 0x24
     30e:	9708      	str	r7, [sp, #32]
     310:	f88d 402c 	strb.w	r4, [sp, #44]	; 0x2c
     314:	940c      	str	r4, [sp, #48]	; 0x30
     316:	f001 fa7b 	bl	1810 <nrf_memobj_read>
     31a:	e9dd 2106 	ldrd	r2, r1, [sp, #24]
     31e:	f89d 3014 	ldrb.w	r3, [sp, #20]
     322:	f88d 4011 	strb.w	r4, [sp, #17]
     326:	e9cd 1202 	strd	r1, r2, [sp, #8]
     32a:	f003 0203 	and.w	r2, r3, #3
     32e:	2a01      	cmp	r2, #1
     330:	d028      	beq.n	384 <nrf_log_backend_serial_put+0x98>
     332:	2a02      	cmp	r2, #2
     334:	d004      	beq.n	340 <nrf_log_backend_serial_put+0x54>
     336:	4630      	mov	r0, r6
     338:	f001 fa32 	bl	17a0 <nrf_memobj_put>
     33c:	b015      	add	sp, #84	; 0x54
     33e:	bdf0      	pop	{r4, r5, r6, r7, pc}
     340:	f8bd 5016 	ldrh.w	r5, [sp, #22]
     344:	f3c3 03c2 	ubfx	r3, r3, #3, #3
     348:	f3c5 1589 	ubfx	r5, r5, #6, #10
     34c:	f88d 3010 	strb.w	r3, [sp, #16]
     350:	2708      	movs	r7, #8
     352:	2d08      	cmp	r5, #8
     354:	462c      	mov	r4, r5
     356:	bf28      	it	cs
     358:	2408      	movcs	r4, #8
     35a:	463b      	mov	r3, r7
     35c:	4622      	mov	r2, r4
     35e:	a90e      	add	r1, sp, #56	; 0x38
     360:	4630      	mov	r0, r6
     362:	f001 fa55 	bl	1810 <nrf_memobj_read>
     366:	1b2d      	subs	r5, r5, r4
     368:	ab08      	add	r3, sp, #32
     36a:	aa02      	add	r2, sp, #8
     36c:	4621      	mov	r1, r4
     36e:	a80e      	add	r0, sp, #56	; 0x38
     370:	4427      	add	r7, r4
     372:	f000 fc93 	bl	c9c <nrf_log_hexdump_entry_process>
     376:	2d00      	cmp	r5, #0
     378:	d1eb      	bne.n	352 <nrf_log_backend_serial_put+0x66>
     37a:	4630      	mov	r0, r6
     37c:	f001 fa10 	bl	17a0 <nrf_memobj_put>
     380:	b015      	add	sp, #84	; 0x54
     382:	bdf0      	pop	{r4, r5, r6, r7, pc}
     384:	f8bd 1014 	ldrh.w	r1, [sp, #20]
     388:	9805      	ldr	r0, [sp, #20]
     38a:	f3c1 1283 	ubfx	r2, r1, #6, #4
     38e:	f3c3 03c2 	ubfx	r3, r3, #3, #3
     392:	f3c0 2595 	ubfx	r5, r0, #10, #22
     396:	f3c1 1483 	ubfx	r4, r1, #6, #4
     39a:	f88d 3010 	strb.w	r3, [sp, #16]
     39e:	a90e      	add	r1, sp, #56	; 0x38
     3a0:	4630      	mov	r0, r6
     3a2:	0092      	lsls	r2, r2, #2
     3a4:	2308      	movs	r3, #8
     3a6:	f001 fa33 	bl	1810 <nrf_memobj_read>
     3aa:	ab08      	add	r3, sp, #32
     3ac:	9300      	str	r3, [sp, #0]
     3ae:	4622      	mov	r2, r4
     3b0:	ab02      	add	r3, sp, #8
     3b2:	a90e      	add	r1, sp, #56	; 0x38
     3b4:	4628      	mov	r0, r5
     3b6:	f000 fbfb 	bl	bb0 <nrf_log_std_entry_process>
     3ba:	4630      	mov	r0, r6
     3bc:	f001 f9f0 	bl	17a0 <nrf_memobj_put>
     3c0:	b015      	add	sp, #84	; 0x54
     3c2:	bdf0      	pop	{r4, r5, r6, r7, pc}

000003c4 <uart_evt_handler>:
     3c4:	4b01      	ldr	r3, [pc, #4]	; (3cc <uart_evt_handler+0x8>)
     3c6:	2201      	movs	r2, #1
     3c8:	701a      	strb	r2, [r3, #0]
     3ca:	4770      	bx	lr
     3cc:	20000094 	.word	0x20000094

000003d0 <nrf_log_backend_uart_flush>:
     3d0:	4770      	bx	lr
     3d2:	bf00      	nop

000003d4 <nrf_log_backend_uart_put>:
     3d4:	b500      	push	{lr}
     3d6:	b083      	sub	sp, #12
     3d8:	4b04      	ldr	r3, [pc, #16]	; (3ec <nrf_log_backend_uart_put+0x18>)
     3da:	9300      	str	r3, [sp, #0]
     3dc:	4a04      	ldr	r2, [pc, #16]	; (3f0 <nrf_log_backend_uart_put+0x1c>)
     3de:	2340      	movs	r3, #64	; 0x40
     3e0:	f7ff ff84 	bl	2ec <nrf_log_backend_serial_put>
     3e4:	b003      	add	sp, #12
     3e6:	f85d fb04 	ldr.w	pc, [sp], #4
     3ea:	bf00      	nop
     3ec:	000003f5 	.word	0x000003f5
     3f0:	20000054 	.word	0x20000054

000003f4 <serial_tx>:
     3f4:	b538      	push	{r3, r4, r5, lr}
     3f6:	480f      	ldr	r0, [pc, #60]	; (434 <serial_tx+0x40>)
     3f8:	4d0f      	ldr	r5, [pc, #60]	; (438 <serial_tx+0x44>)
     3fa:	7803      	ldrb	r3, [r0, #0]
     3fc:	4c0f      	ldr	r4, [pc, #60]	; (43c <serial_tx+0x48>)
     3fe:	5ceb      	ldrb	r3, [r5, r3]
     400:	f04f 0c00 	mov.w	ip, #0
     404:	f884 c000 	strb.w	ip, [r4]
     408:	b2d2      	uxtb	r2, r2
     40a:	b153      	cbz	r3, 422 <serial_tx+0x2e>
     40c:	3004      	adds	r0, #4
     40e:	f002 fa77 	bl	2900 <nrfx_uarte_tx>
     412:	b958      	cbnz	r0, 42c <serial_tx+0x38>
     414:	4b0a      	ldr	r3, [pc, #40]	; (440 <serial_tx+0x4c>)
     416:	781a      	ldrb	r2, [r3, #0]
     418:	b112      	cbz	r2, 420 <serial_tx+0x2c>
     41a:	7823      	ldrb	r3, [r4, #0]
     41c:	2b00      	cmp	r3, #0
     41e:	d0fb      	beq.n	418 <serial_tx+0x24>
     420:	bd38      	pop	{r3, r4, r5, pc}
     422:	300c      	adds	r0, #12
     424:	f001 ffc4 	bl	23b0 <nrfx_uart_tx>
     428:	2800      	cmp	r0, #0
     42a:	d0f3      	beq.n	414 <serial_tx+0x20>
     42c:	f000 fcfa 	bl	e24 <app_error_handler_bare>
     430:	e7f0      	b.n	414 <serial_tx+0x20>
     432:	bf00      	nop
     434:	20000000 	.word	0x20000000
     438:	20000650 	.word	0x20000650
     43c:	20000094 	.word	0x20000094
     440:	20000050 	.word	0x20000050

00000444 <nrf_log_backend_uart_panic_set>:
     444:	b510      	push	{r4, lr}
     446:	4815      	ldr	r0, [pc, #84]	; (49c <nrf_log_backend_uart_panic_set+0x58>)
     448:	4a15      	ldr	r2, [pc, #84]	; (4a0 <nrf_log_backend_uart_panic_set+0x5c>)
     44a:	7803      	ldrb	r3, [r0, #0]
     44c:	5cd3      	ldrb	r3, [r2, r3]
     44e:	b088      	sub	sp, #32
     450:	b1c3      	cbz	r3, 484 <nrf_log_backend_uart_panic_set+0x40>
     452:	3004      	adds	r0, #4
     454:	f002 f9b4 	bl	27c0 <nrfx_uarte_uninit>
     458:	4c12      	ldr	r4, [pc, #72]	; (4a4 <nrf_log_backend_uart_panic_set+0x60>)
     45a:	cc0f      	ldmia	r4!, {r0, r1, r2, r3}
     45c:	46ec      	mov	ip, sp
     45e:	e8ac 000f 	stmia.w	ip!, {r0, r1, r2, r3}
     462:	e894 000f 	ldmia.w	r4, {r0, r1, r2, r3}
     466:	e88c 000f 	stmia.w	ip, {r0, r1, r2, r3}
     46a:	2306      	movs	r3, #6
     46c:	480b      	ldr	r0, [pc, #44]	; (49c <nrf_log_backend_uart_panic_set+0x58>)
     46e:	9300      	str	r3, [sp, #0]
     470:	2200      	movs	r2, #0
     472:	4669      	mov	r1, sp
     474:	f001 fa72 	bl	195c <nrf_drv_uart_init>
     478:	b940      	cbnz	r0, 48c <nrf_log_backend_uart_panic_set+0x48>
     47a:	4b0b      	ldr	r3, [pc, #44]	; (4a8 <nrf_log_backend_uart_panic_set+0x64>)
     47c:	2200      	movs	r2, #0
     47e:	701a      	strb	r2, [r3, #0]
     480:	b008      	add	sp, #32
     482:	bd10      	pop	{r4, pc}
     484:	300c      	adds	r0, #12
     486:	f001 ff25 	bl	22d4 <nrfx_uart_uninit>
     48a:	e7e5      	b.n	458 <nrf_log_backend_uart_panic_set+0x14>
     48c:	f000 fcca 	bl	e24 <app_error_handler_bare>
     490:	4b05      	ldr	r3, [pc, #20]	; (4a8 <nrf_log_backend_uart_panic_set+0x64>)
     492:	2200      	movs	r2, #0
     494:	701a      	strb	r2, [r3, #0]
     496:	b008      	add	sp, #32
     498:	bd10      	pop	{r4, pc}
     49a:	bf00      	nop
     49c:	20000000 	.word	0x20000000
     4a0:	20000650 	.word	0x20000650
     4a4:	00003108 	.word	0x00003108
     4a8:	20000050 	.word	0x20000050

000004ac <nrf_log_backend_uart_init>:
     4ac:	b510      	push	{r4, lr}
     4ae:	4c0f      	ldr	r4, [pc, #60]	; (4ec <nrf_log_backend_uart_init+0x40>)
     4b0:	cc0f      	ldmia	r4!, {r0, r1, r2, r3}
     4b2:	b088      	sub	sp, #32
     4b4:	46ec      	mov	ip, sp
     4b6:	e8ac 000f 	stmia.w	ip!, {r0, r1, r2, r3}
     4ba:	e894 000f 	ldmia.w	r4, {r0, r1, r2, r3}
     4be:	e88c 000f 	stmia.w	ip, {r0, r1, r2, r3}
     4c2:	2306      	movs	r3, #6
     4c4:	4a0a      	ldr	r2, [pc, #40]	; (4f0 <nrf_log_backend_uart_init+0x44>)
     4c6:	480b      	ldr	r0, [pc, #44]	; (4f4 <nrf_log_backend_uart_init+0x48>)
     4c8:	9300      	str	r3, [sp, #0]
     4ca:	4669      	mov	r1, sp
     4cc:	f001 fa46 	bl	195c <nrf_drv_uart_init>
     4d0:	b920      	cbnz	r0, 4dc <nrf_log_backend_uart_init+0x30>
     4d2:	4b09      	ldr	r3, [pc, #36]	; (4f8 <nrf_log_backend_uart_init+0x4c>)
     4d4:	2201      	movs	r2, #1
     4d6:	701a      	strb	r2, [r3, #0]
     4d8:	b008      	add	sp, #32
     4da:	bd10      	pop	{r4, pc}
     4dc:	f000 fca2 	bl	e24 <app_error_handler_bare>
     4e0:	4b05      	ldr	r3, [pc, #20]	; (4f8 <nrf_log_backend_uart_init+0x4c>)
     4e2:	2201      	movs	r2, #1
     4e4:	701a      	strb	r2, [r3, #0]
     4e6:	b008      	add	sp, #32
     4e8:	bd10      	pop	{r4, pc}
     4ea:	bf00      	nop
     4ec:	00003108 	.word	0x00003108
     4f0:	000003c5 	.word	0x000003c5
     4f4:	20000000 	.word	0x20000000
     4f8:	20000050 	.word	0x20000050

000004fc <nrf_log_default_backends_init>:
     4fc:	b508      	push	{r3, lr}
     4fe:	f7ff ffd5 	bl	4ac <nrf_log_backend_uart_init>
     502:	4804      	ldr	r0, [pc, #16]	; (514 <nrf_log_default_backends_init+0x18>)
     504:	2104      	movs	r1, #4
     506:	f000 facd 	bl	aa4 <nrf_log_backend_add>
     50a:	4b03      	ldr	r3, [pc, #12]	; (518 <nrf_log_default_backends_init+0x1c>)
     50c:	2201      	movs	r2, #1
     50e:	715a      	strb	r2, [r3, #5]
     510:	bd08      	pop	{r3, pc}
     512:	bf00      	nop
     514:	00003494 	.word	0x00003494
     518:	20000014 	.word	0x20000014

0000051c <buf_prealloc>:
     51c:	e92d 4ff0 	stmdb	sp!, {r4, r5, r6, r7, r8, r9, sl, fp, lr}
     520:	4c48      	ldr	r4, [pc, #288]	; (644 <buf_prealloc+0x128>)
     522:	b087      	sub	sp, #28
     524:	4681      	mov	r9, r0
     526:	460d      	mov	r5, r1
     528:	2000      	movs	r0, #0
     52a:	9201      	str	r2, [sp, #4]
     52c:	f000 fcc0 	bl	eb0 <app_util_critical_region_enter>
     530:	6862      	ldr	r2, [r4, #4]
     532:	602a      	str	r2, [r5, #0]
     534:	68a3      	ldr	r3, [r4, #8]
     536:	f503 7380 	add.w	r3, r3, #256	; 0x100
     53a:	f109 0702 	add.w	r7, r9, #2
     53e:	1a9b      	subs	r3, r3, r2
     540:	429f      	cmp	r7, r3
     542:	d963      	bls.n	60c <buf_prealloc+0xf0>
     544:	f204 461c 	addw	r6, r4, #1052	; 0x41c
     548:	f504 6883 	add.w	r8, r4, #1048	; 0x418
     54c:	f204 4514 	addw	r5, r4, #1044	; 0x414
     550:	e02a      	b.n	5a8 <buf_prealloc+0x8c>
     552:	eb04 0182 	add.w	r1, r4, r2, lsl #2
     556:	1c5a      	adds	r2, r3, #1
     558:	68c9      	ldr	r1, [r1, #12]
     55a:	9103      	str	r1, [sp, #12]
     55c:	b2d2      	uxtb	r2, r2
     55e:	f001 0003 	and.w	r0, r1, #3
     562:	eb04 0282 	add.w	r2, r4, r2, lsl #2
     566:	2801      	cmp	r0, #1
     568:	68d1      	ldr	r1, [r2, #12]
     56a:	f103 0a02 	add.w	sl, r3, #2
     56e:	d045      	beq.n	5fc <buf_prealloc+0xe0>
     570:	2802      	cmp	r0, #2
     572:	d139      	bne.n	5e8 <buf_prealloc+0xcc>
     574:	f8bd 200e 	ldrh.w	r2, [sp, #14]
     578:	f3c2 1289 	ubfx	r2, r2, #6, #10
     57c:	3203      	adds	r2, #3
     57e:	ea4f 4b11 	mov.w	fp, r1, lsr #16
     582:	eb0a 0a92 	add.w	sl, sl, r2, lsr #2
     586:	4628      	mov	r0, r5
     588:	f000 fcdc 	bl	f44 <nrf_atomic_flag_clear_fetch>
     58c:	b108      	cbz	r0, 592 <buf_prealloc+0x76>
     58e:	f8c4 a008 	str.w	sl, [r4, #8]
     592:	4659      	mov	r1, fp
     594:	4630      	mov	r0, r6
     596:	f000 fcb1 	bl	efc <nrf_atomic_u32_add>
     59a:	e9d4 2301 	ldrd	r2, r3, [r4, #4]
     59e:	f503 7380 	add.w	r3, r3, #256	; 0x100
     5a2:	1a9b      	subs	r3, r3, r2
     5a4:	429f      	cmp	r7, r3
     5a6:	d931      	bls.n	60c <buf_prealloc+0xf0>
     5a8:	2101      	movs	r1, #1
     5aa:	4630      	mov	r0, r6
     5ac:	f000 fca6 	bl	efc <nrf_atomic_u32_add>
     5b0:	4640      	mov	r0, r8
     5b2:	f000 fcbb 	bl	f2c <nrf_atomic_flag_set>
     5b6:	4628      	mov	r0, r5
     5b8:	f000 fcb8 	bl	f2c <nrf_atomic_flag_set>
     5bc:	68a3      	ldr	r3, [r4, #8]
     5be:	b2da      	uxtb	r2, r3
     5c0:	1cd1      	adds	r1, r2, #3
     5c2:	eb04 0081 	add.w	r0, r4, r1, lsl #2
     5c6:	f814 1021 	ldrb.w	r1, [r4, r1, lsl #2]
     5ca:	0749      	lsls	r1, r1, #29
     5cc:	d5c1      	bpl.n	552 <buf_prealloc+0x36>
     5ce:	7801      	ldrb	r1, [r0, #0]
     5d0:	f001 0103 	and.w	r1, r1, #3
     5d4:	2901      	cmp	r1, #1
     5d6:	d00a      	beq.n	5ee <buf_prealloc+0xd2>
     5d8:	2902      	cmp	r1, #2
     5da:	d1f1      	bne.n	5c0 <buf_prealloc+0xa4>
     5dc:	8842      	ldrh	r2, [r0, #2]
     5de:	3302      	adds	r3, #2
     5e0:	eb03 1392 	add.w	r3, r3, r2, lsr #6
     5e4:	b2da      	uxtb	r2, r3
     5e6:	e7eb      	b.n	5c0 <buf_prealloc+0xa4>
     5e8:	f04f 0b00 	mov.w	fp, #0
     5ec:	e7cb      	b.n	586 <buf_prealloc+0x6a>
     5ee:	8802      	ldrh	r2, [r0, #0]
     5f0:	3302      	adds	r3, #2
     5f2:	f3c2 1283 	ubfx	r2, r2, #6, #4
     5f6:	4413      	add	r3, r2
     5f8:	b2da      	uxtb	r2, r3
     5fa:	e7e1      	b.n	5c0 <buf_prealloc+0xa4>
     5fc:	f8bd 200c 	ldrh.w	r2, [sp, #12]
     600:	f3c2 1283 	ubfx	r2, r2, #6, #4
     604:	ea4f 4b11 	mov.w	fp, r1, lsr #16
     608:	4492      	add	sl, r2
     60a:	e7bc      	b.n	586 <buf_prealloc+0x6a>
     60c:	9b01      	ldr	r3, [sp, #4]
     60e:	2100      	movs	r1, #0
     610:	b19b      	cbz	r3, 63a <buf_prealloc+0x11e>
     612:	f009 030f 	and.w	r3, r9, #15
     616:	019b      	lsls	r3, r3, #6
     618:	f043 0305 	orr.w	r3, r3, #5
     61c:	f363 010f 	bfi	r1, r3, #0, #16
     620:	b2d3      	uxtb	r3, r2
     622:	3303      	adds	r3, #3
     624:	4417      	add	r7, r2
     626:	2000      	movs	r0, #0
     628:	f844 1023 	str.w	r1, [r4, r3, lsl #2]
     62c:	6067      	str	r7, [r4, #4]
     62e:	f000 fc47 	bl	ec0 <app_util_critical_region_exit>
     632:	2001      	movs	r0, #1
     634:	b007      	add	sp, #28
     636:	e8bd 8ff0 	ldmia.w	sp!, {r4, r5, r6, r7, r8, r9, sl, fp, pc}
     63a:	ea4f 5989 	mov.w	r9, r9, lsl #22
     63e:	f049 0106 	orr.w	r1, r9, #6
     642:	e7ed      	b.n	620 <buf_prealloc+0x104>
     644:	20000168 	.word	0x20000168

00000648 <nrf_log_init>:
     648:	4b06      	ldr	r3, [pc, #24]	; (664 <nrf_log_init+0x1c>)
     64a:	4807      	ldr	r0, [pc, #28]	; (668 <nrf_log_init+0x20>)
     64c:	b510      	push	{r4, lr}
     64e:	2200      	movs	r2, #0
     650:	701a      	strb	r2, [r3, #0]
     652:	f001 f855 	bl	1700 <nrf_memobj_pool_init>
     656:	4604      	mov	r4, r0
     658:	b910      	cbnz	r0, 660 <nrf_log_init+0x18>
     65a:	4804      	ldr	r0, [pc, #16]	; (66c <nrf_log_init+0x24>)
     65c:	f001 f8e4 	bl	1828 <nrf_ringbuf_init>
     660:	4620      	mov	r0, r4
     662:	bd10      	pop	{r4, pc}
     664:	20000168 	.word	0x20000168
     668:	000034a4 	.word	0x000034a4
     66c:	00003160 	.word	0x00003160

00000670 <nrf_log_module_name_get>:
     670:	b430      	push	{r4, r5}
     672:	b199      	cbz	r1, 69c <nrf_log_module_name_get+0x2c>
     674:	490d      	ldr	r1, [pc, #52]	; (6ac <nrf_log_module_name_get+0x3c>)
     676:	4d0e      	ldr	r5, [pc, #56]	; (6b0 <nrf_log_module_name_get+0x40>)
     678:	1b49      	subs	r1, r1, r5
     67a:	08c9      	lsrs	r1, r1, #3
     67c:	d013      	beq.n	6a6 <nrf_log_module_name_get+0x36>
     67e:	4c0d      	ldr	r4, [pc, #52]	; (6b4 <nrf_log_module_name_get+0x44>)
     680:	2300      	movs	r3, #0
     682:	e002      	b.n	68a <nrf_log_module_name_get+0x1a>
     684:	3301      	adds	r3, #1
     686:	4299      	cmp	r1, r3
     688:	d00a      	beq.n	6a0 <nrf_log_module_name_get+0x30>
     68a:	f834 2023 	ldrh.w	r2, [r4, r3, lsl #2]
     68e:	4282      	cmp	r2, r0
     690:	d1f8      	bne.n	684 <nrf_log_module_name_get+0x14>
     692:	4618      	mov	r0, r3
     694:	f855 0030 	ldr.w	r0, [r5, r0, lsl #3]
     698:	bc30      	pop	{r4, r5}
     69a:	4770      	bx	lr
     69c:	4d04      	ldr	r5, [pc, #16]	; (6b0 <nrf_log_module_name_get+0x40>)
     69e:	e7f9      	b.n	694 <nrf_log_module_name_get+0x24>
     6a0:	2000      	movs	r0, #0
     6a2:	bc30      	pop	{r4, r5}
     6a4:	4770      	bx	lr
     6a6:	4608      	mov	r0, r1
     6a8:	e7f6      	b.n	698 <nrf_log_module_name_get+0x28>
     6aa:	bf00      	nop
     6ac:	00003494 	.word	0x00003494
     6b0:	0000344c 	.word	0x0000344c
     6b4:	20000034 	.word	0x20000034

000006b8 <nrf_log_color_id_get>:
     6b8:	4b09      	ldr	r3, [pc, #36]	; (6e0 <nrf_log_color_id_get+0x28>)
     6ba:	3901      	subs	r1, #1
     6bc:	eb03 00c0 	add.w	r0, r3, r0, lsl #3
     6c0:	2903      	cmp	r1, #3
     6c2:	d80b      	bhi.n	6dc <nrf_log_color_id_get+0x24>
     6c4:	e8df f001 	tbb	[pc, r1]
     6c8:	06080204 	.word	0x06080204
     6cc:	2004      	movs	r0, #4
     6ce:	4770      	bx	lr
     6d0:	2002      	movs	r0, #2
     6d2:	4770      	bx	lr
     6d4:	7940      	ldrb	r0, [r0, #5]
     6d6:	4770      	bx	lr
     6d8:	7900      	ldrb	r0, [r0, #4]
     6da:	4770      	bx	lr
     6dc:	2000      	movs	r0, #0
     6de:	4770      	bx	lr
     6e0:	0000344c 	.word	0x0000344c

000006e4 <nrf_log_frontend_dequeue>:
     6e4:	e92d 43f0 	stmdb	sp!, {r4, r5, r6, r7, r8, r9, lr}
     6e8:	4c9a      	ldr	r4, [pc, #616]	; (954 <nrf_log_frontend_dequeue+0x270>)
     6ea:	e9d4 2301 	ldrd	r2, r3, [r4, #4]
     6ee:	429a      	cmp	r2, r3
     6f0:	b085      	sub	sp, #20
     6f2:	f000 8083 	beq.w	7fc <nrf_log_frontend_dequeue+0x118>
     6f6:	2300      	movs	r3, #0
     6f8:	f8c4 3418 	str.w	r3, [r4, #1048]	; 0x418
     6fc:	f3bf 8f4f 	dsb	sy
     700:	68a5      	ldr	r5, [r4, #8]
     702:	b2ea      	uxtb	r2, r5
     704:	1cd3      	adds	r3, r2, #3
     706:	eb04 0183 	add.w	r1, r4, r3, lsl #2
     70a:	f814 3023 	ldrb.w	r3, [r4, r3, lsl #2]
     70e:	0758      	lsls	r0, r3, #29
     710:	d518      	bpl.n	744 <nrf_log_frontend_dequeue+0x60>
     712:	6866      	ldr	r6, [r4, #4]
     714:	780b      	ldrb	r3, [r1, #0]
     716:	f003 0303 	and.w	r3, r3, #3
     71a:	2b01      	cmp	r3, #1
     71c:	d064      	beq.n	7e8 <nrf_log_frontend_dequeue+0x104>
     71e:	2b02      	cmp	r3, #2
     720:	d103      	bne.n	72a <nrf_log_frontend_dequeue+0x46>
     722:	884b      	ldrh	r3, [r1, #2]
     724:	3502      	adds	r5, #2
     726:	eb05 1593 	add.w	r5, r5, r3, lsr #6
     72a:	b2ea      	uxtb	r2, r5
     72c:	f8d4 0418 	ldr.w	r0, [r4, #1048]	; 0x418
     730:	1cd3      	adds	r3, r2, #3
     732:	eb04 0183 	add.w	r1, r4, r3, lsl #2
     736:	b928      	cbnz	r0, 744 <nrf_log_frontend_dequeue+0x60>
     738:	42ae      	cmp	r6, r5
     73a:	d95b      	bls.n	7f4 <nrf_log_frontend_dequeue+0x110>
     73c:	f814 3023 	ldrb.w	r3, [r4, r3, lsl #2]
     740:	075b      	lsls	r3, r3, #29
     742:	d4e7      	bmi.n	714 <nrf_log_frontend_dequeue+0x30>
     744:	eb04 0282 	add.w	r2, r4, r2, lsl #2
     748:	1c6b      	adds	r3, r5, #1
     74a:	b2db      	uxtb	r3, r3
     74c:	68d2      	ldr	r2, [r2, #12]
     74e:	eb04 0383 	add.w	r3, r4, r3, lsl #2
     752:	f002 0103 	and.w	r1, r2, #3
     756:	68db      	ldr	r3, [r3, #12]
     758:	2902      	cmp	r1, #2
     75a:	e9cd 2301 	strd	r2, r3, [sp, #4]
     75e:	f105 0602 	add.w	r6, r5, #2
     762:	d04f      	beq.n	804 <nrf_log_frontend_dequeue+0x120>
     764:	2901      	cmp	r1, #1
     766:	f000 809b 	beq.w	8a0 <nrf_log_frontend_dequeue+0x1bc>
     76a:	f8d4 5410 	ldr.w	r5, [r4, #1040]	; 0x410
     76e:	b13d      	cbz	r5, 780 <nrf_log_frontend_dequeue+0x9c>
     770:	682b      	ldr	r3, [r5, #0]
     772:	4628      	mov	r0, r5
     774:	689b      	ldr	r3, [r3, #8]
     776:	4798      	blx	r3
     778:	68eb      	ldr	r3, [r5, #12]
     77a:	681d      	ldr	r5, [r3, #0]
     77c:	2d00      	cmp	r5, #0
     77e:	d1f7      	bne.n	770 <nrf_log_frontend_dequeue+0x8c>
     780:	2201      	movs	r2, #1
     782:	4669      	mov	r1, sp
     784:	2000      	movs	r0, #0
     786:	f7ff fec9 	bl	51c <buf_prealloc>
     78a:	b1d0      	cbz	r0, 7c2 <nrf_log_frontend_dequeue+0xde>
     78c:	9d00      	ldr	r5, [sp, #0]
     78e:	4872      	ldr	r0, [pc, #456]	; (958 <nrf_log_frontend_dequeue+0x274>)
     790:	2100      	movs	r1, #0
     792:	f000 fba9 	bl	ee8 <nrf_atomic_u32_fetch_store>
     796:	f380 0010 	usat	r0, #16, r0
     79a:	4a70      	ldr	r2, [pc, #448]	; (95c <nrf_log_frontend_dequeue+0x278>)
     79c:	4b70      	ldr	r3, [pc, #448]	; (960 <nrf_log_frontend_dequeue+0x27c>)
     79e:	1c69      	adds	r1, r5, #1
     7a0:	1a9b      	subs	r3, r3, r2
     7a2:	b2c9      	uxtb	r1, r1
     7a4:	4a6f      	ldr	r2, [pc, #444]	; (964 <nrf_log_frontend_dequeue+0x280>)
     7a6:	eb04 0181 	add.w	r1, r4, r1, lsl #2
     7aa:	f3c3 03cf 	ubfx	r3, r3, #3, #16
     7ae:	ea43 4300 	orr.w	r3, r3, r0, lsl #16
     7b2:	b2ed      	uxtb	r5, r5
     7b4:	60cb      	str	r3, [r1, #12]
     7b6:	3503      	adds	r5, #3
     7b8:	0293      	lsls	r3, r2, #10
     7ba:	f043 0311 	orr.w	r3, r3, #17
     7be:	f844 3025 	str.w	r3, [r4, r5, lsl #2]
     7c2:	7823      	ldrb	r3, [r4, #0]
     7c4:	b93b      	cbnz	r3, 7d6 <nrf_log_frontend_dequeue+0xf2>
     7c6:	e9d4 3001 	ldrd	r3, r0, [r4, #4]
     7ca:	1ac0      	subs	r0, r0, r3
     7cc:	bf18      	it	ne
     7ce:	2001      	movne	r0, #1
     7d0:	b005      	add	sp, #20
     7d2:	e8bd 83f0 	ldmia.w	sp!, {r4, r5, r6, r7, r8, r9, pc}
     7d6:	f7ff ff85 	bl	6e4 <nrf_log_frontend_dequeue>
     7da:	2800      	cmp	r0, #0
     7dc:	d0f3      	beq.n	7c6 <nrf_log_frontend_dequeue+0xe2>
     7de:	f7ff ff81 	bl	6e4 <nrf_log_frontend_dequeue>
     7e2:	2800      	cmp	r0, #0
     7e4:	d1f7      	bne.n	7d6 <nrf_log_frontend_dequeue+0xf2>
     7e6:	e7ee      	b.n	7c6 <nrf_log_frontend_dequeue+0xe2>
     7e8:	880b      	ldrh	r3, [r1, #0]
     7ea:	3502      	adds	r5, #2
     7ec:	f3c3 1383 	ubfx	r3, r3, #6, #4
     7f0:	441d      	add	r5, r3
     7f2:	e79a      	b.n	72a <nrf_log_frontend_dequeue+0x46>
     7f4:	60a6      	str	r6, [r4, #8]
     7f6:	b005      	add	sp, #20
     7f8:	e8bd 83f0 	ldmia.w	sp!, {r4, r5, r6, r7, r8, r9, pc}
     7fc:	2000      	movs	r0, #0
     7fe:	b005      	add	sp, #20
     800:	e8bd 83f0 	ldmia.w	sp!, {r4, r5, r6, r7, r8, r9, pc}
     804:	f8bd 3006 	ldrh.w	r3, [sp, #6]
     808:	4857      	ldr	r0, [pc, #348]	; (968 <nrf_log_frontend_dequeue+0x284>)
     80a:	f3c3 1889 	ubfx	r8, r3, #6, #10
     80e:	4645      	mov	r5, r8
     810:	2d50      	cmp	r5, #80	; 0x50
     812:	bf28      	it	cs
     814:	2550      	movcs	r5, #80	; 0x50
     816:	f365 138f 	bfi	r3, r5, #6, #10
     81a:	f105 0108 	add.w	r1, r5, #8
     81e:	f8ad 3006 	strh.w	r3, [sp, #6]
     822:	f000 ff6f 	bl	1704 <nrf_memobj_alloc>
     826:	4607      	mov	r7, r0
     828:	2800      	cmp	r0, #0
     82a:	d09e      	beq.n	76a <nrf_log_frontend_dequeue+0x86>
     82c:	f000 ffb4 	bl	1798 <nrf_memobj_get>
     830:	2300      	movs	r3, #0
     832:	2208      	movs	r2, #8
     834:	a901      	add	r1, sp, #4
     836:	4638      	mov	r0, r7
     838:	f000 ffde 	bl	17f8 <nrf_memobj_write>
     83c:	43f3      	mvns	r3, r6
     83e:	b2db      	uxtb	r3, r3
     840:	3301      	adds	r3, #1
     842:	ebb5 0f83 	cmp.w	r5, r3, lsl #2
     846:	ea4f 0983 	mov.w	r9, r3, lsl #2
     84a:	d96b      	bls.n	924 <nrf_log_frontend_dequeue+0x240>
     84c:	b2f1      	uxtb	r1, r6
     84e:	eba5 0509 	sub.w	r5, r5, r9
     852:	3103      	adds	r1, #3
     854:	eb04 0181 	add.w	r1, r4, r1, lsl #2
     858:	464a      	mov	r2, r9
     85a:	4638      	mov	r0, r7
     85c:	2308      	movs	r3, #8
     85e:	b2ed      	uxtb	r5, r5
     860:	f000 ffca 	bl	17f8 <nrf_memobj_write>
     864:	4941      	ldr	r1, [pc, #260]	; (96c <nrf_log_frontend_dequeue+0x288>)
     866:	f109 0308 	add.w	r3, r9, #8
     86a:	462a      	mov	r2, r5
     86c:	4638      	mov	r0, r7
     86e:	f000 ffc3 	bl	17f8 <nrf_memobj_write>
     872:	f108 0803 	add.w	r8, r8, #3
     876:	eb06 0698 	add.w	r6, r6, r8, lsr #2
     87a:	f8d4 3418 	ldr.w	r3, [r4, #1048]	; 0x418
     87e:	f8d4 5410 	ldr.w	r5, [r4, #1040]	; 0x410
     882:	2b00      	cmp	r3, #0
     884:	d14a      	bne.n	91c <nrf_log_frontend_dequeue+0x238>
     886:	2d00      	cmp	r5, #0
     888:	d056      	beq.n	938 <nrf_log_frontend_dequeue+0x254>
     88a:	68eb      	ldr	r3, [r5, #12]
     88c:	795a      	ldrb	r2, [r3, #5]
     88e:	4628      	mov	r0, r5
     890:	4639      	mov	r1, r7
     892:	b11a      	cbz	r2, 89c <nrf_log_frontend_dequeue+0x1b8>
     894:	682b      	ldr	r3, [r5, #0]
     896:	681b      	ldr	r3, [r3, #0]
     898:	4798      	blx	r3
     89a:	68eb      	ldr	r3, [r5, #12]
     89c:	681d      	ldr	r5, [r3, #0]
     89e:	e7f2      	b.n	886 <nrf_log_frontend_dequeue+0x1a2>
     8a0:	f8bd 2004 	ldrh.w	r2, [sp, #4]
     8a4:	4830      	ldr	r0, [pc, #192]	; (968 <nrf_log_frontend_dequeue+0x284>)
     8a6:	f3c2 1383 	ubfx	r3, r2, #6, #4
     8aa:	2b06      	cmp	r3, #6
     8ac:	bf28      	it	cs
     8ae:	2306      	movcs	r3, #6
     8b0:	f363 1289 	bfi	r2, r3, #6, #4
     8b4:	3302      	adds	r3, #2
     8b6:	f003 010f 	and.w	r1, r3, #15
     8ba:	0089      	lsls	r1, r1, #2
     8bc:	f8ad 2004 	strh.w	r2, [sp, #4]
     8c0:	f000 ff20 	bl	1704 <nrf_memobj_alloc>
     8c4:	4607      	mov	r7, r0
     8c6:	2800      	cmp	r0, #0
     8c8:	f43f af4f 	beq.w	76a <nrf_log_frontend_dequeue+0x86>
     8cc:	f000 ff64 	bl	1798 <nrf_memobj_get>
     8d0:	2300      	movs	r3, #0
     8d2:	2208      	movs	r2, #8
     8d4:	a901      	add	r1, sp, #4
     8d6:	4638      	mov	r0, r7
     8d8:	f000 ff8e 	bl	17f8 <nrf_memobj_write>
     8dc:	f8bd 3004 	ldrh.w	r3, [sp, #4]
     8e0:	f413 7f70 	tst.w	r3, #960	; 0x3c0
     8e4:	d0c9      	beq.n	87a <nrf_log_frontend_dequeue+0x196>
     8e6:	f06f 0901 	mvn.w	r9, #1
     8ea:	f04f 0808 	mov.w	r8, #8
     8ee:	eba9 0905 	sub.w	r9, r9, r5
     8f2:	b2f1      	uxtb	r1, r6
     8f4:	3103      	adds	r1, #3
     8f6:	4643      	mov	r3, r8
     8f8:	2204      	movs	r2, #4
     8fa:	eb04 0181 	add.w	r1, r4, r1, lsl #2
     8fe:	4638      	mov	r0, r7
     900:	f000 ff7a 	bl	17f8 <nrf_memobj_write>
     904:	f8bd 3004 	ldrh.w	r3, [sp, #4]
     908:	3601      	adds	r6, #1
     90a:	f3c3 1383 	ubfx	r3, r3, #6, #4
     90e:	eb09 0206 	add.w	r2, r9, r6
     912:	4293      	cmp	r3, r2
     914:	f108 0804 	add.w	r8, r8, #4
     918:	d8eb      	bhi.n	8f2 <nrf_log_frontend_dequeue+0x20e>
     91a:	e7ae      	b.n	87a <nrf_log_frontend_dequeue+0x196>
     91c:	4638      	mov	r0, r7
     91e:	f000 ff3f 	bl	17a0 <nrf_memobj_put>
     922:	e750      	b.n	7c6 <nrf_log_frontend_dequeue+0xe2>
     924:	b2f1      	uxtb	r1, r6
     926:	3103      	adds	r1, #3
     928:	462a      	mov	r2, r5
     92a:	eb04 0181 	add.w	r1, r4, r1, lsl #2
     92e:	2308      	movs	r3, #8
     930:	4638      	mov	r0, r7
     932:	f000 ff61 	bl	17f8 <nrf_memobj_write>
     936:	e79c      	b.n	872 <nrf_log_frontend_dequeue+0x18e>
     938:	4638      	mov	r0, r7
     93a:	f000 ff31 	bl	17a0 <nrf_memobj_put>
     93e:	2000      	movs	r0, #0
     940:	f000 fab6 	bl	eb0 <app_util_critical_region_enter>
     944:	f8d4 3418 	ldr.w	r3, [r4, #1048]	; 0x418
     948:	b903      	cbnz	r3, 94c <nrf_log_frontend_dequeue+0x268>
     94a:	60a6      	str	r6, [r4, #8]
     94c:	2000      	movs	r0, #0
     94e:	f000 fab7 	bl	ec0 <app_util_critical_region_exit>
     952:	e738      	b.n	7c6 <nrf_log_frontend_dequeue+0xe2>
     954:	20000168 	.word	0x20000168
     958:	20000584 	.word	0x20000584
     95c:	0000344c 	.word	0x0000344c
     960:	00003474 	.word	0x00003474
     964:	00003148 	.word	0x00003148
     968:	000034a4 	.word	0x000034a4
     96c:	20000174 	.word	0x20000174

00000970 <nrf_log_frontend_hexdump>:
     970:	e92d 43f0 	stmdb	sp!, {r4, r5, r6, r7, r8, r9, lr}
     974:	1cd3      	adds	r3, r2, #3
     976:	b083      	sub	sp, #12
     978:	4615      	mov	r5, r2
     97a:	4604      	mov	r4, r0
     97c:	4688      	mov	r8, r1
     97e:	2200      	movs	r2, #0
     980:	0898      	lsrs	r0, r3, #2
     982:	a901      	add	r1, sp, #4
     984:	f7ff fdca 	bl	51c <buf_prealloc>
     988:	b970      	cbnz	r0, 9a8 <nrf_log_frontend_hexdump+0x38>
     98a:	4f29      	ldr	r7, [pc, #164]	; (a30 <nrf_log_frontend_hexdump+0xc0>)
     98c:	783b      	ldrb	r3, [r7, #0]
     98e:	b913      	cbnz	r3, 996 <nrf_log_frontend_hexdump+0x26>
     990:	b003      	add	sp, #12
     992:	e8bd 83f0 	ldmia.w	sp!, {r4, r5, r6, r7, r8, r9, pc}
     996:	f7ff fea5 	bl	6e4 <nrf_log_frontend_dequeue>
     99a:	2800      	cmp	r0, #0
     99c:	d0f8      	beq.n	990 <nrf_log_frontend_hexdump+0x20>
     99e:	f7ff fea1 	bl	6e4 <nrf_log_frontend_dequeue>
     9a2:	2800      	cmp	r0, #0
     9a4:	d1f7      	bne.n	996 <nrf_log_frontend_hexdump+0x26>
     9a6:	e7f3      	b.n	990 <nrf_log_frontend_hexdump+0x20>
     9a8:	9e01      	ldr	r6, [sp, #4]
     9aa:	1cb0      	adds	r0, r6, #2
     9ac:	9001      	str	r0, [sp, #4]
     9ae:	b2c0      	uxtb	r0, r0
     9b0:	f5c0 7380 	rsb	r3, r0, #256	; 0x100
     9b4:	ebb5 0f83 	cmp.w	r5, r3, lsl #2
     9b8:	ea4f 0983 	mov.w	r9, r3, lsl #2
     9bc:	f100 0003 	add.w	r0, r0, #3
     9c0:	d92d      	bls.n	a1e <nrf_log_frontend_hexdump+0xae>
     9c2:	4f1b      	ldr	r7, [pc, #108]	; (a30 <nrf_log_frontend_hexdump+0xc0>)
     9c4:	464a      	mov	r2, r9
     9c6:	4641      	mov	r1, r8
     9c8:	eb07 0080 	add.w	r0, r7, r0, lsl #2
     9cc:	f002 fabe 	bl	2f4c <memcpy>
     9d0:	eb08 0109 	add.w	r1, r8, r9
     9d4:	eba5 0209 	sub.w	r2, r5, r9
     9d8:	f107 000c 	add.w	r0, r7, #12
     9dc:	f002 fab6 	bl	2f4c <memcpy>
     9e0:	4814      	ldr	r0, [pc, #80]	; (a34 <nrf_log_frontend_hexdump+0xc4>)
     9e2:	2100      	movs	r1, #0
     9e4:	f000 fa80 	bl	ee8 <nrf_atomic_u32_fetch_store>
     9e8:	f380 0010 	usat	r0, #16, r0
     9ec:	1c73      	adds	r3, r6, #1
     9ee:	b2db      	uxtb	r3, r3
     9f0:	eb07 0383 	add.w	r3, r7, r3, lsl #2
     9f4:	b2f6      	uxtb	r6, r6
     9f6:	0c22      	lsrs	r2, r4, #16
     9f8:	3603      	adds	r6, #3
     9fa:	ea42 4200 	orr.w	r2, r2, r0, lsl #16
     9fe:	60da      	str	r2, [r3, #12]
     a00:	00e3      	lsls	r3, r4, #3
     a02:	f857 2026 	ldr.w	r2, [r7, r6, lsl #2]
     a06:	f003 0338 	and.w	r3, r3, #56	; 0x38
     a0a:	f043 0302 	orr.w	r3, r3, #2
     a0e:	ea43 5385 	orr.w	r3, r3, r5, lsl #22
     a12:	f402 127c 	and.w	r2, r2, #4128768	; 0x3f0000
     a16:	4313      	orrs	r3, r2
     a18:	f847 3026 	str.w	r3, [r7, r6, lsl #2]
     a1c:	e7b6      	b.n	98c <nrf_log_frontend_hexdump+0x1c>
     a1e:	4f04      	ldr	r7, [pc, #16]	; (a30 <nrf_log_frontend_hexdump+0xc0>)
     a20:	4641      	mov	r1, r8
     a22:	eb07 0080 	add.w	r0, r7, r0, lsl #2
     a26:	462a      	mov	r2, r5
     a28:	f002 fa90 	bl	2f4c <memcpy>
     a2c:	e7d8      	b.n	9e0 <nrf_log_frontend_hexdump+0x70>
     a2e:	bf00      	nop
     a30:	20000168 	.word	0x20000168
     a34:	20000584 	.word	0x20000584

00000a38 <nrf_log_frontend_std_0>:
     a38:	b5f0      	push	{r4, r5, r6, r7, lr}
     a3a:	b083      	sub	sp, #12
     a3c:	4604      	mov	r4, r0
     a3e:	460e      	mov	r6, r1
     a40:	2201      	movs	r2, #1
     a42:	a901      	add	r1, sp, #4
     a44:	2000      	movs	r0, #0
     a46:	f7ff fd69 	bl	51c <buf_prealloc>
     a4a:	4d15      	ldr	r5, [pc, #84]	; (aa0 <nrf_log_frontend_std_0+0x68>)
     a4c:	b1d0      	cbz	r0, a84 <nrf_log_frontend_std_0+0x4c>
     a4e:	9f01      	ldr	r7, [sp, #4]
     a50:	2100      	movs	r1, #0
     a52:	f205 401c 	addw	r0, r5, #1052	; 0x41c
     a56:	f000 fa47 	bl	ee8 <nrf_atomic_u32_fetch_store>
     a5a:	f380 0310 	usat	r3, #16, r0
     a5e:	041b      	lsls	r3, r3, #16
     a60:	ea43 4314 	orr.w	r3, r3, r4, lsr #16
     a64:	1c7a      	adds	r2, r7, #1
     a66:	00e4      	lsls	r4, r4, #3
     a68:	f004 0438 	and.w	r4, r4, #56	; 0x38
     a6c:	b2d2      	uxtb	r2, r2
     a6e:	b2ff      	uxtb	r7, r7
     a70:	f044 0401 	orr.w	r4, r4, #1
     a74:	eb05 0282 	add.w	r2, r5, r2, lsl #2
     a78:	3703      	adds	r7, #3
     a7a:	ea44 2486 	orr.w	r4, r4, r6, lsl #10
     a7e:	60d3      	str	r3, [r2, #12]
     a80:	f845 4027 	str.w	r4, [r5, r7, lsl #2]
     a84:	782b      	ldrb	r3, [r5, #0]
     a86:	b90b      	cbnz	r3, a8c <nrf_log_frontend_std_0+0x54>
     a88:	b003      	add	sp, #12
     a8a:	bdf0      	pop	{r4, r5, r6, r7, pc}
     a8c:	f7ff fe2a 	bl	6e4 <nrf_log_frontend_dequeue>
     a90:	2800      	cmp	r0, #0
     a92:	d0f9      	beq.n	a88 <nrf_log_frontend_std_0+0x50>
     a94:	f7ff fe26 	bl	6e4 <nrf_log_frontend_dequeue>
     a98:	2800      	cmp	r0, #0
     a9a:	d1f7      	bne.n	a8c <nrf_log_frontend_std_0+0x54>
     a9c:	e7f4      	b.n	a88 <nrf_log_frontend_std_0+0x50>
     a9e:	bf00      	nop
     aa0:	20000168 	.word	0x20000168

00000aa4 <nrf_log_backend_add>:
     aa4:	b430      	push	{r4, r5}
     aa6:	4d16      	ldr	r5, [pc, #88]	; (b00 <nrf_log_backend_add+0x5c>)
     aa8:	f8d5 4410 	ldr.w	r4, [r5, #1040]	; 0x410
     aac:	2100      	movs	r1, #0
     aae:	b17c      	cbz	r4, ad0 <nrf_log_backend_add+0x2c>
     ab0:	4623      	mov	r3, r4
     ab2:	e001      	b.n	ab8 <nrf_log_backend_add+0x14>
     ab4:	681b      	ldr	r3, [r3, #0]
     ab6:	b15b      	cbz	r3, ad0 <nrf_log_backend_add+0x2c>
     ab8:	68db      	ldr	r3, [r3, #12]
     aba:	791a      	ldrb	r2, [r3, #4]
     abc:	428a      	cmp	r2, r1
     abe:	d1f9      	bne.n	ab4 <nrf_log_backend_add+0x10>
     ac0:	3101      	adds	r1, #1
     ac2:	290a      	cmp	r1, #10
     ac4:	d1f3      	bne.n	aae <nrf_log_backend_add+0xa>
     ac6:	f04f 31ff 	mov.w	r1, #4294967295	; 0xffffffff
     aca:	4608      	mov	r0, r1
     acc:	bc30      	pop	{r4, r5}
     ace:	4770      	bx	lr
     ad0:	68c3      	ldr	r3, [r0, #12]
     ad2:	7119      	strb	r1, [r3, #4]
     ad4:	f8d5 3410 	ldr.w	r3, [r5, #1040]	; 0x410
     ad8:	b153      	cbz	r3, af0 <nrf_log_backend_add+0x4c>
     ada:	68da      	ldr	r2, [r3, #12]
     adc:	68c3      	ldr	r3, [r0, #12]
     ade:	6812      	ldr	r2, [r2, #0]
     ae0:	601a      	str	r2, [r3, #0]
     ae2:	f8d5 3410 	ldr.w	r3, [r5, #1040]	; 0x410
     ae6:	68db      	ldr	r3, [r3, #12]
     ae8:	6018      	str	r0, [r3, #0]
     aea:	bc30      	pop	{r4, r5}
     aec:	4608      	mov	r0, r1
     aee:	4770      	bx	lr
     af0:	f8c5 0410 	str.w	r0, [r5, #1040]	; 0x410
     af4:	68c2      	ldr	r2, [r0, #12]
     af6:	6013      	str	r3, [r2, #0]
     af8:	4608      	mov	r0, r1
     afa:	bc30      	pop	{r4, r5}
     afc:	4770      	bx	lr
     afe:	bf00      	nop
     b00:	20000168 	.word	0x20000168

00000b04 <nrf_log_panic>:
     b04:	b538      	push	{r3, r4, r5, lr}
     b06:	4b08      	ldr	r3, [pc, #32]	; (b28 <nrf_log_panic+0x24>)
     b08:	f8d3 4410 	ldr.w	r4, [r3, #1040]	; 0x410
     b0c:	2501      	movs	r5, #1
     b0e:	701d      	strb	r5, [r3, #0]
     b10:	b14c      	cbz	r4, b26 <nrf_log_panic+0x22>
     b12:	68e3      	ldr	r3, [r4, #12]
     b14:	715d      	strb	r5, [r3, #5]
     b16:	6823      	ldr	r3, [r4, #0]
     b18:	4620      	mov	r0, r4
     b1a:	685b      	ldr	r3, [r3, #4]
     b1c:	4798      	blx	r3
     b1e:	68e3      	ldr	r3, [r4, #12]
     b20:	681c      	ldr	r4, [r3, #0]
     b22:	2c00      	cmp	r4, #0
     b24:	d1f5      	bne.n	b12 <nrf_log_panic+0xe>
     b26:	bd38      	pop	{r3, r4, r5, pc}
     b28:	20000168 	.word	0x20000168

00000b2c <prefix_process.constprop.0>:
     b2c:	b530      	push	{r4, r5, lr}
     b2e:	88c3      	ldrh	r3, [r0, #6]
     b30:	b085      	sub	sp, #20
     b32:	4604      	mov	r4, r0
     b34:	460d      	mov	r5, r1
     b36:	bb23      	cbnz	r3, b82 <prefix_process.constprop.0+0x56>
     b38:	7a23      	ldrb	r3, [r4, #8]
     b3a:	2b05      	cmp	r3, #5
     b3c:	d01f      	beq.n	b7e <prefix_process.constprop.0+0x52>
     b3e:	7a62      	ldrb	r2, [r4, #9]
     b40:	b982      	cbnz	r2, b64 <prefix_process.constprop.0+0x38>
     b42:	4a14      	ldr	r2, [pc, #80]	; (b94 <prefix_process.constprop.0+0x68>)
     b44:	88a0      	ldrh	r0, [r4, #4]
     b46:	f852 2023 	ldr.w	r2, [r2, r3, lsl #2]
     b4a:	9203      	str	r2, [sp, #12]
     b4c:	2100      	movs	r1, #0
     b4e:	f7ff fd8f 	bl	670 <nrf_log_module_name_get>
     b52:	9a03      	ldr	r2, [sp, #12]
     b54:	4910      	ldr	r1, [pc, #64]	; (b98 <prefix_process.constprop.0+0x6c>)
     b56:	4603      	mov	r3, r0
     b58:	4628      	mov	r0, r5
     b5a:	b005      	add	sp, #20
     b5c:	e8bd 4030 	ldmia.w	sp!, {r4, r5, lr}
     b60:	f000 ba62 	b.w	1028 <nrf_fprintf>
     b64:	4619      	mov	r1, r3
     b66:	88a0      	ldrh	r0, [r4, #4]
     b68:	f7ff fda6 	bl	6b8 <nrf_log_color_id_get>
     b6c:	4b0b      	ldr	r3, [pc, #44]	; (b9c <prefix_process.constprop.0+0x70>)
     b6e:	490c      	ldr	r1, [pc, #48]	; (ba0 <prefix_process.constprop.0+0x74>)
     b70:	f853 2020 	ldr.w	r2, [r3, r0, lsl #2]
     b74:	4628      	mov	r0, r5
     b76:	f000 fa57 	bl	1028 <nrf_fprintf>
     b7a:	7a23      	ldrb	r3, [r4, #8]
     b7c:	e7e1      	b.n	b42 <prefix_process.constprop.0+0x16>
     b7e:	b005      	add	sp, #20
     b80:	bd30      	pop	{r4, r5, pc}
     b82:	4908      	ldr	r1, [pc, #32]	; (ba4 <prefix_process.constprop.0+0x78>)
     b84:	9100      	str	r1, [sp, #0]
     b86:	4a08      	ldr	r2, [pc, #32]	; (ba8 <prefix_process.constprop.0+0x7c>)
     b88:	4908      	ldr	r1, [pc, #32]	; (bac <prefix_process.constprop.0+0x80>)
     b8a:	4628      	mov	r0, r5
     b8c:	f000 fa4c 	bl	1028 <nrf_fprintf>
     b90:	e7d2      	b.n	b38 <prefix_process.constprop.0+0xc>
     b92:	bf00      	nop
     b94:	00003238 	.word	0x00003238
     b98:	00003198 	.word	0x00003198
     b9c:	00003214 	.word	0x00003214
     ba0:	00003194 	.word	0x00003194
     ba4:	0000318c 	.word	0x0000318c
     ba8:	0000316c 	.word	0x0000316c
     bac:	00003174 	.word	0x00003174

00000bb0 <nrf_log_std_entry_process>:
     bb0:	e92d 43f0 	stmdb	sp!, {r4, r5, r6, r7, r8, r9, lr}
     bb4:	b085      	sub	sp, #20
     bb6:	461d      	mov	r5, r3
     bb8:	9c0c      	ldr	r4, [sp, #48]	; 0x30
     bba:	2300      	movs	r3, #0
     bbc:	f894 900c 	ldrb.w	r9, [r4, #12]
     bc0:	7323      	strb	r3, [r4, #12]
     bc2:	4680      	mov	r8, r0
     bc4:	460e      	mov	r6, r1
     bc6:	4617      	mov	r7, r2
     bc8:	4621      	mov	r1, r4
     bca:	4628      	mov	r0, r5
     bcc:	f7ff ffae 	bl	b2c <prefix_process.constprop.0>
     bd0:	2f06      	cmp	r7, #6
     bd2:	d809      	bhi.n	be8 <nrf_log_std_entry_process+0x38>
     bd4:	e8df f007 	tbb	[pc, r7]
     bd8:	3b342e04 	.word	0x3b342e04
     bdc:	4f44      	.short	0x4f44
     bde:	1f          	.byte	0x1f
     bdf:	00          	.byte	0x00
     be0:	4641      	mov	r1, r8
     be2:	4620      	mov	r0, r4
     be4:	f000 fa20 	bl	1028 <nrf_fprintf>
     be8:	7a2b      	ldrb	r3, [r5, #8]
     bea:	2b05      	cmp	r3, #5
     bec:	d005      	beq.n	bfa <nrf_log_std_entry_process+0x4a>
     bee:	7a6b      	ldrb	r3, [r5, #9]
     bf0:	b95b      	cbnz	r3, c0a <nrf_log_std_entry_process+0x5a>
     bf2:	4927      	ldr	r1, [pc, #156]	; (c90 <nrf_log_std_entry_process+0xe0>)
     bf4:	4620      	mov	r0, r4
     bf6:	f000 fa17 	bl	1028 <nrf_fprintf>
     bfa:	4620      	mov	r0, r4
     bfc:	f000 fa08 	bl	1010 <nrf_fprintf_buffer_flush>
     c00:	f884 900c 	strb.w	r9, [r4, #12]
     c04:	b005      	add	sp, #20
     c06:	e8bd 83f0 	ldmia.w	sp!, {r4, r5, r6, r7, r8, r9, pc}
     c0a:	4a22      	ldr	r2, [pc, #136]	; (c94 <nrf_log_std_entry_process+0xe4>)
     c0c:	4922      	ldr	r1, [pc, #136]	; (c98 <nrf_log_std_entry_process+0xe8>)
     c0e:	4620      	mov	r0, r4
     c10:	f000 fa0a 	bl	1028 <nrf_fprintf>
     c14:	e7ed      	b.n	bf2 <nrf_log_std_entry_process+0x42>
     c16:	6973      	ldr	r3, [r6, #20]
     c18:	9303      	str	r3, [sp, #12]
     c1a:	6933      	ldr	r3, [r6, #16]
     c1c:	9302      	str	r3, [sp, #8]
     c1e:	68f3      	ldr	r3, [r6, #12]
     c20:	9301      	str	r3, [sp, #4]
     c22:	68b3      	ldr	r3, [r6, #8]
     c24:	9300      	str	r3, [sp, #0]
     c26:	e9d6 2300 	ldrd	r2, r3, [r6]
     c2a:	4641      	mov	r1, r8
     c2c:	4620      	mov	r0, r4
     c2e:	f000 f9fb 	bl	1028 <nrf_fprintf>
     c32:	e7d9      	b.n	be8 <nrf_log_std_entry_process+0x38>
     c34:	6832      	ldr	r2, [r6, #0]
     c36:	4641      	mov	r1, r8
     c38:	4620      	mov	r0, r4
     c3a:	f000 f9f5 	bl	1028 <nrf_fprintf>
     c3e:	e7d3      	b.n	be8 <nrf_log_std_entry_process+0x38>
     c40:	e9d6 2300 	ldrd	r2, r3, [r6]
     c44:	4641      	mov	r1, r8
     c46:	4620      	mov	r0, r4
     c48:	f000 f9ee 	bl	1028 <nrf_fprintf>
     c4c:	e7cc      	b.n	be8 <nrf_log_std_entry_process+0x38>
     c4e:	68b3      	ldr	r3, [r6, #8]
     c50:	9300      	str	r3, [sp, #0]
     c52:	e9d6 2300 	ldrd	r2, r3, [r6]
     c56:	4641      	mov	r1, r8
     c58:	4620      	mov	r0, r4
     c5a:	f000 f9e5 	bl	1028 <nrf_fprintf>
     c5e:	e7c3      	b.n	be8 <nrf_log_std_entry_process+0x38>
     c60:	68f3      	ldr	r3, [r6, #12]
     c62:	9301      	str	r3, [sp, #4]
     c64:	68b3      	ldr	r3, [r6, #8]
     c66:	9300      	str	r3, [sp, #0]
     c68:	e9d6 2300 	ldrd	r2, r3, [r6]
     c6c:	4641      	mov	r1, r8
     c6e:	4620      	mov	r0, r4
     c70:	f000 f9da 	bl	1028 <nrf_fprintf>
     c74:	e7b8      	b.n	be8 <nrf_log_std_entry_process+0x38>
     c76:	6933      	ldr	r3, [r6, #16]
     c78:	9302      	str	r3, [sp, #8]
     c7a:	68f3      	ldr	r3, [r6, #12]
     c7c:	9301      	str	r3, [sp, #4]
     c7e:	68b3      	ldr	r3, [r6, #8]
     c80:	9300      	str	r3, [sp, #0]
     c82:	e9d6 2300 	ldrd	r2, r3, [r6]
     c86:	4641      	mov	r1, r8
     c88:	4620      	mov	r0, r4
     c8a:	f000 f9cd 	bl	1028 <nrf_fprintf>
     c8e:	e7ab      	b.n	be8 <nrf_log_std_entry_process+0x38>
     c90:	000031a4 	.word	0x000031a4
     c94:	0000318c 	.word	0x0000318c
     c98:	00003194 	.word	0x00003194

00000c9c <nrf_log_hexdump_entry_process>:
     c9c:	2908      	cmp	r1, #8
     c9e:	d900      	bls.n	ca2 <nrf_log_hexdump_entry_process+0x6>
     ca0:	4770      	bx	lr
     ca2:	e92d 4ff0 	stmdb	sp!, {r4, r5, r6, r7, r8, r9, sl, fp, lr}
     ca6:	461d      	mov	r5, r3
     ca8:	b083      	sub	sp, #12
     caa:	2400      	movs	r4, #0
     cac:	7b1b      	ldrb	r3, [r3, #12]
     cae:	732c      	strb	r4, [r5, #12]
     cb0:	460e      	mov	r6, r1
     cb2:	4607      	mov	r7, r0
     cb4:	4629      	mov	r1, r5
     cb6:	4610      	mov	r0, r2
     cb8:	4690      	mov	r8, r2
     cba:	9301      	str	r3, [sp, #4]
     cbc:	f8df b0d0 	ldr.w	fp, [pc, #208]	; d90 <nrf_log_hexdump_entry_process+0xf4>
     cc0:	f8df a0d0 	ldr.w	sl, [pc, #208]	; d94 <nrf_log_hexdump_entry_process+0xf8>
     cc4:	f7ff ff32 	bl	b2c <prefix_process.constprop.0>
     cc8:	e005      	b.n	cd6 <nrf_log_hexdump_entry_process+0x3a>
     cca:	5d3a      	ldrb	r2, [r7, r4]
     ccc:	3401      	adds	r4, #1
     cce:	f000 f9ab 	bl	1028 <nrf_fprintf>
     cd2:	2c08      	cmp	r4, #8
     cd4:	d009      	beq.n	cea <nrf_log_hexdump_entry_process+0x4e>
     cd6:	42a6      	cmp	r6, r4
     cd8:	4651      	mov	r1, sl
     cda:	4628      	mov	r0, r5
     cdc:	d8f5      	bhi.n	cca <nrf_log_hexdump_entry_process+0x2e>
     cde:	4659      	mov	r1, fp
     ce0:	3401      	adds	r4, #1
     ce2:	f000 f9a1 	bl	1028 <nrf_fprintf>
     ce6:	2c08      	cmp	r4, #8
     ce8:	d1f5      	bne.n	cd6 <nrf_log_hexdump_entry_process+0x3a>
     cea:	4924      	ldr	r1, [pc, #144]	; (d7c <nrf_log_hexdump_entry_process+0xe0>)
     cec:	f8df b0a8 	ldr.w	fp, [pc, #168]	; d98 <nrf_log_hexdump_entry_process+0xfc>
     cf0:	4c23      	ldr	r4, [pc, #140]	; (d80 <nrf_log_hexdump_entry_process+0xe4>)
     cf2:	f8df a0a8 	ldr.w	sl, [pc, #168]	; d9c <nrf_log_hexdump_entry_process+0x100>
     cf6:	4628      	mov	r0, r5
     cf8:	f000 f996 	bl	1028 <nrf_fprintf>
     cfc:	f04f 0900 	mov.w	r9, #0
     d00:	e017      	b.n	d32 <nrf_log_hexdump_entry_process+0x96>
     d02:	f817 1009 	ldrb.w	r1, [r7, r9]
     d06:	1c48      	adds	r0, r1, #1
     d08:	297e      	cmp	r1, #126	; 0x7e
     d0a:	f04f 022e 	mov.w	r2, #46	; 0x2e
     d0e:	b2c0      	uxtb	r0, r0
     d10:	d806      	bhi.n	d20 <nrf_log_hexdump_entry_process+0x84>
     d12:	f81a 2000 	ldrb.w	r2, [sl, r0]
     d16:	f012 0f97 	tst.w	r2, #151	; 0x97
     d1a:	bf14      	ite	ne
     d1c:	460a      	movne	r2, r1
     d1e:	222e      	moveq	r2, #46	; 0x2e
     d20:	4621      	mov	r1, r4
     d22:	4628      	mov	r0, r5
     d24:	f109 0901 	add.w	r9, r9, #1
     d28:	f000 f97e 	bl	1028 <nrf_fprintf>
     d2c:	f1b9 0f08 	cmp.w	r9, #8
     d30:	d00a      	beq.n	d48 <nrf_log_hexdump_entry_process+0xac>
     d32:	454e      	cmp	r6, r9
     d34:	d8e5      	bhi.n	d02 <nrf_log_hexdump_entry_process+0x66>
     d36:	4659      	mov	r1, fp
     d38:	4628      	mov	r0, r5
     d3a:	f109 0901 	add.w	r9, r9, #1
     d3e:	f000 f973 	bl	1028 <nrf_fprintf>
     d42:	f1b9 0f08 	cmp.w	r9, #8
     d46:	d1f4      	bne.n	d32 <nrf_log_hexdump_entry_process+0x96>
     d48:	f898 3008 	ldrb.w	r3, [r8, #8]
     d4c:	2b05      	cmp	r3, #5
     d4e:	d002      	beq.n	d56 <nrf_log_hexdump_entry_process+0xba>
     d50:	f898 3009 	ldrb.w	r3, [r8, #9]
     d54:	b95b      	cbnz	r3, d6e <nrf_log_hexdump_entry_process+0xd2>
     d56:	490b      	ldr	r1, [pc, #44]	; (d84 <nrf_log_hexdump_entry_process+0xe8>)
     d58:	4628      	mov	r0, r5
     d5a:	f000 f965 	bl	1028 <nrf_fprintf>
     d5e:	4628      	mov	r0, r5
     d60:	f000 f956 	bl	1010 <nrf_fprintf_buffer_flush>
     d64:	9b01      	ldr	r3, [sp, #4]
     d66:	732b      	strb	r3, [r5, #12]
     d68:	b003      	add	sp, #12
     d6a:	e8bd 8ff0 	ldmia.w	sp!, {r4, r5, r6, r7, r8, r9, sl, fp, pc}
     d6e:	4a06      	ldr	r2, [pc, #24]	; (d88 <nrf_log_hexdump_entry_process+0xec>)
     d70:	4906      	ldr	r1, [pc, #24]	; (d8c <nrf_log_hexdump_entry_process+0xf0>)
     d72:	4628      	mov	r0, r5
     d74:	f000 f958 	bl	1028 <nrf_fprintf>
     d78:	e7ed      	b.n	d56 <nrf_log_hexdump_entry_process+0xba>
     d7a:	bf00      	nop
     d7c:	000031b4 	.word	0x000031b4
     d80:	000031b8 	.word	0x000031b8
     d84:	000031a4 	.word	0x000031a4
     d88:	0000318c 	.word	0x0000318c
     d8c:	00003194 	.word	0x00003194
     d90:	000031b0 	.word	0x000031b0
     d94:	000031a8 	.word	0x000031a8
     d98:	000031a0 	.word	0x000031a0
     d9c:	00003344 	.word	0x00003344

00000da0 <bsp_board_led_invert>:
     da0:	4b07      	ldr	r3, [pc, #28]	; (dc0 <bsp_board_led_invert+0x20>)
     da2:	f04f 41a0 	mov.w	r1, #1342177280	; 0x50000000
     da6:	5c18      	ldrb	r0, [r3, r0]
     da8:	f8d1 3504 	ldr.w	r3, [r1, #1284]	; 0x504
     dac:	2201      	movs	r2, #1
     dae:	4082      	lsls	r2, r0
     db0:	ea22 0003 	bic.w	r0, r2, r3
     db4:	4013      	ands	r3, r2
     db6:	f8c1 0508 	str.w	r0, [r1, #1288]	; 0x508
     dba:	f8c1 350c 	str.w	r3, [r1, #1292]	; 0x50c
     dbe:	4770      	bx	lr
     dc0:	0000324c 	.word	0x0000324c

00000dc4 <bsp_board_init>:
     dc4:	07c2      	lsls	r2, r0, #31
     dc6:	b410      	push	{r4}
     dc8:	d40f      	bmi.n	dea <bsp_board_init+0x26>
     dca:	0783      	lsls	r3, r0, #30
     dcc:	d50a      	bpl.n	de4 <bsp_board_init+0x20>
     dce:	f04f 43a0 	mov.w	r3, #1342177280	; 0x50000000
     dd2:	220c      	movs	r2, #12
     dd4:	f8c3 2734 	str.w	r2, [r3, #1844]	; 0x734
     dd8:	f8c3 2738 	str.w	r2, [r3, #1848]	; 0x738
     ddc:	f8c3 273c 	str.w	r2, [r3, #1852]	; 0x73c
     de0:	f8c3 2740 	str.w	r2, [r3, #1856]	; 0x740
     de4:	f85d 4b04 	ldr.w	r4, [sp], #4
     de8:	4770      	bx	lr
     dea:	f04f 43a0 	mov.w	r3, #1342177280	; 0x50000000
     dee:	2203      	movs	r2, #3
     df0:	f44f 3100 	mov.w	r1, #131072	; 0x20000
     df4:	f8c3 2744 	str.w	r2, [r3, #1860]	; 0x744
     df8:	f44f 2480 	mov.w	r4, #262144	; 0x40000
     dfc:	f8c3 2748 	str.w	r2, [r3, #1864]	; 0x748
     e00:	f8c3 274c 	str.w	r2, [r3, #1868]	; 0x74c
     e04:	f8c3 2750 	str.w	r2, [r3, #1872]	; 0x750
     e08:	f8c3 1508 	str.w	r1, [r3, #1288]	; 0x508
     e0c:	f44f 1280 	mov.w	r2, #1048576	; 0x100000
     e10:	f44f 2100 	mov.w	r1, #524288	; 0x80000
     e14:	f8c3 4508 	str.w	r4, [r3, #1288]	; 0x508
     e18:	f8c3 1508 	str.w	r1, [r3, #1288]	; 0x508
     e1c:	f8c3 2508 	str.w	r2, [r3, #1288]	; 0x508
     e20:	e7d3      	b.n	dca <bsp_board_init+0x6>
     e22:	bf00      	nop

00000e24 <app_error_handler_bare>:
     e24:	b500      	push	{lr}
     e26:	b085      	sub	sp, #20
     e28:	4603      	mov	r3, r0
     e2a:	2100      	movs	r1, #0
     e2c:	aa01      	add	r2, sp, #4
     e2e:	f244 0001 	movw	r0, #16385	; 0x4001
     e32:	e9cd 1101 	strd	r1, r1, [sp, #4]
     e36:	9303      	str	r3, [sp, #12]
     e38:	f000 f804 	bl	e44 <app_error_fault_handler>
     e3c:	b005      	add	sp, #20
     e3e:	f85d fb04 	ldr.w	pc, [sp], #4
     e42:	bf00      	nop

00000e44 <app_error_fault_handler>:
     e44:	b510      	push	{r4, lr}
     e46:	b672      	cpsid	i
     e48:	f7ff fe5c 	bl	b04 <nrf_log_panic>
     e4c:	f7ff fc4a 	bl	6e4 <nrf_log_frontend_dequeue>
     e50:	2800      	cmp	r0, #0
     e52:	d1fb      	bne.n	e4c <app_error_fault_handler+0x8>
     e54:	4b10      	ldr	r3, [pc, #64]	; (e98 <app_error_fault_handler+0x54>)
     e56:	4c11      	ldr	r4, [pc, #68]	; (e9c <app_error_fault_handler+0x58>)
     e58:	4911      	ldr	r1, [pc, #68]	; (ea0 <app_error_fault_handler+0x5c>)
     e5a:	1ae4      	subs	r4, r4, r3
     e5c:	08e4      	lsrs	r4, r4, #3
     e5e:	0424      	lsls	r4, r4, #16
     e60:	f044 0001 	orr.w	r0, r4, #1
     e64:	f7ff fde8 	bl	a38 <nrf_log_frontend_std_0>
     e68:	4b0e      	ldr	r3, [pc, #56]	; (ea4 <app_error_fault_handler+0x60>)
     e6a:	f8d3 30f0 	ldr.w	r3, [r3, #240]	; 0xf0
     e6e:	07db      	lsls	r3, r3, #31
     e70:	d500      	bpl.n	e74 <app_error_fault_handler+0x30>
     e72:	be00      	bkpt	0x0000
     e74:	490c      	ldr	r1, [pc, #48]	; (ea8 <app_error_fault_handler+0x64>)
     e76:	f044 0002 	orr.w	r0, r4, #2
     e7a:	f7ff fddd 	bl	a38 <nrf_log_frontend_std_0>
     e7e:	f3bf 8f4f 	dsb	sy
     e82:	4908      	ldr	r1, [pc, #32]	; (ea4 <app_error_fault_handler+0x60>)
     e84:	4b09      	ldr	r3, [pc, #36]	; (eac <app_error_fault_handler+0x68>)
     e86:	68ca      	ldr	r2, [r1, #12]
     e88:	f402 62e0 	and.w	r2, r2, #1792	; 0x700
     e8c:	4313      	orrs	r3, r2
     e8e:	60cb      	str	r3, [r1, #12]
     e90:	f3bf 8f4f 	dsb	sy
     e94:	bf00      	nop
     e96:	e7fd      	b.n	e94 <app_error_fault_handler+0x50>
     e98:	0000344c 	.word	0x0000344c
     e9c:	00003474 	.word	0x00003474
     ea0:	0000325c 	.word	0x0000325c
     ea4:	e000ed00 	.word	0xe000ed00
     ea8:	00003268 	.word	0x00003268
     eac:	05fa0004 	.word	0x05fa0004

00000eb0 <app_util_critical_region_enter>:
     eb0:	b672      	cpsid	i
     eb2:	4a02      	ldr	r2, [pc, #8]	; (ebc <app_util_critical_region_enter+0xc>)
     eb4:	6813      	ldr	r3, [r2, #0]
     eb6:	3301      	adds	r3, #1
     eb8:	6013      	str	r3, [r2, #0]
     eba:	4770      	bx	lr
     ebc:	20000620 	.word	0x20000620

00000ec0 <app_util_critical_region_exit>:
     ec0:	4a03      	ldr	r2, [pc, #12]	; (ed0 <app_util_critical_region_exit+0x10>)
     ec2:	6813      	ldr	r3, [r2, #0]
     ec4:	3b01      	subs	r3, #1
     ec6:	6013      	str	r3, [r2, #0]
     ec8:	b903      	cbnz	r3, ecc <app_util_critical_region_exit+0xc>
     eca:	b662      	cpsie	i
     ecc:	4770      	bx	lr
     ece:	bf00      	nop
     ed0:	20000620 	.word	0x20000620

00000ed4 <RTC1_IRQHandler>:
     ed4:	4a02      	ldr	r2, [pc, #8]	; (ee0 <RTC1_IRQHandler+0xc>)
     ed6:	4b03      	ldr	r3, [pc, #12]	; (ee4 <RTC1_IRQHandler+0x10>)
     ed8:	6810      	ldr	r0, [r2, #0]
     eda:	681b      	ldr	r3, [r3, #0]
     edc:	4718      	bx	r3
     ede:	bf00      	nop
     ee0:	20000624 	.word	0x20000624
     ee4:	2000062c 	.word	0x2000062c

00000ee8 <nrf_atomic_u32_fetch_store>:
     ee8:	4603      	mov	r3, r0
     eea:	e853 0f00 	ldrex	r0, [r3]
     eee:	460a      	mov	r2, r1
     ef0:	e843 2c00 	strex	ip, r2, [r3]
     ef4:	f09c 0f00 	teq	ip, #0
     ef8:	d1f7      	bne.n	eea <nrf_atomic_u32_fetch_store+0x2>
     efa:	4770      	bx	lr

00000efc <nrf_atomic_u32_add>:
     efc:	4603      	mov	r3, r0
     efe:	e853 2f00 	ldrex	r2, [r3]
     f02:	eb02 0001 	add.w	r0, r2, r1
     f06:	e843 0c00 	strex	ip, r0, [r3]
     f0a:	f09c 0f00 	teq	ip, #0
     f0e:	d1f6      	bne.n	efe <nrf_atomic_u32_add+0x2>
     f10:	4770      	bx	lr
     f12:	bf00      	nop

00000f14 <nrf_atomic_u32_sub>:
     f14:	4603      	mov	r3, r0
     f16:	e853 2f00 	ldrex	r2, [r3]
     f1a:	eba2 0001 	sub.w	r0, r2, r1
     f1e:	e843 0c00 	strex	ip, r0, [r3]
     f22:	f09c 0f00 	teq	ip, #0
     f26:	d1f6      	bne.n	f16 <nrf_atomic_u32_sub+0x2>
     f28:	4770      	bx	lr
     f2a:	bf00      	nop

00000f2c <nrf_atomic_flag_set>:
     f2c:	4603      	mov	r3, r0
     f2e:	2201      	movs	r2, #1
     f30:	e853 1f00 	ldrex	r1, [r3]
     f34:	ea41 0002 	orr.w	r0, r1, r2
     f38:	e843 0c00 	strex	ip, r0, [r3]
     f3c:	f09c 0f00 	teq	ip, #0
     f40:	d1f6      	bne.n	f30 <nrf_atomic_flag_set+0x4>
     f42:	4770      	bx	lr

00000f44 <nrf_atomic_flag_clear_fetch>:
     f44:	4603      	mov	r3, r0
     f46:	2200      	movs	r2, #0
     f48:	e853 0f00 	ldrex	r0, [r3]
     f4c:	ea00 0102 	and.w	r1, r0, r2
     f50:	e843 1c00 	strex	ip, r1, [r3]
     f54:	f09c 0f00 	teq	ip, #0
     f58:	d1f6      	bne.n	f48 <nrf_atomic_flag_clear_fetch+0x4>
     f5a:	4770      	bx	lr

00000f5c <nrf_balloc_init>:
     f5c:	b1d0      	cbz	r0, f94 <nrf_balloc_init+0x38>
     f5e:	b410      	push	{r4}
     f60:	e9d0 1201 	ldrd	r1, r2, [r0, #4]
     f64:	1a52      	subs	r2, r2, r1
     f66:	6804      	ldr	r4, [r0, #0]
     f68:	b2d2      	uxtb	r2, r2
     f6a:	1e53      	subs	r3, r2, #1
     f6c:	6021      	str	r1, [r4, #0]
     f6e:	b2db      	uxtb	r3, r3
     f70:	b152      	cbz	r2, f88 <nrf_balloc_init+0x2c>
     f72:	6801      	ldr	r1, [r0, #0]
     f74:	680a      	ldr	r2, [r1, #0]
     f76:	f103 3cff 	add.w	ip, r3, #4294967295	; 0xffffffff
     f7a:	1c54      	adds	r4, r2, #1
     f7c:	600c      	str	r4, [r1, #0]
     f7e:	7013      	strb	r3, [r2, #0]
     f80:	fa5f f38c 	uxtb.w	r3, ip
     f84:	2bff      	cmp	r3, #255	; 0xff
     f86:	d1f4      	bne.n	f72 <nrf_balloc_init+0x16>
     f88:	6803      	ldr	r3, [r0, #0]
     f8a:	2000      	movs	r0, #0
     f8c:	7118      	strb	r0, [r3, #4]
     f8e:	f85d 4b04 	ldr.w	r4, [sp], #4
     f92:	4770      	bx	lr
     f94:	200e      	movs	r0, #14
     f96:	4770      	bx	lr

00000f98 <nrf_balloc_alloc>:
     f98:	b538      	push	{r3, r4, r5, lr}
     f9a:	4604      	mov	r4, r0
     f9c:	2000      	movs	r0, #0
     f9e:	f7ff ff87 	bl	eb0 <app_util_critical_region_enter>
     fa2:	e9d4 3100 	ldrd	r3, r1, [r4]
     fa6:	681a      	ldr	r2, [r3, #0]
     fa8:	428a      	cmp	r2, r1
     faa:	d915      	bls.n	fd8 <nrf_balloc_alloc+0x40>
     fac:	1e51      	subs	r1, r2, #1
     fae:	6019      	str	r1, [r3, #0]
     fb0:	6821      	ldr	r1, [r4, #0]
     fb2:	68a3      	ldr	r3, [r4, #8]
     fb4:	f812 2c01 	ldrb.w	r2, [r2, #-1]
     fb8:	8a20      	ldrh	r0, [r4, #16]
     fba:	680d      	ldr	r5, [r1, #0]
     fbc:	68e4      	ldr	r4, [r4, #12]
     fbe:	1b5b      	subs	r3, r3, r5
     fc0:	fb00 4402 	mla	r4, r0, r2, r4
     fc4:	790a      	ldrb	r2, [r1, #4]
     fc6:	b2db      	uxtb	r3, r3
     fc8:	429a      	cmp	r2, r3
     fca:	d200      	bcs.n	fce <nrf_balloc_alloc+0x36>
     fcc:	710b      	strb	r3, [r1, #4]
     fce:	2000      	movs	r0, #0
     fd0:	f7ff ff76 	bl	ec0 <app_util_critical_region_exit>
     fd4:	4620      	mov	r0, r4
     fd6:	bd38      	pop	{r3, r4, r5, pc}
     fd8:	2400      	movs	r4, #0
     fda:	2000      	movs	r0, #0
     fdc:	f7ff ff70 	bl	ec0 <app_util_critical_region_exit>
     fe0:	4620      	mov	r0, r4
     fe2:	bd38      	pop	{r3, r4, r5, pc}

00000fe4 <nrf_balloc_free>:
     fe4:	b538      	push	{r3, r4, r5, lr}
     fe6:	4605      	mov	r5, r0
     fe8:	2000      	movs	r0, #0
     fea:	460c      	mov	r4, r1
     fec:	f7ff ff60 	bl	eb0 <app_util_critical_region_enter>
     ff0:	682a      	ldr	r2, [r5, #0]
     ff2:	6813      	ldr	r3, [r2, #0]
     ff4:	1c59      	adds	r1, r3, #1
     ff6:	6011      	str	r1, [r2, #0]
     ff8:	68e9      	ldr	r1, [r5, #12]
     ffa:	8a2a      	ldrh	r2, [r5, #16]
     ffc:	1a64      	subs	r4, r4, r1
     ffe:	fbb4 f4f2 	udiv	r4, r4, r2
    1002:	701c      	strb	r4, [r3, #0]
    1004:	e8bd 4038 	ldmia.w	sp!, {r3, r4, r5, lr}
    1008:	2000      	movs	r0, #0
    100a:	f7ff bf59 	b.w	ec0 <app_util_critical_region_exit>
    100e:	bf00      	nop

00001010 <nrf_fprintf_buffer_flush>:
    1010:	6882      	ldr	r2, [r0, #8]
    1012:	b142      	cbz	r2, 1026 <nrf_fprintf_buffer_flush+0x16>
    1014:	b510      	push	{r4, lr}
    1016:	4604      	mov	r4, r0
    1018:	6943      	ldr	r3, [r0, #20]
    101a:	6801      	ldr	r1, [r0, #0]
    101c:	6900      	ldr	r0, [r0, #16]
    101e:	4798      	blx	r3
    1020:	2300      	movs	r3, #0
    1022:	60a3      	str	r3, [r4, #8]
    1024:	bd10      	pop	{r4, pc}
    1026:	4770      	bx	lr

00001028 <nrf_fprintf>:
    1028:	b40e      	push	{r1, r2, r3}
    102a:	b500      	push	{lr}
    102c:	b082      	sub	sp, #8
    102e:	9903      	ldr	r1, [sp, #12]
    1030:	b121      	cbz	r1, 103c <nrf_fprintf+0x14>
    1032:	ab04      	add	r3, sp, #16
    1034:	aa01      	add	r2, sp, #4
    1036:	9301      	str	r3, [sp, #4]
    1038:	f000 f8ae 	bl	1198 <nrf_fprintf_fmt>
    103c:	b002      	add	sp, #8
    103e:	f85d eb04 	ldr.w	lr, [sp], #4
    1042:	b003      	add	sp, #12
    1044:	4770      	bx	lr
    1046:	bf00      	nop

00001048 <unsigned_print>:
    1048:	e92d 4ff0 	stmdb	sp!, {r4, r5, r6, r7, r8, r9, sl, fp, lr}
    104c:	4616      	mov	r6, r2
    104e:	b083      	sub	sp, #12
    1050:	42b1      	cmp	r1, r6
    1052:	f8dd 9030 	ldr.w	r9, [sp, #48]	; 0x30
    1056:	9a0d      	ldr	r2, [sp, #52]	; 0x34
    1058:	460f      	mov	r7, r1
    105a:	4605      	mov	r5, r0
    105c:	469a      	mov	sl, r3
    105e:	f0c0 8095 	bcc.w	118c <unsigned_print+0x144>
    1062:	460b      	mov	r3, r1
    1064:	f04f 0801 	mov.w	r8, #1
    1068:	fbb3 f3f6 	udiv	r3, r3, r6
    106c:	429e      	cmp	r6, r3
    106e:	f108 0801 	add.w	r8, r8, #1
    1072:	d9f9      	bls.n	1068 <unsigned_print+0x20>
    1074:	45d0      	cmp	r8, sl
    1076:	bf38      	it	cc
    1078:	46d0      	movcc	r8, sl
    107a:	f012 0301 	ands.w	r3, r2, #1
    107e:	9301      	str	r3, [sp, #4]
    1080:	d102      	bne.n	1088 <unsigned_print+0x40>
    1082:	f1b9 0f00 	cmp.w	r9, #0
    1086:	d15e      	bne.n	1146 <unsigned_print+0xfe>
    1088:	68aa      	ldr	r2, [r5, #8]
    108a:	2401      	movs	r4, #1
    108c:	e003      	b.n	1096 <unsigned_print+0x4e>
    108e:	f10a 3aff 	add.w	sl, sl, #4294967295	; 0xffffffff
    1092:	fb06 f404 	mul.w	r4, r6, r4
    1096:	f1ba 0f01 	cmp.w	sl, #1
    109a:	d8f8      	bhi.n	108e <unsigned_print+0x46>
    109c:	fbb7 f3f4 	udiv	r3, r7, r4
    10a0:	429e      	cmp	r6, r3
    10a2:	d9f6      	bls.n	1092 <unsigned_print+0x4a>
    10a4:	f8df a0ec 	ldr.w	sl, [pc, #236]	; 1194 <unsigned_print+0x14c>
    10a8:	e007      	b.n	10ba <unsigned_print+0x72>
    10aa:	42b4      	cmp	r4, r6
    10ac:	fbb4 f3f6 	udiv	r3, r4, r6
    10b0:	d31a      	bcc.n	10e8 <unsigned_print+0xa0>
    10b2:	68aa      	ldr	r2, [r5, #8]
    10b4:	461c      	mov	r4, r3
    10b6:	fbb7 f3f3 	udiv	r3, r7, r3
    10ba:	f81a b003 	ldrb.w	fp, [sl, r3]
    10be:	f1bb 0f0a 	cmp.w	fp, #10
    10c2:	fb04 7713 	mls	r7, r4, r3, r7
    10c6:	d028      	beq.n	111a <unsigned_print+0xd2>
    10c8:	682b      	ldr	r3, [r5, #0]
    10ca:	1c51      	adds	r1, r2, #1
    10cc:	60a9      	str	r1, [r5, #8]
    10ce:	f803 b002 	strb.w	fp, [r3, r2]
    10d2:	e9d5 3201 	ldrd	r3, r2, [r5, #4]
    10d6:	429a      	cmp	r2, r3
    10d8:	d3e7      	bcc.n	10aa <unsigned_print+0x62>
    10da:	4628      	mov	r0, r5
    10dc:	f7ff ff98 	bl	1010 <nrf_fprintf_buffer_flush>
    10e0:	fbb4 f3f6 	udiv	r3, r4, r6
    10e4:	42b4      	cmp	r4, r6
    10e6:	d2e4      	bcs.n	10b2 <unsigned_print+0x6a>
    10e8:	9b01      	ldr	r3, [sp, #4]
    10ea:	b19b      	cbz	r3, 1114 <unsigned_print+0xcc>
    10ec:	f1b9 0f00 	cmp.w	r9, #0
    10f0:	d010      	beq.n	1114 <unsigned_print+0xcc>
    10f2:	2420      	movs	r4, #32
    10f4:	45c8      	cmp	r8, r9
    10f6:	f109 39ff 	add.w	r9, r9, #4294967295	; 0xffffffff
    10fa:	d20b      	bcs.n	1114 <unsigned_print+0xcc>
    10fc:	68ab      	ldr	r3, [r5, #8]
    10fe:	682a      	ldr	r2, [r5, #0]
    1100:	1c59      	adds	r1, r3, #1
    1102:	60a9      	str	r1, [r5, #8]
    1104:	54d4      	strb	r4, [r2, r3]
    1106:	e9d5 3201 	ldrd	r3, r2, [r5, #4]
    110a:	429a      	cmp	r2, r3
    110c:	d214      	bcs.n	1138 <unsigned_print+0xf0>
    110e:	f1b9 0f00 	cmp.w	r9, #0
    1112:	d1ef      	bne.n	10f4 <unsigned_print+0xac>
    1114:	b003      	add	sp, #12
    1116:	e8bd 8ff0 	ldmia.w	sp!, {r4, r5, r6, r7, r8, r9, sl, fp, pc}
    111a:	1c51      	adds	r1, r2, #1
    111c:	682b      	ldr	r3, [r5, #0]
    111e:	60a9      	str	r1, [r5, #8]
    1120:	f04f 010d 	mov.w	r1, #13
    1124:	5499      	strb	r1, [r3, r2]
    1126:	e9d5 3201 	ldrd	r3, r2, [r5, #4]
    112a:	429a      	cmp	r2, r3
    112c:	d3cc      	bcc.n	10c8 <unsigned_print+0x80>
    112e:	4628      	mov	r0, r5
    1130:	f7ff ff6e 	bl	1010 <nrf_fprintf_buffer_flush>
    1134:	68aa      	ldr	r2, [r5, #8]
    1136:	e7c7      	b.n	10c8 <unsigned_print+0x80>
    1138:	4628      	mov	r0, r5
    113a:	f7ff ff69 	bl	1010 <nrf_fprintf_buffer_flush>
    113e:	f1b9 0f00 	cmp.w	r9, #0
    1142:	d1d7      	bne.n	10f4 <unsigned_print+0xac>
    1144:	e7e6      	b.n	1114 <unsigned_print+0xcc>
    1146:	0793      	lsls	r3, r2, #30
    1148:	d41a      	bmi.n	1180 <unsigned_print+0x138>
    114a:	2420      	movs	r4, #32
    114c:	68aa      	ldr	r2, [r5, #8]
    114e:	45c8      	cmp	r8, r9
    1150:	f102 0101 	add.w	r1, r2, #1
    1154:	d299      	bcs.n	108a <unsigned_print+0x42>
    1156:	682b      	ldr	r3, [r5, #0]
    1158:	60a9      	str	r1, [r5, #8]
    115a:	549c      	strb	r4, [r3, r2]
    115c:	e9d5 3201 	ldrd	r3, r2, [r5, #4]
    1160:	429a      	cmp	r2, r3
    1162:	f109 39ff 	add.w	r9, r9, #4294967295	; 0xffffffff
    1166:	d203      	bcs.n	1170 <unsigned_print+0x128>
    1168:	f1b9 0f00 	cmp.w	r9, #0
    116c:	d1ef      	bne.n	114e <unsigned_print+0x106>
    116e:	e78c      	b.n	108a <unsigned_print+0x42>
    1170:	4628      	mov	r0, r5
    1172:	f7ff ff4d 	bl	1010 <nrf_fprintf_buffer_flush>
    1176:	68aa      	ldr	r2, [r5, #8]
    1178:	f1b9 0f00 	cmp.w	r9, #0
    117c:	d1e7      	bne.n	114e <unsigned_print+0x106>
    117e:	e784      	b.n	108a <unsigned_print+0x42>
    1180:	f1ba 0f00 	cmp.w	sl, #0
    1184:	bf0c      	ite	eq
    1186:	2430      	moveq	r4, #48	; 0x30
    1188:	2420      	movne	r4, #32
    118a:	e7df      	b.n	114c <unsigned_print+0x104>
    118c:	f04f 0801 	mov.w	r8, #1
    1190:	e770      	b.n	1074 <unsigned_print+0x2c>
    1192:	bf00      	nop
    1194:	00003284 	.word	0x00003284

00001198 <nrf_fprintf_fmt>:
    1198:	2900      	cmp	r1, #0
    119a:	f000 821f 	beq.w	15dc <nrf_fprintf_fmt+0x444>
    119e:	e92d 4ff0 	stmdb	sp!, {r4, r5, r6, r7, r8, r9, sl, fp, lr}
    11a2:	f8df 94d4 	ldr.w	r9, [pc, #1236]	; 1678 <nrf_fprintf_fmt+0x4e0>
    11a6:	780e      	ldrb	r6, [r1, #0]
    11a8:	b085      	sub	sp, #20
    11aa:	4605      	mov	r5, r0
    11ac:	4690      	mov	r8, r2
    11ae:	460c      	mov	r4, r1
    11b0:	f04f 0a0d 	mov.w	sl, #13
    11b4:	e00e      	b.n	11d4 <nrf_fprintf_fmt+0x3c>
    11b6:	2e0a      	cmp	r6, #10
    11b8:	68ab      	ldr	r3, [r5, #8]
    11ba:	f000 808c 	beq.w	12d6 <nrf_fprintf_fmt+0x13e>
    11be:	682a      	ldr	r2, [r5, #0]
    11c0:	1c59      	adds	r1, r3, #1
    11c2:	60a9      	str	r1, [r5, #8]
    11c4:	54d6      	strb	r6, [r2, r3]
    11c6:	e9d5 3201 	ldrd	r3, r2, [r5, #4]
    11ca:	429a      	cmp	r2, r3
    11cc:	d27f      	bcs.n	12ce <nrf_fprintf_fmt+0x136>
    11ce:	7826      	ldrb	r6, [r4, #0]
    11d0:	2e00      	cmp	r6, #0
    11d2:	d067      	beq.n	12a4 <nrf_fprintf_fmt+0x10c>
    11d4:	3401      	adds	r4, #1
    11d6:	2e00      	cmp	r6, #0
    11d8:	d064      	beq.n	12a4 <nrf_fprintf_fmt+0x10c>
    11da:	2e25      	cmp	r6, #37	; 0x25
    11dc:	d1eb      	bne.n	11b6 <nrf_fprintf_fmt+0x1e>
    11de:	4621      	mov	r1, r4
    11e0:	2700      	movs	r7, #0
    11e2:	780a      	ldrb	r2, [r1, #0]
    11e4:	2a2d      	cmp	r2, #45	; 0x2d
    11e6:	460c      	mov	r4, r1
    11e8:	f101 0101 	add.w	r1, r1, #1
    11ec:	d069      	beq.n	12c2 <nrf_fprintf_fmt+0x12a>
    11ee:	2a30      	cmp	r2, #48	; 0x30
    11f0:	d06a      	beq.n	12c8 <nrf_fprintf_fmt+0x130>
    11f2:	2a2b      	cmp	r2, #43	; 0x2b
    11f4:	d05d      	beq.n	12b2 <nrf_fprintf_fmt+0x11a>
    11f6:	2a2a      	cmp	r2, #42	; 0x2a
    11f8:	bf18      	it	ne
    11fa:	2600      	movne	r6, #0
    11fc:	d104      	bne.n	1208 <nrf_fprintf_fmt+0x70>
    11fe:	e079      	b.n	12f4 <nrf_fprintf_fmt+0x15c>
    1200:	f814 2f01 	ldrb.w	r2, [r4, #1]!
    1204:	f1a3 0630 	sub.w	r6, r3, #48	; 0x30
    1208:	f1a2 0130 	sub.w	r1, r2, #48	; 0x30
    120c:	eb06 0386 	add.w	r3, r6, r6, lsl #2
    1210:	2909      	cmp	r1, #9
    1212:	eb02 0343 	add.w	r3, r2, r3, lsl #1
    1216:	d9f3      	bls.n	1200 <nrf_fprintf_fmt+0x68>
    1218:	2a2e      	cmp	r2, #46	; 0x2e
    121a:	d075      	beq.n	1308 <nrf_fprintf_fmt+0x170>
    121c:	2300      	movs	r3, #0
    121e:	e001      	b.n	1224 <nrf_fprintf_fmt+0x8c>
    1220:	f814 2f01 	ldrb.w	r2, [r4, #1]!
    1224:	f002 01fb 	and.w	r1, r2, #251	; 0xfb
    1228:	2968      	cmp	r1, #104	; 0x68
    122a:	d0f9      	beq.n	1220 <nrf_fprintf_fmt+0x88>
    122c:	2a25      	cmp	r2, #37	; 0x25
    122e:	f000 815d 	beq.w	14ec <nrf_fprintf_fmt+0x354>
    1232:	3a58      	subs	r2, #88	; 0x58
    1234:	b2d1      	uxtb	r1, r2
    1236:	2920      	cmp	r1, #32
    1238:	d830      	bhi.n	129c <nrf_fprintf_fmt+0x104>
    123a:	2a20      	cmp	r2, #32
    123c:	d82e      	bhi.n	129c <nrf_fprintf_fmt+0x104>
    123e:	e8df f012 	tbh	[pc, r2, lsl #1]
    1242:	0021      	.short	0x0021
    1244:	002d002d 	.word	0x002d002d
    1248:	002d002d 	.word	0x002d002d
    124c:	002d002d 	.word	0x002d002d
    1250:	002d002d 	.word	0x002d002d
    1254:	002d002d 	.word	0x002d002d
    1258:	007900f1 	.word	0x007900f1
    125c:	002d002d 	.word	0x002d002d
    1260:	002d002d 	.word	0x002d002d
    1264:	002d0079 	.word	0x002d0079
    1268:	002d002d 	.word	0x002d002d
    126c:	002d002d 	.word	0x002d002d
    1270:	00cc002d 	.word	0x00cc002d
    1274:	002d002d 	.word	0x002d002d
    1278:	002d010d 	.word	0x002d010d
    127c:	002d0109 	.word	0x002d0109
    1280:	0021002d 	.word	0x0021002d
    1284:	f8d8 1000 	ldr.w	r1, [r8]
    1288:	2210      	movs	r2, #16
    128a:	1d08      	adds	r0, r1, #4
    128c:	f8c8 0000 	str.w	r0, [r8]
    1290:	6809      	ldr	r1, [r1, #0]
    1292:	4628      	mov	r0, r5
    1294:	e9cd 6700 	strd	r6, r7, [sp]
    1298:	f7ff fed6 	bl	1048 <unsigned_print>
    129c:	3401      	adds	r4, #1
    129e:	7826      	ldrb	r6, [r4, #0]
    12a0:	2e00      	cmp	r6, #0
    12a2:	d197      	bne.n	11d4 <nrf_fprintf_fmt+0x3c>
    12a4:	7b2b      	ldrb	r3, [r5, #12]
    12a6:	2b00      	cmp	r3, #0
    12a8:	f040 811a 	bne.w	14e0 <nrf_fprintf_fmt+0x348>
    12ac:	b005      	add	sp, #20
    12ae:	e8bd 8ff0 	ldmia.w	sp!, {r4, r5, r6, r7, r8, r9, sl, fp, pc}
    12b2:	780a      	ldrb	r2, [r1, #0]
    12b4:	2a2d      	cmp	r2, #45	; 0x2d
    12b6:	460c      	mov	r4, r1
    12b8:	f047 0704 	orr.w	r7, r7, #4
    12bc:	f101 0101 	add.w	r1, r1, #1
    12c0:	d195      	bne.n	11ee <nrf_fprintf_fmt+0x56>
    12c2:	f047 0701 	orr.w	r7, r7, #1
    12c6:	e78c      	b.n	11e2 <nrf_fprintf_fmt+0x4a>
    12c8:	f047 0702 	orr.w	r7, r7, #2
    12cc:	e789      	b.n	11e2 <nrf_fprintf_fmt+0x4a>
    12ce:	4628      	mov	r0, r5
    12d0:	f7ff fe9e 	bl	1010 <nrf_fprintf_buffer_flush>
    12d4:	e77b      	b.n	11ce <nrf_fprintf_fmt+0x36>
    12d6:	682a      	ldr	r2, [r5, #0]
    12d8:	1c59      	adds	r1, r3, #1
    12da:	60a9      	str	r1, [r5, #8]
    12dc:	f802 a003 	strb.w	sl, [r2, r3]
    12e0:	e9d5 2301 	ldrd	r2, r3, [r5, #4]
    12e4:	4293      	cmp	r3, r2
    12e6:	f4ff af6a 	bcc.w	11be <nrf_fprintf_fmt+0x26>
    12ea:	4628      	mov	r0, r5
    12ec:	f7ff fe90 	bl	1010 <nrf_fprintf_buffer_flush>
    12f0:	68ab      	ldr	r3, [r5, #8]
    12f2:	e764      	b.n	11be <nrf_fprintf_fmt+0x26>
    12f4:	f8d8 3000 	ldr.w	r3, [r8]
    12f8:	1d1a      	adds	r2, r3, #4
    12fa:	f8c8 2000 	str.w	r2, [r8]
    12fe:	7862      	ldrb	r2, [r4, #1]
    1300:	681e      	ldr	r6, [r3, #0]
    1302:	2a2e      	cmp	r2, #46	; 0x2e
    1304:	460c      	mov	r4, r1
    1306:	d189      	bne.n	121c <nrf_fprintf_fmt+0x84>
    1308:	7862      	ldrb	r2, [r4, #1]
    130a:	f1a2 0330 	sub.w	r3, r2, #48	; 0x30
    130e:	2b09      	cmp	r3, #9
    1310:	f104 0401 	add.w	r4, r4, #1
    1314:	f04f 0300 	mov.w	r3, #0
    1318:	d884      	bhi.n	1224 <nrf_fprintf_fmt+0x8c>
    131a:	eb03 0383 	add.w	r3, r3, r3, lsl #2
    131e:	eb02 0343 	add.w	r3, r2, r3, lsl #1
    1322:	f814 2f01 	ldrb.w	r2, [r4, #1]!
    1326:	f1a2 0130 	sub.w	r1, r2, #48	; 0x30
    132a:	2909      	cmp	r1, #9
    132c:	f1a3 0330 	sub.w	r3, r3, #48	; 0x30
    1330:	d9f3      	bls.n	131a <nrf_fprintf_fmt+0x182>
    1332:	e777      	b.n	1224 <nrf_fprintf_fmt+0x8c>
    1334:	f8d8 2000 	ldr.w	r2, [r8]
    1338:	1d11      	adds	r1, r2, #4
    133a:	f8c8 1000 	str.w	r1, [r8]
    133e:	f8d2 b000 	ldr.w	fp, [r2]
    1342:	ea8b 72eb 	eor.w	r2, fp, fp, asr #31
    1346:	eba2 72eb 	sub.w	r2, r2, fp, asr #31
    134a:	2a09      	cmp	r2, #9
    134c:	f04f 0001 	mov.w	r0, #1
    1350:	dd08      	ble.n	1364 <nrf_fprintf_fmt+0x1cc>
    1352:	4611      	mov	r1, r2
    1354:	2963      	cmp	r1, #99	; 0x63
    1356:	fba9 c202 	umull	ip, r2, r9, r2
    135a:	f100 0001 	add.w	r0, r0, #1
    135e:	ea4f 02d2 	mov.w	r2, r2, lsr #3
    1362:	dcf6      	bgt.n	1352 <nrf_fprintf_fmt+0x1ba>
    1364:	4298      	cmp	r0, r3
    1366:	4602      	mov	r2, r0
    1368:	bf38      	it	cc
    136a:	461a      	movcc	r2, r3
    136c:	9202      	str	r2, [sp, #8]
    136e:	b1fe      	cbz	r6, 13b0 <nrf_fprintf_fmt+0x218>
    1370:	f1bb 0f00 	cmp.w	fp, #0
    1374:	f2c0 811e 	blt.w	15b4 <nrf_fprintf_fmt+0x41c>
    1378:	077a      	lsls	r2, r7, #29
    137a:	f100 811b 	bmi.w	15b4 <nrf_fprintf_fmt+0x41c>
    137e:	07b8      	lsls	r0, r7, #30
    1380:	d500      	bpl.n	1384 <nrf_fprintf_fmt+0x1ec>
    1382:	b1ab      	cbz	r3, 13b0 <nrf_fprintf_fmt+0x218>
    1384:	07f9      	lsls	r1, r7, #31
    1386:	d413      	bmi.n	13b0 <nrf_fprintf_fmt+0x218>
    1388:	b18e      	cbz	r6, 13ae <nrf_fprintf_fmt+0x216>
    138a:	2220      	movs	r2, #32
    138c:	9902      	ldr	r1, [sp, #8]
    138e:	42b1      	cmp	r1, r6
    1390:	d20e      	bcs.n	13b0 <nrf_fprintf_fmt+0x218>
    1392:	68a9      	ldr	r1, [r5, #8]
    1394:	1c48      	adds	r0, r1, #1
    1396:	60a8      	str	r0, [r5, #8]
    1398:	6828      	ldr	r0, [r5, #0]
    139a:	5442      	strb	r2, [r0, r1]
    139c:	e9d5 0101 	ldrd	r0, r1, [r5, #4]
    13a0:	4281      	cmp	r1, r0
    13a2:	f106 36ff 	add.w	r6, r6, #4294967295	; 0xffffffff
    13a6:	f080 8156 	bcs.w	1656 <nrf_fprintf_fmt+0x4be>
    13aa:	2e00      	cmp	r6, #0
    13ac:	d1ee      	bne.n	138c <nrf_fprintf_fmt+0x1f4>
    13ae:	2600      	movs	r6, #0
    13b0:	f1bb 0f00 	cmp.w	fp, #0
    13b4:	f2c0 80eb 	blt.w	158e <nrf_fprintf_fmt+0x3f6>
    13b8:	077a      	lsls	r2, r7, #29
    13ba:	f100 8137 	bmi.w	162c <nrf_fprintf_fmt+0x494>
    13be:	f007 0203 	and.w	r2, r7, #3
    13c2:	2a02      	cmp	r2, #2
    13c4:	f000 811a 	beq.w	15fc <nrf_fprintf_fmt+0x464>
    13c8:	e9cd 6700 	strd	r6, r7, [sp]
    13cc:	4659      	mov	r1, fp
    13ce:	220a      	movs	r2, #10
    13d0:	4628      	mov	r0, r5
    13d2:	f7ff fe39 	bl	1048 <unsigned_print>
    13d6:	3401      	adds	r4, #1
    13d8:	e761      	b.n	129e <nrf_fprintf_fmt+0x106>
    13da:	f8d8 3000 	ldr.w	r3, [r8]
    13de:	1d1a      	adds	r2, r3, #4
    13e0:	f8c8 2000 	str.w	r2, [r8]
    13e4:	6819      	ldr	r1, [r3, #0]
    13e6:	68ab      	ldr	r3, [r5, #8]
    13e8:	682a      	ldr	r2, [r5, #0]
    13ea:	1c5e      	adds	r6, r3, #1
    13ec:	2030      	movs	r0, #48	; 0x30
    13ee:	60ae      	str	r6, [r5, #8]
    13f0:	54d0      	strb	r0, [r2, r3]
    13f2:	e9d5 2301 	ldrd	r2, r3, [r5, #4]
    13f6:	4293      	cmp	r3, r2
    13f8:	f080 80c2 	bcs.w	1580 <nrf_fprintf_fmt+0x3e8>
    13fc:	1c58      	adds	r0, r3, #1
    13fe:	682a      	ldr	r2, [r5, #0]
    1400:	60a8      	str	r0, [r5, #8]
    1402:	2078      	movs	r0, #120	; 0x78
    1404:	54d0      	strb	r0, [r2, r3]
    1406:	e9d5 3201 	ldrd	r3, r2, [r5, #4]
    140a:	429a      	cmp	r2, r3
    140c:	f080 80b2 	bcs.w	1574 <nrf_fprintf_fmt+0x3dc>
    1410:	2308      	movs	r3, #8
    1412:	2200      	movs	r2, #0
    1414:	e9cd 3200 	strd	r3, r2, [sp]
    1418:	4628      	mov	r0, r5
    141a:	2210      	movs	r2, #16
    141c:	f7ff fe14 	bl	1048 <unsigned_print>
    1420:	3401      	adds	r4, #1
    1422:	e73c      	b.n	129e <nrf_fprintf_fmt+0x106>
    1424:	f8d8 3000 	ldr.w	r3, [r8]
    1428:	1d1a      	adds	r2, r3, #4
    142a:	f8c8 2000 	str.w	r2, [r8]
    142e:	781e      	ldrb	r6, [r3, #0]
    1430:	68ab      	ldr	r3, [r5, #8]
    1432:	2e0a      	cmp	r6, #10
    1434:	f000 8100 	beq.w	1638 <nrf_fprintf_fmt+0x4a0>
    1438:	682a      	ldr	r2, [r5, #0]
    143a:	1c59      	adds	r1, r3, #1
    143c:	60a9      	str	r1, [r5, #8]
    143e:	54d6      	strb	r6, [r2, r3]
    1440:	e9d5 3201 	ldrd	r3, r2, [r5, #4]
    1444:	429a      	cmp	r2, r3
    1446:	f4ff af29 	bcc.w	129c <nrf_fprintf_fmt+0x104>
    144a:	4628      	mov	r0, r5
    144c:	f7ff fde0 	bl	1010 <nrf_fprintf_buffer_flush>
    1450:	3401      	adds	r4, #1
    1452:	e724      	b.n	129e <nrf_fprintf_fmt+0x106>
    1454:	f8d8 1000 	ldr.w	r1, [r8]
    1458:	220a      	movs	r2, #10
    145a:	e716      	b.n	128a <nrf_fprintf_fmt+0xf2>
    145c:	f8d8 3000 	ldr.w	r3, [r8]
    1460:	1d1a      	adds	r2, r3, #4
    1462:	f8c8 2000 	str.w	r2, [r8]
    1466:	f017 0701 	ands.w	r7, r7, #1
    146a:	f8d3 b000 	ldr.w	fp, [r3]
    146e:	d148      	bne.n	1502 <nrf_fprintf_fmt+0x36a>
    1470:	f1bb 0f00 	cmp.w	fp, #0
    1474:	d003      	beq.n	147e <nrf_fprintf_fmt+0x2e6>
    1476:	4658      	mov	r0, fp
    1478:	f001 fd76 	bl	2f68 <strlen>
    147c:	4607      	mov	r7, r0
    147e:	42be      	cmp	r6, r7
    1480:	d915      	bls.n	14ae <nrf_fprintf_fmt+0x316>
    1482:	2120      	movs	r1, #32
    1484:	e001      	b.n	148a <nrf_fprintf_fmt+0x2f2>
    1486:	42be      	cmp	r6, r7
    1488:	d011      	beq.n	14ae <nrf_fprintf_fmt+0x316>
    148a:	68aa      	ldr	r2, [r5, #8]
    148c:	682b      	ldr	r3, [r5, #0]
    148e:	1c50      	adds	r0, r2, #1
    1490:	60a8      	str	r0, [r5, #8]
    1492:	5499      	strb	r1, [r3, r2]
    1494:	e9d5 3201 	ldrd	r3, r2, [r5, #4]
    1498:	429a      	cmp	r2, r3
    149a:	f106 36ff 	add.w	r6, r6, #4294967295	; 0xffffffff
    149e:	d3f2      	bcc.n	1486 <nrf_fprintf_fmt+0x2ee>
    14a0:	4628      	mov	r0, r5
    14a2:	f7ff fdb5 	bl	1010 <nrf_fprintf_buffer_flush>
    14a6:	42be      	cmp	r6, r7
    14a8:	f04f 0120 	mov.w	r1, #32
    14ac:	d1ed      	bne.n	148a <nrf_fprintf_fmt+0x2f2>
    14ae:	f89b 6000 	ldrb.w	r6, [fp]
    14b2:	b92e      	cbnz	r6, 14c0 <nrf_fprintf_fmt+0x328>
    14b4:	e6f2      	b.n	129c <nrf_fprintf_fmt+0x104>
    14b6:	f81b 6f01 	ldrb.w	r6, [fp, #1]!
    14ba:	2e00      	cmp	r6, #0
    14bc:	f43f aeee 	beq.w	129c <nrf_fprintf_fmt+0x104>
    14c0:	2e0a      	cmp	r6, #10
    14c2:	68ab      	ldr	r3, [r5, #8]
    14c4:	f000 808b 	beq.w	15de <nrf_fprintf_fmt+0x446>
    14c8:	682a      	ldr	r2, [r5, #0]
    14ca:	1c59      	adds	r1, r3, #1
    14cc:	60a9      	str	r1, [r5, #8]
    14ce:	54d6      	strb	r6, [r2, r3]
    14d0:	e9d5 3201 	ldrd	r3, r2, [r5, #4]
    14d4:	429a      	cmp	r2, r3
    14d6:	d3ee      	bcc.n	14b6 <nrf_fprintf_fmt+0x31e>
    14d8:	4628      	mov	r0, r5
    14da:	f7ff fd99 	bl	1010 <nrf_fprintf_buffer_flush>
    14de:	e7ea      	b.n	14b6 <nrf_fprintf_fmt+0x31e>
    14e0:	4628      	mov	r0, r5
    14e2:	b005      	add	sp, #20
    14e4:	e8bd 4ff0 	ldmia.w	sp!, {r4, r5, r6, r7, r8, r9, sl, fp, lr}
    14e8:	f7ff bd92 	b.w	1010 <nrf_fprintf_buffer_flush>
    14ec:	68ab      	ldr	r3, [r5, #8]
    14ee:	6829      	ldr	r1, [r5, #0]
    14f0:	1c58      	adds	r0, r3, #1
    14f2:	60a8      	str	r0, [r5, #8]
    14f4:	54ca      	strb	r2, [r1, r3]
    14f6:	e9d5 3201 	ldrd	r3, r2, [r5, #4]
    14fa:	429a      	cmp	r2, r3
    14fc:	d2a5      	bcs.n	144a <nrf_fprintf_fmt+0x2b2>
    14fe:	3401      	adds	r4, #1
    1500:	e6cd      	b.n	129e <nrf_fprintf_fmt+0x106>
    1502:	f89b 3000 	ldrb.w	r3, [fp]
    1506:	2b00      	cmp	r3, #0
    1508:	f000 80b3 	beq.w	1672 <nrf_fprintf_fmt+0x4da>
    150c:	465f      	mov	r7, fp
    150e:	f1cb 0101 	rsb	r1, fp, #1
    1512:	e002      	b.n	151a <nrf_fprintf_fmt+0x382>
    1514:	f817 3f01 	ldrb.w	r3, [r7, #1]!
    1518:	b1ab      	cbz	r3, 1546 <nrf_fprintf_fmt+0x3ae>
    151a:	2b0a      	cmp	r3, #10
    151c:	68a8      	ldr	r0, [r5, #8]
    151e:	eb01 0b07 	add.w	fp, r1, r7
    1522:	d049      	beq.n	15b8 <nrf_fprintf_fmt+0x420>
    1524:	1c42      	adds	r2, r0, #1
    1526:	60aa      	str	r2, [r5, #8]
    1528:	682a      	ldr	r2, [r5, #0]
    152a:	5413      	strb	r3, [r2, r0]
    152c:	e9d5 3201 	ldrd	r3, r2, [r5, #4]
    1530:	429a      	cmp	r2, r3
    1532:	d3ef      	bcc.n	1514 <nrf_fprintf_fmt+0x37c>
    1534:	4628      	mov	r0, r5
    1536:	9102      	str	r1, [sp, #8]
    1538:	f7ff fd6a 	bl	1010 <nrf_fprintf_buffer_flush>
    153c:	f817 3f01 	ldrb.w	r3, [r7, #1]!
    1540:	9902      	ldr	r1, [sp, #8]
    1542:	2b00      	cmp	r3, #0
    1544:	d1e9      	bne.n	151a <nrf_fprintf_fmt+0x382>
    1546:	455e      	cmp	r6, fp
    1548:	f67f aea8 	bls.w	129c <nrf_fprintf_fmt+0x104>
    154c:	2720      	movs	r7, #32
    154e:	e002      	b.n	1556 <nrf_fprintf_fmt+0x3be>
    1550:	455e      	cmp	r6, fp
    1552:	f43f aea3 	beq.w	129c <nrf_fprintf_fmt+0x104>
    1556:	68aa      	ldr	r2, [r5, #8]
    1558:	682b      	ldr	r3, [r5, #0]
    155a:	1c51      	adds	r1, r2, #1
    155c:	60a9      	str	r1, [r5, #8]
    155e:	549f      	strb	r7, [r3, r2]
    1560:	e9d5 3201 	ldrd	r3, r2, [r5, #4]
    1564:	429a      	cmp	r2, r3
    1566:	f106 36ff 	add.w	r6, r6, #4294967295	; 0xffffffff
    156a:	d3f1      	bcc.n	1550 <nrf_fprintf_fmt+0x3b8>
    156c:	4628      	mov	r0, r5
    156e:	f7ff fd4f 	bl	1010 <nrf_fprintf_buffer_flush>
    1572:	e7ed      	b.n	1550 <nrf_fprintf_fmt+0x3b8>
    1574:	4628      	mov	r0, r5
    1576:	9102      	str	r1, [sp, #8]
    1578:	f7ff fd4a 	bl	1010 <nrf_fprintf_buffer_flush>
    157c:	9902      	ldr	r1, [sp, #8]
    157e:	e747      	b.n	1410 <nrf_fprintf_fmt+0x278>
    1580:	4628      	mov	r0, r5
    1582:	9102      	str	r1, [sp, #8]
    1584:	f7ff fd44 	bl	1010 <nrf_fprintf_buffer_flush>
    1588:	68ab      	ldr	r3, [r5, #8]
    158a:	9902      	ldr	r1, [sp, #8]
    158c:	e736      	b.n	13fc <nrf_fprintf_fmt+0x264>
    158e:	68a9      	ldr	r1, [r5, #8]
    1590:	682a      	ldr	r2, [r5, #0]
    1592:	1c48      	adds	r0, r1, #1
    1594:	60a8      	str	r0, [r5, #8]
    1596:	f1cb 0b00 	rsb	fp, fp, #0
    159a:	202d      	movs	r0, #45	; 0x2d
    159c:	5450      	strb	r0, [r2, r1]
    159e:	e9d5 2101 	ldrd	r2, r1, [r5, #4]
    15a2:	4291      	cmp	r1, r2
    15a4:	f4ff af0b 	bcc.w	13be <nrf_fprintf_fmt+0x226>
    15a8:	4628      	mov	r0, r5
    15aa:	9303      	str	r3, [sp, #12]
    15ac:	f7ff fd30 	bl	1010 <nrf_fprintf_buffer_flush>
    15b0:	9b03      	ldr	r3, [sp, #12]
    15b2:	e704      	b.n	13be <nrf_fprintf_fmt+0x226>
    15b4:	3e01      	subs	r6, #1
    15b6:	e6e2      	b.n	137e <nrf_fprintf_fmt+0x1e6>
    15b8:	1c42      	adds	r2, r0, #1
    15ba:	60aa      	str	r2, [r5, #8]
    15bc:	682a      	ldr	r2, [r5, #0]
    15be:	f802 a000 	strb.w	sl, [r2, r0]
    15c2:	e9d5 2001 	ldrd	r2, r0, [r5, #4]
    15c6:	4290      	cmp	r0, r2
    15c8:	d3ac      	bcc.n	1524 <nrf_fprintf_fmt+0x38c>
    15ca:	4628      	mov	r0, r5
    15cc:	e9cd 3102 	strd	r3, r1, [sp, #8]
    15d0:	f7ff fd1e 	bl	1010 <nrf_fprintf_buffer_flush>
    15d4:	e9dd 3102 	ldrd	r3, r1, [sp, #8]
    15d8:	68a8      	ldr	r0, [r5, #8]
    15da:	e7a3      	b.n	1524 <nrf_fprintf_fmt+0x38c>
    15dc:	4770      	bx	lr
    15de:	682a      	ldr	r2, [r5, #0]
    15e0:	1c59      	adds	r1, r3, #1
    15e2:	60a9      	str	r1, [r5, #8]
    15e4:	f802 a003 	strb.w	sl, [r2, r3]
    15e8:	e9d5 2301 	ldrd	r2, r3, [r5, #4]
    15ec:	4293      	cmp	r3, r2
    15ee:	f4ff af6b 	bcc.w	14c8 <nrf_fprintf_fmt+0x330>
    15f2:	4628      	mov	r0, r5
    15f4:	f7ff fd0c 	bl	1010 <nrf_fprintf_buffer_flush>
    15f8:	68ab      	ldr	r3, [r5, #8]
    15fa:	e765      	b.n	14c8 <nrf_fprintf_fmt+0x330>
    15fc:	2b00      	cmp	r3, #0
    15fe:	f47f aee3 	bne.w	13c8 <nrf_fprintf_fmt+0x230>
    1602:	b18e      	cbz	r6, 1628 <nrf_fprintf_fmt+0x490>
    1604:	2230      	movs	r2, #48	; 0x30
    1606:	9902      	ldr	r1, [sp, #8]
    1608:	42b1      	cmp	r1, r6
    160a:	f4bf aedd 	bcs.w	13c8 <nrf_fprintf_fmt+0x230>
    160e:	68a9      	ldr	r1, [r5, #8]
    1610:	1c48      	adds	r0, r1, #1
    1612:	60a8      	str	r0, [r5, #8]
    1614:	6828      	ldr	r0, [r5, #0]
    1616:	5442      	strb	r2, [r0, r1]
    1618:	e9d5 0101 	ldrd	r0, r1, [r5, #4]
    161c:	4281      	cmp	r1, r0
    161e:	f106 36ff 	add.w	r6, r6, #4294967295	; 0xffffffff
    1622:	d21f      	bcs.n	1664 <nrf_fprintf_fmt+0x4cc>
    1624:	2e00      	cmp	r6, #0
    1626:	d1ee      	bne.n	1606 <nrf_fprintf_fmt+0x46e>
    1628:	2600      	movs	r6, #0
    162a:	e6cd      	b.n	13c8 <nrf_fprintf_fmt+0x230>
    162c:	68a9      	ldr	r1, [r5, #8]
    162e:	682a      	ldr	r2, [r5, #0]
    1630:	1c48      	adds	r0, r1, #1
    1632:	60a8      	str	r0, [r5, #8]
    1634:	202b      	movs	r0, #43	; 0x2b
    1636:	e7b1      	b.n	159c <nrf_fprintf_fmt+0x404>
    1638:	682a      	ldr	r2, [r5, #0]
    163a:	1c59      	adds	r1, r3, #1
    163c:	60a9      	str	r1, [r5, #8]
    163e:	f802 a003 	strb.w	sl, [r2, r3]
    1642:	e9d5 2301 	ldrd	r2, r3, [r5, #4]
    1646:	4293      	cmp	r3, r2
    1648:	f4ff aef6 	bcc.w	1438 <nrf_fprintf_fmt+0x2a0>
    164c:	4628      	mov	r0, r5
    164e:	f7ff fcdf 	bl	1010 <nrf_fprintf_buffer_flush>
    1652:	68ab      	ldr	r3, [r5, #8]
    1654:	e6f0      	b.n	1438 <nrf_fprintf_fmt+0x2a0>
    1656:	4628      	mov	r0, r5
    1658:	9303      	str	r3, [sp, #12]
    165a:	f7ff fcd9 	bl	1010 <nrf_fprintf_buffer_flush>
    165e:	9b03      	ldr	r3, [sp, #12]
    1660:	2220      	movs	r2, #32
    1662:	e6a2      	b.n	13aa <nrf_fprintf_fmt+0x212>
    1664:	4628      	mov	r0, r5
    1666:	9303      	str	r3, [sp, #12]
    1668:	f7ff fcd2 	bl	1010 <nrf_fprintf_buffer_flush>
    166c:	9b03      	ldr	r3, [sp, #12]
    166e:	2230      	movs	r2, #48	; 0x30
    1670:	e7d8      	b.n	1624 <nrf_fprintf_fmt+0x48c>
    1672:	469b      	mov	fp, r3
    1674:	e767      	b.n	1546 <nrf_fprintf_fmt+0x3ae>
    1676:	bf00      	nop
    1678:	cccccccd 	.word	0xcccccccd

0000167c <memobj_op>:
    167c:	e92d 47f0 	stmdb	sp!, {r4, r5, r6, r7, r8, r9, sl, lr}
    1680:	4604      	mov	r4, r0
    1682:	88c7      	ldrh	r7, [r0, #6]
    1684:	7940      	ldrb	r0, [r0, #5]
    1686:	6816      	ldr	r6, [r2, #0]
    1688:	f89d 9020 	ldrb.w	r9, [sp, #32]
    168c:	fb07 f000 	mul.w	r0, r7, r0
    1690:	3804      	subs	r0, #4
    1692:	eb06 0e03 	add.w	lr, r6, r3
    1696:	1d1d      	adds	r5, r3, #4
    1698:	4586      	cmp	lr, r0
    169a:	bf88      	it	hi
    169c:	1ac6      	subhi	r6, r0, r3
    169e:	42bd      	cmp	r5, r7
    16a0:	4688      	mov	r8, r1
    16a2:	6016      	str	r6, [r2, #0]
    16a4:	fbb5 f1f7 	udiv	r1, r5, r7
    16a8:	fb07 5c11 	mls	ip, r7, r1, r5
    16ac:	d302      	bcc.n	16b4 <memobj_op+0x38>
    16ae:	3901      	subs	r1, #1
    16b0:	6824      	ldr	r4, [r4, #0]
    16b2:	d1fc      	bne.n	16ae <memobj_op+0x32>
    16b4:	eba7 050c 	sub.w	r5, r7, ip
    16b8:	42b5      	cmp	r5, r6
    16ba:	bf28      	it	cs
    16bc:	4635      	movcs	r5, r6
    16be:	b1ee      	cbz	r6, 16fc <memobj_op+0x80>
    16c0:	f04f 0a00 	mov.w	sl, #0
    16c4:	e00c      	b.n	16e0 <memobj_op+0x64>
    16c6:	4618      	mov	r0, r3
    16c8:	f001 fc40 	bl	2f4c <memcpy>
    16cc:	1b76      	subs	r6, r6, r5
    16ce:	42b7      	cmp	r7, r6
    16d0:	44aa      	add	sl, r5
    16d2:	6824      	ldr	r4, [r4, #0]
    16d4:	463d      	mov	r5, r7
    16d6:	f04f 0c00 	mov.w	ip, #0
    16da:	bf28      	it	cs
    16dc:	4635      	movcs	r5, r6
    16de:	b16e      	cbz	r6, 16fc <memobj_op+0x80>
    16e0:	f10c 0004 	add.w	r0, ip, #4
    16e4:	4420      	add	r0, r4
    16e6:	462a      	mov	r2, r5
    16e8:	4601      	mov	r1, r0
    16ea:	eb08 030a 	add.w	r3, r8, sl
    16ee:	f1b9 0f00 	cmp.w	r9, #0
    16f2:	d1e8      	bne.n	16c6 <memobj_op+0x4a>
    16f4:	4619      	mov	r1, r3
    16f6:	f001 fc29 	bl	2f4c <memcpy>
    16fa:	e7e7      	b.n	16cc <memobj_op+0x50>
    16fc:	e8bd 87f0 	ldmia.w	sp!, {r4, r5, r6, r7, r8, r9, sl, pc}

00001700 <nrf_memobj_pool_init>:
    1700:	f7ff bc2c 	b.w	f5c <nrf_balloc_init>

00001704 <nrf_memobj_alloc>:
    1704:	e92d 41f0 	stmdb	sp!, {r4, r5, r6, r7, r8, lr}
    1708:	8a05      	ldrh	r5, [r0, #16]
    170a:	3103      	adds	r1, #3
    170c:	3d04      	subs	r5, #4
    170e:	194e      	adds	r6, r1, r5
    1710:	4680      	mov	r8, r0
    1712:	fbb6 f6f5 	udiv	r6, r6, r5
    1716:	f7ff fc3f 	bl	f98 <nrf_balloc_alloc>
    171a:	b3a0      	cbz	r0, 1786 <nrf_memobj_alloc+0x82>
    171c:	b2f6      	uxtb	r6, r6
    171e:	f44f 7380 	mov.w	r3, #256	; 0x100
    1722:	3e01      	subs	r6, #1
    1724:	4604      	mov	r4, r0
    1726:	8083      	strh	r3, [r0, #4]
    1728:	80c5      	strh	r5, [r0, #6]
    172a:	f8c0 8000 	str.w	r8, [r0]
    172e:	d02b      	beq.n	1788 <nrf_memobj_alloc+0x84>
    1730:	4603      	mov	r3, r0
    1732:	2500      	movs	r5, #0
    1734:	e008      	b.n	1748 <nrf_memobj_alloc+0x44>
    1736:	7962      	ldrb	r2, [r4, #5]
    1738:	42ae      	cmp	r6, r5
    173a:	f102 0201 	add.w	r2, r2, #1
    173e:	7162      	strb	r2, [r4, #5]
    1740:	6038      	str	r0, [r7, #0]
    1742:	f8c0 8000 	str.w	r8, [r0]
    1746:	d01f      	beq.n	1788 <nrf_memobj_alloc+0x84>
    1748:	4640      	mov	r0, r8
    174a:	461f      	mov	r7, r3
    174c:	f7ff fc24 	bl	f98 <nrf_balloc_alloc>
    1750:	3501      	adds	r5, #1
    1752:	4603      	mov	r3, r0
    1754:	2800      	cmp	r0, #0
    1756:	d1ee      	bne.n	1736 <nrf_memobj_alloc+0x32>
    1758:	7967      	ldrb	r7, [r4, #5]
    175a:	1e79      	subs	r1, r7, #1
    175c:	d017      	beq.n	178e <nrf_memobj_alloc+0x8a>
    175e:	4622      	mov	r2, r4
    1760:	3301      	adds	r3, #1
    1762:	4299      	cmp	r1, r3
    1764:	6812      	ldr	r2, [r2, #0]
    1766:	d1fb      	bne.n	1760 <nrf_memobj_alloc+0x5c>
    1768:	f8d2 8000 	ldr.w	r8, [r2]
    176c:	b15f      	cbz	r7, 1786 <nrf_memobj_alloc+0x82>
    176e:	6826      	ldr	r6, [r4, #0]
    1770:	2500      	movs	r5, #0
    1772:	e001      	b.n	1778 <nrf_memobj_alloc+0x74>
    1774:	4634      	mov	r4, r6
    1776:	6836      	ldr	r6, [r6, #0]
    1778:	4621      	mov	r1, r4
    177a:	4640      	mov	r0, r8
    177c:	3501      	adds	r5, #1
    177e:	f7ff fc31 	bl	fe4 <nrf_balloc_free>
    1782:	42af      	cmp	r7, r5
    1784:	d8f6      	bhi.n	1774 <nrf_memobj_alloc+0x70>
    1786:	2400      	movs	r4, #0
    1788:	4620      	mov	r0, r4
    178a:	e8bd 81f0 	ldmia.w	sp!, {r4, r5, r6, r7, r8, pc}
    178e:	6820      	ldr	r0, [r4, #0]
    1790:	4621      	mov	r1, r4
    1792:	f7ff fc27 	bl	fe4 <nrf_balloc_free>
    1796:	e7f6      	b.n	1786 <nrf_memobj_alloc+0x82>

00001798 <nrf_memobj_get>:
    1798:	2101      	movs	r1, #1
    179a:	3004      	adds	r0, #4
    179c:	f7ff bbae 	b.w	efc <nrf_atomic_u32_add>

000017a0 <nrf_memobj_put>:
    17a0:	e92d 41f0 	stmdb	sp!, {r4, r5, r6, r7, r8, lr}
    17a4:	2101      	movs	r1, #1
    17a6:	4604      	mov	r4, r0
    17a8:	3004      	adds	r0, #4
    17aa:	f7ff fbb3 	bl	f14 <nrf_atomic_u32_sub>
    17ae:	f010 03ff 	ands.w	r3, r0, #255	; 0xff
    17b2:	d001      	beq.n	17b8 <nrf_memobj_put+0x18>
    17b4:	e8bd 81f0 	ldmia.w	sp!, {r4, r5, r6, r7, r8, pc}
    17b8:	7967      	ldrb	r7, [r4, #5]
    17ba:	1e79      	subs	r1, r7, #1
    17bc:	d016      	beq.n	17ec <nrf_memobj_put+0x4c>
    17be:	4622      	mov	r2, r4
    17c0:	3301      	adds	r3, #1
    17c2:	4299      	cmp	r1, r3
    17c4:	6812      	ldr	r2, [r2, #0]
    17c6:	d1fb      	bne.n	17c0 <nrf_memobj_put+0x20>
    17c8:	f8d2 8000 	ldr.w	r8, [r2]
    17cc:	2f00      	cmp	r7, #0
    17ce:	d0f1      	beq.n	17b4 <nrf_memobj_put+0x14>
    17d0:	6826      	ldr	r6, [r4, #0]
    17d2:	2500      	movs	r5, #0
    17d4:	e001      	b.n	17da <nrf_memobj_put+0x3a>
    17d6:	4634      	mov	r4, r6
    17d8:	6836      	ldr	r6, [r6, #0]
    17da:	4621      	mov	r1, r4
    17dc:	4640      	mov	r0, r8
    17de:	3501      	adds	r5, #1
    17e0:	f7ff fc00 	bl	fe4 <nrf_balloc_free>
    17e4:	42af      	cmp	r7, r5
    17e6:	d8f6      	bhi.n	17d6 <nrf_memobj_put+0x36>
    17e8:	e8bd 81f0 	ldmia.w	sp!, {r4, r5, r6, r7, r8, pc}
    17ec:	6820      	ldr	r0, [r4, #0]
    17ee:	4621      	mov	r1, r4
    17f0:	e8bd 41f0 	ldmia.w	sp!, {r4, r5, r6, r7, r8, lr}
    17f4:	f7ff bbf6 	b.w	fe4 <nrf_balloc_free>

000017f8 <nrf_memobj_write>:
    17f8:	b530      	push	{r4, r5, lr}
    17fa:	b085      	sub	sp, #20
    17fc:	2500      	movs	r5, #0
    17fe:	4614      	mov	r4, r2
    1800:	9500      	str	r5, [sp, #0]
    1802:	aa03      	add	r2, sp, #12
    1804:	9403      	str	r4, [sp, #12]
    1806:	f7ff ff39 	bl	167c <memobj_op>
    180a:	b005      	add	sp, #20
    180c:	bd30      	pop	{r4, r5, pc}
    180e:	bf00      	nop

00001810 <nrf_memobj_read>:
    1810:	b530      	push	{r4, r5, lr}
    1812:	b085      	sub	sp, #20
    1814:	2501      	movs	r5, #1
    1816:	4614      	mov	r4, r2
    1818:	9500      	str	r5, [sp, #0]
    181a:	aa03      	add	r2, sp, #12
    181c:	9403      	str	r4, [sp, #12]
    181e:	f7ff ff2d 	bl	167c <memobj_op>
    1822:	b005      	add	sp, #20
    1824:	bd30      	pop	{r4, r5, pc}
    1826:	bf00      	nop

00001828 <nrf_ringbuf_init>:
    1828:	6882      	ldr	r2, [r0, #8]
    182a:	2300      	movs	r3, #0
    182c:	6093      	str	r3, [r2, #8]
    182e:	6882      	ldr	r2, [r0, #8]
    1830:	6113      	str	r3, [r2, #16]
    1832:	6882      	ldr	r2, [r0, #8]
    1834:	6153      	str	r3, [r2, #20]
    1836:	6882      	ldr	r2, [r0, #8]
    1838:	60d3      	str	r3, [r2, #12]
    183a:	6882      	ldr	r2, [r0, #8]
    183c:	6053      	str	r3, [r2, #4]
    183e:	6882      	ldr	r2, [r0, #8]
    1840:	6013      	str	r3, [r2, #0]
    1842:	4770      	bx	lr

00001844 <spim_evt_handler>:
    1844:	b510      	push	{r4, lr}
    1846:	4b0c      	ldr	r3, [pc, #48]	; (1878 <spim_evt_handler+0x34>)
    1848:	4c0c      	ldr	r4, [pc, #48]	; (187c <spim_evt_handler+0x38>)
    184a:	7802      	ldrb	r2, [r0, #0]
    184c:	f853 3021 	ldr.w	r3, [r3, r1, lsl #2]
    1850:	f854 1021 	ldr.w	r1, [r4, r1, lsl #2]
    1854:	b086      	sub	sp, #24
    1856:	f88d 2004 	strb.w	r2, [sp, #4]
    185a:	e9d0 4201 	ldrd	r4, r2, [r0, #4]
    185e:	9402      	str	r4, [sp, #8]
    1860:	f88d 200c 	strb.w	r2, [sp, #12]
    1864:	e9d0 4203 	ldrd	r4, r2, [r0, #12]
    1868:	a801      	add	r0, sp, #4
    186a:	9404      	str	r4, [sp, #16]
    186c:	f88d 2014 	strb.w	r2, [sp, #20]
    1870:	4798      	blx	r3
    1872:	b006      	add	sp, #24
    1874:	bd10      	pop	{r4, pc}
    1876:	bf00      	nop
    1878:	2000063c 	.word	0x2000063c
    187c:	20000630 	.word	0x20000630

00001880 <nrf_drv_spi_init>:
    1880:	e92d 4ff0 	stmdb	sp!, {r4, r5, r6, r7, r8, r9, sl, fp, lr}
    1884:	4684      	mov	ip, r0
    1886:	4817      	ldr	r0, [pc, #92]	; (18e4 <nrf_drv_spi_init+0x64>)
    1888:	f81c 5b04 	ldrb.w	r5, [ip], #4
    188c:	f8d1 9000 	ldr.w	r9, [r1]
    1890:	f891 8004 	ldrb.w	r8, [r1, #4]
    1894:	794f      	ldrb	r7, [r1, #5]
    1896:	688e      	ldr	r6, [r1, #8]
    1898:	f8b1 b00c 	ldrh.w	fp, [r1, #12]
    189c:	f8df a050 	ldr.w	sl, [pc, #80]	; 18f0 <nrf_drv_spi_init+0x70>
    18a0:	4614      	mov	r4, r2
    18a2:	2a00      	cmp	r2, #0
    18a4:	f840 4025 	str.w	r4, [r0, r5, lsl #2]
    18a8:	4a0f      	ldr	r2, [pc, #60]	; (18e8 <nrf_drv_spi_init+0x68>)
    18aa:	4810      	ldr	r0, [pc, #64]	; (18ec <nrf_drv_spi_init+0x6c>)
    18ac:	f840 3025 	str.w	r3, [r0, r5, lsl #2]
    18b0:	ca0f      	ldmia	r2, {r0, r1, r2, r3}
    18b2:	b085      	sub	sp, #20
    18b4:	46ee      	mov	lr, sp
    18b6:	e88e 000f 	stmia.w	lr, {r0, r1, r2, r3}
    18ba:	bf0c      	ite	eq
    18bc:	4622      	moveq	r2, r4
    18be:	4652      	movne	r2, sl
    18c0:	462b      	mov	r3, r5
    18c2:	4671      	mov	r1, lr
    18c4:	4660      	mov	r0, ip
    18c6:	f8cd 9000 	str.w	r9, [sp]
    18ca:	f88d 8005 	strb.w	r8, [sp, #5]
    18ce:	f88d 7006 	strb.w	r7, [sp, #6]
    18d2:	9602      	str	r6, [sp, #8]
    18d4:	f8ad b00c 	strh.w	fp, [sp, #12]
    18d8:	f000 f9a4 	bl	1c24 <nrfx_spim_init>
    18dc:	b005      	add	sp, #20
    18de:	e8bd 8ff0 	ldmia.w	sp!, {r4, r5, r6, r7, r8, r9, sl, fp, pc}
    18e2:	bf00      	nop
    18e4:	2000063c 	.word	0x2000063c
    18e8:	000032a0 	.word	0x000032a0
    18ec:	20000630 	.word	0x20000630
    18f0:	00001845 	.word	0x00001845

000018f4 <uarte_evt_handler>:
    18f4:	b530      	push	{r4, r5, lr}
    18f6:	4b0a      	ldr	r3, [pc, #40]	; (1920 <uarte_evt_handler+0x2c>)
    18f8:	4c0a      	ldr	r4, [pc, #40]	; (1924 <uarte_evt_handler+0x30>)
    18fa:	f853 3021 	ldr.w	r3, [r3, r1, lsl #2]
    18fe:	f854 1021 	ldr.w	r1, [r4, r1, lsl #2]
    1902:	7802      	ldrb	r2, [r0, #0]
    1904:	b085      	sub	sp, #20
    1906:	e9d0 5401 	ldrd	r5, r4, [r0, #4]
    190a:	f88d 2000 	strb.w	r2, [sp]
    190e:	68c2      	ldr	r2, [r0, #12]
    1910:	9501      	str	r5, [sp, #4]
    1912:	f88d 4008 	strb.w	r4, [sp, #8]
    1916:	9203      	str	r2, [sp, #12]
    1918:	4668      	mov	r0, sp
    191a:	4798      	blx	r3
    191c:	b005      	add	sp, #20
    191e:	bd30      	pop	{r4, r5, pc}
    1920:	2000064c 	.word	0x2000064c
    1924:	20000648 	.word	0x20000648

00001928 <uart_evt_handler>:
    1928:	b530      	push	{r4, r5, lr}
    192a:	4b0a      	ldr	r3, [pc, #40]	; (1954 <uart_evt_handler+0x2c>)
    192c:	4c0a      	ldr	r4, [pc, #40]	; (1958 <uart_evt_handler+0x30>)
    192e:	f853 3021 	ldr.w	r3, [r3, r1, lsl #2]
    1932:	f854 1021 	ldr.w	r1, [r4, r1, lsl #2]
    1936:	7802      	ldrb	r2, [r0, #0]
    1938:	b085      	sub	sp, #20
    193a:	e9d0 5401 	ldrd	r5, r4, [r0, #4]
    193e:	f88d 2000 	strb.w	r2, [sp]
    1942:	68c2      	ldr	r2, [r0, #12]
    1944:	9501      	str	r5, [sp, #4]
    1946:	f88d 4008 	strb.w	r4, [sp, #8]
    194a:	9203      	str	r2, [sp, #12]
    194c:	4668      	mov	r0, sp
    194e:	4798      	blx	r3
    1950:	b005      	add	sp, #20
    1952:	bd30      	pop	{r4, r5, pc}
    1954:	2000064c 	.word	0x2000064c
    1958:	20000648 	.word	0x20000648

0000195c <nrf_drv_uart_init>:
    195c:	b5f0      	push	{r4, r5, r6, r7, lr}
    195e:	4b17      	ldr	r3, [pc, #92]	; (19bc <nrf_drv_uart_init+0x60>)
    1960:	7806      	ldrb	r6, [r0, #0]
    1962:	7f4f      	ldrb	r7, [r1, #29]
    1964:	f843 2026 	str.w	r2, [r3, r6, lsl #2]
    1968:	4614      	mov	r4, r2
    196a:	4b15      	ldr	r3, [pc, #84]	; (19c0 <nrf_drv_uart_init+0x64>)
    196c:	4a15      	ldr	r2, [pc, #84]	; (19c4 <nrf_drv_uart_init+0x68>)
    196e:	559f      	strb	r7, [r3, r6]
    1970:	4605      	mov	r5, r0
    1972:	6908      	ldr	r0, [r1, #16]
    1974:	f842 0026 	str.w	r0, [r2, r6, lsl #2]
    1978:	468c      	mov	ip, r1
    197a:	e8bc 000f 	ldmia.w	ip!, {r0, r1, r2, r3}
    197e:	b089      	sub	sp, #36	; 0x24
    1980:	46ee      	mov	lr, sp
    1982:	e8ae 000f 	stmia.w	lr!, {r0, r1, r2, r3}
    1986:	e89c 000f 	ldmia.w	ip, {r0, r1, r2, r3}
    198a:	e88e 000f 	stmia.w	lr, {r0, r1, r2, r3}
    198e:	9604      	str	r6, [sp, #16]
    1990:	b14f      	cbz	r7, 19a6 <nrf_drv_uart_init+0x4a>
    1992:	2c00      	cmp	r4, #0
    1994:	4a0c      	ldr	r2, [pc, #48]	; (19c8 <nrf_drv_uart_init+0x6c>)
    1996:	4669      	mov	r1, sp
    1998:	bf08      	it	eq
    199a:	4622      	moveq	r2, r4
    199c:	1d28      	adds	r0, r5, #4
    199e:	f000 fe27 	bl	25f0 <nrfx_uarte_init>
    19a2:	b009      	add	sp, #36	; 0x24
    19a4:	bdf0      	pop	{r4, r5, r6, r7, pc}
    19a6:	2c00      	cmp	r4, #0
    19a8:	4a08      	ldr	r2, [pc, #32]	; (19cc <nrf_drv_uart_init+0x70>)
    19aa:	4669      	mov	r1, sp
    19ac:	bf08      	it	eq
    19ae:	4622      	moveq	r2, r4
    19b0:	f105 000c 	add.w	r0, r5, #12
    19b4:	f000 fbc0 	bl	2138 <nrfx_uart_init>
    19b8:	b009      	add	sp, #36	; 0x24
    19ba:	bdf0      	pop	{r4, r5, r6, r7, pc}
    19bc:	2000064c 	.word	0x2000064c
    19c0:	20000650 	.word	0x20000650
    19c4:	20000648 	.word	0x20000648
    19c8:	000018f5 	.word	0x000018f5
    19cc:	00001929 	.word	0x00001929

000019d0 <GPIOTE_IRQHandler>:
    19d0:	e92d 41f0 	stmdb	sp!, {r4, r5, r6, r7, r8, lr}
    19d4:	2200      	movs	r2, #0
    19d6:	b084      	sub	sp, #16
    19d8:	4616      	mov	r6, r2
    19da:	9201      	str	r2, [sp, #4]
    19dc:	4b59      	ldr	r3, [pc, #356]	; (1b44 <GPIOTE_IRQHandler+0x174>)
    19de:	4c5a      	ldr	r4, [pc, #360]	; (1b48 <GPIOTE_IRQHandler+0x178>)
    19e0:	485a      	ldr	r0, [pc, #360]	; (1b4c <GPIOTE_IRQHandler+0x17c>)
    19e2:	2201      	movs	r2, #1
    19e4:	4635      	mov	r5, r6
    19e6:	e004      	b.n	19f2 <GPIOTE_IRQHandler+0x22>
    19e8:	3304      	adds	r3, #4
    19ea:	4283      	cmp	r3, r0
    19ec:	ea4f 0242 	mov.w	r2, r2, lsl #1
    19f0:	d011      	beq.n	1a16 <GPIOTE_IRQHandler+0x46>
    19f2:	6819      	ldr	r1, [r3, #0]
    19f4:	2901      	cmp	r1, #1
    19f6:	d1f7      	bne.n	19e8 <GPIOTE_IRQHandler+0x18>
    19f8:	f8d4 1304 	ldr.w	r1, [r4, #772]	; 0x304
    19fc:	4211      	tst	r1, r2
    19fe:	d0f3      	beq.n	19e8 <GPIOTE_IRQHandler+0x18>
    1a00:	601d      	str	r5, [r3, #0]
    1a02:	6819      	ldr	r1, [r3, #0]
    1a04:	9102      	str	r1, [sp, #8]
    1a06:	3304      	adds	r3, #4
    1a08:	4283      	cmp	r3, r0
    1a0a:	ea46 0602 	orr.w	r6, r6, r2
    1a0e:	9902      	ldr	r1, [sp, #8]
    1a10:	ea4f 0242 	mov.w	r2, r2, lsl #1
    1a14:	d1ed      	bne.n	19f2 <GPIOTE_IRQHandler+0x22>
    1a16:	4b4c      	ldr	r3, [pc, #304]	; (1b48 <GPIOTE_IRQHandler+0x178>)
    1a18:	f8d3 217c 	ldr.w	r2, [r3, #380]	; 0x17c
    1a1c:	2a01      	cmp	r2, #1
    1a1e:	d021      	beq.n	1a64 <GPIOTE_IRQHandler+0x94>
    1a20:	b2f3      	uxtb	r3, r6
    1a22:	b1d3      	cbz	r3, 1a5a <GPIOTE_IRQHandler+0x8a>
    1a24:	4f4a      	ldr	r7, [pc, #296]	; (1b50 <GPIOTE_IRQHandler+0x180>)
    1a26:	2400      	movs	r4, #0
    1a28:	2501      	movs	r5, #1
    1a2a:	00a3      	lsls	r3, r4, #2
    1a2c:	f103 4380 	add.w	r3, r3, #1073741824	; 0x40000000
    1a30:	422e      	tst	r6, r5
    1a32:	f503 43c0 	add.w	r3, r3, #24576	; 0x6000
    1a36:	ea4f 0545 	mov.w	r5, r5, lsl #1
    1a3a:	d00b      	beq.n	1a54 <GPIOTE_IRQHandler+0x84>
    1a3c:	f8d3 0510 	ldr.w	r0, [r3, #1296]	; 0x510
    1a40:	f857 2024 	ldr.w	r2, [r7, r4, lsl #2]
    1a44:	f8d3 1510 	ldr.w	r1, [r3, #1296]	; 0x510
    1a48:	f3c0 2004 	ubfx	r0, r0, #8, #5
    1a4c:	f3c1 4101 	ubfx	r1, r1, #16, #2
    1a50:	b102      	cbz	r2, 1a54 <GPIOTE_IRQHandler+0x84>
    1a52:	4790      	blx	r2
    1a54:	3401      	adds	r4, #1
    1a56:	2c08      	cmp	r4, #8
    1a58:	d1e7      	bne.n	1a2a <GPIOTE_IRQHandler+0x5a>
    1a5a:	2e00      	cmp	r6, #0
    1a5c:	db13      	blt.n	1a86 <GPIOTE_IRQHandler+0xb6>
    1a5e:	b004      	add	sp, #16
    1a60:	e8bd 81f0 	ldmia.w	sp!, {r4, r5, r6, r7, r8, pc}
    1a64:	2200      	movs	r2, #0
    1a66:	f8c3 217c 	str.w	r2, [r3, #380]	; 0x17c
    1a6a:	f8d3 317c 	ldr.w	r3, [r3, #380]	; 0x17c
    1a6e:	9303      	str	r3, [sp, #12]
    1a70:	f04f 42a0 	mov.w	r2, #1342177280	; 0x50000000
    1a74:	9b03      	ldr	r3, [sp, #12]
    1a76:	f8d2 1520 	ldr.w	r1, [r2, #1312]	; 0x520
    1a7a:	9101      	str	r1, [sp, #4]
    1a7c:	b2f3      	uxtb	r3, r6
    1a7e:	f8c2 1520 	str.w	r1, [r2, #1312]	; 0x520
    1a82:	2b00      	cmp	r3, #0
    1a84:	d15a      	bne.n	1b3c <GPIOTE_IRQHandler+0x16c>
    1a86:	4e33      	ldr	r6, [pc, #204]	; (1b54 <GPIOTE_IRQHandler+0x184>)
    1a88:	f04f 44a0 	mov.w	r4, #1342177280	; 0x50000000
    1a8c:	f1a6 0753 	sub.w	r7, r6, #83	; 0x53
    1a90:	4d31      	ldr	r5, [pc, #196]	; (1b58 <GPIOTE_IRQHandler+0x188>)
    1a92:	f04f 0801 	mov.w	r8, #1
    1a96:	f915 0f01 	ldrsb.w	r0, [r5, #1]!
    1a9a:	1c43      	adds	r3, r0, #1
    1a9c:	d03a      	beq.n	1b14 <GPIOTE_IRQHandler+0x144>
    1a9e:	f3c0 02c2 	ubfx	r2, r0, #3, #3
    1aa2:	f102 0310 	add.w	r3, r2, #16
    1aa6:	eb0d 0203 	add.w	r2, sp, r3
    1aaa:	f000 0307 	and.w	r3, r0, #7
    1aae:	f812 2c0c 	ldrb.w	r2, [r2, #-12]
    1ab2:	fa08 f303 	lsl.w	r3, r8, r3
    1ab6:	421a      	tst	r2, r3
    1ab8:	b2c1      	uxtb	r1, r0
    1aba:	f000 003f 	and.w	r0, r0, #63	; 0x3f
    1abe:	d029      	beq.n	1b14 <GPIOTE_IRQHandler+0x144>
    1ac0:	0083      	lsls	r3, r0, #2
    1ac2:	f103 43a0 	add.w	r3, r3, #1342177280	; 0x50000000
    1ac6:	f8d3 2700 	ldr.w	r2, [r3, #1792]	; 0x700
    1aca:	f8d3 c700 	ldr.w	ip, [r3, #1792]	; 0x700
    1ace:	f42c 3c40 	bic.w	ip, ip, #196608	; 0x30000
    1ad2:	f8c3 c700 	str.w	ip, [r3, #1792]	; 0x700
    1ad6:	f3c2 4201 	ubfx	r2, r2, #16, #2
    1ada:	f8d3 e700 	ldr.w	lr, [r3, #1792]	; 0x700
    1ade:	2a02      	cmp	r2, #2
    1ae0:	bf0c      	ite	eq
    1ae2:	f44f 3c40 	moveq.w	ip, #196608	; 0x30000
    1ae6:	f44f 3c00 	movne.w	ip, #131072	; 0x20000
    1aea:	ea4e 0e0c 	orr.w	lr, lr, ip
    1aee:	f8c3 e700 	str.w	lr, [r3, #1792]	; 0x700
    1af2:	fa08 fc00 	lsl.w	ip, r8, r0
    1af6:	183b      	adds	r3, r7, r0
    1af8:	f8c4 c520 	str.w	ip, [r4, #1312]	; 0x520
    1afc:	f993 3030 	ldrsb.w	r3, [r3, #48]	; 0x30
    1b00:	f857 3023 	ldr.w	r3, [r7, r3, lsl #2]
    1b04:	b133      	cbz	r3, 1b14 <GPIOTE_IRQHandler+0x144>
    1b06:	0989      	lsrs	r1, r1, #6
    1b08:	2903      	cmp	r1, #3
    1b0a:	d011      	beq.n	1b30 <GPIOTE_IRQHandler+0x160>
    1b0c:	2a02      	cmp	r2, #2
    1b0e:	d00d      	beq.n	1b2c <GPIOTE_IRQHandler+0x15c>
    1b10:	2a03      	cmp	r2, #3
    1b12:	d00f      	beq.n	1b34 <GPIOTE_IRQHandler+0x164>
    1b14:	42b5      	cmp	r5, r6
    1b16:	d1be      	bne.n	1a96 <GPIOTE_IRQHandler+0xc6>
    1b18:	f8d4 3520 	ldr.w	r3, [r4, #1312]	; 0x520
    1b1c:	9301      	str	r3, [sp, #4]
    1b1e:	f8c4 3520 	str.w	r3, [r4, #1312]	; 0x520
    1b22:	2b00      	cmp	r3, #0
    1b24:	d1b4      	bne.n	1a90 <GPIOTE_IRQHandler+0xc0>
    1b26:	b004      	add	sp, #16
    1b28:	e8bd 81f0 	ldmia.w	sp!, {r4, r5, r6, r7, r8, pc}
    1b2c:	2901      	cmp	r1, #1
    1b2e:	d1f1      	bne.n	1b14 <GPIOTE_IRQHandler+0x144>
    1b30:	4798      	blx	r3
    1b32:	e7ef      	b.n	1b14 <GPIOTE_IRQHandler+0x144>
    1b34:	2902      	cmp	r1, #2
    1b36:	d1ed      	bne.n	1b14 <GPIOTE_IRQHandler+0x144>
    1b38:	4798      	blx	r3
    1b3a:	e7eb      	b.n	1b14 <GPIOTE_IRQHandler+0x144>
    1b3c:	f046 4600 	orr.w	r6, r6, #2147483648	; 0x80000000
    1b40:	e770      	b.n	1a24 <GPIOTE_IRQHandler+0x54>
    1b42:	bf00      	nop
    1b44:	40006100 	.word	0x40006100
    1b48:	40006000 	.word	0x40006000
    1b4c:	40006120 	.word	0x40006120
    1b50:	20000654 	.word	0x20000654
    1b54:	200006a7 	.word	0x200006a7
    1b58:	200006a3 	.word	0x200006a3

00001b5c <UARTE0_UART0_IRQHandler>:
    1b5c:	4b01      	ldr	r3, [pc, #4]	; (1b64 <UARTE0_UART0_IRQHandler+0x8>)
    1b5e:	681b      	ldr	r3, [r3, #0]
    1b60:	4718      	bx	r3
    1b62:	bf00      	nop
    1b64:	200006b0 	.word	0x200006b0

00001b68 <nrfx_prs_acquire>:
    1b68:	b538      	push	{r3, r4, r5, lr}
    1b6a:	4b0c      	ldr	r3, [pc, #48]	; (1b9c <nrfx_prs_acquire+0x34>)
    1b6c:	4298      	cmp	r0, r3
    1b6e:	d113      	bne.n	1b98 <nrfx_prs_acquire+0x30>
    1b70:	2000      	movs	r0, #0
    1b72:	460d      	mov	r5, r1
    1b74:	f7ff f99c 	bl	eb0 <app_util_critical_region_enter>
    1b78:	4b09      	ldr	r3, [pc, #36]	; (1ba0 <nrfx_prs_acquire+0x38>)
    1b7a:	791c      	ldrb	r4, [r3, #4]
    1b7c:	b124      	cbz	r4, 1b88 <nrfx_prs_acquire+0x20>
    1b7e:	2000      	movs	r0, #0
    1b80:	f7ff f99e 	bl	ec0 <app_util_critical_region_exit>
    1b84:	2011      	movs	r0, #17
    1b86:	bd38      	pop	{r3, r4, r5, pc}
    1b88:	2201      	movs	r2, #1
    1b8a:	4620      	mov	r0, r4
    1b8c:	601d      	str	r5, [r3, #0]
    1b8e:	711a      	strb	r2, [r3, #4]
    1b90:	f7ff f996 	bl	ec0 <app_util_critical_region_exit>
    1b94:	4620      	mov	r0, r4
    1b96:	bd38      	pop	{r3, r4, r5, pc}
    1b98:	2000      	movs	r0, #0
    1b9a:	bd38      	pop	{r3, r4, r5, pc}
    1b9c:	40002000 	.word	0x40002000
    1ba0:	200006b0 	.word	0x200006b0

00001ba4 <nrfx_prs_release>:
    1ba4:	4b03      	ldr	r3, [pc, #12]	; (1bb4 <nrfx_prs_release+0x10>)
    1ba6:	4298      	cmp	r0, r3
    1ba8:	d103      	bne.n	1bb2 <nrfx_prs_release+0xe>
    1baa:	4b03      	ldr	r3, [pc, #12]	; (1bb8 <nrfx_prs_release+0x14>)
    1bac:	2200      	movs	r2, #0
    1bae:	601a      	str	r2, [r3, #0]
    1bb0:	711a      	strb	r2, [r3, #4]
    1bb2:	4770      	bx	lr
    1bb4:	40002000 	.word	0x40002000
    1bb8:	200006b0 	.word	0x200006b0

00001bbc <SPIM0_SPIS0_TWIM0_TWIS0_SPI0_TWI0_IRQHandler>:
    1bbc:	4b16      	ldr	r3, [pc, #88]	; (1c18 <SPIM0_SPIS0_TWIM0_TWIS0_SPI0_TWI0_IRQHandler+0x5c>)
    1bbe:	f8d3 2118 	ldr.w	r2, [r3, #280]	; 0x118
    1bc2:	b902      	cbnz	r2, 1bc6 <SPIM0_SPIS0_TWIM0_TWIS0_SPI0_TWI0_IRQHandler+0xa>
    1bc4:	4770      	bx	lr
    1bc6:	b410      	push	{r4}
    1bc8:	2100      	movs	r1, #0
    1bca:	4a14      	ldr	r2, [pc, #80]	; (1c1c <SPIM0_SPIS0_TWIM0_TWIS0_SPI0_TWI0_IRQHandler+0x60>)
    1bcc:	f8c3 1118 	str.w	r1, [r3, #280]	; 0x118
    1bd0:	f8d3 1118 	ldr.w	r1, [r3, #280]	; 0x118
    1bd4:	7fd3      	ldrb	r3, [r2, #31]
    1bd6:	b083      	sub	sp, #12
    1bd8:	2bff      	cmp	r3, #255	; 0xff
    1bda:	9101      	str	r1, [sp, #4]
    1bdc:	9901      	ldr	r1, [sp, #4]
    1bde:	d008      	beq.n	1bf2 <SPIM0_SPIS0_TWIM0_TWIS0_SPI0_TWI0_IRQHandler+0x36>
    1be0:	7f91      	ldrb	r1, [r2, #30]
    1be2:	b189      	cbz	r1, 1c08 <SPIM0_SPIS0_TWIM0_TWIS0_SPI0_TWI0_IRQHandler+0x4c>
    1be4:	2101      	movs	r1, #1
    1be6:	f04f 40a0 	mov.w	r0, #1342177280	; 0x50000000
    1bea:	fa01 f303 	lsl.w	r3, r1, r3
    1bee:	f8c0 350c 	str.w	r3, [r0, #1292]	; 0x50c
    1bf2:	e9d2 4100 	ldrd	r4, r1, [r2]
    1bf6:	2300      	movs	r3, #0
    1bf8:	4809      	ldr	r0, [pc, #36]	; (1c20 <SPIM0_SPIS0_TWIM0_TWIS0_SPI0_TWI0_IRQHandler+0x64>)
    1bfa:	7753      	strb	r3, [r2, #29]
    1bfc:	7213      	strb	r3, [r2, #8]
    1bfe:	4623      	mov	r3, r4
    1c00:	b003      	add	sp, #12
    1c02:	f85d 4b04 	ldr.w	r4, [sp], #4
    1c06:	4718      	bx	r3
    1c08:	2101      	movs	r1, #1
    1c0a:	f04f 40a0 	mov.w	r0, #1342177280	; 0x50000000
    1c0e:	fa01 f303 	lsl.w	r3, r1, r3
    1c12:	f8c0 3508 	str.w	r3, [r0, #1288]	; 0x508
    1c16:	e7ec      	b.n	1bf2 <SPIM0_SPIS0_TWIM0_TWIS0_SPI0_TWI0_IRQHandler+0x36>
    1c18:	40003000 	.word	0x40003000
    1c1c:	200006b8 	.word	0x200006b8
    1c20:	200006c0 	.word	0x200006c0

00001c24 <nrfx_spim_init>:
    1c24:	e92d 4ff0 	stmdb	sp!, {r4, r5, r6, r7, r8, r9, sl, fp, lr}
    1c28:	7906      	ldrb	r6, [r0, #4]
    1c2a:	4d78      	ldr	r5, [pc, #480]	; (1e0c <nrfx_spim_init+0x1e8>)
    1c2c:	eb06 09c6 	add.w	r9, r6, r6, lsl #3
    1c30:	4692      	mov	sl, r2
    1c32:	eb05 0289 	add.w	r2, r5, r9, lsl #2
    1c36:	b083      	sub	sp, #12
    1c38:	460c      	mov	r4, r1
    1c3a:	7f11      	ldrb	r1, [r2, #28]
    1c3c:	9201      	str	r2, [sp, #4]
    1c3e:	469b      	mov	fp, r3
    1c40:	00f3      	lsls	r3, r6, #3
    1c42:	9300      	str	r3, [sp, #0]
    1c44:	2900      	cmp	r1, #0
    1c46:	f040 80b6 	bne.w	1db6 <nrfx_spim_init+0x192>
    1c4a:	f8d0 8000 	ldr.w	r8, [r0]
    1c4e:	4970      	ldr	r1, [pc, #448]	; (1e10 <nrfx_spim_init+0x1ec>)
    1c50:	4607      	mov	r7, r0
    1c52:	4640      	mov	r0, r8
    1c54:	f7ff ff88 	bl	1b68 <nrfx_prs_acquire>
    1c58:	2800      	cmp	r0, #0
    1c5a:	f040 80ca 	bne.w	1df2 <nrfx_spim_init+0x1ce>
    1c5e:	ea4f 0989 	mov.w	r9, r9, lsl #2
    1c62:	9a01      	ldr	r2, [sp, #4]
    1c64:	f845 a009 	str.w	sl, [r5, r9]
    1c68:	f8c2 b004 	str.w	fp, [r2, #4]
    1c6c:	7b22      	ldrb	r2, [r4, #12]
    1c6e:	7821      	ldrb	r1, [r4, #0]
    1c70:	9b00      	ldr	r3, [sp, #0]
    1c72:	2a01      	cmp	r2, #1
    1c74:	f04f 0201 	mov.w	r2, #1
    1c78:	fa02 f201 	lsl.w	r2, r2, r1
    1c7c:	f04f 41a0 	mov.w	r1, #1342177280	; 0x50000000
    1c80:	f04f 4ca0 	mov.w	ip, #1342177280	; 0x50000000
    1c84:	bf94      	ite	ls
    1c86:	f8c1 250c 	strls.w	r2, [r1, #1292]	; 0x50c
    1c8a:	f8c1 2508 	strhi.w	r2, [r1, #1288]	; 0x508
    1c8e:	7822      	ldrb	r2, [r4, #0]
    1c90:	f502 72e0 	add.w	r2, r2, #448	; 0x1c0
    1c94:	2101      	movs	r1, #1
    1c96:	f84c 1022 	str.w	r1, [ip, r2, lsl #2]
    1c9a:	7862      	ldrb	r2, [r4, #1]
    1c9c:	2aff      	cmp	r2, #255	; 0xff
    1c9e:	f000 808e 	beq.w	1dbe <nrfx_spim_init+0x19a>
    1ca2:	4091      	lsls	r1, r2
    1ca4:	f8cc 150c 	str.w	r1, [ip, #1292]	; 0x50c
    1ca8:	f502 71e0 	add.w	r1, r2, #448	; 0x1c0
    1cac:	f04f 0e03 	mov.w	lr, #3
    1cb0:	f84c e021 	str.w	lr, [ip, r1, lsl #2]
    1cb4:	f894 c002 	ldrb.w	ip, [r4, #2]
    1cb8:	f1bc 0fff 	cmp.w	ip, #255	; 0xff
    1cbc:	f000 8087 	beq.w	1dce <nrfx_spim_init+0x1aa>
    1cc0:	f50c 79e0 	add.w	r9, ip, #448	; 0x1c0
    1cc4:	f04f 41a0 	mov.w	r1, #1342177280	; 0x50000000
    1cc8:	46e6      	mov	lr, ip
    1cca:	f04f 0c04 	mov.w	ip, #4
    1cce:	f841 c029 	str.w	ip, [r1, r9, lsl #2]
    1cd2:	f894 c002 	ldrb.w	ip, [r4, #2]
    1cd6:	1999      	adds	r1, r3, r6
    1cd8:	eb05 0181 	add.w	r1, r5, r1, lsl #2
    1cdc:	f881 c020 	strb.w	ip, [r1, #32]
    1ce0:	f894 c003 	ldrb.w	ip, [r4, #3]
    1ce4:	f881 c01f 	strb.w	ip, [r1, #31]
    1ce8:	f1bc 0fff 	cmp.w	ip, #255	; 0xff
    1cec:	d019      	beq.n	1d22 <nrfx_spim_init+0xfe>
    1cee:	7921      	ldrb	r1, [r4, #4]
    1cf0:	2900      	cmp	r1, #0
    1cf2:	d16f      	bne.n	1dd4 <nrfx_spim_init+0x1b0>
    1cf4:	2101      	movs	r1, #1
    1cf6:	fa01 f10c 	lsl.w	r1, r1, ip
    1cfa:	f04f 4ca0 	mov.w	ip, #1342177280	; 0x50000000
    1cfe:	f8cc 1508 	str.w	r1, [ip, #1288]	; 0x508
    1d02:	78e1      	ldrb	r1, [r4, #3]
    1d04:	f04f 4ca0 	mov.w	ip, #1342177280	; 0x50000000
    1d08:	f501 71e0 	add.w	r1, r1, #448	; 0x1c0
    1d0c:	f04f 0903 	mov.w	r9, #3
    1d10:	f84c 9021 	str.w	r9, [ip, r1, lsl #2]
    1d14:	1999      	adds	r1, r3, r6
    1d16:	eb05 0181 	add.w	r1, r5, r1, lsl #2
    1d1a:	f894 c004 	ldrb.w	ip, [r4, #4]
    1d1e:	f881 c01e 	strb.w	ip, [r1, #30]
    1d22:	7821      	ldrb	r1, [r4, #0]
    1d24:	f8c8 1508 	str.w	r1, [r8, #1288]	; 0x508
    1d28:	f8c8 250c 	str.w	r2, [r8, #1292]	; 0x50c
    1d2c:	f8c8 e510 	str.w	lr, [r8, #1296]	; 0x510
    1d30:	68a2      	ldr	r2, [r4, #8]
    1d32:	f8c8 2524 	str.w	r2, [r8, #1316]	; 0x524
    1d36:	7b62      	ldrb	r2, [r4, #13]
    1d38:	7b21      	ldrb	r1, [r4, #12]
    1d3a:	3a00      	subs	r2, #0
    1d3c:	bf18      	it	ne
    1d3e:	2201      	movne	r2, #1
    1d40:	2902      	cmp	r1, #2
    1d42:	d060      	beq.n	1e06 <nrfx_spim_init+0x1e2>
    1d44:	2903      	cmp	r1, #3
    1d46:	d05b      	beq.n	1e00 <nrfx_spim_init+0x1dc>
    1d48:	2901      	cmp	r1, #1
    1d4a:	d056      	beq.n	1dfa <nrfx_spim_init+0x1d6>
    1d4c:	f8c8 2554 	str.w	r2, [r8, #1364]	; 0x554
    1d50:	79a2      	ldrb	r2, [r4, #6]
    1d52:	f8c8 25c0 	str.w	r2, [r8, #1472]	; 0x5c0
    1d56:	2207      	movs	r2, #7
    1d58:	f8c8 2500 	str.w	r2, [r8, #1280]	; 0x500
    1d5c:	f1ba 0f00 	cmp.w	sl, #0
    1d60:	d01f      	beq.n	1da2 <nrfx_spim_init+0x17e>
    1d62:	6839      	ldr	r1, [r7, #0]
    1d64:	7962      	ldrb	r2, [r4, #5]
    1d66:	f341 3407 	sbfx	r4, r1, #12, #8
    1d6a:	2c00      	cmp	r4, #0
    1d6c:	ea4f 3111 	mov.w	r1, r1, lsr #12
    1d70:	db38      	blt.n	1de4 <nrfx_spim_init+0x1c0>
    1d72:	f104 4460 	add.w	r4, r4, #3758096384	; 0xe0000000
    1d76:	0152      	lsls	r2, r2, #5
    1d78:	f504 4461 	add.w	r4, r4, #57600	; 0xe100
    1d7c:	b2d2      	uxtb	r2, r2
    1d7e:	f884 2300 	strb.w	r2, [r4, #768]	; 0x300
    1d82:	683a      	ldr	r2, [r7, #0]
    1d84:	f342 3107 	sbfx	r1, r2, #12, #8
    1d88:	2900      	cmp	r1, #0
    1d8a:	ea4f 3212 	mov.w	r2, r2, lsr #12
    1d8e:	db08      	blt.n	1da2 <nrfx_spim_init+0x17e>
    1d90:	4f20      	ldr	r7, [pc, #128]	; (1e14 <nrfx_spim_init+0x1f0>)
    1d92:	0949      	lsrs	r1, r1, #5
    1d94:	2401      	movs	r4, #1
    1d96:	f002 021f 	and.w	r2, r2, #31
    1d9a:	fa04 f202 	lsl.w	r2, r4, r2
    1d9e:	f847 2021 	str.w	r2, [r7, r1, lsl #2]
    1da2:	4433      	add	r3, r6
    1da4:	eb05 0583 	add.w	r5, r5, r3, lsl #2
    1da8:	2200      	movs	r2, #0
    1daa:	2301      	movs	r3, #1
    1dac:	776a      	strb	r2, [r5, #29]
    1dae:	772b      	strb	r3, [r5, #28]
    1db0:	b003      	add	sp, #12
    1db2:	e8bd 8ff0 	ldmia.w	sp!, {r4, r5, r6, r7, r8, r9, sl, fp, pc}
    1db6:	2008      	movs	r0, #8
    1db8:	b003      	add	sp, #12
    1dba:	e8bd 8ff0 	ldmia.w	sp!, {r4, r5, r6, r7, r8, r9, sl, fp, pc}
    1dbe:	f894 c002 	ldrb.w	ip, [r4, #2]
    1dc2:	f1bc 0fff 	cmp.w	ip, #255	; 0xff
    1dc6:	f04f 32ff 	mov.w	r2, #4294967295	; 0xffffffff
    1dca:	f47f af79 	bne.w	1cc0 <nrfx_spim_init+0x9c>
    1dce:	f04f 3eff 	mov.w	lr, #4294967295	; 0xffffffff
    1dd2:	e780      	b.n	1cd6 <nrfx_spim_init+0xb2>
    1dd4:	2101      	movs	r1, #1
    1dd6:	fa01 f10c 	lsl.w	r1, r1, ip
    1dda:	f04f 4ca0 	mov.w	ip, #1342177280	; 0x50000000
    1dde:	f8cc 150c 	str.w	r1, [ip, #1292]	; 0x50c
    1de2:	e78e      	b.n	1d02 <nrfx_spim_init+0xde>
    1de4:	4c0c      	ldr	r4, [pc, #48]	; (1e18 <nrfx_spim_init+0x1f4>)
    1de6:	f001 010f 	and.w	r1, r1, #15
    1dea:	0152      	lsls	r2, r2, #5
    1dec:	b2d2      	uxtb	r2, r2
    1dee:	5462      	strb	r2, [r4, r1]
    1df0:	e7c7      	b.n	1d82 <nrfx_spim_init+0x15e>
    1df2:	2011      	movs	r0, #17
    1df4:	b003      	add	sp, #12
    1df6:	e8bd 8ff0 	ldmia.w	sp!, {r4, r5, r6, r7, r8, r9, sl, fp, pc}
    1dfa:	f042 0202 	orr.w	r2, r2, #2
    1dfe:	e7a5      	b.n	1d4c <nrfx_spim_init+0x128>
    1e00:	f042 0206 	orr.w	r2, r2, #6
    1e04:	e7a2      	b.n	1d4c <nrfx_spim_init+0x128>
    1e06:	f042 0204 	orr.w	r2, r2, #4
    1e0a:	e79f      	b.n	1d4c <nrfx_spim_init+0x128>
    1e0c:	200006b8 	.word	0x200006b8
    1e10:	00001bbd 	.word	0x00001bbd
    1e14:	e000e100 	.word	0xe000e100
    1e18:	e000ed14 	.word	0xe000ed14

00001e1c <nrfx_spim_xfer>:
    1e1c:	e92d 47f0 	stmdb	sp!, {r4, r5, r6, r7, r8, r9, sl, lr}
    1e20:	7904      	ldrb	r4, [r0, #4]
    1e22:	4d53      	ldr	r5, [pc, #332]	; (1f70 <nrfx_spim_xfer+0x154>)
    1e24:	eb04 03c4 	add.w	r3, r4, r4, lsl #3
    1e28:	4696      	mov	lr, r2
    1e2a:	eb05 0283 	add.w	r2, r5, r3, lsl #2
    1e2e:	468c      	mov	ip, r1
    1e30:	7f51      	ldrb	r1, [r2, #29]
    1e32:	b082      	sub	sp, #8
    1e34:	2900      	cmp	r1, #0
    1e36:	f040 8092 	bne.w	1f5e <nrfx_spim_xfer+0x142>
    1e3a:	009b      	lsls	r3, r3, #2
    1e3c:	4606      	mov	r6, r0
    1e3e:	58eb      	ldr	r3, [r5, r3]
    1e40:	ea4f 08c4 	mov.w	r8, r4, lsl #3
    1e44:	b123      	cbz	r3, 1e50 <nrfx_spim_xfer+0x34>
    1e46:	f01e 0f14 	tst.w	lr, #20
    1e4a:	bf04      	itt	eq
    1e4c:	2301      	moveq	r3, #1
    1e4e:	7753      	strbeq	r3, [r2, #29]
    1e50:	eb08 0704 	add.w	r7, r8, r4
    1e54:	eb05 0787 	add.w	r7, r5, r7, lsl #2
    1e58:	e89c 000f 	ldmia.w	ip, {r0, r1, r2, r3}
    1e5c:	f897 a01f 	ldrb.w	sl, [r7, #31]
    1e60:	f107 090c 	add.w	r9, r7, #12
    1e64:	f1ba 0fff 	cmp.w	sl, #255	; 0xff
    1e68:	e889 000f 	stmia.w	r9, {r0, r1, r2, r3}
    1e6c:	d009      	beq.n	1e82 <nrfx_spim_xfer+0x66>
    1e6e:	7fbb      	ldrb	r3, [r7, #30]
    1e70:	2b00      	cmp	r3, #0
    1e72:	d062      	beq.n	1f3a <nrfx_spim_xfer+0x11e>
    1e74:	2301      	movs	r3, #1
    1e76:	f04f 42a0 	mov.w	r2, #1342177280	; 0x50000000
    1e7a:	fa03 f30a 	lsl.w	r3, r3, sl
    1e7e:	f8c2 3508 	str.w	r3, [r2, #1288]	; 0x508
    1e82:	f8dc 2000 	ldr.w	r2, [ip]
    1e86:	6833      	ldr	r3, [r6, #0]
    1e88:	b122      	cbz	r2, 1e94 <nrfx_spim_xfer+0x78>
    1e8a:	f002 4160 	and.w	r1, r2, #3758096384	; 0xe0000000
    1e8e:	f1b1 5f00 	cmp.w	r1, #536870912	; 0x20000000
    1e92:	d15a      	bne.n	1f4a <nrfx_spim_xfer+0x12e>
    1e94:	f8dc 1008 	ldr.w	r1, [ip, #8]
    1e98:	b121      	cbz	r1, 1ea4 <nrfx_spim_xfer+0x88>
    1e9a:	f001 4160 	and.w	r1, r1, #3758096384	; 0xe0000000
    1e9e:	f1b1 5f00 	cmp.w	r1, #536870912	; 0x20000000
    1ea2:	d152      	bne.n	1f4a <nrfx_spim_xfer+0x12e>
    1ea4:	f8dc 1004 	ldr.w	r1, [ip, #4]
    1ea8:	f8c3 2544 	str.w	r2, [r3, #1348]	; 0x544
    1eac:	f8c3 1548 	str.w	r1, [r3, #1352]	; 0x548
    1eb0:	e9dc 1202 	ldrd	r1, r2, [ip, #8]
    1eb4:	f8c3 1534 	str.w	r1, [r3, #1332]	; 0x534
    1eb8:	f8c3 2538 	str.w	r2, [r3, #1336]	; 0x538
    1ebc:	2200      	movs	r2, #0
    1ebe:	f8c3 2118 	str.w	r2, [r3, #280]	; 0x118
    1ec2:	f8d3 2118 	ldr.w	r2, [r3, #280]	; 0x118
    1ec6:	9201      	str	r2, [sp, #4]
    1ec8:	9a01      	ldr	r2, [sp, #4]
    1eca:	f01e 0201 	ands.w	r2, lr, #1
    1ece:	bf18      	it	ne
    1ed0:	2201      	movne	r2, #1
    1ed2:	f8c3 2550 	str.w	r2, [r3, #1360]	; 0x550
    1ed6:	f01e 0202 	ands.w	r2, lr, #2
    1eda:	bf18      	it	ne
    1edc:	2201      	movne	r2, #1
    1ede:	f01e 0f08 	tst.w	lr, #8
    1ee2:	f8c3 2540 	str.w	r2, [r3, #1344]	; 0x540
    1ee6:	bf04      	itt	eq
    1ee8:	2201      	moveq	r2, #1
    1eea:	611a      	streq	r2, [r3, #16]
    1eec:	eb08 0204 	add.w	r2, r8, r4
    1ef0:	f855 2022 	ldr.w	r2, [r5, r2, lsl #2]
    1ef4:	b162      	cbz	r2, 1f10 <nrfx_spim_xfer+0xf4>
    1ef6:	f01e 0004 	ands.w	r0, lr, #4
    1efa:	f04f 0240 	mov.w	r2, #64	; 0x40
    1efe:	bf1a      	itte	ne
    1f00:	f8c3 2308 	strne.w	r2, [r3, #776]	; 0x308
    1f04:	2000      	movne	r0, #0
    1f06:	f8c3 2304 	streq.w	r2, [r3, #772]	; 0x304
    1f0a:	b002      	add	sp, #8
    1f0c:	e8bd 87f0 	ldmia.w	sp!, {r4, r5, r6, r7, r8, r9, sl, pc}
    1f10:	f8d3 2118 	ldr.w	r2, [r3, #280]	; 0x118
    1f14:	2a00      	cmp	r2, #0
    1f16:	d0fb      	beq.n	1f10 <nrfx_spim_xfer+0xf4>
    1f18:	44a0      	add	r8, r4
    1f1a:	eb05 0588 	add.w	r5, r5, r8, lsl #2
    1f1e:	7feb      	ldrb	r3, [r5, #31]
    1f20:	2bff      	cmp	r3, #255	; 0xff
    1f22:	d023      	beq.n	1f6c <nrfx_spim_xfer+0x150>
    1f24:	7fa8      	ldrb	r0, [r5, #30]
    1f26:	2201      	movs	r2, #1
    1f28:	f04f 41a0 	mov.w	r1, #1342177280	; 0x50000000
    1f2c:	fa02 f303 	lsl.w	r3, r2, r3
    1f30:	b1c8      	cbz	r0, 1f66 <nrfx_spim_xfer+0x14a>
    1f32:	f8c1 350c 	str.w	r3, [r1, #1292]	; 0x50c
    1f36:	2000      	movs	r0, #0
    1f38:	e7e7      	b.n	1f0a <nrfx_spim_xfer+0xee>
    1f3a:	2301      	movs	r3, #1
    1f3c:	f04f 42a0 	mov.w	r2, #1342177280	; 0x50000000
    1f40:	fa03 f30a 	lsl.w	r3, r3, sl
    1f44:	f8c2 350c 	str.w	r3, [r2, #1292]	; 0x50c
    1f48:	e79b      	b.n	1e82 <nrfx_spim_xfer+0x66>
    1f4a:	44a0      	add	r8, r4
    1f4c:	eb05 0888 	add.w	r8, r5, r8, lsl #2
    1f50:	2300      	movs	r3, #0
    1f52:	2010      	movs	r0, #16
    1f54:	f888 301d 	strb.w	r3, [r8, #29]
    1f58:	b002      	add	sp, #8
    1f5a:	e8bd 87f0 	ldmia.w	sp!, {r4, r5, r6, r7, r8, r9, sl, pc}
    1f5e:	2011      	movs	r0, #17
    1f60:	b002      	add	sp, #8
    1f62:	e8bd 87f0 	ldmia.w	sp!, {r4, r5, r6, r7, r8, r9, sl, pc}
    1f66:	f8c1 3508 	str.w	r3, [r1, #1288]	; 0x508
    1f6a:	e7ce      	b.n	1f0a <nrfx_spim_xfer+0xee>
    1f6c:	2000      	movs	r0, #0
    1f6e:	e7cc      	b.n	1f0a <nrfx_spim_xfer+0xee>
    1f70:	200006b8 	.word	0x200006b8

00001f74 <nrfx_uart_0_irq_handler>:
    1f74:	b510      	push	{r4, lr}
    1f76:	4a6e      	ldr	r2, [pc, #440]	; (2130 <Heap_Size+0x130>)
    1f78:	f8d2 3304 	ldr.w	r3, [r2, #772]	; 0x304
    1f7c:	0599      	lsls	r1, r3, #22
    1f7e:	b08a      	sub	sp, #40	; 0x28
    1f80:	d567      	bpl.n	2052 <Heap_Size+0x52>
    1f82:	f8d2 3124 	ldr.w	r3, [r2, #292]	; 0x124
    1f86:	2b00      	cmp	r3, #0
    1f88:	d063      	beq.n	2052 <Heap_Size+0x52>
    1f8a:	2300      	movs	r3, #0
    1f8c:	f8c2 3124 	str.w	r3, [r2, #292]	; 0x124
    1f90:	f8d2 3124 	ldr.w	r3, [r2, #292]	; 0x124
    1f94:	9301      	str	r3, [sp, #4]
    1f96:	f44f 7101 	mov.w	r1, #516	; 0x204
    1f9a:	4b66      	ldr	r3, [pc, #408]	; (2134 <Heap_Size+0x134>)
    1f9c:	9801      	ldr	r0, [sp, #4]
    1f9e:	f8c2 1308 	str.w	r1, [r2, #776]	; 0x308
    1fa2:	f893 1029 	ldrb.w	r1, [r3, #41]	; 0x29
    1fa6:	b909      	cbnz	r1, 1fac <nrfx_uart_0_irq_handler+0x38>
    1fa8:	2101      	movs	r1, #1
    1faa:	6051      	str	r1, [r2, #4]
    1fac:	4a60      	ldr	r2, [pc, #384]	; (2130 <Heap_Size+0x130>)
    1fae:	2102      	movs	r1, #2
    1fb0:	f88d 1018 	strb.w	r1, [sp, #24]
    1fb4:	f8d2 1480 	ldr.w	r1, [r2, #1152]	; 0x480
    1fb8:	f8c2 1480 	str.w	r1, [r2, #1152]	; 0x480
    1fbc:	68d8      	ldr	r0, [r3, #12]
    1fbe:	9109      	str	r1, [sp, #36]	; 0x24
    1fc0:	6999      	ldr	r1, [r3, #24]
    1fc2:	685c      	ldr	r4, [r3, #4]
    1fc4:	2200      	movs	r2, #0
    1fc6:	e9cd 0107 	strd	r0, r1, [sp, #28]
    1fca:	e9c3 2206 	strd	r2, r2, [r3, #24]
    1fce:	6819      	ldr	r1, [r3, #0]
    1fd0:	a806      	add	r0, sp, #24
    1fd2:	47a0      	blx	r4
    1fd4:	4a56      	ldr	r2, [pc, #344]	; (2130 <Heap_Size+0x130>)
    1fd6:	f8d2 311c 	ldr.w	r3, [r2, #284]	; 0x11c
    1fda:	b1c3      	cbz	r3, 200e <Heap_Size+0xe>
    1fdc:	4b55      	ldr	r3, [pc, #340]	; (2134 <Heap_Size+0x134>)
    1fde:	6958      	ldr	r0, [r3, #20]
    1fe0:	6a19      	ldr	r1, [r3, #32]
    1fe2:	4288      	cmp	r0, r1
    1fe4:	d96a      	bls.n	20bc <Heap_Size+0xbc>
    1fe6:	f893 1028 	ldrb.w	r1, [r3, #40]	; 0x28
    1fea:	f001 00ff 	and.w	r0, r1, #255	; 0xff
    1fee:	2900      	cmp	r1, #0
    1ff0:	d164      	bne.n	20bc <Heap_Size+0xbc>
    1ff2:	f8c2 011c 	str.w	r0, [r2, #284]	; 0x11c
    1ff6:	f8d2 111c 	ldr.w	r1, [r2, #284]	; 0x11c
    1ffa:	9103      	str	r1, [sp, #12]
    1ffc:	9903      	ldr	r1, [sp, #12]
    1ffe:	689c      	ldr	r4, [r3, #8]
    2000:	6a18      	ldr	r0, [r3, #32]
    2002:	6a19      	ldr	r1, [r3, #32]
    2004:	5c20      	ldrb	r0, [r4, r0]
    2006:	3101      	adds	r1, #1
    2008:	6219      	str	r1, [r3, #32]
    200a:	f8c2 051c 	str.w	r0, [r2, #1308]	; 0x51c
    200e:	4a48      	ldr	r2, [pc, #288]	; (2130 <Heap_Size+0x130>)
    2010:	f8d2 3144 	ldr.w	r3, [r2, #324]	; 0x144
    2014:	b1db      	cbz	r3, 204e <Heap_Size+0x4e>
    2016:	2100      	movs	r1, #0
    2018:	4b46      	ldr	r3, [pc, #280]	; (2134 <Heap_Size+0x134>)
    201a:	f8c2 1144 	str.w	r1, [r2, #324]	; 0x144
    201e:	f8d2 0144 	ldr.w	r0, [r2, #324]	; 0x144
    2022:	f893 1029 	ldrb.w	r1, [r3, #41]	; 0x29
    2026:	9000      	str	r0, [sp, #0]
    2028:	9800      	ldr	r0, [sp, #0]
    202a:	b109      	cbz	r1, 2030 <Heap_Size+0x30>
    202c:	2101      	movs	r1, #1
    202e:	6011      	str	r1, [r2, #0]
    2030:	699a      	ldr	r2, [r3, #24]
    2032:	b162      	cbz	r2, 204e <Heap_Size+0x4e>
    2034:	68d8      	ldr	r0, [r3, #12]
    2036:	6a5c      	ldr	r4, [r3, #36]	; 0x24
    2038:	2100      	movs	r1, #0
    203a:	2201      	movs	r2, #1
    203c:	e9cd 0407 	strd	r0, r4, [sp, #28]
    2040:	6199      	str	r1, [r3, #24]
    2042:	f88d 2018 	strb.w	r2, [sp, #24]
    2046:	a806      	add	r0, sp, #24
    2048:	e9d3 1200 	ldrd	r1, r2, [r3]
    204c:	4790      	blx	r2
    204e:	b00a      	add	sp, #40	; 0x28
    2050:	bd10      	pop	{r4, pc}
    2052:	4a37      	ldr	r2, [pc, #220]	; (2130 <Heap_Size+0x130>)
    2054:	f8d2 3304 	ldr.w	r3, [r2, #772]	; 0x304
    2058:	075b      	lsls	r3, r3, #29
    205a:	d5bb      	bpl.n	1fd4 <nrfx_uart_0_irq_handler+0x60>
    205c:	f8d2 3108 	ldr.w	r3, [r2, #264]	; 0x108
    2060:	2b00      	cmp	r3, #0
    2062:	d0b7      	beq.n	1fd4 <nrfx_uart_0_irq_handler+0x60>
    2064:	4b33      	ldr	r3, [pc, #204]	; (2134 <Heap_Size+0x134>)
    2066:	6999      	ldr	r1, [r3, #24]
    2068:	2900      	cmp	r1, #0
    206a:	d03e      	beq.n	20ea <Heap_Size+0xea>
    206c:	2100      	movs	r1, #0
    206e:	f8c2 1108 	str.w	r1, [r2, #264]	; 0x108
    2072:	f8d2 1108 	ldr.w	r1, [r2, #264]	; 0x108
    2076:	9104      	str	r1, [sp, #16]
    2078:	9904      	ldr	r1, [sp, #16]
    207a:	68d8      	ldr	r0, [r3, #12]
    207c:	6a59      	ldr	r1, [r3, #36]	; 0x24
    207e:	f8d2 2518 	ldr.w	r2, [r2, #1304]	; 0x518
    2082:	5442      	strb	r2, [r0, r1]
    2084:	6a5a      	ldr	r2, [r3, #36]	; 0x24
    2086:	6999      	ldr	r1, [r3, #24]
    2088:	3201      	adds	r2, #1
    208a:	625a      	str	r2, [r3, #36]	; 0x24
    208c:	6a5a      	ldr	r2, [r3, #36]	; 0x24
    208e:	428a      	cmp	r2, r1
    2090:	d1a0      	bne.n	1fd4 <nrfx_uart_0_irq_handler+0x60>
    2092:	69da      	ldr	r2, [r3, #28]
    2094:	2a00      	cmp	r2, #0
    2096:	d031      	beq.n	20fc <Heap_Size+0xfc>
    2098:	619a      	str	r2, [r3, #24]
    209a:	691a      	ldr	r2, [r3, #16]
    209c:	68d8      	ldr	r0, [r3, #12]
    209e:	6a5c      	ldr	r4, [r3, #36]	; 0x24
    20a0:	60da      	str	r2, [r3, #12]
    20a2:	2100      	movs	r1, #0
    20a4:	2201      	movs	r2, #1
    20a6:	9408      	str	r4, [sp, #32]
    20a8:	61d9      	str	r1, [r3, #28]
    20aa:	6259      	str	r1, [r3, #36]	; 0x24
    20ac:	9007      	str	r0, [sp, #28]
    20ae:	685c      	ldr	r4, [r3, #4]
    20b0:	6819      	ldr	r1, [r3, #0]
    20b2:	f88d 2018 	strb.w	r2, [sp, #24]
    20b6:	a806      	add	r0, sp, #24
    20b8:	47a0      	blx	r4
    20ba:	e78b      	b.n	1fd4 <nrfx_uart_0_irq_handler+0x60>
    20bc:	4a1c      	ldr	r2, [pc, #112]	; (2130 <Heap_Size+0x130>)
    20be:	2000      	movs	r0, #0
    20c0:	f8c2 011c 	str.w	r0, [r2, #284]	; 0x11c
    20c4:	f8d2 211c 	ldr.w	r2, [r2, #284]	; 0x11c
    20c8:	9202      	str	r2, [sp, #8]
    20ca:	9a02      	ldr	r2, [sp, #8]
    20cc:	695a      	ldr	r2, [r3, #20]
    20ce:	2a00      	cmp	r2, #0
    20d0:	d09d      	beq.n	200e <Heap_Size+0xe>
    20d2:	e9d3 2101 	ldrd	r2, r1, [r3, #4]
    20d6:	695c      	ldr	r4, [r3, #20]
    20d8:	f88d 0018 	strb.w	r0, [sp, #24]
    20dc:	e9cd 1407 	strd	r1, r4, [sp, #28]
    20e0:	6158      	str	r0, [r3, #20]
    20e2:	6819      	ldr	r1, [r3, #0]
    20e4:	a806      	add	r0, sp, #24
    20e6:	4790      	blx	r2
    20e8:	e791      	b.n	200e <Heap_Size+0xe>
    20ea:	f8c2 1108 	str.w	r1, [r2, #264]	; 0x108
    20ee:	f8d2 0108 	ldr.w	r0, [r2, #264]	; 0x108
    20f2:	9005      	str	r0, [sp, #20]
    20f4:	9805      	ldr	r0, [sp, #20]
    20f6:	f8d2 2518 	ldr.w	r2, [r2, #1304]	; 0x518
    20fa:	e7c7      	b.n	208c <Heap_Size+0x8c>
    20fc:	f893 2029 	ldrb.w	r2, [r3, #41]	; 0x29
    2100:	b912      	cbnz	r2, 2108 <Heap_Size+0x108>
    2102:	4a0b      	ldr	r2, [pc, #44]	; (2130 <Heap_Size+0x130>)
    2104:	2101      	movs	r1, #1
    2106:	6051      	str	r1, [r2, #4]
    2108:	4a09      	ldr	r2, [pc, #36]	; (2130 <Heap_Size+0x130>)
    210a:	f44f 7101 	mov.w	r1, #516	; 0x204
    210e:	f8c2 1308 	str.w	r1, [r2, #776]	; 0x308
    2112:	68d8      	ldr	r0, [r3, #12]
    2114:	6a5c      	ldr	r4, [r3, #36]	; 0x24
    2116:	2100      	movs	r1, #0
    2118:	2201      	movs	r2, #1
    211a:	e9cd 0407 	strd	r0, r4, [sp, #28]
    211e:	6199      	str	r1, [r3, #24]
    2120:	f88d 2018 	strb.w	r2, [sp, #24]
    2124:	a806      	add	r0, sp, #24
    2126:	e9d3 1200 	ldrd	r1, r2, [r3]
    212a:	4790      	blx	r2
    212c:	e752      	b.n	1fd4 <nrfx_uart_0_irq_handler+0x60>
    212e:	bf00      	nop
    2130:	40002000 	.word	0x40002000
    2134:	200006dc 	.word	0x200006dc

00002138 <nrfx_uart_init>:
    2138:	e92d 41f0 	stmdb	sp!, {r4, r5, r6, r7, r8, lr}
    213c:	4e60      	ldr	r6, [pc, #384]	; (22c0 <nrfx_uart_init+0x188>)
    213e:	f890 8004 	ldrb.w	r8, [r0, #4]
    2142:	232c      	movs	r3, #44	; 0x2c
    2144:	fb03 6308 	mla	r3, r3, r8, r6
    2148:	b082      	sub	sp, #8
    214a:	f893 302a 	ldrb.w	r3, [r3, #42]	; 0x2a
    214e:	2b00      	cmp	r3, #0
    2150:	f040 8088 	bne.w	2264 <nrfx_uart_init+0x12c>
    2154:	4605      	mov	r5, r0
    2156:	460c      	mov	r4, r1
    2158:	6800      	ldr	r0, [r0, #0]
    215a:	495a      	ldr	r1, [pc, #360]	; (22c4 <nrfx_uart_init+0x18c>)
    215c:	4617      	mov	r7, r2
    215e:	f7ff fd03 	bl	1b68 <nrfx_prs_acquire>
    2162:	2800      	cmp	r0, #0
    2164:	d17a      	bne.n	225c <nrfx_uart_init+0x124>
    2166:	6823      	ldr	r3, [r4, #0]
    2168:	1c59      	adds	r1, r3, #1
    216a:	d00c      	beq.n	2186 <nrfx_uart_init+0x4e>
    216c:	f04f 41a0 	mov.w	r1, #1342177280	; 0x50000000
    2170:	2201      	movs	r2, #1
    2172:	fa02 f303 	lsl.w	r3, r2, r3
    2176:	f8c1 3508 	str.w	r3, [r1, #1288]	; 0x508
    217a:	6823      	ldr	r3, [r4, #0]
    217c:	f503 73e0 	add.w	r3, r3, #448	; 0x1c0
    2180:	2203      	movs	r2, #3
    2182:	f841 2023 	str.w	r2, [r1, r3, lsl #2]
    2186:	6863      	ldr	r3, [r4, #4]
    2188:	1c5a      	adds	r2, r3, #1
    218a:	d006      	beq.n	219a <nrfx_uart_init+0x62>
    218c:	f503 73e0 	add.w	r3, r3, #448	; 0x1c0
    2190:	f04f 42a0 	mov.w	r2, #1342177280	; 0x50000000
    2194:	2100      	movs	r1, #0
    2196:	f842 1023 	str.w	r1, [r2, r3, lsl #2]
    219a:	682b      	ldr	r3, [r5, #0]
    219c:	69a2      	ldr	r2, [r4, #24]
    219e:	f8c3 2524 	str.w	r2, [r3, #1316]	; 0x524
    21a2:	7d22      	ldrb	r2, [r4, #20]
    21a4:	7d63      	ldrb	r3, [r4, #21]
    21a6:	4313      	orrs	r3, r2
    21a8:	682a      	ldr	r2, [r5, #0]
    21aa:	f8c2 356c 	str.w	r3, [r2, #1388]	; 0x56c
    21ae:	e9d4 1200 	ldrd	r1, r2, [r4]
    21b2:	682b      	ldr	r3, [r5, #0]
    21b4:	f8c3 2514 	str.w	r2, [r3, #1300]	; 0x514
    21b8:	f8c3 150c 	str.w	r1, [r3, #1292]	; 0x50c
    21bc:	7d23      	ldrb	r3, [r4, #20]
    21be:	2b01      	cmp	r3, #1
    21c0:	d05b      	beq.n	227a <nrfx_uart_init+0x142>
    21c2:	232c      	movs	r3, #44	; 0x2c
    21c4:	fb03 f308 	mul.w	r3, r3, r8
    21c8:	18f2      	adds	r2, r6, r3
    21ca:	6057      	str	r7, [r2, #4]
    21cc:	6922      	ldr	r2, [r4, #16]
    21ce:	50f2      	str	r2, [r6, r3]
    21d0:	b38f      	cbz	r7, 2236 <nrfx_uart_init+0xfe>
    21d2:	682a      	ldr	r2, [r5, #0]
    21d4:	7f23      	ldrb	r3, [r4, #28]
    21d6:	2100      	movs	r1, #0
    21d8:	f8c2 111c 	str.w	r1, [r2, #284]	; 0x11c
    21dc:	f8d2 211c 	ldr.w	r2, [r2, #284]	; 0x11c
    21e0:	9200      	str	r2, [sp, #0]
    21e2:	9a00      	ldr	r2, [sp, #0]
    21e4:	682a      	ldr	r2, [r5, #0]
    21e6:	f8c2 1144 	str.w	r1, [r2, #324]	; 0x144
    21ea:	f8d2 2144 	ldr.w	r2, [r2, #324]	; 0x144
    21ee:	9201      	str	r2, [sp, #4]
    21f0:	9a01      	ldr	r2, [sp, #4]
    21f2:	682a      	ldr	r2, [r5, #0]
    21f4:	4934      	ldr	r1, [pc, #208]	; (22c8 <nrfx_uart_init+0x190>)
    21f6:	f8c2 1304 	str.w	r1, [r2, #772]	; 0x304
    21fa:	682a      	ldr	r2, [r5, #0]
    21fc:	f342 3107 	sbfx	r1, r2, #12, #8
    2200:	2900      	cmp	r1, #0
    2202:	ea4f 3212 	mov.w	r2, r2, lsr #12
    2206:	db31      	blt.n	226c <nrfx_uart_init+0x134>
    2208:	f101 4160 	add.w	r1, r1, #3758096384	; 0xe0000000
    220c:	015b      	lsls	r3, r3, #5
    220e:	f501 4161 	add.w	r1, r1, #57600	; 0xe100
    2212:	b2db      	uxtb	r3, r3
    2214:	f881 3300 	strb.w	r3, [r1, #768]	; 0x300
    2218:	682b      	ldr	r3, [r5, #0]
    221a:	f343 3207 	sbfx	r2, r3, #12, #8
    221e:	2a00      	cmp	r2, #0
    2220:	ea4f 3113 	mov.w	r1, r3, lsr #12
    2224:	db08      	blt.n	2238 <nrfx_uart_init+0x100>
    2226:	4c29      	ldr	r4, [pc, #164]	; (22cc <nrfx_uart_init+0x194>)
    2228:	0952      	lsrs	r2, r2, #5
    222a:	f001 011f 	and.w	r1, r1, #31
    222e:	2301      	movs	r3, #1
    2230:	408b      	lsls	r3, r1
    2232:	f844 3022 	str.w	r3, [r4, r2, lsl #2]
    2236:	682b      	ldr	r3, [r5, #0]
    2238:	2204      	movs	r2, #4
    223a:	f8c3 2500 	str.w	r2, [r3, #1280]	; 0x500
    223e:	232c      	movs	r3, #44	; 0x2c
    2240:	fb03 6608 	mla	r6, r3, r8, r6
    2244:	2201      	movs	r2, #1
    2246:	2300      	movs	r3, #0
    2248:	e9c6 3306 	strd	r3, r3, [r6, #24]
    224c:	f886 3029 	strb.w	r3, [r6, #41]	; 0x29
    2250:	6173      	str	r3, [r6, #20]
    2252:	f886 202a 	strb.w	r2, [r6, #42]	; 0x2a
    2256:	b002      	add	sp, #8
    2258:	e8bd 81f0 	ldmia.w	sp!, {r4, r5, r6, r7, r8, pc}
    225c:	2011      	movs	r0, #17
    225e:	b002      	add	sp, #8
    2260:	e8bd 81f0 	ldmia.w	sp!, {r4, r5, r6, r7, r8, pc}
    2264:	2008      	movs	r0, #8
    2266:	b002      	add	sp, #8
    2268:	e8bd 81f0 	ldmia.w	sp!, {r4, r5, r6, r7, r8, pc}
    226c:	4918      	ldr	r1, [pc, #96]	; (22d0 <nrfx_uart_init+0x198>)
    226e:	f002 020f 	and.w	r2, r2, #15
    2272:	015b      	lsls	r3, r3, #5
    2274:	b2db      	uxtb	r3, r3
    2276:	548b      	strb	r3, [r1, r2]
    2278:	e7ce      	b.n	2218 <nrfx_uart_init+0xe0>
    227a:	68a3      	ldr	r3, [r4, #8]
    227c:	1c59      	adds	r1, r3, #1
    227e:	d006      	beq.n	228e <nrfx_uart_init+0x156>
    2280:	f503 73e0 	add.w	r3, r3, #448	; 0x1c0
    2284:	f04f 42a0 	mov.w	r2, #1342177280	; 0x50000000
    2288:	2100      	movs	r1, #0
    228a:	f842 1023 	str.w	r1, [r2, r3, lsl #2]
    228e:	68e3      	ldr	r3, [r4, #12]
    2290:	1c5a      	adds	r2, r3, #1
    2292:	d00d      	beq.n	22b0 <nrfx_uart_init+0x178>
    2294:	f04f 41a0 	mov.w	r1, #1342177280	; 0x50000000
    2298:	2201      	movs	r2, #1
    229a:	fa02 f303 	lsl.w	r3, r2, r3
    229e:	f8c1 3508 	str.w	r3, [r1, #1288]	; 0x508
    22a2:	68e3      	ldr	r3, [r4, #12]
    22a4:	f503 73e0 	add.w	r3, r3, #448	; 0x1c0
    22a8:	2203      	movs	r2, #3
    22aa:	f841 2023 	str.w	r2, [r1, r3, lsl #2]
    22ae:	68e3      	ldr	r3, [r4, #12]
    22b0:	682a      	ldr	r2, [r5, #0]
    22b2:	68a1      	ldr	r1, [r4, #8]
    22b4:	f8c2 3508 	str.w	r3, [r2, #1288]	; 0x508
    22b8:	f8c2 1510 	str.w	r1, [r2, #1296]	; 0x510
    22bc:	e781      	b.n	21c2 <nrfx_uart_init+0x8a>
    22be:	bf00      	nop
    22c0:	200006dc 	.word	0x200006dc
    22c4:	00001f75 	.word	0x00001f75
    22c8:	00020080 	.word	0x00020080
    22cc:	e000e100 	.word	0xe000e100
    22d0:	e000ed14 	.word	0xe000ed14

000022d4 <nrfx_uart_uninit>:
    22d4:	b5f8      	push	{r3, r4, r5, r6, r7, lr}
    22d6:	6803      	ldr	r3, [r0, #0]
    22d8:	7906      	ldrb	r6, [r0, #4]
    22da:	4c32      	ldr	r4, [pc, #200]	; (23a4 <nrfx_uart_uninit+0xd0>)
    22dc:	2200      	movs	r2, #0
    22de:	f8c3 2500 	str.w	r2, [r3, #1280]	; 0x500
    22e2:	232c      	movs	r3, #44	; 0x2c
    22e4:	fb03 4306 	mla	r3, r3, r6, r4
    22e8:	685b      	ldr	r3, [r3, #4]
    22ea:	b1bb      	cbz	r3, 231c <nrfx_uart_uninit+0x48>
    22ec:	6803      	ldr	r3, [r0, #0]
    22ee:	4a2e      	ldr	r2, [pc, #184]	; (23a8 <nrfx_uart_uninit+0xd4>)
    22f0:	f8c3 2308 	str.w	r2, [r3, #776]	; 0x308
    22f4:	6803      	ldr	r3, [r0, #0]
    22f6:	f343 3207 	sbfx	r2, r3, #12, #8
    22fa:	2a00      	cmp	r2, #0
    22fc:	ea4f 3113 	mov.w	r1, r3, lsr #12
    2300:	db0d      	blt.n	231e <nrfx_uart_uninit+0x4a>
    2302:	0952      	lsrs	r2, r2, #5
    2304:	4d29      	ldr	r5, [pc, #164]	; (23ac <nrfx_uart_uninit+0xd8>)
    2306:	f001 011f 	and.w	r1, r1, #31
    230a:	3220      	adds	r2, #32
    230c:	2301      	movs	r3, #1
    230e:	408b      	lsls	r3, r1
    2310:	f845 3022 	str.w	r3, [r5, r2, lsl #2]
    2314:	f3bf 8f4f 	dsb	sy
    2318:	f3bf 8f6f 	isb	sy
    231c:	6803      	ldr	r3, [r0, #0]
    231e:	f8d3 c50c 	ldr.w	ip, [r3, #1292]	; 0x50c
    2322:	f8d3 7514 	ldr.w	r7, [r3, #1300]	; 0x514
    2326:	f8d3 1508 	ldr.w	r1, [r3, #1288]	; 0x508
    232a:	f8d3 5510 	ldr.w	r5, [r3, #1296]	; 0x510
    232e:	f04f 32ff 	mov.w	r2, #4294967295	; 0xffffffff
    2332:	f8c3 2514 	str.w	r2, [r3, #1300]	; 0x514
    2336:	f8c3 250c 	str.w	r2, [r3, #1292]	; 0x50c
    233a:	6803      	ldr	r3, [r0, #0]
    233c:	4594      	cmp	ip, r2
    233e:	f8c3 2508 	str.w	r2, [r3, #1288]	; 0x508
    2342:	f8c3 2510 	str.w	r2, [r3, #1296]	; 0x510
    2346:	d006      	beq.n	2356 <nrfx_uart_uninit+0x82>
    2348:	f50c 7ce0 	add.w	ip, ip, #448	; 0x1c0
    234c:	f04f 43a0 	mov.w	r3, #1342177280	; 0x50000000
    2350:	2202      	movs	r2, #2
    2352:	f843 202c 	str.w	r2, [r3, ip, lsl #2]
    2356:	1c7b      	adds	r3, r7, #1
    2358:	d006      	beq.n	2368 <nrfx_uart_uninit+0x94>
    235a:	f507 77e0 	add.w	r7, r7, #448	; 0x1c0
    235e:	f04f 43a0 	mov.w	r3, #1342177280	; 0x50000000
    2362:	2202      	movs	r2, #2
    2364:	f843 2027 	str.w	r2, [r3, r7, lsl #2]
    2368:	1c6a      	adds	r2, r5, #1
    236a:	d006      	beq.n	237a <nrfx_uart_uninit+0xa6>
    236c:	f505 75e0 	add.w	r5, r5, #448	; 0x1c0
    2370:	f04f 43a0 	mov.w	r3, #1342177280	; 0x50000000
    2374:	2202      	movs	r2, #2
    2376:	f843 2025 	str.w	r2, [r3, r5, lsl #2]
    237a:	1c4b      	adds	r3, r1, #1
    237c:	d006      	beq.n	238c <nrfx_uart_uninit+0xb8>
    237e:	f04f 43a0 	mov.w	r3, #1342177280	; 0x50000000
    2382:	f501 71e0 	add.w	r1, r1, #448	; 0x1c0
    2386:	2202      	movs	r2, #2
    2388:	f843 2021 	str.w	r2, [r3, r1, lsl #2]
    238c:	6800      	ldr	r0, [r0, #0]
    238e:	f7ff fc09 	bl	1ba4 <nrfx_prs_release>
    2392:	232c      	movs	r3, #44	; 0x2c
    2394:	fb03 4406 	mla	r4, r3, r6, r4
    2398:	2300      	movs	r3, #0
    239a:	f884 302a 	strb.w	r3, [r4, #42]	; 0x2a
    239e:	6063      	str	r3, [r4, #4]
    23a0:	bdf8      	pop	{r3, r4, r5, r6, r7, pc}
    23a2:	bf00      	nop
    23a4:	200006dc 	.word	0x200006dc
    23a8:	00020284 	.word	0x00020284
    23ac:	e000e100 	.word	0xe000e100

000023b0 <nrfx_uart_tx>:
    23b0:	e92d 41f0 	stmdb	sp!, {r4, r5, r6, r7, r8, lr}
    23b4:	4c32      	ldr	r4, [pc, #200]	; (2480 <nrfx_uart_tx+0xd0>)
    23b6:	f890 e004 	ldrb.w	lr, [r0, #4]
    23ba:	232c      	movs	r3, #44	; 0x2c
    23bc:	fb03 430e 	mla	r3, r3, lr, r4
    23c0:	4684      	mov	ip, r0
    23c2:	6958      	ldr	r0, [r3, #20]
    23c4:	b084      	sub	sp, #16
    23c6:	bb28      	cbnz	r0, 2414 <nrfx_uart_tx+0x64>
    23c8:	615a      	str	r2, [r3, #20]
    23ca:	6099      	str	r1, [r3, #8]
    23cc:	6218      	str	r0, [r3, #32]
    23ce:	f883 0028 	strb.w	r0, [r3, #40]	; 0x28
    23d2:	f8dc 2000 	ldr.w	r2, [ip]
    23d6:	f8c2 011c 	str.w	r0, [r2, #284]	; 0x11c
    23da:	f8d2 211c 	ldr.w	r2, [r2, #284]	; 0x11c
    23de:	9202      	str	r2, [sp, #8]
    23e0:	9a02      	ldr	r2, [sp, #8]
    23e2:	f8dc 2000 	ldr.w	r2, [ip]
    23e6:	2101      	movs	r1, #1
    23e8:	6091      	str	r1, [r2, #8]
    23ea:	f8dc 2000 	ldr.w	r2, [ip]
    23ee:	689d      	ldr	r5, [r3, #8]
    23f0:	f8c2 011c 	str.w	r0, [r2, #284]	; 0x11c
    23f4:	f8d2 111c 	ldr.w	r1, [r2, #284]	; 0x11c
    23f8:	9101      	str	r1, [sp, #4]
    23fa:	9901      	ldr	r1, [sp, #4]
    23fc:	6a19      	ldr	r1, [r3, #32]
    23fe:	5c6e      	ldrb	r6, [r5, r1]
    2400:	6a19      	ldr	r1, [r3, #32]
    2402:	3101      	adds	r1, #1
    2404:	6219      	str	r1, [r3, #32]
    2406:	f8c2 651c 	str.w	r6, [r2, #1308]	; 0x51c
    240a:	685a      	ldr	r2, [r3, #4]
    240c:	b132      	cbz	r2, 241c <nrfx_uart_tx+0x6c>
    240e:	b004      	add	sp, #16
    2410:	e8bd 81f0 	ldmia.w	sp!, {r4, r5, r6, r7, r8, pc}
    2414:	2011      	movs	r0, #17
    2416:	b004      	add	sp, #16
    2418:	e8bd 81f0 	ldmia.w	sp!, {r4, r5, r6, r7, r8, pc}
    241c:	695e      	ldr	r6, [r3, #20]
    241e:	6a1a      	ldr	r2, [r3, #32]
    2420:	f8dc 1000 	ldr.w	r1, [ip]
    2424:	42b2      	cmp	r2, r6
    2426:	d21b      	bcs.n	2460 <nrfx_uart_tx+0xb0>
    2428:	4607      	mov	r7, r0
    242a:	e002      	b.n	2432 <nrfx_uart_tx+0x82>
    242c:	f893 2028 	ldrb.w	r2, [r3, #40]	; 0x28
    2430:	bb22      	cbnz	r2, 247c <nrfx_uart_tx+0xcc>
    2432:	f8d1 211c 	ldr.w	r2, [r1, #284]	; 0x11c
    2436:	2a00      	cmp	r2, #0
    2438:	d0f8      	beq.n	242c <nrfx_uart_tx+0x7c>
    243a:	f8c1 711c 	str.w	r7, [r1, #284]	; 0x11c
    243e:	f8d1 211c 	ldr.w	r2, [r1, #284]	; 0x11c
    2442:	9203      	str	r2, [sp, #12]
    2444:	9a03      	ldr	r2, [sp, #12]
    2446:	6a1a      	ldr	r2, [r3, #32]
    2448:	f815 8002 	ldrb.w	r8, [r5, r2]
    244c:	6a1a      	ldr	r2, [r3, #32]
    244e:	3201      	adds	r2, #1
    2450:	621a      	str	r2, [r3, #32]
    2452:	f8c1 851c 	str.w	r8, [r1, #1308]	; 0x51c
    2456:	6a1a      	ldr	r2, [r3, #32]
    2458:	4296      	cmp	r6, r2
    245a:	d8ea      	bhi.n	2432 <nrfx_uart_tx+0x82>
    245c:	f8dc 1000 	ldr.w	r1, [ip]
    2460:	f8d1 311c 	ldr.w	r3, [r1, #284]	; 0x11c
    2464:	2b00      	cmp	r3, #0
    2466:	d0fb      	beq.n	2460 <nrfx_uart_tx+0xb0>
    2468:	2301      	movs	r3, #1
    246a:	60cb      	str	r3, [r1, #12]
    246c:	232c      	movs	r3, #44	; 0x2c
    246e:	fb03 440e 	mla	r4, r3, lr, r4
    2472:	2300      	movs	r3, #0
    2474:	6163      	str	r3, [r4, #20]
    2476:	b004      	add	sp, #16
    2478:	e8bd 81f0 	ldmia.w	sp!, {r4, r5, r6, r7, r8, pc}
    247c:	200f      	movs	r0, #15
    247e:	e7f5      	b.n	246c <nrfx_uart_tx+0xbc>
    2480:	200006dc 	.word	0x200006dc

00002484 <nrfx_uarte_0_irq_handler>:
    2484:	b510      	push	{r4, lr}
    2486:	4b58      	ldr	r3, [pc, #352]	; (25e8 <nrfx_uarte_0_irq_handler+0x164>)
    2488:	f8d3 2124 	ldr.w	r2, [r3, #292]	; 0x124
    248c:	b08a      	sub	sp, #40	; 0x28
    248e:	2a00      	cmp	r2, #0
    2490:	d04b      	beq.n	252a <nrfx_uarte_0_irq_handler+0xa6>
    2492:	2000      	movs	r0, #0
    2494:	f8c3 0124 	str.w	r0, [r3, #292]	; 0x124
    2498:	f8d3 1124 	ldr.w	r1, [r3, #292]	; 0x124
    249c:	9104      	str	r1, [sp, #16]
    249e:	2202      	movs	r2, #2
    24a0:	f88d 2018 	strb.w	r2, [sp, #24]
    24a4:	9904      	ldr	r1, [sp, #16]
    24a6:	4a51      	ldr	r2, [pc, #324]	; (25ec <nrfx_uarte_0_irq_handler+0x168>)
    24a8:	f8d3 1480 	ldr.w	r1, [r3, #1152]	; 0x480
    24ac:	f8c3 1480 	str.w	r1, [r3, #1152]	; 0x480
    24b0:	9109      	str	r1, [sp, #36]	; 0x24
    24b2:	f8d3 453c 	ldr.w	r4, [r3, #1340]	; 0x53c
    24b6:	68d1      	ldr	r1, [r2, #12]
    24b8:	6853      	ldr	r3, [r2, #4]
    24ba:	e9cd 1407 	strd	r1, r4, [sp, #28]
    24be:	e9c2 0006 	strd	r0, r0, [r2, #24]
    24c2:	6811      	ldr	r1, [r2, #0]
    24c4:	a806      	add	r0, sp, #24
    24c6:	4798      	blx	r3
    24c8:	4b47      	ldr	r3, [pc, #284]	; (25e8 <nrfx_uarte_0_irq_handler+0x164>)
    24ca:	f8d3 2144 	ldr.w	r2, [r3, #324]	; 0x144
    24ce:	b152      	cbz	r2, 24e6 <nrfx_uarte_0_irq_handler+0x62>
    24d0:	4a46      	ldr	r2, [pc, #280]	; (25ec <nrfx_uarte_0_irq_handler+0x168>)
    24d2:	2100      	movs	r1, #0
    24d4:	f8c3 1144 	str.w	r1, [r3, #324]	; 0x144
    24d8:	f8d3 4144 	ldr.w	r4, [r3, #324]	; 0x144
    24dc:	6990      	ldr	r0, [r2, #24]
    24de:	9403      	str	r4, [sp, #12]
    24e0:	9c03      	ldr	r4, [sp, #12]
    24e2:	2800      	cmp	r0, #0
    24e4:	d149      	bne.n	257a <nrfx_uarte_0_irq_handler+0xf6>
    24e6:	4b40      	ldr	r3, [pc, #256]	; (25e8 <nrfx_uarte_0_irq_handler+0x164>)
    24e8:	f8d3 2120 	ldr.w	r2, [r3, #288]	; 0x120
    24ec:	b162      	cbz	r2, 2508 <nrfx_uarte_0_irq_handler+0x84>
    24ee:	2000      	movs	r0, #0
    24f0:	f8c3 0120 	str.w	r0, [r3, #288]	; 0x120
    24f4:	f8d3 2120 	ldr.w	r2, [r3, #288]	; 0x120
    24f8:	9202      	str	r2, [sp, #8]
    24fa:	2101      	movs	r1, #1
    24fc:	4a3b      	ldr	r2, [pc, #236]	; (25ec <nrfx_uarte_0_irq_handler+0x168>)
    24fe:	9c02      	ldr	r4, [sp, #8]
    2500:	60d9      	str	r1, [r3, #12]
    2502:	6951      	ldr	r1, [r2, #20]
    2504:	2900      	cmp	r1, #0
    2506:	d155      	bne.n	25b4 <nrfx_uarte_0_irq_handler+0x130>
    2508:	4b37      	ldr	r3, [pc, #220]	; (25e8 <nrfx_uarte_0_irq_handler+0x164>)
    250a:	f8d3 2158 	ldr.w	r2, [r3, #344]	; 0x158
    250e:	b152      	cbz	r2, 2526 <nrfx_uarte_0_irq_handler+0xa2>
    2510:	2000      	movs	r0, #0
    2512:	f8c3 0158 	str.w	r0, [r3, #344]	; 0x158
    2516:	f8d3 1158 	ldr.w	r1, [r3, #344]	; 0x158
    251a:	4a34      	ldr	r2, [pc, #208]	; (25ec <nrfx_uarte_0_irq_handler+0x168>)
    251c:	9101      	str	r1, [sp, #4]
    251e:	9901      	ldr	r1, [sp, #4]
    2520:	6951      	ldr	r1, [r2, #20]
    2522:	2900      	cmp	r1, #0
    2524:	d138      	bne.n	2598 <nrfx_uarte_0_irq_handler+0x114>
    2526:	b00a      	add	sp, #40	; 0x28
    2528:	bd10      	pop	{r4, pc}
    252a:	f8d3 1110 	ldr.w	r1, [r3, #272]	; 0x110
    252e:	2900      	cmp	r1, #0
    2530:	d0ca      	beq.n	24c8 <nrfx_uarte_0_irq_handler+0x44>
    2532:	f8c3 2110 	str.w	r2, [r3, #272]	; 0x110
    2536:	f8d3 1110 	ldr.w	r1, [r3, #272]	; 0x110
    253a:	4c2c      	ldr	r4, [pc, #176]	; (25ec <nrfx_uarte_0_irq_handler+0x168>)
    253c:	9105      	str	r1, [sp, #20]
    253e:	9905      	ldr	r1, [sp, #20]
    2540:	69a1      	ldr	r1, [r4, #24]
    2542:	f8d3 053c 	ldr.w	r0, [r3, #1340]	; 0x53c
    2546:	4288      	cmp	r0, r1
    2548:	d1be      	bne.n	24c8 <nrfx_uarte_0_irq_handler+0x44>
    254a:	69e1      	ldr	r1, [r4, #28]
    254c:	2900      	cmp	r1, #0
    254e:	d03e      	beq.n	25ce <nrfx_uarte_0_irq_handler+0x14a>
    2550:	e9c4 1206 	strd	r1, r2, [r4, #24]
    2554:	f8d3 2200 	ldr.w	r2, [r3, #512]	; 0x200
    2558:	f022 0220 	bic.w	r2, r2, #32
    255c:	f8c3 2200 	str.w	r2, [r3, #512]	; 0x200
    2560:	68e2      	ldr	r2, [r4, #12]
    2562:	9207      	str	r2, [sp, #28]
    2564:	2101      	movs	r1, #1
    2566:	6922      	ldr	r2, [r4, #16]
    2568:	f88d 1018 	strb.w	r1, [sp, #24]
    256c:	9008      	str	r0, [sp, #32]
    256e:	6863      	ldr	r3, [r4, #4]
    2570:	6821      	ldr	r1, [r4, #0]
    2572:	60e2      	str	r2, [r4, #12]
    2574:	a806      	add	r0, sp, #24
    2576:	4798      	blx	r3
    2578:	e7a6      	b.n	24c8 <nrfx_uarte_0_irq_handler+0x44>
    257a:	f8d3 453c 	ldr.w	r4, [r3, #1340]	; 0x53c
    257e:	68d0      	ldr	r0, [r2, #12]
    2580:	2301      	movs	r3, #1
    2582:	e9c2 1106 	strd	r1, r1, [r2, #24]
    2586:	e9cd 0407 	strd	r0, r4, [sp, #28]
    258a:	f88d 3018 	strb.w	r3, [sp, #24]
    258e:	a806      	add	r0, sp, #24
    2590:	e9d2 1300 	ldrd	r1, r3, [r2]
    2594:	4798      	blx	r3
    2596:	e7a6      	b.n	24e6 <nrfx_uarte_0_irq_handler+0x62>
    2598:	f8d3 454c 	ldr.w	r4, [r3, #1356]	; 0x54c
    259c:	f88d 0018 	strb.w	r0, [sp, #24]
    25a0:	e9d2 3101 	ldrd	r3, r1, [r2, #4]
    25a4:	6150      	str	r0, [r2, #20]
    25a6:	e9cd 1407 	strd	r1, r4, [sp, #28]
    25aa:	a806      	add	r0, sp, #24
    25ac:	6811      	ldr	r1, [r2, #0]
    25ae:	4798      	blx	r3
    25b0:	b00a      	add	sp, #40	; 0x28
    25b2:	bd10      	pop	{r4, pc}
    25b4:	f8d3 454c 	ldr.w	r4, [r3, #1356]	; 0x54c
    25b8:	f88d 0018 	strb.w	r0, [sp, #24]
    25bc:	e9d2 3101 	ldrd	r3, r1, [r2, #4]
    25c0:	6150      	str	r0, [r2, #20]
    25c2:	e9cd 1407 	strd	r1, r4, [sp, #28]
    25c6:	a806      	add	r0, sp, #24
    25c8:	6811      	ldr	r1, [r2, #0]
    25ca:	4798      	blx	r3
    25cc:	e79c      	b.n	2508 <nrfx_uarte_0_irq_handler+0x84>
    25ce:	68e2      	ldr	r2, [r4, #12]
    25d0:	61a1      	str	r1, [r4, #24]
    25d2:	2301      	movs	r3, #1
    25d4:	e9cd 2007 	strd	r2, r0, [sp, #28]
    25d8:	f88d 3018 	strb.w	r3, [sp, #24]
    25dc:	a806      	add	r0, sp, #24
    25de:	e9d4 1300 	ldrd	r1, r3, [r4]
    25e2:	4798      	blx	r3
    25e4:	e770      	b.n	24c8 <nrfx_uarte_0_irq_handler+0x44>
    25e6:	bf00      	nop
    25e8:	40002000 	.word	0x40002000
    25ec:	20000708 	.word	0x20000708

000025f0 <nrfx_uarte_init>:
    25f0:	e92d 43f0 	stmdb	sp!, {r4, r5, r6, r7, r8, r9, lr}
    25f4:	7907      	ldrb	r7, [r0, #4]
    25f6:	4e6d      	ldr	r6, [pc, #436]	; (27ac <nrfx_uarte_init+0x1bc>)
    25f8:	eb07 03c7 	add.w	r3, r7, r7, lsl #3
    25fc:	eb06 0383 	add.w	r3, r6, r3, lsl #2
    2600:	b087      	sub	sp, #28
    2602:	f893 3020 	ldrb.w	r3, [r3, #32]
    2606:	2b00      	cmp	r3, #0
    2608:	f040 80a2 	bne.w	2750 <nrfx_uarte_init+0x160>
    260c:	4604      	mov	r4, r0
    260e:	460d      	mov	r5, r1
    2610:	6800      	ldr	r0, [r0, #0]
    2612:	4967      	ldr	r1, [pc, #412]	; (27b0 <nrfx_uarte_init+0x1c0>)
    2614:	4690      	mov	r8, r2
    2616:	f7ff faa7 	bl	1b68 <nrfx_prs_acquire>
    261a:	2800      	cmp	r0, #0
    261c:	f040 8094 	bne.w	2748 <nrfx_uarte_init+0x158>
    2620:	682b      	ldr	r3, [r5, #0]
    2622:	1c59      	adds	r1, r3, #1
    2624:	ea4f 09c7 	mov.w	r9, r7, lsl #3
    2628:	d00c      	beq.n	2644 <nrfx_uarte_init+0x54>
    262a:	f04f 41a0 	mov.w	r1, #1342177280	; 0x50000000
    262e:	2201      	movs	r2, #1
    2630:	fa02 f303 	lsl.w	r3, r2, r3
    2634:	f8c1 3508 	str.w	r3, [r1, #1288]	; 0x508
    2638:	682b      	ldr	r3, [r5, #0]
    263a:	f503 73e0 	add.w	r3, r3, #448	; 0x1c0
    263e:	2203      	movs	r2, #3
    2640:	f841 2023 	str.w	r2, [r1, r3, lsl #2]
    2644:	686b      	ldr	r3, [r5, #4]
    2646:	1c5a      	adds	r2, r3, #1
    2648:	d006      	beq.n	2658 <nrfx_uarte_init+0x68>
    264a:	f503 73e0 	add.w	r3, r3, #448	; 0x1c0
    264e:	f04f 42a0 	mov.w	r2, #1342177280	; 0x50000000
    2652:	2100      	movs	r1, #0
    2654:	f842 1023 	str.w	r1, [r2, r3, lsl #2]
    2658:	6823      	ldr	r3, [r4, #0]
    265a:	69aa      	ldr	r2, [r5, #24]
    265c:	f8c3 2524 	str.w	r2, [r3, #1316]	; 0x524
    2660:	7d2b      	ldrb	r3, [r5, #20]
    2662:	7d6a      	ldrb	r2, [r5, #21]
    2664:	431a      	orrs	r2, r3
    2666:	6823      	ldr	r3, [r4, #0]
    2668:	f8c3 256c 	str.w	r2, [r3, #1388]	; 0x56c
    266c:	e9d5 3100 	ldrd	r3, r1, [r5]
    2670:	6822      	ldr	r2, [r4, #0]
    2672:	f8c2 350c 	str.w	r3, [r2, #1292]	; 0x50c
    2676:	f8c2 1514 	str.w	r1, [r2, #1300]	; 0x514
    267a:	7d2b      	ldrb	r3, [r5, #20]
    267c:	2b01      	cmp	r3, #1
    267e:	d072      	beq.n	2766 <nrfx_uarte_init+0x176>
    2680:	eb09 0207 	add.w	r2, r9, r7
    2684:	eb06 0382 	add.w	r3, r6, r2, lsl #2
    2688:	f8c3 8004 	str.w	r8, [r3, #4]
    268c:	692b      	ldr	r3, [r5, #16]
    268e:	f846 3022 	str.w	r3, [r6, r2, lsl #2]
    2692:	f1b8 0f00 	cmp.w	r8, #0
    2696:	d046      	beq.n	2726 <nrfx_uarte_init+0x136>
    2698:	6821      	ldr	r1, [r4, #0]
    269a:	7f2b      	ldrb	r3, [r5, #28]
    269c:	2200      	movs	r2, #0
    269e:	f8c1 2110 	str.w	r2, [r1, #272]	; 0x110
    26a2:	f8d1 1110 	ldr.w	r1, [r1, #272]	; 0x110
    26a6:	9101      	str	r1, [sp, #4]
    26a8:	9901      	ldr	r1, [sp, #4]
    26aa:	6821      	ldr	r1, [r4, #0]
    26ac:	f8c1 2120 	str.w	r2, [r1, #288]	; 0x120
    26b0:	f8d1 1120 	ldr.w	r1, [r1, #288]	; 0x120
    26b4:	9102      	str	r1, [sp, #8]
    26b6:	9902      	ldr	r1, [sp, #8]
    26b8:	6821      	ldr	r1, [r4, #0]
    26ba:	f8c1 2124 	str.w	r2, [r1, #292]	; 0x124
    26be:	f8d1 1124 	ldr.w	r1, [r1, #292]	; 0x124
    26c2:	9103      	str	r1, [sp, #12]
    26c4:	9903      	ldr	r1, [sp, #12]
    26c6:	6821      	ldr	r1, [r4, #0]
    26c8:	f8c1 2144 	str.w	r2, [r1, #324]	; 0x144
    26cc:	f8d1 1144 	ldr.w	r1, [r1, #324]	; 0x144
    26d0:	9104      	str	r1, [sp, #16]
    26d2:	9904      	ldr	r1, [sp, #16]
    26d4:	6821      	ldr	r1, [r4, #0]
    26d6:	f8c1 2158 	str.w	r2, [r1, #344]	; 0x158
    26da:	f8d1 2158 	ldr.w	r2, [r1, #344]	; 0x158
    26de:	9205      	str	r2, [sp, #20]
    26e0:	9a05      	ldr	r2, [sp, #20]
    26e2:	6822      	ldr	r2, [r4, #0]
    26e4:	4933      	ldr	r1, [pc, #204]	; (27b4 <nrfx_uarte_init+0x1c4>)
    26e6:	f8c2 1304 	str.w	r1, [r2, #772]	; 0x304
    26ea:	6822      	ldr	r2, [r4, #0]
    26ec:	f342 3107 	sbfx	r1, r2, #12, #8
    26f0:	2900      	cmp	r1, #0
    26f2:	ea4f 3212 	mov.w	r2, r2, lsr #12
    26f6:	db2f      	blt.n	2758 <nrfx_uarte_init+0x168>
    26f8:	f101 4160 	add.w	r1, r1, #3758096384	; 0xe0000000
    26fc:	015b      	lsls	r3, r3, #5
    26fe:	f501 4161 	add.w	r1, r1, #57600	; 0xe100
    2702:	b2db      	uxtb	r3, r3
    2704:	f881 3300 	strb.w	r3, [r1, #768]	; 0x300
    2708:	6822      	ldr	r2, [r4, #0]
    270a:	f342 3307 	sbfx	r3, r2, #12, #8
    270e:	2b00      	cmp	r3, #0
    2710:	ea4f 3112 	mov.w	r1, r2, lsr #12
    2714:	db08      	blt.n	2728 <nrfx_uarte_init+0x138>
    2716:	4d28      	ldr	r5, [pc, #160]	; (27b8 <nrfx_uarte_init+0x1c8>)
    2718:	095b      	lsrs	r3, r3, #5
    271a:	f001 011f 	and.w	r1, r1, #31
    271e:	2201      	movs	r2, #1
    2720:	408a      	lsls	r2, r1
    2722:	f845 2023 	str.w	r2, [r5, r3, lsl #2]
    2726:	6822      	ldr	r2, [r4, #0]
    2728:	44b9      	add	r9, r7
    272a:	eb06 0689 	add.w	r6, r6, r9, lsl #2
    272e:	2101      	movs	r1, #1
    2730:	2300      	movs	r3, #0
    2732:	f886 1020 	strb.w	r1, [r6, #32]
    2736:	2108      	movs	r1, #8
    2738:	f8c2 1500 	str.w	r1, [r2, #1280]	; 0x500
    273c:	e9c6 3306 	strd	r3, r3, [r6, #24]
    2740:	6173      	str	r3, [r6, #20]
    2742:	b007      	add	sp, #28
    2744:	e8bd 83f0 	ldmia.w	sp!, {r4, r5, r6, r7, r8, r9, pc}
    2748:	2011      	movs	r0, #17
    274a:	b007      	add	sp, #28
    274c:	e8bd 83f0 	ldmia.w	sp!, {r4, r5, r6, r7, r8, r9, pc}
    2750:	2008      	movs	r0, #8
    2752:	b007      	add	sp, #28
    2754:	e8bd 83f0 	ldmia.w	sp!, {r4, r5, r6, r7, r8, r9, pc}
    2758:	4918      	ldr	r1, [pc, #96]	; (27bc <nrfx_uarte_init+0x1cc>)
    275a:	f002 020f 	and.w	r2, r2, #15
    275e:	015b      	lsls	r3, r3, #5
    2760:	b2db      	uxtb	r3, r3
    2762:	548b      	strb	r3, [r1, r2]
    2764:	e7d0      	b.n	2708 <nrfx_uarte_init+0x118>
    2766:	68ab      	ldr	r3, [r5, #8]
    2768:	1c59      	adds	r1, r3, #1
    276a:	d006      	beq.n	277a <nrfx_uarte_init+0x18a>
    276c:	f503 73e0 	add.w	r3, r3, #448	; 0x1c0
    2770:	f04f 42a0 	mov.w	r2, #1342177280	; 0x50000000
    2774:	2100      	movs	r1, #0
    2776:	f842 1023 	str.w	r1, [r2, r3, lsl #2]
    277a:	68eb      	ldr	r3, [r5, #12]
    277c:	1c5a      	adds	r2, r3, #1
    277e:	d00d      	beq.n	279c <nrfx_uarte_init+0x1ac>
    2780:	f04f 41a0 	mov.w	r1, #1342177280	; 0x50000000
    2784:	2201      	movs	r2, #1
    2786:	fa02 f303 	lsl.w	r3, r2, r3
    278a:	f8c1 3508 	str.w	r3, [r1, #1288]	; 0x508
    278e:	68eb      	ldr	r3, [r5, #12]
    2790:	f503 73e0 	add.w	r3, r3, #448	; 0x1c0
    2794:	2203      	movs	r2, #3
    2796:	f841 2023 	str.w	r2, [r1, r3, lsl #2]
    279a:	68eb      	ldr	r3, [r5, #12]
    279c:	6822      	ldr	r2, [r4, #0]
    279e:	68a9      	ldr	r1, [r5, #8]
    27a0:	f8c2 3508 	str.w	r3, [r2, #1288]	; 0x508
    27a4:	f8c2 1510 	str.w	r1, [r2, #1296]	; 0x510
    27a8:	e76a      	b.n	2680 <nrfx_uarte_init+0x90>
    27aa:	bf00      	nop
    27ac:	20000708 	.word	0x20000708
    27b0:	00002485 	.word	0x00002485
    27b4:	00420310 	.word	0x00420310
    27b8:	e000e100 	.word	0xe000e100
    27bc:	e000ed14 	.word	0xe000ed14

000027c0 <nrfx_uarte_uninit>:
    27c0:	e92d 41f0 	stmdb	sp!, {r4, r5, r6, r7, r8, lr}
    27c4:	7905      	ldrb	r5, [r0, #4]
    27c6:	4c4b      	ldr	r4, [pc, #300]	; (28f4 <nrfx_uarte_uninit+0x134>)
    27c8:	eb05 03c5 	add.w	r3, r5, r5, lsl #3
    27cc:	eb04 0383 	add.w	r3, r4, r3, lsl #2
    27d0:	4601      	mov	r1, r0
    27d2:	685b      	ldr	r3, [r3, #4]
    27d4:	6800      	ldr	r0, [r0, #0]
    27d6:	b082      	sub	sp, #8
    27d8:	00ee      	lsls	r6, r5, #3
    27da:	b1c3      	cbz	r3, 280e <nrfx_uarte_uninit+0x4e>
    27dc:	4b46      	ldr	r3, [pc, #280]	; (28f8 <nrfx_uarte_uninit+0x138>)
    27de:	f8c0 3308 	str.w	r3, [r0, #776]	; 0x308
    27e2:	680b      	ldr	r3, [r1, #0]
    27e4:	f343 3207 	sbfx	r2, r3, #12, #8
    27e8:	2a00      	cmp	r2, #0
    27ea:	ea4f 3313 	mov.w	r3, r3, lsr #12
    27ee:	db0e      	blt.n	280e <nrfx_uarte_uninit+0x4e>
    27f0:	0952      	lsrs	r2, r2, #5
    27f2:	f8df c108 	ldr.w	ip, [pc, #264]	; 28fc <nrfx_uarte_uninit+0x13c>
    27f6:	3220      	adds	r2, #32
    27f8:	2701      	movs	r7, #1
    27fa:	f003 031f 	and.w	r3, r3, #31
    27fe:	fa07 f303 	lsl.w	r3, r7, r3
    2802:	f84c 3022 	str.w	r3, [ip, r2, lsl #2]
    2806:	f3bf 8f4f 	dsb	sy
    280a:	f3bf 8f6f 	isb	sy
    280e:	1973      	adds	r3, r6, r5
    2810:	eb04 0383 	add.w	r3, r4, r3, lsl #2
    2814:	699a      	ldr	r2, [r3, #24]
    2816:	f8d0 3200 	ldr.w	r3, [r0, #512]	; 0x200
    281a:	f023 0320 	bic.w	r3, r3, #32
    281e:	f8c0 3200 	str.w	r3, [r0, #512]	; 0x200
    2822:	b142      	cbz	r2, 2836 <nrfx_uarte_uninit+0x76>
    2824:	2300      	movs	r3, #0
    2826:	f8c0 3144 	str.w	r3, [r0, #324]	; 0x144
    282a:	f8d0 3144 	ldr.w	r3, [r0, #324]	; 0x144
    282e:	9300      	str	r3, [sp, #0]
    2830:	9b00      	ldr	r3, [sp, #0]
    2832:	2301      	movs	r3, #1
    2834:	6043      	str	r3, [r0, #4]
    2836:	2300      	movs	r3, #0
    2838:	f8c0 3158 	str.w	r3, [r0, #344]	; 0x158
    283c:	f8d0 3158 	ldr.w	r3, [r0, #344]	; 0x158
    2840:	9301      	str	r3, [sp, #4]
    2842:	9b01      	ldr	r3, [sp, #4]
    2844:	1973      	adds	r3, r6, r5
    2846:	2201      	movs	r2, #1
    2848:	eb04 0383 	add.w	r3, r4, r3, lsl #2
    284c:	60c2      	str	r2, [r0, #12]
    284e:	699a      	ldr	r2, [r3, #24]
    2850:	f8d0 3158 	ldr.w	r3, [r0, #344]	; 0x158
    2854:	2b00      	cmp	r3, #0
    2856:	d0fb      	beq.n	2850 <nrfx_uarte_uninit+0x90>
    2858:	b11a      	cbz	r2, 2862 <nrfx_uarte_uninit+0xa2>
    285a:	f8d0 3144 	ldr.w	r3, [r0, #324]	; 0x144
    285e:	2b00      	cmp	r3, #0
    2860:	d0f6      	beq.n	2850 <nrfx_uarte_uninit+0x90>
    2862:	2300      	movs	r3, #0
    2864:	f8c0 3500 	str.w	r3, [r0, #1280]	; 0x500
    2868:	680b      	ldr	r3, [r1, #0]
    286a:	f04f 32ff 	mov.w	r2, #4294967295	; 0xffffffff
    286e:	f8d3 850c 	ldr.w	r8, [r3, #1292]	; 0x50c
    2872:	f8d3 e514 	ldr.w	lr, [r3, #1300]	; 0x514
    2876:	f8d3 7508 	ldr.w	r7, [r3, #1288]	; 0x508
    287a:	f8d3 c510 	ldr.w	ip, [r3, #1296]	; 0x510
    287e:	f8c3 250c 	str.w	r2, [r3, #1292]	; 0x50c
    2882:	f8c3 2514 	str.w	r2, [r3, #1300]	; 0x514
    2886:	680b      	ldr	r3, [r1, #0]
    2888:	4590      	cmp	r8, r2
    288a:	f8c3 2508 	str.w	r2, [r3, #1288]	; 0x508
    288e:	f8c3 2510 	str.w	r2, [r3, #1296]	; 0x510
    2892:	d006      	beq.n	28a2 <nrfx_uarte_uninit+0xe2>
    2894:	f508 78e0 	add.w	r8, r8, #448	; 0x1c0
    2898:	f04f 43a0 	mov.w	r3, #1342177280	; 0x50000000
    289c:	2202      	movs	r2, #2
    289e:	f843 2028 	str.w	r2, [r3, r8, lsl #2]
    28a2:	f1be 3fff 	cmp.w	lr, #4294967295	; 0xffffffff
    28a6:	d006      	beq.n	28b6 <nrfx_uarte_uninit+0xf6>
    28a8:	f50e 7ee0 	add.w	lr, lr, #448	; 0x1c0
    28ac:	f04f 43a0 	mov.w	r3, #1342177280	; 0x50000000
    28b0:	2202      	movs	r2, #2
    28b2:	f843 202e 	str.w	r2, [r3, lr, lsl #2]
    28b6:	f1bc 3fff 	cmp.w	ip, #4294967295	; 0xffffffff
    28ba:	d006      	beq.n	28ca <nrfx_uarte_uninit+0x10a>
    28bc:	f50c 7ce0 	add.w	ip, ip, #448	; 0x1c0
    28c0:	f04f 43a0 	mov.w	r3, #1342177280	; 0x50000000
    28c4:	2202      	movs	r2, #2
    28c6:	f843 202c 	str.w	r2, [r3, ip, lsl #2]
    28ca:	1c7b      	adds	r3, r7, #1
    28cc:	d006      	beq.n	28dc <nrfx_uarte_uninit+0x11c>
    28ce:	f507 77e0 	add.w	r7, r7, #448	; 0x1c0
    28d2:	f04f 43a0 	mov.w	r3, #1342177280	; 0x50000000
    28d6:	2202      	movs	r2, #2
    28d8:	f843 2027 	str.w	r2, [r3, r7, lsl #2]
    28dc:	f7ff f962 	bl	1ba4 <nrfx_prs_release>
    28e0:	442e      	add	r6, r5
    28e2:	eb04 0486 	add.w	r4, r4, r6, lsl #2
    28e6:	2300      	movs	r3, #0
    28e8:	f884 3020 	strb.w	r3, [r4, #32]
    28ec:	6063      	str	r3, [r4, #4]
    28ee:	b002      	add	sp, #8
    28f0:	e8bd 81f0 	ldmia.w	sp!, {r4, r5, r6, r7, r8, pc}
    28f4:	20000708 	.word	0x20000708
    28f8:	00420310 	.word	0x00420310
    28fc:	e000e100 	.word	0xe000e100

00002900 <nrfx_uarte_tx>:
    2900:	f001 4c60 	and.w	ip, r1, #3758096384	; 0xe0000000
    2904:	f1bc 5f00 	cmp.w	ip, #536870912	; 0x20000000
    2908:	d130      	bne.n	296c <nrfx_uarte_tx+0x6c>
    290a:	b570      	push	{r4, r5, r6, lr}
    290c:	f890 e004 	ldrb.w	lr, [r0, #4]
    2910:	4c26      	ldr	r4, [pc, #152]	; (29ac <nrfx_uarte_tx+0xac>)
    2912:	eb0e 0cce 	add.w	ip, lr, lr, lsl #3
    2916:	eb04 0c8c 	add.w	ip, r4, ip, lsl #2
    291a:	4603      	mov	r3, r0
    291c:	f8dc 0014 	ldr.w	r0, [ip, #20]
    2920:	b082      	sub	sp, #8
    2922:	ea4f 05ce 	mov.w	r5, lr, lsl #3
    2926:	2800      	cmp	r0, #0
    2928:	d13a      	bne.n	29a0 <nrfx_uarte_tx+0xa0>
    292a:	f8cc 2014 	str.w	r2, [ip, #20]
    292e:	f8cc 1008 	str.w	r1, [ip, #8]
    2932:	681a      	ldr	r2, [r3, #0]
    2934:	f8c2 0120 	str.w	r0, [r2, #288]	; 0x120
    2938:	f8d2 2120 	ldr.w	r2, [r2, #288]	; 0x120
    293c:	9201      	str	r2, [sp, #4]
    293e:	9a01      	ldr	r2, [sp, #4]
    2940:	681a      	ldr	r2, [r3, #0]
    2942:	f8c2 0158 	str.w	r0, [r2, #344]	; 0x158
    2946:	f8d2 2158 	ldr.w	r2, [r2, #344]	; 0x158
    294a:	9200      	str	r2, [sp, #0]
    294c:	9a00      	ldr	r2, [sp, #0]
    294e:	681a      	ldr	r2, [r3, #0]
    2950:	f8dc 6014 	ldr.w	r6, [ip, #20]
    2954:	f8c2 1544 	str.w	r1, [r2, #1348]	; 0x544
    2958:	f8c2 6548 	str.w	r6, [r2, #1352]	; 0x548
    295c:	681a      	ldr	r2, [r3, #0]
    295e:	2101      	movs	r1, #1
    2960:	6091      	str	r1, [r2, #8]
    2962:	f8dc 2004 	ldr.w	r2, [ip, #4]
    2966:	b11a      	cbz	r2, 2970 <nrfx_uarte_tx+0x70>
    2968:	b002      	add	sp, #8
    296a:	bd70      	pop	{r4, r5, r6, pc}
    296c:	2010      	movs	r0, #16
    296e:	4770      	bx	lr
    2970:	681a      	ldr	r2, [r3, #0]
    2972:	e000      	b.n	2976 <nrfx_uarte_tx+0x76>
    2974:	b9b8      	cbnz	r0, 29a6 <nrfx_uarte_tx+0xa6>
    2976:	f8d2 1120 	ldr.w	r1, [r2, #288]	; 0x120
    297a:	f8d2 0158 	ldr.w	r0, [r2, #344]	; 0x158
    297e:	2900      	cmp	r1, #0
    2980:	d0f8      	beq.n	2974 <nrfx_uarte_tx+0x74>
    2982:	b980      	cbnz	r0, 29a6 <nrfx_uarte_tx+0xa6>
    2984:	2101      	movs	r1, #1
    2986:	60d1      	str	r1, [r2, #12]
    2988:	681b      	ldr	r3, [r3, #0]
    298a:	f8d3 2158 	ldr.w	r2, [r3, #344]	; 0x158
    298e:	2a00      	cmp	r2, #0
    2990:	d0fb      	beq.n	298a <nrfx_uarte_tx+0x8a>
    2992:	4475      	add	r5, lr
    2994:	eb04 0385 	add.w	r3, r4, r5, lsl #2
    2998:	2200      	movs	r2, #0
    299a:	615a      	str	r2, [r3, #20]
    299c:	b002      	add	sp, #8
    299e:	bd70      	pop	{r4, r5, r6, pc}
    29a0:	2011      	movs	r0, #17
    29a2:	b002      	add	sp, #8
    29a4:	bd70      	pop	{r4, r5, r6, pc}
    29a6:	200f      	movs	r0, #15
    29a8:	e7f3      	b.n	2992 <nrfx_uarte_tx+0x92>
    29aa:	bf00      	nop
    29ac:	20000708 	.word	0x20000708

000029b0 <spi_event_handler>:
    29b0:	b538      	push	{r3, r4, r5, lr}
    29b2:	4a10      	ldr	r2, [pc, #64]	; (29f4 <spi_event_handler+0x44>)
    29b4:	4c10      	ldr	r4, [pc, #64]	; (29f8 <spi_event_handler+0x48>)
    29b6:	4b11      	ldr	r3, [pc, #68]	; (29fc <spi_event_handler+0x4c>)
    29b8:	4d11      	ldr	r5, [pc, #68]	; (2a00 <spi_event_handler+0x50>)
    29ba:	4912      	ldr	r1, [pc, #72]	; (2a04 <spi_event_handler+0x54>)
    29bc:	1aa4      	subs	r4, r4, r2
    29be:	08e4      	lsrs	r4, r4, #3
    29c0:	0424      	lsls	r4, r4, #16
    29c2:	f044 0403 	orr.w	r4, r4, #3
    29c6:	2201      	movs	r2, #1
    29c8:	4620      	mov	r0, r4
    29ca:	701a      	strb	r2, [r3, #0]
    29cc:	f7fe f834 	bl	a38 <nrf_log_frontend_std_0>
    29d0:	782b      	ldrb	r3, [r5, #0]
    29d2:	b903      	cbnz	r3, 29d6 <spi_event_handler+0x26>
    29d4:	bd38      	pop	{r3, r4, r5, pc}
    29d6:	490c      	ldr	r1, [pc, #48]	; (2a08 <spi_event_handler+0x58>)
    29d8:	4620      	mov	r0, r4
    29da:	f7fe f82d 	bl	a38 <nrf_log_frontend_std_0>
    29de:	4628      	mov	r0, r5
    29e0:	f000 fac2 	bl	2f68 <strlen>
    29e4:	4629      	mov	r1, r5
    29e6:	b282      	uxth	r2, r0
    29e8:	4620      	mov	r0, r4
    29ea:	e8bd 4038 	ldmia.w	sp!, {r3, r4, r5, lr}
    29ee:	f7fd bfbf 	b.w	970 <nrf_log_frontend_hexdump>
    29f2:	bf00      	nop
    29f4:	0000344c 	.word	0x0000344c
    29f8:	00003474 	.word	0x00003474
    29fc:	20000734 	.word	0x20000734
    2a00:	2000072c 	.word	0x2000072c
    2a04:	000032d4 	.word	0x000032d4
    2a08:	000032e8 	.word	0x000032e8

00002a0c <main>:
    2a0c:	e92d 47f0 	stmdb	sp!, {r4, r5, r6, r7, r8, r9, sl, lr}
    2a10:	2001      	movs	r0, #1
    2a12:	b088      	sub	sp, #32
    2a14:	f7fe f9d6 	bl	dc4 <bsp_board_init>
    2a18:	f44f 4180 	mov.w	r1, #16384	; 0x4000
    2a1c:	2000      	movs	r0, #0
    2a1e:	f7fd fe13 	bl	648 <nrf_log_init>
    2a22:	2800      	cmp	r0, #0
    2a24:	d14b      	bne.n	2abe <main+0xb2>
    2a26:	f7fd fd69 	bl	4fc <nrf_log_default_backends_init>
    2a2a:	4b28      	ldr	r3, [pc, #160]	; (2acc <main+0xc0>)
    2a2c:	4d28      	ldr	r5, [pc, #160]	; (2ad0 <main+0xc4>)
    2a2e:	cb0f      	ldmia	r3, {r0, r1, r2, r3}
    2a30:	466c      	mov	r4, sp
    2a32:	e884 000f 	stmia.w	r4, {r0, r1, r2, r3}
    2a36:	4a27      	ldr	r2, [pc, #156]	; (2ad4 <main+0xc8>)
    2a38:	4827      	ldr	r0, [pc, #156]	; (2ad8 <main+0xcc>)
    2a3a:	9500      	str	r5, [sp, #0]
    2a3c:	2300      	movs	r3, #0
    2a3e:	4621      	mov	r1, r4
    2a40:	f7fe ff1e 	bl	1880 <nrf_drv_spi_init>
    2a44:	2800      	cmp	r0, #0
    2a46:	d13d      	bne.n	2ac4 <main+0xb8>
    2a48:	4b24      	ldr	r3, [pc, #144]	; (2adc <main+0xd0>)
    2a4a:	4825      	ldr	r0, [pc, #148]	; (2ae0 <main+0xd4>)
    2a4c:	4925      	ldr	r1, [pc, #148]	; (2ae4 <main+0xd8>)
    2a4e:	4e26      	ldr	r6, [pc, #152]	; (2ae8 <main+0xdc>)
    2a50:	f8df 80a0 	ldr.w	r8, [pc, #160]	; 2af4 <main+0xe8>
    2a54:	4d25      	ldr	r5, [pc, #148]	; (2aec <main+0xe0>)
    2a56:	f8df a0a0 	ldr.w	sl, [pc, #160]	; 2af8 <main+0xec>
    2a5a:	1ac0      	subs	r0, r0, r3
    2a5c:	08c0      	lsrs	r0, r0, #3
    2a5e:	0400      	lsls	r0, r0, #16
    2a60:	f040 0003 	orr.w	r0, r0, #3
    2a64:	f7fd ffe8 	bl	a38 <nrf_log_frontend_std_0>
    2a68:	f046 0601 	orr.w	r6, r6, #1
    2a6c:	2707      	movs	r7, #7
    2a6e:	f04f 0900 	mov.w	r9, #0
    2a72:	2207      	movs	r2, #7
    2a74:	2100      	movs	r1, #0
    2a76:	4640      	mov	r0, r8
    2a78:	f000 fa26 	bl	2ec8 <memset>
    2a7c:	481c      	ldr	r0, [pc, #112]	; (2af0 <main+0xe4>)
    2a7e:	f885 9000 	strb.w	r9, [r5]
    2a82:	2200      	movs	r2, #0
    2a84:	a904      	add	r1, sp, #16
    2a86:	e9cd a704 	strd	sl, r7, [sp, #16]
    2a8a:	e9cd 8706 	strd	r8, r7, [sp, #24]
    2a8e:	f7ff f9c5 	bl	1e1c <nrfx_spim_xfer>
    2a92:	b108      	cbz	r0, 2a98 <main+0x8c>
    2a94:	e010      	b.n	2ab8 <main+0xac>
    2a96:	bf20      	wfe
    2a98:	782b      	ldrb	r3, [r5, #0]
    2a9a:	2b00      	cmp	r3, #0
    2a9c:	d0fb      	beq.n	2a96 <main+0x8a>
    2a9e:	f7fd fe21 	bl	6e4 <nrf_log_frontend_dequeue>
    2aa2:	2800      	cmp	r0, #0
    2aa4:	d1fb      	bne.n	2a9e <main+0x92>
    2aa6:	f7fe f97b 	bl	da0 <bsp_board_led_invert>
    2aaa:	24c8      	movs	r4, #200	; 0xc8
    2aac:	f44f 407a 	mov.w	r0, #64000	; 0xfa00
    2ab0:	47b0      	blx	r6
    2ab2:	3c01      	subs	r4, #1
    2ab4:	d1fa      	bne.n	2aac <main+0xa0>
    2ab6:	e7dc      	b.n	2a72 <main+0x66>
    2ab8:	f7fe f9b4 	bl	e24 <app_error_handler_bare>
    2abc:	e7ec      	b.n	2a98 <main+0x8c>
    2abe:	f7fe f9b1 	bl	e24 <app_error_handler_bare>
    2ac2:	e7b0      	b.n	2a26 <main+0x1a>
    2ac4:	f7fe f9ae 	bl	e24 <app_error_handler_bare>
    2ac8:	e7be      	b.n	2a48 <main+0x3c>
    2aca:	bf00      	nop
    2acc:	0000330c 	.word	0x0000330c
    2ad0:	1f1e1d1a 	.word	0x1f1e1d1a
    2ad4:	000029b1 	.word	0x000029b1
    2ad8:	00003328 	.word	0x00003328
    2adc:	0000344c 	.word	0x0000344c
    2ae0:	00003474 	.word	0x00003474
    2ae4:	000032f4 	.word	0x000032f4
    2ae8:	00003320 	.word	0x00003320
    2aec:	20000734 	.word	0x20000734
    2af0:	0000332c 	.word	0x0000332c
    2af4:	2000072c 	.word	0x2000072c
    2af8:	2000001c 	.word	0x2000001c

00002afc <SystemInit>:
    2afc:	b410      	push	{r4}
    2afe:	f04f 5380 	mov.w	r3, #268435456	; 0x10000000
    2b02:	f8d3 3130 	ldr.w	r3, [r3, #304]	; 0x130
    2b06:	1c58      	adds	r0, r3, #1
    2b08:	bf04      	itt	eq
    2b0a:	f04f 4370 	moveq.w	r3, #4026531840	; 0xf0000000
    2b0e:	f893 3fe0 	ldrbeq.w	r3, [r3, #4064]	; 0xfe0
    2b12:	2b06      	cmp	r3, #6
    2b14:	d108      	bne.n	2b28 <SystemInit+0x2c>
    2b16:	f04f 5380 	mov.w	r3, #268435456	; 0x10000000
    2b1a:	4ab7      	ldr	r2, [pc, #732]	; (2df8 <SystemInit+0x2fc>)
    2b1c:	f8d3 3324 	ldr.w	r3, [r3, #804]	; 0x324
    2b20:	f3c3 2304 	ubfx	r3, r3, #8, #5
    2b24:	f8c2 3540 	str.w	r3, [r2, #1344]	; 0x540
    2b28:	f04f 4370 	mov.w	r3, #4026531840	; 0xf0000000
    2b2c:	f893 2fe0 	ldrb.w	r2, [r3, #4064]	; 0xfe0
    2b30:	2a06      	cmp	r2, #6
    2b32:	f000 8135 	beq.w	2da0 <SystemInit+0x2a4>
    2b36:	f04f 5380 	mov.w	r3, #268435456	; 0x10000000
    2b3a:	f8d3 3130 	ldr.w	r3, [r3, #304]	; 0x130
    2b3e:	1c59      	adds	r1, r3, #1
    2b40:	bf04      	itt	eq
    2b42:	f04f 4370 	moveq.w	r3, #4026531840	; 0xf0000000
    2b46:	f893 3fe0 	ldrbeq.w	r3, [r3, #4064]	; 0xfe0
    2b4a:	2b06      	cmp	r3, #6
    2b4c:	d109      	bne.n	2b62 <SystemInit+0x66>
    2b4e:	f04f 5380 	mov.w	r3, #268435456	; 0x10000000
    2b52:	f04f 4280 	mov.w	r2, #1073741824	; 0x40000000
    2b56:	f8d3 3244 	ldr.w	r3, [r3, #580]	; 0x244
    2b5a:	f3c3 3342 	ubfx	r3, r3, #13, #3
    2b5e:	f8c2 353c 	str.w	r3, [r2, #1340]	; 0x53c
    2b62:	f04f 4370 	mov.w	r3, #4026531840	; 0xf0000000
    2b66:	f893 2fe0 	ldrb.w	r2, [r3, #4064]	; 0xfe0
    2b6a:	2a06      	cmp	r2, #6
    2b6c:	f000 8103 	beq.w	2d76 <SystemInit+0x27a>
    2b70:	f04f 5380 	mov.w	r3, #268435456	; 0x10000000
    2b74:	f8d3 3130 	ldr.w	r3, [r3, #304]	; 0x130
    2b78:	1c5a      	adds	r2, r3, #1
    2b7a:	bf04      	itt	eq
    2b7c:	f04f 4370 	moveq.w	r3, #4026531840	; 0xf0000000
    2b80:	f893 3fe0 	ldrbeq.w	r3, [r3, #4064]	; 0xfe0
    2b84:	2b06      	cmp	r3, #6
    2b86:	d108      	bne.n	2b9a <SystemInit+0x9e>
    2b88:	f04f 4380 	mov.w	r3, #1073741824	; 0x40000000
    2b8c:	2200      	movs	r2, #0
    2b8e:	f8c3 210c 	str.w	r2, [r3, #268]	; 0x10c
    2b92:	f8c3 2110 	str.w	r2, [r3, #272]	; 0x110
    2b96:	f8c3 2538 	str.w	r2, [r3, #1336]	; 0x538
    2b9a:	f04f 4370 	mov.w	r3, #4026531840	; 0xf0000000
    2b9e:	f893 2fe0 	ldrb.w	r2, [r3, #4064]	; 0xfe0
    2ba2:	f8d3 3fe8 	ldr.w	r3, [r3, #4072]	; 0xfe8
    2ba6:	2a06      	cmp	r2, #6
    2ba8:	f000 80c5 	beq.w	2d36 <SystemInit+0x23a>
    2bac:	f04f 5280 	mov.w	r2, #268435456	; 0x10000000
    2bb0:	f8d2 3130 	ldr.w	r3, [r2, #304]	; 0x130
    2bb4:	1c5c      	adds	r4, r3, #1
    2bb6:	d02e      	beq.n	2c16 <SystemInit+0x11a>
    2bb8:	2b06      	cmp	r3, #6
    2bba:	f8d2 2134 	ldr.w	r2, [r2, #308]	; 0x134
    2bbe:	d034      	beq.n	2c2a <SystemInit+0x12e>
    2bc0:	f04f 5380 	mov.w	r3, #268435456	; 0x10000000
    2bc4:	f8d3 3130 	ldr.w	r3, [r3, #304]	; 0x130
    2bc8:	2b06      	cmp	r3, #6
    2bca:	f000 8097 	beq.w	2cfc <SystemInit+0x200>
    2bce:	f04f 5380 	mov.w	r3, #268435456	; 0x10000000
    2bd2:	e9d3 234c 	ldrd	r2, r3, [r3, #304]	; 0x130
    2bd6:	2a06      	cmp	r2, #6
    2bd8:	f000 80a2 	beq.w	2d20 <SystemInit+0x224>
    2bdc:	4a87      	ldr	r2, [pc, #540]	; (2dfc <SystemInit+0x300>)
    2bde:	f8d2 3088 	ldr.w	r3, [r2, #136]	; 0x88
    2be2:	f443 0370 	orr.w	r3, r3, #15728640	; 0xf00000
    2be6:	f8c2 3088 	str.w	r3, [r2, #136]	; 0x88
    2bea:	f3bf 8f4f 	dsb	sy
    2bee:	f3bf 8f6f 	isb	sy
    2bf2:	f04f 2310 	mov.w	r3, #268439552	; 0x10001000
    2bf6:	f8d3 2200 	ldr.w	r2, [r3, #512]	; 0x200
    2bfa:	2a00      	cmp	r2, #0
    2bfc:	f2c0 8114 	blt.w	2e28 <SystemInit+0x32c>
    2c00:	f8d3 3204 	ldr.w	r3, [r3, #516]	; 0x204
    2c04:	2b00      	cmp	r3, #0
    2c06:	f2c0 810f 	blt.w	2e28 <SystemInit+0x32c>
    2c0a:	4b7d      	ldr	r3, [pc, #500]	; (2e00 <SystemInit+0x304>)
    2c0c:	4a7d      	ldr	r2, [pc, #500]	; (2e04 <SystemInit+0x308>)
    2c0e:	601a      	str	r2, [r3, #0]
    2c10:	f85d 4b04 	ldr.w	r4, [sp], #4
    2c14:	4770      	bx	lr
    2c16:	f04f 4270 	mov.w	r2, #4026531840	; 0xf0000000
    2c1a:	f892 1fe0 	ldrb.w	r1, [r2, #4064]	; 0xfe0
    2c1e:	f8d2 2fe8 	ldr.w	r2, [r2, #4072]	; 0xfe8
    2c22:	2906      	cmp	r1, #6
    2c24:	d1da      	bne.n	2bdc <SystemInit+0xe0>
    2c26:	f3c2 1203 	ubfx	r2, r2, #4, #4
    2c2a:	3a03      	subs	r2, #3
    2c2c:	2a03      	cmp	r2, #3
    2c2e:	f240 80d5 	bls.w	2ddc <SystemInit+0x2e0>
    2c32:	f04f 5380 	mov.w	r3, #268435456	; 0x10000000
    2c36:	4a74      	ldr	r2, [pc, #464]	; (2e08 <SystemInit+0x30c>)
    2c38:	f8d3 1404 	ldr.w	r1, [r3, #1028]	; 0x404
    2c3c:	f8c2 1520 	str.w	r1, [r2, #1312]	; 0x520
    2c40:	f8d3 1408 	ldr.w	r1, [r3, #1032]	; 0x408
    2c44:	f8c2 1524 	str.w	r1, [r2, #1316]	; 0x524
    2c48:	f8d3 140c 	ldr.w	r1, [r3, #1036]	; 0x40c
    2c4c:	f8c2 1528 	str.w	r1, [r2, #1320]	; 0x528
    2c50:	f8d3 1410 	ldr.w	r1, [r3, #1040]	; 0x410
    2c54:	f8c2 152c 	str.w	r1, [r2, #1324]	; 0x52c
    2c58:	f8d3 1414 	ldr.w	r1, [r3, #1044]	; 0x414
    2c5c:	f8c2 1530 	str.w	r1, [r2, #1328]	; 0x530
    2c60:	f8d3 1418 	ldr.w	r1, [r3, #1048]	; 0x418
    2c64:	f8c2 1534 	str.w	r1, [r2, #1332]	; 0x534
    2c68:	f8d3 141c 	ldr.w	r1, [r3, #1052]	; 0x41c
    2c6c:	f8c2 1540 	str.w	r1, [r2, #1344]	; 0x540
    2c70:	f8d3 1420 	ldr.w	r1, [r3, #1056]	; 0x420
    2c74:	f8c2 1544 	str.w	r1, [r2, #1348]	; 0x544
    2c78:	f8d3 1424 	ldr.w	r1, [r3, #1060]	; 0x424
    2c7c:	f8c2 1548 	str.w	r1, [r2, #1352]	; 0x548
    2c80:	f8d3 1428 	ldr.w	r1, [r3, #1064]	; 0x428
    2c84:	f8c2 154c 	str.w	r1, [r2, #1356]	; 0x54c
    2c88:	f8d3 142c 	ldr.w	r1, [r3, #1068]	; 0x42c
    2c8c:	f8c2 1550 	str.w	r1, [r2, #1360]	; 0x550
    2c90:	f8d3 1430 	ldr.w	r1, [r3, #1072]	; 0x430
    2c94:	f8c2 1554 	str.w	r1, [r2, #1364]	; 0x554
    2c98:	f8d3 1434 	ldr.w	r1, [r3, #1076]	; 0x434
    2c9c:	f8c2 1560 	str.w	r1, [r2, #1376]	; 0x560
    2ca0:	f8d3 1438 	ldr.w	r1, [r3, #1080]	; 0x438
    2ca4:	f8c2 1564 	str.w	r1, [r2, #1380]	; 0x564
    2ca8:	f8d3 143c 	ldr.w	r1, [r3, #1084]	; 0x43c
    2cac:	f8c2 1568 	str.w	r1, [r2, #1384]	; 0x568
    2cb0:	f8d3 1440 	ldr.w	r1, [r3, #1088]	; 0x440
    2cb4:	f8c2 156c 	str.w	r1, [r2, #1388]	; 0x56c
    2cb8:	f8d3 1444 	ldr.w	r1, [r3, #1092]	; 0x444
    2cbc:	f8d3 3130 	ldr.w	r3, [r3, #304]	; 0x130
    2cc0:	f8c2 1570 	str.w	r1, [r2, #1392]	; 0x570
    2cc4:	1c58      	adds	r0, r3, #1
    2cc6:	f000 808f 	beq.w	2de8 <SystemInit+0x2ec>
    2cca:	2b06      	cmp	r3, #6
    2ccc:	f47f af78 	bne.w	2bc0 <SystemInit+0xc4>
    2cd0:	f04f 5380 	mov.w	r3, #268435456	; 0x10000000
    2cd4:	f04f 4180 	mov.w	r1, #1073741824	; 0x40000000
    2cd8:	f8d3 2258 	ldr.w	r2, [r3, #600]	; 0x258
    2cdc:	f8d3 3130 	ldr.w	r3, [r3, #304]	; 0x130
    2ce0:	f002 024f 	and.w	r2, r2, #79	; 0x4f
    2ce4:	f8c1 2ee4 	str.w	r2, [r1, #3812]	; 0xee4
    2ce8:	1c59      	adds	r1, r3, #1
    2cea:	f47f af6d 	bne.w	2bc8 <SystemInit+0xcc>
    2cee:	f04f 4370 	mov.w	r3, #4026531840	; 0xf0000000
    2cf2:	f893 3fe0 	ldrb.w	r3, [r3, #4064]	; 0xfe0
    2cf6:	2b06      	cmp	r3, #6
    2cf8:	f47f af70 	bne.w	2bdc <SystemInit+0xe0>
    2cfc:	f04f 4380 	mov.w	r3, #1073741824	; 0x40000000
    2d00:	f8d3 2400 	ldr.w	r2, [r3, #1024]	; 0x400
    2d04:	07d2      	lsls	r2, r2, #31
    2d06:	f57f af62 	bpl.w	2bce <SystemInit+0xd2>
    2d0a:	f06f 0201 	mvn.w	r2, #1
    2d0e:	f8c3 2400 	str.w	r2, [r3, #1024]	; 0x400
    2d12:	f04f 5380 	mov.w	r3, #268435456	; 0x10000000
    2d16:	e9d3 234c 	ldrd	r2, r3, [r3, #304]	; 0x130
    2d1a:	2a06      	cmp	r2, #6
    2d1c:	f47f af5e 	bne.w	2bdc <SystemInit+0xe0>
    2d20:	3b03      	subs	r3, #3
    2d22:	2b03      	cmp	r3, #3
    2d24:	d94d      	bls.n	2dc2 <SystemInit+0x2c6>
    2d26:	4a39      	ldr	r2, [pc, #228]	; (2e0c <SystemInit+0x310>)
    2d28:	f8d2 373c 	ldr.w	r3, [r2, #1852]	; 0x73c
    2d2c:	f443 6380 	orr.w	r3, r3, #1024	; 0x400
    2d30:	f8c2 373c 	str.w	r3, [r2, #1852]	; 0x73c
    2d34:	e752      	b.n	2bdc <SystemInit+0xe0>
    2d36:	f3c3 1303 	ubfx	r3, r3, #4, #4
    2d3a:	3b03      	subs	r3, #3
    2d3c:	2b03      	cmp	r3, #3
    2d3e:	f63f af35 	bhi.w	2bac <SystemInit+0xb0>
    2d42:	4833      	ldr	r0, [pc, #204]	; (2e10 <SystemInit+0x314>)
    2d44:	5cc2      	ldrb	r2, [r0, r3]
    2d46:	b122      	cbz	r2, 2d52 <SystemInit+0x256>
    2d48:	f04f 4280 	mov.w	r2, #1073741824	; 0x40000000
    2d4c:	2103      	movs	r1, #3
    2d4e:	f8c2 15a0 	str.w	r1, [r2, #1440]	; 0x5a0
    2d52:	5cc3      	ldrb	r3, [r0, r3]
    2d54:	2b00      	cmp	r3, #0
    2d56:	f43f af29 	beq.w	2bac <SystemInit+0xb0>
    2d5a:	4b2e      	ldr	r3, [pc, #184]	; (2e14 <SystemInit+0x318>)
    2d5c:	2405      	movs	r4, #5
    2d5e:	2001      	movs	r0, #1
    2d60:	2100      	movs	r1, #0
    2d62:	223f      	movs	r2, #63	; 0x3f
    2d64:	f8c3 4610 	str.w	r4, [r3, #1552]	; 0x610
    2d68:	f8c3 0688 	str.w	r0, [r3, #1672]	; 0x688
    2d6c:	f8c3 1618 	str.w	r1, [r3, #1560]	; 0x618
    2d70:	f8c3 2614 	str.w	r2, [r3, #1556]	; 0x614
    2d74:	e71a      	b.n	2bac <SystemInit+0xb0>
    2d76:	f8d3 3fe8 	ldr.w	r3, [r3, #4072]	; 0xfe8
    2d7a:	f3c3 1303 	ubfx	r3, r3, #4, #4
    2d7e:	3b03      	subs	r3, #3
    2d80:	2b03      	cmp	r3, #3
    2d82:	f63f aef5 	bhi.w	2b70 <SystemInit+0x74>
    2d86:	4a22      	ldr	r2, [pc, #136]	; (2e10 <SystemInit+0x314>)
    2d88:	5cd3      	ldrb	r3, [r2, r3]
    2d8a:	2b00      	cmp	r3, #0
    2d8c:	f43f aef0 	beq.w	2b70 <SystemInit+0x74>
    2d90:	4a1a      	ldr	r2, [pc, #104]	; (2dfc <SystemInit+0x300>)
    2d92:	f8d2 30fc 	ldr.w	r3, [r2, #252]	; 0xfc
    2d96:	f023 7380 	bic.w	r3, r3, #16777216	; 0x1000000
    2d9a:	f8c2 30fc 	str.w	r3, [r2, #252]	; 0xfc
    2d9e:	e6e7      	b.n	2b70 <SystemInit+0x74>
    2da0:	f8d3 3fe8 	ldr.w	r3, [r3, #4072]	; 0xfe8
    2da4:	f3c3 1303 	ubfx	r3, r3, #4, #4
    2da8:	3b03      	subs	r3, #3
    2daa:	2b03      	cmp	r3, #3
    2dac:	f63f aec3 	bhi.w	2b36 <SystemInit+0x3a>
    2db0:	4a17      	ldr	r2, [pc, #92]	; (2e10 <SystemInit+0x314>)
    2db2:	5cd3      	ldrb	r3, [r2, r3]
    2db4:	2b00      	cmp	r3, #0
    2db6:	f43f aebe 	beq.w	2b36 <SystemInit+0x3a>
    2dba:	4b17      	ldr	r3, [pc, #92]	; (2e18 <SystemInit+0x31c>)
    2dbc:	4a17      	ldr	r2, [pc, #92]	; (2e1c <SystemInit+0x320>)
    2dbe:	675a      	str	r2, [r3, #116]	; 0x74
    2dc0:	e6b9      	b.n	2b36 <SystemInit+0x3a>
    2dc2:	4a17      	ldr	r2, [pc, #92]	; (2e20 <SystemInit+0x324>)
    2dc4:	5cd3      	ldrb	r3, [r2, r3]
    2dc6:	2b00      	cmp	r3, #0
    2dc8:	f43f af08 	beq.w	2bdc <SystemInit+0xe0>
    2dcc:	4a0f      	ldr	r2, [pc, #60]	; (2e0c <SystemInit+0x310>)
    2dce:	f8d2 373c 	ldr.w	r3, [r2, #1852]	; 0x73c
    2dd2:	f443 6380 	orr.w	r3, r3, #1024	; 0x400
    2dd6:	f8c2 373c 	str.w	r3, [r2, #1852]	; 0x73c
    2dda:	e6ff      	b.n	2bdc <SystemInit+0xe0>
    2ddc:	4911      	ldr	r1, [pc, #68]	; (2e24 <SystemInit+0x328>)
    2dde:	5c8a      	ldrb	r2, [r1, r2]
    2de0:	2a00      	cmp	r2, #0
    2de2:	f47f af26 	bne.w	2c32 <SystemInit+0x136>
    2de6:	e76d      	b.n	2cc4 <SystemInit+0x1c8>
    2de8:	f04f 4370 	mov.w	r3, #4026531840	; 0xf0000000
    2dec:	f893 3fe0 	ldrb.w	r3, [r3, #4064]	; 0xfe0
    2df0:	2b06      	cmp	r3, #6
    2df2:	f43f af6d 	beq.w	2cd0 <SystemInit+0x1d4>
    2df6:	e6f1      	b.n	2bdc <SystemInit+0xe0>
    2df8:	40013000 	.word	0x40013000
    2dfc:	e000ed00 	.word	0xe000ed00
    2e00:	20000024 	.word	0x20000024
    2e04:	03d09000 	.word	0x03d09000
    2e08:	4000c000 	.word	0x4000c000
    2e0c:	40001000 	.word	0x40001000
    2e10:	00003340 	.word	0x00003340
    2e14:	40005000 	.word	0x40005000
    2e18:	4007c000 	.word	0x4007c000
    2e1c:	baadf00d 	.word	0xbaadf00d
    2e20:	0000333c 	.word	0x0000333c
    2e24:	00003338 	.word	0x00003338
    2e28:	4a18      	ldr	r2, [pc, #96]	; (2e8c <SystemInit+0x390>)
    2e2a:	2301      	movs	r3, #1
    2e2c:	f8c2 3504 	str.w	r3, [r2, #1284]	; 0x504
    2e30:	f8d2 3400 	ldr.w	r3, [r2, #1024]	; 0x400
    2e34:	2b00      	cmp	r3, #0
    2e36:	d0fb      	beq.n	2e30 <SystemInit+0x334>
    2e38:	f04f 2310 	mov.w	r3, #268439552	; 0x10001000
    2e3c:	2115      	movs	r1, #21
    2e3e:	4a13      	ldr	r2, [pc, #76]	; (2e8c <SystemInit+0x390>)
    2e40:	f8c3 1200 	str.w	r1, [r3, #512]	; 0x200
    2e44:	f8d2 3400 	ldr.w	r3, [r2, #1024]	; 0x400
    2e48:	2b00      	cmp	r3, #0
    2e4a:	d0fb      	beq.n	2e44 <SystemInit+0x348>
    2e4c:	f04f 2310 	mov.w	r3, #268439552	; 0x10001000
    2e50:	2115      	movs	r1, #21
    2e52:	4a0e      	ldr	r2, [pc, #56]	; (2e8c <SystemInit+0x390>)
    2e54:	f8c3 1204 	str.w	r1, [r3, #516]	; 0x204
    2e58:	f8d2 3400 	ldr.w	r3, [r2, #1024]	; 0x400
    2e5c:	2b00      	cmp	r3, #0
    2e5e:	d0fb      	beq.n	2e58 <SystemInit+0x35c>
    2e60:	2300      	movs	r3, #0
    2e62:	490a      	ldr	r1, [pc, #40]	; (2e8c <SystemInit+0x390>)
    2e64:	f8c2 3504 	str.w	r3, [r2, #1284]	; 0x504
    2e68:	f8d1 3400 	ldr.w	r3, [r1, #1024]	; 0x400
    2e6c:	2b00      	cmp	r3, #0
    2e6e:	d0fb      	beq.n	2e68 <SystemInit+0x36c>
    2e70:	f3bf 8f4f 	dsb	sy
    2e74:	4906      	ldr	r1, [pc, #24]	; (2e90 <SystemInit+0x394>)
    2e76:	4b07      	ldr	r3, [pc, #28]	; (2e94 <SystemInit+0x398>)
    2e78:	68ca      	ldr	r2, [r1, #12]
    2e7a:	f402 62e0 	and.w	r2, r2, #1792	; 0x700
    2e7e:	4313      	orrs	r3, r2
    2e80:	60cb      	str	r3, [r1, #12]
    2e82:	f3bf 8f4f 	dsb	sy
    2e86:	bf00      	nop
    2e88:	e7fd      	b.n	2e86 <SystemInit+0x38a>
    2e8a:	bf00      	nop
    2e8c:	4001e000 	.word	0x4001e000
    2e90:	e000ed00 	.word	0xe000ed00
    2e94:	05fa0004 	.word	0x05fa0004

00002e98 <atexit>:
    2e98:	2300      	movs	r3, #0
    2e9a:	4601      	mov	r1, r0
    2e9c:	461a      	mov	r2, r3
    2e9e:	4618      	mov	r0, r3
    2ea0:	f000 b86a 	b.w	2f78 <__register_exitproc>

00002ea4 <exit>:
    2ea4:	b508      	push	{r3, lr}
    2ea6:	4b06      	ldr	r3, [pc, #24]	; (2ec0 <exit+0x1c>)
    2ea8:	4604      	mov	r4, r0
    2eaa:	b113      	cbz	r3, 2eb2 <exit+0xe>
    2eac:	2100      	movs	r1, #0
    2eae:	f000 f8c1 	bl	3034 <__call_exitprocs>
    2eb2:	4b04      	ldr	r3, [pc, #16]	; (2ec4 <exit+0x20>)
    2eb4:	681b      	ldr	r3, [r3, #0]
    2eb6:	b103      	cbz	r3, 2eba <exit+0x16>
    2eb8:	4798      	blx	r3
    2eba:	4620      	mov	r0, r4
    2ebc:	f000 f916 	bl	30ec <_exit>
    2ec0:	00003035 	.word	0x00003035
    2ec4:	20000738 	.word	0x20000738

00002ec8 <memset>:
    2ec8:	4402      	add	r2, r0
    2eca:	4603      	mov	r3, r0
    2ecc:	4293      	cmp	r3, r2
    2ece:	d100      	bne.n	2ed2 <memset+0xa>
    2ed0:	4770      	bx	lr
    2ed2:	f803 1b01 	strb.w	r1, [r3], #1
    2ed6:	e7f9      	b.n	2ecc <memset+0x4>

00002ed8 <__libc_init_array>:
    2ed8:	b570      	push	{r4, r5, r6, lr}
    2eda:	4d0d      	ldr	r5, [pc, #52]	; (2f10 <__libc_init_array+0x38>)
    2edc:	4c0d      	ldr	r4, [pc, #52]	; (2f14 <__libc_init_array+0x3c>)
    2ede:	1b64      	subs	r4, r4, r5
    2ee0:	10a4      	asrs	r4, r4, #2
    2ee2:	2600      	movs	r6, #0
    2ee4:	42a6      	cmp	r6, r4
    2ee6:	d109      	bne.n	2efc <__libc_init_array+0x24>
    2ee8:	4d0b      	ldr	r5, [pc, #44]	; (2f18 <__libc_init_array+0x40>)
    2eea:	4c0c      	ldr	r4, [pc, #48]	; (2f1c <__libc_init_array+0x44>)
    2eec:	f000 f900 	bl	30f0 <_init>
    2ef0:	1b64      	subs	r4, r4, r5
    2ef2:	10a4      	asrs	r4, r4, #2
    2ef4:	2600      	movs	r6, #0
    2ef6:	42a6      	cmp	r6, r4
    2ef8:	d105      	bne.n	2f06 <__libc_init_array+0x2e>
    2efa:	bd70      	pop	{r4, r5, r6, pc}
    2efc:	f855 3b04 	ldr.w	r3, [r5], #4
    2f00:	4798      	blx	r3
    2f02:	3601      	adds	r6, #1
    2f04:	e7ee      	b.n	2ee4 <__libc_init_array+0xc>
    2f06:	f855 3b04 	ldr.w	r3, [r5], #4
    2f0a:	4798      	blx	r3
    2f0c:	3601      	adds	r6, #1
    2f0e:	e7f2      	b.n	2ef6 <__libc_init_array+0x1e>
    2f10:	2000002c 	.word	0x2000002c
    2f14:	2000002c 	.word	0x2000002c
    2f18:	2000002c 	.word	0x2000002c
    2f1c:	20000030 	.word	0x20000030

00002f20 <__libc_fini_array>:
    2f20:	b538      	push	{r3, r4, r5, lr}
    2f22:	4d07      	ldr	r5, [pc, #28]	; (2f40 <__libc_fini_array+0x20>)
    2f24:	4c07      	ldr	r4, [pc, #28]	; (2f44 <__libc_fini_array+0x24>)
    2f26:	1b64      	subs	r4, r4, r5
    2f28:	10a4      	asrs	r4, r4, #2
    2f2a:	b91c      	cbnz	r4, 2f34 <__libc_fini_array+0x14>
    2f2c:	e8bd 4038 	ldmia.w	sp!, {r3, r4, r5, lr}
    2f30:	f000 b8e4 	b.w	30fc <_fini>
    2f34:	3c01      	subs	r4, #1
    2f36:	f855 3024 	ldr.w	r3, [r5, r4, lsl #2]
    2f3a:	4798      	blx	r3
    2f3c:	e7f5      	b.n	2f2a <__libc_fini_array+0xa>
    2f3e:	bf00      	nop
    2f40:	20000030 	.word	0x20000030
    2f44:	20000034 	.word	0x20000034

00002f48 <__retarget_lock_acquire_recursive>:
    2f48:	4770      	bx	lr

00002f4a <__retarget_lock_release_recursive>:
    2f4a:	4770      	bx	lr

00002f4c <memcpy>:
    2f4c:	440a      	add	r2, r1
    2f4e:	4291      	cmp	r1, r2
    2f50:	f100 33ff 	add.w	r3, r0, #4294967295	; 0xffffffff
    2f54:	d100      	bne.n	2f58 <memcpy+0xc>
    2f56:	4770      	bx	lr
    2f58:	b510      	push	{r4, lr}
    2f5a:	f811 4b01 	ldrb.w	r4, [r1], #1
    2f5e:	f803 4f01 	strb.w	r4, [r3, #1]!
    2f62:	4291      	cmp	r1, r2
    2f64:	d1f9      	bne.n	2f5a <memcpy+0xe>
    2f66:	bd10      	pop	{r4, pc}

00002f68 <strlen>:
    2f68:	4603      	mov	r3, r0
    2f6a:	f813 2b01 	ldrb.w	r2, [r3], #1
    2f6e:	2a00      	cmp	r2, #0
    2f70:	d1fb      	bne.n	2f6a <strlen+0x2>
    2f72:	1a18      	subs	r0, r3, r0
    2f74:	3801      	subs	r0, #1
    2f76:	4770      	bx	lr

00002f78 <__register_exitproc>:
    2f78:	e92d 43f8 	stmdb	sp!, {r3, r4, r5, r6, r7, r8, r9, lr}
    2f7c:	f8df 80b0 	ldr.w	r8, [pc, #176]	; 3030 <__register_exitproc+0xb8>
    2f80:	4606      	mov	r6, r0
    2f82:	f8d8 0000 	ldr.w	r0, [r8]
    2f86:	461f      	mov	r7, r3
    2f88:	460d      	mov	r5, r1
    2f8a:	4691      	mov	r9, r2
    2f8c:	f7ff ffdc 	bl	2f48 <__retarget_lock_acquire_recursive>
    2f90:	4b23      	ldr	r3, [pc, #140]	; (3020 <__register_exitproc+0xa8>)
    2f92:	681c      	ldr	r4, [r3, #0]
    2f94:	b934      	cbnz	r4, 2fa4 <__register_exitproc+0x2c>
    2f96:	4c23      	ldr	r4, [pc, #140]	; (3024 <__register_exitproc+0xac>)
    2f98:	601c      	str	r4, [r3, #0]
    2f9a:	4b23      	ldr	r3, [pc, #140]	; (3028 <__register_exitproc+0xb0>)
    2f9c:	b113      	cbz	r3, 2fa4 <__register_exitproc+0x2c>
    2f9e:	681b      	ldr	r3, [r3, #0]
    2fa0:	f8c4 3088 	str.w	r3, [r4, #136]	; 0x88
    2fa4:	6863      	ldr	r3, [r4, #4]
    2fa6:	2b1f      	cmp	r3, #31
    2fa8:	dd07      	ble.n	2fba <__register_exitproc+0x42>
    2faa:	f8d8 0000 	ldr.w	r0, [r8]
    2fae:	f7ff ffcc 	bl	2f4a <__retarget_lock_release_recursive>
    2fb2:	f04f 30ff 	mov.w	r0, #4294967295	; 0xffffffff
    2fb6:	e8bd 83f8 	ldmia.w	sp!, {r3, r4, r5, r6, r7, r8, r9, pc}
    2fba:	b32e      	cbz	r6, 3008 <__register_exitproc+0x90>
    2fbc:	f8d4 0088 	ldr.w	r0, [r4, #136]	; 0x88
    2fc0:	b968      	cbnz	r0, 2fde <__register_exitproc+0x66>
    2fc2:	4b1a      	ldr	r3, [pc, #104]	; (302c <__register_exitproc+0xb4>)
    2fc4:	2b00      	cmp	r3, #0
    2fc6:	d0f0      	beq.n	2faa <__register_exitproc+0x32>
    2fc8:	f44f 7084 	mov.w	r0, #264	; 0x108
    2fcc:	f3af 8000 	nop.w
    2fd0:	2800      	cmp	r0, #0
    2fd2:	d0ea      	beq.n	2faa <__register_exitproc+0x32>
    2fd4:	2300      	movs	r3, #0
    2fd6:	e9c0 3340 	strd	r3, r3, [r0, #256]	; 0x100
    2fda:	f8c4 0088 	str.w	r0, [r4, #136]	; 0x88
    2fde:	6863      	ldr	r3, [r4, #4]
    2fe0:	f840 9023 	str.w	r9, [r0, r3, lsl #2]
    2fe4:	2201      	movs	r2, #1
    2fe6:	409a      	lsls	r2, r3
    2fe8:	eb00 0183 	add.w	r1, r0, r3, lsl #2
    2fec:	f8d0 3100 	ldr.w	r3, [r0, #256]	; 0x100
    2ff0:	4313      	orrs	r3, r2
    2ff2:	f8c0 3100 	str.w	r3, [r0, #256]	; 0x100
    2ff6:	2e02      	cmp	r6, #2
    2ff8:	f8c1 7080 	str.w	r7, [r1, #128]	; 0x80
    2ffc:	bf02      	ittt	eq
    2ffe:	f8d0 3104 	ldreq.w	r3, [r0, #260]	; 0x104
    3002:	4313      	orreq	r3, r2
    3004:	f8c0 3104 	streq.w	r3, [r0, #260]	; 0x104
    3008:	6863      	ldr	r3, [r4, #4]
    300a:	f8d8 0000 	ldr.w	r0, [r8]
    300e:	1c5a      	adds	r2, r3, #1
    3010:	3302      	adds	r3, #2
    3012:	6062      	str	r2, [r4, #4]
    3014:	f844 5023 	str.w	r5, [r4, r3, lsl #2]
    3018:	f7ff ff97 	bl	2f4a <__retarget_lock_release_recursive>
    301c:	2000      	movs	r0, #0
    301e:	e7ca      	b.n	2fb6 <__register_exitproc+0x3e>
    3020:	200007cc 	.word	0x200007cc
    3024:	20000740 	.word	0x20000740
	...
    3030:	20000028 	.word	0x20000028

00003034 <__call_exitprocs>:
    3034:	e92d 4ff7 	stmdb	sp!, {r0, r1, r2, r4, r5, r6, r7, r8, r9, sl, fp, lr}
    3038:	f8df 90a8 	ldr.w	r9, [pc, #168]	; 30e4 <__call_exitprocs+0xb0>
    303c:	9100      	str	r1, [sp, #0]
    303e:	4680      	mov	r8, r0
    3040:	f8d9 0000 	ldr.w	r0, [r9]
    3044:	f8df a0a0 	ldr.w	sl, [pc, #160]	; 30e8 <__call_exitprocs+0xb4>
    3048:	f7ff ff7e 	bl	2f48 <__retarget_lock_acquire_recursive>
    304c:	f8da 4000 	ldr.w	r4, [sl]
    3050:	b934      	cbnz	r4, 3060 <__call_exitprocs+0x2c>
    3052:	f8d9 0000 	ldr.w	r0, [r9]
    3056:	b003      	add	sp, #12
    3058:	e8bd 4ff0 	ldmia.w	sp!, {r4, r5, r6, r7, r8, r9, sl, fp, lr}
    305c:	f7ff bf75 	b.w	2f4a <__retarget_lock_release_recursive>
    3060:	6865      	ldr	r5, [r4, #4]
    3062:	f8d4 7088 	ldr.w	r7, [r4, #136]	; 0x88
    3066:	1e6e      	subs	r6, r5, #1
    3068:	3501      	adds	r5, #1
    306a:	eb04 0585 	add.w	r5, r4, r5, lsl #2
    306e:	f107 0b80 	add.w	fp, r7, #128	; 0x80
    3072:	2e00      	cmp	r6, #0
    3074:	dbed      	blt.n	3052 <__call_exitprocs+0x1e>
    3076:	9b00      	ldr	r3, [sp, #0]
    3078:	b143      	cbz	r3, 308c <__call_exitprocs+0x58>
    307a:	b917      	cbnz	r7, 3082 <__call_exitprocs+0x4e>
    307c:	3e01      	subs	r6, #1
    307e:	3d04      	subs	r5, #4
    3080:	e7f7      	b.n	3072 <__call_exitprocs+0x3e>
    3082:	f85b 2026 	ldr.w	r2, [fp, r6, lsl #2]
    3086:	9b00      	ldr	r3, [sp, #0]
    3088:	429a      	cmp	r2, r3
    308a:	d1f7      	bne.n	307c <__call_exitprocs+0x48>
    308c:	6861      	ldr	r1, [r4, #4]
    308e:	682a      	ldr	r2, [r5, #0]
    3090:	3901      	subs	r1, #1
    3092:	42b1      	cmp	r1, r6
    3094:	bf16      	itet	ne
    3096:	2300      	movne	r3, #0
    3098:	6066      	streq	r6, [r4, #4]
    309a:	602b      	strne	r3, [r5, #0]
    309c:	2a00      	cmp	r2, #0
    309e:	d0ed      	beq.n	307c <__call_exitprocs+0x48>
    30a0:	6863      	ldr	r3, [r4, #4]
    30a2:	9301      	str	r3, [sp, #4]
    30a4:	b13f      	cbz	r7, 30b6 <__call_exitprocs+0x82>
    30a6:	f8d7 1100 	ldr.w	r1, [r7, #256]	; 0x100
    30aa:	2301      	movs	r3, #1
    30ac:	fa03 fc06 	lsl.w	ip, r3, r6
    30b0:	ea1c 0f01 	tst.w	ip, r1
    30b4:	d109      	bne.n	30ca <__call_exitprocs+0x96>
    30b6:	4790      	blx	r2
    30b8:	6861      	ldr	r1, [r4, #4]
    30ba:	9b01      	ldr	r3, [sp, #4]
    30bc:	f8da 2000 	ldr.w	r2, [sl]
    30c0:	4299      	cmp	r1, r3
    30c2:	d1c3      	bne.n	304c <__call_exitprocs+0x18>
    30c4:	4294      	cmp	r4, r2
    30c6:	d0d9      	beq.n	307c <__call_exitprocs+0x48>
    30c8:	e7c0      	b.n	304c <__call_exitprocs+0x18>
    30ca:	f8d7 0104 	ldr.w	r0, [r7, #260]	; 0x104
    30ce:	f857 1026 	ldr.w	r1, [r7, r6, lsl #2]
    30d2:	ea1c 0f00 	tst.w	ip, r0
    30d6:	d102      	bne.n	30de <__call_exitprocs+0xaa>
    30d8:	4640      	mov	r0, r8
    30da:	4790      	blx	r2
    30dc:	e7ec      	b.n	30b8 <__call_exitprocs+0x84>
    30de:	4608      	mov	r0, r1
    30e0:	4790      	blx	r2
    30e2:	e7e9      	b.n	30b8 <__call_exitprocs+0x84>
    30e4:	20000028 	.word	0x20000028
    30e8:	200007cc 	.word	0x200007cc

000030ec <_exit>:
    30ec:	e7fe      	b.n	30ec <_exit>
    30ee:	bf00      	nop

000030f0 <_init>:
    30f0:	b5f8      	push	{r3, r4, r5, r6, r7, lr}
    30f2:	bf00      	nop
    30f4:	bcf8      	pop	{r3, r4, r5, r6, r7}
    30f6:	bc08      	pop	{r3}
    30f8:	469e      	mov	lr, r3
    30fa:	4770      	bx	lr

000030fc <_fini>:
    30fc:	b5f8      	push	{r3, r4, r5, r6, r7, lr}
    30fe:	bf00      	nop
    3100:	bcf8      	pop	{r3, r4, r5, r6, r7}
    3102:	bc08      	pop	{r3}
    3104:	469e      	mov	lr, r3
    3106:	4770      	bx	lr
    3108:	ffffffff 	.word	0xffffffff
    310c:	ffffffff 	.word	0xffffffff
    3110:	ffffffff 	.word	0xffffffff
    3114:	ffffffff 	.word	0xffffffff
	...
    3120:	01d60000 	.word	0x01d60000
    3124:	00000106 	.word	0x00000106

00003128 <nrf_log_backend_uart_api>:
    3128:	000003d5 00000445 000003d1 74726175     ....E.......uart
    3138:	676f6c5f 6361625f 646e656b 00000000     _log_backend....
    3148:	6b636142 73646e65 756c6620 64656873     Backends flushed
    3158:	00000000 00707061                       ....app.

00003160 <m_log_push_ringbuf>:
    3160:	20000588 0000007f 20000608 3b315b1b     ... ....... .[1;
    3170:	006d3133 6f4c7325 64207367 70706f72     31m.%sLogs dropp
    3180:	28206465 25296425 000a0d73 6d305b1b     ed (%d)%s....[0m
    3190:	00000000 00007325 3e73253c 3a732520     ....%s..<%s> %s:
    31a0:	00000020 00000a0d 32302520 00000078      ....... %02x...
    31b0:	00202020 0000007c 00006325 3b315b1b        .|...%c...[1;
    31c0:	006d3033 3b315b1b 006d3233 3b315b1b     30m..[1;32m..[1;
    31d0:	006d3333 3b315b1b 006d3433 3b315b1b     33m..[1;34m..[1;
    31e0:	006d3533 3b315b1b 006d3633 3b315b1b     35m..[1;36m..[1;
    31f0:	006d3733 6f727265 00000072 6e726177     37m.error...warn
    3200:	00676e69 6f666e69 00000000 75626564     ing.info....debu
    3210:	00000067                                g...

00003214 <m_colors>:
    3214:	0000318c 000031bc 0000316c 000031c4     .1...1..l1...1..
    3224:	000031cc 000031d4 000031dc 000031e4     .1...1...1...1..
    3234:	000031ec                                .1..

00003238 <severity_names>:
    3238:	00000000 000031f4 000031fc 00003204     .....1...1...2..
    3248:	0000320c                                .2..

0000324c <m_board_led_list>:
    324c:	14131211 5f707061 74747562 00006e6f     ....app_button..
    325c:	61746146 7265206c 00726f72 74737953     Fatal error.Syst
    326c:	72206d65 74657365 00000000 5f707061     em reset....app_
    327c:	656d6974 00000072                       timer...

00003284 <_aV2C.0>:
    3284:	33323130 37363534 42413938 46454443     0123456789ABCDEF
    3294:	74726f73 7473696c 00000000 ffffffff     sortlist........
    32a4:	00ff0600 40000000 00000000 4f495047     .......@....GPIO
    32b4:	00004554 00535250 4d495053 00000000     TE..PRS.SPIM....
    32c4:	54524155 00000000 54524155 00000045     UART....UARTE...
    32d4:	6e617254 72656673 6d6f6320 74656c70     Transfer complet
    32e4:	002e6465 63655220 65766965 00003a64     ed.. Received:..
    32f4:	20495053 6d617865 20656c70 72617473     SPI example star
    3304:	2e646574 00000000 ffffffff 0000ff06     ted.............
    3314:	40000000 00000000 00000000              ...@........

00003320 <delay_machine_code.0>:
    3320:	d8fd3803 00004770                       .8..pG..

00003328 <spi>:
    3328:	00000000 40003000 00000000 00000001     .....0.@........

00003338 <CSWTCH.15>:
    3338:	01010000                                ....

0000333c <CSWTCH.19>:
    333c:	01000000                                ....

00003340 <CSWTCH.5>:
    3340:	00000001                                ....

00003344 <_ctype_>:
    3344:	20202000 20202020 28282020 20282828     .         ((((( 
    3354:	20202020 20202020 20202020 20202020                     
    3364:	10108820 10101010 10101010 10101010      ...............
    3374:	04040410 04040404 10040404 10101010     ................
    3384:	41411010 41414141 01010101 01010101     ..AAAAAA........
    3394:	01010101 01010101 01010101 10101010     ................
    33a4:	42421010 42424242 02020202 02020202     ..BBBBBB........
    33b4:	02020202 02020202 02020202 10101010     ................
    33c4:	00000020 00000000 00000000 00000000      ...............
	...

00003448 <__EH_FRAME_BEGIN__>:
    3448:	00000000                                ....
