
twi_sensor-o1.elf:     file format elf32-littlearm


Disassembly of section .text:

00000000 <__isr_vector>:
       0:	20010000 	.word	0x20010000
       4:	000002b1 	.word	0x000002b1
       8:	000002d9 	.word	0x000002d9
       c:	000002db 	.word	0x000002db
      10:	000002dd 	.word	0x000002dd
      14:	000002df 	.word	0x000002df
      18:	000002e1 	.word	0x000002e1
	...
      2c:	000002e3 	.word	0x000002e3
      30:	000002e5 	.word	0x000002e5
      34:	00000000 	.word	0x00000000
      38:	000002e7 	.word	0x000002e7
      3c:	000002e9 	.word	0x000002e9
      40:	000002eb 	.word	0x000002eb
      44:	000002eb 	.word	0x000002eb
      48:	00001775 	.word	0x00001775
      4c:	00001861 	.word	0x00001861
      50:	000002eb 	.word	0x000002eb
      54:	000002eb 	.word	0x000002eb
      58:	000002eb 	.word	0x000002eb
      5c:	000002eb 	.word	0x000002eb
      60:	000002eb 	.word	0x000002eb
      64:	000002eb 	.word	0x000002eb
      68:	000002eb 	.word	0x000002eb
      6c:	000002eb 	.word	0x000002eb
      70:	000002eb 	.word	0x000002eb
      74:	000002eb 	.word	0x000002eb
      78:	000002eb 	.word	0x000002eb
      7c:	000002eb 	.word	0x000002eb
      80:	000002eb 	.word	0x000002eb
      84:	000002eb 	.word	0x000002eb
      88:	000002eb 	.word	0x000002eb
      8c:	000002eb 	.word	0x000002eb
      90:	000002eb 	.word	0x000002eb
      94:	000002eb 	.word	0x000002eb
      98:	000002eb 	.word	0x000002eb
      9c:	000002eb 	.word	0x000002eb
      a0:	000002eb 	.word	0x000002eb
      a4:	000002eb 	.word	0x000002eb
      a8:	000002eb 	.word	0x000002eb
      ac:	000002eb 	.word	0x000002eb
      b0:	000002eb 	.word	0x000002eb
      b4:	000002eb 	.word	0x000002eb
	...
      c0:	000002eb 	.word	0x000002eb
      c4:	000002eb 	.word	0x000002eb
      c8:	000002eb 	.word	0x000002eb
      cc:	000002eb 	.word	0x000002eb
      d0:	000002eb 	.word	0x000002eb
      d4:	000002eb 	.word	0x000002eb
      d8:	000002eb 	.word	0x000002eb
	...

00000200 <__do_global_dtors_aux>:
     200:	b510      	push	{r4, lr}
     202:	4c05      	ldr	r4, [pc, #20]	; (218 <__do_global_dtors_aux+0x18>)
     204:	7823      	ldrb	r3, [r4, #0]
     206:	b933      	cbnz	r3, 216 <__do_global_dtors_aux+0x16>
     208:	4b04      	ldr	r3, [pc, #16]	; (21c <__do_global_dtors_aux+0x1c>)
     20a:	b113      	cbz	r3, 212 <__do_global_dtors_aux+0x12>
     20c:	4804      	ldr	r0, [pc, #16]	; (220 <__do_global_dtors_aux+0x20>)
     20e:	f3af 8000 	nop.w
     212:	2301      	movs	r3, #1
     214:	7023      	strb	r3, [r4, #0]
     216:	bd10      	pop	{r4, pc}
     218:	2000002c 	.word	0x2000002c
     21c:	00000000 	.word	0x00000000
     220:	0000341c 	.word	0x0000341c

00000224 <frame_dummy>:
     224:	b508      	push	{r3, lr}
     226:	4b03      	ldr	r3, [pc, #12]	; (234 <frame_dummy+0x10>)
     228:	b11b      	cbz	r3, 232 <frame_dummy+0xe>
     22a:	4903      	ldr	r1, [pc, #12]	; (238 <frame_dummy+0x14>)
     22c:	4803      	ldr	r0, [pc, #12]	; (23c <frame_dummy+0x18>)
     22e:	f3af 8000 	nop.w
     232:	bd08      	pop	{r3, pc}
     234:	00000000 	.word	0x00000000
     238:	20000030 	.word	0x20000030
     23c:	0000341c 	.word	0x0000341c

00000240 <_stack_init>:
     240:	f5a3 3a80 	sub.w	sl, r3, #65536	; 0x10000
     244:	4770      	bx	lr
     246:	bf00      	nop

00000248 <_mainCRTStartup>:
     248:	4b15      	ldr	r3, [pc, #84]	; (2a0 <_mainCRTStartup+0x58>)
     24a:	2b00      	cmp	r3, #0
     24c:	bf08      	it	eq
     24e:	4b11      	ldreq	r3, [pc, #68]	; (294 <_mainCRTStartup+0x4c>)
     250:	469d      	mov	sp, r3
     252:	f7ff fff5 	bl	240 <_stack_init>
     256:	2100      	movs	r1, #0
     258:	468b      	mov	fp, r1
     25a:	460f      	mov	r7, r1
     25c:	4811      	ldr	r0, [pc, #68]	; (2a4 <_mainCRTStartup+0x5c>)
     25e:	4a12      	ldr	r2, [pc, #72]	; (2a8 <_mainCRTStartup+0x60>)
     260:	1a12      	subs	r2, r2, r0
     262:	f002 fe3b 	bl	2edc <memset>
     266:	4b0c      	ldr	r3, [pc, #48]	; (298 <_mainCRTStartup+0x50>)
     268:	2b00      	cmp	r3, #0
     26a:	d000      	beq.n	26e <_mainCRTStartup+0x26>
     26c:	4798      	blx	r3
     26e:	4b0b      	ldr	r3, [pc, #44]	; (29c <_mainCRTStartup+0x54>)
     270:	2b00      	cmp	r3, #0
     272:	d000      	beq.n	276 <_mainCRTStartup+0x2e>
     274:	4798      	blx	r3
     276:	2000      	movs	r0, #0
     278:	2100      	movs	r1, #0
     27a:	0004      	movs	r4, r0
     27c:	000d      	movs	r5, r1
     27e:	480b      	ldr	r0, [pc, #44]	; (2ac <_mainCRTStartup+0x64>)
     280:	f002 fe14 	bl	2eac <atexit>
     284:	f002 fe32 	bl	2eec <__libc_init_array>
     288:	0020      	movs	r0, r4
     28a:	0029      	movs	r1, r5
     28c:	f002 fc0a 	bl	2aa4 <main>
     290:	f002 fe12 	bl	2eb8 <exit>
     294:	00080000 	.word	0x00080000
	...
     2a0:	20010000 	.word	0x20010000
     2a4:	2000002c 	.word	0x2000002c
     2a8:	20000760 	.word	0x20000760
     2ac:	00002f35 	.word	0x00002f35

000002b0 <Reset_Handler>:
     2b0:	4906      	ldr	r1, [pc, #24]	; (2cc <Reset_Handler+0x1c>)
     2b2:	4a07      	ldr	r2, [pc, #28]	; (2d0 <Reset_Handler+0x20>)
     2b4:	4b07      	ldr	r3, [pc, #28]	; (2d4 <Reset_Handler+0x24>)
     2b6:	1a9b      	subs	r3, r3, r2
     2b8:	dd03      	ble.n	2c2 <Reset_Handler+0x12>
     2ba:	3b04      	subs	r3, #4
     2bc:	58c8      	ldr	r0, [r1, r3]
     2be:	50d0      	str	r0, [r2, r3]
     2c0:	dcfb      	bgt.n	2ba <Reset_Handler+0xa>
     2c2:	f002 fc3f 	bl	2b44 <SystemInit>
     2c6:	f7ff ffbf 	bl	248 <_mainCRTStartup>
     2ca:	0000      	.short	0x0000
     2cc:	00003474 	.word	0x00003474
     2d0:	20000000 	.word	0x20000000
     2d4:	2000002c 	.word	0x2000002c

000002d8 <NMI_Handler>:
     2d8:	e7fe      	b.n	2d8 <NMI_Handler>

000002da <HardFault_Handler>:
     2da:	e7fe      	b.n	2da <HardFault_Handler>

000002dc <MemoryManagement_Handler>:
     2dc:	e7fe      	b.n	2dc <MemoryManagement_Handler>

000002de <BusFault_Handler>:
     2de:	e7fe      	b.n	2de <BusFault_Handler>

000002e0 <UsageFault_Handler>:
     2e0:	e7fe      	b.n	2e0 <UsageFault_Handler>

000002e2 <SVC_Handler>:
     2e2:	e7fe      	b.n	2e2 <SVC_Handler>

000002e4 <DebugMon_Handler>:
     2e4:	e7fe      	b.n	2e4 <DebugMon_Handler>

000002e6 <PendSV_Handler>:
     2e6:	e7fe      	b.n	2e6 <PendSV_Handler>

000002e8 <SysTick_Handler>:
     2e8:	e7fe      	b.n	2e8 <SysTick_Handler>

000002ea <Default_Handler>:
     2ea:	e7fe      	b.n	2ea <Default_Handler>

000002ec <nrf_log_backend_serial_put>:
     2ec:	b5f0      	push	{r4, r5, r6, r7, lr}
     2ee:	b095      	sub	sp, #84	; 0x54
     2f0:	460e      	mov	r6, r1
     2f2:	4615      	mov	r5, r2
     2f4:	461c      	mov	r4, r3
     2f6:	4608      	mov	r0, r1
     2f8:	f001 f8eb 	bl	14d2 <nrf_memobj_get>
     2fc:	950e      	str	r5, [sp, #56]	; 0x38
     2fe:	940f      	str	r4, [sp, #60]	; 0x3c
     300:	2400      	movs	r4, #0
     302:	9410      	str	r4, [sp, #64]	; 0x40
     304:	f88d 4044 	strb.w	r4, [sp, #68]	; 0x44
     308:	9412      	str	r4, [sp, #72]	; 0x48
     30a:	9b1a      	ldr	r3, [sp, #104]	; 0x68
     30c:	9313      	str	r3, [sp, #76]	; 0x4c
     30e:	4623      	mov	r3, r4
     310:	2208      	movs	r2, #8
     312:	a908      	add	r1, sp, #32
     314:	4630      	mov	r0, r6
     316:	f001 f8fb 	bl	1510 <nrf_memobj_read>
     31a:	9b0a      	ldr	r3, [sp, #40]	; 0x28
     31c:	930b      	str	r3, [sp, #44]	; 0x2c
     31e:	f8bd 3024 	ldrh.w	r3, [sp, #36]	; 0x24
     322:	f8ad 3030 	strh.w	r3, [sp, #48]	; 0x30
     326:	f8bd 3026 	ldrh.w	r3, [sp, #38]	; 0x26
     32a:	f8ad 3032 	strh.w	r3, [sp, #50]	; 0x32
     32e:	f88d 4035 	strb.w	r4, [sp, #53]	; 0x35
     332:	f89d 3020 	ldrb.w	r3, [sp, #32]
     336:	f003 0303 	and.w	r3, r3, #3
     33a:	2b01      	cmp	r3, #1
     33c:	d006      	beq.n	34c <nrf_log_backend_serial_put+0x60>
     33e:	2b02      	cmp	r3, #2
     340:	d021      	beq.n	386 <nrf_log_backend_serial_put+0x9a>
     342:	4630      	mov	r0, r6
     344:	f001 f8cb 	bl	14de <nrf_memobj_put>
     348:	b015      	add	sp, #84	; 0x54
     34a:	bdf0      	pop	{r4, r5, r6, r7, pc}
     34c:	9d08      	ldr	r5, [sp, #32]
     34e:	f3c5 2595 	ubfx	r5, r5, #10, #22
     352:	f89d 3020 	ldrb.w	r3, [sp, #32]
     356:	f3c3 03c2 	ubfx	r3, r3, #3, #3
     35a:	f88d 3034 	strb.w	r3, [sp, #52]	; 0x34
     35e:	f8bd 4020 	ldrh.w	r4, [sp, #32]
     362:	f3c4 1483 	ubfx	r4, r4, #6, #4
     366:	2308      	movs	r3, #8
     368:	00a2      	lsls	r2, r4, #2
     36a:	eb0d 0103 	add.w	r1, sp, r3
     36e:	4630      	mov	r0, r6
     370:	f001 f8ce 	bl	1510 <nrf_memobj_read>
     374:	ab0e      	add	r3, sp, #56	; 0x38
     376:	9300      	str	r3, [sp, #0]
     378:	ab0b      	add	r3, sp, #44	; 0x2c
     37a:	4622      	mov	r2, r4
     37c:	a902      	add	r1, sp, #8
     37e:	4628      	mov	r0, r5
     380:	f000 fc1e 	bl	bc0 <nrf_log_std_entry_process>
     384:	e7dd      	b.n	342 <nrf_log_backend_serial_put+0x56>
     386:	f8bd 5022 	ldrh.w	r5, [sp, #34]	; 0x22
     38a:	f3c5 1589 	ubfx	r5, r5, #6, #10
     38e:	f89d 3020 	ldrb.w	r3, [sp, #32]
     392:	f3c3 03c2 	ubfx	r3, r3, #3, #3
     396:	f88d 3034 	strb.w	r3, [sp, #52]	; 0x34
     39a:	2708      	movs	r7, #8
     39c:	462c      	mov	r4, r5
     39e:	2d08      	cmp	r5, #8
     3a0:	bf28      	it	cs
     3a2:	2408      	movcs	r4, #8
     3a4:	463b      	mov	r3, r7
     3a6:	4622      	mov	r2, r4
     3a8:	a902      	add	r1, sp, #8
     3aa:	4630      	mov	r0, r6
     3ac:	f001 f8b0 	bl	1510 <nrf_memobj_read>
     3b0:	4427      	add	r7, r4
     3b2:	1b2d      	subs	r5, r5, r4
     3b4:	ab0e      	add	r3, sp, #56	; 0x38
     3b6:	aa0b      	add	r2, sp, #44	; 0x2c
     3b8:	4621      	mov	r1, r4
     3ba:	a802      	add	r0, sp, #8
     3bc:	f000 fc62 	bl	c84 <nrf_log_hexdump_entry_process>
     3c0:	2d00      	cmp	r5, #0
     3c2:	d1eb      	bne.n	39c <nrf_log_backend_serial_put+0xb0>
     3c4:	e7bd      	b.n	342 <nrf_log_backend_serial_put+0x56>
	...

000003c8 <uart_evt_handler>:
     3c8:	4b01      	ldr	r3, [pc, #4]	; (3d0 <uart_evt_handler+0x8>)
     3ca:	2201      	movs	r2, #1
     3cc:	701a      	strb	r2, [r3, #0]
     3ce:	4770      	bx	lr
     3d0:	2000008c 	.word	0x2000008c

000003d4 <nrf_log_backend_uart_flush>:
     3d4:	4770      	bx	lr
	...

000003d8 <uart_init>:
     3d8:	b510      	push	{r4, lr}
     3da:	b088      	sub	sp, #32
     3dc:	4686      	mov	lr, r0
     3de:	46ec      	mov	ip, sp
     3e0:	4c0d      	ldr	r4, [pc, #52]	; (418 <uart_init+0x40>)
     3e2:	cc0f      	ldmia	r4!, {r0, r1, r2, r3}
     3e4:	e8ac 000f 	stmia.w	ip!, {r0, r1, r2, r3}
     3e8:	e894 000f 	ldmia.w	r4, {r0, r1, r2, r3}
     3ec:	e88c 000f 	stmia.w	ip, {r0, r1, r2, r3}
     3f0:	2306      	movs	r3, #6
     3f2:	9300      	str	r3, [sp, #0]
     3f4:	f1be 0400 	subs.w	r4, lr, #0
     3f8:	4a08      	ldr	r2, [pc, #32]	; (41c <uart_init+0x44>)
     3fa:	bf08      	it	eq
     3fc:	2200      	moveq	r2, #0
     3fe:	4669      	mov	r1, sp
     400:	4807      	ldr	r0, [pc, #28]	; (420 <uart_init+0x48>)
     402:	f001 f97d 	bl	1700 <nrf_drv_uart_init>
     406:	b918      	cbnz	r0, 410 <uart_init+0x38>
     408:	4b06      	ldr	r3, [pc, #24]	; (424 <uart_init+0x4c>)
     40a:	701c      	strb	r4, [r3, #0]
     40c:	b008      	add	sp, #32
     40e:	bd10      	pop	{r4, pc}
     410:	f000 fc9a 	bl	d48 <app_error_handler_bare>
     414:	e7f8      	b.n	408 <uart_init+0x30>
     416:	bf00      	nop
     418:	0000311c 	.word	0x0000311c
     41c:	000003c9 	.word	0x000003c9
     420:	20000000 	.word	0x20000000
     424:	20000048 	.word	0x20000048

00000428 <nrf_log_backend_uart_panic_set>:
     428:	b508      	push	{r3, lr}
     42a:	4b08      	ldr	r3, [pc, #32]	; (44c <nrf_log_backend_uart_panic_set+0x24>)
     42c:	781b      	ldrb	r3, [r3, #0]
     42e:	4a08      	ldr	r2, [pc, #32]	; (450 <nrf_log_backend_uart_panic_set+0x28>)
     430:	5cd3      	ldrb	r3, [r2, r3]
     432:	b133      	cbz	r3, 442 <nrf_log_backend_uart_panic_set+0x1a>
     434:	4807      	ldr	r0, [pc, #28]	; (454 <nrf_log_backend_uart_panic_set+0x2c>)
     436:	f002 f9b7 	bl	27a8 <nrfx_uarte_uninit>
     43a:	2000      	movs	r0, #0
     43c:	f7ff ffcc 	bl	3d8 <uart_init>
     440:	bd08      	pop	{r3, pc}
     442:	4805      	ldr	r0, [pc, #20]	; (458 <nrf_log_backend_uart_panic_set+0x30>)
     444:	f001 ff38 	bl	22b8 <nrfx_uart_uninit>
     448:	e7f7      	b.n	43a <nrf_log_backend_uart_panic_set+0x12>
     44a:	bf00      	nop
     44c:	20000000 	.word	0x20000000
     450:	20000634 	.word	0x20000634
     454:	20000004 	.word	0x20000004
     458:	2000000c 	.word	0x2000000c

0000045c <nrf_log_backend_uart_put>:
     45c:	b500      	push	{lr}
     45e:	b083      	sub	sp, #12
     460:	4b04      	ldr	r3, [pc, #16]	; (474 <nrf_log_backend_uart_put+0x18>)
     462:	9300      	str	r3, [sp, #0]
     464:	2340      	movs	r3, #64	; 0x40
     466:	4a04      	ldr	r2, [pc, #16]	; (478 <nrf_log_backend_uart_put+0x1c>)
     468:	f7ff ff40 	bl	2ec <nrf_log_backend_serial_put>
     46c:	b003      	add	sp, #12
     46e:	f85d fb04 	ldr.w	pc, [sp], #4
     472:	bf00      	nop
     474:	0000047d 	.word	0x0000047d
     478:	2000004c 	.word	0x2000004c

0000047c <serial_tx>:
     47c:	b508      	push	{r3, lr}
     47e:	4b0e      	ldr	r3, [pc, #56]	; (4b8 <serial_tx+0x3c>)
     480:	2000      	movs	r0, #0
     482:	7018      	strb	r0, [r3, #0]
     484:	4b0d      	ldr	r3, [pc, #52]	; (4bc <serial_tx+0x40>)
     486:	781b      	ldrb	r3, [r3, #0]
     488:	480d      	ldr	r0, [pc, #52]	; (4c0 <serial_tx+0x44>)
     48a:	5cc3      	ldrb	r3, [r0, r3]
     48c:	b163      	cbz	r3, 4a8 <serial_tx+0x2c>
     48e:	b2d2      	uxtb	r2, r2
     490:	480c      	ldr	r0, [pc, #48]	; (4c4 <serial_tx+0x48>)
     492:	f002 fa39 	bl	2908 <nrfx_uarte_tx>
     496:	b960      	cbnz	r0, 4b2 <serial_tx+0x36>
     498:	4b0b      	ldr	r3, [pc, #44]	; (4c8 <serial_tx+0x4c>)
     49a:	781a      	ldrb	r2, [r3, #0]
     49c:	4906      	ldr	r1, [pc, #24]	; (4b8 <serial_tx+0x3c>)
     49e:	b112      	cbz	r2, 4a6 <serial_tx+0x2a>
     4a0:	780b      	ldrb	r3, [r1, #0]
     4a2:	2b00      	cmp	r3, #0
     4a4:	d0fb      	beq.n	49e <serial_tx+0x22>
     4a6:	bd08      	pop	{r3, pc}
     4a8:	b2d2      	uxtb	r2, r2
     4aa:	4808      	ldr	r0, [pc, #32]	; (4cc <serial_tx+0x50>)
     4ac:	f001 ff82 	bl	23b4 <nrfx_uart_tx>
     4b0:	e7f1      	b.n	496 <serial_tx+0x1a>
     4b2:	f000 fc49 	bl	d48 <app_error_handler_bare>
     4b6:	e7ef      	b.n	498 <serial_tx+0x1c>
     4b8:	2000008c 	.word	0x2000008c
     4bc:	20000000 	.word	0x20000000
     4c0:	20000634 	.word	0x20000634
     4c4:	20000004 	.word	0x20000004
     4c8:	20000048 	.word	0x20000048
     4cc:	2000000c 	.word	0x2000000c

000004d0 <nrf_log_backend_uart_init>:
     4d0:	b508      	push	{r3, lr}
     4d2:	2001      	movs	r0, #1
     4d4:	f7ff ff80 	bl	3d8 <uart_init>
     4d8:	bd08      	pop	{r3, pc}
	...

000004dc <nrf_log_default_backends_init>:
     4dc:	b508      	push	{r3, lr}
     4de:	f7ff fff7 	bl	4d0 <nrf_log_backend_uart_init>
     4e2:	2104      	movs	r1, #4
     4e4:	4803      	ldr	r0, [pc, #12]	; (4f4 <nrf_log_default_backends_init+0x18>)
     4e6:	f000 fac1 	bl	a6c <nrf_log_backend_add>
     4ea:	4b03      	ldr	r3, [pc, #12]	; (4f8 <nrf_log_default_backends_init+0x1c>)
     4ec:	2201      	movs	r2, #1
     4ee:	715a      	strb	r2, [r3, #5]
     4f0:	bd08      	pop	{r3, pc}
     4f2:	bf00      	nop
     4f4:	00003448 	.word	0x00003448
     4f8:	20000014 	.word	0x20000014

000004fc <invalid_packets_omit>:
     4fc:	7803      	ldrb	r3, [r0, #0]
     4fe:	f013 0f04 	tst.w	r3, #4
     502:	d018      	beq.n	536 <invalid_packets_omit+0x3a>
     504:	f003 0303 	and.w	r3, r3, #3
     508:	2b01      	cmp	r3, #1
     50a:	d003      	beq.n	514 <invalid_packets_omit+0x18>
     50c:	2b02      	cmp	r3, #2
     50e:	d00a      	beq.n	526 <invalid_packets_omit+0x2a>
     510:	2001      	movs	r0, #1
     512:	4770      	bx	lr
     514:	680b      	ldr	r3, [r1, #0]
     516:	3302      	adds	r3, #2
     518:	8802      	ldrh	r2, [r0, #0]
     51a:	f3c2 1283 	ubfx	r2, r2, #6, #4
     51e:	4413      	add	r3, r2
     520:	600b      	str	r3, [r1, #0]
     522:	2001      	movs	r0, #1
     524:	4770      	bx	lr
     526:	680b      	ldr	r3, [r1, #0]
     528:	3302      	adds	r3, #2
     52a:	8842      	ldrh	r2, [r0, #2]
     52c:	eb03 1392 	add.w	r3, r3, r2, lsr #6
     530:	600b      	str	r3, [r1, #0]
     532:	2001      	movs	r0, #1
     534:	4770      	bx	lr
     536:	2000      	movs	r0, #0
     538:	4770      	bx	lr
	...

0000053c <log_skip>:
     53c:	b510      	push	{r4, lr}
     53e:	b084      	sub	sp, #16
     540:	4c26      	ldr	r4, [pc, #152]	; (5dc <log_skip+0xa0>)
     542:	f504 6083 	add.w	r0, r4, #1048	; 0x418
     546:	f000 fc95 	bl	e74 <nrf_atomic_flag_set>
     54a:	f204 4014 	addw	r0, r4, #1044	; 0x414
     54e:	f000 fc91 	bl	e74 <nrf_atomic_flag_set>
     552:	68a3      	ldr	r3, [r4, #8]
     554:	9303      	str	r3, [sp, #12]
     556:	b2db      	uxtb	r3, r3
     558:	3303      	adds	r3, #3
     55a:	eb04 0083 	add.w	r0, r4, r3, lsl #2
     55e:	e004      	b.n	56a <log_skip+0x2e>
     560:	f89d 000c 	ldrb.w	r0, [sp, #12]
     564:	3003      	adds	r0, #3
     566:	eb04 0080 	add.w	r0, r4, r0, lsl #2
     56a:	a903      	add	r1, sp, #12
     56c:	f7ff ffc6 	bl	4fc <invalid_packets_omit>
     570:	2800      	cmp	r0, #0
     572:	d1f5      	bne.n	560 <log_skip+0x24>
     574:	9b03      	ldr	r3, [sp, #12]
     576:	4919      	ldr	r1, [pc, #100]	; (5dc <log_skip+0xa0>)
     578:	b2da      	uxtb	r2, r3
     57a:	eb01 0282 	add.w	r2, r1, r2, lsl #2
     57e:	68d2      	ldr	r2, [r2, #12]
     580:	9200      	str	r2, [sp, #0]
     582:	1c98      	adds	r0, r3, #2
     584:	3301      	adds	r3, #1
     586:	b2db      	uxtb	r3, r3
     588:	eb01 0183 	add.w	r1, r1, r3, lsl #2
     58c:	68cb      	ldr	r3, [r1, #12]
     58e:	9301      	str	r3, [sp, #4]
     590:	9003      	str	r0, [sp, #12]
     592:	f002 0303 	and.w	r3, r2, #3
     596:	2b01      	cmp	r3, #1
     598:	d00c      	beq.n	5b4 <log_skip+0x78>
     59a:	2b02      	cmp	r3, #2
     59c:	d113      	bne.n	5c6 <log_skip+0x8a>
     59e:	f8bd 4006 	ldrh.w	r4, [sp, #6]
     5a2:	f8bd 3002 	ldrh.w	r3, [sp, #2]
     5a6:	f3c3 1389 	ubfx	r3, r3, #6, #10
     5aa:	3303      	adds	r3, #3
     5ac:	eb00 0393 	add.w	r3, r0, r3, lsr #2
     5b0:	9303      	str	r3, [sp, #12]
     5b2:	e009      	b.n	5c8 <log_skip+0x8c>
     5b4:	f8bd 4006 	ldrh.w	r4, [sp, #6]
     5b8:	f8bd 3000 	ldrh.w	r3, [sp]
     5bc:	f3c3 1383 	ubfx	r3, r3, #6, #4
     5c0:	4403      	add	r3, r0
     5c2:	9303      	str	r3, [sp, #12]
     5c4:	e000      	b.n	5c8 <log_skip+0x8c>
     5c6:	2400      	movs	r4, #0
     5c8:	4805      	ldr	r0, [pc, #20]	; (5e0 <log_skip+0xa4>)
     5ca:	f000 fc58 	bl	e7e <nrf_atomic_flag_clear_fetch>
     5ce:	b110      	cbz	r0, 5d6 <log_skip+0x9a>
     5d0:	4b02      	ldr	r3, [pc, #8]	; (5dc <log_skip+0xa0>)
     5d2:	9a03      	ldr	r2, [sp, #12]
     5d4:	609a      	str	r2, [r3, #8]
     5d6:	4620      	mov	r0, r4
     5d8:	b004      	add	sp, #16
     5da:	bd10      	pop	{r4, pc}
     5dc:	20000160 	.word	0x20000160
     5e0:	20000574 	.word	0x20000574

000005e4 <nrf_log_init>:
     5e4:	b510      	push	{r4, lr}
     5e6:	4b07      	ldr	r3, [pc, #28]	; (604 <nrf_log_init+0x20>)
     5e8:	2200      	movs	r2, #0
     5ea:	701a      	strb	r2, [r3, #0]
     5ec:	4806      	ldr	r0, [pc, #24]	; (608 <nrf_log_init+0x24>)
     5ee:	f000 ff1d 	bl	142c <nrf_memobj_pool_init>
     5f2:	4604      	mov	r4, r0
     5f4:	b108      	cbz	r0, 5fa <nrf_log_init+0x16>
     5f6:	4620      	mov	r0, r4
     5f8:	bd10      	pop	{r4, pc}
     5fa:	4804      	ldr	r0, [pc, #16]	; (60c <nrf_log_init+0x28>)
     5fc:	f000 ff93 	bl	1526 <nrf_ringbuf_init>
     600:	e7f9      	b.n	5f6 <nrf_log_init+0x12>
     602:	bf00      	nop
     604:	20000160 	.word	0x20000160
     608:	00003458 	.word	0x00003458
     60c:	00003174 	.word	0x00003174

00000610 <nrf_log_module_name_get>:
     610:	b1a1      	cbz	r1, 63c <nrf_log_module_name_get+0x2c>
     612:	4b0c      	ldr	r3, [pc, #48]	; (644 <nrf_log_module_name_get+0x34>)
     614:	4a0c      	ldr	r2, [pc, #48]	; (648 <nrf_log_module_name_get+0x38>)
     616:	1a9b      	subs	r3, r3, r2
     618:	ea4f 0cd3 	mov.w	ip, r3, lsr #3
     61c:	2b07      	cmp	r3, #7
     61e:	d90a      	bls.n	636 <nrf_log_module_name_get+0x26>
     620:	2300      	movs	r3, #0
     622:	490a      	ldr	r1, [pc, #40]	; (64c <nrf_log_module_name_get+0x3c>)
     624:	f831 2023 	ldrh.w	r2, [r1, r3, lsl #2]
     628:	4282      	cmp	r2, r0
     62a:	d006      	beq.n	63a <nrf_log_module_name_get+0x2a>
     62c:	3301      	adds	r3, #1
     62e:	4563      	cmp	r3, ip
     630:	d3f8      	bcc.n	624 <nrf_log_module_name_get+0x14>
     632:	2000      	movs	r0, #0
     634:	4770      	bx	lr
     636:	2000      	movs	r0, #0
     638:	4770      	bx	lr
     63a:	4618      	mov	r0, r3
     63c:	4b02      	ldr	r3, [pc, #8]	; (648 <nrf_log_module_name_get+0x38>)
     63e:	f853 0030 	ldr.w	r0, [r3, r0, lsl #3]
     642:	4770      	bx	lr
     644:	00003448 	.word	0x00003448
     648:	00003420 	.word	0x00003420
     64c:	2000002c 	.word	0x2000002c

00000650 <nrf_log_color_id_get>:
     650:	4b09      	ldr	r3, [pc, #36]	; (678 <nrf_log_color_id_get+0x28>)
     652:	eb03 03c0 	add.w	r3, r3, r0, lsl #3
     656:	3901      	subs	r1, #1
     658:	2903      	cmp	r1, #3
     65a:	d809      	bhi.n	670 <nrf_log_color_id_get+0x20>
     65c:	e8df f001 	tbb	[pc, r1]
     660:	0604020a 	.word	0x0604020a
     664:	2004      	movs	r0, #4
     666:	4770      	bx	lr
     668:	7918      	ldrb	r0, [r3, #4]
     66a:	4770      	bx	lr
     66c:	7958      	ldrb	r0, [r3, #5]
     66e:	4770      	bx	lr
     670:	2000      	movs	r0, #0
     672:	4770      	bx	lr
     674:	2002      	movs	r0, #2
     676:	4770      	bx	lr
     678:	00003420 	.word	0x00003420

0000067c <buffer_is_empty>:
     67c:	4b03      	ldr	r3, [pc, #12]	; (68c <buffer_is_empty+0x10>)
     67e:	6898      	ldr	r0, [r3, #8]
     680:	685b      	ldr	r3, [r3, #4]
     682:	4298      	cmp	r0, r3
     684:	bf14      	ite	ne
     686:	2000      	movne	r0, #0
     688:	2001      	moveq	r0, #1
     68a:	4770      	bx	lr
     68c:	20000160 	.word	0x20000160

00000690 <nrf_log_frontend_dequeue>:
     690:	e92d 43f0 	stmdb	sp!, {r4, r5, r6, r7, r8, r9, lr}
     694:	b085      	sub	sp, #20
     696:	f7ff fff1 	bl	67c <buffer_is_empty>
     69a:	2800      	cmp	r0, #0
     69c:	f040 810a 	bne.w	8b4 <nrf_log_frontend_dequeue+0x224>
     6a0:	4605      	mov	r5, r0
     6a2:	4885      	ldr	r0, [pc, #532]	; (8b8 <nrf_log_frontend_dequeue+0x228>)
     6a4:	2300      	movs	r3, #0
     6a6:	f8c0 3418 	str.w	r3, [r0, #1048]	; 0x418
     6aa:	f3bf 8f4f 	dsb	sy
     6ae:	6883      	ldr	r3, [r0, #8]
     6b0:	9303      	str	r3, [sp, #12]
     6b2:	b2db      	uxtb	r3, r3
     6b4:	3303      	adds	r3, #3
     6b6:	eb00 0083 	add.w	r0, r0, r3, lsl #2
     6ba:	4c7f      	ldr	r4, [pc, #508]	; (8b8 <nrf_log_frontend_dequeue+0x228>)
     6bc:	e038      	b.n	730 <nrf_log_frontend_dequeue+0xa0>
     6be:	9b03      	ldr	r3, [sp, #12]
     6c0:	497d      	ldr	r1, [pc, #500]	; (8b8 <nrf_log_frontend_dequeue+0x228>)
     6c2:	b2da      	uxtb	r2, r3
     6c4:	eb01 0282 	add.w	r2, r1, r2, lsl #2
     6c8:	68d2      	ldr	r2, [r2, #12]
     6ca:	9200      	str	r2, [sp, #0]
     6cc:	1c9c      	adds	r4, r3, #2
     6ce:	3301      	adds	r3, #1
     6d0:	b2db      	uxtb	r3, r3
     6d2:	eb01 0183 	add.w	r1, r1, r3, lsl #2
     6d6:	68cb      	ldr	r3, [r1, #12]
     6d8:	9301      	str	r3, [sp, #4]
     6da:	9403      	str	r4, [sp, #12]
     6dc:	f002 0203 	and.w	r2, r2, #3
     6e0:	2a02      	cmp	r2, #2
     6e2:	d035      	beq.n	750 <nrf_log_frontend_dequeue+0xc0>
     6e4:	2a01      	cmp	r2, #1
     6e6:	f000 8096 	beq.w	816 <nrf_log_frontend_dequeue+0x186>
     6ea:	4b73      	ldr	r3, [pc, #460]	; (8b8 <nrf_log_frontend_dequeue+0x228>)
     6ec:	f8d3 4410 	ldr.w	r4, [r3, #1040]	; 0x410
     6f0:	b13c      	cbz	r4, 702 <nrf_log_frontend_dequeue+0x72>
     6f2:	6823      	ldr	r3, [r4, #0]
     6f4:	689b      	ldr	r3, [r3, #8]
     6f6:	4620      	mov	r0, r4
     6f8:	4798      	blx	r3
     6fa:	68e3      	ldr	r3, [r4, #12]
     6fc:	681c      	ldr	r4, [r3, #0]
     6fe:	2c00      	cmp	r4, #0
     700:	d1f7      	bne.n	6f2 <nrf_log_frontend_dequeue+0x62>
     702:	486e      	ldr	r0, [pc, #440]	; (8bc <nrf_log_frontend_dequeue+0x22c>)
     704:	4b6e      	ldr	r3, [pc, #440]	; (8c0 <nrf_log_frontend_dequeue+0x230>)
     706:	1ac0      	subs	r0, r0, r3
     708:	08c0      	lsrs	r0, r0, #3
     70a:	0400      	lsls	r0, r0, #16
     70c:	496d      	ldr	r1, [pc, #436]	; (8c4 <nrf_log_frontend_dequeue+0x234>)
     70e:	f040 0002 	orr.w	r0, r0, #2
     712:	f000 f8db 	bl	8cc <nrf_log_frontend_std_0>
     716:	f7ff ffb1 	bl	67c <buffer_is_empty>
     71a:	f080 0501 	eor.w	r5, r0, #1
     71e:	b2ed      	uxtb	r5, r5
     720:	4628      	mov	r0, r5
     722:	b005      	add	sp, #20
     724:	e8bd 83f0 	ldmia.w	sp!, {r4, r5, r6, r7, r8, r9, pc}
     728:	b2c0      	uxtb	r0, r0
     72a:	3003      	adds	r0, #3
     72c:	eb04 0080 	add.w	r0, r4, r0, lsl #2
     730:	a903      	add	r1, sp, #12
     732:	f7ff fee3 	bl	4fc <invalid_packets_omit>
     736:	2800      	cmp	r0, #0
     738:	d0c1      	beq.n	6be <nrf_log_frontend_dequeue+0x2e>
     73a:	f8d4 3418 	ldr.w	r3, [r4, #1048]	; 0x418
     73e:	2b00      	cmp	r3, #0
     740:	d1bd      	bne.n	6be <nrf_log_frontend_dequeue+0x2e>
     742:	6863      	ldr	r3, [r4, #4]
     744:	9803      	ldr	r0, [sp, #12]
     746:	4283      	cmp	r3, r0
     748:	d8ee      	bhi.n	728 <nrf_log_frontend_dequeue+0x98>
     74a:	4a5b      	ldr	r2, [pc, #364]	; (8b8 <nrf_log_frontend_dequeue+0x228>)
     74c:	6093      	str	r3, [r2, #8]
     74e:	e7e7      	b.n	720 <nrf_log_frontend_dequeue+0x90>
     750:	f8bd 3002 	ldrh.w	r3, [sp, #2]
     754:	f3c3 1789 	ubfx	r7, r3, #6, #10
     758:	463e      	mov	r6, r7
     75a:	2f50      	cmp	r7, #80	; 0x50
     75c:	bf28      	it	cs
     75e:	2650      	movcs	r6, #80	; 0x50
     760:	f366 138f 	bfi	r3, r6, #6, #10
     764:	f8ad 3002 	strh.w	r3, [sp, #2]
     768:	f106 0108 	add.w	r1, r6, #8
     76c:	4856      	ldr	r0, [pc, #344]	; (8c8 <nrf_log_frontend_dequeue+0x238>)
     76e:	f000 fe7d 	bl	146c <nrf_memobj_alloc>
     772:	4605      	mov	r5, r0
     774:	2800      	cmp	r0, #0
     776:	d0b8      	beq.n	6ea <nrf_log_frontend_dequeue+0x5a>
     778:	f000 feab 	bl	14d2 <nrf_memobj_get>
     77c:	2300      	movs	r3, #0
     77e:	2208      	movs	r2, #8
     780:	4669      	mov	r1, sp
     782:	4628      	mov	r0, r5
     784:	f000 feb9 	bl	14fa <nrf_memobj_write>
     788:	43e3      	mvns	r3, r4
     78a:	b2db      	uxtb	r3, r3
     78c:	3301      	adds	r3, #1
     78e:	009a      	lsls	r2, r3, #2
     790:	ebb6 0f83 	cmp.w	r6, r3, lsl #2
     794:	d934      	bls.n	800 <nrf_log_frontend_dequeue+0x170>
     796:	1ab6      	subs	r6, r6, r2
     798:	fa5f f886 	uxtb.w	r8, r6
     79c:	b2d6      	uxtb	r6, r2
     79e:	f8df 9118 	ldr.w	r9, [pc, #280]	; 8b8 <nrf_log_frontend_dequeue+0x228>
     7a2:	b2e1      	uxtb	r1, r4
     7a4:	3103      	adds	r1, #3
     7a6:	2308      	movs	r3, #8
     7a8:	4632      	mov	r2, r6
     7aa:	eb09 0181 	add.w	r1, r9, r1, lsl #2
     7ae:	4628      	mov	r0, r5
     7b0:	f000 fea3 	bl	14fa <nrf_memobj_write>
     7b4:	f106 0308 	add.w	r3, r6, #8
     7b8:	4642      	mov	r2, r8
     7ba:	f109 010c 	add.w	r1, r9, #12
     7be:	4628      	mov	r0, r5
     7c0:	f000 fe9b 	bl	14fa <nrf_memobj_write>
     7c4:	3703      	adds	r7, #3
     7c6:	eb04 0497 	add.w	r4, r4, r7, lsr #2
     7ca:	9403      	str	r4, [sp, #12]
     7cc:	4b3a      	ldr	r3, [pc, #232]	; (8b8 <nrf_log_frontend_dequeue+0x228>)
     7ce:	f8d3 4410 	ldr.w	r4, [r3, #1040]	; 0x410
     7d2:	f8d3 3418 	ldr.w	r3, [r3, #1048]	; 0x418
     7d6:	2b00      	cmp	r3, #0
     7d8:	d15a      	bne.n	890 <nrf_log_frontend_dequeue+0x200>
     7da:	2c00      	cmp	r4, #0
     7dc:	d160      	bne.n	8a0 <nrf_log_frontend_dequeue+0x210>
     7de:	4628      	mov	r0, r5
     7e0:	f000 fe7d 	bl	14de <nrf_memobj_put>
     7e4:	2000      	movs	r0, #0
     7e6:	f000 fb07 	bl	df8 <app_util_critical_region_enter>
     7ea:	4b33      	ldr	r3, [pc, #204]	; (8b8 <nrf_log_frontend_dequeue+0x228>)
     7ec:	f8d3 3418 	ldr.w	r3, [r3, #1048]	; 0x418
     7f0:	b913      	cbnz	r3, 7f8 <nrf_log_frontend_dequeue+0x168>
     7f2:	4b31      	ldr	r3, [pc, #196]	; (8b8 <nrf_log_frontend_dequeue+0x228>)
     7f4:	9a03      	ldr	r2, [sp, #12]
     7f6:	609a      	str	r2, [r3, #8]
     7f8:	2000      	movs	r0, #0
     7fa:	f000 fb01 	bl	e00 <app_util_critical_region_exit>
     7fe:	e78a      	b.n	716 <nrf_log_frontend_dequeue+0x86>
     800:	b2e1      	uxtb	r1, r4
     802:	3103      	adds	r1, #3
     804:	2308      	movs	r3, #8
     806:	4632      	mov	r2, r6
     808:	482b      	ldr	r0, [pc, #172]	; (8b8 <nrf_log_frontend_dequeue+0x228>)
     80a:	eb00 0181 	add.w	r1, r0, r1, lsl #2
     80e:	4628      	mov	r0, r5
     810:	f000 fe73 	bl	14fa <nrf_memobj_write>
     814:	e7d6      	b.n	7c4 <nrf_log_frontend_dequeue+0x134>
     816:	f8bd 2000 	ldrh.w	r2, [sp]
     81a:	f3c2 1383 	ubfx	r3, r2, #6, #4
     81e:	2b06      	cmp	r3, #6
     820:	bf28      	it	cs
     822:	2306      	movcs	r3, #6
     824:	f363 1289 	bfi	r2, r3, #6, #4
     828:	f8ad 2000 	strh.w	r2, [sp]
     82c:	3302      	adds	r3, #2
     82e:	f003 010f 	and.w	r1, r3, #15
     832:	0089      	lsls	r1, r1, #2
     834:	4824      	ldr	r0, [pc, #144]	; (8c8 <nrf_log_frontend_dequeue+0x238>)
     836:	f000 fe19 	bl	146c <nrf_memobj_alloc>
     83a:	4605      	mov	r5, r0
     83c:	2800      	cmp	r0, #0
     83e:	f43f af54 	beq.w	6ea <nrf_log_frontend_dequeue+0x5a>
     842:	f000 fe46 	bl	14d2 <nrf_memobj_get>
     846:	2300      	movs	r3, #0
     848:	2208      	movs	r2, #8
     84a:	4669      	mov	r1, sp
     84c:	4628      	mov	r0, r5
     84e:	f000 fe54 	bl	14fa <nrf_memobj_write>
     852:	f8bd 3000 	ldrh.w	r3, [sp]
     856:	f413 7f70 	tst.w	r3, #960	; 0x3c0
     85a:	d0b7      	beq.n	7cc <nrf_log_frontend_dequeue+0x13c>
     85c:	2600      	movs	r6, #0
     85e:	2408      	movs	r4, #8
     860:	f8df 8054 	ldr.w	r8, [pc, #84]	; 8b8 <nrf_log_frontend_dequeue+0x228>
     864:	2704      	movs	r7, #4
     866:	9b03      	ldr	r3, [sp, #12]
     868:	1c5a      	adds	r2, r3, #1
     86a:	9203      	str	r2, [sp, #12]
     86c:	b2db      	uxtb	r3, r3
     86e:	1cd9      	adds	r1, r3, #3
     870:	4623      	mov	r3, r4
     872:	463a      	mov	r2, r7
     874:	eb08 0181 	add.w	r1, r8, r1, lsl #2
     878:	4628      	mov	r0, r5
     87a:	f000 fe3e 	bl	14fa <nrf_memobj_write>
     87e:	3404      	adds	r4, #4
     880:	3601      	adds	r6, #1
     882:	f8bd 3000 	ldrh.w	r3, [sp]
     886:	f3c3 1383 	ubfx	r3, r3, #6, #4
     88a:	42b3      	cmp	r3, r6
     88c:	d8eb      	bhi.n	866 <nrf_log_frontend_dequeue+0x1d6>
     88e:	e79d      	b.n	7cc <nrf_log_frontend_dequeue+0x13c>
     890:	4628      	mov	r0, r5
     892:	f000 fe24 	bl	14de <nrf_memobj_put>
     896:	e73e      	b.n	716 <nrf_log_frontend_dequeue+0x86>
     898:	68e3      	ldr	r3, [r4, #12]
     89a:	681c      	ldr	r4, [r3, #0]
     89c:	2c00      	cmp	r4, #0
     89e:	d09e      	beq.n	7de <nrf_log_frontend_dequeue+0x14e>
     8a0:	68e3      	ldr	r3, [r4, #12]
     8a2:	795b      	ldrb	r3, [r3, #5]
     8a4:	2b00      	cmp	r3, #0
     8a6:	d0f7      	beq.n	898 <nrf_log_frontend_dequeue+0x208>
     8a8:	6823      	ldr	r3, [r4, #0]
     8aa:	681b      	ldr	r3, [r3, #0]
     8ac:	4629      	mov	r1, r5
     8ae:	4620      	mov	r0, r4
     8b0:	4798      	blx	r3
     8b2:	e7f1      	b.n	898 <nrf_log_frontend_dequeue+0x208>
     8b4:	2500      	movs	r5, #0
     8b6:	e733      	b.n	720 <nrf_log_frontend_dequeue+0x90>
     8b8:	20000160 	.word	0x20000160
     8bc:	00003440 	.word	0x00003440
     8c0:	00003420 	.word	0x00003420
     8c4:	0000315c 	.word	0x0000315c
     8c8:	00003458 	.word	0x00003458

000008cc <nrf_log_frontend_std_0>:
     8cc:	e92d 43f8 	stmdb	sp!, {r3, r4, r5, r6, r7, r8, r9, lr}
     8d0:	4680      	mov	r8, r0
     8d2:	4689      	mov	r9, r1
     8d4:	2000      	movs	r0, #0
     8d6:	f000 fa8f 	bl	df8 <app_util_critical_region_enter>
     8da:	4b2d      	ldr	r3, [pc, #180]	; (990 <nrf_log_frontend_std_0+0xc4>)
     8dc:	685e      	ldr	r6, [r3, #4]
     8de:	689b      	ldr	r3, [r3, #8]
     8e0:	f503 7380 	add.w	r3, r3, #256	; 0x100
     8e4:	1b9b      	subs	r3, r3, r6
     8e6:	2b01      	cmp	r3, #1
     8e8:	d814      	bhi.n	914 <nrf_log_frontend_std_0+0x48>
     8ea:	4c29      	ldr	r4, [pc, #164]	; (990 <nrf_log_frontend_std_0+0xc4>)
     8ec:	f204 451c 	addw	r5, r4, #1052	; 0x41c
     8f0:	2701      	movs	r7, #1
     8f2:	4639      	mov	r1, r7
     8f4:	4628      	mov	r0, r5
     8f6:	f000 faa7 	bl	e48 <nrf_atomic_u32_add>
     8fa:	f7ff fe1f 	bl	53c <log_skip>
     8fe:	4601      	mov	r1, r0
     900:	4628      	mov	r0, r5
     902:	f000 faa1 	bl	e48 <nrf_atomic_u32_add>
     906:	68a3      	ldr	r3, [r4, #8]
     908:	f503 7380 	add.w	r3, r3, #256	; 0x100
     90c:	6862      	ldr	r2, [r4, #4]
     90e:	1a9b      	subs	r3, r3, r2
     910:	2b01      	cmp	r3, #1
     912:	d9ee      	bls.n	8f2 <nrf_log_frontend_std_0+0x26>
     914:	4c1e      	ldr	r4, [pc, #120]	; (990 <nrf_log_frontend_std_0+0xc4>)
     916:	6863      	ldr	r3, [r4, #4]
     918:	b2da      	uxtb	r2, r3
     91a:	3203      	adds	r2, #3
     91c:	2105      	movs	r1, #5
     91e:	f844 1022 	str.w	r1, [r4, r2, lsl #2]
     922:	3302      	adds	r3, #2
     924:	6063      	str	r3, [r4, #4]
     926:	2000      	movs	r0, #0
     928:	f000 fa6a 	bl	e00 <app_util_critical_region_exit>
     92c:	2100      	movs	r1, #0
     92e:	f204 401c 	addw	r0, r4, #1052	; 0x41c
     932:	f000 fa69 	bl	e08 <nrf_atomic_u32_fetch_store>
     936:	f380 0310 	usat	r3, #16, r0
     93a:	1c72      	adds	r2, r6, #1
     93c:	b2d2      	uxtb	r2, r2
     93e:	eb04 0282 	add.w	r2, r4, r2, lsl #2
     942:	041b      	lsls	r3, r3, #16
     944:	ea43 4318 	orr.w	r3, r3, r8, lsr #16
     948:	60d3      	str	r3, [r2, #12]
     94a:	b2f6      	uxtb	r6, r6
     94c:	3603      	adds	r6, #3
     94e:	f814 3026 	ldrb.w	r3, [r4, r6, lsl #2]
     952:	f368 03c5 	bfi	r3, r8, #3, #3
     956:	f804 3026 	strb.w	r3, [r4, r6, lsl #2]
     95a:	f834 3026 	ldrh.w	r3, [r4, r6, lsl #2]
     95e:	f36f 1389 	bfc	r3, #6, #4
     962:	f824 3026 	strh.w	r3, [r4, r6, lsl #2]
     966:	f854 3026 	ldr.w	r3, [r4, r6, lsl #2]
     96a:	f369 239f 	bfi	r3, r9, #10, #22
     96e:	f844 3026 	str.w	r3, [r4, r6, lsl #2]
     972:	2201      	movs	r2, #1
     974:	f362 0301 	bfi	r3, r2, #0, #2
     978:	f36f 0382 	bfc	r3, #2, #1
     97c:	f804 3026 	strb.w	r3, [r4, r6, lsl #2]
     980:	7823      	ldrb	r3, [r4, #0]
     982:	b11b      	cbz	r3, 98c <nrf_log_frontend_std_0+0xc0>
     984:	f7ff fe84 	bl	690 <nrf_log_frontend_dequeue>
     988:	2800      	cmp	r0, #0
     98a:	d1fb      	bne.n	984 <nrf_log_frontend_std_0+0xb8>
     98c:	e8bd 83f8 	ldmia.w	sp!, {r3, r4, r5, r6, r7, r8, r9, pc}
     990:	20000160 	.word	0x20000160

00000994 <nrf_log_frontend_std_1>:
     994:	e92d 47f0 	stmdb	sp!, {r4, r5, r6, r7, r8, r9, sl, lr}
     998:	4680      	mov	r8, r0
     99a:	4689      	mov	r9, r1
     99c:	4692      	mov	sl, r2
     99e:	2000      	movs	r0, #0
     9a0:	f000 fa2a 	bl	df8 <app_util_critical_region_enter>
     9a4:	4b30      	ldr	r3, [pc, #192]	; (a68 <nrf_log_frontend_std_1+0xd4>)
     9a6:	685e      	ldr	r6, [r3, #4]
     9a8:	689b      	ldr	r3, [r3, #8]
     9aa:	f503 7380 	add.w	r3, r3, #256	; 0x100
     9ae:	1b9b      	subs	r3, r3, r6
     9b0:	2b02      	cmp	r3, #2
     9b2:	d814      	bhi.n	9de <nrf_log_frontend_std_1+0x4a>
     9b4:	4c2c      	ldr	r4, [pc, #176]	; (a68 <nrf_log_frontend_std_1+0xd4>)
     9b6:	f204 451c 	addw	r5, r4, #1052	; 0x41c
     9ba:	2701      	movs	r7, #1
     9bc:	4639      	mov	r1, r7
     9be:	4628      	mov	r0, r5
     9c0:	f000 fa42 	bl	e48 <nrf_atomic_u32_add>
     9c4:	f7ff fdba 	bl	53c <log_skip>
     9c8:	4601      	mov	r1, r0
     9ca:	4628      	mov	r0, r5
     9cc:	f000 fa3c 	bl	e48 <nrf_atomic_u32_add>
     9d0:	68a3      	ldr	r3, [r4, #8]
     9d2:	f503 7380 	add.w	r3, r3, #256	; 0x100
     9d6:	6862      	ldr	r2, [r4, #4]
     9d8:	1a9b      	subs	r3, r3, r2
     9da:	2b02      	cmp	r3, #2
     9dc:	d9ee      	bls.n	9bc <nrf_log_frontend_std_1+0x28>
     9de:	4c22      	ldr	r4, [pc, #136]	; (a68 <nrf_log_frontend_std_1+0xd4>)
     9e0:	6863      	ldr	r3, [r4, #4]
     9e2:	b2da      	uxtb	r2, r3
     9e4:	3203      	adds	r2, #3
     9e6:	2145      	movs	r1, #69	; 0x45
     9e8:	f844 1022 	str.w	r1, [r4, r2, lsl #2]
     9ec:	3303      	adds	r3, #3
     9ee:	6063      	str	r3, [r4, #4]
     9f0:	2000      	movs	r0, #0
     9f2:	f000 fa05 	bl	e00 <app_util_critical_region_exit>
     9f6:	1cb3      	adds	r3, r6, #2
     9f8:	b2db      	uxtb	r3, r3
     9fa:	eb04 0383 	add.w	r3, r4, r3, lsl #2
     9fe:	f8c3 a00c 	str.w	sl, [r3, #12]
     a02:	2100      	movs	r1, #0
     a04:	f204 401c 	addw	r0, r4, #1052	; 0x41c
     a08:	f000 f9fe 	bl	e08 <nrf_atomic_u32_fetch_store>
     a0c:	f380 0310 	usat	r3, #16, r0
     a10:	1c72      	adds	r2, r6, #1
     a12:	b2d2      	uxtb	r2, r2
     a14:	eb04 0282 	add.w	r2, r4, r2, lsl #2
     a18:	041b      	lsls	r3, r3, #16
     a1a:	ea43 4318 	orr.w	r3, r3, r8, lsr #16
     a1e:	60d3      	str	r3, [r2, #12]
     a20:	b2f6      	uxtb	r6, r6
     a22:	3603      	adds	r6, #3
     a24:	f814 3026 	ldrb.w	r3, [r4, r6, lsl #2]
     a28:	f368 03c5 	bfi	r3, r8, #3, #3
     a2c:	f804 3026 	strb.w	r3, [r4, r6, lsl #2]
     a30:	f834 3026 	ldrh.w	r3, [r4, r6, lsl #2]
     a34:	2201      	movs	r2, #1
     a36:	f362 1389 	bfi	r3, r2, #6, #4
     a3a:	f824 3026 	strh.w	r3, [r4, r6, lsl #2]
     a3e:	f854 3026 	ldr.w	r3, [r4, r6, lsl #2]
     a42:	f369 239f 	bfi	r3, r9, #10, #22
     a46:	f844 3026 	str.w	r3, [r4, r6, lsl #2]
     a4a:	f362 0301 	bfi	r3, r2, #0, #2
     a4e:	f36f 0382 	bfc	r3, #2, #1
     a52:	f804 3026 	strb.w	r3, [r4, r6, lsl #2]
     a56:	7823      	ldrb	r3, [r4, #0]
     a58:	b11b      	cbz	r3, a62 <nrf_log_frontend_std_1+0xce>
     a5a:	f7ff fe19 	bl	690 <nrf_log_frontend_dequeue>
     a5e:	2800      	cmp	r0, #0
     a60:	d1fb      	bne.n	a5a <nrf_log_frontend_std_1+0xc6>
     a62:	e8bd 87f0 	ldmia.w	sp!, {r4, r5, r6, r7, r8, r9, sl, pc}
     a66:	bf00      	nop
     a68:	20000160 	.word	0x20000160

00000a6c <nrf_log_backend_add>:
     a6c:	b410      	push	{r4}
     a6e:	4604      	mov	r4, r0
     a70:	4b18      	ldr	r3, [pc, #96]	; (ad4 <nrf_log_backend_add+0x68>)
     a72:	f8d3 1410 	ldr.w	r1, [r3, #1040]	; 0x410
     a76:	2000      	movs	r0, #0
     a78:	e009      	b.n	a8e <nrf_log_backend_add+0x22>
     a7a:	4b16      	ldr	r3, [pc, #88]	; (ad4 <nrf_log_backend_add+0x68>)
     a7c:	f8c3 4410 	str.w	r4, [r3, #1040]	; 0x410
     a80:	68e3      	ldr	r3, [r4, #12]
     a82:	2200      	movs	r2, #0
     a84:	601a      	str	r2, [r3, #0]
     a86:	e021      	b.n	acc <nrf_log_backend_add+0x60>
     a88:	3001      	adds	r0, #1
     a8a:	280a      	cmp	r0, #10
     a8c:	d01c      	beq.n	ac8 <nrf_log_backend_add+0x5c>
     a8e:	b139      	cbz	r1, aa0 <nrf_log_backend_add+0x34>
     a90:	460b      	mov	r3, r1
     a92:	68db      	ldr	r3, [r3, #12]
     a94:	791a      	ldrb	r2, [r3, #4]
     a96:	4282      	cmp	r2, r0
     a98:	d0f6      	beq.n	a88 <nrf_log_backend_add+0x1c>
     a9a:	681b      	ldr	r3, [r3, #0]
     a9c:	2b00      	cmp	r3, #0
     a9e:	d1f8      	bne.n	a92 <nrf_log_backend_add+0x26>
     aa0:	f1b0 3fff 	cmp.w	r0, #4294967295	; 0xffffffff
     aa4:	d012      	beq.n	acc <nrf_log_backend_add+0x60>
     aa6:	68e3      	ldr	r3, [r4, #12]
     aa8:	7118      	strb	r0, [r3, #4]
     aaa:	4b0a      	ldr	r3, [pc, #40]	; (ad4 <nrf_log_backend_add+0x68>)
     aac:	f8d3 3410 	ldr.w	r3, [r3, #1040]	; 0x410
     ab0:	2b00      	cmp	r3, #0
     ab2:	d0e2      	beq.n	a7a <nrf_log_backend_add+0xe>
     ab4:	68e2      	ldr	r2, [r4, #12]
     ab6:	68db      	ldr	r3, [r3, #12]
     ab8:	681b      	ldr	r3, [r3, #0]
     aba:	6013      	str	r3, [r2, #0]
     abc:	4b05      	ldr	r3, [pc, #20]	; (ad4 <nrf_log_backend_add+0x68>)
     abe:	f8d3 3410 	ldr.w	r3, [r3, #1040]	; 0x410
     ac2:	68db      	ldr	r3, [r3, #12]
     ac4:	601c      	str	r4, [r3, #0]
     ac6:	e001      	b.n	acc <nrf_log_backend_add+0x60>
     ac8:	f04f 30ff 	mov.w	r0, #4294967295	; 0xffffffff
     acc:	f85d 4b04 	ldr.w	r4, [sp], #4
     ad0:	4770      	bx	lr
     ad2:	bf00      	nop
     ad4:	20000160 	.word	0x20000160

00000ad8 <nrf_log_panic>:
     ad8:	b538      	push	{r3, r4, r5, lr}
     ada:	4b09      	ldr	r3, [pc, #36]	; (b00 <nrf_log_panic+0x28>)
     adc:	f8d3 4410 	ldr.w	r4, [r3, #1040]	; 0x410
     ae0:	2201      	movs	r2, #1
     ae2:	701a      	strb	r2, [r3, #0]
     ae4:	b154      	cbz	r4, afc <nrf_log_panic+0x24>
     ae6:	4615      	mov	r5, r2
     ae8:	68e3      	ldr	r3, [r4, #12]
     aea:	715d      	strb	r5, [r3, #5]
     aec:	6823      	ldr	r3, [r4, #0]
     aee:	685b      	ldr	r3, [r3, #4]
     af0:	4620      	mov	r0, r4
     af2:	4798      	blx	r3
     af4:	68e3      	ldr	r3, [r4, #12]
     af6:	681c      	ldr	r4, [r3, #0]
     af8:	2c00      	cmp	r4, #0
     afa:	d1f5      	bne.n	ae8 <nrf_log_panic+0x10>
     afc:	bd38      	pop	{r3, r4, r5, pc}
     afe:	bf00      	nop
     b00:	20000160 	.word	0x20000160

00000b04 <prefix_process>:
     b04:	b570      	push	{r4, r5, r6, lr}
     b06:	b082      	sub	sp, #8
     b08:	4604      	mov	r4, r0
     b0a:	460d      	mov	r5, r1
     b0c:	88c3      	ldrh	r3, [r0, #6]
     b0e:	b9a3      	cbnz	r3, b3a <prefix_process+0x36>
     b10:	7a21      	ldrb	r1, [r4, #8]
     b12:	2905      	cmp	r1, #5
     b14:	d00f      	beq.n	b36 <prefix_process+0x32>
     b16:	7a63      	ldrb	r3, [r4, #9]
     b18:	b9bb      	cbnz	r3, b4a <prefix_process+0x46>
     b1a:	7a22      	ldrb	r2, [r4, #8]
     b1c:	4b10      	ldr	r3, [pc, #64]	; (b60 <prefix_process+0x5c>)
     b1e:	f853 6022 	ldr.w	r6, [r3, r2, lsl #2]
     b22:	2100      	movs	r1, #0
     b24:	88a0      	ldrh	r0, [r4, #4]
     b26:	f7ff fd73 	bl	610 <nrf_log_module_name_get>
     b2a:	4603      	mov	r3, r0
     b2c:	4632      	mov	r2, r6
     b2e:	490d      	ldr	r1, [pc, #52]	; (b64 <prefix_process+0x60>)
     b30:	4628      	mov	r0, r5
     b32:	f000 fa07 	bl	f44 <nrf_fprintf>
     b36:	b002      	add	sp, #8
     b38:	bd70      	pop	{r4, r5, r6, pc}
     b3a:	4a0b      	ldr	r2, [pc, #44]	; (b68 <prefix_process+0x64>)
     b3c:	9200      	str	r2, [sp, #0]
     b3e:	4a0b      	ldr	r2, [pc, #44]	; (b6c <prefix_process+0x68>)
     b40:	490b      	ldr	r1, [pc, #44]	; (b70 <prefix_process+0x6c>)
     b42:	4628      	mov	r0, r5
     b44:	f000 f9fe 	bl	f44 <nrf_fprintf>
     b48:	e7e2      	b.n	b10 <prefix_process+0xc>
     b4a:	88a0      	ldrh	r0, [r4, #4]
     b4c:	f7ff fd80 	bl	650 <nrf_log_color_id_get>
     b50:	4b08      	ldr	r3, [pc, #32]	; (b74 <prefix_process+0x70>)
     b52:	f853 2020 	ldr.w	r2, [r3, r0, lsl #2]
     b56:	4908      	ldr	r1, [pc, #32]	; (b78 <prefix_process+0x74>)
     b58:	4628      	mov	r0, r5
     b5a:	f000 f9f3 	bl	f44 <nrf_fprintf>
     b5e:	e7dc      	b.n	b1a <prefix_process+0x16>
     b60:	0000324c 	.word	0x0000324c
     b64:	000031ac 	.word	0x000031ac
     b68:	000031a0 	.word	0x000031a0
     b6c:	00003180 	.word	0x00003180
     b70:	00003188 	.word	0x00003188
     b74:	00003228 	.word	0x00003228
     b78:	000031a8 	.word	0x000031a8

00000b7c <postfix_process>:
     b7c:	b510      	push	{r4, lr}
     b7e:	460c      	mov	r4, r1
     b80:	7a03      	ldrb	r3, [r0, #8]
     b82:	2b05      	cmp	r3, #5
     b84:	d00f      	beq.n	ba6 <postfix_process+0x2a>
     b86:	7a43      	ldrb	r3, [r0, #9]
     b88:	b93b      	cbnz	r3, b9a <postfix_process+0x1e>
     b8a:	490a      	ldr	r1, [pc, #40]	; (bb4 <postfix_process+0x38>)
     b8c:	4620      	mov	r0, r4
     b8e:	f000 f9d9 	bl	f44 <nrf_fprintf>
     b92:	4620      	mov	r0, r4
     b94:	f000 f9ca 	bl	f2c <nrf_fprintf_buffer_flush>
     b98:	bd10      	pop	{r4, pc}
     b9a:	4a07      	ldr	r2, [pc, #28]	; (bb8 <postfix_process+0x3c>)
     b9c:	4907      	ldr	r1, [pc, #28]	; (bbc <postfix_process+0x40>)
     b9e:	4620      	mov	r0, r4
     ba0:	f000 f9d0 	bl	f44 <nrf_fprintf>
     ba4:	e7f1      	b.n	b8a <postfix_process+0xe>
     ba6:	2a00      	cmp	r2, #0
     ba8:	d0f3      	beq.n	b92 <postfix_process+0x16>
     baa:	4902      	ldr	r1, [pc, #8]	; (bb4 <postfix_process+0x38>)
     bac:	4620      	mov	r0, r4
     bae:	f000 f9c9 	bl	f44 <nrf_fprintf>
     bb2:	e7ee      	b.n	b92 <postfix_process+0x16>
     bb4:	000031b8 	.word	0x000031b8
     bb8:	000031a0 	.word	0x000031a0
     bbc:	000031a8 	.word	0x000031a8

00000bc0 <nrf_log_std_entry_process>:
     bc0:	e92d 43f0 	stmdb	sp!, {r4, r5, r6, r7, r8, r9, lr}
     bc4:	b085      	sub	sp, #20
     bc6:	4681      	mov	r9, r0
     bc8:	460d      	mov	r5, r1
     bca:	4690      	mov	r8, r2
     bcc:	461e      	mov	r6, r3
     bce:	9c0c      	ldr	r4, [sp, #48]	; 0x30
     bd0:	7b27      	ldrb	r7, [r4, #12]
     bd2:	2300      	movs	r3, #0
     bd4:	7323      	strb	r3, [r4, #12]
     bd6:	4621      	mov	r1, r4
     bd8:	4630      	mov	r0, r6
     bda:	f7ff ff93 	bl	b04 <prefix_process>
     bde:	f1b8 0f06 	cmp.w	r8, #6
     be2:	d809      	bhi.n	bf8 <nrf_log_std_entry_process+0x38>
     be4:	e8df f008 	tbb	[pc, r8]
     be8:	1e171104 	.word	0x1e171104
     bec:	3227      	.short	0x3227
     bee:	3f          	.byte	0x3f
     bef:	00          	.byte	0x00
     bf0:	4649      	mov	r1, r9
     bf2:	4620      	mov	r0, r4
     bf4:	f000 f9a6 	bl	f44 <nrf_fprintf>
     bf8:	2200      	movs	r2, #0
     bfa:	4621      	mov	r1, r4
     bfc:	4630      	mov	r0, r6
     bfe:	f7ff ffbd 	bl	b7c <postfix_process>
     c02:	7327      	strb	r7, [r4, #12]
     c04:	b005      	add	sp, #20
     c06:	e8bd 83f0 	ldmia.w	sp!, {r4, r5, r6, r7, r8, r9, pc}
     c0a:	682a      	ldr	r2, [r5, #0]
     c0c:	4649      	mov	r1, r9
     c0e:	4620      	mov	r0, r4
     c10:	f000 f998 	bl	f44 <nrf_fprintf>
     c14:	e7f0      	b.n	bf8 <nrf_log_std_entry_process+0x38>
     c16:	686b      	ldr	r3, [r5, #4]
     c18:	682a      	ldr	r2, [r5, #0]
     c1a:	4649      	mov	r1, r9
     c1c:	4620      	mov	r0, r4
     c1e:	f000 f991 	bl	f44 <nrf_fprintf>
     c22:	e7e9      	b.n	bf8 <nrf_log_std_entry_process+0x38>
     c24:	68ab      	ldr	r3, [r5, #8]
     c26:	9300      	str	r3, [sp, #0]
     c28:	686b      	ldr	r3, [r5, #4]
     c2a:	682a      	ldr	r2, [r5, #0]
     c2c:	4649      	mov	r1, r9
     c2e:	4620      	mov	r0, r4
     c30:	f000 f988 	bl	f44 <nrf_fprintf>
     c34:	e7e0      	b.n	bf8 <nrf_log_std_entry_process+0x38>
     c36:	68eb      	ldr	r3, [r5, #12]
     c38:	9301      	str	r3, [sp, #4]
     c3a:	68ab      	ldr	r3, [r5, #8]
     c3c:	9300      	str	r3, [sp, #0]
     c3e:	686b      	ldr	r3, [r5, #4]
     c40:	682a      	ldr	r2, [r5, #0]
     c42:	4649      	mov	r1, r9
     c44:	4620      	mov	r0, r4
     c46:	f000 f97d 	bl	f44 <nrf_fprintf>
     c4a:	e7d5      	b.n	bf8 <nrf_log_std_entry_process+0x38>
     c4c:	692b      	ldr	r3, [r5, #16]
     c4e:	9302      	str	r3, [sp, #8]
     c50:	68eb      	ldr	r3, [r5, #12]
     c52:	9301      	str	r3, [sp, #4]
     c54:	68ab      	ldr	r3, [r5, #8]
     c56:	9300      	str	r3, [sp, #0]
     c58:	686b      	ldr	r3, [r5, #4]
     c5a:	682a      	ldr	r2, [r5, #0]
     c5c:	4649      	mov	r1, r9
     c5e:	4620      	mov	r0, r4
     c60:	f000 f970 	bl	f44 <nrf_fprintf>
     c64:	e7c8      	b.n	bf8 <nrf_log_std_entry_process+0x38>
     c66:	696b      	ldr	r3, [r5, #20]
     c68:	9303      	str	r3, [sp, #12]
     c6a:	692b      	ldr	r3, [r5, #16]
     c6c:	9302      	str	r3, [sp, #8]
     c6e:	68eb      	ldr	r3, [r5, #12]
     c70:	9301      	str	r3, [sp, #4]
     c72:	68ab      	ldr	r3, [r5, #8]
     c74:	9300      	str	r3, [sp, #0]
     c76:	686b      	ldr	r3, [r5, #4]
     c78:	682a      	ldr	r2, [r5, #0]
     c7a:	4649      	mov	r1, r9
     c7c:	4620      	mov	r0, r4
     c7e:	f000 f961 	bl	f44 <nrf_fprintf>
     c82:	e7b9      	b.n	bf8 <nrf_log_std_entry_process+0x38>

00000c84 <nrf_log_hexdump_entry_process>:
     c84:	e92d 4ff0 	stmdb	sp!, {r4, r5, r6, r7, r8, r9, sl, fp, lr}
     c88:	b083      	sub	sp, #12
     c8a:	9201      	str	r2, [sp, #4]
     c8c:	2908      	cmp	r1, #8
     c8e:	d902      	bls.n	c96 <nrf_log_hexdump_entry_process+0x12>
     c90:	b003      	add	sp, #12
     c92:	e8bd 8ff0 	ldmia.w	sp!, {r4, r5, r6, r7, r8, r9, sl, fp, pc}
     c96:	4607      	mov	r7, r0
     c98:	460e      	mov	r6, r1
     c9a:	461d      	mov	r5, r3
     c9c:	f893 800c 	ldrb.w	r8, [r3, #12]
     ca0:	2400      	movs	r4, #0
     ca2:	731c      	strb	r4, [r3, #12]
     ca4:	4619      	mov	r1, r3
     ca6:	4610      	mov	r0, r2
     ca8:	f7ff ff2c 	bl	b04 <prefix_process>
     cac:	f8df a084 	ldr.w	sl, [pc, #132]	; d34 <nrf_log_hexdump_entry_process+0xb0>
     cb0:	f8df 9084 	ldr.w	r9, [pc, #132]	; d38 <nrf_log_hexdump_entry_process+0xb4>
     cb4:	e006      	b.n	cc4 <nrf_log_hexdump_entry_process+0x40>
     cb6:	4651      	mov	r1, sl
     cb8:	4628      	mov	r0, r5
     cba:	f000 f943 	bl	f44 <nrf_fprintf>
     cbe:	3401      	adds	r4, #1
     cc0:	2c08      	cmp	r4, #8
     cc2:	d007      	beq.n	cd4 <nrf_log_hexdump_entry_process+0x50>
     cc4:	42a6      	cmp	r6, r4
     cc6:	d9f6      	bls.n	cb6 <nrf_log_hexdump_entry_process+0x32>
     cc8:	5d3a      	ldrb	r2, [r7, r4]
     cca:	4649      	mov	r1, r9
     ccc:	4628      	mov	r0, r5
     cce:	f000 f939 	bl	f44 <nrf_fprintf>
     cd2:	e7f4      	b.n	cbe <nrf_log_hexdump_entry_process+0x3a>
     cd4:	4916      	ldr	r1, [pc, #88]	; (d30 <nrf_log_hexdump_entry_process+0xac>)
     cd6:	4628      	mov	r0, r5
     cd8:	f000 f934 	bl	f44 <nrf_fprintf>
     cdc:	2400      	movs	r4, #0
     cde:	f8df b05c 	ldr.w	fp, [pc, #92]	; d3c <nrf_log_hexdump_entry_process+0xb8>
     ce2:	f8df 905c 	ldr.w	r9, [pc, #92]	; d40 <nrf_log_hexdump_entry_process+0xbc>
     ce6:	f8df a05c 	ldr.w	sl, [pc, #92]	; d44 <nrf_log_hexdump_entry_process+0xc0>
     cea:	e007      	b.n	cfc <nrf_log_hexdump_entry_process+0x78>
     cec:	222e      	movs	r2, #46	; 0x2e
     cee:	4649      	mov	r1, r9
     cf0:	4628      	mov	r0, r5
     cf2:	f000 f927 	bl	f44 <nrf_fprintf>
     cf6:	3401      	adds	r4, #1
     cf8:	2c08      	cmp	r4, #8
     cfa:	d010      	beq.n	d1e <nrf_log_hexdump_entry_process+0x9a>
     cfc:	42a6      	cmp	r6, r4
     cfe:	d909      	bls.n	d14 <nrf_log_hexdump_entry_process+0x90>
     d00:	5d3a      	ldrb	r2, [r7, r4]
     d02:	2a7e      	cmp	r2, #126	; 0x7e
     d04:	d8f2      	bhi.n	cec <nrf_log_hexdump_entry_process+0x68>
     d06:	f81a 3002 	ldrb.w	r3, [sl, r2]
     d0a:	f013 0f97 	tst.w	r3, #151	; 0x97
     d0e:	bf08      	it	eq
     d10:	222e      	moveq	r2, #46	; 0x2e
     d12:	e7ec      	b.n	cee <nrf_log_hexdump_entry_process+0x6a>
     d14:	4659      	mov	r1, fp
     d16:	4628      	mov	r0, r5
     d18:	f000 f914 	bl	f44 <nrf_fprintf>
     d1c:	e7eb      	b.n	cf6 <nrf_log_hexdump_entry_process+0x72>
     d1e:	2201      	movs	r2, #1
     d20:	4629      	mov	r1, r5
     d22:	9801      	ldr	r0, [sp, #4]
     d24:	f7ff ff2a 	bl	b7c <postfix_process>
     d28:	f885 800c 	strb.w	r8, [r5, #12]
     d2c:	e7b0      	b.n	c90 <nrf_log_hexdump_entry_process+0xc>
     d2e:	bf00      	nop
     d30:	000031c8 	.word	0x000031c8
     d34:	000031c4 	.word	0x000031c4
     d38:	000031bc 	.word	0x000031bc
     d3c:	000031b4 	.word	0x000031b4
     d40:	000031cc 	.word	0x000031cc
     d44:	00003319 	.word	0x00003319

00000d48 <app_error_handler_bare>:
     d48:	b500      	push	{lr}
     d4a:	b085      	sub	sp, #20
     d4c:	2100      	movs	r1, #0
     d4e:	9101      	str	r1, [sp, #4]
     d50:	9102      	str	r1, [sp, #8]
     d52:	9003      	str	r0, [sp, #12]
     d54:	aa01      	add	r2, sp, #4
     d56:	f244 0001 	movw	r0, #16385	; 0x4001
     d5a:	f000 f803 	bl	d64 <app_error_fault_handler>
     d5e:	b005      	add	sp, #20
     d60:	f85d fb04 	ldr.w	pc, [sp], #4

00000d64 <app_error_fault_handler>:
     d64:	b510      	push	{r4, lr}
     d66:	b672      	cpsid	i
     d68:	f7ff feb6 	bl	ad8 <nrf_log_panic>
     d6c:	f7ff fc90 	bl	690 <nrf_log_frontend_dequeue>
     d70:	2800      	cmp	r0, #0
     d72:	d1fb      	bne.n	d6c <app_error_fault_handler+0x8>
     d74:	4c11      	ldr	r4, [pc, #68]	; (dbc <app_error_fault_handler+0x58>)
     d76:	4b12      	ldr	r3, [pc, #72]	; (dc0 <app_error_fault_handler+0x5c>)
     d78:	1ae4      	subs	r4, r4, r3
     d7a:	08e4      	lsrs	r4, r4, #3
     d7c:	0424      	lsls	r4, r4, #16
     d7e:	4911      	ldr	r1, [pc, #68]	; (dc4 <app_error_fault_handler+0x60>)
     d80:	f044 0001 	orr.w	r0, r4, #1
     d84:	f7ff fda2 	bl	8cc <nrf_log_frontend_std_0>
     d88:	4b0f      	ldr	r3, [pc, #60]	; (dc8 <app_error_fault_handler+0x64>)
     d8a:	f8d3 30f0 	ldr.w	r3, [r3, #240]	; 0xf0
     d8e:	f013 0f01 	tst.w	r3, #1
     d92:	d000      	beq.n	d96 <app_error_fault_handler+0x32>
     d94:	be00      	bkpt	0x0000
     d96:	490d      	ldr	r1, [pc, #52]	; (dcc <app_error_fault_handler+0x68>)
     d98:	f044 0002 	orr.w	r0, r4, #2
     d9c:	f7ff fd96 	bl	8cc <nrf_log_frontend_std_0>
     da0:	f3bf 8f4f 	dsb	sy
     da4:	4908      	ldr	r1, [pc, #32]	; (dc8 <app_error_fault_handler+0x64>)
     da6:	68ca      	ldr	r2, [r1, #12]
     da8:	f402 62e0 	and.w	r2, r2, #1792	; 0x700
     dac:	4b08      	ldr	r3, [pc, #32]	; (dd0 <app_error_fault_handler+0x6c>)
     dae:	4313      	orrs	r3, r2
     db0:	60cb      	str	r3, [r1, #12]
     db2:	f3bf 8f4f 	dsb	sy
     db6:	bf00      	nop
     db8:	e7fd      	b.n	db6 <app_error_fault_handler+0x52>
     dba:	bf00      	nop
     dbc:	00003440 	.word	0x00003440
     dc0:	00003420 	.word	0x00003420
     dc4:	00003260 	.word	0x00003260
     dc8:	e000ed00 	.word	0xe000ed00
     dcc:	0000326c 	.word	0x0000326c
     dd0:	05fa0004 	.word	0x05fa0004

00000dd4 <app_util_disable_irq>:
     dd4:	b672      	cpsid	i
     dd6:	4a02      	ldr	r2, [pc, #8]	; (de0 <app_util_disable_irq+0xc>)
     dd8:	6813      	ldr	r3, [r2, #0]
     dda:	3301      	adds	r3, #1
     ddc:	6013      	str	r3, [r2, #0]
     dde:	4770      	bx	lr
     de0:	20000618 	.word	0x20000618

00000de4 <app_util_enable_irq>:
     de4:	4a03      	ldr	r2, [pc, #12]	; (df4 <app_util_enable_irq+0x10>)
     de6:	6813      	ldr	r3, [r2, #0]
     de8:	3b01      	subs	r3, #1
     dea:	6013      	str	r3, [r2, #0]
     dec:	b903      	cbnz	r3, df0 <app_util_enable_irq+0xc>
     dee:	b662      	cpsie	i
     df0:	4770      	bx	lr
     df2:	bf00      	nop
     df4:	20000618 	.word	0x20000618

00000df8 <app_util_critical_region_enter>:
     df8:	b508      	push	{r3, lr}
     dfa:	f7ff ffeb 	bl	dd4 <app_util_disable_irq>
     dfe:	bd08      	pop	{r3, pc}

00000e00 <app_util_critical_region_exit>:
     e00:	b508      	push	{r3, lr}
     e02:	f7ff ffef 	bl	de4 <app_util_enable_irq>
     e06:	bd08      	pop	{r3, pc}

00000e08 <nrf_atomic_u32_fetch_store>:
     e08:	4603      	mov	r3, r0
     e0a:	e853 0f00 	ldrex	r0, [r3]
     e0e:	460a      	mov	r2, r1
     e10:	e843 2c00 	strex	ip, r2, [r3]
     e14:	f09c 0f00 	teq	ip, #0
     e18:	d1f7      	bne.n	e0a <nrf_atomic_u32_fetch_store+0x2>
     e1a:	4770      	bx	lr

00000e1c <nrf_atomic_u32_or>:
     e1c:	4603      	mov	r3, r0
     e1e:	e853 2f00 	ldrex	r2, [r3]
     e22:	ea42 0001 	orr.w	r0, r2, r1
     e26:	e843 0c00 	strex	ip, r0, [r3]
     e2a:	f09c 0f00 	teq	ip, #0
     e2e:	d1f6      	bne.n	e1e <nrf_atomic_u32_or+0x2>
     e30:	4770      	bx	lr

00000e32 <nrf_atomic_u32_fetch_and>:
     e32:	4603      	mov	r3, r0
     e34:	e853 0f00 	ldrex	r0, [r3]
     e38:	ea00 0201 	and.w	r2, r0, r1
     e3c:	e843 2c00 	strex	ip, r2, [r3]
     e40:	f09c 0f00 	teq	ip, #0
     e44:	d1f6      	bne.n	e34 <nrf_atomic_u32_fetch_and+0x2>
     e46:	4770      	bx	lr

00000e48 <nrf_atomic_u32_add>:
     e48:	4603      	mov	r3, r0
     e4a:	e853 2f00 	ldrex	r2, [r3]
     e4e:	eb02 0001 	add.w	r0, r2, r1
     e52:	e843 0c00 	strex	ip, r0, [r3]
     e56:	f09c 0f00 	teq	ip, #0
     e5a:	d1f6      	bne.n	e4a <nrf_atomic_u32_add+0x2>
     e5c:	4770      	bx	lr

00000e5e <nrf_atomic_u32_sub>:
     e5e:	4603      	mov	r3, r0
     e60:	e853 2f00 	ldrex	r2, [r3]
     e64:	eba2 0001 	sub.w	r0, r2, r1
     e68:	e843 0c00 	strex	ip, r0, [r3]
     e6c:	f09c 0f00 	teq	ip, #0
     e70:	d1f6      	bne.n	e60 <nrf_atomic_u32_sub+0x2>
     e72:	4770      	bx	lr

00000e74 <nrf_atomic_flag_set>:
     e74:	b508      	push	{r3, lr}
     e76:	2101      	movs	r1, #1
     e78:	f7ff ffd0 	bl	e1c <nrf_atomic_u32_or>
     e7c:	bd08      	pop	{r3, pc}

00000e7e <nrf_atomic_flag_clear_fetch>:
     e7e:	b508      	push	{r3, lr}
     e80:	2100      	movs	r1, #0
     e82:	f7ff ffd6 	bl	e32 <nrf_atomic_u32_fetch_and>
     e86:	bd08      	pop	{r3, pc}

00000e88 <nrf_balloc_init>:
     e88:	4684      	mov	ip, r0
     e8a:	b1b8      	cbz	r0, ebc <nrf_balloc_init+0x34>
     e8c:	6843      	ldr	r3, [r0, #4]
     e8e:	6882      	ldr	r2, [r0, #8]
     e90:	1ad2      	subs	r2, r2, r3
     e92:	b2d2      	uxtb	r2, r2
     e94:	6801      	ldr	r1, [r0, #0]
     e96:	600b      	str	r3, [r1, #0]
     e98:	1e53      	subs	r3, r2, #1
     e9a:	b2db      	uxtb	r3, r3
     e9c:	b14a      	cbz	r2, eb2 <nrf_balloc_init+0x2a>
     e9e:	f8dc 1000 	ldr.w	r1, [ip]
     ea2:	680a      	ldr	r2, [r1, #0]
     ea4:	1c50      	adds	r0, r2, #1
     ea6:	6008      	str	r0, [r1, #0]
     ea8:	7013      	strb	r3, [r2, #0]
     eaa:	3b01      	subs	r3, #1
     eac:	b2db      	uxtb	r3, r3
     eae:	2bff      	cmp	r3, #255	; 0xff
     eb0:	d1f5      	bne.n	e9e <nrf_balloc_init+0x16>
     eb2:	f8dc 3000 	ldr.w	r3, [ip]
     eb6:	2000      	movs	r0, #0
     eb8:	7118      	strb	r0, [r3, #4]
     eba:	4770      	bx	lr
     ebc:	200e      	movs	r0, #14
     ebe:	4770      	bx	lr

00000ec0 <nrf_balloc_alloc>:
     ec0:	b538      	push	{r3, r4, r5, lr}
     ec2:	4604      	mov	r4, r0
     ec4:	2000      	movs	r0, #0
     ec6:	f7ff ff97 	bl	df8 <app_util_critical_region_enter>
     eca:	6822      	ldr	r2, [r4, #0]
     ecc:	6813      	ldr	r3, [r2, #0]
     ece:	6861      	ldr	r1, [r4, #4]
     ed0:	428b      	cmp	r3, r1
     ed2:	d915      	bls.n	f00 <nrf_balloc_alloc+0x40>
     ed4:	1e59      	subs	r1, r3, #1
     ed6:	6011      	str	r1, [r2, #0]
     ed8:	f813 3c01 	ldrb.w	r3, [r3, #-1]
     edc:	8a22      	ldrh	r2, [r4, #16]
     ede:	68e5      	ldr	r5, [r4, #12]
     ee0:	fb02 5503 	mla	r5, r2, r3, r5
     ee4:	6822      	ldr	r2, [r4, #0]
     ee6:	68a3      	ldr	r3, [r4, #8]
     ee8:	6811      	ldr	r1, [r2, #0]
     eea:	1a5b      	subs	r3, r3, r1
     eec:	b2db      	uxtb	r3, r3
     eee:	7911      	ldrb	r1, [r2, #4]
     ef0:	4299      	cmp	r1, r3
     ef2:	d200      	bcs.n	ef6 <nrf_balloc_alloc+0x36>
     ef4:	7113      	strb	r3, [r2, #4]
     ef6:	2000      	movs	r0, #0
     ef8:	f7ff ff82 	bl	e00 <app_util_critical_region_exit>
     efc:	4628      	mov	r0, r5
     efe:	bd38      	pop	{r3, r4, r5, pc}
     f00:	2500      	movs	r5, #0
     f02:	e7f8      	b.n	ef6 <nrf_balloc_alloc+0x36>

00000f04 <nrf_balloc_free>:
     f04:	b538      	push	{r3, r4, r5, lr}
     f06:	4605      	mov	r5, r0
     f08:	460c      	mov	r4, r1
     f0a:	2000      	movs	r0, #0
     f0c:	f7ff ff74 	bl	df8 <app_util_critical_region_enter>
     f10:	682a      	ldr	r2, [r5, #0]
     f12:	6813      	ldr	r3, [r2, #0]
     f14:	1c59      	adds	r1, r3, #1
     f16:	6011      	str	r1, [r2, #0]
     f18:	68ea      	ldr	r2, [r5, #12]
     f1a:	1aa4      	subs	r4, r4, r2
     f1c:	8a2a      	ldrh	r2, [r5, #16]
     f1e:	fbb4 f4f2 	udiv	r4, r4, r2
     f22:	701c      	strb	r4, [r3, #0]
     f24:	2000      	movs	r0, #0
     f26:	f7ff ff6b 	bl	e00 <app_util_critical_region_exit>
     f2a:	bd38      	pop	{r3, r4, r5, pc}

00000f2c <nrf_fprintf_buffer_flush>:
     f2c:	6882      	ldr	r2, [r0, #8]
     f2e:	b142      	cbz	r2, f42 <nrf_fprintf_buffer_flush+0x16>
     f30:	b510      	push	{r4, lr}
     f32:	4604      	mov	r4, r0
     f34:	6943      	ldr	r3, [r0, #20]
     f36:	6801      	ldr	r1, [r0, #0]
     f38:	6900      	ldr	r0, [r0, #16]
     f3a:	4798      	blx	r3
     f3c:	2300      	movs	r3, #0
     f3e:	60a3      	str	r3, [r4, #8]
     f40:	bd10      	pop	{r4, pc}
     f42:	4770      	bx	lr

00000f44 <nrf_fprintf>:
     f44:	b40e      	push	{r1, r2, r3}
     f46:	b500      	push	{lr}
     f48:	b082      	sub	sp, #8
     f4a:	9903      	ldr	r1, [sp, #12]
     f4c:	b121      	cbz	r1, f58 <nrf_fprintf+0x14>
     f4e:	ab04      	add	r3, sp, #16
     f50:	9301      	str	r3, [sp, #4]
     f52:	aa01      	add	r2, sp, #4
     f54:	f000 f87e 	bl	1054 <nrf_fprintf_fmt>
     f58:	b002      	add	sp, #8
     f5a:	f85d eb04 	ldr.w	lr, [sp], #4
     f5e:	b003      	add	sp, #12
     f60:	4770      	bx	lr

00000f62 <buffer_add>:
     f62:	b538      	push	{r3, r4, r5, lr}
     f64:	4604      	mov	r4, r0
     f66:	460d      	mov	r5, r1
     f68:	290a      	cmp	r1, #10
     f6a:	d009      	beq.n	f80 <buffer_add+0x1e>
     f6c:	6822      	ldr	r2, [r4, #0]
     f6e:	68a3      	ldr	r3, [r4, #8]
     f70:	1c59      	adds	r1, r3, #1
     f72:	60a1      	str	r1, [r4, #8]
     f74:	54d5      	strb	r5, [r2, r3]
     f76:	68a2      	ldr	r2, [r4, #8]
     f78:	6863      	ldr	r3, [r4, #4]
     f7a:	429a      	cmp	r2, r3
     f7c:	d204      	bcs.n	f88 <buffer_add+0x26>
     f7e:	bd38      	pop	{r3, r4, r5, pc}
     f80:	210d      	movs	r1, #13
     f82:	f7ff ffee 	bl	f62 <buffer_add>
     f86:	e7f1      	b.n	f6c <buffer_add+0xa>
     f88:	4620      	mov	r0, r4
     f8a:	f7ff ffcf 	bl	f2c <nrf_fprintf_buffer_flush>
     f8e:	e7f6      	b.n	f7e <buffer_add+0x1c>

00000f90 <unsigned_print>:
     f90:	e92d 4ff8 	stmdb	sp!, {r3, r4, r5, r6, r7, r8, r9, sl, fp, lr}
     f94:	4681      	mov	r9, r0
     f96:	460f      	mov	r7, r1
     f98:	4615      	mov	r5, r2
     f9a:	461e      	mov	r6, r3
     f9c:	f8dd a028 	ldr.w	sl, [sp, #40]	; 0x28
     fa0:	9a0b      	ldr	r2, [sp, #44]	; 0x2c
     fa2:	42a9      	cmp	r1, r5
     fa4:	d325      	bcc.n	ff2 <unsigned_print+0x62>
     fa6:	460b      	mov	r3, r1
     fa8:	f04f 0801 	mov.w	r8, #1
     fac:	fbb3 f3f5 	udiv	r3, r3, r5
     fb0:	f108 0801 	add.w	r8, r8, #1
     fb4:	429d      	cmp	r5, r3
     fb6:	d9f9      	bls.n	fac <unsigned_print+0x1c>
     fb8:	45b0      	cmp	r8, r6
     fba:	bf38      	it	cc
     fbc:	46b0      	movcc	r8, r6
     fbe:	f012 0b01 	ands.w	fp, r2, #1
     fc2:	d114      	bne.n	fee <unsigned_print+0x5e>
     fc4:	f1ba 0f00 	cmp.w	sl, #0
     fc8:	d011      	beq.n	fee <unsigned_print+0x5e>
     fca:	f012 0f02 	tst.w	r2, #2
     fce:	d013      	beq.n	ff8 <unsigned_print+0x68>
     fd0:	2e00      	cmp	r6, #0
     fd2:	bf14      	ite	ne
     fd4:	2420      	movne	r4, #32
     fd6:	2430      	moveq	r4, #48	; 0x30
     fd8:	45c2      	cmp	sl, r8
     fda:	d908      	bls.n	fee <unsigned_print+0x5e>
     fdc:	f10a 3aff 	add.w	sl, sl, #4294967295	; 0xffffffff
     fe0:	4621      	mov	r1, r4
     fe2:	4648      	mov	r0, r9
     fe4:	f7ff ffbd 	bl	f62 <buffer_add>
     fe8:	45c2      	cmp	sl, r8
     fea:	d1f7      	bne.n	fdc <unsigned_print+0x4c>
     fec:	46c2      	mov	sl, r8
     fee:	2401      	movs	r4, #1
     ff0:	e007      	b.n	1002 <unsigned_print+0x72>
     ff2:	f04f 0801 	mov.w	r8, #1
     ff6:	e7df      	b.n	fb8 <unsigned_print+0x28>
     ff8:	2420      	movs	r4, #32
     ffa:	e7ed      	b.n	fd8 <unsigned_print+0x48>
     ffc:	3e01      	subs	r6, #1
     ffe:	fb05 f404 	mul.w	r4, r5, r4
    1002:	2e01      	cmp	r6, #1
    1004:	d8fa      	bhi.n	ffc <unsigned_print+0x6c>
    1006:	fbb7 f3f4 	udiv	r3, r7, r4
    100a:	429d      	cmp	r5, r3
    100c:	d9f7      	bls.n	ffe <unsigned_print+0x6e>
    100e:	4e10      	ldr	r6, [pc, #64]	; (1050 <unsigned_print+0xc0>)
    1010:	fbb7 f3f4 	udiv	r3, r7, r4
    1014:	fb04 7713 	mls	r7, r4, r3, r7
    1018:	5cf1      	ldrb	r1, [r6, r3]
    101a:	4648      	mov	r0, r9
    101c:	f7ff ffa1 	bl	f62 <buffer_add>
    1020:	4623      	mov	r3, r4
    1022:	fbb4 f4f5 	udiv	r4, r4, r5
    1026:	42ab      	cmp	r3, r5
    1028:	d2f2      	bcs.n	1010 <unsigned_print+0x80>
    102a:	f1bb 0f00 	cmp.w	fp, #0
    102e:	d00d      	beq.n	104c <unsigned_print+0xbc>
    1030:	f1ba 0f00 	cmp.w	sl, #0
    1034:	d00a      	beq.n	104c <unsigned_print+0xbc>
    1036:	45c2      	cmp	sl, r8
    1038:	d908      	bls.n	104c <unsigned_print+0xbc>
    103a:	2420      	movs	r4, #32
    103c:	f10a 3aff 	add.w	sl, sl, #4294967295	; 0xffffffff
    1040:	4621      	mov	r1, r4
    1042:	4648      	mov	r0, r9
    1044:	f7ff ff8d 	bl	f62 <buffer_add>
    1048:	45c2      	cmp	sl, r8
    104a:	d1f7      	bne.n	103c <unsigned_print+0xac>
    104c:	e8bd 8ff8 	ldmia.w	sp!, {r3, r4, r5, r6, r7, r8, r9, sl, fp, pc}
    1050:	0000327c 	.word	0x0000327c

00001054 <nrf_fprintf_fmt>:
    1054:	2900      	cmp	r1, #0
    1056:	f000 81a3 	beq.w	13a0 <nrf_fprintf_fmt+0x34c>
    105a:	e92d 4ff0 	stmdb	sp!, {r4, r5, r6, r7, r8, r9, sl, fp, lr}
    105e:	b085      	sub	sp, #20
    1060:	4607      	mov	r7, r0
    1062:	4691      	mov	r9, r2
    1064:	460c      	mov	r4, r1
    1066:	f8df b33c 	ldr.w	fp, [pc, #828]	; 13a4 <nrf_fprintf_fmt+0x350>
    106a:	e093      	b.n	1194 <nrf_fprintf_fmt+0x140>
    106c:	2600      	movs	r6, #0
    106e:	e002      	b.n	1076 <nrf_fprintf_fmt+0x22>
    1070:	f046 0601 	orr.w	r6, r6, #1
    1074:	3401      	adds	r4, #1
    1076:	7823      	ldrb	r3, [r4, #0]
    1078:	2b2d      	cmp	r3, #45	; 0x2d
    107a:	d0f9      	beq.n	1070 <nrf_fprintf_fmt+0x1c>
    107c:	2b30      	cmp	r3, #48	; 0x30
    107e:	d006      	beq.n	108e <nrf_fprintf_fmt+0x3a>
    1080:	2b2b      	cmp	r3, #43	; 0x2b
    1082:	d008      	beq.n	1096 <nrf_fprintf_fmt+0x42>
    1084:	2b2a      	cmp	r3, #42	; 0x2a
    1086:	d00a      	beq.n	109e <nrf_fprintf_fmt+0x4a>
    1088:	4621      	mov	r1, r4
    108a:	2500      	movs	r5, #0
    108c:	e01b      	b.n	10c6 <nrf_fprintf_fmt+0x72>
    108e:	f046 0602 	orr.w	r6, r6, #2
    1092:	3401      	adds	r4, #1
    1094:	e7ef      	b.n	1076 <nrf_fprintf_fmt+0x22>
    1096:	f046 0604 	orr.w	r6, r6, #4
    109a:	3401      	adds	r4, #1
    109c:	e7eb      	b.n	1076 <nrf_fprintf_fmt+0x22>
    109e:	f8d9 3000 	ldr.w	r3, [r9]
    10a2:	1d1a      	adds	r2, r3, #4
    10a4:	f8c9 2000 	str.w	r2, [r9]
    10a8:	681d      	ldr	r5, [r3, #0]
    10aa:	3401      	adds	r4, #1
    10ac:	7823      	ldrb	r3, [r4, #0]
    10ae:	2b2e      	cmp	r3, #46	; 0x2e
    10b0:	d012      	beq.n	10d8 <nrf_fprintf_fmt+0x84>
    10b2:	f04f 0800 	mov.w	r8, #0
    10b6:	7823      	ldrb	r3, [r4, #0]
    10b8:	e02c      	b.n	1114 <nrf_fprintf_fmt+0xc0>
    10ba:	eb05 0585 	add.w	r5, r5, r5, lsl #2
    10be:	eb03 0345 	add.w	r3, r3, r5, lsl #1
    10c2:	f1a3 0530 	sub.w	r5, r3, #48	; 0x30
    10c6:	460c      	mov	r4, r1
    10c8:	f811 3b01 	ldrb.w	r3, [r1], #1
    10cc:	f1a3 0230 	sub.w	r2, r3, #48	; 0x30
    10d0:	b2d2      	uxtb	r2, r2
    10d2:	2a09      	cmp	r2, #9
    10d4:	d9f1      	bls.n	10ba <nrf_fprintf_fmt+0x66>
    10d6:	e7e9      	b.n	10ac <nrf_fprintf_fmt+0x58>
    10d8:	1c61      	adds	r1, r4, #1
    10da:	7863      	ldrb	r3, [r4, #1]
    10dc:	f1a3 0230 	sub.w	r2, r3, #48	; 0x30
    10e0:	b2d2      	uxtb	r2, r2
    10e2:	2a09      	cmp	r2, #9
    10e4:	d810      	bhi.n	1108 <nrf_fprintf_fmt+0xb4>
    10e6:	f04f 0800 	mov.w	r8, #0
    10ea:	eb08 0888 	add.w	r8, r8, r8, lsl #2
    10ee:	eb03 0348 	add.w	r3, r3, r8, lsl #1
    10f2:	f1a3 0830 	sub.w	r8, r3, #48	; 0x30
    10f6:	f811 3f01 	ldrb.w	r3, [r1, #1]!
    10fa:	f1a3 0230 	sub.w	r2, r3, #48	; 0x30
    10fe:	b2d2      	uxtb	r2, r2
    1100:	2a09      	cmp	r2, #9
    1102:	d9f2      	bls.n	10ea <nrf_fprintf_fmt+0x96>
    1104:	460c      	mov	r4, r1
    1106:	e7d6      	b.n	10b6 <nrf_fprintf_fmt+0x62>
    1108:	460c      	mov	r4, r1
    110a:	f04f 0800 	mov.w	r8, #0
    110e:	e7d2      	b.n	10b6 <nrf_fprintf_fmt+0x62>
    1110:	f814 3f01 	ldrb.w	r3, [r4, #1]!
    1114:	f003 02fb 	and.w	r2, r3, #251	; 0xfb
    1118:	2a68      	cmp	r2, #104	; 0x68
    111a:	d0f9      	beq.n	1110 <nrf_fprintf_fmt+0xbc>
    111c:	2b25      	cmp	r3, #37	; 0x25
    111e:	f000 8131 	beq.w	1384 <nrf_fprintf_fmt+0x330>
    1122:	f1a3 0258 	sub.w	r2, r3, #88	; 0x58
    1126:	b2d2      	uxtb	r2, r2
    1128:	2a20      	cmp	r2, #32
    112a:	d82e      	bhi.n	118a <nrf_fprintf_fmt+0x136>
    112c:	3b58      	subs	r3, #88	; 0x58
    112e:	2b20      	cmp	r3, #32
    1130:	d82b      	bhi.n	118a <nrf_fprintf_fmt+0x136>
    1132:	e8df f013 	tbh	[pc, r3, lsl #1]
    1136:	00ba      	.short	0x00ba
    1138:	002a002a 	.word	0x002a002a
    113c:	002a002a 	.word	0x002a002a
    1140:	002a002a 	.word	0x002a002a
    1144:	002a002a 	.word	0x002a002a
    1148:	002a002a 	.word	0x002a002a
    114c:	003b0021 	.word	0x003b0021
    1150:	002a002a 	.word	0x002a002a
    1154:	002a002a 	.word	0x002a002a
    1158:	002a003b 	.word	0x002a003b
    115c:	002a002a 	.word	0x002a002a
    1160:	002a002a 	.word	0x002a002a
    1164:	010f002a 	.word	0x010f002a
    1168:	002a002a 	.word	0x002a002a
    116c:	002a00c8 	.word	0x002a00c8
    1170:	002a00ac 	.word	0x002a00ac
    1174:	00ba002a 	.word	0x00ba002a
    1178:	f8d9 3000 	ldr.w	r3, [r9]
    117c:	1d1a      	adds	r2, r3, #4
    117e:	f8c9 2000 	str.w	r2, [r9]
    1182:	7819      	ldrb	r1, [r3, #0]
    1184:	4638      	mov	r0, r7
    1186:	f7ff feec 	bl	f62 <buffer_add>
    118a:	3401      	adds	r4, #1
    118c:	7823      	ldrb	r3, [r4, #0]
    118e:	2b00      	cmp	r3, #0
    1190:	f000 80fd 	beq.w	138e <nrf_fprintf_fmt+0x33a>
    1194:	f814 1b01 	ldrb.w	r1, [r4], #1
    1198:	2900      	cmp	r1, #0
    119a:	f000 80f8 	beq.w	138e <nrf_fprintf_fmt+0x33a>
    119e:	2925      	cmp	r1, #37	; 0x25
    11a0:	f43f af64 	beq.w	106c <nrf_fprintf_fmt+0x18>
    11a4:	4638      	mov	r0, r7
    11a6:	f7ff fedc 	bl	f62 <buffer_add>
    11aa:	e7ef      	b.n	118c <nrf_fprintf_fmt+0x138>
    11ac:	f8d9 3000 	ldr.w	r3, [r9]
    11b0:	1d1a      	adds	r2, r3, #4
    11b2:	f8c9 2000 	str.w	r2, [r9]
    11b6:	f8d3 a000 	ldr.w	sl, [r3]
    11ba:	ea8a 73ea 	eor.w	r3, sl, sl, asr #31
    11be:	eba3 73ea 	sub.w	r3, r3, sl, asr #31
    11c2:	2b09      	cmp	r3, #9
    11c4:	dd41      	ble.n	124a <nrf_fprintf_fmt+0x1f6>
    11c6:	2201      	movs	r2, #1
    11c8:	4619      	mov	r1, r3
    11ca:	fb8b c003 	smull	ip, r0, fp, r3
    11ce:	17db      	asrs	r3, r3, #31
    11d0:	ebc3 03a0 	rsb	r3, r3, r0, asr #2
    11d4:	3201      	adds	r2, #1
    11d6:	2963      	cmp	r1, #99	; 0x63
    11d8:	dcf6      	bgt.n	11c8 <nrf_fprintf_fmt+0x174>
    11da:	4613      	mov	r3, r2
    11dc:	4542      	cmp	r2, r8
    11de:	bf38      	it	cc
    11e0:	4643      	movcc	r3, r8
    11e2:	9302      	str	r3, [sp, #8]
    11e4:	b135      	cbz	r5, 11f4 <nrf_fprintf_fmt+0x1a0>
    11e6:	f1ba 0f00 	cmp.w	sl, #0
    11ea:	db02      	blt.n	11f2 <nrf_fprintf_fmt+0x19e>
    11ec:	f016 0f04 	tst.w	r6, #4
    11f0:	d000      	beq.n	11f4 <nrf_fprintf_fmt+0x1a0>
    11f2:	3d01      	subs	r5, #1
    11f4:	f016 0f02 	tst.w	r6, #2
    11f8:	d002      	beq.n	1200 <nrf_fprintf_fmt+0x1ac>
    11fa:	f1b8 0f00 	cmp.w	r8, #0
    11fe:	d011      	beq.n	1224 <nrf_fprintf_fmt+0x1d0>
    1200:	f016 0f01 	tst.w	r6, #1
    1204:	d10e      	bne.n	1224 <nrf_fprintf_fmt+0x1d0>
    1206:	b16d      	cbz	r5, 1224 <nrf_fprintf_fmt+0x1d0>
    1208:	9b02      	ldr	r3, [sp, #8]
    120a:	42ab      	cmp	r3, r5
    120c:	d20a      	bcs.n	1224 <nrf_fprintf_fmt+0x1d0>
    120e:	9403      	str	r4, [sp, #12]
    1210:	461c      	mov	r4, r3
    1212:	3d01      	subs	r5, #1
    1214:	2120      	movs	r1, #32
    1216:	4638      	mov	r0, r7
    1218:	f7ff fea3 	bl	f62 <buffer_add>
    121c:	42ac      	cmp	r4, r5
    121e:	d1f8      	bne.n	1212 <nrf_fprintf_fmt+0x1be>
    1220:	9c03      	ldr	r4, [sp, #12]
    1222:	9d02      	ldr	r5, [sp, #8]
    1224:	f1ba 0f00 	cmp.w	sl, #0
    1228:	db11      	blt.n	124e <nrf_fprintf_fmt+0x1fa>
    122a:	f016 0f04 	tst.w	r6, #4
    122e:	d115      	bne.n	125c <nrf_fprintf_fmt+0x208>
    1230:	f006 0303 	and.w	r3, r6, #3
    1234:	2b02      	cmp	r3, #2
    1236:	d016      	beq.n	1266 <nrf_fprintf_fmt+0x212>
    1238:	9601      	str	r6, [sp, #4]
    123a:	9500      	str	r5, [sp, #0]
    123c:	4643      	mov	r3, r8
    123e:	220a      	movs	r2, #10
    1240:	4651      	mov	r1, sl
    1242:	4638      	mov	r0, r7
    1244:	f7ff fea4 	bl	f90 <unsigned_print>
    1248:	e79f      	b.n	118a <nrf_fprintf_fmt+0x136>
    124a:	2201      	movs	r2, #1
    124c:	e7c5      	b.n	11da <nrf_fprintf_fmt+0x186>
    124e:	f1ca 0a00 	rsb	sl, sl, #0
    1252:	212d      	movs	r1, #45	; 0x2d
    1254:	4638      	mov	r0, r7
    1256:	f7ff fe84 	bl	f62 <buffer_add>
    125a:	e7e9      	b.n	1230 <nrf_fprintf_fmt+0x1dc>
    125c:	212b      	movs	r1, #43	; 0x2b
    125e:	4638      	mov	r0, r7
    1260:	f7ff fe7f 	bl	f62 <buffer_add>
    1264:	e7e4      	b.n	1230 <nrf_fprintf_fmt+0x1dc>
    1266:	f1b8 0f00 	cmp.w	r8, #0
    126a:	d1e5      	bne.n	1238 <nrf_fprintf_fmt+0x1e4>
    126c:	2d00      	cmp	r5, #0
    126e:	d0e3      	beq.n	1238 <nrf_fprintf_fmt+0x1e4>
    1270:	9b02      	ldr	r3, [sp, #8]
    1272:	42ab      	cmp	r3, r5
    1274:	d2e0      	bcs.n	1238 <nrf_fprintf_fmt+0x1e4>
    1276:	9403      	str	r4, [sp, #12]
    1278:	461c      	mov	r4, r3
    127a:	3d01      	subs	r5, #1
    127c:	2130      	movs	r1, #48	; 0x30
    127e:	4638      	mov	r0, r7
    1280:	f7ff fe6f 	bl	f62 <buffer_add>
    1284:	42ac      	cmp	r4, r5
    1286:	d1f8      	bne.n	127a <nrf_fprintf_fmt+0x226>
    1288:	9c03      	ldr	r4, [sp, #12]
    128a:	9d02      	ldr	r5, [sp, #8]
    128c:	e7d4      	b.n	1238 <nrf_fprintf_fmt+0x1e4>
    128e:	f8d9 3000 	ldr.w	r3, [r9]
    1292:	1d1a      	adds	r2, r3, #4
    1294:	f8c9 2000 	str.w	r2, [r9]
    1298:	6819      	ldr	r1, [r3, #0]
    129a:	9601      	str	r6, [sp, #4]
    129c:	9500      	str	r5, [sp, #0]
    129e:	4643      	mov	r3, r8
    12a0:	220a      	movs	r2, #10
    12a2:	4638      	mov	r0, r7
    12a4:	f7ff fe74 	bl	f90 <unsigned_print>
    12a8:	e76f      	b.n	118a <nrf_fprintf_fmt+0x136>
    12aa:	f8d9 3000 	ldr.w	r3, [r9]
    12ae:	1d1a      	adds	r2, r3, #4
    12b0:	f8c9 2000 	str.w	r2, [r9]
    12b4:	6819      	ldr	r1, [r3, #0]
    12b6:	9601      	str	r6, [sp, #4]
    12b8:	9500      	str	r5, [sp, #0]
    12ba:	4643      	mov	r3, r8
    12bc:	2210      	movs	r2, #16
    12be:	4638      	mov	r0, r7
    12c0:	f7ff fe66 	bl	f90 <unsigned_print>
    12c4:	e761      	b.n	118a <nrf_fprintf_fmt+0x136>
    12c6:	f8d9 3000 	ldr.w	r3, [r9]
    12ca:	1d1a      	adds	r2, r3, #4
    12cc:	f8c9 2000 	str.w	r2, [r9]
    12d0:	f8d3 8000 	ldr.w	r8, [r3]
    12d4:	f016 0601 	ands.w	r6, r6, #1
    12d8:	d01d      	beq.n	1316 <nrf_fprintf_fmt+0x2c2>
    12da:	f898 1000 	ldrb.w	r1, [r8]
    12de:	b1b9      	cbz	r1, 1310 <nrf_fprintf_fmt+0x2bc>
    12e0:	4646      	mov	r6, r8
    12e2:	f1c8 0801 	rsb	r8, r8, #1
    12e6:	eb08 0a06 	add.w	sl, r8, r6
    12ea:	4638      	mov	r0, r7
    12ec:	f7ff fe39 	bl	f62 <buffer_add>
    12f0:	f816 1f01 	ldrb.w	r1, [r6, #1]!
    12f4:	2900      	cmp	r1, #0
    12f6:	d1f6      	bne.n	12e6 <nrf_fprintf_fmt+0x292>
    12f8:	4555      	cmp	r5, sl
    12fa:	f67f af46 	bls.w	118a <nrf_fprintf_fmt+0x136>
    12fe:	2620      	movs	r6, #32
    1300:	3d01      	subs	r5, #1
    1302:	4631      	mov	r1, r6
    1304:	4638      	mov	r0, r7
    1306:	f7ff fe2c 	bl	f62 <buffer_add>
    130a:	4555      	cmp	r5, sl
    130c:	d1f8      	bne.n	1300 <nrf_fprintf_fmt+0x2ac>
    130e:	e73c      	b.n	118a <nrf_fprintf_fmt+0x136>
    1310:	f04f 0a00 	mov.w	sl, #0
    1314:	e7f0      	b.n	12f8 <nrf_fprintf_fmt+0x2a4>
    1316:	f1b8 0f00 	cmp.w	r8, #0
    131a:	d003      	beq.n	1324 <nrf_fprintf_fmt+0x2d0>
    131c:	4640      	mov	r0, r8
    131e:	f001 fe2d 	bl	2f7c <strlen>
    1322:	4606      	mov	r6, r0
    1324:	42b5      	cmp	r5, r6
    1326:	d908      	bls.n	133a <nrf_fprintf_fmt+0x2e6>
    1328:	f04f 0a20 	mov.w	sl, #32
    132c:	3d01      	subs	r5, #1
    132e:	4651      	mov	r1, sl
    1330:	4638      	mov	r0, r7
    1332:	f7ff fe16 	bl	f62 <buffer_add>
    1336:	42b5      	cmp	r5, r6
    1338:	d1f8      	bne.n	132c <nrf_fprintf_fmt+0x2d8>
    133a:	f898 1000 	ldrb.w	r1, [r8]
    133e:	2900      	cmp	r1, #0
    1340:	f43f af23 	beq.w	118a <nrf_fprintf_fmt+0x136>
    1344:	4638      	mov	r0, r7
    1346:	f7ff fe0c 	bl	f62 <buffer_add>
    134a:	f818 1f01 	ldrb.w	r1, [r8, #1]!
    134e:	2900      	cmp	r1, #0
    1350:	d1f8      	bne.n	1344 <nrf_fprintf_fmt+0x2f0>
    1352:	e71a      	b.n	118a <nrf_fprintf_fmt+0x136>
    1354:	f8d9 3000 	ldr.w	r3, [r9]
    1358:	1d1a      	adds	r2, r3, #4
    135a:	f8c9 2000 	str.w	r2, [r9]
    135e:	681d      	ldr	r5, [r3, #0]
    1360:	2130      	movs	r1, #48	; 0x30
    1362:	4638      	mov	r0, r7
    1364:	f7ff fdfd 	bl	f62 <buffer_add>
    1368:	2178      	movs	r1, #120	; 0x78
    136a:	4638      	mov	r0, r7
    136c:	f7ff fdf9 	bl	f62 <buffer_add>
    1370:	2300      	movs	r3, #0
    1372:	9301      	str	r3, [sp, #4]
    1374:	2308      	movs	r3, #8
    1376:	9300      	str	r3, [sp, #0]
    1378:	2210      	movs	r2, #16
    137a:	4629      	mov	r1, r5
    137c:	4638      	mov	r0, r7
    137e:	f7ff fe07 	bl	f90 <unsigned_print>
    1382:	e702      	b.n	118a <nrf_fprintf_fmt+0x136>
    1384:	2125      	movs	r1, #37	; 0x25
    1386:	4638      	mov	r0, r7
    1388:	f7ff fdeb 	bl	f62 <buffer_add>
    138c:	e6fd      	b.n	118a <nrf_fprintf_fmt+0x136>
    138e:	7b3b      	ldrb	r3, [r7, #12]
    1390:	b913      	cbnz	r3, 1398 <nrf_fprintf_fmt+0x344>
    1392:	b005      	add	sp, #20
    1394:	e8bd 8ff0 	ldmia.w	sp!, {r4, r5, r6, r7, r8, r9, sl, fp, pc}
    1398:	4638      	mov	r0, r7
    139a:	f7ff fdc7 	bl	f2c <nrf_fprintf_buffer_flush>
    139e:	e7f8      	b.n	1392 <nrf_fprintf_fmt+0x33e>
    13a0:	4770      	bx	lr
    13a2:	bf00      	nop
    13a4:	66666667 	.word	0x66666667

000013a8 <memobj_op>:
    13a8:	e92d 4ff8 	stmdb	sp!, {r3, r4, r5, r6, r7, r8, r9, sl, fp, lr}
    13ac:	4604      	mov	r4, r0
    13ae:	4689      	mov	r9, r1
    13b0:	f89d a028 	ldrb.w	sl, [sp, #40]	; 0x28
    13b4:	f8b0 8006 	ldrh.w	r8, [r0, #6]
    13b8:	7946      	ldrb	r6, [r0, #5]
    13ba:	fb08 f606 	mul.w	r6, r8, r6
    13be:	3e04      	subs	r6, #4
    13c0:	1d1f      	adds	r7, r3, #4
    13c2:	fbb7 f0f8 	udiv	r0, r7, r8
    13c6:	fb08 7110 	mls	r1, r8, r0, r7
    13ca:	6815      	ldr	r5, [r2, #0]
    13cc:	eb05 0c03 	add.w	ip, r5, r3
    13d0:	45b4      	cmp	ip, r6
    13d2:	bf88      	it	hi
    13d4:	1af5      	subhi	r5, r6, r3
    13d6:	6015      	str	r5, [r2, #0]
    13d8:	4547      	cmp	r7, r8
    13da:	d302      	bcc.n	13e2 <memobj_op+0x3a>
    13dc:	6824      	ldr	r4, [r4, #0]
    13de:	3801      	subs	r0, #1
    13e0:	d1fc      	bne.n	13dc <memobj_op+0x34>
    13e2:	eba8 0601 	sub.w	r6, r8, r1
    13e6:	42ae      	cmp	r6, r5
    13e8:	bf28      	it	cs
    13ea:	462e      	movcs	r6, r5
    13ec:	b1e5      	cbz	r5, 1428 <memobj_op+0x80>
    13ee:	2700      	movs	r7, #0
    13f0:	46bb      	mov	fp, r7
    13f2:	e00c      	b.n	140e <memobj_op+0x66>
    13f4:	4632      	mov	r2, r6
    13f6:	4619      	mov	r1, r3
    13f8:	f001 fdb2 	bl	2f60 <memcpy>
    13fc:	6824      	ldr	r4, [r4, #0]
    13fe:	1bad      	subs	r5, r5, r6
    1400:	4437      	add	r7, r6
    1402:	4646      	mov	r6, r8
    1404:	45a8      	cmp	r8, r5
    1406:	bf28      	it	cs
    1408:	462e      	movcs	r6, r5
    140a:	4659      	mov	r1, fp
    140c:	b165      	cbz	r5, 1428 <memobj_op+0x80>
    140e:	eb09 0307 	add.w	r3, r9, r7
    1412:	3104      	adds	r1, #4
    1414:	1860      	adds	r0, r4, r1
    1416:	f1ba 0f00 	cmp.w	sl, #0
    141a:	d0eb      	beq.n	13f4 <memobj_op+0x4c>
    141c:	4632      	mov	r2, r6
    141e:	4601      	mov	r1, r0
    1420:	4618      	mov	r0, r3
    1422:	f001 fd9d 	bl	2f60 <memcpy>
    1426:	e7e9      	b.n	13fc <memobj_op+0x54>
    1428:	e8bd 8ff8 	ldmia.w	sp!, {r3, r4, r5, r6, r7, r8, r9, sl, fp, pc}

0000142c <nrf_memobj_pool_init>:
    142c:	b508      	push	{r3, lr}
    142e:	f7ff fd2b 	bl	e88 <nrf_balloc_init>
    1432:	bd08      	pop	{r3, pc}

00001434 <nrf_memobj_free>:
    1434:	b5f8      	push	{r3, r4, r5, r6, r7, lr}
    1436:	4604      	mov	r4, r0
    1438:	7946      	ldrb	r6, [r0, #5]
    143a:	1e71      	subs	r1, r6, #1
    143c:	d011      	beq.n	1462 <nrf_memobj_free+0x2e>
    143e:	4602      	mov	r2, r0
    1440:	2300      	movs	r3, #0
    1442:	6812      	ldr	r2, [r2, #0]
    1444:	3301      	adds	r3, #1
    1446:	4299      	cmp	r1, r3
    1448:	d1fb      	bne.n	1442 <nrf_memobj_free+0xe>
    144a:	6817      	ldr	r7, [r2, #0]
    144c:	b146      	cbz	r6, 1460 <nrf_memobj_free+0x2c>
    144e:	2500      	movs	r5, #0
    1450:	4621      	mov	r1, r4
    1452:	6824      	ldr	r4, [r4, #0]
    1454:	4638      	mov	r0, r7
    1456:	f7ff fd55 	bl	f04 <nrf_balloc_free>
    145a:	3501      	adds	r5, #1
    145c:	42ae      	cmp	r6, r5
    145e:	d8f7      	bhi.n	1450 <nrf_memobj_free+0x1c>
    1460:	bdf8      	pop	{r3, r4, r5, r6, r7, pc}
    1462:	4601      	mov	r1, r0
    1464:	6800      	ldr	r0, [r0, #0]
    1466:	f7ff fd4d 	bl	f04 <nrf_balloc_free>
    146a:	e7f9      	b.n	1460 <nrf_memobj_free+0x2c>

0000146c <nrf_memobj_alloc>:
    146c:	e92d 43f8 	stmdb	sp!, {r3, r4, r5, r6, r7, r8, r9, lr}
    1470:	4607      	mov	r7, r0
    1472:	8a04      	ldrh	r4, [r0, #16]
    1474:	1f23      	subs	r3, r4, #4
    1476:	f101 0803 	add.w	r8, r1, #3
    147a:	4498      	add	r8, r3
    147c:	fbb8 f8f3 	udiv	r8, r8, r3
    1480:	f7ff fd1e 	bl	ec0 <nrf_balloc_alloc>
    1484:	4606      	mov	r6, r0
    1486:	b308      	cbz	r0, 14cc <nrf_memobj_alloc+0x60>
    1488:	2300      	movs	r3, #0
    148a:	7103      	strb	r3, [r0, #4]
    148c:	2301      	movs	r3, #1
    148e:	7143      	strb	r3, [r0, #5]
    1490:	3c04      	subs	r4, #4
    1492:	80c4      	strh	r4, [r0, #6]
    1494:	fa5f f888 	uxtb.w	r8, r8
    1498:	6007      	str	r7, [r0, #0]
    149a:	f1b8 0801 	subs.w	r8, r8, #1
    149e:	d015      	beq.n	14cc <nrf_memobj_alloc+0x60>
    14a0:	4604      	mov	r4, r0
    14a2:	2500      	movs	r5, #0
    14a4:	46a1      	mov	r9, r4
    14a6:	4638      	mov	r0, r7
    14a8:	f7ff fd0a 	bl	ec0 <nrf_balloc_alloc>
    14ac:	4604      	mov	r4, r0
    14ae:	b148      	cbz	r0, 14c4 <nrf_memobj_alloc+0x58>
    14b0:	7973      	ldrb	r3, [r6, #5]
    14b2:	3301      	adds	r3, #1
    14b4:	7173      	strb	r3, [r6, #5]
    14b6:	f8c9 0000 	str.w	r0, [r9]
    14ba:	6007      	str	r7, [r0, #0]
    14bc:	3501      	adds	r5, #1
    14be:	45a8      	cmp	r8, r5
    14c0:	d1f0      	bne.n	14a4 <nrf_memobj_alloc+0x38>
    14c2:	e003      	b.n	14cc <nrf_memobj_alloc+0x60>
    14c4:	4630      	mov	r0, r6
    14c6:	f7ff ffb5 	bl	1434 <nrf_memobj_free>
    14ca:	4626      	mov	r6, r4
    14cc:	4630      	mov	r0, r6
    14ce:	e8bd 83f8 	ldmia.w	sp!, {r3, r4, r5, r6, r7, r8, r9, pc}

000014d2 <nrf_memobj_get>:
    14d2:	b508      	push	{r3, lr}
    14d4:	2101      	movs	r1, #1
    14d6:	3004      	adds	r0, #4
    14d8:	f7ff fcb6 	bl	e48 <nrf_atomic_u32_add>
    14dc:	bd08      	pop	{r3, pc}

000014de <nrf_memobj_put>:
    14de:	b510      	push	{r4, lr}
    14e0:	4604      	mov	r4, r0
    14e2:	2101      	movs	r1, #1
    14e4:	3004      	adds	r0, #4
    14e6:	f7ff fcba 	bl	e5e <nrf_atomic_u32_sub>
    14ea:	f010 0fff 	tst.w	r0, #255	; 0xff
    14ee:	d000      	beq.n	14f2 <nrf_memobj_put+0x14>
    14f0:	bd10      	pop	{r4, pc}
    14f2:	4620      	mov	r0, r4
    14f4:	f7ff ff9e 	bl	1434 <nrf_memobj_free>
    14f8:	e7fa      	b.n	14f0 <nrf_memobj_put+0x12>

000014fa <nrf_memobj_write>:
    14fa:	b500      	push	{lr}
    14fc:	b085      	sub	sp, #20
    14fe:	9203      	str	r2, [sp, #12]
    1500:	2200      	movs	r2, #0
    1502:	9200      	str	r2, [sp, #0]
    1504:	aa03      	add	r2, sp, #12
    1506:	f7ff ff4f 	bl	13a8 <memobj_op>
    150a:	b005      	add	sp, #20
    150c:	f85d fb04 	ldr.w	pc, [sp], #4

00001510 <nrf_memobj_read>:
    1510:	b500      	push	{lr}
    1512:	b085      	sub	sp, #20
    1514:	9203      	str	r2, [sp, #12]
    1516:	2201      	movs	r2, #1
    1518:	9200      	str	r2, [sp, #0]
    151a:	aa03      	add	r2, sp, #12
    151c:	f7ff ff44 	bl	13a8 <memobj_op>
    1520:	b005      	add	sp, #20
    1522:	f85d fb04 	ldr.w	pc, [sp], #4

00001526 <nrf_ringbuf_init>:
    1526:	6882      	ldr	r2, [r0, #8]
    1528:	2300      	movs	r3, #0
    152a:	6093      	str	r3, [r2, #8]
    152c:	6882      	ldr	r2, [r0, #8]
    152e:	6113      	str	r3, [r2, #16]
    1530:	6882      	ldr	r2, [r0, #8]
    1532:	6153      	str	r3, [r2, #20]
    1534:	6882      	ldr	r2, [r0, #8]
    1536:	60d3      	str	r3, [r2, #12]
    1538:	6882      	ldr	r2, [r0, #8]
    153a:	6053      	str	r3, [r2, #4]
    153c:	6882      	ldr	r2, [r0, #8]
    153e:	6013      	str	r3, [r2, #0]
    1540:	4770      	bx	lr
	...

00001544 <twim_evt_handler>:
    1544:	b500      	push	{lr}
    1546:	b085      	sub	sp, #20
    1548:	7803      	ldrb	r3, [r0, #0]
    154a:	f88d 3000 	strb.w	r3, [sp]
    154e:	7903      	ldrb	r3, [r0, #4]
    1550:	f88d 3004 	strb.w	r3, [sp, #4]
    1554:	7943      	ldrb	r3, [r0, #5]
    1556:	f88d 3005 	strb.w	r3, [sp, #5]
    155a:	6883      	ldr	r3, [r0, #8]
    155c:	f88d 3006 	strb.w	r3, [sp, #6]
    1560:	68c3      	ldr	r3, [r0, #12]
    1562:	f88d 3007 	strb.w	r3, [sp, #7]
    1566:	6903      	ldr	r3, [r0, #16]
    1568:	9302      	str	r3, [sp, #8]
    156a:	6943      	ldr	r3, [r0, #20]
    156c:	9303      	str	r3, [sp, #12]
    156e:	4b05      	ldr	r3, [pc, #20]	; (1584 <twim_evt_handler+0x40>)
    1570:	f853 3021 	ldr.w	r3, [r3, r1, lsl #2]
    1574:	4a04      	ldr	r2, [pc, #16]	; (1588 <twim_evt_handler+0x44>)
    1576:	f852 1021 	ldr.w	r1, [r2, r1, lsl #2]
    157a:	4668      	mov	r0, sp
    157c:	4798      	blx	r3
    157e:	b005      	add	sp, #20
    1580:	f85d fb04 	ldr.w	pc, [sp], #4
    1584:	20000624 	.word	0x20000624
    1588:	2000061c 	.word	0x2000061c

0000158c <nrf_drv_twi_init>:
    158c:	e92d 4ff0 	stmdb	sp!, {r4, r5, r6, r7, r8, r9, sl, fp, lr}
    1590:	b083      	sub	sp, #12
    1592:	9001      	str	r0, [sp, #4]
    1594:	460c      	mov	r4, r1
    1596:	4617      	mov	r7, r2
    1598:	f890 b000 	ldrb.w	fp, [r0]
    159c:	4a38      	ldr	r2, [pc, #224]	; (1680 <nrf_drv_twi_init+0xf4>)
    159e:	f842 702b 	str.w	r7, [r2, fp, lsl #2]
    15a2:	4a38      	ldr	r2, [pc, #224]	; (1684 <nrf_drv_twi_init+0xf8>)
    15a4:	f842 302b 	str.w	r3, [r2, fp, lsl #2]
    15a8:	7b4b      	ldrb	r3, [r1, #13]
    15aa:	b963      	cbnz	r3, 15c6 <nrf_drv_twi_init+0x3a>
    15ac:	2f00      	cmp	r7, #0
    15ae:	465b      	mov	r3, fp
    15b0:	4a35      	ldr	r2, [pc, #212]	; (1688 <nrf_drv_twi_init+0xfc>)
    15b2:	bf08      	it	eq
    15b4:	463a      	moveq	r2, r7
    15b6:	4621      	mov	r1, r4
    15b8:	9801      	ldr	r0, [sp, #4]
    15ba:	3004      	adds	r0, #4
    15bc:	f000 fa4a 	bl	1a54 <nrfx_twim_init>
    15c0:	b003      	add	sp, #12
    15c2:	e8bd 8ff0 	ldmia.w	sp!, {r4, r5, r6, r7, r8, r9, sl, fp, pc}
    15c6:	680a      	ldr	r2, [r1, #0]
    15c8:	f04f 43a0 	mov.w	r3, #1342177280	; 0x50000000
    15cc:	f502 72e0 	add.w	r2, r2, #448	; 0x1c0
    15d0:	f240 610c 	movw	r1, #1548	; 0x60c
    15d4:	f843 1022 	str.w	r1, [r3, r2, lsl #2]
    15d8:	6862      	ldr	r2, [r4, #4]
    15da:	f502 72e0 	add.w	r2, r2, #448	; 0x1c0
    15de:	f843 1022 	str.w	r1, [r3, r2, lsl #2]
    15e2:	2201      	movs	r2, #1
    15e4:	6821      	ldr	r1, [r4, #0]
    15e6:	fa02 f101 	lsl.w	r1, r2, r1
    15ea:	f8c3 1508 	str.w	r1, [r3, #1288]	; 0x508
    15ee:	6861      	ldr	r1, [r4, #4]
    15f0:	408a      	lsls	r2, r1
    15f2:	f8c3 2508 	str.w	r2, [r3, #1288]	; 0x508
    15f6:	6822      	ldr	r2, [r4, #0]
    15f8:	f502 72e0 	add.w	r2, r2, #448	; 0x1c0
    15fc:	f240 610d 	movw	r1, #1549	; 0x60d
    1600:	f843 1022 	str.w	r1, [r3, r2, lsl #2]
    1604:	6862      	ldr	r2, [r4, #4]
    1606:	f502 72e0 	add.w	r2, r2, #448	; 0x1c0
    160a:	f843 1022 	str.w	r1, [r3, r2, lsl #2]
    160e:	4b1f      	ldr	r3, [pc, #124]	; (168c <nrf_drv_twi_init+0x100>)
    1610:	f043 0801 	orr.w	r8, r3, #1
    1614:	f44f 7080 	mov.w	r0, #256	; 0x100
    1618:	47c0      	blx	r8
    161a:	2600      	movs	r6, #0
    161c:	f04f 45a0 	mov.w	r5, #1342177280	; 0x50000000
    1620:	f04f 0a01 	mov.w	sl, #1
    1624:	f44f 7980 	mov.w	r9, #256	; 0x100
    1628:	f8d5 3510 	ldr.w	r3, [r5, #1296]	; 0x510
    162c:	6862      	ldr	r2, [r4, #4]
    162e:	40d3      	lsrs	r3, r2
    1630:	f013 0f01 	tst.w	r3, #1
    1634:	d120      	bne.n	1678 <nrf_drv_twi_init+0xec>
    1636:	6823      	ldr	r3, [r4, #0]
    1638:	fa0a f303 	lsl.w	r3, sl, r3
    163c:	f8c5 350c 	str.w	r3, [r5, #1292]	; 0x50c
    1640:	4648      	mov	r0, r9
    1642:	47c0      	blx	r8
    1644:	6823      	ldr	r3, [r4, #0]
    1646:	fa0a f303 	lsl.w	r3, sl, r3
    164a:	f8c5 3508 	str.w	r3, [r5, #1288]	; 0x508
    164e:	4648      	mov	r0, r9
    1650:	47c0      	blx	r8
    1652:	3601      	adds	r6, #1
    1654:	2e09      	cmp	r6, #9
    1656:	d1e7      	bne.n	1628 <nrf_drv_twi_init+0x9c>
    1658:	2501      	movs	r5, #1
    165a:	6863      	ldr	r3, [r4, #4]
    165c:	fa05 f303 	lsl.w	r3, r5, r3
    1660:	f04f 46a0 	mov.w	r6, #1342177280	; 0x50000000
    1664:	f8c6 350c 	str.w	r3, [r6, #1292]	; 0x50c
    1668:	f44f 7080 	mov.w	r0, #256	; 0x100
    166c:	47c0      	blx	r8
    166e:	6863      	ldr	r3, [r4, #4]
    1670:	409d      	lsls	r5, r3
    1672:	f8c6 5508 	str.w	r5, [r6, #1288]	; 0x508
    1676:	e799      	b.n	15ac <nrf_drv_twi_init+0x20>
    1678:	2e00      	cmp	r6, #0
    167a:	d1ed      	bne.n	1658 <nrf_drv_twi_init+0xcc>
    167c:	e796      	b.n	15ac <nrf_drv_twi_init+0x20>
    167e:	bf00      	nop
    1680:	20000624 	.word	0x20000624
    1684:	2000061c 	.word	0x2000061c
    1688:	00001545 	.word	0x00001545
    168c:	00003290 	.word	0x00003290

00001690 <uarte_evt_handler>:
    1690:	b500      	push	{lr}
    1692:	b085      	sub	sp, #20
    1694:	7803      	ldrb	r3, [r0, #0]
    1696:	f88d 3000 	strb.w	r3, [sp]
    169a:	6843      	ldr	r3, [r0, #4]
    169c:	9301      	str	r3, [sp, #4]
    169e:	6883      	ldr	r3, [r0, #8]
    16a0:	f88d 3008 	strb.w	r3, [sp, #8]
    16a4:	68c3      	ldr	r3, [r0, #12]
    16a6:	9303      	str	r3, [sp, #12]
    16a8:	4b05      	ldr	r3, [pc, #20]	; (16c0 <uarte_evt_handler+0x30>)
    16aa:	f853 3021 	ldr.w	r3, [r3, r1, lsl #2]
    16ae:	4a05      	ldr	r2, [pc, #20]	; (16c4 <uarte_evt_handler+0x34>)
    16b0:	f852 1021 	ldr.w	r1, [r2, r1, lsl #2]
    16b4:	4668      	mov	r0, sp
    16b6:	4798      	blx	r3
    16b8:	b005      	add	sp, #20
    16ba:	f85d fb04 	ldr.w	pc, [sp], #4
    16be:	bf00      	nop
    16c0:	20000630 	.word	0x20000630
    16c4:	2000062c 	.word	0x2000062c

000016c8 <uart_evt_handler>:
    16c8:	b500      	push	{lr}
    16ca:	b085      	sub	sp, #20
    16cc:	7803      	ldrb	r3, [r0, #0]
    16ce:	f88d 3000 	strb.w	r3, [sp]
    16d2:	6843      	ldr	r3, [r0, #4]
    16d4:	9301      	str	r3, [sp, #4]
    16d6:	6883      	ldr	r3, [r0, #8]
    16d8:	f88d 3008 	strb.w	r3, [sp, #8]
    16dc:	68c3      	ldr	r3, [r0, #12]
    16de:	9303      	str	r3, [sp, #12]
    16e0:	4b05      	ldr	r3, [pc, #20]	; (16f8 <uart_evt_handler+0x30>)
    16e2:	f853 3021 	ldr.w	r3, [r3, r1, lsl #2]
    16e6:	4a05      	ldr	r2, [pc, #20]	; (16fc <uart_evt_handler+0x34>)
    16e8:	f852 1021 	ldr.w	r1, [r2, r1, lsl #2]
    16ec:	4668      	mov	r0, sp
    16ee:	4798      	blx	r3
    16f0:	b005      	add	sp, #20
    16f2:	f85d fb04 	ldr.w	pc, [sp], #4
    16f6:	bf00      	nop
    16f8:	20000630 	.word	0x20000630
    16fc:	2000062c 	.word	0x2000062c

00001700 <nrf_drv_uart_init>:
    1700:	b5f0      	push	{r4, r5, r6, r7, lr}
    1702:	b089      	sub	sp, #36	; 0x24
    1704:	4605      	mov	r5, r0
    1706:	468c      	mov	ip, r1
    1708:	4614      	mov	r4, r2
    170a:	7806      	ldrb	r6, [r0, #0]
    170c:	4b14      	ldr	r3, [pc, #80]	; (1760 <nrf_drv_uart_init+0x60>)
    170e:	f843 2026 	str.w	r2, [r3, r6, lsl #2]
    1712:	690a      	ldr	r2, [r1, #16]
    1714:	4b13      	ldr	r3, [pc, #76]	; (1764 <nrf_drv_uart_init+0x64>)
    1716:	f843 2026 	str.w	r2, [r3, r6, lsl #2]
    171a:	7f4f      	ldrb	r7, [r1, #29]
    171c:	4b12      	ldr	r3, [pc, #72]	; (1768 <nrf_drv_uart_init+0x68>)
    171e:	559f      	strb	r7, [r3, r6]
    1720:	46ee      	mov	lr, sp
    1722:	e8bc 000f 	ldmia.w	ip!, {r0, r1, r2, r3}
    1726:	e8ae 000f 	stmia.w	lr!, {r0, r1, r2, r3}
    172a:	e89c 000f 	ldmia.w	ip, {r0, r1, r2, r3}
    172e:	e88e 000f 	stmia.w	lr, {r0, r1, r2, r3}
    1732:	9604      	str	r6, [sp, #16]
    1734:	b14f      	cbz	r7, 174a <nrf_drv_uart_init+0x4a>
    1736:	2c00      	cmp	r4, #0
    1738:	4a0c      	ldr	r2, [pc, #48]	; (176c <nrf_drv_uart_init+0x6c>)
    173a:	bf08      	it	eq
    173c:	4622      	moveq	r2, r4
    173e:	4669      	mov	r1, sp
    1740:	1d28      	adds	r0, r5, #4
    1742:	f000 ff4d 	bl	25e0 <nrfx_uarte_init>
    1746:	b009      	add	sp, #36	; 0x24
    1748:	bdf0      	pop	{r4, r5, r6, r7, pc}
    174a:	2c00      	cmp	r4, #0
    174c:	4a08      	ldr	r2, [pc, #32]	; (1770 <nrf_drv_uart_init+0x70>)
    174e:	bf08      	it	eq
    1750:	4622      	moveq	r2, r4
    1752:	4669      	mov	r1, sp
    1754:	f105 000c 	add.w	r0, r5, #12
    1758:	f000 fce2 	bl	2120 <nrfx_uart_init>
    175c:	e7f3      	b.n	1746 <nrf_drv_uart_init+0x46>
    175e:	bf00      	nop
    1760:	20000630 	.word	0x20000630
    1764:	2000062c 	.word	0x2000062c
    1768:	20000634 	.word	0x20000634
    176c:	00001691 	.word	0x00001691
    1770:	000016c9 	.word	0x000016c9

00001774 <UARTE0_UART0_IRQHandler>:
    1774:	b508      	push	{r3, lr}
    1776:	4b02      	ldr	r3, [pc, #8]	; (1780 <UARTE0_UART0_IRQHandler+0xc>)
    1778:	681b      	ldr	r3, [r3, #0]
    177a:	4798      	blx	r3
    177c:	bd08      	pop	{r3, pc}
    177e:	bf00      	nop
    1780:	20000638 	.word	0x20000638

00001784 <nrfx_prs_acquire>:
    1784:	4b0d      	ldr	r3, [pc, #52]	; (17bc <nrfx_prs_acquire+0x38>)
    1786:	4298      	cmp	r0, r3
    1788:	d110      	bne.n	17ac <nrfx_prs_acquire+0x28>
    178a:	b510      	push	{r4, lr}
    178c:	460c      	mov	r4, r1
    178e:	2000      	movs	r0, #0
    1790:	f7ff fb32 	bl	df8 <app_util_critical_region_enter>
    1794:	4b0a      	ldr	r3, [pc, #40]	; (17c0 <nrfx_prs_acquire+0x3c>)
    1796:	791b      	ldrb	r3, [r3, #4]
    1798:	b953      	cbnz	r3, 17b0 <nrfx_prs_acquire+0x2c>
    179a:	4b09      	ldr	r3, [pc, #36]	; (17c0 <nrfx_prs_acquire+0x3c>)
    179c:	601c      	str	r4, [r3, #0]
    179e:	2201      	movs	r2, #1
    17a0:	711a      	strb	r2, [r3, #4]
    17a2:	2000      	movs	r0, #0
    17a4:	f7ff fb2c 	bl	e00 <app_util_critical_region_exit>
    17a8:	2000      	movs	r0, #0
    17aa:	bd10      	pop	{r4, pc}
    17ac:	2000      	movs	r0, #0
    17ae:	4770      	bx	lr
    17b0:	2000      	movs	r0, #0
    17b2:	f7ff fb25 	bl	e00 <app_util_critical_region_exit>
    17b6:	2011      	movs	r0, #17
    17b8:	e7f7      	b.n	17aa <nrfx_prs_acquire+0x26>
    17ba:	bf00      	nop
    17bc:	40002000 	.word	0x40002000
    17c0:	20000638 	.word	0x20000638

000017c4 <nrfx_prs_release>:
    17c4:	4b03      	ldr	r3, [pc, #12]	; (17d4 <nrfx_prs_release+0x10>)
    17c6:	4298      	cmp	r0, r3
    17c8:	d103      	bne.n	17d2 <nrfx_prs_release+0xe>
    17ca:	4b03      	ldr	r3, [pc, #12]	; (17d8 <nrfx_prs_release+0x14>)
    17cc:	2200      	movs	r2, #0
    17ce:	601a      	str	r2, [r3, #0]
    17d0:	711a      	strb	r2, [r3, #4]
    17d2:	4770      	bx	lr
    17d4:	40002000 	.word	0x40002000
    17d8:	20000638 	.word	0x20000638

000017dc <xfer_completeness_check>:
    17dc:	4603      	mov	r3, r0
    17de:	7b0a      	ldrb	r2, [r1, #12]
    17e0:	2a03      	cmp	r2, #3
    17e2:	d838      	bhi.n	1856 <xfer_completeness_check+0x7a>
    17e4:	e8df f002 	tbb	[pc, r2]
    17e8:	02163029 	.word	0x02163029
    17ec:	688a      	ldr	r2, [r1, #8]
    17ee:	f412 2f80 	tst.w	r2, #262144	; 0x40000
    17f2:	d004      	beq.n	17fe <xfer_completeness_check+0x22>
    17f4:	f8d3 254c 	ldr.w	r2, [r3, #1356]	; 0x54c
    17f8:	6908      	ldr	r0, [r1, #16]
    17fa:	4290      	cmp	r0, r2
    17fc:	d10f      	bne.n	181e <xfer_completeness_check+0x42>
    17fe:	688a      	ldr	r2, [r1, #8]
    1800:	f412 2f80 	tst.w	r2, #262144	; 0x40000
    1804:	d129      	bne.n	185a <xfer_completeness_check+0x7e>
    1806:	f8d3 254c 	ldr.w	r2, [r3, #1356]	; 0x54c
    180a:	6949      	ldr	r1, [r1, #20]
    180c:	4291      	cmp	r1, r2
    180e:	d106      	bne.n	181e <xfer_completeness_check+0x42>
    1810:	2001      	movs	r0, #1
    1812:	4770      	bx	lr
    1814:	f8d3 254c 	ldr.w	r2, [r3, #1356]	; 0x54c
    1818:	6908      	ldr	r0, [r1, #16]
    181a:	4290      	cmp	r0, r2
    181c:	d006      	beq.n	182c <xfer_completeness_check+0x50>
    181e:	2000      	movs	r0, #0
    1820:	f8c3 0500 	str.w	r0, [r3, #1280]	; 0x500
    1824:	2206      	movs	r2, #6
    1826:	f8c3 2500 	str.w	r2, [r3, #1280]	; 0x500
    182a:	4770      	bx	lr
    182c:	f8d3 253c 	ldr.w	r2, [r3, #1340]	; 0x53c
    1830:	6949      	ldr	r1, [r1, #20]
    1832:	4291      	cmp	r1, r2
    1834:	d1f3      	bne.n	181e <xfer_completeness_check+0x42>
    1836:	2001      	movs	r0, #1
    1838:	4770      	bx	lr
    183a:	f8d3 254c 	ldr.w	r2, [r3, #1356]	; 0x54c
    183e:	6909      	ldr	r1, [r1, #16]
    1840:	4291      	cmp	r1, r2
    1842:	d1ec      	bne.n	181e <xfer_completeness_check+0x42>
    1844:	2001      	movs	r0, #1
    1846:	4770      	bx	lr
    1848:	f8d3 253c 	ldr.w	r2, [r3, #1340]	; 0x53c
    184c:	6909      	ldr	r1, [r1, #16]
    184e:	4291      	cmp	r1, r2
    1850:	d1e5      	bne.n	181e <xfer_completeness_check+0x42>
    1852:	2001      	movs	r0, #1
    1854:	4770      	bx	lr
    1856:	2001      	movs	r0, #1
    1858:	4770      	bx	lr
    185a:	2001      	movs	r0, #1
    185c:	4770      	bx	lr
	...

00001860 <SPIM0_SPIS0_TWIM0_TWIS0_SPI0_TWI0_IRQHandler>:
    1860:	b530      	push	{r4, r5, lr}
    1862:	b08d      	sub	sp, #52	; 0x34
    1864:	4b77      	ldr	r3, [pc, #476]	; (1a44 <SPIM0_SPIS0_TWIM0_TWIS0_SPI0_TWI0_IRQHandler+0x1e4>)
    1866:	f8d3 3124 	ldr.w	r3, [r3, #292]	; 0x124
    186a:	b15b      	cbz	r3, 1884 <SPIM0_SPIS0_TWIM0_TWIS0_SPI0_TWI0_IRQHandler+0x24>
    186c:	4b75      	ldr	r3, [pc, #468]	; (1a44 <SPIM0_SPIS0_TWIM0_TWIS0_SPI0_TWI0_IRQHandler+0x1e4>)
    186e:	2200      	movs	r2, #0
    1870:	f8c3 2124 	str.w	r2, [r3, #292]	; 0x124
    1874:	f8d3 2124 	ldr.w	r2, [r3, #292]	; 0x124
    1878:	9205      	str	r2, [sp, #20]
    187a:	9a05      	ldr	r2, [sp, #20]
    187c:	f8d3 3104 	ldr.w	r3, [r3, #260]	; 0x104
    1880:	2b00      	cmp	r3, #0
    1882:	d05c      	beq.n	193e <SPIM0_SPIS0_TWIM0_TWIS0_SPI0_TWI0_IRQHandler+0xde>
    1884:	4b6f      	ldr	r3, [pc, #444]	; (1a44 <SPIM0_SPIS0_TWIM0_TWIS0_SPI0_TWI0_IRQHandler+0x1e4>)
    1886:	f8d3 3104 	ldr.w	r3, [r3, #260]	; 0x104
    188a:	2b00      	cmp	r3, #0
    188c:	d07d      	beq.n	198a <SPIM0_SPIS0_TWIM0_TWIS0_SPI0_TWI0_IRQHandler+0x12a>
    188e:	4b6d      	ldr	r3, [pc, #436]	; (1a44 <SPIM0_SPIS0_TWIM0_TWIS0_SPI0_TWI0_IRQHandler+0x1e4>)
    1890:	2200      	movs	r2, #0
    1892:	f8c3 2104 	str.w	r2, [r3, #260]	; 0x104
    1896:	f8d3 3104 	ldr.w	r3, [r3, #260]	; 0x104
    189a:	9304      	str	r3, [sp, #16]
    189c:	9b04      	ldr	r3, [sp, #16]
    189e:	4b6a      	ldr	r3, [pc, #424]	; (1a48 <SPIM0_SPIS0_TWIM0_TWIS0_SPI0_TWI0_IRQHandler+0x1e8>)
    18a0:	6a1c      	ldr	r4, [r3, #32]
    18a2:	f014 0f40 	tst.w	r4, #64	; 0x40
    18a6:	d103      	bne.n	18b0 <SPIM0_SPIS0_TWIM0_TWIS0_SPI0_TWI0_IRQHandler+0x50>
    18a8:	f893 302e 	ldrb.w	r3, [r3, #46]	; 0x2e
    18ac:	2b00      	cmp	r3, #0
    18ae:	d062      	beq.n	1976 <SPIM0_SPIS0_TWIM0_TWIS0_SPI0_TWI0_IRQHandler+0x116>
    18b0:	f014 0f04 	tst.w	r4, #4
    18b4:	d12d      	bne.n	1912 <SPIM0_SPIS0_TWIM0_TWIS0_SPI0_TWI0_IRQHandler+0xb2>
    18b6:	4c64      	ldr	r4, [pc, #400]	; (1a48 <SPIM0_SPIS0_TWIM0_TWIS0_SPI0_TWI0_IRQHandler+0x1e8>)
    18b8:	f10d 0c1c 	add.w	ip, sp, #28
    18bc:	f104 0e0c 	add.w	lr, r4, #12
    18c0:	e8be 000f 	ldmia.w	lr!, {r0, r1, r2, r3}
    18c4:	e8ac 000f 	stmia.w	ip!, {r0, r1, r2, r3}
    18c8:	f8de 3000 	ldr.w	r3, [lr]
    18cc:	f8cc 3000 	str.w	r3, [ip]
    18d0:	4b5c      	ldr	r3, [pc, #368]	; (1a44 <SPIM0_SPIS0_TWIM0_TWIS0_SPI0_TWI0_IRQHandler+0x1e4>)
    18d2:	2200      	movs	r2, #0
    18d4:	f8c3 2160 	str.w	r2, [r3, #352]	; 0x160
    18d8:	f8d3 1160 	ldr.w	r1, [r3, #352]	; 0x160
    18dc:	9102      	str	r1, [sp, #8]
    18de:	9902      	ldr	r1, [sp, #8]
    18e0:	f8c3 215c 	str.w	r2, [r3, #348]	; 0x15c
    18e4:	f8d3 315c 	ldr.w	r3, [r3, #348]	; 0x15c
    18e8:	9303      	str	r3, [sp, #12]
    18ea:	9b03      	ldr	r3, [sp, #12]
    18ec:	f894 3030 	ldrb.w	r3, [r4, #48]	; 0x30
    18f0:	b113      	cbz	r3, 18f8 <SPIM0_SPIS0_TWIM0_TWIS0_SPI0_TWI0_IRQHandler+0x98>
    18f2:	f894 302e 	ldrb.w	r3, [r4, #46]	; 0x2e
    18f6:	b163      	cbz	r3, 1912 <SPIM0_SPIS0_TWIM0_TWIS0_SPI0_TWI0_IRQHandler+0xb2>
    18f8:	4b52      	ldr	r3, [pc, #328]	; (1a44 <SPIM0_SPIS0_TWIM0_TWIS0_SPI0_TWI0_IRQHandler+0x1e4>)
    18fa:	2200      	movs	r2, #0
    18fc:	f8c3 2200 	str.w	r2, [r3, #512]	; 0x200
    1900:	4951      	ldr	r1, [pc, #324]	; (1a48 <SPIM0_SPIS0_TWIM0_TWIS0_SPI0_TWI0_IRQHandler+0x1e8>)
    1902:	608a      	str	r2, [r1, #8]
    1904:	4a51      	ldr	r2, [pc, #324]	; (1a4c <SPIM0_SPIS0_TWIM0_TWIS0_SPI0_TWI0_IRQHandler+0x1ec>)
    1906:	f8c3 2308 	str.w	r2, [r3, #776]	; 0x308
    190a:	4b51      	ldr	r3, [pc, #324]	; (1a50 <SPIM0_SPIS0_TWIM0_TWIS0_SPI0_TWI0_IRQHandler+0x1f0>)
    190c:	2208      	movs	r2, #8
    190e:	f8c3 2180 	str.w	r2, [r3, #384]	; 0x180
    1912:	4a4c      	ldr	r2, [pc, #304]	; (1a44 <SPIM0_SPIS0_TWIM0_TWIS0_SPI0_TWI0_IRQHandler+0x1e4>)
    1914:	f8d2 34c4 	ldr.w	r3, [r2, #1220]	; 0x4c4
    1918:	f8c2 34c4 	str.w	r3, [r2, #1220]	; 0x4c4
    191c:	f013 0f02 	tst.w	r3, #2
    1920:	d170      	bne.n	1a04 <SPIM0_SPIS0_TWIM0_TWIS0_SPI0_TWI0_IRQHandler+0x1a4>
    1922:	f013 0f04 	tst.w	r3, #4
    1926:	f040 8088 	bne.w	1a3a <SPIM0_SPIS0_TWIM0_TWIS0_SPI0_TWI0_IRQHandler+0x1da>
    192a:	f013 0f01 	tst.w	r3, #1
    192e:	f040 8086 	bne.w	1a3e <SPIM0_SPIS0_TWIM0_TWIS0_SPI0_TWI0_IRQHandler+0x1de>
    1932:	4b45      	ldr	r3, [pc, #276]	; (1a48 <SPIM0_SPIS0_TWIM0_TWIS0_SPI0_TWI0_IRQHandler+0x1e8>)
    1934:	f893 302e 	ldrb.w	r3, [r3, #46]	; 0x2e
    1938:	009b      	lsls	r3, r3, #2
    193a:	b2db      	uxtb	r3, r3
    193c:	e063      	b.n	1a06 <SPIM0_SPIS0_TWIM0_TWIS0_SPI0_TWI0_IRQHandler+0x1a6>
    193e:	4a42      	ldr	r2, [pc, #264]	; (1a48 <SPIM0_SPIS0_TWIM0_TWIS0_SPI0_TWI0_IRQHandler+0x1e8>)
    1940:	6891      	ldr	r1, [r2, #8]
    1942:	4b40      	ldr	r3, [pc, #256]	; (1a44 <SPIM0_SPIS0_TWIM0_TWIS0_SPI0_TWI0_IRQHandler+0x1e4>)
    1944:	f8c3 1308 	str.w	r1, [r3, #776]	; 0x308
    1948:	2102      	movs	r1, #2
    194a:	6091      	str	r1, [r2, #8]
    194c:	6892      	ldr	r2, [r2, #8]
    194e:	f8c3 2304 	str.w	r2, [r3, #772]	; 0x304
    1952:	f8d3 3160 	ldr.w	r3, [r3, #352]	; 0x160
    1956:	b12b      	cbz	r3, 1964 <SPIM0_SPIS0_TWIM0_TWIS0_SPI0_TWI0_IRQHandler+0x104>
    1958:	4b3a      	ldr	r3, [pc, #232]	; (1a44 <SPIM0_SPIS0_TWIM0_TWIS0_SPI0_TWI0_IRQHandler+0x1e4>)
    195a:	f8d3 3200 	ldr.w	r3, [r3, #512]	; 0x200
    195e:	f413 7f00 	tst.w	r3, #512	; 0x200
    1962:	d103      	bne.n	196c <SPIM0_SPIS0_TWIM0_TWIS0_SPI0_TWI0_IRQHandler+0x10c>
    1964:	4b37      	ldr	r3, [pc, #220]	; (1a44 <SPIM0_SPIS0_TWIM0_TWIS0_SPI0_TWI0_IRQHandler+0x1e4>)
    1966:	2201      	movs	r2, #1
    1968:	621a      	str	r2, [r3, #32]
    196a:	615a      	str	r2, [r3, #20]
    196c:	4b36      	ldr	r3, [pc, #216]	; (1a48 <SPIM0_SPIS0_TWIM0_TWIS0_SPI0_TWI0_IRQHandler+0x1e8>)
    196e:	2201      	movs	r2, #1
    1970:	f883 202e 	strb.w	r2, [r3, #46]	; 0x2e
    1974:	e05f      	b.n	1a36 <SPIM0_SPIS0_TWIM0_TWIS0_SPI0_TWI0_IRQHandler+0x1d6>
    1976:	4d34      	ldr	r5, [pc, #208]	; (1a48 <SPIM0_SPIS0_TWIM0_TWIS0_SPI0_TWI0_IRQHandler+0x1e8>)
    1978:	4629      	mov	r1, r5
    197a:	4832      	ldr	r0, [pc, #200]	; (1a44 <SPIM0_SPIS0_TWIM0_TWIS0_SPI0_TWI0_IRQHandler+0x1e4>)
    197c:	f7ff ff2e 	bl	17dc <xfer_completeness_check>
    1980:	f080 0001 	eor.w	r0, r0, #1
    1984:	f885 002e 	strb.w	r0, [r5, #46]	; 0x2e
    1988:	e792      	b.n	18b0 <SPIM0_SPIS0_TWIM0_TWIS0_SPI0_TWI0_IRQHandler+0x50>
    198a:	4b2e      	ldr	r3, [pc, #184]	; (1a44 <SPIM0_SPIS0_TWIM0_TWIS0_SPI0_TWI0_IRQHandler+0x1e4>)
    198c:	2200      	movs	r2, #0
    198e:	f8c3 2148 	str.w	r2, [r3, #328]	; 0x148
    1992:	f8d3 3148 	ldr.w	r3, [r3, #328]	; 0x148
    1996:	9301      	str	r3, [sp, #4]
    1998:	9b01      	ldr	r3, [sp, #4]
    199a:	4b2b      	ldr	r3, [pc, #172]	; (1a48 <SPIM0_SPIS0_TWIM0_TWIS0_SPI0_TWI0_IRQHandler+0x1e8>)
    199c:	7b1b      	ldrb	r3, [r3, #12]
    199e:	b9eb      	cbnz	r3, 19dc <SPIM0_SPIS0_TWIM0_TWIS0_SPI0_TWI0_IRQHandler+0x17c>
    19a0:	4c29      	ldr	r4, [pc, #164]	; (1a48 <SPIM0_SPIS0_TWIM0_TWIS0_SPI0_TWI0_IRQHandler+0x1e8>)
    19a2:	f10d 0c1c 	add.w	ip, sp, #28
    19a6:	f104 0e0c 	add.w	lr, r4, #12
    19aa:	e8be 000f 	ldmia.w	lr!, {r0, r1, r2, r3}
    19ae:	e8ac 000f 	stmia.w	ip!, {r0, r1, r2, r3}
    19b2:	f8de 3000 	ldr.w	r3, [lr]
    19b6:	f8cc 3000 	str.w	r3, [ip]
    19ba:	f894 3030 	ldrb.w	r3, [r4, #48]	; 0x30
    19be:	2b00      	cmp	r3, #0
    19c0:	d1a7      	bne.n	1912 <SPIM0_SPIS0_TWIM0_TWIS0_SPI0_TWI0_IRQHandler+0xb2>
    19c2:	4b20      	ldr	r3, [pc, #128]	; (1a44 <SPIM0_SPIS0_TWIM0_TWIS0_SPI0_TWI0_IRQHandler+0x1e4>)
    19c4:	2200      	movs	r2, #0
    19c6:	f8c3 2200 	str.w	r2, [r3, #512]	; 0x200
    19ca:	60a2      	str	r2, [r4, #8]
    19cc:	4a1f      	ldr	r2, [pc, #124]	; (1a4c <SPIM0_SPIS0_TWIM0_TWIS0_SPI0_TWI0_IRQHandler+0x1ec>)
    19ce:	f8c3 2308 	str.w	r2, [r3, #776]	; 0x308
    19d2:	4b1f      	ldr	r3, [pc, #124]	; (1a50 <SPIM0_SPIS0_TWIM0_TWIS0_SPI0_TWI0_IRQHandler+0x1f0>)
    19d4:	2208      	movs	r2, #8
    19d6:	f8c3 2180 	str.w	r2, [r3, #384]	; 0x180
    19da:	e79a      	b.n	1912 <SPIM0_SPIS0_TWIM0_TWIS0_SPI0_TWI0_IRQHandler+0xb2>
    19dc:	4b19      	ldr	r3, [pc, #100]	; (1a44 <SPIM0_SPIS0_TWIM0_TWIS0_SPI0_TWI0_IRQHandler+0x1e4>)
    19de:	f44f 7200 	mov.w	r2, #512	; 0x200
    19e2:	f8c3 2200 	str.w	r2, [r3, #512]	; 0x200
    19e6:	4a18      	ldr	r2, [pc, #96]	; (1a48 <SPIM0_SPIS0_TWIM0_TWIS0_SPI0_TWI0_IRQHandler+0x1e8>)
    19e8:	f240 2102 	movw	r1, #514	; 0x202
    19ec:	6091      	str	r1, [r2, #8]
    19ee:	f101 71ce 	add.w	r1, r1, #27000832	; 0x19c0000
    19f2:	f8c3 1308 	str.w	r1, [r3, #776]	; 0x308
    19f6:	6892      	ldr	r2, [r2, #8]
    19f8:	f8c3 2304 	str.w	r2, [r3, #772]	; 0x304
    19fc:	2201      	movs	r2, #1
    19fe:	609a      	str	r2, [r3, #8]
    1a00:	621a      	str	r2, [r3, #32]
    1a02:	e018      	b.n	1a36 <SPIM0_SPIS0_TWIM0_TWIS0_SPI0_TWI0_IRQHandler+0x1d6>
    1a04:	2301      	movs	r3, #1
    1a06:	f88d 3018 	strb.w	r3, [sp, #24]
    1a0a:	4b0f      	ldr	r3, [pc, #60]	; (1a48 <SPIM0_SPIS0_TWIM0_TWIS0_SPI0_TWI0_IRQHandler+0x1e8>)
    1a0c:	f893 3030 	ldrb.w	r3, [r3, #48]	; 0x30
    1a10:	b91b      	cbnz	r3, 1a1a <SPIM0_SPIS0_TWIM0_TWIS0_SPI0_TWI0_IRQHandler+0x1ba>
    1a12:	4b0d      	ldr	r3, [pc, #52]	; (1a48 <SPIM0_SPIS0_TWIM0_TWIS0_SPI0_TWI0_IRQHandler+0x1e8>)
    1a14:	2200      	movs	r2, #0
    1a16:	f883 202f 	strb.w	r2, [r3, #47]	; 0x2f
    1a1a:	4b0b      	ldr	r3, [pc, #44]	; (1a48 <SPIM0_SPIS0_TWIM0_TWIS0_SPI0_TWI0_IRQHandler+0x1e8>)
    1a1c:	6a1b      	ldr	r3, [r3, #32]
    1a1e:	f013 0f04 	tst.w	r3, #4
    1a22:	d003      	beq.n	1a2c <SPIM0_SPIS0_TWIM0_TWIS0_SPI0_TWI0_IRQHandler+0x1cc>
    1a24:	4b08      	ldr	r3, [pc, #32]	; (1a48 <SPIM0_SPIS0_TWIM0_TWIS0_SPI0_TWI0_IRQHandler+0x1e8>)
    1a26:	f893 302e 	ldrb.w	r3, [r3, #46]	; 0x2e
    1a2a:	b123      	cbz	r3, 1a36 <SPIM0_SPIS0_TWIM0_TWIS0_SPI0_TWI0_IRQHandler+0x1d6>
    1a2c:	4b06      	ldr	r3, [pc, #24]	; (1a48 <SPIM0_SPIS0_TWIM0_TWIS0_SPI0_TWI0_IRQHandler+0x1e8>)
    1a2e:	681a      	ldr	r2, [r3, #0]
    1a30:	6859      	ldr	r1, [r3, #4]
    1a32:	a806      	add	r0, sp, #24
    1a34:	4790      	blx	r2
    1a36:	b00d      	add	sp, #52	; 0x34
    1a38:	bd30      	pop	{r4, r5, pc}
    1a3a:	2302      	movs	r3, #2
    1a3c:	e7e3      	b.n	1a06 <SPIM0_SPIS0_TWIM0_TWIS0_SPI0_TWI0_IRQHandler+0x1a6>
    1a3e:	2303      	movs	r3, #3
    1a40:	e7e1      	b.n	1a06 <SPIM0_SPIS0_TWIM0_TWIS0_SPI0_TWI0_IRQHandler+0x1a6>
    1a42:	bf00      	nop
    1a44:	40003000 	.word	0x40003000
    1a48:	20000640 	.word	0x20000640
    1a4c:	019c0202 	.word	0x019c0202
    1a50:	e000e100 	.word	0xe000e100

00001a54 <nrfx_twim_init>:
    1a54:	e92d 41f0 	stmdb	sp!, {r4, r5, r6, r7, r8, lr}
    1a58:	4616      	mov	r6, r2
    1a5a:	461f      	mov	r7, r3
    1a5c:	f890 8004 	ldrb.w	r8, [r0, #4]
    1a60:	4a35      	ldr	r2, [pc, #212]	; (1b38 <nrfx_twim_init+0xe4>)
    1a62:	2334      	movs	r3, #52	; 0x34
    1a64:	fb03 2208 	mla	r2, r3, r8, r2
    1a68:	f892 302d 	ldrb.w	r3, [r2, #45]	; 0x2d
    1a6c:	2b00      	cmp	r3, #0
    1a6e:	d15e      	bne.n	1b2e <nrfx_twim_init+0xda>
    1a70:	4605      	mov	r5, r0
    1a72:	460c      	mov	r4, r1
    1a74:	4931      	ldr	r1, [pc, #196]	; (1b3c <nrfx_twim_init+0xe8>)
    1a76:	6800      	ldr	r0, [r0, #0]
    1a78:	f7ff fe84 	bl	1784 <nrfx_prs_acquire>
    1a7c:	2800      	cmp	r0, #0
    1a7e:	d158      	bne.n	1b32 <nrfx_twim_init+0xde>
    1a80:	492d      	ldr	r1, [pc, #180]	; (1b38 <nrfx_twim_init+0xe4>)
    1a82:	2234      	movs	r2, #52	; 0x34
    1a84:	fb02 f208 	mul.w	r2, r2, r8
    1a88:	188b      	adds	r3, r1, r2
    1a8a:	508e      	str	r6, [r1, r2]
    1a8c:	605f      	str	r7, [r3, #4]
    1a8e:	2200      	movs	r2, #0
    1a90:	609a      	str	r2, [r3, #8]
    1a92:	f883 2030 	strb.w	r2, [r3, #48]	; 0x30
    1a96:	f883 202f 	strb.w	r2, [r3, #47]	; 0x2f
    1a9a:	7b62      	ldrb	r2, [r4, #13]
    1a9c:	f883 2032 	strb.w	r2, [r3, #50]	; 0x32
    1aa0:	6823      	ldr	r3, [r4, #0]
    1aa2:	f04f 42a0 	mov.w	r2, #1342177280	; 0x50000000
    1aa6:	f503 73e0 	add.w	r3, r3, #448	; 0x1c0
    1aaa:	f240 610c 	movw	r1, #1548	; 0x60c
    1aae:	f842 1023 	str.w	r1, [r2, r3, lsl #2]
    1ab2:	6863      	ldr	r3, [r4, #4]
    1ab4:	f503 73e0 	add.w	r3, r3, #448	; 0x1c0
    1ab8:	f842 1023 	str.w	r1, [r2, r3, lsl #2]
    1abc:	682b      	ldr	r3, [r5, #0]
    1abe:	6821      	ldr	r1, [r4, #0]
    1ac0:	6862      	ldr	r2, [r4, #4]
    1ac2:	f8c3 1508 	str.w	r1, [r3, #1288]	; 0x508
    1ac6:	f8c3 250c 	str.w	r2, [r3, #1292]	; 0x50c
    1aca:	68a2      	ldr	r2, [r4, #8]
    1acc:	f8c3 2524 	str.w	r2, [r3, #1316]	; 0x524
    1ad0:	b1ee      	cbz	r6, 1b0e <nrfx_twim_init+0xba>
    1ad2:	682b      	ldr	r3, [r5, #0]
    1ad4:	0b19      	lsrs	r1, r3, #12
    1ad6:	f343 3307 	sbfx	r3, r3, #12, #8
    1ada:	7b22      	ldrb	r2, [r4, #12]
    1adc:	2b00      	cmp	r3, #0
    1ade:	db1f      	blt.n	1b20 <nrfx_twim_init+0xcc>
    1ae0:	0152      	lsls	r2, r2, #5
    1ae2:	b2d2      	uxtb	r2, r2
    1ae4:	f103 4360 	add.w	r3, r3, #3758096384	; 0xe0000000
    1ae8:	f503 4361 	add.w	r3, r3, #57600	; 0xe100
    1aec:	f883 2300 	strb.w	r2, [r3, #768]	; 0x300
    1af0:	682b      	ldr	r3, [r5, #0]
    1af2:	0b1a      	lsrs	r2, r3, #12
    1af4:	f343 3307 	sbfx	r3, r3, #12, #8
    1af8:	2b00      	cmp	r3, #0
    1afa:	db08      	blt.n	1b0e <nrfx_twim_init+0xba>
    1afc:	095b      	lsrs	r3, r3, #5
    1afe:	f002 021f 	and.w	r2, r2, #31
    1b02:	2101      	movs	r1, #1
    1b04:	fa01 f202 	lsl.w	r2, r1, r2
    1b08:	490d      	ldr	r1, [pc, #52]	; (1b40 <nrfx_twim_init+0xec>)
    1b0a:	f841 2023 	str.w	r2, [r1, r3, lsl #2]
    1b0e:	4b0a      	ldr	r3, [pc, #40]	; (1b38 <nrfx_twim_init+0xe4>)
    1b10:	2234      	movs	r2, #52	; 0x34
    1b12:	fb02 3308 	mla	r3, r2, r8, r3
    1b16:	2201      	movs	r2, #1
    1b18:	f883 202d 	strb.w	r2, [r3, #45]	; 0x2d
    1b1c:	e8bd 81f0 	ldmia.w	sp!, {r4, r5, r6, r7, r8, pc}
    1b20:	f001 010f 	and.w	r1, r1, #15
    1b24:	0152      	lsls	r2, r2, #5
    1b26:	b2d2      	uxtb	r2, r2
    1b28:	4b06      	ldr	r3, [pc, #24]	; (1b44 <nrfx_twim_init+0xf0>)
    1b2a:	545a      	strb	r2, [r3, r1]
    1b2c:	e7e0      	b.n	1af0 <nrfx_twim_init+0x9c>
    1b2e:	2008      	movs	r0, #8
    1b30:	e7f4      	b.n	1b1c <nrfx_twim_init+0xc8>
    1b32:	2011      	movs	r0, #17
    1b34:	e7f2      	b.n	1b1c <nrfx_twim_init+0xc8>
    1b36:	bf00      	nop
    1b38:	20000640 	.word	0x20000640
    1b3c:	00001861 	.word	0x00001861
    1b40:	e000e100 	.word	0xe000e100
    1b44:	e000ed14 	.word	0xe000ed14

00001b48 <nrfx_twim_enable>:
    1b48:	7902      	ldrb	r2, [r0, #4]
    1b4a:	6803      	ldr	r3, [r0, #0]
    1b4c:	2106      	movs	r1, #6
    1b4e:	f8c3 1500 	str.w	r1, [r3, #1280]	; 0x500
    1b52:	4b04      	ldr	r3, [pc, #16]	; (1b64 <nrfx_twim_enable+0x1c>)
    1b54:	2134      	movs	r1, #52	; 0x34
    1b56:	fb01 3302 	mla	r3, r1, r2, r3
    1b5a:	2202      	movs	r2, #2
    1b5c:	f883 202d 	strb.w	r2, [r3, #45]	; 0x2d
    1b60:	4770      	bx	lr
    1b62:	bf00      	nop
    1b64:	20000640 	.word	0x20000640

00001b68 <nrfx_twim_xfer>:
    1b68:	e92d 41f0 	stmdb	sp!, {r4, r5, r6, r7, r8, lr}
    1b6c:	b08a      	sub	sp, #40	; 0x28
    1b6e:	4615      	mov	r5, r2
    1b70:	f890 e004 	ldrb.w	lr, [r0, #4]
    1b74:	6804      	ldr	r4, [r0, #0]
    1b76:	4bb4      	ldr	r3, [pc, #720]	; (1e48 <nrfx_twim_xfer+0x2e0>)
    1b78:	2234      	movs	r2, #52	; 0x34
    1b7a:	fb02 330e 	mla	r3, r2, lr, r3
    1b7e:	2200      	movs	r2, #0
    1b80:	f883 202e 	strb.w	r2, [r3, #46]	; 0x2e
    1b84:	68cb      	ldr	r3, [r1, #12]
    1b86:	f003 4360 	and.w	r3, r3, #3758096384	; 0xe0000000
    1b8a:	f1b3 5f00 	cmp.w	r3, #536870912	; 0x20000000
    1b8e:	f040 818c 	bne.w	1eaa <nrfx_twim_xfer+0x342>
    1b92:	468c      	mov	ip, r1
    1b94:	4bad      	ldr	r3, [pc, #692]	; (1e4c <nrfx_twim_xfer+0x2e4>)
    1b96:	f8c4 3308 	str.w	r3, [r4, #776]	; 0x308
    1b9a:	4bab      	ldr	r3, [pc, #684]	; (1e48 <nrfx_twim_xfer+0x2e0>)
    1b9c:	2234      	movs	r2, #52	; 0x34
    1b9e:	fb02 330e 	mla	r3, r2, lr, r3
    1ba2:	f893 302f 	ldrb.w	r3, [r3, #47]	; 0x2f
    1ba6:	2b00      	cmp	r3, #0
    1ba8:	d14b      	bne.n	1c42 <nrfx_twim_xfer+0xda>
    1baa:	f015 0f14 	tst.w	r5, #20
    1bae:	bf0c      	ite	eq
    1bb0:	2201      	moveq	r2, #1
    1bb2:	2200      	movne	r2, #0
    1bb4:	4ba4      	ldr	r3, [pc, #656]	; (1e48 <nrfx_twim_xfer+0x2e0>)
    1bb6:	2134      	movs	r1, #52	; 0x34
    1bb8:	fb01 380e 	mla	r8, r1, lr, r3
    1bbc:	f888 202f 	strb.w	r2, [r8, #47]	; 0x2f
    1bc0:	f108 060c 	add.w	r6, r8, #12
    1bc4:	4667      	mov	r7, ip
    1bc6:	cf0f      	ldmia	r7!, {r0, r1, r2, r3}
    1bc8:	c60f      	stmia	r6!, {r0, r1, r2, r3}
    1bca:	683b      	ldr	r3, [r7, #0]
    1bcc:	6033      	str	r3, [r6, #0]
    1bce:	f3c5 1300 	ubfx	r3, r5, #4, #1
    1bd2:	f888 3030 	strb.w	r3, [r8, #48]	; 0x30
    1bd6:	f8c8 5020 	str.w	r5, [r8, #32]
    1bda:	f89c 3001 	ldrb.w	r3, [ip, #1]
    1bde:	f8c4 3588 	str.w	r3, [r4, #1416]	; 0x588
    1be2:	2300      	movs	r3, #0
    1be4:	f8c4 3104 	str.w	r3, [r4, #260]	; 0x104
    1be8:	f8d4 2104 	ldr.w	r2, [r4, #260]	; 0x104
    1bec:	9203      	str	r2, [sp, #12]
    1bee:	9a03      	ldr	r2, [sp, #12]
    1bf0:	f8c4 3124 	str.w	r3, [r4, #292]	; 0x124
    1bf4:	f8d4 2124 	ldr.w	r2, [r4, #292]	; 0x124
    1bf8:	9204      	str	r2, [sp, #16]
    1bfa:	9a04      	ldr	r2, [sp, #16]
    1bfc:	f8c4 3160 	str.w	r3, [r4, #352]	; 0x160
    1c00:	f8d4 2160 	ldr.w	r2, [r4, #352]	; 0x160
    1c04:	9205      	str	r2, [sp, #20]
    1c06:	9a05      	ldr	r2, [sp, #20]
    1c08:	f8c4 3148 	str.w	r3, [r4, #328]	; 0x148
    1c0c:	f8d4 3148 	ldr.w	r3, [r4, #328]	; 0x148
    1c10:	9306      	str	r3, [sp, #24]
    1c12:	9b06      	ldr	r3, [sp, #24]
    1c14:	f015 0f01 	tst.w	r5, #1
    1c18:	bf14      	ite	ne
    1c1a:	2301      	movne	r3, #1
    1c1c:	2300      	moveq	r3, #0
    1c1e:	f8c4 3550 	str.w	r3, [r4, #1360]	; 0x550
    1c22:	f015 0f02 	tst.w	r5, #2
    1c26:	bf14      	ite	ne
    1c28:	2301      	movne	r3, #1
    1c2a:	2300      	moveq	r3, #0
    1c2c:	f8c4 3540 	str.w	r3, [r4, #1344]	; 0x540
    1c30:	f89c 3000 	ldrb.w	r3, [ip]
    1c34:	2b03      	cmp	r3, #3
    1c36:	f200 80d7 	bhi.w	1de8 <nrfx_twim_xfer+0x280>
    1c3a:	e8df f003 	tbb	[pc, r3]
    1c3e:	be69      	.short	0xbe69
    1c40:	0a44      	.short	0x0a44
    1c42:	4b81      	ldr	r3, [pc, #516]	; (1e48 <nrfx_twim_xfer+0x2e0>)
    1c44:	fb02 330e 	mla	r3, r2, lr, r3
    1c48:	689b      	ldr	r3, [r3, #8]
    1c4a:	f8c4 3304 	str.w	r3, [r4, #772]	; 0x304
    1c4e:	2611      	movs	r6, #17
    1c50:	e12c      	b.n	1eac <nrfx_twim_xfer+0x344>
    1c52:	f8dc 3010 	ldr.w	r3, [ip, #16]
    1c56:	f003 4360 	and.w	r3, r3, #3758096384	; 0xe0000000
    1c5a:	f1b3 5f00 	cmp.w	r3, #536870912	; 0x20000000
    1c5e:	f040 8129 	bne.w	1eb4 <nrfx_twim_xfer+0x34c>
    1c62:	f44f 7380 	mov.w	r3, #256	; 0x100
    1c66:	f8c4 3200 	str.w	r3, [r4, #512]	; 0x200
    1c6a:	f8dc 3004 	ldr.w	r3, [ip, #4]
    1c6e:	f8dc 200c 	ldr.w	r2, [ip, #12]
    1c72:	f8c4 2544 	str.w	r2, [r4, #1348]	; 0x544
    1c76:	f8c4 3548 	str.w	r3, [r4, #1352]	; 0x548
    1c7a:	2300      	movs	r3, #0
    1c7c:	f8c4 3150 	str.w	r3, [r4, #336]	; 0x150
    1c80:	f8d4 3150 	ldr.w	r3, [r4, #336]	; 0x150
    1c84:	9302      	str	r3, [sp, #8]
    1c86:	9b02      	ldr	r3, [sp, #8]
    1c88:	2301      	movs	r3, #1
    1c8a:	6223      	str	r3, [r4, #32]
    1c8c:	60a3      	str	r3, [r4, #8]
    1c8e:	f8d4 3150 	ldr.w	r3, [r4, #336]	; 0x150
    1c92:	2b00      	cmp	r3, #0
    1c94:	d0fb      	beq.n	1c8e <nrfx_twim_xfer+0x126>
    1c96:	2600      	movs	r6, #0
    1c98:	f8c4 6150 	str.w	r6, [r4, #336]	; 0x150
    1c9c:	f8d4 3150 	ldr.w	r3, [r4, #336]	; 0x150
    1ca0:	9301      	str	r3, [sp, #4]
    1ca2:	9b01      	ldr	r3, [sp, #4]
    1ca4:	f8dc 3008 	ldr.w	r3, [ip, #8]
    1ca8:	f8dc 2010 	ldr.w	r2, [ip, #16]
    1cac:	f8c4 2544 	str.w	r2, [r4, #1348]	; 0x544
    1cb0:	f8c4 3548 	str.w	r3, [r4, #1352]	; 0x548
    1cb4:	4b64      	ldr	r3, [pc, #400]	; (1e48 <nrfx_twim_xfer+0x2e0>)
    1cb6:	2234      	movs	r2, #52	; 0x34
    1cb8:	fb02 330e 	mla	r3, r2, lr, r3
    1cbc:	f44f 2280 	mov.w	r2, #262144	; 0x40000
    1cc0:	609a      	str	r2, [r3, #8]
    1cc2:	2308      	movs	r3, #8
    1cc4:	e03e      	b.n	1d44 <nrfx_twim_xfer+0x1dc>
    1cc6:	f8dc 3004 	ldr.w	r3, [ip, #4]
    1cca:	f8dc 200c 	ldr.w	r2, [ip, #12]
    1cce:	f8c4 2544 	str.w	r2, [r4, #1348]	; 0x544
    1cd2:	f8c4 3548 	str.w	r3, [r4, #1352]	; 0x548
    1cd6:	f8dc 3010 	ldr.w	r3, [ip, #16]
    1cda:	f003 4260 	and.w	r2, r3, #3758096384	; 0xe0000000
    1cde:	f1b2 5f00 	cmp.w	r2, #536870912	; 0x20000000
    1ce2:	f040 80e9 	bne.w	1eb8 <nrfx_twim_xfer+0x350>
    1ce6:	f8dc 2008 	ldr.w	r2, [ip, #8]
    1cea:	f8c4 3534 	str.w	r3, [r4, #1332]	; 0x534
    1cee:	f8c4 2538 	str.w	r2, [r4, #1336]	; 0x538
    1cf2:	f44f 5384 	mov.w	r3, #4224	; 0x1080
    1cf6:	f8c4 3200 	str.w	r3, [r4, #512]	; 0x200
    1cfa:	4b53      	ldr	r3, [pc, #332]	; (1e48 <nrfx_twim_xfer+0x2e0>)
    1cfc:	2234      	movs	r2, #52	; 0x34
    1cfe:	fb02 330e 	mla	r3, r2, lr, r3
    1d02:	2202      	movs	r2, #2
    1d04:	609a      	str	r2, [r3, #8]
    1d06:	2301      	movs	r3, #1
    1d08:	6223      	str	r3, [r4, #32]
    1d0a:	2308      	movs	r3, #8
    1d0c:	2600      	movs	r6, #0
    1d0e:	e019      	b.n	1d44 <nrfx_twim_xfer+0x1dc>
    1d10:	f8dc 3004 	ldr.w	r3, [ip, #4]
    1d14:	f8dc 200c 	ldr.w	r2, [ip, #12]
    1d18:	f8c4 2544 	str.w	r2, [r4, #1348]	; 0x544
    1d1c:	f8c4 3548 	str.w	r3, [r4, #1352]	; 0x548
    1d20:	f015 0f20 	tst.w	r5, #32
    1d24:	d03e      	beq.n	1da4 <nrfx_twim_xfer+0x23c>
    1d26:	f44f 7380 	mov.w	r3, #256	; 0x100
    1d2a:	f8c4 3200 	str.w	r3, [r4, #512]	; 0x200
    1d2e:	4b46      	ldr	r3, [pc, #280]	; (1e48 <nrfx_twim_xfer+0x2e0>)
    1d30:	2234      	movs	r2, #52	; 0x34
    1d32:	fb02 330e 	mla	r3, r2, lr, r3
    1d36:	f44f 2280 	mov.w	r2, #262144	; 0x40000
    1d3a:	609a      	str	r2, [r3, #8]
    1d3c:	2301      	movs	r3, #1
    1d3e:	6223      	str	r3, [r4, #32]
    1d40:	2308      	movs	r3, #8
    1d42:	2600      	movs	r6, #0
    1d44:	f015 0f08 	tst.w	r5, #8
    1d48:	d105      	bne.n	1d56 <nrfx_twim_xfer+0x1ee>
    1d4a:	f89c 2000 	ldrb.w	r2, [ip]
    1d4e:	2a03      	cmp	r2, #3
    1d50:	bf1c      	itt	ne
    1d52:	2201      	movne	r2, #1
    1d54:	50e2      	strne	r2, [r4, r3]
    1d56:	2334      	movs	r3, #52	; 0x34
    1d58:	fb03 f30e 	mul.w	r3, r3, lr
    1d5c:	4a3a      	ldr	r2, [pc, #232]	; (1e48 <nrfx_twim_xfer+0x2e0>)
    1d5e:	58d3      	ldr	r3, [r2, r3]
    1d60:	2b00      	cmp	r3, #0
    1d62:	d044      	beq.n	1dee <nrfx_twim_xfer+0x286>
    1d64:	f015 0f04 	tst.w	r5, #4
    1d68:	d005      	beq.n	1d76 <nrfx_twim_xfer+0x20e>
    1d6a:	4b37      	ldr	r3, [pc, #220]	; (1e48 <nrfx_twim_xfer+0x2e0>)
    1d6c:	2234      	movs	r2, #52	; 0x34
    1d6e:	fb02 330e 	mla	r3, r2, lr, r3
    1d72:	2200      	movs	r2, #0
    1d74:	609a      	str	r2, [r3, #8]
    1d76:	f015 0f40 	tst.w	r5, #64	; 0x40
    1d7a:	d107      	bne.n	1d8c <nrfx_twim_xfer+0x224>
    1d7c:	4b32      	ldr	r3, [pc, #200]	; (1e48 <nrfx_twim_xfer+0x2e0>)
    1d7e:	2234      	movs	r2, #52	; 0x34
    1d80:	fb02 330e 	mla	r3, r2, lr, r3
    1d84:	689a      	ldr	r2, [r3, #8]
    1d86:	f042 0202 	orr.w	r2, r2, #2
    1d8a:	609a      	str	r2, [r3, #8]
    1d8c:	4b2e      	ldr	r3, [pc, #184]	; (1e48 <nrfx_twim_xfer+0x2e0>)
    1d8e:	2234      	movs	r2, #52	; 0x34
    1d90:	fb02 330e 	mla	r3, r2, lr, r3
    1d94:	689a      	ldr	r2, [r3, #8]
    1d96:	f442 7200 	orr.w	r2, r2, #512	; 0x200
    1d9a:	609a      	str	r2, [r3, #8]
    1d9c:	689b      	ldr	r3, [r3, #8]
    1d9e:	f8c4 3304 	str.w	r3, [r4, #772]	; 0x304
    1da2:	e083      	b.n	1eac <nrfx_twim_xfer+0x344>
    1da4:	f44f 7300 	mov.w	r3, #512	; 0x200
    1da8:	f8c4 3200 	str.w	r3, [r4, #512]	; 0x200
    1dac:	4b26      	ldr	r3, [pc, #152]	; (1e48 <nrfx_twim_xfer+0x2e0>)
    1dae:	2234      	movs	r2, #52	; 0x34
    1db0:	fb02 330e 	mla	r3, r2, lr, r3
    1db4:	2202      	movs	r2, #2
    1db6:	609a      	str	r2, [r3, #8]
    1db8:	e7c0      	b.n	1d3c <nrfx_twim_xfer+0x1d4>
    1dba:	f8dc 3004 	ldr.w	r3, [ip, #4]
    1dbe:	f8dc 200c 	ldr.w	r2, [ip, #12]
    1dc2:	f8c4 2534 	str.w	r2, [r4, #1332]	; 0x534
    1dc6:	f8c4 3538 	str.w	r3, [r4, #1336]	; 0x538
    1dca:	f44f 5380 	mov.w	r3, #4096	; 0x1000
    1dce:	f8c4 3200 	str.w	r3, [r4, #512]	; 0x200
    1dd2:	4b1d      	ldr	r3, [pc, #116]	; (1e48 <nrfx_twim_xfer+0x2e0>)
    1dd4:	2234      	movs	r2, #52	; 0x34
    1dd6:	fb02 330e 	mla	r3, r2, lr, r3
    1dda:	2202      	movs	r2, #2
    1ddc:	609a      	str	r2, [r3, #8]
    1dde:	2301      	movs	r3, #1
    1de0:	6223      	str	r3, [r4, #32]
    1de2:	2300      	movs	r3, #0
    1de4:	461e      	mov	r6, r3
    1de6:	e7ad      	b.n	1d44 <nrfx_twim_xfer+0x1dc>
    1de8:	2308      	movs	r3, #8
    1dea:	2607      	movs	r6, #7
    1dec:	e7aa      	b.n	1d44 <nrfx_twim_xfer+0x1dc>
    1dee:	2000      	movs	r0, #0
    1df0:	2101      	movs	r1, #1
    1df2:	e006      	b.n	1e02 <nrfx_twim_xfer+0x29a>
    1df4:	3b00      	subs	r3, #0
    1df6:	bf18      	it	ne
    1df8:	2301      	movne	r3, #1
    1dfa:	f8d4 2124 	ldr.w	r2, [r4, #292]	; 0x124
    1dfe:	b982      	cbnz	r2, 1e22 <nrfx_twim_xfer+0x2ba>
    1e00:	bb33      	cbnz	r3, 1e50 <nrfx_twim_xfer+0x2e8>
    1e02:	f8d4 3148 	ldr.w	r3, [r4, #328]	; 0x148
    1e06:	f8d4 2104 	ldr.w	r2, [r4, #260]	; 0x104
    1e0a:	2a00      	cmp	r2, #0
    1e0c:	d0f2      	beq.n	1df4 <nrfx_twim_xfer+0x28c>
    1e0e:	f8c4 0104 	str.w	r0, [r4, #260]	; 0x104
    1e12:	f8d4 3104 	ldr.w	r3, [r4, #260]	; 0x104
    1e16:	9307      	str	r3, [sp, #28]
    1e18:	9b07      	ldr	r3, [sp, #28]
    1e1a:	f8d4 3124 	ldr.w	r3, [r4, #292]	; 0x124
    1e1e:	b1bb      	cbz	r3, 1e50 <nrfx_twim_xfer+0x2e8>
    1e20:	460b      	mov	r3, r1
    1e22:	f8c4 0124 	str.w	r0, [r4, #292]	; 0x124
    1e26:	f8d4 2124 	ldr.w	r2, [r4, #292]	; 0x124
    1e2a:	9209      	str	r2, [sp, #36]	; 0x24
    1e2c:	9a09      	ldr	r2, [sp, #36]	; 0x24
    1e2e:	f8d4 7160 	ldr.w	r7, [r4, #352]	; 0x160
    1e32:	f8d4 2200 	ldr.w	r2, [r4, #512]	; 0x200
    1e36:	2f00      	cmp	r7, #0
    1e38:	d04c      	beq.n	1ed4 <nrfx_twim_xfer+0x36c>
    1e3a:	f412 7f00 	tst.w	r2, #512	; 0x200
    1e3e:	d03d      	beq.n	1ebc <nrfx_twim_xfer+0x354>
    1e40:	f412 7f80 	tst.w	r2, #256	; 0x100
    1e44:	d0dc      	beq.n	1e00 <nrfx_twim_xfer+0x298>
    1e46:	e03e      	b.n	1ec6 <nrfx_twim_xfer+0x35e>
    1e48:	20000640 	.word	0x20000640
    1e4c:	019c0202 	.word	0x019c0202
    1e50:	f8d4 34c4 	ldr.w	r3, [r4, #1220]	; 0x4c4
    1e54:	f8c4 34c4 	str.w	r3, [r4, #1220]	; 0x4c4
    1e58:	4a20      	ldr	r2, [pc, #128]	; (1edc <nrfx_twim_xfer+0x374>)
    1e5a:	2134      	movs	r1, #52	; 0x34
    1e5c:	fb01 220e 	mla	r2, r1, lr, r2
    1e60:	2100      	movs	r1, #0
    1e62:	f882 102f 	strb.w	r1, [r2, #47]	; 0x2f
    1e66:	b193      	cbz	r3, 1e8e <nrfx_twim_xfer+0x326>
    1e68:	f013 0f01 	tst.w	r3, #1
    1e6c:	bf0c      	ite	eq
    1e6e:	2603      	moveq	r6, #3
    1e70:	f44f 4602 	movne.w	r6, #33280	; 0x8200
    1e74:	f013 0f02 	tst.w	r3, #2
    1e78:	f248 2201 	movw	r2, #33281	; 0x8201
    1e7c:	bf18      	it	ne
    1e7e:	4616      	movne	r6, r2
    1e80:	f013 0f04 	tst.w	r3, #4
    1e84:	f248 2302 	movw	r3, #33282	; 0x8202
    1e88:	bf18      	it	ne
    1e8a:	461e      	movne	r6, r3
    1e8c:	e00e      	b.n	1eac <nrfx_twim_xfer+0x344>
    1e8e:	f015 0f40 	tst.w	r5, #64	; 0x40
    1e92:	d10b      	bne.n	1eac <nrfx_twim_xfer+0x344>
    1e94:	4b11      	ldr	r3, [pc, #68]	; (1edc <nrfx_twim_xfer+0x374>)
    1e96:	2134      	movs	r1, #52	; 0x34
    1e98:	fb01 310e 	mla	r1, r1, lr, r3
    1e9c:	4620      	mov	r0, r4
    1e9e:	f7ff fc9d 	bl	17dc <xfer_completeness_check>
    1ea2:	2800      	cmp	r0, #0
    1ea4:	bf08      	it	eq
    1ea6:	2603      	moveq	r6, #3
    1ea8:	e000      	b.n	1eac <nrfx_twim_xfer+0x344>
    1eaa:	2610      	movs	r6, #16
    1eac:	4630      	mov	r0, r6
    1eae:	b00a      	add	sp, #40	; 0x28
    1eb0:	e8bd 81f0 	ldmia.w	sp!, {r4, r5, r6, r7, r8, pc}
    1eb4:	2610      	movs	r6, #16
    1eb6:	e7f9      	b.n	1eac <nrfx_twim_xfer+0x344>
    1eb8:	2610      	movs	r6, #16
    1eba:	e7f7      	b.n	1eac <nrfx_twim_xfer+0x344>
    1ebc:	6221      	str	r1, [r4, #32]
    1ebe:	6161      	str	r1, [r4, #20]
    1ec0:	f412 7f80 	tst.w	r2, #256	; 0x100
    1ec4:	d09d      	beq.n	1e02 <nrfx_twim_xfer+0x29a>
    1ec6:	f8c4 0148 	str.w	r0, [r4, #328]	; 0x148
    1eca:	f8d4 3148 	ldr.w	r3, [r4, #328]	; 0x148
    1ece:	9308      	str	r3, [sp, #32]
    1ed0:	9b08      	ldr	r3, [sp, #32]
    1ed2:	e796      	b.n	1e02 <nrfx_twim_xfer+0x29a>
    1ed4:	6221      	str	r1, [r4, #32]
    1ed6:	6161      	str	r1, [r4, #20]
    1ed8:	e793      	b.n	1e02 <nrfx_twim_xfer+0x29a>
    1eda:	bf00      	nop
    1edc:	20000640 	.word	0x20000640

00001ee0 <nrfx_twim_tx>:
    1ee0:	b510      	push	{r4, lr}
    1ee2:	b086      	sub	sp, #24
    1ee4:	2400      	movs	r4, #0
    1ee6:	f88d 4004 	strb.w	r4, [sp, #4]
    1eea:	f88d 1005 	strb.w	r1, [sp, #5]
    1eee:	9302      	str	r3, [sp, #8]
    1ef0:	9403      	str	r4, [sp, #12]
    1ef2:	9204      	str	r2, [sp, #16]
    1ef4:	9405      	str	r4, [sp, #20]
    1ef6:	f89d 2020 	ldrb.w	r2, [sp, #32]
    1efa:	0152      	lsls	r2, r2, #5
    1efc:	a901      	add	r1, sp, #4
    1efe:	f7ff fe33 	bl	1b68 <nrfx_twim_xfer>
    1f02:	b006      	add	sp, #24
    1f04:	bd10      	pop	{r4, pc}

00001f06 <nrfx_twim_rx>:
    1f06:	b500      	push	{lr}
    1f08:	b087      	sub	sp, #28
    1f0a:	f04f 0c01 	mov.w	ip, #1
    1f0e:	f88d c004 	strb.w	ip, [sp, #4]
    1f12:	f88d 1005 	strb.w	r1, [sp, #5]
    1f16:	9302      	str	r3, [sp, #8]
    1f18:	2300      	movs	r3, #0
    1f1a:	9303      	str	r3, [sp, #12]
    1f1c:	9204      	str	r2, [sp, #16]
    1f1e:	9305      	str	r3, [sp, #20]
    1f20:	461a      	mov	r2, r3
    1f22:	a901      	add	r1, sp, #4
    1f24:	f7ff fe20 	bl	1b68 <nrfx_twim_xfer>
    1f28:	b007      	add	sp, #28
    1f2a:	f85d fb04 	ldr.w	pc, [sp], #4

00001f2e <tx_byte>:
    1f2e:	b082      	sub	sp, #8
    1f30:	2300      	movs	r3, #0
    1f32:	f8c0 311c 	str.w	r3, [r0, #284]	; 0x11c
    1f36:	f8d0 311c 	ldr.w	r3, [r0, #284]	; 0x11c
    1f3a:	9301      	str	r3, [sp, #4]
    1f3c:	9b01      	ldr	r3, [sp, #4]
    1f3e:	6a0b      	ldr	r3, [r1, #32]
    1f40:	688a      	ldr	r2, [r1, #8]
    1f42:	5cd2      	ldrb	r2, [r2, r3]
    1f44:	6a0b      	ldr	r3, [r1, #32]
    1f46:	3301      	adds	r3, #1
    1f48:	620b      	str	r3, [r1, #32]
    1f4a:	f8c0 251c 	str.w	r2, [r0, #1308]	; 0x51c
    1f4e:	b002      	add	sp, #8
    1f50:	4770      	bx	lr

00001f52 <rx_byte>:
    1f52:	b082      	sub	sp, #8
    1f54:	698b      	ldr	r3, [r1, #24]
    1f56:	b183      	cbz	r3, 1f7a <rx_byte+0x28>
    1f58:	2300      	movs	r3, #0
    1f5a:	f8c0 3108 	str.w	r3, [r0, #264]	; 0x108
    1f5e:	f8d0 3108 	ldr.w	r3, [r0, #264]	; 0x108
    1f62:	9301      	str	r3, [sp, #4]
    1f64:	9b01      	ldr	r3, [sp, #4]
    1f66:	6a4b      	ldr	r3, [r1, #36]	; 0x24
    1f68:	f8d0 0518 	ldr.w	r0, [r0, #1304]	; 0x518
    1f6c:	68ca      	ldr	r2, [r1, #12]
    1f6e:	54d0      	strb	r0, [r2, r3]
    1f70:	6a4b      	ldr	r3, [r1, #36]	; 0x24
    1f72:	3301      	adds	r3, #1
    1f74:	624b      	str	r3, [r1, #36]	; 0x24
    1f76:	b002      	add	sp, #8
    1f78:	4770      	bx	lr
    1f7a:	f8c0 3108 	str.w	r3, [r0, #264]	; 0x108
    1f7e:	f8d0 3108 	ldr.w	r3, [r0, #264]	; 0x108
    1f82:	9300      	str	r3, [sp, #0]
    1f84:	9b00      	ldr	r3, [sp, #0]
    1f86:	f8d0 3518 	ldr.w	r3, [r0, #1304]	; 0x518
    1f8a:	e7f4      	b.n	1f76 <rx_byte+0x24>

00001f8c <rx_done_event>:
    1f8c:	b500      	push	{lr}
    1f8e:	b085      	sub	sp, #20
    1f90:	2301      	movs	r3, #1
    1f92:	f88d 3000 	strb.w	r3, [sp]
    1f96:	9102      	str	r1, [sp, #8]
    1f98:	9201      	str	r2, [sp, #4]
    1f9a:	6843      	ldr	r3, [r0, #4]
    1f9c:	6801      	ldr	r1, [r0, #0]
    1f9e:	4668      	mov	r0, sp
    1fa0:	4798      	blx	r3
    1fa2:	b005      	add	sp, #20
    1fa4:	f85d fb04 	ldr.w	pc, [sp], #4

00001fa8 <nrfx_uart_0_irq_handler>:
    1fa8:	b510      	push	{r4, lr}
    1faa:	b086      	sub	sp, #24
    1fac:	4b5a      	ldr	r3, [pc, #360]	; (2118 <Heap_Size+0x118>)
    1fae:	f8d3 3304 	ldr.w	r3, [r3, #772]	; 0x304
    1fb2:	f413 7f00 	tst.w	r3, #512	; 0x200
    1fb6:	d02c      	beq.n	2012 <Heap_Size+0x12>
    1fb8:	4b57      	ldr	r3, [pc, #348]	; (2118 <Heap_Size+0x118>)
    1fba:	f8d3 3124 	ldr.w	r3, [r3, #292]	; 0x124
    1fbe:	b343      	cbz	r3, 2012 <Heap_Size+0x12>
    1fc0:	4b55      	ldr	r3, [pc, #340]	; (2118 <Heap_Size+0x118>)
    1fc2:	2200      	movs	r2, #0
    1fc4:	f8c3 2124 	str.w	r2, [r3, #292]	; 0x124
    1fc8:	f8d3 2124 	ldr.w	r2, [r3, #292]	; 0x124
    1fcc:	9200      	str	r2, [sp, #0]
    1fce:	9a00      	ldr	r2, [sp, #0]
    1fd0:	f44f 7201 	mov.w	r2, #516	; 0x204
    1fd4:	f8c3 2308 	str.w	r2, [r3, #776]	; 0x308
    1fd8:	4b50      	ldr	r3, [pc, #320]	; (211c <Heap_Size+0x11c>)
    1fda:	f893 3029 	ldrb.w	r3, [r3, #41]	; 0x29
    1fde:	b913      	cbnz	r3, 1fe6 <nrfx_uart_0_irq_handler+0x3e>
    1fe0:	4b4d      	ldr	r3, [pc, #308]	; (2118 <Heap_Size+0x118>)
    1fe2:	2201      	movs	r2, #1
    1fe4:	605a      	str	r2, [r3, #4]
    1fe6:	2302      	movs	r3, #2
    1fe8:	f88d 3008 	strb.w	r3, [sp, #8]
    1fec:	4a4a      	ldr	r2, [pc, #296]	; (2118 <Heap_Size+0x118>)
    1fee:	f8d2 3480 	ldr.w	r3, [r2, #1152]	; 0x480
    1ff2:	f8c2 3480 	str.w	r3, [r2, #1152]	; 0x480
    1ff6:	9305      	str	r3, [sp, #20]
    1ff8:	4b48      	ldr	r3, [pc, #288]	; (211c <Heap_Size+0x11c>)
    1ffa:	699a      	ldr	r2, [r3, #24]
    1ffc:	9204      	str	r2, [sp, #16]
    1ffe:	68da      	ldr	r2, [r3, #12]
    2000:	9203      	str	r2, [sp, #12]
    2002:	2200      	movs	r2, #0
    2004:	619a      	str	r2, [r3, #24]
    2006:	61da      	str	r2, [r3, #28]
    2008:	685a      	ldr	r2, [r3, #4]
    200a:	6819      	ldr	r1, [r3, #0]
    200c:	a802      	add	r0, sp, #8
    200e:	4790      	blx	r2
    2010:	e00a      	b.n	2028 <Heap_Size+0x28>
    2012:	4b41      	ldr	r3, [pc, #260]	; (2118 <Heap_Size+0x118>)
    2014:	f8d3 3304 	ldr.w	r3, [r3, #772]	; 0x304
    2018:	f013 0f04 	tst.w	r3, #4
    201c:	d004      	beq.n	2028 <Heap_Size+0x28>
    201e:	4b3e      	ldr	r3, [pc, #248]	; (2118 <Heap_Size+0x118>)
    2020:	f8d3 3108 	ldr.w	r3, [r3, #264]	; 0x108
    2024:	2b00      	cmp	r3, #0
    2026:	d132      	bne.n	208e <Heap_Size+0x8e>
    2028:	4b3b      	ldr	r3, [pc, #236]	; (2118 <Heap_Size+0x118>)
    202a:	f8d3 311c 	ldr.w	r3, [r3, #284]	; 0x11c
    202e:	b1ab      	cbz	r3, 205c <Heap_Size+0x5c>
    2030:	4b3a      	ldr	r3, [pc, #232]	; (211c <Heap_Size+0x11c>)
    2032:	695a      	ldr	r2, [r3, #20]
    2034:	6a1b      	ldr	r3, [r3, #32]
    2036:	429a      	cmp	r2, r3
    2038:	d904      	bls.n	2044 <Heap_Size+0x44>
    203a:	4b38      	ldr	r3, [pc, #224]	; (211c <Heap_Size+0x11c>)
    203c:	f893 3028 	ldrb.w	r3, [r3, #40]	; 0x28
    2040:	2b00      	cmp	r3, #0
    2042:	d04f      	beq.n	20e4 <Heap_Size+0xe4>
    2044:	4b34      	ldr	r3, [pc, #208]	; (2118 <Heap_Size+0x118>)
    2046:	2200      	movs	r2, #0
    2048:	f8c3 211c 	str.w	r2, [r3, #284]	; 0x11c
    204c:	f8d3 311c 	ldr.w	r3, [r3, #284]	; 0x11c
    2050:	9301      	str	r3, [sp, #4]
    2052:	9b01      	ldr	r3, [sp, #4]
    2054:	4b31      	ldr	r3, [pc, #196]	; (211c <Heap_Size+0x11c>)
    2056:	695b      	ldr	r3, [r3, #20]
    2058:	2b00      	cmp	r3, #0
    205a:	d148      	bne.n	20ee <Heap_Size+0xee>
    205c:	4b2e      	ldr	r3, [pc, #184]	; (2118 <Heap_Size+0x118>)
    205e:	f8d3 3144 	ldr.w	r3, [r3, #324]	; 0x144
    2062:	b193      	cbz	r3, 208a <Heap_Size+0x8a>
    2064:	4b2c      	ldr	r3, [pc, #176]	; (2118 <Heap_Size+0x118>)
    2066:	2200      	movs	r2, #0
    2068:	f8c3 2144 	str.w	r2, [r3, #324]	; 0x144
    206c:	f8d3 3144 	ldr.w	r3, [r3, #324]	; 0x144
    2070:	9302      	str	r3, [sp, #8]
    2072:	9b02      	ldr	r3, [sp, #8]
    2074:	4b29      	ldr	r3, [pc, #164]	; (211c <Heap_Size+0x11c>)
    2076:	f893 3029 	ldrb.w	r3, [r3, #41]	; 0x29
    207a:	b113      	cbz	r3, 2082 <Heap_Size+0x82>
    207c:	4b26      	ldr	r3, [pc, #152]	; (2118 <Heap_Size+0x118>)
    207e:	2201      	movs	r2, #1
    2080:	601a      	str	r2, [r3, #0]
    2082:	4b26      	ldr	r3, [pc, #152]	; (211c <Heap_Size+0x11c>)
    2084:	699b      	ldr	r3, [r3, #24]
    2086:	2b00      	cmp	r3, #0
    2088:	d13e      	bne.n	2108 <Heap_Size+0x108>
    208a:	b006      	add	sp, #24
    208c:	bd10      	pop	{r4, pc}
    208e:	4c23      	ldr	r4, [pc, #140]	; (211c <Heap_Size+0x11c>)
    2090:	4621      	mov	r1, r4
    2092:	4821      	ldr	r0, [pc, #132]	; (2118 <Heap_Size+0x118>)
    2094:	f7ff ff5d 	bl	1f52 <rx_byte>
    2098:	6a63      	ldr	r3, [r4, #36]	; 0x24
    209a:	69a2      	ldr	r2, [r4, #24]
    209c:	429a      	cmp	r2, r3
    209e:	d1c3      	bne.n	2028 <Heap_Size+0x28>
    20a0:	69e3      	ldr	r3, [r4, #28]
    20a2:	b99b      	cbnz	r3, 20cc <Heap_Size+0xcc>
    20a4:	4b1d      	ldr	r3, [pc, #116]	; (211c <Heap_Size+0x11c>)
    20a6:	f893 3029 	ldrb.w	r3, [r3, #41]	; 0x29
    20aa:	b913      	cbnz	r3, 20b2 <Heap_Size+0xb2>
    20ac:	4b1a      	ldr	r3, [pc, #104]	; (2118 <Heap_Size+0x118>)
    20ae:	2201      	movs	r2, #1
    20b0:	605a      	str	r2, [r3, #4]
    20b2:	4b19      	ldr	r3, [pc, #100]	; (2118 <Heap_Size+0x118>)
    20b4:	f44f 7201 	mov.w	r2, #516	; 0x204
    20b8:	f8c3 2308 	str.w	r2, [r3, #776]	; 0x308
    20bc:	4817      	ldr	r0, [pc, #92]	; (211c <Heap_Size+0x11c>)
    20be:	2300      	movs	r3, #0
    20c0:	6183      	str	r3, [r0, #24]
    20c2:	6a41      	ldr	r1, [r0, #36]	; 0x24
    20c4:	68c2      	ldr	r2, [r0, #12]
    20c6:	f7ff ff61 	bl	1f8c <rx_done_event>
    20ca:	e7ad      	b.n	2028 <Heap_Size+0x28>
    20cc:	4620      	mov	r0, r4
    20ce:	68e2      	ldr	r2, [r4, #12]
    20d0:	6a61      	ldr	r1, [r4, #36]	; 0x24
    20d2:	61a3      	str	r3, [r4, #24]
    20d4:	6923      	ldr	r3, [r4, #16]
    20d6:	60e3      	str	r3, [r4, #12]
    20d8:	2300      	movs	r3, #0
    20da:	61e3      	str	r3, [r4, #28]
    20dc:	6263      	str	r3, [r4, #36]	; 0x24
    20de:	f7ff ff55 	bl	1f8c <rx_done_event>
    20e2:	e7a1      	b.n	2028 <Heap_Size+0x28>
    20e4:	490d      	ldr	r1, [pc, #52]	; (211c <Heap_Size+0x11c>)
    20e6:	480c      	ldr	r0, [pc, #48]	; (2118 <Heap_Size+0x118>)
    20e8:	f7ff ff21 	bl	1f2e <tx_byte>
    20ec:	e7b6      	b.n	205c <Heap_Size+0x5c>
    20ee:	4b0b      	ldr	r3, [pc, #44]	; (211c <Heap_Size+0x11c>)
    20f0:	6959      	ldr	r1, [r3, #20]
    20f2:	f88d 2008 	strb.w	r2, [sp, #8]
    20f6:	9104      	str	r1, [sp, #16]
    20f8:	6899      	ldr	r1, [r3, #8]
    20fa:	9103      	str	r1, [sp, #12]
    20fc:	615a      	str	r2, [r3, #20]
    20fe:	685a      	ldr	r2, [r3, #4]
    2100:	6819      	ldr	r1, [r3, #0]
    2102:	a802      	add	r0, sp, #8
    2104:	4790      	blx	r2
    2106:	e7a9      	b.n	205c <Heap_Size+0x5c>
    2108:	4804      	ldr	r0, [pc, #16]	; (211c <Heap_Size+0x11c>)
    210a:	2300      	movs	r3, #0
    210c:	6183      	str	r3, [r0, #24]
    210e:	6a41      	ldr	r1, [r0, #36]	; 0x24
    2110:	68c2      	ldr	r2, [r0, #12]
    2112:	f7ff ff3b 	bl	1f8c <rx_done_event>
    2116:	e7b8      	b.n	208a <Heap_Size+0x8a>
    2118:	40002000 	.word	0x40002000
    211c:	20000674 	.word	0x20000674

00002120 <nrfx_uart_init>:
    2120:	b5f0      	push	{r4, r5, r6, r7, lr}
    2122:	b083      	sub	sp, #12
    2124:	4616      	mov	r6, r2
    2126:	7907      	ldrb	r7, [r0, #4]
    2128:	4b5e      	ldr	r3, [pc, #376]	; (22a4 <nrfx_uart_init+0x184>)
    212a:	222c      	movs	r2, #44	; 0x2c
    212c:	fb02 3307 	mla	r3, r2, r7, r3
    2130:	f893 302a 	ldrb.w	r3, [r3, #42]	; 0x2a
    2134:	2b00      	cmp	r3, #0
    2136:	f040 80b1 	bne.w	229c <nrfx_uart_init+0x17c>
    213a:	4605      	mov	r5, r0
    213c:	460c      	mov	r4, r1
    213e:	495a      	ldr	r1, [pc, #360]	; (22a8 <nrfx_uart_init+0x188>)
    2140:	6800      	ldr	r0, [r0, #0]
    2142:	f7ff fb1f 	bl	1784 <nrfx_prs_acquire>
    2146:	2800      	cmp	r0, #0
    2148:	f040 80aa 	bne.w	22a0 <nrfx_uart_init+0x180>
    214c:	6823      	ldr	r3, [r4, #0]
    214e:	f1b3 3fff 	cmp.w	r3, #4294967295	; 0xffffffff
    2152:	d00c      	beq.n	216e <nrfx_uart_init+0x4e>
    2154:	2201      	movs	r2, #1
    2156:	fa02 f303 	lsl.w	r3, r2, r3
    215a:	f04f 42a0 	mov.w	r2, #1342177280	; 0x50000000
    215e:	f8c2 3508 	str.w	r3, [r2, #1288]	; 0x508
    2162:	6823      	ldr	r3, [r4, #0]
    2164:	f503 73e0 	add.w	r3, r3, #448	; 0x1c0
    2168:	2103      	movs	r1, #3
    216a:	f842 1023 	str.w	r1, [r2, r3, lsl #2]
    216e:	6863      	ldr	r3, [r4, #4]
    2170:	f1b3 3fff 	cmp.w	r3, #4294967295	; 0xffffffff
    2174:	d006      	beq.n	2184 <nrfx_uart_init+0x64>
    2176:	f503 73e0 	add.w	r3, r3, #448	; 0x1c0
    217a:	f04f 42a0 	mov.w	r2, #1342177280	; 0x50000000
    217e:	2100      	movs	r1, #0
    2180:	f842 1023 	str.w	r1, [r2, r3, lsl #2]
    2184:	682b      	ldr	r3, [r5, #0]
    2186:	69a2      	ldr	r2, [r4, #24]
    2188:	f8c3 2524 	str.w	r2, [r3, #1316]	; 0x524
    218c:	682a      	ldr	r2, [r5, #0]
    218e:	7d63      	ldrb	r3, [r4, #21]
    2190:	7d21      	ldrb	r1, [r4, #20]
    2192:	430b      	orrs	r3, r1
    2194:	f8c2 356c 	str.w	r3, [r2, #1388]	; 0x56c
    2198:	682b      	ldr	r3, [r5, #0]
    219a:	6822      	ldr	r2, [r4, #0]
    219c:	6861      	ldr	r1, [r4, #4]
    219e:	f8c3 1514 	str.w	r1, [r3, #1300]	; 0x514
    21a2:	f8c3 250c 	str.w	r2, [r3, #1292]	; 0x50c
    21a6:	7d23      	ldrb	r3, [r4, #20]
    21a8:	2b01      	cmp	r3, #1
    21aa:	d04c      	beq.n	2246 <nrfx_uart_init+0x126>
    21ac:	4a3d      	ldr	r2, [pc, #244]	; (22a4 <nrfx_uart_init+0x184>)
    21ae:	232c      	movs	r3, #44	; 0x2c
    21b0:	fb07 f303 	mul.w	r3, r7, r3
    21b4:	18d1      	adds	r1, r2, r3
    21b6:	604e      	str	r6, [r1, #4]
    21b8:	6921      	ldr	r1, [r4, #16]
    21ba:	50d1      	str	r1, [r2, r3]
    21bc:	b386      	cbz	r6, 2220 <nrfx_uart_init+0x100>
    21be:	7f22      	ldrb	r2, [r4, #28]
    21c0:	682b      	ldr	r3, [r5, #0]
    21c2:	2100      	movs	r1, #0
    21c4:	f8c3 111c 	str.w	r1, [r3, #284]	; 0x11c
    21c8:	f8d3 311c 	ldr.w	r3, [r3, #284]	; 0x11c
    21cc:	9300      	str	r3, [sp, #0]
    21ce:	9b00      	ldr	r3, [sp, #0]
    21d0:	682b      	ldr	r3, [r5, #0]
    21d2:	f8c3 1144 	str.w	r1, [r3, #324]	; 0x144
    21d6:	f8d3 3144 	ldr.w	r3, [r3, #324]	; 0x144
    21da:	9301      	str	r3, [sp, #4]
    21dc:	9b01      	ldr	r3, [sp, #4]
    21de:	682b      	ldr	r3, [r5, #0]
    21e0:	4932      	ldr	r1, [pc, #200]	; (22ac <nrfx_uart_init+0x18c>)
    21e2:	f8c3 1304 	str.w	r1, [r3, #772]	; 0x304
    21e6:	682b      	ldr	r3, [r5, #0]
    21e8:	0b19      	lsrs	r1, r3, #12
    21ea:	f343 3307 	sbfx	r3, r3, #12, #8
    21ee:	2b00      	cmp	r3, #0
    21f0:	db4d      	blt.n	228e <nrfx_uart_init+0x16e>
    21f2:	0152      	lsls	r2, r2, #5
    21f4:	b2d2      	uxtb	r2, r2
    21f6:	f103 4360 	add.w	r3, r3, #3758096384	; 0xe0000000
    21fa:	f503 4361 	add.w	r3, r3, #57600	; 0xe100
    21fe:	f883 2300 	strb.w	r2, [r3, #768]	; 0x300
    2202:	682b      	ldr	r3, [r5, #0]
    2204:	0b1a      	lsrs	r2, r3, #12
    2206:	f343 3307 	sbfx	r3, r3, #12, #8
    220a:	2b00      	cmp	r3, #0
    220c:	db08      	blt.n	2220 <nrfx_uart_init+0x100>
    220e:	095b      	lsrs	r3, r3, #5
    2210:	f002 021f 	and.w	r2, r2, #31
    2214:	2101      	movs	r1, #1
    2216:	fa01 f202 	lsl.w	r2, r1, r2
    221a:	4925      	ldr	r1, [pc, #148]	; (22b0 <nrfx_uart_init+0x190>)
    221c:	f841 2023 	str.w	r2, [r1, r3, lsl #2]
    2220:	682b      	ldr	r3, [r5, #0]
    2222:	2204      	movs	r2, #4
    2224:	f8c3 2500 	str.w	r2, [r3, #1280]	; 0x500
    2228:	4b1e      	ldr	r3, [pc, #120]	; (22a4 <nrfx_uart_init+0x184>)
    222a:	222c      	movs	r2, #44	; 0x2c
    222c:	fb02 3307 	mla	r3, r2, r7, r3
    2230:	2200      	movs	r2, #0
    2232:	619a      	str	r2, [r3, #24]
    2234:	61da      	str	r2, [r3, #28]
    2236:	f883 2029 	strb.w	r2, [r3, #41]	; 0x29
    223a:	615a      	str	r2, [r3, #20]
    223c:	2201      	movs	r2, #1
    223e:	f883 202a 	strb.w	r2, [r3, #42]	; 0x2a
    2242:	b003      	add	sp, #12
    2244:	bdf0      	pop	{r4, r5, r6, r7, pc}
    2246:	68a3      	ldr	r3, [r4, #8]
    2248:	f1b3 3fff 	cmp.w	r3, #4294967295	; 0xffffffff
    224c:	d006      	beq.n	225c <nrfx_uart_init+0x13c>
    224e:	f503 73e0 	add.w	r3, r3, #448	; 0x1c0
    2252:	f04f 42a0 	mov.w	r2, #1342177280	; 0x50000000
    2256:	2100      	movs	r1, #0
    2258:	f842 1023 	str.w	r1, [r2, r3, lsl #2]
    225c:	68e3      	ldr	r3, [r4, #12]
    225e:	f1b3 3fff 	cmp.w	r3, #4294967295	; 0xffffffff
    2262:	d00c      	beq.n	227e <nrfx_uart_init+0x15e>
    2264:	2201      	movs	r2, #1
    2266:	fa02 f303 	lsl.w	r3, r2, r3
    226a:	f04f 42a0 	mov.w	r2, #1342177280	; 0x50000000
    226e:	f8c2 3508 	str.w	r3, [r2, #1288]	; 0x508
    2272:	68e3      	ldr	r3, [r4, #12]
    2274:	f503 73e0 	add.w	r3, r3, #448	; 0x1c0
    2278:	2103      	movs	r1, #3
    227a:	f842 1023 	str.w	r1, [r2, r3, lsl #2]
    227e:	682b      	ldr	r3, [r5, #0]
    2280:	68e1      	ldr	r1, [r4, #12]
    2282:	68a2      	ldr	r2, [r4, #8]
    2284:	f8c3 1508 	str.w	r1, [r3, #1288]	; 0x508
    2288:	f8c3 2510 	str.w	r2, [r3, #1296]	; 0x510
    228c:	e78e      	b.n	21ac <nrfx_uart_init+0x8c>
    228e:	f001 010f 	and.w	r1, r1, #15
    2292:	0152      	lsls	r2, r2, #5
    2294:	b2d2      	uxtb	r2, r2
    2296:	4b07      	ldr	r3, [pc, #28]	; (22b4 <nrfx_uart_init+0x194>)
    2298:	545a      	strb	r2, [r3, r1]
    229a:	e7b2      	b.n	2202 <nrfx_uart_init+0xe2>
    229c:	2008      	movs	r0, #8
    229e:	e7d0      	b.n	2242 <nrfx_uart_init+0x122>
    22a0:	2011      	movs	r0, #17
    22a2:	e7ce      	b.n	2242 <nrfx_uart_init+0x122>
    22a4:	20000674 	.word	0x20000674
    22a8:	00001fa9 	.word	0x00001fa9
    22ac:	00020080 	.word	0x00020080
    22b0:	e000e100 	.word	0xe000e100
    22b4:	e000ed14 	.word	0xe000ed14

000022b8 <nrfx_uart_uninit>:
    22b8:	b5f8      	push	{r3, r4, r5, r6, r7, lr}
    22ba:	7904      	ldrb	r4, [r0, #4]
    22bc:	6803      	ldr	r3, [r0, #0]
    22be:	2200      	movs	r2, #0
    22c0:	f8c3 2500 	str.w	r2, [r3, #1280]	; 0x500
    22c4:	4b32      	ldr	r3, [pc, #200]	; (2390 <nrfx_uart_uninit+0xd8>)
    22c6:	222c      	movs	r2, #44	; 0x2c
    22c8:	fb02 3304 	mla	r3, r2, r4, r3
    22cc:	685b      	ldr	r3, [r3, #4]
    22ce:	b1bb      	cbz	r3, 2300 <nrfx_uart_uninit+0x48>
    22d0:	6803      	ldr	r3, [r0, #0]
    22d2:	4a30      	ldr	r2, [pc, #192]	; (2394 <nrfx_uart_uninit+0xdc>)
    22d4:	f8c3 2308 	str.w	r2, [r3, #776]	; 0x308
    22d8:	6803      	ldr	r3, [r0, #0]
    22da:	0b1a      	lsrs	r2, r3, #12
    22dc:	f343 3307 	sbfx	r3, r3, #12, #8
    22e0:	2b00      	cmp	r3, #0
    22e2:	db0d      	blt.n	2300 <nrfx_uart_uninit+0x48>
    22e4:	095b      	lsrs	r3, r3, #5
    22e6:	f002 021f 	and.w	r2, r2, #31
    22ea:	2101      	movs	r1, #1
    22ec:	fa01 f202 	lsl.w	r2, r1, r2
    22f0:	3320      	adds	r3, #32
    22f2:	4929      	ldr	r1, [pc, #164]	; (2398 <nrfx_uart_uninit+0xe0>)
    22f4:	f841 2023 	str.w	r2, [r1, r3, lsl #2]
    22f8:	f3bf 8f4f 	dsb	sy
    22fc:	f3bf 8f6f 	isb	sy
    2300:	6803      	ldr	r3, [r0, #0]
    2302:	f8d3 750c 	ldr.w	r7, [r3, #1292]	; 0x50c
    2306:	f8d3 6514 	ldr.w	r6, [r3, #1300]	; 0x514
    230a:	f8d3 1508 	ldr.w	r1, [r3, #1288]	; 0x508
    230e:	f8d3 5510 	ldr.w	r5, [r3, #1296]	; 0x510
    2312:	f04f 32ff 	mov.w	r2, #4294967295	; 0xffffffff
    2316:	f8c3 2514 	str.w	r2, [r3, #1300]	; 0x514
    231a:	f8c3 250c 	str.w	r2, [r3, #1292]	; 0x50c
    231e:	6803      	ldr	r3, [r0, #0]
    2320:	f8c3 2508 	str.w	r2, [r3, #1288]	; 0x508
    2324:	f8c3 2510 	str.w	r2, [r3, #1296]	; 0x510
    2328:	4297      	cmp	r7, r2
    232a:	d006      	beq.n	233a <nrfx_uart_uninit+0x82>
    232c:	f507 77e0 	add.w	r7, r7, #448	; 0x1c0
    2330:	f04f 43a0 	mov.w	r3, #1342177280	; 0x50000000
    2334:	2202      	movs	r2, #2
    2336:	f843 2027 	str.w	r2, [r3, r7, lsl #2]
    233a:	f1b6 3fff 	cmp.w	r6, #4294967295	; 0xffffffff
    233e:	d006      	beq.n	234e <nrfx_uart_uninit+0x96>
    2340:	f506 76e0 	add.w	r6, r6, #448	; 0x1c0
    2344:	f04f 43a0 	mov.w	r3, #1342177280	; 0x50000000
    2348:	2202      	movs	r2, #2
    234a:	f843 2026 	str.w	r2, [r3, r6, lsl #2]
    234e:	f1b5 3fff 	cmp.w	r5, #4294967295	; 0xffffffff
    2352:	d006      	beq.n	2362 <nrfx_uart_uninit+0xaa>
    2354:	f505 75e0 	add.w	r5, r5, #448	; 0x1c0
    2358:	f04f 43a0 	mov.w	r3, #1342177280	; 0x50000000
    235c:	2202      	movs	r2, #2
    235e:	f843 2025 	str.w	r2, [r3, r5, lsl #2]
    2362:	f1b1 3fff 	cmp.w	r1, #4294967295	; 0xffffffff
    2366:	d006      	beq.n	2376 <nrfx_uart_uninit+0xbe>
    2368:	f501 71e0 	add.w	r1, r1, #448	; 0x1c0
    236c:	f04f 43a0 	mov.w	r3, #1342177280	; 0x50000000
    2370:	2202      	movs	r2, #2
    2372:	f843 2021 	str.w	r2, [r3, r1, lsl #2]
    2376:	6800      	ldr	r0, [r0, #0]
    2378:	f7ff fa24 	bl	17c4 <nrfx_prs_release>
    237c:	4b04      	ldr	r3, [pc, #16]	; (2390 <nrfx_uart_uninit+0xd8>)
    237e:	222c      	movs	r2, #44	; 0x2c
    2380:	fb02 3304 	mla	r3, r2, r4, r3
    2384:	2200      	movs	r2, #0
    2386:	f883 202a 	strb.w	r2, [r3, #42]	; 0x2a
    238a:	605a      	str	r2, [r3, #4]
    238c:	bdf8      	pop	{r3, r4, r5, r6, r7, pc}
    238e:	bf00      	nop
    2390:	20000674 	.word	0x20000674
    2394:	00020284 	.word	0x00020284
    2398:	e000e100 	.word	0xe000e100

0000239c <nrfx_uart_tx_in_progress>:
    239c:	7902      	ldrb	r2, [r0, #4]
    239e:	4b04      	ldr	r3, [pc, #16]	; (23b0 <nrfx_uart_tx_in_progress+0x14>)
    23a0:	212c      	movs	r1, #44	; 0x2c
    23a2:	fb01 3302 	mla	r3, r1, r2, r3
    23a6:	6958      	ldr	r0, [r3, #20]
    23a8:	3800      	subs	r0, #0
    23aa:	bf18      	it	ne
    23ac:	2001      	movne	r0, #1
    23ae:	4770      	bx	lr
    23b0:	20000674 	.word	0x20000674

000023b4 <nrfx_uart_tx>:
    23b4:	e92d 43f0 	stmdb	sp!, {r4, r5, r6, r7, r8, r9, lr}
    23b8:	b083      	sub	sp, #12
    23ba:	4604      	mov	r4, r0
    23bc:	4688      	mov	r8, r1
    23be:	4616      	mov	r6, r2
    23c0:	7907      	ldrb	r7, [r0, #4]
    23c2:	f7ff ffeb 	bl	239c <nrfx_uart_tx_in_progress>
    23c6:	2800      	cmp	r0, #0
    23c8:	d145      	bne.n	2456 <nrfx_uart_tx+0xa2>
    23ca:	4d24      	ldr	r5, [pc, #144]	; (245c <nrfx_uart_tx+0xa8>)
    23cc:	232c      	movs	r3, #44	; 0x2c
    23ce:	fb03 5507 	mla	r5, r3, r7, r5
    23d2:	616e      	str	r6, [r5, #20]
    23d4:	f8c5 8008 	str.w	r8, [r5, #8]
    23d8:	2300      	movs	r3, #0
    23da:	622b      	str	r3, [r5, #32]
    23dc:	f885 3028 	strb.w	r3, [r5, #40]	; 0x28
    23e0:	6822      	ldr	r2, [r4, #0]
    23e2:	f8c2 311c 	str.w	r3, [r2, #284]	; 0x11c
    23e6:	f8d2 311c 	ldr.w	r3, [r2, #284]	; 0x11c
    23ea:	9301      	str	r3, [sp, #4]
    23ec:	9b01      	ldr	r3, [sp, #4]
    23ee:	6823      	ldr	r3, [r4, #0]
    23f0:	2201      	movs	r2, #1
    23f2:	609a      	str	r2, [r3, #8]
    23f4:	4629      	mov	r1, r5
    23f6:	6820      	ldr	r0, [r4, #0]
    23f8:	f7ff fd99 	bl	1f2e <tx_byte>
    23fc:	686b      	ldr	r3, [r5, #4]
    23fe:	b11b      	cbz	r3, 2408 <nrfx_uart_tx+0x54>
    2400:	2000      	movs	r0, #0
    2402:	b003      	add	sp, #12
    2404:	e8bd 83f0 	ldmia.w	sp!, {r4, r5, r6, r7, r8, r9, pc}
    2408:	f8d4 8000 	ldr.w	r8, [r4]
    240c:	f8d5 9014 	ldr.w	r9, [r5, #20]
    2410:	6a2b      	ldr	r3, [r5, #32]
    2412:	454b      	cmp	r3, r9
    2414:	d216      	bcs.n	2444 <nrfx_uart_tx+0x90>
    2416:	462e      	mov	r6, r5
    2418:	f8d8 311c 	ldr.w	r3, [r8, #284]	; 0x11c
    241c:	b95b      	cbnz	r3, 2436 <nrfx_uart_tx+0x82>
    241e:	f896 3028 	ldrb.w	r3, [r6, #40]	; 0x28
    2422:	2b00      	cmp	r3, #0
    2424:	d0f8      	beq.n	2418 <nrfx_uart_tx+0x64>
    2426:	200f      	movs	r0, #15
    2428:	4b0c      	ldr	r3, [pc, #48]	; (245c <nrfx_uart_tx+0xa8>)
    242a:	222c      	movs	r2, #44	; 0x2c
    242c:	fb02 3307 	mla	r3, r2, r7, r3
    2430:	2200      	movs	r2, #0
    2432:	615a      	str	r2, [r3, #20]
    2434:	e7e5      	b.n	2402 <nrfx_uart_tx+0x4e>
    2436:	4629      	mov	r1, r5
    2438:	4640      	mov	r0, r8
    243a:	f7ff fd78 	bl	1f2e <tx_byte>
    243e:	6a33      	ldr	r3, [r6, #32]
    2440:	4599      	cmp	r9, r3
    2442:	d8e9      	bhi.n	2418 <nrfx_uart_tx+0x64>
    2444:	6822      	ldr	r2, [r4, #0]
    2446:	f8d2 311c 	ldr.w	r3, [r2, #284]	; 0x11c
    244a:	2b00      	cmp	r3, #0
    244c:	d0fb      	beq.n	2446 <nrfx_uart_tx+0x92>
    244e:	2301      	movs	r3, #1
    2450:	60d3      	str	r3, [r2, #12]
    2452:	2000      	movs	r0, #0
    2454:	e7e8      	b.n	2428 <nrfx_uart_tx+0x74>
    2456:	2011      	movs	r0, #17
    2458:	e7d3      	b.n	2402 <nrfx_uart_tx+0x4e>
    245a:	bf00      	nop
    245c:	20000674 	.word	0x20000674

00002460 <rx_done_event>:
    2460:	b500      	push	{lr}
    2462:	b085      	sub	sp, #20
    2464:	2301      	movs	r3, #1
    2466:	f88d 3000 	strb.w	r3, [sp]
    246a:	9102      	str	r1, [sp, #8]
    246c:	9201      	str	r2, [sp, #4]
    246e:	6843      	ldr	r3, [r0, #4]
    2470:	6801      	ldr	r1, [r0, #0]
    2472:	4668      	mov	r0, sp
    2474:	4798      	blx	r3
    2476:	b005      	add	sp, #20
    2478:	f85d fb04 	ldr.w	pc, [sp], #4

0000247c <nrfx_uarte_0_irq_handler>:
    247c:	b530      	push	{r4, r5, lr}
    247e:	b08b      	sub	sp, #44	; 0x2c
    2480:	4b55      	ldr	r3, [pc, #340]	; (25d8 <nrfx_uarte_0_irq_handler+0x15c>)
    2482:	f8d3 3124 	ldr.w	r3, [r3, #292]	; 0x124
    2486:	2b00      	cmp	r3, #0
    2488:	d04f      	beq.n	252a <nrfx_uarte_0_irq_handler+0xae>
    248a:	4b53      	ldr	r3, [pc, #332]	; (25d8 <nrfx_uarte_0_irq_handler+0x15c>)
    248c:	2200      	movs	r2, #0
    248e:	f8c3 2124 	str.w	r2, [r3, #292]	; 0x124
    2492:	f8d3 1124 	ldr.w	r1, [r3, #292]	; 0x124
    2496:	9104      	str	r1, [sp, #16]
    2498:	9904      	ldr	r1, [sp, #16]
    249a:	2102      	movs	r1, #2
    249c:	f88d 1018 	strb.w	r1, [sp, #24]
    24a0:	f8d3 1480 	ldr.w	r1, [r3, #1152]	; 0x480
    24a4:	f8c3 1480 	str.w	r1, [r3, #1152]	; 0x480
    24a8:	9109      	str	r1, [sp, #36]	; 0x24
    24aa:	f8d3 353c 	ldr.w	r3, [r3, #1340]	; 0x53c
    24ae:	9308      	str	r3, [sp, #32]
    24b0:	4b4a      	ldr	r3, [pc, #296]	; (25dc <nrfx_uarte_0_irq_handler+0x160>)
    24b2:	68d9      	ldr	r1, [r3, #12]
    24b4:	9107      	str	r1, [sp, #28]
    24b6:	619a      	str	r2, [r3, #24]
    24b8:	61da      	str	r2, [r3, #28]
    24ba:	685a      	ldr	r2, [r3, #4]
    24bc:	6819      	ldr	r1, [r3, #0]
    24be:	a806      	add	r0, sp, #24
    24c0:	4790      	blx	r2
    24c2:	4b45      	ldr	r3, [pc, #276]	; (25d8 <nrfx_uarte_0_irq_handler+0x15c>)
    24c4:	f8d3 3144 	ldr.w	r3, [r3, #324]	; 0x144
    24c8:	b15b      	cbz	r3, 24e2 <nrfx_uarte_0_irq_handler+0x66>
    24ca:	4b43      	ldr	r3, [pc, #268]	; (25d8 <nrfx_uarte_0_irq_handler+0x15c>)
    24cc:	2200      	movs	r2, #0
    24ce:	f8c3 2144 	str.w	r2, [r3, #324]	; 0x144
    24d2:	f8d3 3144 	ldr.w	r3, [r3, #324]	; 0x144
    24d6:	9303      	str	r3, [sp, #12]
    24d8:	9b03      	ldr	r3, [sp, #12]
    24da:	4b40      	ldr	r3, [pc, #256]	; (25dc <nrfx_uarte_0_irq_handler+0x160>)
    24dc:	699b      	ldr	r3, [r3, #24]
    24de:	2b00      	cmp	r3, #0
    24e0:	d151      	bne.n	2586 <nrfx_uarte_0_irq_handler+0x10a>
    24e2:	4b3d      	ldr	r3, [pc, #244]	; (25d8 <nrfx_uarte_0_irq_handler+0x15c>)
    24e4:	f8d3 3120 	ldr.w	r3, [r3, #288]	; 0x120
    24e8:	b16b      	cbz	r3, 2506 <nrfx_uarte_0_irq_handler+0x8a>
    24ea:	4b3b      	ldr	r3, [pc, #236]	; (25d8 <nrfx_uarte_0_irq_handler+0x15c>)
    24ec:	2200      	movs	r2, #0
    24ee:	f8c3 2120 	str.w	r2, [r3, #288]	; 0x120
    24f2:	f8d3 2120 	ldr.w	r2, [r3, #288]	; 0x120
    24f6:	9202      	str	r2, [sp, #8]
    24f8:	9a02      	ldr	r2, [sp, #8]
    24fa:	2201      	movs	r2, #1
    24fc:	60da      	str	r2, [r3, #12]
    24fe:	4b37      	ldr	r3, [pc, #220]	; (25dc <nrfx_uarte_0_irq_handler+0x160>)
    2500:	695b      	ldr	r3, [r3, #20]
    2502:	2b00      	cmp	r3, #0
    2504:	d149      	bne.n	259a <nrfx_uarte_0_irq_handler+0x11e>
    2506:	4b34      	ldr	r3, [pc, #208]	; (25d8 <nrfx_uarte_0_irq_handler+0x15c>)
    2508:	f8d3 3158 	ldr.w	r3, [r3, #344]	; 0x158
    250c:	b15b      	cbz	r3, 2526 <nrfx_uarte_0_irq_handler+0xaa>
    250e:	4b32      	ldr	r3, [pc, #200]	; (25d8 <nrfx_uarte_0_irq_handler+0x15c>)
    2510:	2200      	movs	r2, #0
    2512:	f8c3 2158 	str.w	r2, [r3, #344]	; 0x158
    2516:	f8d3 3158 	ldr.w	r3, [r3, #344]	; 0x158
    251a:	9301      	str	r3, [sp, #4]
    251c:	9b01      	ldr	r3, [sp, #4]
    251e:	4b2f      	ldr	r3, [pc, #188]	; (25dc <nrfx_uarte_0_irq_handler+0x160>)
    2520:	695b      	ldr	r3, [r3, #20]
    2522:	2b00      	cmp	r3, #0
    2524:	d149      	bne.n	25ba <nrfx_uarte_0_irq_handler+0x13e>
    2526:	b00b      	add	sp, #44	; 0x2c
    2528:	bd30      	pop	{r4, r5, pc}
    252a:	4b2b      	ldr	r3, [pc, #172]	; (25d8 <nrfx_uarte_0_irq_handler+0x15c>)
    252c:	f8d3 3110 	ldr.w	r3, [r3, #272]	; 0x110
    2530:	2b00      	cmp	r3, #0
    2532:	d0c6      	beq.n	24c2 <nrfx_uarte_0_irq_handler+0x46>
    2534:	4b28      	ldr	r3, [pc, #160]	; (25d8 <nrfx_uarte_0_irq_handler+0x15c>)
    2536:	2200      	movs	r2, #0
    2538:	f8c3 2110 	str.w	r2, [r3, #272]	; 0x110
    253c:	f8d3 2110 	ldr.w	r2, [r3, #272]	; 0x110
    2540:	9205      	str	r2, [sp, #20]
    2542:	9a05      	ldr	r2, [sp, #20]
    2544:	f8d3 153c 	ldr.w	r1, [r3, #1340]	; 0x53c
    2548:	4b24      	ldr	r3, [pc, #144]	; (25dc <nrfx_uarte_0_irq_handler+0x160>)
    254a:	699b      	ldr	r3, [r3, #24]
    254c:	4299      	cmp	r1, r3
    254e:	d1b8      	bne.n	24c2 <nrfx_uarte_0_irq_handler+0x46>
    2550:	4b22      	ldr	r3, [pc, #136]	; (25dc <nrfx_uarte_0_irq_handler+0x160>)
    2552:	69db      	ldr	r3, [r3, #28]
    2554:	b183      	cbz	r3, 2578 <nrfx_uarte_0_irq_handler+0xfc>
    2556:	4821      	ldr	r0, [pc, #132]	; (25dc <nrfx_uarte_0_irq_handler+0x160>)
    2558:	68c2      	ldr	r2, [r0, #12]
    255a:	4d1f      	ldr	r5, [pc, #124]	; (25d8 <nrfx_uarte_0_irq_handler+0x15c>)
    255c:	f8d5 4200 	ldr.w	r4, [r5, #512]	; 0x200
    2560:	f024 0420 	bic.w	r4, r4, #32
    2564:	f8c5 4200 	str.w	r4, [r5, #512]	; 0x200
    2568:	6183      	str	r3, [r0, #24]
    256a:	6903      	ldr	r3, [r0, #16]
    256c:	60c3      	str	r3, [r0, #12]
    256e:	2300      	movs	r3, #0
    2570:	61c3      	str	r3, [r0, #28]
    2572:	f7ff ff75 	bl	2460 <rx_done_event>
    2576:	e7a4      	b.n	24c2 <nrfx_uarte_0_irq_handler+0x46>
    2578:	4818      	ldr	r0, [pc, #96]	; (25dc <nrfx_uarte_0_irq_handler+0x160>)
    257a:	2300      	movs	r3, #0
    257c:	6183      	str	r3, [r0, #24]
    257e:	68c2      	ldr	r2, [r0, #12]
    2580:	f7ff ff6e 	bl	2460 <rx_done_event>
    2584:	e79d      	b.n	24c2 <nrfx_uarte_0_irq_handler+0x46>
    2586:	4815      	ldr	r0, [pc, #84]	; (25dc <nrfx_uarte_0_irq_handler+0x160>)
    2588:	6182      	str	r2, [r0, #24]
    258a:	61c2      	str	r2, [r0, #28]
    258c:	4b12      	ldr	r3, [pc, #72]	; (25d8 <nrfx_uarte_0_irq_handler+0x15c>)
    258e:	f8d3 153c 	ldr.w	r1, [r3, #1340]	; 0x53c
    2592:	68c2      	ldr	r2, [r0, #12]
    2594:	f7ff ff64 	bl	2460 <rx_done_event>
    2598:	e7a3      	b.n	24e2 <nrfx_uarte_0_irq_handler+0x66>
    259a:	4b0f      	ldr	r3, [pc, #60]	; (25d8 <nrfx_uarte_0_irq_handler+0x15c>)
    259c:	f8d3 354c 	ldr.w	r3, [r3, #1356]	; 0x54c
    25a0:	2200      	movs	r2, #0
    25a2:	f88d 2018 	strb.w	r2, [sp, #24]
    25a6:	9308      	str	r3, [sp, #32]
    25a8:	4b0c      	ldr	r3, [pc, #48]	; (25dc <nrfx_uarte_0_irq_handler+0x160>)
    25aa:	6899      	ldr	r1, [r3, #8]
    25ac:	9107      	str	r1, [sp, #28]
    25ae:	615a      	str	r2, [r3, #20]
    25b0:	685a      	ldr	r2, [r3, #4]
    25b2:	6819      	ldr	r1, [r3, #0]
    25b4:	a806      	add	r0, sp, #24
    25b6:	4790      	blx	r2
    25b8:	e7a5      	b.n	2506 <nrfx_uarte_0_irq_handler+0x8a>
    25ba:	4b07      	ldr	r3, [pc, #28]	; (25d8 <nrfx_uarte_0_irq_handler+0x15c>)
    25bc:	f8d3 354c 	ldr.w	r3, [r3, #1356]	; 0x54c
    25c0:	f88d 2018 	strb.w	r2, [sp, #24]
    25c4:	9308      	str	r3, [sp, #32]
    25c6:	4b05      	ldr	r3, [pc, #20]	; (25dc <nrfx_uarte_0_irq_handler+0x160>)
    25c8:	6899      	ldr	r1, [r3, #8]
    25ca:	9107      	str	r1, [sp, #28]
    25cc:	615a      	str	r2, [r3, #20]
    25ce:	685a      	ldr	r2, [r3, #4]
    25d0:	6819      	ldr	r1, [r3, #0]
    25d2:	a806      	add	r0, sp, #24
    25d4:	4790      	blx	r2
    25d6:	e7a6      	b.n	2526 <nrfx_uarte_0_irq_handler+0xaa>
    25d8:	40002000 	.word	0x40002000
    25dc:	200006a0 	.word	0x200006a0

000025e0 <nrfx_uarte_init>:
    25e0:	b5f0      	push	{r4, r5, r6, r7, lr}
    25e2:	b087      	sub	sp, #28
    25e4:	4617      	mov	r7, r2
    25e6:	7906      	ldrb	r6, [r0, #4]
    25e8:	eb06 02c6 	add.w	r2, r6, r6, lsl #3
    25ec:	4b69      	ldr	r3, [pc, #420]	; (2794 <nrfx_uarte_init+0x1b4>)
    25ee:	eb03 0382 	add.w	r3, r3, r2, lsl #2
    25f2:	f893 3020 	ldrb.w	r3, [r3, #32]
    25f6:	2b00      	cmp	r3, #0
    25f8:	f040 80c8 	bne.w	278c <nrfx_uarte_init+0x1ac>
    25fc:	4604      	mov	r4, r0
    25fe:	460d      	mov	r5, r1
    2600:	4965      	ldr	r1, [pc, #404]	; (2798 <nrfx_uarte_init+0x1b8>)
    2602:	6800      	ldr	r0, [r0, #0]
    2604:	f7ff f8be 	bl	1784 <nrfx_prs_acquire>
    2608:	2800      	cmp	r0, #0
    260a:	f040 80c1 	bne.w	2790 <nrfx_uarte_init+0x1b0>
    260e:	682b      	ldr	r3, [r5, #0]
    2610:	f1b3 3fff 	cmp.w	r3, #4294967295	; 0xffffffff
    2614:	d00c      	beq.n	2630 <nrfx_uarte_init+0x50>
    2616:	2201      	movs	r2, #1
    2618:	fa02 f303 	lsl.w	r3, r2, r3
    261c:	f04f 42a0 	mov.w	r2, #1342177280	; 0x50000000
    2620:	f8c2 3508 	str.w	r3, [r2, #1288]	; 0x508
    2624:	682b      	ldr	r3, [r5, #0]
    2626:	f503 73e0 	add.w	r3, r3, #448	; 0x1c0
    262a:	2103      	movs	r1, #3
    262c:	f842 1023 	str.w	r1, [r2, r3, lsl #2]
    2630:	686b      	ldr	r3, [r5, #4]
    2632:	f1b3 3fff 	cmp.w	r3, #4294967295	; 0xffffffff
    2636:	d006      	beq.n	2646 <nrfx_uarte_init+0x66>
    2638:	f503 73e0 	add.w	r3, r3, #448	; 0x1c0
    263c:	f04f 42a0 	mov.w	r2, #1342177280	; 0x50000000
    2640:	2100      	movs	r1, #0
    2642:	f842 1023 	str.w	r1, [r2, r3, lsl #2]
    2646:	6823      	ldr	r3, [r4, #0]
    2648:	69aa      	ldr	r2, [r5, #24]
    264a:	f8c3 2524 	str.w	r2, [r3, #1316]	; 0x524
    264e:	6822      	ldr	r2, [r4, #0]
    2650:	7d6b      	ldrb	r3, [r5, #21]
    2652:	7d29      	ldrb	r1, [r5, #20]
    2654:	430b      	orrs	r3, r1
    2656:	f8c2 356c 	str.w	r3, [r2, #1388]	; 0x56c
    265a:	6823      	ldr	r3, [r4, #0]
    265c:	6829      	ldr	r1, [r5, #0]
    265e:	686a      	ldr	r2, [r5, #4]
    2660:	f8c3 150c 	str.w	r1, [r3, #1292]	; 0x50c
    2664:	f8c3 2514 	str.w	r2, [r3, #1300]	; 0x514
    2668:	7d2b      	ldrb	r3, [r5, #20]
    266a:	2b01      	cmp	r3, #1
    266c:	d063      	beq.n	2736 <nrfx_uarte_init+0x156>
    266e:	4b49      	ldr	r3, [pc, #292]	; (2794 <nrfx_uarte_init+0x1b4>)
    2670:	eb06 02c6 	add.w	r2, r6, r6, lsl #3
    2674:	eb03 0182 	add.w	r1, r3, r2, lsl #2
    2678:	604f      	str	r7, [r1, #4]
    267a:	6929      	ldr	r1, [r5, #16]
    267c:	f843 1022 	str.w	r1, [r3, r2, lsl #2]
    2680:	2f00      	cmp	r7, #0
    2682:	d045      	beq.n	2710 <nrfx_uarte_init+0x130>
    2684:	7f2a      	ldrb	r2, [r5, #28]
    2686:	6821      	ldr	r1, [r4, #0]
    2688:	2300      	movs	r3, #0
    268a:	f8c1 3110 	str.w	r3, [r1, #272]	; 0x110
    268e:	f8d1 1110 	ldr.w	r1, [r1, #272]	; 0x110
    2692:	9101      	str	r1, [sp, #4]
    2694:	9901      	ldr	r1, [sp, #4]
    2696:	6821      	ldr	r1, [r4, #0]
    2698:	f8c1 3120 	str.w	r3, [r1, #288]	; 0x120
    269c:	f8d1 1120 	ldr.w	r1, [r1, #288]	; 0x120
    26a0:	9102      	str	r1, [sp, #8]
    26a2:	9902      	ldr	r1, [sp, #8]
    26a4:	6821      	ldr	r1, [r4, #0]
    26a6:	f8c1 3124 	str.w	r3, [r1, #292]	; 0x124
    26aa:	f8d1 1124 	ldr.w	r1, [r1, #292]	; 0x124
    26ae:	9103      	str	r1, [sp, #12]
    26b0:	9903      	ldr	r1, [sp, #12]
    26b2:	6821      	ldr	r1, [r4, #0]
    26b4:	f8c1 3144 	str.w	r3, [r1, #324]	; 0x144
    26b8:	f8d1 1144 	ldr.w	r1, [r1, #324]	; 0x144
    26bc:	9104      	str	r1, [sp, #16]
    26be:	9904      	ldr	r1, [sp, #16]
    26c0:	6821      	ldr	r1, [r4, #0]
    26c2:	f8c1 3158 	str.w	r3, [r1, #344]	; 0x158
    26c6:	f8d1 3158 	ldr.w	r3, [r1, #344]	; 0x158
    26ca:	9305      	str	r3, [sp, #20]
    26cc:	9b05      	ldr	r3, [sp, #20]
    26ce:	6823      	ldr	r3, [r4, #0]
    26d0:	4932      	ldr	r1, [pc, #200]	; (279c <nrfx_uarte_init+0x1bc>)
    26d2:	f8c3 1304 	str.w	r1, [r3, #772]	; 0x304
    26d6:	6823      	ldr	r3, [r4, #0]
    26d8:	0b19      	lsrs	r1, r3, #12
    26da:	f343 3307 	sbfx	r3, r3, #12, #8
    26de:	2b00      	cmp	r3, #0
    26e0:	db4d      	blt.n	277e <nrfx_uarte_init+0x19e>
    26e2:	0152      	lsls	r2, r2, #5
    26e4:	b2d2      	uxtb	r2, r2
    26e6:	f103 4360 	add.w	r3, r3, #3758096384	; 0xe0000000
    26ea:	f503 4361 	add.w	r3, r3, #57600	; 0xe100
    26ee:	f883 2300 	strb.w	r2, [r3, #768]	; 0x300
    26f2:	6823      	ldr	r3, [r4, #0]
    26f4:	0b1a      	lsrs	r2, r3, #12
    26f6:	f343 3307 	sbfx	r3, r3, #12, #8
    26fa:	2b00      	cmp	r3, #0
    26fc:	db08      	blt.n	2710 <nrfx_uarte_init+0x130>
    26fe:	095b      	lsrs	r3, r3, #5
    2700:	f002 021f 	and.w	r2, r2, #31
    2704:	2101      	movs	r1, #1
    2706:	fa01 f202 	lsl.w	r2, r1, r2
    270a:	4925      	ldr	r1, [pc, #148]	; (27a0 <nrfx_uarte_init+0x1c0>)
    270c:	f841 2023 	str.w	r2, [r1, r3, lsl #2]
    2710:	6823      	ldr	r3, [r4, #0]
    2712:	2208      	movs	r2, #8
    2714:	f8c3 2500 	str.w	r2, [r3, #1280]	; 0x500
    2718:	4a1e      	ldr	r2, [pc, #120]	; (2794 <nrfx_uarte_init+0x1b4>)
    271a:	eb06 03c6 	add.w	r3, r6, r6, lsl #3
    271e:	eb02 0383 	add.w	r3, r2, r3, lsl #2
    2722:	2100      	movs	r1, #0
    2724:	6199      	str	r1, [r3, #24]
    2726:	61d9      	str	r1, [r3, #28]
    2728:	6159      	str	r1, [r3, #20]
    272a:	461a      	mov	r2, r3
    272c:	2301      	movs	r3, #1
    272e:	f882 3020 	strb.w	r3, [r2, #32]
    2732:	b007      	add	sp, #28
    2734:	bdf0      	pop	{r4, r5, r6, r7, pc}
    2736:	68ab      	ldr	r3, [r5, #8]
    2738:	f1b3 3fff 	cmp.w	r3, #4294967295	; 0xffffffff
    273c:	d006      	beq.n	274c <nrfx_uarte_init+0x16c>
    273e:	f503 73e0 	add.w	r3, r3, #448	; 0x1c0
    2742:	f04f 42a0 	mov.w	r2, #1342177280	; 0x50000000
    2746:	2100      	movs	r1, #0
    2748:	f842 1023 	str.w	r1, [r2, r3, lsl #2]
    274c:	68eb      	ldr	r3, [r5, #12]
    274e:	f1b3 3fff 	cmp.w	r3, #4294967295	; 0xffffffff
    2752:	d00c      	beq.n	276e <nrfx_uarte_init+0x18e>
    2754:	2201      	movs	r2, #1
    2756:	fa02 f303 	lsl.w	r3, r2, r3
    275a:	f04f 42a0 	mov.w	r2, #1342177280	; 0x50000000
    275e:	f8c2 3508 	str.w	r3, [r2, #1288]	; 0x508
    2762:	68eb      	ldr	r3, [r5, #12]
    2764:	f503 73e0 	add.w	r3, r3, #448	; 0x1c0
    2768:	2103      	movs	r1, #3
    276a:	f842 1023 	str.w	r1, [r2, r3, lsl #2]
    276e:	6823      	ldr	r3, [r4, #0]
    2770:	68e9      	ldr	r1, [r5, #12]
    2772:	68aa      	ldr	r2, [r5, #8]
    2774:	f8c3 1508 	str.w	r1, [r3, #1288]	; 0x508
    2778:	f8c3 2510 	str.w	r2, [r3, #1296]	; 0x510
    277c:	e777      	b.n	266e <nrfx_uarte_init+0x8e>
    277e:	f001 010f 	and.w	r1, r1, #15
    2782:	0152      	lsls	r2, r2, #5
    2784:	b2d2      	uxtb	r2, r2
    2786:	4b07      	ldr	r3, [pc, #28]	; (27a4 <nrfx_uarte_init+0x1c4>)
    2788:	545a      	strb	r2, [r3, r1]
    278a:	e7b2      	b.n	26f2 <nrfx_uarte_init+0x112>
    278c:	2008      	movs	r0, #8
    278e:	e7d0      	b.n	2732 <nrfx_uarte_init+0x152>
    2790:	2011      	movs	r0, #17
    2792:	e7ce      	b.n	2732 <nrfx_uarte_init+0x152>
    2794:	200006a0 	.word	0x200006a0
    2798:	0000247d 	.word	0x0000247d
    279c:	00420310 	.word	0x00420310
    27a0:	e000e100 	.word	0xe000e100
    27a4:	e000ed14 	.word	0xe000ed14

000027a8 <nrfx_uarte_uninit>:
    27a8:	b5f0      	push	{r4, r5, r6, r7, lr}
    27aa:	b083      	sub	sp, #12
    27ac:	4601      	mov	r1, r0
    27ae:	7904      	ldrb	r4, [r0, #4]
    27b0:	6800      	ldr	r0, [r0, #0]
    27b2:	eb04 02c4 	add.w	r2, r4, r4, lsl #3
    27b6:	4b4a      	ldr	r3, [pc, #296]	; (28e0 <nrfx_uarte_uninit+0x138>)
    27b8:	eb03 0382 	add.w	r3, r3, r2, lsl #2
    27bc:	685b      	ldr	r3, [r3, #4]
    27be:	b1b3      	cbz	r3, 27ee <nrfx_uarte_uninit+0x46>
    27c0:	4b48      	ldr	r3, [pc, #288]	; (28e4 <nrfx_uarte_uninit+0x13c>)
    27c2:	f8c0 3308 	str.w	r3, [r0, #776]	; 0x308
    27c6:	680b      	ldr	r3, [r1, #0]
    27c8:	0b1a      	lsrs	r2, r3, #12
    27ca:	f343 3307 	sbfx	r3, r3, #12, #8
    27ce:	2b00      	cmp	r3, #0
    27d0:	db0d      	blt.n	27ee <nrfx_uarte_uninit+0x46>
    27d2:	095b      	lsrs	r3, r3, #5
    27d4:	f002 021f 	and.w	r2, r2, #31
    27d8:	2501      	movs	r5, #1
    27da:	fa05 f202 	lsl.w	r2, r5, r2
    27de:	3320      	adds	r3, #32
    27e0:	4d41      	ldr	r5, [pc, #260]	; (28e8 <nrfx_uarte_uninit+0x140>)
    27e2:	f845 2023 	str.w	r2, [r5, r3, lsl #2]
    27e6:	f3bf 8f4f 	dsb	sy
    27ea:	f3bf 8f6f 	isb	sy
    27ee:	f8d0 3200 	ldr.w	r3, [r0, #512]	; 0x200
    27f2:	f023 0320 	bic.w	r3, r3, #32
    27f6:	f8c0 3200 	str.w	r3, [r0, #512]	; 0x200
    27fa:	eb04 02c4 	add.w	r2, r4, r4, lsl #3
    27fe:	4b38      	ldr	r3, [pc, #224]	; (28e0 <nrfx_uarte_uninit+0x138>)
    2800:	eb03 0382 	add.w	r3, r3, r2, lsl #2
    2804:	699b      	ldr	r3, [r3, #24]
    2806:	b143      	cbz	r3, 281a <nrfx_uarte_uninit+0x72>
    2808:	2300      	movs	r3, #0
    280a:	f8c0 3144 	str.w	r3, [r0, #324]	; 0x144
    280e:	f8d0 3144 	ldr.w	r3, [r0, #324]	; 0x144
    2812:	9300      	str	r3, [sp, #0]
    2814:	9b00      	ldr	r3, [sp, #0]
    2816:	2301      	movs	r3, #1
    2818:	6043      	str	r3, [r0, #4]
    281a:	2300      	movs	r3, #0
    281c:	f8c0 3158 	str.w	r3, [r0, #344]	; 0x158
    2820:	f8d0 3158 	ldr.w	r3, [r0, #344]	; 0x158
    2824:	9301      	str	r3, [sp, #4]
    2826:	9b01      	ldr	r3, [sp, #4]
    2828:	2301      	movs	r3, #1
    282a:	60c3      	str	r3, [r0, #12]
    282c:	eb04 03c4 	add.w	r3, r4, r4, lsl #3
    2830:	4a2b      	ldr	r2, [pc, #172]	; (28e0 <nrfx_uarte_uninit+0x138>)
    2832:	eb02 0283 	add.w	r2, r2, r3, lsl #2
    2836:	f8d0 3158 	ldr.w	r3, [r0, #344]	; 0x158
    283a:	2b00      	cmp	r3, #0
    283c:	d0fb      	beq.n	2836 <nrfx_uarte_uninit+0x8e>
    283e:	6993      	ldr	r3, [r2, #24]
    2840:	b11b      	cbz	r3, 284a <nrfx_uarte_uninit+0xa2>
    2842:	f8d0 3144 	ldr.w	r3, [r0, #324]	; 0x144
    2846:	2b00      	cmp	r3, #0
    2848:	d0f5      	beq.n	2836 <nrfx_uarte_uninit+0x8e>
    284a:	2300      	movs	r3, #0
    284c:	f8c0 3500 	str.w	r3, [r0, #1280]	; 0x500
    2850:	680b      	ldr	r3, [r1, #0]
    2852:	f8d3 c50c 	ldr.w	ip, [r3, #1292]	; 0x50c
    2856:	f8d3 7514 	ldr.w	r7, [r3, #1300]	; 0x514
    285a:	f8d3 5508 	ldr.w	r5, [r3, #1288]	; 0x508
    285e:	f8d3 6510 	ldr.w	r6, [r3, #1296]	; 0x510
    2862:	f04f 32ff 	mov.w	r2, #4294967295	; 0xffffffff
    2866:	f8c3 250c 	str.w	r2, [r3, #1292]	; 0x50c
    286a:	f8c3 2514 	str.w	r2, [r3, #1300]	; 0x514
    286e:	680b      	ldr	r3, [r1, #0]
    2870:	f8c3 2508 	str.w	r2, [r3, #1288]	; 0x508
    2874:	f8c3 2510 	str.w	r2, [r3, #1296]	; 0x510
    2878:	4594      	cmp	ip, r2
    287a:	d006      	beq.n	288a <nrfx_uarte_uninit+0xe2>
    287c:	f50c 7ce0 	add.w	ip, ip, #448	; 0x1c0
    2880:	f04f 43a0 	mov.w	r3, #1342177280	; 0x50000000
    2884:	2202      	movs	r2, #2
    2886:	f843 202c 	str.w	r2, [r3, ip, lsl #2]
    288a:	f1b7 3fff 	cmp.w	r7, #4294967295	; 0xffffffff
    288e:	d006      	beq.n	289e <nrfx_uarte_uninit+0xf6>
    2890:	f507 77e0 	add.w	r7, r7, #448	; 0x1c0
    2894:	f04f 43a0 	mov.w	r3, #1342177280	; 0x50000000
    2898:	2202      	movs	r2, #2
    289a:	f843 2027 	str.w	r2, [r3, r7, lsl #2]
    289e:	f1b6 3fff 	cmp.w	r6, #4294967295	; 0xffffffff
    28a2:	d006      	beq.n	28b2 <nrfx_uarte_uninit+0x10a>
    28a4:	f506 76e0 	add.w	r6, r6, #448	; 0x1c0
    28a8:	f04f 43a0 	mov.w	r3, #1342177280	; 0x50000000
    28ac:	2202      	movs	r2, #2
    28ae:	f843 2026 	str.w	r2, [r3, r6, lsl #2]
    28b2:	f1b5 3fff 	cmp.w	r5, #4294967295	; 0xffffffff
    28b6:	d006      	beq.n	28c6 <nrfx_uarte_uninit+0x11e>
    28b8:	f505 75e0 	add.w	r5, r5, #448	; 0x1c0
    28bc:	f04f 43a0 	mov.w	r3, #1342177280	; 0x50000000
    28c0:	2202      	movs	r2, #2
    28c2:	f843 2025 	str.w	r2, [r3, r5, lsl #2]
    28c6:	f7fe ff7d 	bl	17c4 <nrfx_prs_release>
    28ca:	4b05      	ldr	r3, [pc, #20]	; (28e0 <nrfx_uarte_uninit+0x138>)
    28cc:	eb04 02c4 	add.w	r2, r4, r4, lsl #3
    28d0:	eb03 0282 	add.w	r2, r3, r2, lsl #2
    28d4:	2100      	movs	r1, #0
    28d6:	f882 1020 	strb.w	r1, [r2, #32]
    28da:	6051      	str	r1, [r2, #4]
    28dc:	b003      	add	sp, #12
    28de:	bdf0      	pop	{r4, r5, r6, r7, pc}
    28e0:	200006a0 	.word	0x200006a0
    28e4:	00420310 	.word	0x00420310
    28e8:	e000e100 	.word	0xe000e100

000028ec <nrfx_uarte_tx_in_progress>:
    28ec:	7903      	ldrb	r3, [r0, #4]
    28ee:	eb03 03c3 	add.w	r3, r3, r3, lsl #3
    28f2:	4a04      	ldr	r2, [pc, #16]	; (2904 <nrfx_uarte_tx_in_progress+0x18>)
    28f4:	eb02 0383 	add.w	r3, r2, r3, lsl #2
    28f8:	6958      	ldr	r0, [r3, #20]
    28fa:	3800      	subs	r0, #0
    28fc:	bf18      	it	ne
    28fe:	2001      	movne	r0, #1
    2900:	4770      	bx	lr
    2902:	bf00      	nop
    2904:	200006a0 	.word	0x200006a0

00002908 <nrfx_uarte_tx>:
    2908:	f001 4360 	and.w	r3, r1, #3758096384	; 0xe0000000
    290c:	f1b3 5f00 	cmp.w	r3, #536870912	; 0x20000000
    2910:	d001      	beq.n	2916 <nrfx_uarte_tx+0xe>
    2912:	2010      	movs	r0, #16
    2914:	4770      	bx	lr
    2916:	b5f0      	push	{r4, r5, r6, r7, lr}
    2918:	b083      	sub	sp, #12
    291a:	4604      	mov	r4, r0
    291c:	460d      	mov	r5, r1
    291e:	4616      	mov	r6, r2
    2920:	7907      	ldrb	r7, [r0, #4]
    2922:	f7ff ffe3 	bl	28ec <nrfx_uarte_tx_in_progress>
    2926:	2800      	cmp	r0, #0
    2928:	d13f      	bne.n	29aa <nrfx_uarte_tx+0xa2>
    292a:	eb07 02c7 	add.w	r2, r7, r7, lsl #3
    292e:	4b20      	ldr	r3, [pc, #128]	; (29b0 <nrfx_uarte_tx+0xa8>)
    2930:	eb03 0382 	add.w	r3, r3, r2, lsl #2
    2934:	615e      	str	r6, [r3, #20]
    2936:	609d      	str	r5, [r3, #8]
    2938:	6822      	ldr	r2, [r4, #0]
    293a:	2100      	movs	r1, #0
    293c:	f8c2 1120 	str.w	r1, [r2, #288]	; 0x120
    2940:	f8d2 2120 	ldr.w	r2, [r2, #288]	; 0x120
    2944:	9201      	str	r2, [sp, #4]
    2946:	9a01      	ldr	r2, [sp, #4]
    2948:	6822      	ldr	r2, [r4, #0]
    294a:	f8c2 1158 	str.w	r1, [r2, #344]	; 0x158
    294e:	f8d2 2158 	ldr.w	r2, [r2, #344]	; 0x158
    2952:	9200      	str	r2, [sp, #0]
    2954:	9a00      	ldr	r2, [sp, #0]
    2956:	6822      	ldr	r2, [r4, #0]
    2958:	6959      	ldr	r1, [r3, #20]
    295a:	f8c2 5544 	str.w	r5, [r2, #1348]	; 0x544
    295e:	f8c2 1548 	str.w	r1, [r2, #1352]	; 0x548
    2962:	6822      	ldr	r2, [r4, #0]
    2964:	2101      	movs	r1, #1
    2966:	6091      	str	r1, [r2, #8]
    2968:	685b      	ldr	r3, [r3, #4]
    296a:	b113      	cbz	r3, 2972 <nrfx_uarte_tx+0x6a>
    296c:	2000      	movs	r0, #0
    296e:	b003      	add	sp, #12
    2970:	bdf0      	pop	{r4, r5, r6, r7, pc}
    2972:	6823      	ldr	r3, [r4, #0]
    2974:	f8d3 2120 	ldr.w	r2, [r3, #288]	; 0x120
    2978:	f8d3 0158 	ldr.w	r0, [r3, #344]	; 0x158
    297c:	b91a      	cbnz	r2, 2986 <nrfx_uarte_tx+0x7e>
    297e:	2800      	cmp	r0, #0
    2980:	d0f8      	beq.n	2974 <nrfx_uarte_tx+0x6c>
    2982:	200f      	movs	r0, #15
    2984:	e007      	b.n	2996 <nrfx_uarte_tx+0x8e>
    2986:	b970      	cbnz	r0, 29a6 <nrfx_uarte_tx+0x9e>
    2988:	2201      	movs	r2, #1
    298a:	60da      	str	r2, [r3, #12]
    298c:	6822      	ldr	r2, [r4, #0]
    298e:	f8d2 3158 	ldr.w	r3, [r2, #344]	; 0x158
    2992:	2b00      	cmp	r3, #0
    2994:	d0fb      	beq.n	298e <nrfx_uarte_tx+0x86>
    2996:	eb07 07c7 	add.w	r7, r7, r7, lsl #3
    299a:	4b05      	ldr	r3, [pc, #20]	; (29b0 <nrfx_uarte_tx+0xa8>)
    299c:	eb03 0387 	add.w	r3, r3, r7, lsl #2
    29a0:	2200      	movs	r2, #0
    29a2:	615a      	str	r2, [r3, #20]
    29a4:	e7e3      	b.n	296e <nrfx_uarte_tx+0x66>
    29a6:	200f      	movs	r0, #15
    29a8:	e7f5      	b.n	2996 <nrfx_uarte_tx+0x8e>
    29aa:	2011      	movs	r0, #17
    29ac:	e7df      	b.n	296e <nrfx_uarte_tx+0x66>
    29ae:	bf00      	nop
    29b0:	200006a0 	.word	0x200006a0

000029b4 <twi_handler>:
    29b4:	b508      	push	{r3, lr}
    29b6:	7803      	ldrb	r3, [r0, #0]
    29b8:	b92b      	cbnz	r3, 29c6 <twi_handler+0x12>
    29ba:	7903      	ldrb	r3, [r0, #4]
    29bc:	2b01      	cmp	r3, #1
    29be:	d003      	beq.n	29c8 <twi_handler+0x14>
    29c0:	4b08      	ldr	r3, [pc, #32]	; (29e4 <twi_handler+0x30>)
    29c2:	2201      	movs	r2, #1
    29c4:	701a      	strb	r2, [r3, #0]
    29c6:	bd08      	pop	{r3, pc}
    29c8:	4807      	ldr	r0, [pc, #28]	; (29e8 <twi_handler+0x34>)
    29ca:	4b08      	ldr	r3, [pc, #32]	; (29ec <twi_handler+0x38>)
    29cc:	1ac0      	subs	r0, r0, r3
    29ce:	08c0      	lsrs	r0, r0, #3
    29d0:	0400      	lsls	r0, r0, #16
    29d2:	4b07      	ldr	r3, [pc, #28]	; (29f0 <twi_handler+0x3c>)
    29d4:	781a      	ldrb	r2, [r3, #0]
    29d6:	4907      	ldr	r1, [pc, #28]	; (29f4 <twi_handler+0x40>)
    29d8:	f040 0003 	orr.w	r0, r0, #3
    29dc:	f7fd ffda 	bl	994 <nrf_log_frontend_std_1>
    29e0:	e7ee      	b.n	29c0 <twi_handler+0xc>
    29e2:	bf00      	nop
    29e4:	200006c5 	.word	0x200006c5
    29e8:	00003440 	.word	0x00003440
    29ec:	00003420 	.word	0x00003420
    29f0:	200006c4 	.word	0x200006c4
    29f4:	000032b4 	.word	0x000032b4

000029f8 <LM75B_set_mode>:
    29f8:	b500      	push	{lr}
    29fa:	b085      	sub	sp, #20
    29fc:	2301      	movs	r3, #1
    29fe:	f8ad 300c 	strh.w	r3, [sp, #12]
    2a02:	2300      	movs	r3, #0
    2a04:	9300      	str	r3, [sp, #0]
    2a06:	2302      	movs	r3, #2
    2a08:	aa03      	add	r2, sp, #12
    2a0a:	2148      	movs	r1, #72	; 0x48
    2a0c:	4810      	ldr	r0, [pc, #64]	; (2a50 <LM75B_set_mode+0x58>)
    2a0e:	f7ff fa67 	bl	1ee0 <nrfx_twim_tx>
    2a12:	b9b8      	cbnz	r0, 2a44 <LM75B_set_mode+0x4c>
    2a14:	4a0f      	ldr	r2, [pc, #60]	; (2a54 <LM75B_set_mode+0x5c>)
    2a16:	7813      	ldrb	r3, [r2, #0]
    2a18:	2b00      	cmp	r3, #0
    2a1a:	d0fc      	beq.n	2a16 <LM75B_set_mode+0x1e>
    2a1c:	2300      	movs	r3, #0
    2a1e:	f88d 300c 	strb.w	r3, [sp, #12]
    2a22:	4a0c      	ldr	r2, [pc, #48]	; (2a54 <LM75B_set_mode+0x5c>)
    2a24:	7013      	strb	r3, [r2, #0]
    2a26:	9300      	str	r3, [sp, #0]
    2a28:	2301      	movs	r3, #1
    2a2a:	aa03      	add	r2, sp, #12
    2a2c:	2148      	movs	r1, #72	; 0x48
    2a2e:	4808      	ldr	r0, [pc, #32]	; (2a50 <LM75B_set_mode+0x58>)
    2a30:	f7ff fa56 	bl	1ee0 <nrfx_twim_tx>
    2a34:	b948      	cbnz	r0, 2a4a <LM75B_set_mode+0x52>
    2a36:	4a07      	ldr	r2, [pc, #28]	; (2a54 <LM75B_set_mode+0x5c>)
    2a38:	7813      	ldrb	r3, [r2, #0]
    2a3a:	2b00      	cmp	r3, #0
    2a3c:	d0fc      	beq.n	2a38 <LM75B_set_mode+0x40>
    2a3e:	b005      	add	sp, #20
    2a40:	f85d fb04 	ldr.w	pc, [sp], #4
    2a44:	f7fe f980 	bl	d48 <app_error_handler_bare>
    2a48:	e7e4      	b.n	2a14 <LM75B_set_mode+0x1c>
    2a4a:	f7fe f97d 	bl	d48 <app_error_handler_bare>
    2a4e:	e7f2      	b.n	2a36 <LM75B_set_mode+0x3e>
    2a50:	0000330c 	.word	0x0000330c
    2a54:	200006c5 	.word	0x200006c5

00002a58 <twi_init>:
    2a58:	b500      	push	{lr}
    2a5a:	b085      	sub	sp, #20
    2a5c:	2300      	movs	r3, #0
    2a5e:	f8ad 300d 	strh.w	r3, [sp, #13]
    2a62:	f88d 300f 	strb.w	r3, [sp, #15]
    2a66:	221b      	movs	r2, #27
    2a68:	9200      	str	r2, [sp, #0]
    2a6a:	221a      	movs	r2, #26
    2a6c:	9201      	str	r2, [sp, #4]
    2a6e:	f04f 72cc 	mov.w	r2, #26738688	; 0x1980000
    2a72:	9202      	str	r2, [sp, #8]
    2a74:	2202      	movs	r2, #2
    2a76:	f88d 200c 	strb.w	r2, [sp, #12]
    2a7a:	4a07      	ldr	r2, [pc, #28]	; (2a98 <twi_init+0x40>)
    2a7c:	4669      	mov	r1, sp
    2a7e:	4807      	ldr	r0, [pc, #28]	; (2a9c <twi_init+0x44>)
    2a80:	f7fe fd84 	bl	158c <nrf_drv_twi_init>
    2a84:	b928      	cbnz	r0, 2a92 <twi_init+0x3a>
    2a86:	4806      	ldr	r0, [pc, #24]	; (2aa0 <twi_init+0x48>)
    2a88:	f7ff f85e 	bl	1b48 <nrfx_twim_enable>
    2a8c:	b005      	add	sp, #20
    2a8e:	f85d fb04 	ldr.w	pc, [sp], #4
    2a92:	f7fe f959 	bl	d48 <app_error_handler_bare>
    2a96:	e7f6      	b.n	2a86 <twi_init+0x2e>
    2a98:	000029b5 	.word	0x000029b5
    2a9c:	00003308 	.word	0x00003308
    2aa0:	0000330c 	.word	0x0000330c

00002aa4 <main>:
    2aa4:	e92d 41f0 	stmdb	sp!, {r4, r5, r6, r7, r8, lr}
    2aa8:	2100      	movs	r1, #0
    2aaa:	4608      	mov	r0, r1
    2aac:	f7fd fd9a 	bl	5e4 <nrf_log_init>
    2ab0:	b9d0      	cbnz	r0, 2ae8 <main+0x44>
    2ab2:	f7fd fd13 	bl	4dc <nrf_log_default_backends_init>
    2ab6:	481c      	ldr	r0, [pc, #112]	; (2b28 <main+0x84>)
    2ab8:	4b1c      	ldr	r3, [pc, #112]	; (2b2c <main+0x88>)
    2aba:	1ac0      	subs	r0, r0, r3
    2abc:	08c0      	lsrs	r0, r0, #3
    2abe:	0400      	lsls	r0, r0, #16
    2ac0:	491b      	ldr	r1, [pc, #108]	; (2b30 <main+0x8c>)
    2ac2:	f040 0003 	orr.w	r0, r0, #3
    2ac6:	f7fd ff01 	bl	8cc <nrf_log_frontend_std_0>
    2aca:	f7fd fde1 	bl	690 <nrf_log_frontend_dequeue>
    2ace:	2800      	cmp	r0, #0
    2ad0:	d1fb      	bne.n	2aca <main+0x26>
    2ad2:	f7ff ffc1 	bl	2a58 <twi_init>
    2ad6:	f7ff ff8f 	bl	29f8 <LM75B_set_mode>
    2ada:	4f16      	ldr	r7, [pc, #88]	; (2b34 <main+0x90>)
    2adc:	f047 0701 	orr.w	r7, r7, #1
    2ae0:	4d15      	ldr	r5, [pc, #84]	; (2b38 <main+0x94>)
    2ae2:	f8df 805c 	ldr.w	r8, [pc, #92]	; 2b40 <main+0x9c>
    2ae6:	e006      	b.n	2af6 <main+0x52>
    2ae8:	f7fe f92e 	bl	d48 <app_error_handler_bare>
    2aec:	e7e1      	b.n	2ab2 <main+0xe>
    2aee:	f7fd fdcf 	bl	690 <nrf_log_frontend_dequeue>
    2af2:	2800      	cmp	r0, #0
    2af4:	d1fb      	bne.n	2aee <main+0x4a>
    2af6:	f44f 74fa 	mov.w	r4, #500	; 0x1f4
    2afa:	f44f 467a 	mov.w	r6, #64000	; 0xfa00
    2afe:	4630      	mov	r0, r6
    2b00:	47b8      	blx	r7
    2b02:	3c01      	subs	r4, #1
    2b04:	d1fb      	bne.n	2afe <main+0x5a>
    2b06:	bf20      	wfe
    2b08:	782b      	ldrb	r3, [r5, #0]
    2b0a:	2b00      	cmp	r3, #0
    2b0c:	d0fb      	beq.n	2b06 <main+0x62>
    2b0e:	2300      	movs	r3, #0
    2b10:	702b      	strb	r3, [r5, #0]
    2b12:	2301      	movs	r3, #1
    2b14:	4a09      	ldr	r2, [pc, #36]	; (2b3c <main+0x98>)
    2b16:	2148      	movs	r1, #72	; 0x48
    2b18:	4640      	mov	r0, r8
    2b1a:	f7ff f9f4 	bl	1f06 <nrfx_twim_rx>
    2b1e:	2800      	cmp	r0, #0
    2b20:	d0e5      	beq.n	2aee <main+0x4a>
    2b22:	f7fe f911 	bl	d48 <app_error_handler_bare>
    2b26:	e7e2      	b.n	2aee <main+0x4a>
    2b28:	00003440 	.word	0x00003440
    2b2c:	00003420 	.word	0x00003420
    2b30:	000032d8 	.word	0x000032d8
    2b34:	00003300 	.word	0x00003300
    2b38:	200006c5 	.word	0x200006c5
    2b3c:	200006c4 	.word	0x200006c4
    2b40:	0000330c 	.word	0x0000330c

00002b44 <SystemInit>:
    2b44:	f04f 5380 	mov.w	r3, #268435456	; 0x10000000
    2b48:	f8d3 3130 	ldr.w	r3, [r3, #304]	; 0x130
    2b4c:	f1b3 3fff 	cmp.w	r3, #4294967295	; 0xffffffff
    2b50:	bf04      	itt	eq
    2b52:	f04f 4370 	moveq.w	r3, #4026531840	; 0xf0000000
    2b56:	f893 3fe0 	ldrbeq.w	r3, [r3, #4064]	; 0xfe0
    2b5a:	2b06      	cmp	r3, #6
    2b5c:	d108      	bne.n	2b70 <SystemInit+0x2c>
    2b5e:	f04f 5380 	mov.w	r3, #268435456	; 0x10000000
    2b62:	f8d3 3324 	ldr.w	r3, [r3, #804]	; 0x324
    2b66:	f3c3 2304 	ubfx	r3, r3, #8, #5
    2b6a:	4ac5      	ldr	r2, [pc, #788]	; (2e80 <SystemInit+0x33c>)
    2b6c:	f8c2 3540 	str.w	r3, [r2, #1344]	; 0x540
    2b70:	f04f 4370 	mov.w	r3, #4026531840	; 0xf0000000
    2b74:	f893 3fe0 	ldrb.w	r3, [r3, #4064]	; 0xfe0
    2b78:	2b06      	cmp	r3, #6
    2b7a:	d070      	beq.n	2c5e <SystemInit+0x11a>
    2b7c:	f04f 5380 	mov.w	r3, #268435456	; 0x10000000
    2b80:	f8d3 3130 	ldr.w	r3, [r3, #304]	; 0x130
    2b84:	f1b3 3fff 	cmp.w	r3, #4294967295	; 0xffffffff
    2b88:	bf04      	itt	eq
    2b8a:	f04f 4370 	moveq.w	r3, #4026531840	; 0xf0000000
    2b8e:	f893 3fe0 	ldrbeq.w	r3, [r3, #4064]	; 0xfe0
    2b92:	2b06      	cmp	r3, #6
    2b94:	d109      	bne.n	2baa <SystemInit+0x66>
    2b96:	f04f 5380 	mov.w	r3, #268435456	; 0x10000000
    2b9a:	f8d3 3244 	ldr.w	r3, [r3, #580]	; 0x244
    2b9e:	f3c3 3342 	ubfx	r3, r3, #13, #3
    2ba2:	f04f 4280 	mov.w	r2, #1073741824	; 0x40000000
    2ba6:	f8c2 353c 	str.w	r3, [r2, #1340]	; 0x53c
    2baa:	f04f 4370 	mov.w	r3, #4026531840	; 0xf0000000
    2bae:	f893 3fe0 	ldrb.w	r3, [r3, #4064]	; 0xfe0
    2bb2:	2b06      	cmp	r3, #6
    2bb4:	d05f      	beq.n	2c76 <SystemInit+0x132>
    2bb6:	f04f 5380 	mov.w	r3, #268435456	; 0x10000000
    2bba:	f8d3 3130 	ldr.w	r3, [r3, #304]	; 0x130
    2bbe:	f1b3 3fff 	cmp.w	r3, #4294967295	; 0xffffffff
    2bc2:	bf04      	itt	eq
    2bc4:	f04f 4370 	moveq.w	r3, #4026531840	; 0xf0000000
    2bc8:	f893 3fe0 	ldrbeq.w	r3, [r3, #4064]	; 0xfe0
    2bcc:	2b06      	cmp	r3, #6
    2bce:	d108      	bne.n	2be2 <SystemInit+0x9e>
    2bd0:	f04f 4380 	mov.w	r3, #1073741824	; 0x40000000
    2bd4:	2200      	movs	r2, #0
    2bd6:	f8c3 210c 	str.w	r2, [r3, #268]	; 0x10c
    2bda:	f8c3 2110 	str.w	r2, [r3, #272]	; 0x110
    2bde:	f8c3 2538 	str.w	r2, [r3, #1336]	; 0x538
    2be2:	f04f 4370 	mov.w	r3, #4026531840	; 0xf0000000
    2be6:	f893 3fe0 	ldrb.w	r3, [r3, #4064]	; 0xfe0
    2bea:	2b06      	cmp	r3, #6
    2bec:	d053      	beq.n	2c96 <SystemInit+0x152>
    2bee:	f04f 5380 	mov.w	r3, #268435456	; 0x10000000
    2bf2:	f8d3 2130 	ldr.w	r2, [r3, #304]	; 0x130
    2bf6:	f1b2 3fff 	cmp.w	r2, #4294967295	; 0xffffffff
    2bfa:	d075      	beq.n	2ce8 <SystemInit+0x1a4>
    2bfc:	f04f 5380 	mov.w	r3, #268435456	; 0x10000000
    2c00:	f8d3 3134 	ldr.w	r3, [r3, #308]	; 0x134
    2c04:	2a06      	cmp	r2, #6
    2c06:	f000 80a4 	beq.w	2d52 <SystemInit+0x20e>
    2c0a:	f04f 5380 	mov.w	r3, #268435456	; 0x10000000
    2c0e:	f8d3 3130 	ldr.w	r3, [r3, #304]	; 0x130
    2c12:	2b06      	cmp	r3, #6
    2c14:	d078      	beq.n	2d08 <SystemInit+0x1c4>
    2c16:	f04f 5380 	mov.w	r3, #268435456	; 0x10000000
    2c1a:	f8d3 3130 	ldr.w	r3, [r3, #304]	; 0x130
    2c1e:	2b06      	cmp	r3, #6
    2c20:	f000 80ea 	beq.w	2df8 <SystemInit+0x2b4>
    2c24:	4a97      	ldr	r2, [pc, #604]	; (2e84 <SystemInit+0x340>)
    2c26:	f8d2 3088 	ldr.w	r3, [r2, #136]	; 0x88
    2c2a:	f443 0370 	orr.w	r3, r3, #15728640	; 0xf00000
    2c2e:	f8c2 3088 	str.w	r3, [r2, #136]	; 0x88
    2c32:	f3bf 8f4f 	dsb	sy
    2c36:	f3bf 8f6f 	isb	sy
    2c3a:	f04f 2310 	mov.w	r3, #268439552	; 0x10001000
    2c3e:	f8d3 3200 	ldr.w	r3, [r3, #512]	; 0x200
    2c42:	2b00      	cmp	r3, #0
    2c44:	f2c0 80e8 	blt.w	2e18 <SystemInit+0x2d4>
    2c48:	f04f 2310 	mov.w	r3, #268439552	; 0x10001000
    2c4c:	f8d3 3204 	ldr.w	r3, [r3, #516]	; 0x204
    2c50:	2b00      	cmp	r3, #0
    2c52:	f2c0 80e1 	blt.w	2e18 <SystemInit+0x2d4>
    2c56:	4b8c      	ldr	r3, [pc, #560]	; (2e88 <SystemInit+0x344>)
    2c58:	4a8c      	ldr	r2, [pc, #560]	; (2e8c <SystemInit+0x348>)
    2c5a:	601a      	str	r2, [r3, #0]
    2c5c:	4770      	bx	lr
    2c5e:	f04f 4370 	mov.w	r3, #4026531840	; 0xf0000000
    2c62:	f8d3 3fe8 	ldr.w	r3, [r3, #4072]	; 0xfe8
    2c66:	f3c3 1303 	ubfx	r3, r3, #4, #4
    2c6a:	2b03      	cmp	r3, #3
    2c6c:	d186      	bne.n	2b7c <SystemInit+0x38>
    2c6e:	4b88      	ldr	r3, [pc, #544]	; (2e90 <SystemInit+0x34c>)
    2c70:	4a88      	ldr	r2, [pc, #544]	; (2e94 <SystemInit+0x350>)
    2c72:	675a      	str	r2, [r3, #116]	; 0x74
    2c74:	e782      	b.n	2b7c <SystemInit+0x38>
    2c76:	f04f 4370 	mov.w	r3, #4026531840	; 0xf0000000
    2c7a:	f8d3 3fe8 	ldr.w	r3, [r3, #4072]	; 0xfe8
    2c7e:	f3c3 1303 	ubfx	r3, r3, #4, #4
    2c82:	2b03      	cmp	r3, #3
    2c84:	d197      	bne.n	2bb6 <SystemInit+0x72>
    2c86:	4a7f      	ldr	r2, [pc, #508]	; (2e84 <SystemInit+0x340>)
    2c88:	f8d2 30fc 	ldr.w	r3, [r2, #252]	; 0xfc
    2c8c:	f023 7380 	bic.w	r3, r3, #16777216	; 0x1000000
    2c90:	f8c2 30fc 	str.w	r3, [r2, #252]	; 0xfc
    2c94:	e78f      	b.n	2bb6 <SystemInit+0x72>
    2c96:	f04f 4370 	mov.w	r3, #4026531840	; 0xf0000000
    2c9a:	f8d3 3fe8 	ldr.w	r3, [r3, #4072]	; 0xfe8
    2c9e:	f3c3 1303 	ubfx	r3, r3, #4, #4
    2ca2:	2b03      	cmp	r3, #3
    2ca4:	d10a      	bne.n	2cbc <SystemInit+0x178>
    2ca6:	f04f 4380 	mov.w	r3, #1073741824	; 0x40000000
    2caa:	2203      	movs	r2, #3
    2cac:	f8c3 25a0 	str.w	r2, [r3, #1440]	; 0x5a0
    2cb0:	f04f 4370 	mov.w	r3, #4026531840	; 0xf0000000
    2cb4:	f893 3fe0 	ldrb.w	r3, [r3, #4064]	; 0xfe0
    2cb8:	2b06      	cmp	r3, #6
    2cba:	d198      	bne.n	2bee <SystemInit+0xaa>
    2cbc:	f04f 4370 	mov.w	r3, #4026531840	; 0xf0000000
    2cc0:	f8d3 3fe8 	ldr.w	r3, [r3, #4072]	; 0xfe8
    2cc4:	f3c3 1303 	ubfx	r3, r3, #4, #4
    2cc8:	2b03      	cmp	r3, #3
    2cca:	d190      	bne.n	2bee <SystemInit+0xaa>
    2ccc:	4b72      	ldr	r3, [pc, #456]	; (2e98 <SystemInit+0x354>)
    2cce:	2205      	movs	r2, #5
    2cd0:	f8c3 2610 	str.w	r2, [r3, #1552]	; 0x610
    2cd4:	2201      	movs	r2, #1
    2cd6:	f8c3 2688 	str.w	r2, [r3, #1672]	; 0x688
    2cda:	2200      	movs	r2, #0
    2cdc:	f8c3 2618 	str.w	r2, [r3, #1560]	; 0x618
    2ce0:	223f      	movs	r2, #63	; 0x3f
    2ce2:	f8c3 2614 	str.w	r2, [r3, #1556]	; 0x614
    2ce6:	e782      	b.n	2bee <SystemInit+0xaa>
    2ce8:	f04f 4270 	mov.w	r2, #4026531840	; 0xf0000000
    2cec:	f8d2 3fe8 	ldr.w	r3, [r2, #4072]	; 0xfe8
    2cf0:	f3c3 1303 	ubfx	r3, r3, #4, #4
    2cf4:	f892 2fe0 	ldrb.w	r2, [r2, #4064]	; 0xfe0
    2cf8:	2a06      	cmp	r2, #6
    2cfa:	d02a      	beq.n	2d52 <SystemInit+0x20e>
    2cfc:	f04f 4370 	mov.w	r3, #4026531840	; 0xf0000000
    2d00:	f893 3fe0 	ldrb.w	r3, [r3, #4064]	; 0xfe0
    2d04:	2b06      	cmp	r3, #6
    2d06:	d10e      	bne.n	2d26 <SystemInit+0x1e2>
    2d08:	f04f 5280 	mov.w	r2, #268435456	; 0x10000000
    2d0c:	f8d2 3258 	ldr.w	r3, [r2, #600]	; 0x258
    2d10:	f003 034f 	and.w	r3, r3, #79	; 0x4f
    2d14:	f04f 4180 	mov.w	r1, #1073741824	; 0x40000000
    2d18:	f8c1 3ee4 	str.w	r3, [r1, #3812]	; 0xee4
    2d1c:	f8d2 3130 	ldr.w	r3, [r2, #304]	; 0x130
    2d20:	f1b3 3fff 	cmp.w	r3, #4294967295	; 0xffffffff
    2d24:	d103      	bne.n	2d2e <SystemInit+0x1ea>
    2d26:	f04f 4370 	mov.w	r3, #4026531840	; 0xf0000000
    2d2a:	f893 3fe0 	ldrb.w	r3, [r3, #4064]	; 0xfe0
    2d2e:	2b06      	cmp	r3, #6
    2d30:	f47f af71 	bne.w	2c16 <SystemInit+0xd2>
    2d34:	f04f 4380 	mov.w	r3, #1073741824	; 0x40000000
    2d38:	f8d3 3400 	ldr.w	r3, [r3, #1024]	; 0x400
    2d3c:	f013 0f01 	tst.w	r3, #1
    2d40:	f43f af69 	beq.w	2c16 <SystemInit+0xd2>
    2d44:	f04f 4380 	mov.w	r3, #1073741824	; 0x40000000
    2d48:	f06f 0201 	mvn.w	r2, #1
    2d4c:	f8c3 2400 	str.w	r2, [r3, #1024]	; 0x400
    2d50:	e761      	b.n	2c16 <SystemInit+0xd2>
    2d52:	3b03      	subs	r3, #3
    2d54:	2b01      	cmp	r3, #1
    2d56:	d946      	bls.n	2de6 <SystemInit+0x2a2>
    2d58:	f04f 5280 	mov.w	r2, #268435456	; 0x10000000
    2d5c:	f8d2 1404 	ldr.w	r1, [r2, #1028]	; 0x404
    2d60:	4b4e      	ldr	r3, [pc, #312]	; (2e9c <SystemInit+0x358>)
    2d62:	f8c3 1520 	str.w	r1, [r3, #1312]	; 0x520
    2d66:	f8d2 1408 	ldr.w	r1, [r2, #1032]	; 0x408
    2d6a:	f8c3 1524 	str.w	r1, [r3, #1316]	; 0x524
    2d6e:	f8d2 140c 	ldr.w	r1, [r2, #1036]	; 0x40c
    2d72:	f8c3 1528 	str.w	r1, [r3, #1320]	; 0x528
    2d76:	f8d2 1410 	ldr.w	r1, [r2, #1040]	; 0x410
    2d7a:	f8c3 152c 	str.w	r1, [r3, #1324]	; 0x52c
    2d7e:	f8d2 1414 	ldr.w	r1, [r2, #1044]	; 0x414
    2d82:	f8c3 1530 	str.w	r1, [r3, #1328]	; 0x530
    2d86:	f8d2 1418 	ldr.w	r1, [r2, #1048]	; 0x418
    2d8a:	f8c3 1534 	str.w	r1, [r3, #1332]	; 0x534
    2d8e:	f8d2 141c 	ldr.w	r1, [r2, #1052]	; 0x41c
    2d92:	f8c3 1540 	str.w	r1, [r3, #1344]	; 0x540
    2d96:	f8d2 1420 	ldr.w	r1, [r2, #1056]	; 0x420
    2d9a:	f8c3 1544 	str.w	r1, [r3, #1348]	; 0x544
    2d9e:	f8d2 1424 	ldr.w	r1, [r2, #1060]	; 0x424
    2da2:	f8c3 1548 	str.w	r1, [r3, #1352]	; 0x548
    2da6:	f8d2 1428 	ldr.w	r1, [r2, #1064]	; 0x428
    2daa:	f8c3 154c 	str.w	r1, [r3, #1356]	; 0x54c
    2dae:	f8d2 142c 	ldr.w	r1, [r2, #1068]	; 0x42c
    2db2:	f8c3 1550 	str.w	r1, [r3, #1360]	; 0x550
    2db6:	f8d2 1430 	ldr.w	r1, [r2, #1072]	; 0x430
    2dba:	f8c3 1554 	str.w	r1, [r3, #1364]	; 0x554
    2dbe:	f8d2 1434 	ldr.w	r1, [r2, #1076]	; 0x434
    2dc2:	f8c3 1560 	str.w	r1, [r3, #1376]	; 0x560
    2dc6:	f8d2 1438 	ldr.w	r1, [r2, #1080]	; 0x438
    2dca:	f8c3 1564 	str.w	r1, [r3, #1380]	; 0x564
    2dce:	f8d2 143c 	ldr.w	r1, [r2, #1084]	; 0x43c
    2dd2:	f8c3 1568 	str.w	r1, [r3, #1384]	; 0x568
    2dd6:	f8d2 1440 	ldr.w	r1, [r2, #1088]	; 0x440
    2dda:	f8c3 156c 	str.w	r1, [r3, #1388]	; 0x56c
    2dde:	f8d2 2444 	ldr.w	r2, [r2, #1092]	; 0x444
    2de2:	f8c3 2570 	str.w	r2, [r3, #1392]	; 0x570
    2de6:	f04f 5380 	mov.w	r3, #268435456	; 0x10000000
    2dea:	f8d3 3130 	ldr.w	r3, [r3, #304]	; 0x130
    2dee:	f1b3 3fff 	cmp.w	r3, #4294967295	; 0xffffffff
    2df2:	f47f af0e 	bne.w	2c12 <SystemInit+0xce>
    2df6:	e781      	b.n	2cfc <SystemInit+0x1b8>
    2df8:	f04f 5380 	mov.w	r3, #268435456	; 0x10000000
    2dfc:	f8d3 3134 	ldr.w	r3, [r3, #308]	; 0x134
    2e00:	3b03      	subs	r3, #3
    2e02:	2b02      	cmp	r3, #2
    2e04:	f67f af0e 	bls.w	2c24 <SystemInit+0xe0>
    2e08:	4a25      	ldr	r2, [pc, #148]	; (2ea0 <SystemInit+0x35c>)
    2e0a:	f8d2 373c 	ldr.w	r3, [r2, #1852]	; 0x73c
    2e0e:	f443 6380 	orr.w	r3, r3, #1024	; 0x400
    2e12:	f8c2 373c 	str.w	r3, [r2, #1852]	; 0x73c
    2e16:	e705      	b.n	2c24 <SystemInit+0xe0>
    2e18:	4b22      	ldr	r3, [pc, #136]	; (2ea4 <SystemInit+0x360>)
    2e1a:	2201      	movs	r2, #1
    2e1c:	f8c3 2504 	str.w	r2, [r3, #1284]	; 0x504
    2e20:	461a      	mov	r2, r3
    2e22:	f8d2 3400 	ldr.w	r3, [r2, #1024]	; 0x400
    2e26:	2b00      	cmp	r3, #0
    2e28:	d0fb      	beq.n	2e22 <SystemInit+0x2de>
    2e2a:	f04f 2310 	mov.w	r3, #268439552	; 0x10001000
    2e2e:	2215      	movs	r2, #21
    2e30:	f8c3 2200 	str.w	r2, [r3, #512]	; 0x200
    2e34:	4a1b      	ldr	r2, [pc, #108]	; (2ea4 <SystemInit+0x360>)
    2e36:	f8d2 3400 	ldr.w	r3, [r2, #1024]	; 0x400
    2e3a:	2b00      	cmp	r3, #0
    2e3c:	d0fb      	beq.n	2e36 <SystemInit+0x2f2>
    2e3e:	f04f 2310 	mov.w	r3, #268439552	; 0x10001000
    2e42:	2215      	movs	r2, #21
    2e44:	f8c3 2204 	str.w	r2, [r3, #516]	; 0x204
    2e48:	4a16      	ldr	r2, [pc, #88]	; (2ea4 <SystemInit+0x360>)
    2e4a:	f8d2 3400 	ldr.w	r3, [r2, #1024]	; 0x400
    2e4e:	2b00      	cmp	r3, #0
    2e50:	d0fb      	beq.n	2e4a <SystemInit+0x306>
    2e52:	4b14      	ldr	r3, [pc, #80]	; (2ea4 <SystemInit+0x360>)
    2e54:	2200      	movs	r2, #0
    2e56:	f8c3 2504 	str.w	r2, [r3, #1284]	; 0x504
    2e5a:	461a      	mov	r2, r3
    2e5c:	f8d2 3400 	ldr.w	r3, [r2, #1024]	; 0x400
    2e60:	2b00      	cmp	r3, #0
    2e62:	d0fb      	beq.n	2e5c <SystemInit+0x318>
    2e64:	f3bf 8f4f 	dsb	sy
    2e68:	4906      	ldr	r1, [pc, #24]	; (2e84 <SystemInit+0x340>)
    2e6a:	68ca      	ldr	r2, [r1, #12]
    2e6c:	f402 62e0 	and.w	r2, r2, #1792	; 0x700
    2e70:	4b0d      	ldr	r3, [pc, #52]	; (2ea8 <SystemInit+0x364>)
    2e72:	4313      	orrs	r3, r2
    2e74:	60cb      	str	r3, [r1, #12]
    2e76:	f3bf 8f4f 	dsb	sy
    2e7a:	bf00      	nop
    2e7c:	e7fd      	b.n	2e7a <SystemInit+0x336>
    2e7e:	bf00      	nop
    2e80:	40013000 	.word	0x40013000
    2e84:	e000ed00 	.word	0xe000ed00
    2e88:	2000001c 	.word	0x2000001c
    2e8c:	03d09000 	.word	0x03d09000
    2e90:	4007c000 	.word	0x4007c000
    2e94:	baadf00d 	.word	0xbaadf00d
    2e98:	40005000 	.word	0x40005000
    2e9c:	4000c000 	.word	0x4000c000
    2ea0:	40001000 	.word	0x40001000
    2ea4:	4001e000 	.word	0x4001e000
    2ea8:	05fa0004 	.word	0x05fa0004

00002eac <atexit>:
    2eac:	2300      	movs	r3, #0
    2eae:	4601      	mov	r1, r0
    2eb0:	461a      	mov	r2, r3
    2eb2:	4618      	mov	r0, r3
    2eb4:	f000 b86a 	b.w	2f8c <__register_exitproc>

00002eb8 <exit>:
    2eb8:	b508      	push	{r3, lr}
    2eba:	4b06      	ldr	r3, [pc, #24]	; (2ed4 <exit+0x1c>)
    2ebc:	4604      	mov	r4, r0
    2ebe:	b113      	cbz	r3, 2ec6 <exit+0xe>
    2ec0:	2100      	movs	r1, #0
    2ec2:	f000 f8c1 	bl	3048 <__call_exitprocs>
    2ec6:	4b04      	ldr	r3, [pc, #16]	; (2ed8 <exit+0x20>)
    2ec8:	681b      	ldr	r3, [r3, #0]
    2eca:	b103      	cbz	r3, 2ece <exit+0x16>
    2ecc:	4798      	blx	r3
    2ece:	4620      	mov	r0, r4
    2ed0:	f000 f916 	bl	3100 <_exit>
    2ed4:	00003049 	.word	0x00003049
    2ed8:	200006c8 	.word	0x200006c8

00002edc <memset>:
    2edc:	4402      	add	r2, r0
    2ede:	4603      	mov	r3, r0
    2ee0:	4293      	cmp	r3, r2
    2ee2:	d100      	bne.n	2ee6 <memset+0xa>
    2ee4:	4770      	bx	lr
    2ee6:	f803 1b01 	strb.w	r1, [r3], #1
    2eea:	e7f9      	b.n	2ee0 <memset+0x4>

00002eec <__libc_init_array>:
    2eec:	b570      	push	{r4, r5, r6, lr}
    2eee:	4d0d      	ldr	r5, [pc, #52]	; (2f24 <__libc_init_array+0x38>)
    2ef0:	4c0d      	ldr	r4, [pc, #52]	; (2f28 <__libc_init_array+0x3c>)
    2ef2:	1b64      	subs	r4, r4, r5
    2ef4:	10a4      	asrs	r4, r4, #2
    2ef6:	2600      	movs	r6, #0
    2ef8:	42a6      	cmp	r6, r4
    2efa:	d109      	bne.n	2f10 <__libc_init_array+0x24>
    2efc:	4d0b      	ldr	r5, [pc, #44]	; (2f2c <__libc_init_array+0x40>)
    2efe:	4c0c      	ldr	r4, [pc, #48]	; (2f30 <__libc_init_array+0x44>)
    2f00:	f000 f900 	bl	3104 <_init>
    2f04:	1b64      	subs	r4, r4, r5
    2f06:	10a4      	asrs	r4, r4, #2
    2f08:	2600      	movs	r6, #0
    2f0a:	42a6      	cmp	r6, r4
    2f0c:	d105      	bne.n	2f1a <__libc_init_array+0x2e>
    2f0e:	bd70      	pop	{r4, r5, r6, pc}
    2f10:	f855 3b04 	ldr.w	r3, [r5], #4
    2f14:	4798      	blx	r3
    2f16:	3601      	adds	r6, #1
    2f18:	e7ee      	b.n	2ef8 <__libc_init_array+0xc>
    2f1a:	f855 3b04 	ldr.w	r3, [r5], #4
    2f1e:	4798      	blx	r3
    2f20:	3601      	adds	r6, #1
    2f22:	e7f2      	b.n	2f0a <__libc_init_array+0x1e>
    2f24:	20000024 	.word	0x20000024
    2f28:	20000024 	.word	0x20000024
    2f2c:	20000024 	.word	0x20000024
    2f30:	20000028 	.word	0x20000028

00002f34 <__libc_fini_array>:
    2f34:	b538      	push	{r3, r4, r5, lr}
    2f36:	4d07      	ldr	r5, [pc, #28]	; (2f54 <__libc_fini_array+0x20>)
    2f38:	4c07      	ldr	r4, [pc, #28]	; (2f58 <__libc_fini_array+0x24>)
    2f3a:	1b64      	subs	r4, r4, r5
    2f3c:	10a4      	asrs	r4, r4, #2
    2f3e:	b91c      	cbnz	r4, 2f48 <__libc_fini_array+0x14>
    2f40:	e8bd 4038 	ldmia.w	sp!, {r3, r4, r5, lr}
    2f44:	f000 b8e4 	b.w	3110 <_fini>
    2f48:	3c01      	subs	r4, #1
    2f4a:	f855 3024 	ldr.w	r3, [r5, r4, lsl #2]
    2f4e:	4798      	blx	r3
    2f50:	e7f5      	b.n	2f3e <__libc_fini_array+0xa>
    2f52:	bf00      	nop
    2f54:	20000028 	.word	0x20000028
    2f58:	2000002c 	.word	0x2000002c

00002f5c <__retarget_lock_acquire_recursive>:
    2f5c:	4770      	bx	lr

00002f5e <__retarget_lock_release_recursive>:
    2f5e:	4770      	bx	lr

00002f60 <memcpy>:
    2f60:	440a      	add	r2, r1
    2f62:	4291      	cmp	r1, r2
    2f64:	f100 33ff 	add.w	r3, r0, #4294967295	; 0xffffffff
    2f68:	d100      	bne.n	2f6c <memcpy+0xc>
    2f6a:	4770      	bx	lr
    2f6c:	b510      	push	{r4, lr}
    2f6e:	f811 4b01 	ldrb.w	r4, [r1], #1
    2f72:	f803 4f01 	strb.w	r4, [r3, #1]!
    2f76:	4291      	cmp	r1, r2
    2f78:	d1f9      	bne.n	2f6e <memcpy+0xe>
    2f7a:	bd10      	pop	{r4, pc}

00002f7c <strlen>:
    2f7c:	4603      	mov	r3, r0
    2f7e:	f813 2b01 	ldrb.w	r2, [r3], #1
    2f82:	2a00      	cmp	r2, #0
    2f84:	d1fb      	bne.n	2f7e <strlen+0x2>
    2f86:	1a18      	subs	r0, r3, r0
    2f88:	3801      	subs	r0, #1
    2f8a:	4770      	bx	lr

00002f8c <__register_exitproc>:
    2f8c:	e92d 43f8 	stmdb	sp!, {r3, r4, r5, r6, r7, r8, r9, lr}
    2f90:	f8df 80b0 	ldr.w	r8, [pc, #176]	; 3044 <__register_exitproc+0xb8>
    2f94:	4606      	mov	r6, r0
    2f96:	f8d8 0000 	ldr.w	r0, [r8]
    2f9a:	461f      	mov	r7, r3
    2f9c:	460d      	mov	r5, r1
    2f9e:	4691      	mov	r9, r2
    2fa0:	f7ff ffdc 	bl	2f5c <__retarget_lock_acquire_recursive>
    2fa4:	4b23      	ldr	r3, [pc, #140]	; (3034 <__register_exitproc+0xa8>)
    2fa6:	681c      	ldr	r4, [r3, #0]
    2fa8:	b934      	cbnz	r4, 2fb8 <__register_exitproc+0x2c>
    2faa:	4c23      	ldr	r4, [pc, #140]	; (3038 <__register_exitproc+0xac>)
    2fac:	601c      	str	r4, [r3, #0]
    2fae:	4b23      	ldr	r3, [pc, #140]	; (303c <__register_exitproc+0xb0>)
    2fb0:	b113      	cbz	r3, 2fb8 <__register_exitproc+0x2c>
    2fb2:	681b      	ldr	r3, [r3, #0]
    2fb4:	f8c4 3088 	str.w	r3, [r4, #136]	; 0x88
    2fb8:	6863      	ldr	r3, [r4, #4]
    2fba:	2b1f      	cmp	r3, #31
    2fbc:	dd07      	ble.n	2fce <__register_exitproc+0x42>
    2fbe:	f8d8 0000 	ldr.w	r0, [r8]
    2fc2:	f7ff ffcc 	bl	2f5e <__retarget_lock_release_recursive>
    2fc6:	f04f 30ff 	mov.w	r0, #4294967295	; 0xffffffff
    2fca:	e8bd 83f8 	ldmia.w	sp!, {r3, r4, r5, r6, r7, r8, r9, pc}
    2fce:	b32e      	cbz	r6, 301c <__register_exitproc+0x90>
    2fd0:	f8d4 0088 	ldr.w	r0, [r4, #136]	; 0x88
    2fd4:	b968      	cbnz	r0, 2ff2 <__register_exitproc+0x66>
    2fd6:	4b1a      	ldr	r3, [pc, #104]	; (3040 <__register_exitproc+0xb4>)
    2fd8:	2b00      	cmp	r3, #0
    2fda:	d0f0      	beq.n	2fbe <__register_exitproc+0x32>
    2fdc:	f44f 7084 	mov.w	r0, #264	; 0x108
    2fe0:	f3af 8000 	nop.w
    2fe4:	2800      	cmp	r0, #0
    2fe6:	d0ea      	beq.n	2fbe <__register_exitproc+0x32>
    2fe8:	2300      	movs	r3, #0
    2fea:	e9c0 3340 	strd	r3, r3, [r0, #256]	; 0x100
    2fee:	f8c4 0088 	str.w	r0, [r4, #136]	; 0x88
    2ff2:	6863      	ldr	r3, [r4, #4]
    2ff4:	f840 9023 	str.w	r9, [r0, r3, lsl #2]
    2ff8:	2201      	movs	r2, #1
    2ffa:	409a      	lsls	r2, r3
    2ffc:	eb00 0183 	add.w	r1, r0, r3, lsl #2
    3000:	f8d0 3100 	ldr.w	r3, [r0, #256]	; 0x100
    3004:	4313      	orrs	r3, r2
    3006:	f8c0 3100 	str.w	r3, [r0, #256]	; 0x100
    300a:	2e02      	cmp	r6, #2
    300c:	f8c1 7080 	str.w	r7, [r1, #128]	; 0x80
    3010:	bf02      	ittt	eq
    3012:	f8d0 3104 	ldreq.w	r3, [r0, #260]	; 0x104
    3016:	4313      	orreq	r3, r2
    3018:	f8c0 3104 	streq.w	r3, [r0, #260]	; 0x104
    301c:	6863      	ldr	r3, [r4, #4]
    301e:	f8d8 0000 	ldr.w	r0, [r8]
    3022:	1c5a      	adds	r2, r3, #1
    3024:	3302      	adds	r3, #2
    3026:	6062      	str	r2, [r4, #4]
    3028:	f844 5023 	str.w	r5, [r4, r3, lsl #2]
    302c:	f7ff ff97 	bl	2f5e <__retarget_lock_release_recursive>
    3030:	2000      	movs	r0, #0
    3032:	e7ca      	b.n	2fca <__register_exitproc+0x3e>
    3034:	2000075c 	.word	0x2000075c
    3038:	200006d0 	.word	0x200006d0
	...
    3044:	20000020 	.word	0x20000020

00003048 <__call_exitprocs>:
    3048:	e92d 4ff7 	stmdb	sp!, {r0, r1, r2, r4, r5, r6, r7, r8, r9, sl, fp, lr}
    304c:	f8df 90a8 	ldr.w	r9, [pc, #168]	; 30f8 <__call_exitprocs+0xb0>
    3050:	9100      	str	r1, [sp, #0]
    3052:	4680      	mov	r8, r0
    3054:	f8d9 0000 	ldr.w	r0, [r9]
    3058:	f8df a0a0 	ldr.w	sl, [pc, #160]	; 30fc <__call_exitprocs+0xb4>
    305c:	f7ff ff7e 	bl	2f5c <__retarget_lock_acquire_recursive>
    3060:	f8da 4000 	ldr.w	r4, [sl]
    3064:	b934      	cbnz	r4, 3074 <__call_exitprocs+0x2c>
    3066:	f8d9 0000 	ldr.w	r0, [r9]
    306a:	b003      	add	sp, #12
    306c:	e8bd 4ff0 	ldmia.w	sp!, {r4, r5, r6, r7, r8, r9, sl, fp, lr}
    3070:	f7ff bf75 	b.w	2f5e <__retarget_lock_release_recursive>
    3074:	6865      	ldr	r5, [r4, #4]
    3076:	f8d4 7088 	ldr.w	r7, [r4, #136]	; 0x88
    307a:	1e6e      	subs	r6, r5, #1
    307c:	3501      	adds	r5, #1
    307e:	eb04 0585 	add.w	r5, r4, r5, lsl #2
    3082:	f107 0b80 	add.w	fp, r7, #128	; 0x80
    3086:	2e00      	cmp	r6, #0
    3088:	dbed      	blt.n	3066 <__call_exitprocs+0x1e>
    308a:	9b00      	ldr	r3, [sp, #0]
    308c:	b143      	cbz	r3, 30a0 <__call_exitprocs+0x58>
    308e:	b917      	cbnz	r7, 3096 <__call_exitprocs+0x4e>
    3090:	3e01      	subs	r6, #1
    3092:	3d04      	subs	r5, #4
    3094:	e7f7      	b.n	3086 <__call_exitprocs+0x3e>
    3096:	f85b 2026 	ldr.w	r2, [fp, r6, lsl #2]
    309a:	9b00      	ldr	r3, [sp, #0]
    309c:	429a      	cmp	r2, r3
    309e:	d1f7      	bne.n	3090 <__call_exitprocs+0x48>
    30a0:	6861      	ldr	r1, [r4, #4]
    30a2:	682a      	ldr	r2, [r5, #0]
    30a4:	3901      	subs	r1, #1
    30a6:	42b1      	cmp	r1, r6
    30a8:	bf16      	itet	ne
    30aa:	2300      	movne	r3, #0
    30ac:	6066      	streq	r6, [r4, #4]
    30ae:	602b      	strne	r3, [r5, #0]
    30b0:	2a00      	cmp	r2, #0
    30b2:	d0ed      	beq.n	3090 <__call_exitprocs+0x48>
    30b4:	6863      	ldr	r3, [r4, #4]
    30b6:	9301      	str	r3, [sp, #4]
    30b8:	b13f      	cbz	r7, 30ca <__call_exitprocs+0x82>
    30ba:	f8d7 1100 	ldr.w	r1, [r7, #256]	; 0x100
    30be:	2301      	movs	r3, #1
    30c0:	fa03 fc06 	lsl.w	ip, r3, r6
    30c4:	ea1c 0f01 	tst.w	ip, r1
    30c8:	d109      	bne.n	30de <__call_exitprocs+0x96>
    30ca:	4790      	blx	r2
    30cc:	6861      	ldr	r1, [r4, #4]
    30ce:	9b01      	ldr	r3, [sp, #4]
    30d0:	f8da 2000 	ldr.w	r2, [sl]
    30d4:	4299      	cmp	r1, r3
    30d6:	d1c3      	bne.n	3060 <__call_exitprocs+0x18>
    30d8:	4294      	cmp	r4, r2
    30da:	d0d9      	beq.n	3090 <__call_exitprocs+0x48>
    30dc:	e7c0      	b.n	3060 <__call_exitprocs+0x18>
    30de:	f8d7 0104 	ldr.w	r0, [r7, #260]	; 0x104
    30e2:	f857 1026 	ldr.w	r1, [r7, r6, lsl #2]
    30e6:	ea1c 0f00 	tst.w	ip, r0
    30ea:	d102      	bne.n	30f2 <__call_exitprocs+0xaa>
    30ec:	4640      	mov	r0, r8
    30ee:	4790      	blx	r2
    30f0:	e7ec      	b.n	30cc <__call_exitprocs+0x84>
    30f2:	4608      	mov	r0, r1
    30f4:	4790      	blx	r2
    30f6:	e7e9      	b.n	30cc <__call_exitprocs+0x84>
    30f8:	20000020 	.word	0x20000020
    30fc:	2000075c 	.word	0x2000075c

00003100 <_exit>:
    3100:	e7fe      	b.n	3100 <_exit>
    3102:	bf00      	nop

00003104 <_init>:
    3104:	b5f8      	push	{r3, r4, r5, r6, r7, lr}
    3106:	bf00      	nop
    3108:	bcf8      	pop	{r3, r4, r5, r6, r7}
    310a:	bc08      	pop	{r3}
    310c:	469e      	mov	lr, r3
    310e:	4770      	bx	lr

00003110 <_fini>:
    3110:	b5f8      	push	{r3, r4, r5, r6, r7, lr}
    3112:	bf00      	nop
    3114:	bcf8      	pop	{r3, r4, r5, r6, r7}
    3116:	bc08      	pop	{r3}
    3118:	469e      	mov	lr, r3
    311a:	4770      	bx	lr
    311c:	ffffffff 	.word	0xffffffff
    3120:	ffffffff 	.word	0xffffffff
    3124:	ffffffff 	.word	0xffffffff
    3128:	ffffffff 	.word	0xffffffff
	...
    3134:	01d60000 	.word	0x01d60000
    3138:	00000106 	.word	0x00000106

0000313c <nrf_log_backend_uart_api>:
    313c:	0000045d 00000429 000003d5 74726175     ]...).......uart
    314c:	676f6c5f 6361625f 646e656b 00000000     _log_backend....
    315c:	6b636142 73646e65 756c6620 64656873     Backends flushed
    316c:	00000000 00707061                       ....app.

00003174 <m_log_push_ringbuf>:
    3174:	20000580 0000007f 20000600 3b315b1b     ... ....... .[1;
    3184:	006d3133 6f4c7325 64207367 70706f72     31m.%sLogs dropp
    3194:	28206465 25296425 000a0d73 6d305b1b     ed (%d)%s....[0m
    31a4:	00000000 00007325 3e73253c 3a732520     ....%s..<%s> %s:
    31b4:	00000020 00000a0d 32302520 00000078      ....... %02x...
    31c4:	00202020 0000007c 00006325 3b315b1b        .|...%c...[1;
    31d4:	006d3033 3b315b1b 006d3233 3b315b1b     30m..[1;32m..[1;
    31e4:	006d3333 3b315b1b 006d3433 3b315b1b     33m..[1;34m..[1;
    31f4:	006d3533 3b315b1b 006d3633 3b315b1b     35m..[1;36m..[1;
    3204:	006d3733 6f727265 00000072 6e726177     37m.error...warn
    3214:	00676e69 6f666e69 00000000 75626564     ing.info....debu
    3224:	00000067                                g...

00003228 <m_colors>:
    3228:	000031a0 000031d0 00003180 000031d8     .1...1...1...1..
    3238:	000031e0 000031e8 000031f0 000031f8     .1...1...1...1..
    3248:	00003200                                .2..

0000324c <severity_names>:
    324c:	00000000 00003208 00003210 00003218     .....2...2...2..
    325c:	00003220 61746146 7265206c 00726f72      2..Fatal error.
    326c:	74737953 72206d65 74657365 00000000     System reset....

0000327c <_aV2C.0>:
    327c:	33323130 37363534 42413938 46454443     0123456789ABCDEF
    328c:	00000000                                ....

00003290 <delay_machine_code.0>:
    3290:	d8fd3803 00004770 00535250 4d495754     .8..pG..PRS.TWIM
    32a0:	00000000 54524155 00000000 54524155     ....UART....UART
    32b0:	00000045 706d6554 74617265 3a657275     E...Temperature:
    32c0:	20642520 736c6543 20737569 72676564      %d Celsius degr
    32d0:	2e736565 00000000 57540a0d 65732049     ees.......TWI se
    32e0:	726f736e 61786520 656c706d 61747320     nsor example sta
    32f0:	64657472 0000002e 00000000 00000000     rted............

00003300 <delay_machine_code.0>:
    3300:	d8fd3803 00004770                       .8..pG..

00003308 <m_twi>:
    3308:	00000000 40003000 00000000 00000001     .....0.@........

00003318 <_ctype_>:
    3318:	20202000 20202020 28282020 20282828     .         ((((( 
    3328:	20202020 20202020 20202020 20202020                     
    3338:	10108820 10101010 10101010 10101010      ...............
    3348:	04040410 04040404 10040404 10101010     ................
    3358:	41411010 41414141 01010101 01010101     ..AAAAAA........
    3368:	01010101 01010101 01010101 10101010     ................
    3378:	42421010 42424242 02020202 02020202     ..BBBBBB........
    3388:	02020202 02020202 02020202 10101010     ................
    3398:	00000020 00000000 00000000 00000000      ...............
	...

0000341c <__EH_FRAME_BEGIN__>:
    341c:	00000000                                ....
