
twi_sensor-o2.elf:     file format elf32-littlearm


Disassembly of section .text:

00000000 <__isr_vector>:
       0:	20010000 	.word	0x20010000
       4:	000002b1 	.word	0x000002b1
       8:	000002d9 	.word	0x000002d9
       c:	000002db 	.word	0x000002db
      10:	000002dd 	.word	0x000002dd
      14:	000002df 	.word	0x000002df
      18:	000002e1 	.word	0x000002e1
	...
      2c:	000002e3 	.word	0x000002e3
      30:	000002e5 	.word	0x000002e5
      34:	00000000 	.word	0x00000000
      38:	000002e7 	.word	0x000002e7
      3c:	000002e9 	.word	0x000002e9
      40:	000002eb 	.word	0x000002eb
      44:	000002eb 	.word	0x000002eb
      48:	00001985 	.word	0x00001985
      4c:	00001d41 	.word	0x00001d41
      50:	000002eb 	.word	0x000002eb
      54:	000002eb 	.word	0x000002eb
      58:	000002eb 	.word	0x000002eb
      5c:	000002eb 	.word	0x000002eb
      60:	000002eb 	.word	0x000002eb
      64:	000002eb 	.word	0x000002eb
      68:	000002eb 	.word	0x000002eb
      6c:	000002eb 	.word	0x000002eb
      70:	000002eb 	.word	0x000002eb
      74:	000002eb 	.word	0x000002eb
      78:	000002eb 	.word	0x000002eb
      7c:	000002eb 	.word	0x000002eb
      80:	000002eb 	.word	0x000002eb
      84:	000002eb 	.word	0x000002eb
      88:	000002eb 	.word	0x000002eb
      8c:	000002eb 	.word	0x000002eb
      90:	000002eb 	.word	0x000002eb
      94:	000002eb 	.word	0x000002eb
      98:	000002eb 	.word	0x000002eb
      9c:	000002eb 	.word	0x000002eb
      a0:	000002eb 	.word	0x000002eb
      a4:	000002eb 	.word	0x000002eb
      a8:	000002eb 	.word	0x000002eb
      ac:	000002eb 	.word	0x000002eb
      b0:	000002eb 	.word	0x000002eb
      b4:	000002eb 	.word	0x000002eb
	...
      c0:	000002eb 	.word	0x000002eb
      c4:	000002eb 	.word	0x000002eb
      c8:	000002eb 	.word	0x000002eb
      cc:	000002eb 	.word	0x000002eb
      d0:	000002eb 	.word	0x000002eb
      d4:	000002eb 	.word	0x000002eb
      d8:	000002eb 	.word	0x000002eb
	...

00000200 <__do_global_dtors_aux>:
     200:	b510      	push	{r4, lr}
     202:	4c05      	ldr	r4, [pc, #20]	; (218 <__do_global_dtors_aux+0x18>)
     204:	7823      	ldrb	r3, [r4, #0]
     206:	b933      	cbnz	r3, 216 <__do_global_dtors_aux+0x16>
     208:	4b04      	ldr	r3, [pc, #16]	; (21c <__do_global_dtors_aux+0x1c>)
     20a:	b113      	cbz	r3, 212 <__do_global_dtors_aux+0x12>
     20c:	4804      	ldr	r0, [pc, #16]	; (220 <__do_global_dtors_aux+0x20>)
     20e:	f3af 8000 	nop.w
     212:	2301      	movs	r3, #1
     214:	7023      	strb	r3, [r4, #0]
     216:	bd10      	pop	{r4, pc}
     218:	2000002c 	.word	0x2000002c
     21c:	00000000 	.word	0x00000000
     220:	00003758 	.word	0x00003758

00000224 <frame_dummy>:
     224:	b508      	push	{r3, lr}
     226:	4b03      	ldr	r3, [pc, #12]	; (234 <frame_dummy+0x10>)
     228:	b11b      	cbz	r3, 232 <frame_dummy+0xe>
     22a:	4903      	ldr	r1, [pc, #12]	; (238 <frame_dummy+0x14>)
     22c:	4803      	ldr	r0, [pc, #12]	; (23c <frame_dummy+0x18>)
     22e:	f3af 8000 	nop.w
     232:	bd08      	pop	{r3, pc}
     234:	00000000 	.word	0x00000000
     238:	20000030 	.word	0x20000030
     23c:	00003758 	.word	0x00003758

00000240 <_stack_init>:
     240:	f5a3 3a80 	sub.w	sl, r3, #65536	; 0x10000
     244:	4770      	bx	lr
     246:	bf00      	nop

00000248 <_mainCRTStartup>:
     248:	4b15      	ldr	r3, [pc, #84]	; (2a0 <_mainCRTStartup+0x58>)
     24a:	2b00      	cmp	r3, #0
     24c:	bf08      	it	eq
     24e:	4b11      	ldreq	r3, [pc, #68]	; (294 <_mainCRTStartup+0x4c>)
     250:	469d      	mov	sp, r3
     252:	f7ff fff5 	bl	240 <_stack_init>
     256:	2100      	movs	r1, #0
     258:	468b      	mov	fp, r1
     25a:	460f      	mov	r7, r1
     25c:	4811      	ldr	r0, [pc, #68]	; (2a4 <_mainCRTStartup+0x5c>)
     25e:	4a12      	ldr	r2, [pc, #72]	; (2a8 <_mainCRTStartup+0x60>)
     260:	1a12      	subs	r2, r2, r0
     262:	f002 ffd5 	bl	3210 <memset>
     266:	4b0c      	ldr	r3, [pc, #48]	; (298 <_mainCRTStartup+0x50>)
     268:	2b00      	cmp	r3, #0
     26a:	d000      	beq.n	26e <_mainCRTStartup+0x26>
     26c:	4798      	blx	r3
     26e:	4b0b      	ldr	r3, [pc, #44]	; (29c <_mainCRTStartup+0x54>)
     270:	2b00      	cmp	r3, #0
     272:	d000      	beq.n	276 <_mainCRTStartup+0x2e>
     274:	4798      	blx	r3
     276:	2000      	movs	r0, #0
     278:	2100      	movs	r1, #0
     27a:	0004      	movs	r4, r0
     27c:	000d      	movs	r5, r1
     27e:	480b      	ldr	r0, [pc, #44]	; (2ac <_mainCRTStartup+0x64>)
     280:	f002 ffae 	bl	31e0 <atexit>
     284:	f002 ffcc 	bl	3220 <__libc_init_array>
     288:	0020      	movs	r0, r4
     28a:	0029      	movs	r1, r5
     28c:	f002 fd8a 	bl	2da4 <main>
     290:	f002 ffac 	bl	31ec <exit>
     294:	00080000 	.word	0x00080000
	...
     2a0:	20010000 	.word	0x20010000
     2a4:	2000002c 	.word	0x2000002c
     2a8:	20000760 	.word	0x20000760
     2ac:	00003269 	.word	0x00003269

000002b0 <Reset_Handler>:
     2b0:	4906      	ldr	r1, [pc, #24]	; (2cc <Reset_Handler+0x1c>)
     2b2:	4a07      	ldr	r2, [pc, #28]	; (2d0 <Reset_Handler+0x20>)
     2b4:	4b07      	ldr	r3, [pc, #28]	; (2d4 <Reset_Handler+0x24>)
     2b6:	1a9b      	subs	r3, r3, r2
     2b8:	dd03      	ble.n	2c2 <Reset_Handler+0x12>
     2ba:	3b04      	subs	r3, #4
     2bc:	58c8      	ldr	r0, [r1, r3]
     2be:	50d0      	str	r0, [r2, r3]
     2c0:	dcfb      	bgt.n	2ba <Reset_Handler+0xa>
     2c2:	f002 fdbf 	bl	2e44 <SystemInit>
     2c6:	f7ff ffbf 	bl	248 <_mainCRTStartup>
     2ca:	0000      	.short	0x0000
     2cc:	000037b0 	.word	0x000037b0
     2d0:	20000000 	.word	0x20000000
     2d4:	2000002c 	.word	0x2000002c

000002d8 <NMI_Handler>:
     2d8:	e7fe      	b.n	2d8 <NMI_Handler>

000002da <HardFault_Handler>:
     2da:	e7fe      	b.n	2da <HardFault_Handler>

000002dc <MemoryManagement_Handler>:
     2dc:	e7fe      	b.n	2dc <MemoryManagement_Handler>

000002de <BusFault_Handler>:
     2de:	e7fe      	b.n	2de <BusFault_Handler>

000002e0 <UsageFault_Handler>:
     2e0:	e7fe      	b.n	2e0 <UsageFault_Handler>

000002e2 <SVC_Handler>:
     2e2:	e7fe      	b.n	2e2 <SVC_Handler>

000002e4 <DebugMon_Handler>:
     2e4:	e7fe      	b.n	2e4 <DebugMon_Handler>

000002e6 <PendSV_Handler>:
     2e6:	e7fe      	b.n	2e6 <PendSV_Handler>

000002e8 <SysTick_Handler>:
     2e8:	e7fe      	b.n	2e8 <SysTick_Handler>

000002ea <Default_Handler>:
     2ea:	e7fe      	b.n	2ea <Default_Handler>

000002ec <nrf_log_backend_serial_put>:
     2ec:	b5f0      	push	{r4, r5, r6, r7, lr}
     2ee:	b095      	sub	sp, #84	; 0x54
     2f0:	4608      	mov	r0, r1
     2f2:	2400      	movs	r4, #0
     2f4:	460e      	mov	r6, r1
     2f6:	4617      	mov	r7, r2
     2f8:	461d      	mov	r5, r3
     2fa:	f001 f9dd 	bl	16b8 <nrf_memobj_get>
     2fe:	9a1a      	ldr	r2, [sp, #104]	; 0x68
     300:	920d      	str	r2, [sp, #52]	; 0x34
     302:	4623      	mov	r3, r4
     304:	2208      	movs	r2, #8
     306:	a905      	add	r1, sp, #20
     308:	4630      	mov	r0, r6
     30a:	e9cd 5409 	strd	r5, r4, [sp, #36]	; 0x24
     30e:	9708      	str	r7, [sp, #32]
     310:	f88d 402c 	strb.w	r4, [sp, #44]	; 0x2c
     314:	940c      	str	r4, [sp, #48]	; 0x30
     316:	f001 fa0b 	bl	1730 <nrf_memobj_read>
     31a:	e9dd 2106 	ldrd	r2, r1, [sp, #24]
     31e:	f89d 3014 	ldrb.w	r3, [sp, #20]
     322:	f88d 4011 	strb.w	r4, [sp, #17]
     326:	e9cd 1202 	strd	r1, r2, [sp, #8]
     32a:	f003 0203 	and.w	r2, r3, #3
     32e:	2a01      	cmp	r2, #1
     330:	d028      	beq.n	384 <nrf_log_backend_serial_put+0x98>
     332:	2a02      	cmp	r2, #2
     334:	d004      	beq.n	340 <nrf_log_backend_serial_put+0x54>
     336:	4630      	mov	r0, r6
     338:	f001 f9c2 	bl	16c0 <nrf_memobj_put>
     33c:	b015      	add	sp, #84	; 0x54
     33e:	bdf0      	pop	{r4, r5, r6, r7, pc}
     340:	f8bd 5016 	ldrh.w	r5, [sp, #22]
     344:	f3c3 03c2 	ubfx	r3, r3, #3, #3
     348:	f3c5 1589 	ubfx	r5, r5, #6, #10
     34c:	f88d 3010 	strb.w	r3, [sp, #16]
     350:	2708      	movs	r7, #8
     352:	2d08      	cmp	r5, #8
     354:	462c      	mov	r4, r5
     356:	bf28      	it	cs
     358:	2408      	movcs	r4, #8
     35a:	463b      	mov	r3, r7
     35c:	4622      	mov	r2, r4
     35e:	a90e      	add	r1, sp, #56	; 0x38
     360:	4630      	mov	r0, r6
     362:	f001 f9e5 	bl	1730 <nrf_memobj_read>
     366:	1b2d      	subs	r5, r5, r4
     368:	ab08      	add	r3, sp, #32
     36a:	aa02      	add	r2, sp, #8
     36c:	4621      	mov	r1, r4
     36e:	a80e      	add	r0, sp, #56	; 0x38
     370:	4427      	add	r7, r4
     372:	f000 fc6f 	bl	c54 <nrf_log_hexdump_entry_process>
     376:	2d00      	cmp	r5, #0
     378:	d1eb      	bne.n	352 <nrf_log_backend_serial_put+0x66>
     37a:	4630      	mov	r0, r6
     37c:	f001 f9a0 	bl	16c0 <nrf_memobj_put>
     380:	b015      	add	sp, #84	; 0x54
     382:	bdf0      	pop	{r4, r5, r6, r7, pc}
     384:	f8bd 1014 	ldrh.w	r1, [sp, #20]
     388:	9805      	ldr	r0, [sp, #20]
     38a:	f3c1 1283 	ubfx	r2, r1, #6, #4
     38e:	f3c3 03c2 	ubfx	r3, r3, #3, #3
     392:	f3c0 2595 	ubfx	r5, r0, #10, #22
     396:	f3c1 1483 	ubfx	r4, r1, #6, #4
     39a:	f88d 3010 	strb.w	r3, [sp, #16]
     39e:	a90e      	add	r1, sp, #56	; 0x38
     3a0:	4630      	mov	r0, r6
     3a2:	0092      	lsls	r2, r2, #2
     3a4:	2308      	movs	r3, #8
     3a6:	f001 f9c3 	bl	1730 <nrf_memobj_read>
     3aa:	ab08      	add	r3, sp, #32
     3ac:	9300      	str	r3, [sp, #0]
     3ae:	4622      	mov	r2, r4
     3b0:	ab02      	add	r3, sp, #8
     3b2:	a90e      	add	r1, sp, #56	; 0x38
     3b4:	4628      	mov	r0, r5
     3b6:	f000 fbd7 	bl	b68 <nrf_log_std_entry_process>
     3ba:	4630      	mov	r0, r6
     3bc:	f001 f980 	bl	16c0 <nrf_memobj_put>
     3c0:	b015      	add	sp, #84	; 0x54
     3c2:	bdf0      	pop	{r4, r5, r6, r7, pc}

000003c4 <uart_evt_handler>:
     3c4:	4b01      	ldr	r3, [pc, #4]	; (3cc <uart_evt_handler+0x8>)
     3c6:	2201      	movs	r2, #1
     3c8:	701a      	strb	r2, [r3, #0]
     3ca:	4770      	bx	lr
     3cc:	2000008c 	.word	0x2000008c

000003d0 <nrf_log_backend_uart_flush>:
     3d0:	4770      	bx	lr
     3d2:	bf00      	nop

000003d4 <nrf_log_backend_uart_put>:
     3d4:	b500      	push	{lr}
     3d6:	b083      	sub	sp, #12
     3d8:	4b04      	ldr	r3, [pc, #16]	; (3ec <nrf_log_backend_uart_put+0x18>)
     3da:	9300      	str	r3, [sp, #0]
     3dc:	4a04      	ldr	r2, [pc, #16]	; (3f0 <nrf_log_backend_uart_put+0x1c>)
     3de:	2340      	movs	r3, #64	; 0x40
     3e0:	f7ff ff84 	bl	2ec <nrf_log_backend_serial_put>
     3e4:	b003      	add	sp, #12
     3e6:	f85d fb04 	ldr.w	pc, [sp], #4
     3ea:	bf00      	nop
     3ec:	000003f5 	.word	0x000003f5
     3f0:	2000004c 	.word	0x2000004c

000003f4 <serial_tx>:
     3f4:	b538      	push	{r3, r4, r5, lr}
     3f6:	480f      	ldr	r0, [pc, #60]	; (434 <serial_tx+0x40>)
     3f8:	4d0f      	ldr	r5, [pc, #60]	; (438 <serial_tx+0x44>)
     3fa:	7803      	ldrb	r3, [r0, #0]
     3fc:	4c0f      	ldr	r4, [pc, #60]	; (43c <serial_tx+0x48>)
     3fe:	5ceb      	ldrb	r3, [r5, r3]
     400:	f04f 0c00 	mov.w	ip, #0
     404:	f884 c000 	strb.w	ip, [r4]
     408:	b2d2      	uxtb	r2, r2
     40a:	b153      	cbz	r3, 422 <serial_tx+0x2e>
     40c:	3004      	adds	r0, #4
     40e:	f002 fbfb 	bl	2c08 <nrfx_uarte_tx>
     412:	b958      	cbnz	r0, 42c <serial_tx+0x38>
     414:	4b0a      	ldr	r3, [pc, #40]	; (440 <serial_tx+0x4c>)
     416:	781a      	ldrb	r2, [r3, #0]
     418:	b112      	cbz	r2, 420 <serial_tx+0x2c>
     41a:	7823      	ldrb	r3, [r4, #0]
     41c:	2b00      	cmp	r3, #0
     41e:	d0fb      	beq.n	418 <serial_tx+0x24>
     420:	bd38      	pop	{r3, r4, r5, pc}
     422:	300c      	adds	r0, #12
     424:	f002 f948 	bl	26b8 <nrfx_uart_tx>
     428:	2800      	cmp	r0, #0
     42a:	d0f3      	beq.n	414 <serial_tx+0x20>
     42c:	f000 fc94 	bl	d58 <app_error_handler_bare>
     430:	e7f0      	b.n	414 <serial_tx+0x20>
     432:	bf00      	nop
     434:	20000000 	.word	0x20000000
     438:	20000634 	.word	0x20000634
     43c:	2000008c 	.word	0x2000008c
     440:	20000048 	.word	0x20000048

00000444 <nrf_log_backend_uart_panic_set>:
     444:	b510      	push	{r4, lr}
     446:	4815      	ldr	r0, [pc, #84]	; (49c <nrf_log_backend_uart_panic_set+0x58>)
     448:	4a15      	ldr	r2, [pc, #84]	; (4a0 <nrf_log_backend_uart_panic_set+0x5c>)
     44a:	7803      	ldrb	r3, [r0, #0]
     44c:	5cd3      	ldrb	r3, [r2, r3]
     44e:	b088      	sub	sp, #32
     450:	b1c3      	cbz	r3, 484 <nrf_log_backend_uart_panic_set+0x40>
     452:	3004      	adds	r0, #4
     454:	f002 fb38 	bl	2ac8 <nrfx_uarte_uninit>
     458:	4c12      	ldr	r4, [pc, #72]	; (4a4 <nrf_log_backend_uart_panic_set+0x60>)
     45a:	cc0f      	ldmia	r4!, {r0, r1, r2, r3}
     45c:	46ec      	mov	ip, sp
     45e:	e8ac 000f 	stmia.w	ip!, {r0, r1, r2, r3}
     462:	e894 000f 	ldmia.w	r4, {r0, r1, r2, r3}
     466:	e88c 000f 	stmia.w	ip, {r0, r1, r2, r3}
     46a:	2306      	movs	r3, #6
     46c:	480b      	ldr	r0, [pc, #44]	; (49c <nrf_log_backend_uart_panic_set+0x58>)
     46e:	9300      	str	r3, [sp, #0]
     470:	2200      	movs	r2, #0
     472:	4669      	mov	r1, sp
     474:	f001 fa4c 	bl	1910 <nrf_drv_uart_init>
     478:	b940      	cbnz	r0, 48c <nrf_log_backend_uart_panic_set+0x48>
     47a:	4b0b      	ldr	r3, [pc, #44]	; (4a8 <nrf_log_backend_uart_panic_set+0x64>)
     47c:	2200      	movs	r2, #0
     47e:	701a      	strb	r2, [r3, #0]
     480:	b008      	add	sp, #32
     482:	bd10      	pop	{r4, pc}
     484:	300c      	adds	r0, #12
     486:	f002 f8a9 	bl	25dc <nrfx_uart_uninit>
     48a:	e7e5      	b.n	458 <nrf_log_backend_uart_panic_set+0x14>
     48c:	f000 fc64 	bl	d58 <app_error_handler_bare>
     490:	4b05      	ldr	r3, [pc, #20]	; (4a8 <nrf_log_backend_uart_panic_set+0x64>)
     492:	2200      	movs	r2, #0
     494:	701a      	strb	r2, [r3, #0]
     496:	b008      	add	sp, #32
     498:	bd10      	pop	{r4, pc}
     49a:	bf00      	nop
     49c:	20000000 	.word	0x20000000
     4a0:	20000634 	.word	0x20000634
     4a4:	00003450 	.word	0x00003450
     4a8:	20000048 	.word	0x20000048

000004ac <nrf_log_backend_uart_init>:
     4ac:	b510      	push	{r4, lr}
     4ae:	4c0f      	ldr	r4, [pc, #60]	; (4ec <nrf_log_backend_uart_init+0x40>)
     4b0:	cc0f      	ldmia	r4!, {r0, r1, r2, r3}
     4b2:	b088      	sub	sp, #32
     4b4:	46ec      	mov	ip, sp
     4b6:	e8ac 000f 	stmia.w	ip!, {r0, r1, r2, r3}
     4ba:	e894 000f 	ldmia.w	r4, {r0, r1, r2, r3}
     4be:	e88c 000f 	stmia.w	ip, {r0, r1, r2, r3}
     4c2:	2306      	movs	r3, #6
     4c4:	4a0a      	ldr	r2, [pc, #40]	; (4f0 <nrf_log_backend_uart_init+0x44>)
     4c6:	480b      	ldr	r0, [pc, #44]	; (4f4 <nrf_log_backend_uart_init+0x48>)
     4c8:	9300      	str	r3, [sp, #0]
     4ca:	4669      	mov	r1, sp
     4cc:	f001 fa20 	bl	1910 <nrf_drv_uart_init>
     4d0:	b920      	cbnz	r0, 4dc <nrf_log_backend_uart_init+0x30>
     4d2:	4b09      	ldr	r3, [pc, #36]	; (4f8 <nrf_log_backend_uart_init+0x4c>)
     4d4:	2201      	movs	r2, #1
     4d6:	701a      	strb	r2, [r3, #0]
     4d8:	b008      	add	sp, #32
     4da:	bd10      	pop	{r4, pc}
     4dc:	f000 fc3c 	bl	d58 <app_error_handler_bare>
     4e0:	4b05      	ldr	r3, [pc, #20]	; (4f8 <nrf_log_backend_uart_init+0x4c>)
     4e2:	2201      	movs	r2, #1
     4e4:	701a      	strb	r2, [r3, #0]
     4e6:	b008      	add	sp, #32
     4e8:	bd10      	pop	{r4, pc}
     4ea:	bf00      	nop
     4ec:	00003450 	.word	0x00003450
     4f0:	000003c5 	.word	0x000003c5
     4f4:	20000000 	.word	0x20000000
     4f8:	20000048 	.word	0x20000048

000004fc <nrf_log_default_backends_init>:
     4fc:	b508      	push	{r3, lr}
     4fe:	f7ff ffd5 	bl	4ac <nrf_log_backend_uart_init>
     502:	4804      	ldr	r0, [pc, #16]	; (514 <nrf_log_default_backends_init+0x18>)
     504:	2104      	movs	r1, #4
     506:	f000 faa9 	bl	a5c <nrf_log_backend_add>
     50a:	4b03      	ldr	r3, [pc, #12]	; (518 <nrf_log_default_backends_init+0x1c>)
     50c:	2201      	movs	r2, #1
     50e:	715a      	strb	r2, [r3, #5]
     510:	bd08      	pop	{r3, pc}
     512:	bf00      	nop
     514:	00003784 	.word	0x00003784
     518:	20000014 	.word	0x20000014

0000051c <buf_prealloc>:
     51c:	e92d 4ff0 	stmdb	sp!, {r4, r5, r6, r7, r8, r9, sl, fp, lr}
     520:	4c48      	ldr	r4, [pc, #288]	; (644 <buf_prealloc+0x128>)
     522:	b087      	sub	sp, #28
     524:	4681      	mov	r9, r0
     526:	460d      	mov	r5, r1
     528:	2000      	movs	r0, #0
     52a:	9201      	str	r2, [sp, #4]
     52c:	f000 fc5a 	bl	de4 <app_util_critical_region_enter>
     530:	6862      	ldr	r2, [r4, #4]
     532:	602a      	str	r2, [r5, #0]
     534:	68a3      	ldr	r3, [r4, #8]
     536:	f503 7380 	add.w	r3, r3, #256	; 0x100
     53a:	f109 0702 	add.w	r7, r9, #2
     53e:	1a9b      	subs	r3, r3, r2
     540:	429f      	cmp	r7, r3
     542:	d963      	bls.n	60c <buf_prealloc+0xf0>
     544:	f204 461c 	addw	r6, r4, #1052	; 0x41c
     548:	f504 6883 	add.w	r8, r4, #1048	; 0x418
     54c:	f204 4514 	addw	r5, r4, #1044	; 0x414
     550:	e02a      	b.n	5a8 <buf_prealloc+0x8c>
     552:	eb04 0182 	add.w	r1, r4, r2, lsl #2
     556:	1c5a      	adds	r2, r3, #1
     558:	68c9      	ldr	r1, [r1, #12]
     55a:	9103      	str	r1, [sp, #12]
     55c:	b2d2      	uxtb	r2, r2
     55e:	f001 0003 	and.w	r0, r1, #3
     562:	eb04 0282 	add.w	r2, r4, r2, lsl #2
     566:	2801      	cmp	r0, #1
     568:	68d1      	ldr	r1, [r2, #12]
     56a:	f103 0a02 	add.w	sl, r3, #2
     56e:	d045      	beq.n	5fc <buf_prealloc+0xe0>
     570:	2802      	cmp	r0, #2
     572:	d139      	bne.n	5e8 <buf_prealloc+0xcc>
     574:	f8bd 200e 	ldrh.w	r2, [sp, #14]
     578:	f3c2 1289 	ubfx	r2, r2, #6, #10
     57c:	3203      	adds	r2, #3
     57e:	ea4f 4b11 	mov.w	fp, r1, lsr #16
     582:	eb0a 0a92 	add.w	sl, sl, r2, lsr #2
     586:	4628      	mov	r0, r5
     588:	f000 fc6c 	bl	e64 <nrf_atomic_flag_clear_fetch>
     58c:	b108      	cbz	r0, 592 <buf_prealloc+0x76>
     58e:	f8c4 a008 	str.w	sl, [r4, #8]
     592:	4659      	mov	r1, fp
     594:	4630      	mov	r0, r6
     596:	f000 fc41 	bl	e1c <nrf_atomic_u32_add>
     59a:	e9d4 2301 	ldrd	r2, r3, [r4, #4]
     59e:	f503 7380 	add.w	r3, r3, #256	; 0x100
     5a2:	1a9b      	subs	r3, r3, r2
     5a4:	429f      	cmp	r7, r3
     5a6:	d931      	bls.n	60c <buf_prealloc+0xf0>
     5a8:	2101      	movs	r1, #1
     5aa:	4630      	mov	r0, r6
     5ac:	f000 fc36 	bl	e1c <nrf_atomic_u32_add>
     5b0:	4640      	mov	r0, r8
     5b2:	f000 fc4b 	bl	e4c <nrf_atomic_flag_set>
     5b6:	4628      	mov	r0, r5
     5b8:	f000 fc48 	bl	e4c <nrf_atomic_flag_set>
     5bc:	68a3      	ldr	r3, [r4, #8]
     5be:	b2da      	uxtb	r2, r3
     5c0:	1cd1      	adds	r1, r2, #3
     5c2:	eb04 0081 	add.w	r0, r4, r1, lsl #2
     5c6:	f814 1021 	ldrb.w	r1, [r4, r1, lsl #2]
     5ca:	0749      	lsls	r1, r1, #29
     5cc:	d5c1      	bpl.n	552 <buf_prealloc+0x36>
     5ce:	7801      	ldrb	r1, [r0, #0]
     5d0:	f001 0103 	and.w	r1, r1, #3
     5d4:	2901      	cmp	r1, #1
     5d6:	d00a      	beq.n	5ee <buf_prealloc+0xd2>
     5d8:	2902      	cmp	r1, #2
     5da:	d1f1      	bne.n	5c0 <buf_prealloc+0xa4>
     5dc:	8842      	ldrh	r2, [r0, #2]
     5de:	3302      	adds	r3, #2
     5e0:	eb03 1392 	add.w	r3, r3, r2, lsr #6
     5e4:	b2da      	uxtb	r2, r3
     5e6:	e7eb      	b.n	5c0 <buf_prealloc+0xa4>
     5e8:	f04f 0b00 	mov.w	fp, #0
     5ec:	e7cb      	b.n	586 <buf_prealloc+0x6a>
     5ee:	8802      	ldrh	r2, [r0, #0]
     5f0:	3302      	adds	r3, #2
     5f2:	f3c2 1283 	ubfx	r2, r2, #6, #4
     5f6:	4413      	add	r3, r2
     5f8:	b2da      	uxtb	r2, r3
     5fa:	e7e1      	b.n	5c0 <buf_prealloc+0xa4>
     5fc:	f8bd 200c 	ldrh.w	r2, [sp, #12]
     600:	f3c2 1283 	ubfx	r2, r2, #6, #4
     604:	ea4f 4b11 	mov.w	fp, r1, lsr #16
     608:	4492      	add	sl, r2
     60a:	e7bc      	b.n	586 <buf_prealloc+0x6a>
     60c:	9b01      	ldr	r3, [sp, #4]
     60e:	2100      	movs	r1, #0
     610:	b19b      	cbz	r3, 63a <buf_prealloc+0x11e>
     612:	f009 030f 	and.w	r3, r9, #15
     616:	019b      	lsls	r3, r3, #6
     618:	f043 0305 	orr.w	r3, r3, #5
     61c:	f363 010f 	bfi	r1, r3, #0, #16
     620:	b2d3      	uxtb	r3, r2
     622:	3303      	adds	r3, #3
     624:	4417      	add	r7, r2
     626:	2000      	movs	r0, #0
     628:	f844 1023 	str.w	r1, [r4, r3, lsl #2]
     62c:	6067      	str	r7, [r4, #4]
     62e:	f000 fbe1 	bl	df4 <app_util_critical_region_exit>
     632:	2001      	movs	r0, #1
     634:	b007      	add	sp, #28
     636:	e8bd 8ff0 	ldmia.w	sp!, {r4, r5, r6, r7, r8, r9, sl, fp, pc}
     63a:	ea4f 5989 	mov.w	r9, r9, lsl #22
     63e:	f049 0106 	orr.w	r1, r9, #6
     642:	e7ed      	b.n	620 <buf_prealloc+0x104>
     644:	20000160 	.word	0x20000160

00000648 <nrf_log_init>:
     648:	4b06      	ldr	r3, [pc, #24]	; (664 <nrf_log_init+0x1c>)
     64a:	4807      	ldr	r0, [pc, #28]	; (668 <nrf_log_init+0x20>)
     64c:	b510      	push	{r4, lr}
     64e:	2200      	movs	r2, #0
     650:	701a      	strb	r2, [r3, #0]
     652:	f000 ffe5 	bl	1620 <nrf_memobj_pool_init>
     656:	4604      	mov	r4, r0
     658:	b910      	cbnz	r0, 660 <nrf_log_init+0x18>
     65a:	4804      	ldr	r0, [pc, #16]	; (66c <nrf_log_init+0x24>)
     65c:	f001 f874 	bl	1748 <nrf_ringbuf_init>
     660:	4620      	mov	r0, r4
     662:	bd10      	pop	{r4, pc}
     664:	20000160 	.word	0x20000160
     668:	00003794 	.word	0x00003794
     66c:	000034a8 	.word	0x000034a8

00000670 <nrf_log_module_name_get>:
     670:	b430      	push	{r4, r5}
     672:	b199      	cbz	r1, 69c <nrf_log_module_name_get+0x2c>
     674:	490d      	ldr	r1, [pc, #52]	; (6ac <nrf_log_module_name_get+0x3c>)
     676:	4d0e      	ldr	r5, [pc, #56]	; (6b0 <nrf_log_module_name_get+0x40>)
     678:	1b49      	subs	r1, r1, r5
     67a:	08c9      	lsrs	r1, r1, #3
     67c:	d013      	beq.n	6a6 <nrf_log_module_name_get+0x36>
     67e:	4c0d      	ldr	r4, [pc, #52]	; (6b4 <nrf_log_module_name_get+0x44>)
     680:	2300      	movs	r3, #0
     682:	e002      	b.n	68a <nrf_log_module_name_get+0x1a>
     684:	3301      	adds	r3, #1
     686:	4299      	cmp	r1, r3
     688:	d00a      	beq.n	6a0 <nrf_log_module_name_get+0x30>
     68a:	f834 2023 	ldrh.w	r2, [r4, r3, lsl #2]
     68e:	4282      	cmp	r2, r0
     690:	d1f8      	bne.n	684 <nrf_log_module_name_get+0x14>
     692:	4618      	mov	r0, r3
     694:	f855 0030 	ldr.w	r0, [r5, r0, lsl #3]
     698:	bc30      	pop	{r4, r5}
     69a:	4770      	bx	lr
     69c:	4d04      	ldr	r5, [pc, #16]	; (6b0 <nrf_log_module_name_get+0x40>)
     69e:	e7f9      	b.n	694 <nrf_log_module_name_get+0x24>
     6a0:	2000      	movs	r0, #0
     6a2:	bc30      	pop	{r4, r5}
     6a4:	4770      	bx	lr
     6a6:	4608      	mov	r0, r1
     6a8:	e7f6      	b.n	698 <nrf_log_module_name_get+0x28>
     6aa:	bf00      	nop
     6ac:	00003784 	.word	0x00003784
     6b0:	0000375c 	.word	0x0000375c
     6b4:	2000002c 	.word	0x2000002c

000006b8 <nrf_log_color_id_get>:
     6b8:	4b09      	ldr	r3, [pc, #36]	; (6e0 <nrf_log_color_id_get+0x28>)
     6ba:	3901      	subs	r1, #1
     6bc:	eb03 00c0 	add.w	r0, r3, r0, lsl #3
     6c0:	2903      	cmp	r1, #3
     6c2:	d80b      	bhi.n	6dc <nrf_log_color_id_get+0x24>
     6c4:	e8df f001 	tbb	[pc, r1]
     6c8:	06080204 	.word	0x06080204
     6cc:	2004      	movs	r0, #4
     6ce:	4770      	bx	lr
     6d0:	2002      	movs	r0, #2
     6d2:	4770      	bx	lr
     6d4:	7940      	ldrb	r0, [r0, #5]
     6d6:	4770      	bx	lr
     6d8:	7900      	ldrb	r0, [r0, #4]
     6da:	4770      	bx	lr
     6dc:	2000      	movs	r0, #0
     6de:	4770      	bx	lr
     6e0:	0000375c 	.word	0x0000375c

000006e4 <nrf_log_frontend_dequeue>:
     6e4:	e92d 43f0 	stmdb	sp!, {r4, r5, r6, r7, r8, r9, lr}
     6e8:	4c9a      	ldr	r4, [pc, #616]	; (954 <nrf_log_frontend_dequeue+0x270>)
     6ea:	e9d4 2301 	ldrd	r2, r3, [r4, #4]
     6ee:	429a      	cmp	r2, r3
     6f0:	b085      	sub	sp, #20
     6f2:	f000 8083 	beq.w	7fc <nrf_log_frontend_dequeue+0x118>
     6f6:	2300      	movs	r3, #0
     6f8:	f8c4 3418 	str.w	r3, [r4, #1048]	; 0x418
     6fc:	f3bf 8f4f 	dsb	sy
     700:	68a5      	ldr	r5, [r4, #8]
     702:	b2ea      	uxtb	r2, r5
     704:	1cd3      	adds	r3, r2, #3
     706:	eb04 0183 	add.w	r1, r4, r3, lsl #2
     70a:	f814 3023 	ldrb.w	r3, [r4, r3, lsl #2]
     70e:	0758      	lsls	r0, r3, #29
     710:	d518      	bpl.n	744 <nrf_log_frontend_dequeue+0x60>
     712:	6866      	ldr	r6, [r4, #4]
     714:	780b      	ldrb	r3, [r1, #0]
     716:	f003 0303 	and.w	r3, r3, #3
     71a:	2b01      	cmp	r3, #1
     71c:	d064      	beq.n	7e8 <nrf_log_frontend_dequeue+0x104>
     71e:	2b02      	cmp	r3, #2
     720:	d103      	bne.n	72a <nrf_log_frontend_dequeue+0x46>
     722:	884b      	ldrh	r3, [r1, #2]
     724:	3502      	adds	r5, #2
     726:	eb05 1593 	add.w	r5, r5, r3, lsr #6
     72a:	b2ea      	uxtb	r2, r5
     72c:	f8d4 0418 	ldr.w	r0, [r4, #1048]	; 0x418
     730:	1cd3      	adds	r3, r2, #3
     732:	eb04 0183 	add.w	r1, r4, r3, lsl #2
     736:	b928      	cbnz	r0, 744 <nrf_log_frontend_dequeue+0x60>
     738:	42ae      	cmp	r6, r5
     73a:	d95b      	bls.n	7f4 <nrf_log_frontend_dequeue+0x110>
     73c:	f814 3023 	ldrb.w	r3, [r4, r3, lsl #2]
     740:	075b      	lsls	r3, r3, #29
     742:	d4e7      	bmi.n	714 <nrf_log_frontend_dequeue+0x30>
     744:	eb04 0282 	add.w	r2, r4, r2, lsl #2
     748:	1c6b      	adds	r3, r5, #1
     74a:	b2db      	uxtb	r3, r3
     74c:	68d2      	ldr	r2, [r2, #12]
     74e:	eb04 0383 	add.w	r3, r4, r3, lsl #2
     752:	f002 0103 	and.w	r1, r2, #3
     756:	68db      	ldr	r3, [r3, #12]
     758:	2902      	cmp	r1, #2
     75a:	e9cd 2301 	strd	r2, r3, [sp, #4]
     75e:	f105 0602 	add.w	r6, r5, #2
     762:	d04f      	beq.n	804 <nrf_log_frontend_dequeue+0x120>
     764:	2901      	cmp	r1, #1
     766:	f000 809b 	beq.w	8a0 <nrf_log_frontend_dequeue+0x1bc>
     76a:	f8d4 5410 	ldr.w	r5, [r4, #1040]	; 0x410
     76e:	b13d      	cbz	r5, 780 <nrf_log_frontend_dequeue+0x9c>
     770:	682b      	ldr	r3, [r5, #0]
     772:	4628      	mov	r0, r5
     774:	689b      	ldr	r3, [r3, #8]
     776:	4798      	blx	r3
     778:	68eb      	ldr	r3, [r5, #12]
     77a:	681d      	ldr	r5, [r3, #0]
     77c:	2d00      	cmp	r5, #0
     77e:	d1f7      	bne.n	770 <nrf_log_frontend_dequeue+0x8c>
     780:	2201      	movs	r2, #1
     782:	4669      	mov	r1, sp
     784:	2000      	movs	r0, #0
     786:	f7ff fec9 	bl	51c <buf_prealloc>
     78a:	b1d0      	cbz	r0, 7c2 <nrf_log_frontend_dequeue+0xde>
     78c:	9d00      	ldr	r5, [sp, #0]
     78e:	4872      	ldr	r0, [pc, #456]	; (958 <nrf_log_frontend_dequeue+0x274>)
     790:	2100      	movs	r1, #0
     792:	f000 fb39 	bl	e08 <nrf_atomic_u32_fetch_store>
     796:	f380 0010 	usat	r0, #16, r0
     79a:	4a70      	ldr	r2, [pc, #448]	; (95c <nrf_log_frontend_dequeue+0x278>)
     79c:	4b70      	ldr	r3, [pc, #448]	; (960 <nrf_log_frontend_dequeue+0x27c>)
     79e:	1c69      	adds	r1, r5, #1
     7a0:	1a9b      	subs	r3, r3, r2
     7a2:	b2c9      	uxtb	r1, r1
     7a4:	4a6f      	ldr	r2, [pc, #444]	; (964 <nrf_log_frontend_dequeue+0x280>)
     7a6:	eb04 0181 	add.w	r1, r4, r1, lsl #2
     7aa:	f3c3 03cf 	ubfx	r3, r3, #3, #16
     7ae:	ea43 4300 	orr.w	r3, r3, r0, lsl #16
     7b2:	b2ed      	uxtb	r5, r5
     7b4:	60cb      	str	r3, [r1, #12]
     7b6:	3503      	adds	r5, #3
     7b8:	0293      	lsls	r3, r2, #10
     7ba:	f043 0311 	orr.w	r3, r3, #17
     7be:	f844 3025 	str.w	r3, [r4, r5, lsl #2]
     7c2:	7823      	ldrb	r3, [r4, #0]
     7c4:	b93b      	cbnz	r3, 7d6 <nrf_log_frontend_dequeue+0xf2>
     7c6:	e9d4 3001 	ldrd	r3, r0, [r4, #4]
     7ca:	1ac0      	subs	r0, r0, r3
     7cc:	bf18      	it	ne
     7ce:	2001      	movne	r0, #1
     7d0:	b005      	add	sp, #20
     7d2:	e8bd 83f0 	ldmia.w	sp!, {r4, r5, r6, r7, r8, r9, pc}
     7d6:	f7ff ff85 	bl	6e4 <nrf_log_frontend_dequeue>
     7da:	2800      	cmp	r0, #0
     7dc:	d0f3      	beq.n	7c6 <nrf_log_frontend_dequeue+0xe2>
     7de:	f7ff ff81 	bl	6e4 <nrf_log_frontend_dequeue>
     7e2:	2800      	cmp	r0, #0
     7e4:	d1f7      	bne.n	7d6 <nrf_log_frontend_dequeue+0xf2>
     7e6:	e7ee      	b.n	7c6 <nrf_log_frontend_dequeue+0xe2>
     7e8:	880b      	ldrh	r3, [r1, #0]
     7ea:	3502      	adds	r5, #2
     7ec:	f3c3 1383 	ubfx	r3, r3, #6, #4
     7f0:	441d      	add	r5, r3
     7f2:	e79a      	b.n	72a <nrf_log_frontend_dequeue+0x46>
     7f4:	60a6      	str	r6, [r4, #8]
     7f6:	b005      	add	sp, #20
     7f8:	e8bd 83f0 	ldmia.w	sp!, {r4, r5, r6, r7, r8, r9, pc}
     7fc:	2000      	movs	r0, #0
     7fe:	b005      	add	sp, #20
     800:	e8bd 83f0 	ldmia.w	sp!, {r4, r5, r6, r7, r8, r9, pc}
     804:	f8bd 3006 	ldrh.w	r3, [sp, #6]
     808:	4857      	ldr	r0, [pc, #348]	; (968 <nrf_log_frontend_dequeue+0x284>)
     80a:	f3c3 1889 	ubfx	r8, r3, #6, #10
     80e:	4645      	mov	r5, r8
     810:	2d50      	cmp	r5, #80	; 0x50
     812:	bf28      	it	cs
     814:	2550      	movcs	r5, #80	; 0x50
     816:	f365 138f 	bfi	r3, r5, #6, #10
     81a:	f105 0108 	add.w	r1, r5, #8
     81e:	f8ad 3006 	strh.w	r3, [sp, #6]
     822:	f000 feff 	bl	1624 <nrf_memobj_alloc>
     826:	4607      	mov	r7, r0
     828:	2800      	cmp	r0, #0
     82a:	d09e      	beq.n	76a <nrf_log_frontend_dequeue+0x86>
     82c:	f000 ff44 	bl	16b8 <nrf_memobj_get>
     830:	2300      	movs	r3, #0
     832:	2208      	movs	r2, #8
     834:	a901      	add	r1, sp, #4
     836:	4638      	mov	r0, r7
     838:	f000 ff6e 	bl	1718 <nrf_memobj_write>
     83c:	43f3      	mvns	r3, r6
     83e:	b2db      	uxtb	r3, r3
     840:	3301      	adds	r3, #1
     842:	ebb5 0f83 	cmp.w	r5, r3, lsl #2
     846:	ea4f 0983 	mov.w	r9, r3, lsl #2
     84a:	d96b      	bls.n	924 <nrf_log_frontend_dequeue+0x240>
     84c:	b2f1      	uxtb	r1, r6
     84e:	eba5 0509 	sub.w	r5, r5, r9
     852:	3103      	adds	r1, #3
     854:	eb04 0181 	add.w	r1, r4, r1, lsl #2
     858:	464a      	mov	r2, r9
     85a:	4638      	mov	r0, r7
     85c:	2308      	movs	r3, #8
     85e:	b2ed      	uxtb	r5, r5
     860:	f000 ff5a 	bl	1718 <nrf_memobj_write>
     864:	4941      	ldr	r1, [pc, #260]	; (96c <nrf_log_frontend_dequeue+0x288>)
     866:	f109 0308 	add.w	r3, r9, #8
     86a:	462a      	mov	r2, r5
     86c:	4638      	mov	r0, r7
     86e:	f000 ff53 	bl	1718 <nrf_memobj_write>
     872:	f108 0803 	add.w	r8, r8, #3
     876:	eb06 0698 	add.w	r6, r6, r8, lsr #2
     87a:	f8d4 3418 	ldr.w	r3, [r4, #1048]	; 0x418
     87e:	f8d4 5410 	ldr.w	r5, [r4, #1040]	; 0x410
     882:	2b00      	cmp	r3, #0
     884:	d14a      	bne.n	91c <nrf_log_frontend_dequeue+0x238>
     886:	2d00      	cmp	r5, #0
     888:	d056      	beq.n	938 <nrf_log_frontend_dequeue+0x254>
     88a:	68eb      	ldr	r3, [r5, #12]
     88c:	795a      	ldrb	r2, [r3, #5]
     88e:	4628      	mov	r0, r5
     890:	4639      	mov	r1, r7
     892:	b11a      	cbz	r2, 89c <nrf_log_frontend_dequeue+0x1b8>
     894:	682b      	ldr	r3, [r5, #0]
     896:	681b      	ldr	r3, [r3, #0]
     898:	4798      	blx	r3
     89a:	68eb      	ldr	r3, [r5, #12]
     89c:	681d      	ldr	r5, [r3, #0]
     89e:	e7f2      	b.n	886 <nrf_log_frontend_dequeue+0x1a2>
     8a0:	f8bd 2004 	ldrh.w	r2, [sp, #4]
     8a4:	4830      	ldr	r0, [pc, #192]	; (968 <nrf_log_frontend_dequeue+0x284>)
     8a6:	f3c2 1383 	ubfx	r3, r2, #6, #4
     8aa:	2b06      	cmp	r3, #6
     8ac:	bf28      	it	cs
     8ae:	2306      	movcs	r3, #6
     8b0:	f363 1289 	bfi	r2, r3, #6, #4
     8b4:	3302      	adds	r3, #2
     8b6:	f003 010f 	and.w	r1, r3, #15
     8ba:	0089      	lsls	r1, r1, #2
     8bc:	f8ad 2004 	strh.w	r2, [sp, #4]
     8c0:	f000 feb0 	bl	1624 <nrf_memobj_alloc>
     8c4:	4607      	mov	r7, r0
     8c6:	2800      	cmp	r0, #0
     8c8:	f43f af4f 	beq.w	76a <nrf_log_frontend_dequeue+0x86>
     8cc:	f000 fef4 	bl	16b8 <nrf_memobj_get>
     8d0:	2300      	movs	r3, #0
     8d2:	2208      	movs	r2, #8
     8d4:	a901      	add	r1, sp, #4
     8d6:	4638      	mov	r0, r7
     8d8:	f000 ff1e 	bl	1718 <nrf_memobj_write>
     8dc:	f8bd 3004 	ldrh.w	r3, [sp, #4]
     8e0:	f413 7f70 	tst.w	r3, #960	; 0x3c0
     8e4:	d0c9      	beq.n	87a <nrf_log_frontend_dequeue+0x196>
     8e6:	f06f 0901 	mvn.w	r9, #1
     8ea:	f04f 0808 	mov.w	r8, #8
     8ee:	eba9 0905 	sub.w	r9, r9, r5
     8f2:	b2f1      	uxtb	r1, r6
     8f4:	3103      	adds	r1, #3
     8f6:	4643      	mov	r3, r8
     8f8:	2204      	movs	r2, #4
     8fa:	eb04 0181 	add.w	r1, r4, r1, lsl #2
     8fe:	4638      	mov	r0, r7
     900:	f000 ff0a 	bl	1718 <nrf_memobj_write>
     904:	f8bd 3004 	ldrh.w	r3, [sp, #4]
     908:	3601      	adds	r6, #1
     90a:	f3c3 1383 	ubfx	r3, r3, #6, #4
     90e:	eb09 0206 	add.w	r2, r9, r6
     912:	4293      	cmp	r3, r2
     914:	f108 0804 	add.w	r8, r8, #4
     918:	d8eb      	bhi.n	8f2 <nrf_log_frontend_dequeue+0x20e>
     91a:	e7ae      	b.n	87a <nrf_log_frontend_dequeue+0x196>
     91c:	4638      	mov	r0, r7
     91e:	f000 fecf 	bl	16c0 <nrf_memobj_put>
     922:	e750      	b.n	7c6 <nrf_log_frontend_dequeue+0xe2>
     924:	b2f1      	uxtb	r1, r6
     926:	3103      	adds	r1, #3
     928:	462a      	mov	r2, r5
     92a:	eb04 0181 	add.w	r1, r4, r1, lsl #2
     92e:	2308      	movs	r3, #8
     930:	4638      	mov	r0, r7
     932:	f000 fef1 	bl	1718 <nrf_memobj_write>
     936:	e79c      	b.n	872 <nrf_log_frontend_dequeue+0x18e>
     938:	4638      	mov	r0, r7
     93a:	f000 fec1 	bl	16c0 <nrf_memobj_put>
     93e:	2000      	movs	r0, #0
     940:	f000 fa50 	bl	de4 <app_util_critical_region_enter>
     944:	f8d4 3418 	ldr.w	r3, [r4, #1048]	; 0x418
     948:	b903      	cbnz	r3, 94c <nrf_log_frontend_dequeue+0x268>
     94a:	60a6      	str	r6, [r4, #8]
     94c:	2000      	movs	r0, #0
     94e:	f000 fa51 	bl	df4 <app_util_critical_region_exit>
     952:	e738      	b.n	7c6 <nrf_log_frontend_dequeue+0xe2>
     954:	20000160 	.word	0x20000160
     958:	2000057c 	.word	0x2000057c
     95c:	0000375c 	.word	0x0000375c
     960:	0000377c 	.word	0x0000377c
     964:	00003490 	.word	0x00003490
     968:	00003794 	.word	0x00003794
     96c:	2000016c 	.word	0x2000016c

00000970 <nrf_log_frontend_std_1>:
     970:	e92d 41f0 	stmdb	sp!, {r4, r5, r6, r7, r8, lr}
     974:	4690      	mov	r8, r2
     976:	b082      	sub	sp, #8
     978:	2201      	movs	r2, #1
     97a:	460f      	mov	r7, r1
     97c:	4604      	mov	r4, r0
     97e:	a901      	add	r1, sp, #4
     980:	4610      	mov	r0, r2
     982:	f7ff fdcb 	bl	51c <buf_prealloc>
     986:	b970      	cbnz	r0, 9a6 <nrf_log_frontend_std_1+0x36>
     988:	4d18      	ldr	r5, [pc, #96]	; (9ec <nrf_log_frontend_std_1+0x7c>)
     98a:	782b      	ldrb	r3, [r5, #0]
     98c:	b913      	cbnz	r3, 994 <nrf_log_frontend_std_1+0x24>
     98e:	b002      	add	sp, #8
     990:	e8bd 81f0 	ldmia.w	sp!, {r4, r5, r6, r7, r8, pc}
     994:	f7ff fea6 	bl	6e4 <nrf_log_frontend_dequeue>
     998:	2800      	cmp	r0, #0
     99a:	d0f8      	beq.n	98e <nrf_log_frontend_std_1+0x1e>
     99c:	f7ff fea2 	bl	6e4 <nrf_log_frontend_dequeue>
     9a0:	2800      	cmp	r0, #0
     9a2:	d1f7      	bne.n	994 <nrf_log_frontend_std_1+0x24>
     9a4:	e7f3      	b.n	98e <nrf_log_frontend_std_1+0x1e>
     9a6:	9e01      	ldr	r6, [sp, #4]
     9a8:	4d10      	ldr	r5, [pc, #64]	; (9ec <nrf_log_frontend_std_1+0x7c>)
     9aa:	1cb3      	adds	r3, r6, #2
     9ac:	b2db      	uxtb	r3, r3
     9ae:	eb05 0383 	add.w	r3, r5, r3, lsl #2
     9b2:	2100      	movs	r1, #0
     9b4:	f8c3 800c 	str.w	r8, [r3, #12]
     9b8:	f205 401c 	addw	r0, r5, #1052	; 0x41c
     9bc:	f000 fa24 	bl	e08 <nrf_atomic_u32_fetch_store>
     9c0:	f380 0310 	usat	r3, #16, r0
     9c4:	041b      	lsls	r3, r3, #16
     9c6:	ea43 4314 	orr.w	r3, r3, r4, lsr #16
     9ca:	1c72      	adds	r2, r6, #1
     9cc:	00e4      	lsls	r4, r4, #3
     9ce:	f004 0438 	and.w	r4, r4, #56	; 0x38
     9d2:	b2d2      	uxtb	r2, r2
     9d4:	b2f6      	uxtb	r6, r6
     9d6:	f044 0441 	orr.w	r4, r4, #65	; 0x41
     9da:	eb05 0282 	add.w	r2, r5, r2, lsl #2
     9de:	3603      	adds	r6, #3
     9e0:	ea44 2487 	orr.w	r4, r4, r7, lsl #10
     9e4:	60d3      	str	r3, [r2, #12]
     9e6:	f845 4026 	str.w	r4, [r5, r6, lsl #2]
     9ea:	e7ce      	b.n	98a <nrf_log_frontend_std_1+0x1a>
     9ec:	20000160 	.word	0x20000160

000009f0 <nrf_log_frontend_std_0>:
     9f0:	b5f0      	push	{r4, r5, r6, r7, lr}
     9f2:	b083      	sub	sp, #12
     9f4:	4604      	mov	r4, r0
     9f6:	460e      	mov	r6, r1
     9f8:	2201      	movs	r2, #1
     9fa:	a901      	add	r1, sp, #4
     9fc:	2000      	movs	r0, #0
     9fe:	f7ff fd8d 	bl	51c <buf_prealloc>
     a02:	4d15      	ldr	r5, [pc, #84]	; (a58 <nrf_log_frontend_std_0+0x68>)
     a04:	b1d0      	cbz	r0, a3c <nrf_log_frontend_std_0+0x4c>
     a06:	9f01      	ldr	r7, [sp, #4]
     a08:	2100      	movs	r1, #0
     a0a:	f205 401c 	addw	r0, r5, #1052	; 0x41c
     a0e:	f000 f9fb 	bl	e08 <nrf_atomic_u32_fetch_store>
     a12:	f380 0310 	usat	r3, #16, r0
     a16:	041b      	lsls	r3, r3, #16
     a18:	ea43 4314 	orr.w	r3, r3, r4, lsr #16
     a1c:	1c7a      	adds	r2, r7, #1
     a1e:	00e4      	lsls	r4, r4, #3
     a20:	f004 0438 	and.w	r4, r4, #56	; 0x38
     a24:	b2d2      	uxtb	r2, r2
     a26:	b2ff      	uxtb	r7, r7
     a28:	f044 0401 	orr.w	r4, r4, #1
     a2c:	eb05 0282 	add.w	r2, r5, r2, lsl #2
     a30:	3703      	adds	r7, #3
     a32:	ea44 2486 	orr.w	r4, r4, r6, lsl #10
     a36:	60d3      	str	r3, [r2, #12]
     a38:	f845 4027 	str.w	r4, [r5, r7, lsl #2]
     a3c:	782b      	ldrb	r3, [r5, #0]
     a3e:	b90b      	cbnz	r3, a44 <nrf_log_frontend_std_0+0x54>
     a40:	b003      	add	sp, #12
     a42:	bdf0      	pop	{r4, r5, r6, r7, pc}
     a44:	f7ff fe4e 	bl	6e4 <nrf_log_frontend_dequeue>
     a48:	2800      	cmp	r0, #0
     a4a:	d0f9      	beq.n	a40 <nrf_log_frontend_std_0+0x50>
     a4c:	f7ff fe4a 	bl	6e4 <nrf_log_frontend_dequeue>
     a50:	2800      	cmp	r0, #0
     a52:	d1f7      	bne.n	a44 <nrf_log_frontend_std_0+0x54>
     a54:	e7f4      	b.n	a40 <nrf_log_frontend_std_0+0x50>
     a56:	bf00      	nop
     a58:	20000160 	.word	0x20000160

00000a5c <nrf_log_backend_add>:
     a5c:	b430      	push	{r4, r5}
     a5e:	4d16      	ldr	r5, [pc, #88]	; (ab8 <nrf_log_backend_add+0x5c>)
     a60:	f8d5 4410 	ldr.w	r4, [r5, #1040]	; 0x410
     a64:	2100      	movs	r1, #0
     a66:	b17c      	cbz	r4, a88 <nrf_log_backend_add+0x2c>
     a68:	4623      	mov	r3, r4
     a6a:	e001      	b.n	a70 <nrf_log_backend_add+0x14>
     a6c:	681b      	ldr	r3, [r3, #0]
     a6e:	b15b      	cbz	r3, a88 <nrf_log_backend_add+0x2c>
     a70:	68db      	ldr	r3, [r3, #12]
     a72:	791a      	ldrb	r2, [r3, #4]
     a74:	428a      	cmp	r2, r1
     a76:	d1f9      	bne.n	a6c <nrf_log_backend_add+0x10>
     a78:	3101      	adds	r1, #1
     a7a:	290a      	cmp	r1, #10
     a7c:	d1f3      	bne.n	a66 <nrf_log_backend_add+0xa>
     a7e:	f04f 31ff 	mov.w	r1, #4294967295	; 0xffffffff
     a82:	4608      	mov	r0, r1
     a84:	bc30      	pop	{r4, r5}
     a86:	4770      	bx	lr
     a88:	68c3      	ldr	r3, [r0, #12]
     a8a:	7119      	strb	r1, [r3, #4]
     a8c:	f8d5 3410 	ldr.w	r3, [r5, #1040]	; 0x410
     a90:	b153      	cbz	r3, aa8 <nrf_log_backend_add+0x4c>
     a92:	68da      	ldr	r2, [r3, #12]
     a94:	68c3      	ldr	r3, [r0, #12]
     a96:	6812      	ldr	r2, [r2, #0]
     a98:	601a      	str	r2, [r3, #0]
     a9a:	f8d5 3410 	ldr.w	r3, [r5, #1040]	; 0x410
     a9e:	68db      	ldr	r3, [r3, #12]
     aa0:	6018      	str	r0, [r3, #0]
     aa2:	bc30      	pop	{r4, r5}
     aa4:	4608      	mov	r0, r1
     aa6:	4770      	bx	lr
     aa8:	f8c5 0410 	str.w	r0, [r5, #1040]	; 0x410
     aac:	68c2      	ldr	r2, [r0, #12]
     aae:	6013      	str	r3, [r2, #0]
     ab0:	4608      	mov	r0, r1
     ab2:	bc30      	pop	{r4, r5}
     ab4:	4770      	bx	lr
     ab6:	bf00      	nop
     ab8:	20000160 	.word	0x20000160

00000abc <nrf_log_panic>:
     abc:	b538      	push	{r3, r4, r5, lr}
     abe:	4b08      	ldr	r3, [pc, #32]	; (ae0 <nrf_log_panic+0x24>)
     ac0:	f8d3 4410 	ldr.w	r4, [r3, #1040]	; 0x410
     ac4:	2501      	movs	r5, #1
     ac6:	701d      	strb	r5, [r3, #0]
     ac8:	b14c      	cbz	r4, ade <nrf_log_panic+0x22>
     aca:	68e3      	ldr	r3, [r4, #12]
     acc:	715d      	strb	r5, [r3, #5]
     ace:	6823      	ldr	r3, [r4, #0]
     ad0:	4620      	mov	r0, r4
     ad2:	685b      	ldr	r3, [r3, #4]
     ad4:	4798      	blx	r3
     ad6:	68e3      	ldr	r3, [r4, #12]
     ad8:	681c      	ldr	r4, [r3, #0]
     ada:	2c00      	cmp	r4, #0
     adc:	d1f5      	bne.n	aca <nrf_log_panic+0xe>
     ade:	bd38      	pop	{r3, r4, r5, pc}
     ae0:	20000160 	.word	0x20000160

00000ae4 <prefix_process.constprop.0>:
     ae4:	b530      	push	{r4, r5, lr}
     ae6:	88c3      	ldrh	r3, [r0, #6]
     ae8:	b085      	sub	sp, #20
     aea:	4604      	mov	r4, r0
     aec:	460d      	mov	r5, r1
     aee:	bb23      	cbnz	r3, b3a <prefix_process.constprop.0+0x56>
     af0:	7a23      	ldrb	r3, [r4, #8]
     af2:	2b05      	cmp	r3, #5
     af4:	d01f      	beq.n	b36 <prefix_process.constprop.0+0x52>
     af6:	7a62      	ldrb	r2, [r4, #9]
     af8:	b982      	cbnz	r2, b1c <prefix_process.constprop.0+0x38>
     afa:	4a14      	ldr	r2, [pc, #80]	; (b4c <prefix_process.constprop.0+0x68>)
     afc:	88a0      	ldrh	r0, [r4, #4]
     afe:	f852 2023 	ldr.w	r2, [r2, r3, lsl #2]
     b02:	9203      	str	r2, [sp, #12]
     b04:	2100      	movs	r1, #0
     b06:	f7ff fdb3 	bl	670 <nrf_log_module_name_get>
     b0a:	9a03      	ldr	r2, [sp, #12]
     b0c:	4910      	ldr	r1, [pc, #64]	; (b50 <prefix_process.constprop.0+0x6c>)
     b0e:	4603      	mov	r3, r0
     b10:	4628      	mov	r0, r5
     b12:	b005      	add	sp, #20
     b14:	e8bd 4030 	ldmia.w	sp!, {r4, r5, lr}
     b18:	f000 ba16 	b.w	f48 <nrf_fprintf>
     b1c:	4619      	mov	r1, r3
     b1e:	88a0      	ldrh	r0, [r4, #4]
     b20:	f7ff fdca 	bl	6b8 <nrf_log_color_id_get>
     b24:	4b0b      	ldr	r3, [pc, #44]	; (b54 <prefix_process.constprop.0+0x70>)
     b26:	490c      	ldr	r1, [pc, #48]	; (b58 <prefix_process.constprop.0+0x74>)
     b28:	f853 2020 	ldr.w	r2, [r3, r0, lsl #2]
     b2c:	4628      	mov	r0, r5
     b2e:	f000 fa0b 	bl	f48 <nrf_fprintf>
     b32:	7a23      	ldrb	r3, [r4, #8]
     b34:	e7e1      	b.n	afa <prefix_process.constprop.0+0x16>
     b36:	b005      	add	sp, #20
     b38:	bd30      	pop	{r4, r5, pc}
     b3a:	4908      	ldr	r1, [pc, #32]	; (b5c <prefix_process.constprop.0+0x78>)
     b3c:	9100      	str	r1, [sp, #0]
     b3e:	4a08      	ldr	r2, [pc, #32]	; (b60 <prefix_process.constprop.0+0x7c>)
     b40:	4908      	ldr	r1, [pc, #32]	; (b64 <prefix_process.constprop.0+0x80>)
     b42:	4628      	mov	r0, r5
     b44:	f000 fa00 	bl	f48 <nrf_fprintf>
     b48:	e7d2      	b.n	af0 <prefix_process.constprop.0+0xc>
     b4a:	bf00      	nop
     b4c:	00003580 	.word	0x00003580
     b50:	000034e0 	.word	0x000034e0
     b54:	0000355c 	.word	0x0000355c
     b58:	000034dc 	.word	0x000034dc
     b5c:	000034d4 	.word	0x000034d4
     b60:	000034b4 	.word	0x000034b4
     b64:	000034bc 	.word	0x000034bc

00000b68 <nrf_log_std_entry_process>:
     b68:	e92d 43f0 	stmdb	sp!, {r4, r5, r6, r7, r8, r9, lr}
     b6c:	b085      	sub	sp, #20
     b6e:	461d      	mov	r5, r3
     b70:	9c0c      	ldr	r4, [sp, #48]	; 0x30
     b72:	2300      	movs	r3, #0
     b74:	f894 900c 	ldrb.w	r9, [r4, #12]
     b78:	7323      	strb	r3, [r4, #12]
     b7a:	4680      	mov	r8, r0
     b7c:	460e      	mov	r6, r1
     b7e:	4617      	mov	r7, r2
     b80:	4621      	mov	r1, r4
     b82:	4628      	mov	r0, r5
     b84:	f7ff ffae 	bl	ae4 <prefix_process.constprop.0>
     b88:	2f06      	cmp	r7, #6
     b8a:	d809      	bhi.n	ba0 <nrf_log_std_entry_process+0x38>
     b8c:	e8df f007 	tbb	[pc, r7]
     b90:	3b342e04 	.word	0x3b342e04
     b94:	4f44      	.short	0x4f44
     b96:	1f          	.byte	0x1f
     b97:	00          	.byte	0x00
     b98:	4641      	mov	r1, r8
     b9a:	4620      	mov	r0, r4
     b9c:	f000 f9d4 	bl	f48 <nrf_fprintf>
     ba0:	7a2b      	ldrb	r3, [r5, #8]
     ba2:	2b05      	cmp	r3, #5
     ba4:	d005      	beq.n	bb2 <nrf_log_std_entry_process+0x4a>
     ba6:	7a6b      	ldrb	r3, [r5, #9]
     ba8:	b95b      	cbnz	r3, bc2 <nrf_log_std_entry_process+0x5a>
     baa:	4927      	ldr	r1, [pc, #156]	; (c48 <nrf_log_std_entry_process+0xe0>)
     bac:	4620      	mov	r0, r4
     bae:	f000 f9cb 	bl	f48 <nrf_fprintf>
     bb2:	4620      	mov	r0, r4
     bb4:	f000 f9bc 	bl	f30 <nrf_fprintf_buffer_flush>
     bb8:	f884 900c 	strb.w	r9, [r4, #12]
     bbc:	b005      	add	sp, #20
     bbe:	e8bd 83f0 	ldmia.w	sp!, {r4, r5, r6, r7, r8, r9, pc}
     bc2:	4a22      	ldr	r2, [pc, #136]	; (c4c <nrf_log_std_entry_process+0xe4>)
     bc4:	4922      	ldr	r1, [pc, #136]	; (c50 <nrf_log_std_entry_process+0xe8>)
     bc6:	4620      	mov	r0, r4
     bc8:	f000 f9be 	bl	f48 <nrf_fprintf>
     bcc:	e7ed      	b.n	baa <nrf_log_std_entry_process+0x42>
     bce:	6973      	ldr	r3, [r6, #20]
     bd0:	9303      	str	r3, [sp, #12]
     bd2:	6933      	ldr	r3, [r6, #16]
     bd4:	9302      	str	r3, [sp, #8]
     bd6:	68f3      	ldr	r3, [r6, #12]
     bd8:	9301      	str	r3, [sp, #4]
     bda:	68b3      	ldr	r3, [r6, #8]
     bdc:	9300      	str	r3, [sp, #0]
     bde:	e9d6 2300 	ldrd	r2, r3, [r6]
     be2:	4641      	mov	r1, r8
     be4:	4620      	mov	r0, r4
     be6:	f000 f9af 	bl	f48 <nrf_fprintf>
     bea:	e7d9      	b.n	ba0 <nrf_log_std_entry_process+0x38>
     bec:	6832      	ldr	r2, [r6, #0]
     bee:	4641      	mov	r1, r8
     bf0:	4620      	mov	r0, r4
     bf2:	f000 f9a9 	bl	f48 <nrf_fprintf>
     bf6:	e7d3      	b.n	ba0 <nrf_log_std_entry_process+0x38>
     bf8:	e9d6 2300 	ldrd	r2, r3, [r6]
     bfc:	4641      	mov	r1, r8
     bfe:	4620      	mov	r0, r4
     c00:	f000 f9a2 	bl	f48 <nrf_fprintf>
     c04:	e7cc      	b.n	ba0 <nrf_log_std_entry_process+0x38>
     c06:	68b3      	ldr	r3, [r6, #8]
     c08:	9300      	str	r3, [sp, #0]
     c0a:	e9d6 2300 	ldrd	r2, r3, [r6]
     c0e:	4641      	mov	r1, r8
     c10:	4620      	mov	r0, r4
     c12:	f000 f999 	bl	f48 <nrf_fprintf>
     c16:	e7c3      	b.n	ba0 <nrf_log_std_entry_process+0x38>
     c18:	68f3      	ldr	r3, [r6, #12]
     c1a:	9301      	str	r3, [sp, #4]
     c1c:	68b3      	ldr	r3, [r6, #8]
     c1e:	9300      	str	r3, [sp, #0]
     c20:	e9d6 2300 	ldrd	r2, r3, [r6]
     c24:	4641      	mov	r1, r8
     c26:	4620      	mov	r0, r4
     c28:	f000 f98e 	bl	f48 <nrf_fprintf>
     c2c:	e7b8      	b.n	ba0 <nrf_log_std_entry_process+0x38>
     c2e:	6933      	ldr	r3, [r6, #16]
     c30:	9302      	str	r3, [sp, #8]
     c32:	68f3      	ldr	r3, [r6, #12]
     c34:	9301      	str	r3, [sp, #4]
     c36:	68b3      	ldr	r3, [r6, #8]
     c38:	9300      	str	r3, [sp, #0]
     c3a:	e9d6 2300 	ldrd	r2, r3, [r6]
     c3e:	4641      	mov	r1, r8
     c40:	4620      	mov	r0, r4
     c42:	f000 f981 	bl	f48 <nrf_fprintf>
     c46:	e7ab      	b.n	ba0 <nrf_log_std_entry_process+0x38>
     c48:	000034ec 	.word	0x000034ec
     c4c:	000034d4 	.word	0x000034d4
     c50:	000034dc 	.word	0x000034dc

00000c54 <nrf_log_hexdump_entry_process>:
     c54:	2908      	cmp	r1, #8
     c56:	d900      	bls.n	c5a <nrf_log_hexdump_entry_process+0x6>
     c58:	4770      	bx	lr
     c5a:	e92d 4ff0 	stmdb	sp!, {r4, r5, r6, r7, r8, r9, sl, fp, lr}
     c5e:	461d      	mov	r5, r3
     c60:	b083      	sub	sp, #12
     c62:	2400      	movs	r4, #0
     c64:	7b1b      	ldrb	r3, [r3, #12]
     c66:	732c      	strb	r4, [r5, #12]
     c68:	460e      	mov	r6, r1
     c6a:	4607      	mov	r7, r0
     c6c:	4629      	mov	r1, r5
     c6e:	4610      	mov	r0, r2
     c70:	4690      	mov	r8, r2
     c72:	9301      	str	r3, [sp, #4]
     c74:	f8df b0d0 	ldr.w	fp, [pc, #208]	; d48 <nrf_log_hexdump_entry_process+0xf4>
     c78:	f8df a0d0 	ldr.w	sl, [pc, #208]	; d4c <nrf_log_hexdump_entry_process+0xf8>
     c7c:	f7ff ff32 	bl	ae4 <prefix_process.constprop.0>
     c80:	e005      	b.n	c8e <nrf_log_hexdump_entry_process+0x3a>
     c82:	5d3a      	ldrb	r2, [r7, r4]
     c84:	3401      	adds	r4, #1
     c86:	f000 f95f 	bl	f48 <nrf_fprintf>
     c8a:	2c08      	cmp	r4, #8
     c8c:	d009      	beq.n	ca2 <nrf_log_hexdump_entry_process+0x4e>
     c8e:	42a6      	cmp	r6, r4
     c90:	4651      	mov	r1, sl
     c92:	4628      	mov	r0, r5
     c94:	d8f5      	bhi.n	c82 <nrf_log_hexdump_entry_process+0x2e>
     c96:	4659      	mov	r1, fp
     c98:	3401      	adds	r4, #1
     c9a:	f000 f955 	bl	f48 <nrf_fprintf>
     c9e:	2c08      	cmp	r4, #8
     ca0:	d1f5      	bne.n	c8e <nrf_log_hexdump_entry_process+0x3a>
     ca2:	4924      	ldr	r1, [pc, #144]	; (d34 <nrf_log_hexdump_entry_process+0xe0>)
     ca4:	f8df b0a8 	ldr.w	fp, [pc, #168]	; d50 <nrf_log_hexdump_entry_process+0xfc>
     ca8:	4c23      	ldr	r4, [pc, #140]	; (d38 <nrf_log_hexdump_entry_process+0xe4>)
     caa:	f8df a0a8 	ldr.w	sl, [pc, #168]	; d54 <nrf_log_hexdump_entry_process+0x100>
     cae:	4628      	mov	r0, r5
     cb0:	f000 f94a 	bl	f48 <nrf_fprintf>
     cb4:	f04f 0900 	mov.w	r9, #0
     cb8:	e017      	b.n	cea <nrf_log_hexdump_entry_process+0x96>
     cba:	f817 1009 	ldrb.w	r1, [r7, r9]
     cbe:	1c48      	adds	r0, r1, #1
     cc0:	297e      	cmp	r1, #126	; 0x7e
     cc2:	f04f 022e 	mov.w	r2, #46	; 0x2e
     cc6:	b2c0      	uxtb	r0, r0
     cc8:	d806      	bhi.n	cd8 <nrf_log_hexdump_entry_process+0x84>
     cca:	f81a 2000 	ldrb.w	r2, [sl, r0]
     cce:	f012 0f97 	tst.w	r2, #151	; 0x97
     cd2:	bf14      	ite	ne
     cd4:	460a      	movne	r2, r1
     cd6:	222e      	moveq	r2, #46	; 0x2e
     cd8:	4621      	mov	r1, r4
     cda:	4628      	mov	r0, r5
     cdc:	f109 0901 	add.w	r9, r9, #1
     ce0:	f000 f932 	bl	f48 <nrf_fprintf>
     ce4:	f1b9 0f08 	cmp.w	r9, #8
     ce8:	d00a      	beq.n	d00 <nrf_log_hexdump_entry_process+0xac>
     cea:	454e      	cmp	r6, r9
     cec:	d8e5      	bhi.n	cba <nrf_log_hexdump_entry_process+0x66>
     cee:	4659      	mov	r1, fp
     cf0:	4628      	mov	r0, r5
     cf2:	f109 0901 	add.w	r9, r9, #1
     cf6:	f000 f927 	bl	f48 <nrf_fprintf>
     cfa:	f1b9 0f08 	cmp.w	r9, #8
     cfe:	d1f4      	bne.n	cea <nrf_log_hexdump_entry_process+0x96>
     d00:	f898 3008 	ldrb.w	r3, [r8, #8]
     d04:	2b05      	cmp	r3, #5
     d06:	d002      	beq.n	d0e <nrf_log_hexdump_entry_process+0xba>
     d08:	f898 3009 	ldrb.w	r3, [r8, #9]
     d0c:	b95b      	cbnz	r3, d26 <nrf_log_hexdump_entry_process+0xd2>
     d0e:	490b      	ldr	r1, [pc, #44]	; (d3c <nrf_log_hexdump_entry_process+0xe8>)
     d10:	4628      	mov	r0, r5
     d12:	f000 f919 	bl	f48 <nrf_fprintf>
     d16:	4628      	mov	r0, r5
     d18:	f000 f90a 	bl	f30 <nrf_fprintf_buffer_flush>
     d1c:	9b01      	ldr	r3, [sp, #4]
     d1e:	732b      	strb	r3, [r5, #12]
     d20:	b003      	add	sp, #12
     d22:	e8bd 8ff0 	ldmia.w	sp!, {r4, r5, r6, r7, r8, r9, sl, fp, pc}
     d26:	4a06      	ldr	r2, [pc, #24]	; (d40 <nrf_log_hexdump_entry_process+0xec>)
     d28:	4906      	ldr	r1, [pc, #24]	; (d44 <nrf_log_hexdump_entry_process+0xf0>)
     d2a:	4628      	mov	r0, r5
     d2c:	f000 f90c 	bl	f48 <nrf_fprintf>
     d30:	e7ed      	b.n	d0e <nrf_log_hexdump_entry_process+0xba>
     d32:	bf00      	nop
     d34:	000034fc 	.word	0x000034fc
     d38:	00003500 	.word	0x00003500
     d3c:	000034ec 	.word	0x000034ec
     d40:	000034d4 	.word	0x000034d4
     d44:	000034dc 	.word	0x000034dc
     d48:	000034f8 	.word	0x000034f8
     d4c:	000034f0 	.word	0x000034f0
     d50:	000034e8 	.word	0x000034e8
     d54:	00003654 	.word	0x00003654

00000d58 <app_error_handler_bare>:
     d58:	b500      	push	{lr}
     d5a:	b085      	sub	sp, #20
     d5c:	4603      	mov	r3, r0
     d5e:	2100      	movs	r1, #0
     d60:	aa01      	add	r2, sp, #4
     d62:	f244 0001 	movw	r0, #16385	; 0x4001
     d66:	e9cd 1101 	strd	r1, r1, [sp, #4]
     d6a:	9303      	str	r3, [sp, #12]
     d6c:	f000 f804 	bl	d78 <app_error_fault_handler>
     d70:	b005      	add	sp, #20
     d72:	f85d fb04 	ldr.w	pc, [sp], #4
     d76:	bf00      	nop

00000d78 <app_error_fault_handler>:
     d78:	b510      	push	{r4, lr}
     d7a:	b672      	cpsid	i
     d7c:	f7ff fe9e 	bl	abc <nrf_log_panic>
     d80:	f7ff fcb0 	bl	6e4 <nrf_log_frontend_dequeue>
     d84:	2800      	cmp	r0, #0
     d86:	d1fb      	bne.n	d80 <app_error_fault_handler+0x8>
     d88:	4b10      	ldr	r3, [pc, #64]	; (dcc <app_error_fault_handler+0x54>)
     d8a:	4c11      	ldr	r4, [pc, #68]	; (dd0 <app_error_fault_handler+0x58>)
     d8c:	4911      	ldr	r1, [pc, #68]	; (dd4 <app_error_fault_handler+0x5c>)
     d8e:	1ae4      	subs	r4, r4, r3
     d90:	08e4      	lsrs	r4, r4, #3
     d92:	0424      	lsls	r4, r4, #16
     d94:	f044 0001 	orr.w	r0, r4, #1
     d98:	f7ff fe2a 	bl	9f0 <nrf_log_frontend_std_0>
     d9c:	4b0e      	ldr	r3, [pc, #56]	; (dd8 <app_error_fault_handler+0x60>)
     d9e:	f8d3 30f0 	ldr.w	r3, [r3, #240]	; 0xf0
     da2:	07db      	lsls	r3, r3, #31
     da4:	d500      	bpl.n	da8 <app_error_fault_handler+0x30>
     da6:	be00      	bkpt	0x0000
     da8:	490c      	ldr	r1, [pc, #48]	; (ddc <app_error_fault_handler+0x64>)
     daa:	f044 0002 	orr.w	r0, r4, #2
     dae:	f7ff fe1f 	bl	9f0 <nrf_log_frontend_std_0>
     db2:	f3bf 8f4f 	dsb	sy
     db6:	4908      	ldr	r1, [pc, #32]	; (dd8 <app_error_fault_handler+0x60>)
     db8:	4b09      	ldr	r3, [pc, #36]	; (de0 <app_error_fault_handler+0x68>)
     dba:	68ca      	ldr	r2, [r1, #12]
     dbc:	f402 62e0 	and.w	r2, r2, #1792	; 0x700
     dc0:	4313      	orrs	r3, r2
     dc2:	60cb      	str	r3, [r1, #12]
     dc4:	f3bf 8f4f 	dsb	sy
     dc8:	bf00      	nop
     dca:	e7fd      	b.n	dc8 <app_error_fault_handler+0x50>
     dcc:	0000375c 	.word	0x0000375c
     dd0:	0000377c 	.word	0x0000377c
     dd4:	00003594 	.word	0x00003594
     dd8:	e000ed00 	.word	0xe000ed00
     ddc:	000035a0 	.word	0x000035a0
     de0:	05fa0004 	.word	0x05fa0004

00000de4 <app_util_critical_region_enter>:
     de4:	b672      	cpsid	i
     de6:	4a02      	ldr	r2, [pc, #8]	; (df0 <app_util_critical_region_enter+0xc>)
     de8:	6813      	ldr	r3, [r2, #0]
     dea:	3301      	adds	r3, #1
     dec:	6013      	str	r3, [r2, #0]
     dee:	4770      	bx	lr
     df0:	20000618 	.word	0x20000618

00000df4 <app_util_critical_region_exit>:
     df4:	4a03      	ldr	r2, [pc, #12]	; (e04 <app_util_critical_region_exit+0x10>)
     df6:	6813      	ldr	r3, [r2, #0]
     df8:	3b01      	subs	r3, #1
     dfa:	6013      	str	r3, [r2, #0]
     dfc:	b903      	cbnz	r3, e00 <app_util_critical_region_exit+0xc>
     dfe:	b662      	cpsie	i
     e00:	4770      	bx	lr
     e02:	bf00      	nop
     e04:	20000618 	.word	0x20000618

00000e08 <nrf_atomic_u32_fetch_store>:
     e08:	4603      	mov	r3, r0
     e0a:	e853 0f00 	ldrex	r0, [r3]
     e0e:	460a      	mov	r2, r1
     e10:	e843 2c00 	strex	ip, r2, [r3]
     e14:	f09c 0f00 	teq	ip, #0
     e18:	d1f7      	bne.n	e0a <nrf_atomic_u32_fetch_store+0x2>
     e1a:	4770      	bx	lr

00000e1c <nrf_atomic_u32_add>:
     e1c:	4603      	mov	r3, r0
     e1e:	e853 2f00 	ldrex	r2, [r3]
     e22:	eb02 0001 	add.w	r0, r2, r1
     e26:	e843 0c00 	strex	ip, r0, [r3]
     e2a:	f09c 0f00 	teq	ip, #0
     e2e:	d1f6      	bne.n	e1e <nrf_atomic_u32_add+0x2>
     e30:	4770      	bx	lr
     e32:	bf00      	nop

00000e34 <nrf_atomic_u32_sub>:
     e34:	4603      	mov	r3, r0
     e36:	e853 2f00 	ldrex	r2, [r3]
     e3a:	eba2 0001 	sub.w	r0, r2, r1
     e3e:	e843 0c00 	strex	ip, r0, [r3]
     e42:	f09c 0f00 	teq	ip, #0
     e46:	d1f6      	bne.n	e36 <nrf_atomic_u32_sub+0x2>
     e48:	4770      	bx	lr
     e4a:	bf00      	nop

00000e4c <nrf_atomic_flag_set>:
     e4c:	4603      	mov	r3, r0
     e4e:	2201      	movs	r2, #1
     e50:	e853 1f00 	ldrex	r1, [r3]
     e54:	ea41 0002 	orr.w	r0, r1, r2
     e58:	e843 0c00 	strex	ip, r0, [r3]
     e5c:	f09c 0f00 	teq	ip, #0
     e60:	d1f6      	bne.n	e50 <nrf_atomic_flag_set+0x4>
     e62:	4770      	bx	lr

00000e64 <nrf_atomic_flag_clear_fetch>:
     e64:	4603      	mov	r3, r0
     e66:	2200      	movs	r2, #0
     e68:	e853 0f00 	ldrex	r0, [r3]
     e6c:	ea00 0102 	and.w	r1, r0, r2
     e70:	e843 1c00 	strex	ip, r1, [r3]
     e74:	f09c 0f00 	teq	ip, #0
     e78:	d1f6      	bne.n	e68 <nrf_atomic_flag_clear_fetch+0x4>
     e7a:	4770      	bx	lr

00000e7c <nrf_balloc_init>:
     e7c:	b1d0      	cbz	r0, eb4 <nrf_balloc_init+0x38>
     e7e:	b410      	push	{r4}
     e80:	e9d0 1201 	ldrd	r1, r2, [r0, #4]
     e84:	1a52      	subs	r2, r2, r1
     e86:	6804      	ldr	r4, [r0, #0]
     e88:	b2d2      	uxtb	r2, r2
     e8a:	1e53      	subs	r3, r2, #1
     e8c:	6021      	str	r1, [r4, #0]
     e8e:	b2db      	uxtb	r3, r3
     e90:	b152      	cbz	r2, ea8 <nrf_balloc_init+0x2c>
     e92:	6801      	ldr	r1, [r0, #0]
     e94:	680a      	ldr	r2, [r1, #0]
     e96:	f103 3cff 	add.w	ip, r3, #4294967295	; 0xffffffff
     e9a:	1c54      	adds	r4, r2, #1
     e9c:	600c      	str	r4, [r1, #0]
     e9e:	7013      	strb	r3, [r2, #0]
     ea0:	fa5f f38c 	uxtb.w	r3, ip
     ea4:	2bff      	cmp	r3, #255	; 0xff
     ea6:	d1f4      	bne.n	e92 <nrf_balloc_init+0x16>
     ea8:	6803      	ldr	r3, [r0, #0]
     eaa:	2000      	movs	r0, #0
     eac:	7118      	strb	r0, [r3, #4]
     eae:	f85d 4b04 	ldr.w	r4, [sp], #4
     eb2:	4770      	bx	lr
     eb4:	200e      	movs	r0, #14
     eb6:	4770      	bx	lr

00000eb8 <nrf_balloc_alloc>:
     eb8:	b538      	push	{r3, r4, r5, lr}
     eba:	4604      	mov	r4, r0
     ebc:	2000      	movs	r0, #0
     ebe:	f7ff ff91 	bl	de4 <app_util_critical_region_enter>
     ec2:	e9d4 3100 	ldrd	r3, r1, [r4]
     ec6:	681a      	ldr	r2, [r3, #0]
     ec8:	428a      	cmp	r2, r1
     eca:	d915      	bls.n	ef8 <nrf_balloc_alloc+0x40>
     ecc:	1e51      	subs	r1, r2, #1
     ece:	6019      	str	r1, [r3, #0]
     ed0:	6821      	ldr	r1, [r4, #0]
     ed2:	68a3      	ldr	r3, [r4, #8]
     ed4:	f812 2c01 	ldrb.w	r2, [r2, #-1]
     ed8:	8a20      	ldrh	r0, [r4, #16]
     eda:	680d      	ldr	r5, [r1, #0]
     edc:	68e4      	ldr	r4, [r4, #12]
     ede:	1b5b      	subs	r3, r3, r5
     ee0:	fb00 4402 	mla	r4, r0, r2, r4
     ee4:	790a      	ldrb	r2, [r1, #4]
     ee6:	b2db      	uxtb	r3, r3
     ee8:	429a      	cmp	r2, r3
     eea:	d200      	bcs.n	eee <nrf_balloc_alloc+0x36>
     eec:	710b      	strb	r3, [r1, #4]
     eee:	2000      	movs	r0, #0
     ef0:	f7ff ff80 	bl	df4 <app_util_critical_region_exit>
     ef4:	4620      	mov	r0, r4
     ef6:	bd38      	pop	{r3, r4, r5, pc}
     ef8:	2400      	movs	r4, #0
     efa:	2000      	movs	r0, #0
     efc:	f7ff ff7a 	bl	df4 <app_util_critical_region_exit>
     f00:	4620      	mov	r0, r4
     f02:	bd38      	pop	{r3, r4, r5, pc}

00000f04 <nrf_balloc_free>:
     f04:	b538      	push	{r3, r4, r5, lr}
     f06:	4605      	mov	r5, r0
     f08:	2000      	movs	r0, #0
     f0a:	460c      	mov	r4, r1
     f0c:	f7ff ff6a 	bl	de4 <app_util_critical_region_enter>
     f10:	682a      	ldr	r2, [r5, #0]
     f12:	6813      	ldr	r3, [r2, #0]
     f14:	1c59      	adds	r1, r3, #1
     f16:	6011      	str	r1, [r2, #0]
     f18:	68e9      	ldr	r1, [r5, #12]
     f1a:	8a2a      	ldrh	r2, [r5, #16]
     f1c:	1a64      	subs	r4, r4, r1
     f1e:	fbb4 f4f2 	udiv	r4, r4, r2
     f22:	701c      	strb	r4, [r3, #0]
     f24:	e8bd 4038 	ldmia.w	sp!, {r3, r4, r5, lr}
     f28:	2000      	movs	r0, #0
     f2a:	f7ff bf63 	b.w	df4 <app_util_critical_region_exit>
     f2e:	bf00      	nop

00000f30 <nrf_fprintf_buffer_flush>:
     f30:	6882      	ldr	r2, [r0, #8]
     f32:	b142      	cbz	r2, f46 <nrf_fprintf_buffer_flush+0x16>
     f34:	b510      	push	{r4, lr}
     f36:	4604      	mov	r4, r0
     f38:	6943      	ldr	r3, [r0, #20]
     f3a:	6801      	ldr	r1, [r0, #0]
     f3c:	6900      	ldr	r0, [r0, #16]
     f3e:	4798      	blx	r3
     f40:	2300      	movs	r3, #0
     f42:	60a3      	str	r3, [r4, #8]
     f44:	bd10      	pop	{r4, pc}
     f46:	4770      	bx	lr

00000f48 <nrf_fprintf>:
     f48:	b40e      	push	{r1, r2, r3}
     f4a:	b500      	push	{lr}
     f4c:	b082      	sub	sp, #8
     f4e:	9903      	ldr	r1, [sp, #12]
     f50:	b121      	cbz	r1, f5c <nrf_fprintf+0x14>
     f52:	ab04      	add	r3, sp, #16
     f54:	aa01      	add	r2, sp, #4
     f56:	9301      	str	r3, [sp, #4]
     f58:	f000 f8ae 	bl	10b8 <nrf_fprintf_fmt>
     f5c:	b002      	add	sp, #8
     f5e:	f85d eb04 	ldr.w	lr, [sp], #4
     f62:	b003      	add	sp, #12
     f64:	4770      	bx	lr
     f66:	bf00      	nop

00000f68 <unsigned_print>:
     f68:	e92d 4ff0 	stmdb	sp!, {r4, r5, r6, r7, r8, r9, sl, fp, lr}
     f6c:	4616      	mov	r6, r2
     f6e:	b083      	sub	sp, #12
     f70:	42b1      	cmp	r1, r6
     f72:	f8dd 9030 	ldr.w	r9, [sp, #48]	; 0x30
     f76:	9a0d      	ldr	r2, [sp, #52]	; 0x34
     f78:	460f      	mov	r7, r1
     f7a:	4605      	mov	r5, r0
     f7c:	469a      	mov	sl, r3
     f7e:	f0c0 8095 	bcc.w	10ac <unsigned_print+0x144>
     f82:	460b      	mov	r3, r1
     f84:	f04f 0801 	mov.w	r8, #1
     f88:	fbb3 f3f6 	udiv	r3, r3, r6
     f8c:	429e      	cmp	r6, r3
     f8e:	f108 0801 	add.w	r8, r8, #1
     f92:	d9f9      	bls.n	f88 <unsigned_print+0x20>
     f94:	45d0      	cmp	r8, sl
     f96:	bf38      	it	cc
     f98:	46d0      	movcc	r8, sl
     f9a:	f012 0301 	ands.w	r3, r2, #1
     f9e:	9301      	str	r3, [sp, #4]
     fa0:	d102      	bne.n	fa8 <unsigned_print+0x40>
     fa2:	f1b9 0f00 	cmp.w	r9, #0
     fa6:	d15e      	bne.n	1066 <unsigned_print+0xfe>
     fa8:	68aa      	ldr	r2, [r5, #8]
     faa:	2401      	movs	r4, #1
     fac:	e003      	b.n	fb6 <unsigned_print+0x4e>
     fae:	f10a 3aff 	add.w	sl, sl, #4294967295	; 0xffffffff
     fb2:	fb06 f404 	mul.w	r4, r6, r4
     fb6:	f1ba 0f01 	cmp.w	sl, #1
     fba:	d8f8      	bhi.n	fae <unsigned_print+0x46>
     fbc:	fbb7 f3f4 	udiv	r3, r7, r4
     fc0:	429e      	cmp	r6, r3
     fc2:	d9f6      	bls.n	fb2 <unsigned_print+0x4a>
     fc4:	f8df a0ec 	ldr.w	sl, [pc, #236]	; 10b4 <unsigned_print+0x14c>
     fc8:	e007      	b.n	fda <unsigned_print+0x72>
     fca:	42b4      	cmp	r4, r6
     fcc:	fbb4 f3f6 	udiv	r3, r4, r6
     fd0:	d31a      	bcc.n	1008 <unsigned_print+0xa0>
     fd2:	68aa      	ldr	r2, [r5, #8]
     fd4:	461c      	mov	r4, r3
     fd6:	fbb7 f3f3 	udiv	r3, r7, r3
     fda:	f81a b003 	ldrb.w	fp, [sl, r3]
     fde:	f1bb 0f0a 	cmp.w	fp, #10
     fe2:	fb04 7713 	mls	r7, r4, r3, r7
     fe6:	d028      	beq.n	103a <unsigned_print+0xd2>
     fe8:	682b      	ldr	r3, [r5, #0]
     fea:	1c51      	adds	r1, r2, #1
     fec:	60a9      	str	r1, [r5, #8]
     fee:	f803 b002 	strb.w	fp, [r3, r2]
     ff2:	e9d5 3201 	ldrd	r3, r2, [r5, #4]
     ff6:	429a      	cmp	r2, r3
     ff8:	d3e7      	bcc.n	fca <unsigned_print+0x62>
     ffa:	4628      	mov	r0, r5
     ffc:	f7ff ff98 	bl	f30 <nrf_fprintf_buffer_flush>
    1000:	fbb4 f3f6 	udiv	r3, r4, r6
    1004:	42b4      	cmp	r4, r6
    1006:	d2e4      	bcs.n	fd2 <unsigned_print+0x6a>
    1008:	9b01      	ldr	r3, [sp, #4]
    100a:	b19b      	cbz	r3, 1034 <unsigned_print+0xcc>
    100c:	f1b9 0f00 	cmp.w	r9, #0
    1010:	d010      	beq.n	1034 <unsigned_print+0xcc>
    1012:	2420      	movs	r4, #32
    1014:	45c8      	cmp	r8, r9
    1016:	f109 39ff 	add.w	r9, r9, #4294967295	; 0xffffffff
    101a:	d20b      	bcs.n	1034 <unsigned_print+0xcc>
    101c:	68ab      	ldr	r3, [r5, #8]
    101e:	682a      	ldr	r2, [r5, #0]
    1020:	1c59      	adds	r1, r3, #1
    1022:	60a9      	str	r1, [r5, #8]
    1024:	54d4      	strb	r4, [r2, r3]
    1026:	e9d5 3201 	ldrd	r3, r2, [r5, #4]
    102a:	429a      	cmp	r2, r3
    102c:	d214      	bcs.n	1058 <unsigned_print+0xf0>
    102e:	f1b9 0f00 	cmp.w	r9, #0
    1032:	d1ef      	bne.n	1014 <unsigned_print+0xac>
    1034:	b003      	add	sp, #12
    1036:	e8bd 8ff0 	ldmia.w	sp!, {r4, r5, r6, r7, r8, r9, sl, fp, pc}
    103a:	1c51      	adds	r1, r2, #1
    103c:	682b      	ldr	r3, [r5, #0]
    103e:	60a9      	str	r1, [r5, #8]
    1040:	f04f 010d 	mov.w	r1, #13
    1044:	5499      	strb	r1, [r3, r2]
    1046:	e9d5 3201 	ldrd	r3, r2, [r5, #4]
    104a:	429a      	cmp	r2, r3
    104c:	d3cc      	bcc.n	fe8 <unsigned_print+0x80>
    104e:	4628      	mov	r0, r5
    1050:	f7ff ff6e 	bl	f30 <nrf_fprintf_buffer_flush>
    1054:	68aa      	ldr	r2, [r5, #8]
    1056:	e7c7      	b.n	fe8 <unsigned_print+0x80>
    1058:	4628      	mov	r0, r5
    105a:	f7ff ff69 	bl	f30 <nrf_fprintf_buffer_flush>
    105e:	f1b9 0f00 	cmp.w	r9, #0
    1062:	d1d7      	bne.n	1014 <unsigned_print+0xac>
    1064:	e7e6      	b.n	1034 <unsigned_print+0xcc>
    1066:	0793      	lsls	r3, r2, #30
    1068:	d41a      	bmi.n	10a0 <unsigned_print+0x138>
    106a:	2420      	movs	r4, #32
    106c:	68aa      	ldr	r2, [r5, #8]
    106e:	45c8      	cmp	r8, r9
    1070:	f102 0101 	add.w	r1, r2, #1
    1074:	d299      	bcs.n	faa <unsigned_print+0x42>
    1076:	682b      	ldr	r3, [r5, #0]
    1078:	60a9      	str	r1, [r5, #8]
    107a:	549c      	strb	r4, [r3, r2]
    107c:	e9d5 3201 	ldrd	r3, r2, [r5, #4]
    1080:	429a      	cmp	r2, r3
    1082:	f109 39ff 	add.w	r9, r9, #4294967295	; 0xffffffff
    1086:	d203      	bcs.n	1090 <unsigned_print+0x128>
    1088:	f1b9 0f00 	cmp.w	r9, #0
    108c:	d1ef      	bne.n	106e <unsigned_print+0x106>
    108e:	e78c      	b.n	faa <unsigned_print+0x42>
    1090:	4628      	mov	r0, r5
    1092:	f7ff ff4d 	bl	f30 <nrf_fprintf_buffer_flush>
    1096:	68aa      	ldr	r2, [r5, #8]
    1098:	f1b9 0f00 	cmp.w	r9, #0
    109c:	d1e7      	bne.n	106e <unsigned_print+0x106>
    109e:	e784      	b.n	faa <unsigned_print+0x42>
    10a0:	f1ba 0f00 	cmp.w	sl, #0
    10a4:	bf0c      	ite	eq
    10a6:	2430      	moveq	r4, #48	; 0x30
    10a8:	2420      	movne	r4, #32
    10aa:	e7df      	b.n	106c <unsigned_print+0x104>
    10ac:	f04f 0801 	mov.w	r8, #1
    10b0:	e770      	b.n	f94 <unsigned_print+0x2c>
    10b2:	bf00      	nop
    10b4:	000035b0 	.word	0x000035b0

000010b8 <nrf_fprintf_fmt>:
    10b8:	2900      	cmp	r1, #0
    10ba:	f000 821f 	beq.w	14fc <nrf_fprintf_fmt+0x444>
    10be:	e92d 4ff0 	stmdb	sp!, {r4, r5, r6, r7, r8, r9, sl, fp, lr}
    10c2:	f8df 94d4 	ldr.w	r9, [pc, #1236]	; 1598 <nrf_fprintf_fmt+0x4e0>
    10c6:	780e      	ldrb	r6, [r1, #0]
    10c8:	b085      	sub	sp, #20
    10ca:	4605      	mov	r5, r0
    10cc:	4690      	mov	r8, r2
    10ce:	460c      	mov	r4, r1
    10d0:	f04f 0a0d 	mov.w	sl, #13
    10d4:	e00e      	b.n	10f4 <nrf_fprintf_fmt+0x3c>
    10d6:	2e0a      	cmp	r6, #10
    10d8:	68ab      	ldr	r3, [r5, #8]
    10da:	f000 808c 	beq.w	11f6 <nrf_fprintf_fmt+0x13e>
    10de:	682a      	ldr	r2, [r5, #0]
    10e0:	1c59      	adds	r1, r3, #1
    10e2:	60a9      	str	r1, [r5, #8]
    10e4:	54d6      	strb	r6, [r2, r3]
    10e6:	e9d5 3201 	ldrd	r3, r2, [r5, #4]
    10ea:	429a      	cmp	r2, r3
    10ec:	d27f      	bcs.n	11ee <nrf_fprintf_fmt+0x136>
    10ee:	7826      	ldrb	r6, [r4, #0]
    10f0:	2e00      	cmp	r6, #0
    10f2:	d067      	beq.n	11c4 <nrf_fprintf_fmt+0x10c>
    10f4:	3401      	adds	r4, #1
    10f6:	2e00      	cmp	r6, #0
    10f8:	d064      	beq.n	11c4 <nrf_fprintf_fmt+0x10c>
    10fa:	2e25      	cmp	r6, #37	; 0x25
    10fc:	d1eb      	bne.n	10d6 <nrf_fprintf_fmt+0x1e>
    10fe:	4621      	mov	r1, r4
    1100:	2700      	movs	r7, #0
    1102:	780a      	ldrb	r2, [r1, #0]
    1104:	2a2d      	cmp	r2, #45	; 0x2d
    1106:	460c      	mov	r4, r1
    1108:	f101 0101 	add.w	r1, r1, #1
    110c:	d069      	beq.n	11e2 <nrf_fprintf_fmt+0x12a>
    110e:	2a30      	cmp	r2, #48	; 0x30
    1110:	d06a      	beq.n	11e8 <nrf_fprintf_fmt+0x130>
    1112:	2a2b      	cmp	r2, #43	; 0x2b
    1114:	d05d      	beq.n	11d2 <nrf_fprintf_fmt+0x11a>
    1116:	2a2a      	cmp	r2, #42	; 0x2a
    1118:	bf18      	it	ne
    111a:	2600      	movne	r6, #0
    111c:	d104      	bne.n	1128 <nrf_fprintf_fmt+0x70>
    111e:	e079      	b.n	1214 <nrf_fprintf_fmt+0x15c>
    1120:	f814 2f01 	ldrb.w	r2, [r4, #1]!
    1124:	f1a3 0630 	sub.w	r6, r3, #48	; 0x30
    1128:	f1a2 0130 	sub.w	r1, r2, #48	; 0x30
    112c:	eb06 0386 	add.w	r3, r6, r6, lsl #2
    1130:	2909      	cmp	r1, #9
    1132:	eb02 0343 	add.w	r3, r2, r3, lsl #1
    1136:	d9f3      	bls.n	1120 <nrf_fprintf_fmt+0x68>
    1138:	2a2e      	cmp	r2, #46	; 0x2e
    113a:	d075      	beq.n	1228 <nrf_fprintf_fmt+0x170>
    113c:	2300      	movs	r3, #0
    113e:	e001      	b.n	1144 <nrf_fprintf_fmt+0x8c>
    1140:	f814 2f01 	ldrb.w	r2, [r4, #1]!
    1144:	f002 01fb 	and.w	r1, r2, #251	; 0xfb
    1148:	2968      	cmp	r1, #104	; 0x68
    114a:	d0f9      	beq.n	1140 <nrf_fprintf_fmt+0x88>
    114c:	2a25      	cmp	r2, #37	; 0x25
    114e:	f000 815d 	beq.w	140c <nrf_fprintf_fmt+0x354>
    1152:	3a58      	subs	r2, #88	; 0x58
    1154:	b2d1      	uxtb	r1, r2
    1156:	2920      	cmp	r1, #32
    1158:	d830      	bhi.n	11bc <nrf_fprintf_fmt+0x104>
    115a:	2a20      	cmp	r2, #32
    115c:	d82e      	bhi.n	11bc <nrf_fprintf_fmt+0x104>
    115e:	e8df f012 	tbh	[pc, r2, lsl #1]
    1162:	0021      	.short	0x0021
    1164:	002d002d 	.word	0x002d002d
    1168:	002d002d 	.word	0x002d002d
    116c:	002d002d 	.word	0x002d002d
    1170:	002d002d 	.word	0x002d002d
    1174:	002d002d 	.word	0x002d002d
    1178:	007900f1 	.word	0x007900f1
    117c:	002d002d 	.word	0x002d002d
    1180:	002d002d 	.word	0x002d002d
    1184:	002d0079 	.word	0x002d0079
    1188:	002d002d 	.word	0x002d002d
    118c:	002d002d 	.word	0x002d002d
    1190:	00cc002d 	.word	0x00cc002d
    1194:	002d002d 	.word	0x002d002d
    1198:	002d010d 	.word	0x002d010d
    119c:	002d0109 	.word	0x002d0109
    11a0:	0021002d 	.word	0x0021002d
    11a4:	f8d8 1000 	ldr.w	r1, [r8]
    11a8:	2210      	movs	r2, #16
    11aa:	1d08      	adds	r0, r1, #4
    11ac:	f8c8 0000 	str.w	r0, [r8]
    11b0:	6809      	ldr	r1, [r1, #0]
    11b2:	4628      	mov	r0, r5
    11b4:	e9cd 6700 	strd	r6, r7, [sp]
    11b8:	f7ff fed6 	bl	f68 <unsigned_print>
    11bc:	3401      	adds	r4, #1
    11be:	7826      	ldrb	r6, [r4, #0]
    11c0:	2e00      	cmp	r6, #0
    11c2:	d197      	bne.n	10f4 <nrf_fprintf_fmt+0x3c>
    11c4:	7b2b      	ldrb	r3, [r5, #12]
    11c6:	2b00      	cmp	r3, #0
    11c8:	f040 811a 	bne.w	1400 <nrf_fprintf_fmt+0x348>
    11cc:	b005      	add	sp, #20
    11ce:	e8bd 8ff0 	ldmia.w	sp!, {r4, r5, r6, r7, r8, r9, sl, fp, pc}
    11d2:	780a      	ldrb	r2, [r1, #0]
    11d4:	2a2d      	cmp	r2, #45	; 0x2d
    11d6:	460c      	mov	r4, r1
    11d8:	f047 0704 	orr.w	r7, r7, #4
    11dc:	f101 0101 	add.w	r1, r1, #1
    11e0:	d195      	bne.n	110e <nrf_fprintf_fmt+0x56>
    11e2:	f047 0701 	orr.w	r7, r7, #1
    11e6:	e78c      	b.n	1102 <nrf_fprintf_fmt+0x4a>
    11e8:	f047 0702 	orr.w	r7, r7, #2
    11ec:	e789      	b.n	1102 <nrf_fprintf_fmt+0x4a>
    11ee:	4628      	mov	r0, r5
    11f0:	f7ff fe9e 	bl	f30 <nrf_fprintf_buffer_flush>
    11f4:	e77b      	b.n	10ee <nrf_fprintf_fmt+0x36>
    11f6:	682a      	ldr	r2, [r5, #0]
    11f8:	1c59      	adds	r1, r3, #1
    11fa:	60a9      	str	r1, [r5, #8]
    11fc:	f802 a003 	strb.w	sl, [r2, r3]
    1200:	e9d5 2301 	ldrd	r2, r3, [r5, #4]
    1204:	4293      	cmp	r3, r2
    1206:	f4ff af6a 	bcc.w	10de <nrf_fprintf_fmt+0x26>
    120a:	4628      	mov	r0, r5
    120c:	f7ff fe90 	bl	f30 <nrf_fprintf_buffer_flush>
    1210:	68ab      	ldr	r3, [r5, #8]
    1212:	e764      	b.n	10de <nrf_fprintf_fmt+0x26>
    1214:	f8d8 3000 	ldr.w	r3, [r8]
    1218:	1d1a      	adds	r2, r3, #4
    121a:	f8c8 2000 	str.w	r2, [r8]
    121e:	7862      	ldrb	r2, [r4, #1]
    1220:	681e      	ldr	r6, [r3, #0]
    1222:	2a2e      	cmp	r2, #46	; 0x2e
    1224:	460c      	mov	r4, r1
    1226:	d189      	bne.n	113c <nrf_fprintf_fmt+0x84>
    1228:	7862      	ldrb	r2, [r4, #1]
    122a:	f1a2 0330 	sub.w	r3, r2, #48	; 0x30
    122e:	2b09      	cmp	r3, #9
    1230:	f104 0401 	add.w	r4, r4, #1
    1234:	f04f 0300 	mov.w	r3, #0
    1238:	d884      	bhi.n	1144 <nrf_fprintf_fmt+0x8c>
    123a:	eb03 0383 	add.w	r3, r3, r3, lsl #2
    123e:	eb02 0343 	add.w	r3, r2, r3, lsl #1
    1242:	f814 2f01 	ldrb.w	r2, [r4, #1]!
    1246:	f1a2 0130 	sub.w	r1, r2, #48	; 0x30
    124a:	2909      	cmp	r1, #9
    124c:	f1a3 0330 	sub.w	r3, r3, #48	; 0x30
    1250:	d9f3      	bls.n	123a <nrf_fprintf_fmt+0x182>
    1252:	e777      	b.n	1144 <nrf_fprintf_fmt+0x8c>
    1254:	f8d8 2000 	ldr.w	r2, [r8]
    1258:	1d11      	adds	r1, r2, #4
    125a:	f8c8 1000 	str.w	r1, [r8]
    125e:	f8d2 b000 	ldr.w	fp, [r2]
    1262:	ea8b 72eb 	eor.w	r2, fp, fp, asr #31
    1266:	eba2 72eb 	sub.w	r2, r2, fp, asr #31
    126a:	2a09      	cmp	r2, #9
    126c:	f04f 0001 	mov.w	r0, #1
    1270:	dd08      	ble.n	1284 <nrf_fprintf_fmt+0x1cc>
    1272:	4611      	mov	r1, r2
    1274:	2963      	cmp	r1, #99	; 0x63
    1276:	fba9 c202 	umull	ip, r2, r9, r2
    127a:	f100 0001 	add.w	r0, r0, #1
    127e:	ea4f 02d2 	mov.w	r2, r2, lsr #3
    1282:	dcf6      	bgt.n	1272 <nrf_fprintf_fmt+0x1ba>
    1284:	4298      	cmp	r0, r3
    1286:	4602      	mov	r2, r0
    1288:	bf38      	it	cc
    128a:	461a      	movcc	r2, r3
    128c:	9202      	str	r2, [sp, #8]
    128e:	b1fe      	cbz	r6, 12d0 <nrf_fprintf_fmt+0x218>
    1290:	f1bb 0f00 	cmp.w	fp, #0
    1294:	f2c0 811e 	blt.w	14d4 <nrf_fprintf_fmt+0x41c>
    1298:	077a      	lsls	r2, r7, #29
    129a:	f100 811b 	bmi.w	14d4 <nrf_fprintf_fmt+0x41c>
    129e:	07b8      	lsls	r0, r7, #30
    12a0:	d500      	bpl.n	12a4 <nrf_fprintf_fmt+0x1ec>
    12a2:	b1ab      	cbz	r3, 12d0 <nrf_fprintf_fmt+0x218>
    12a4:	07f9      	lsls	r1, r7, #31
    12a6:	d413      	bmi.n	12d0 <nrf_fprintf_fmt+0x218>
    12a8:	b18e      	cbz	r6, 12ce <nrf_fprintf_fmt+0x216>
    12aa:	2220      	movs	r2, #32
    12ac:	9902      	ldr	r1, [sp, #8]
    12ae:	42b1      	cmp	r1, r6
    12b0:	d20e      	bcs.n	12d0 <nrf_fprintf_fmt+0x218>
    12b2:	68a9      	ldr	r1, [r5, #8]
    12b4:	1c48      	adds	r0, r1, #1
    12b6:	60a8      	str	r0, [r5, #8]
    12b8:	6828      	ldr	r0, [r5, #0]
    12ba:	5442      	strb	r2, [r0, r1]
    12bc:	e9d5 0101 	ldrd	r0, r1, [r5, #4]
    12c0:	4281      	cmp	r1, r0
    12c2:	f106 36ff 	add.w	r6, r6, #4294967295	; 0xffffffff
    12c6:	f080 8156 	bcs.w	1576 <nrf_fprintf_fmt+0x4be>
    12ca:	2e00      	cmp	r6, #0
    12cc:	d1ee      	bne.n	12ac <nrf_fprintf_fmt+0x1f4>
    12ce:	2600      	movs	r6, #0
    12d0:	f1bb 0f00 	cmp.w	fp, #0
    12d4:	f2c0 80eb 	blt.w	14ae <nrf_fprintf_fmt+0x3f6>
    12d8:	077a      	lsls	r2, r7, #29
    12da:	f100 8137 	bmi.w	154c <nrf_fprintf_fmt+0x494>
    12de:	f007 0203 	and.w	r2, r7, #3
    12e2:	2a02      	cmp	r2, #2
    12e4:	f000 811a 	beq.w	151c <nrf_fprintf_fmt+0x464>
    12e8:	e9cd 6700 	strd	r6, r7, [sp]
    12ec:	4659      	mov	r1, fp
    12ee:	220a      	movs	r2, #10
    12f0:	4628      	mov	r0, r5
    12f2:	f7ff fe39 	bl	f68 <unsigned_print>
    12f6:	3401      	adds	r4, #1
    12f8:	e761      	b.n	11be <nrf_fprintf_fmt+0x106>
    12fa:	f8d8 3000 	ldr.w	r3, [r8]
    12fe:	1d1a      	adds	r2, r3, #4
    1300:	f8c8 2000 	str.w	r2, [r8]
    1304:	6819      	ldr	r1, [r3, #0]
    1306:	68ab      	ldr	r3, [r5, #8]
    1308:	682a      	ldr	r2, [r5, #0]
    130a:	1c5e      	adds	r6, r3, #1
    130c:	2030      	movs	r0, #48	; 0x30
    130e:	60ae      	str	r6, [r5, #8]
    1310:	54d0      	strb	r0, [r2, r3]
    1312:	e9d5 2301 	ldrd	r2, r3, [r5, #4]
    1316:	4293      	cmp	r3, r2
    1318:	f080 80c2 	bcs.w	14a0 <nrf_fprintf_fmt+0x3e8>
    131c:	1c58      	adds	r0, r3, #1
    131e:	682a      	ldr	r2, [r5, #0]
    1320:	60a8      	str	r0, [r5, #8]
    1322:	2078      	movs	r0, #120	; 0x78
    1324:	54d0      	strb	r0, [r2, r3]
    1326:	e9d5 3201 	ldrd	r3, r2, [r5, #4]
    132a:	429a      	cmp	r2, r3
    132c:	f080 80b2 	bcs.w	1494 <nrf_fprintf_fmt+0x3dc>
    1330:	2308      	movs	r3, #8
    1332:	2200      	movs	r2, #0
    1334:	e9cd 3200 	strd	r3, r2, [sp]
    1338:	4628      	mov	r0, r5
    133a:	2210      	movs	r2, #16
    133c:	f7ff fe14 	bl	f68 <unsigned_print>
    1340:	3401      	adds	r4, #1
    1342:	e73c      	b.n	11be <nrf_fprintf_fmt+0x106>
    1344:	f8d8 3000 	ldr.w	r3, [r8]
    1348:	1d1a      	adds	r2, r3, #4
    134a:	f8c8 2000 	str.w	r2, [r8]
    134e:	781e      	ldrb	r6, [r3, #0]
    1350:	68ab      	ldr	r3, [r5, #8]
    1352:	2e0a      	cmp	r6, #10
    1354:	f000 8100 	beq.w	1558 <nrf_fprintf_fmt+0x4a0>
    1358:	682a      	ldr	r2, [r5, #0]
    135a:	1c59      	adds	r1, r3, #1
    135c:	60a9      	str	r1, [r5, #8]
    135e:	54d6      	strb	r6, [r2, r3]
    1360:	e9d5 3201 	ldrd	r3, r2, [r5, #4]
    1364:	429a      	cmp	r2, r3
    1366:	f4ff af29 	bcc.w	11bc <nrf_fprintf_fmt+0x104>
    136a:	4628      	mov	r0, r5
    136c:	f7ff fde0 	bl	f30 <nrf_fprintf_buffer_flush>
    1370:	3401      	adds	r4, #1
    1372:	e724      	b.n	11be <nrf_fprintf_fmt+0x106>
    1374:	f8d8 1000 	ldr.w	r1, [r8]
    1378:	220a      	movs	r2, #10
    137a:	e716      	b.n	11aa <nrf_fprintf_fmt+0xf2>
    137c:	f8d8 3000 	ldr.w	r3, [r8]
    1380:	1d1a      	adds	r2, r3, #4
    1382:	f8c8 2000 	str.w	r2, [r8]
    1386:	f017 0701 	ands.w	r7, r7, #1
    138a:	f8d3 b000 	ldr.w	fp, [r3]
    138e:	d148      	bne.n	1422 <nrf_fprintf_fmt+0x36a>
    1390:	f1bb 0f00 	cmp.w	fp, #0
    1394:	d003      	beq.n	139e <nrf_fprintf_fmt+0x2e6>
    1396:	4658      	mov	r0, fp
    1398:	f001 ff8a 	bl	32b0 <strlen>
    139c:	4607      	mov	r7, r0
    139e:	42be      	cmp	r6, r7
    13a0:	d915      	bls.n	13ce <nrf_fprintf_fmt+0x316>
    13a2:	2120      	movs	r1, #32
    13a4:	e001      	b.n	13aa <nrf_fprintf_fmt+0x2f2>
    13a6:	42be      	cmp	r6, r7
    13a8:	d011      	beq.n	13ce <nrf_fprintf_fmt+0x316>
    13aa:	68aa      	ldr	r2, [r5, #8]
    13ac:	682b      	ldr	r3, [r5, #0]
    13ae:	1c50      	adds	r0, r2, #1
    13b0:	60a8      	str	r0, [r5, #8]
    13b2:	5499      	strb	r1, [r3, r2]
    13b4:	e9d5 3201 	ldrd	r3, r2, [r5, #4]
    13b8:	429a      	cmp	r2, r3
    13ba:	f106 36ff 	add.w	r6, r6, #4294967295	; 0xffffffff
    13be:	d3f2      	bcc.n	13a6 <nrf_fprintf_fmt+0x2ee>
    13c0:	4628      	mov	r0, r5
    13c2:	f7ff fdb5 	bl	f30 <nrf_fprintf_buffer_flush>
    13c6:	42be      	cmp	r6, r7
    13c8:	f04f 0120 	mov.w	r1, #32
    13cc:	d1ed      	bne.n	13aa <nrf_fprintf_fmt+0x2f2>
    13ce:	f89b 6000 	ldrb.w	r6, [fp]
    13d2:	b92e      	cbnz	r6, 13e0 <nrf_fprintf_fmt+0x328>
    13d4:	e6f2      	b.n	11bc <nrf_fprintf_fmt+0x104>
    13d6:	f81b 6f01 	ldrb.w	r6, [fp, #1]!
    13da:	2e00      	cmp	r6, #0
    13dc:	f43f aeee 	beq.w	11bc <nrf_fprintf_fmt+0x104>
    13e0:	2e0a      	cmp	r6, #10
    13e2:	68ab      	ldr	r3, [r5, #8]
    13e4:	f000 808b 	beq.w	14fe <nrf_fprintf_fmt+0x446>
    13e8:	682a      	ldr	r2, [r5, #0]
    13ea:	1c59      	adds	r1, r3, #1
    13ec:	60a9      	str	r1, [r5, #8]
    13ee:	54d6      	strb	r6, [r2, r3]
    13f0:	e9d5 3201 	ldrd	r3, r2, [r5, #4]
    13f4:	429a      	cmp	r2, r3
    13f6:	d3ee      	bcc.n	13d6 <nrf_fprintf_fmt+0x31e>
    13f8:	4628      	mov	r0, r5
    13fa:	f7ff fd99 	bl	f30 <nrf_fprintf_buffer_flush>
    13fe:	e7ea      	b.n	13d6 <nrf_fprintf_fmt+0x31e>
    1400:	4628      	mov	r0, r5
    1402:	b005      	add	sp, #20
    1404:	e8bd 4ff0 	ldmia.w	sp!, {r4, r5, r6, r7, r8, r9, sl, fp, lr}
    1408:	f7ff bd92 	b.w	f30 <nrf_fprintf_buffer_flush>
    140c:	68ab      	ldr	r3, [r5, #8]
    140e:	6829      	ldr	r1, [r5, #0]
    1410:	1c58      	adds	r0, r3, #1
    1412:	60a8      	str	r0, [r5, #8]
    1414:	54ca      	strb	r2, [r1, r3]
    1416:	e9d5 3201 	ldrd	r3, r2, [r5, #4]
    141a:	429a      	cmp	r2, r3
    141c:	d2a5      	bcs.n	136a <nrf_fprintf_fmt+0x2b2>
    141e:	3401      	adds	r4, #1
    1420:	e6cd      	b.n	11be <nrf_fprintf_fmt+0x106>
    1422:	f89b 3000 	ldrb.w	r3, [fp]
    1426:	2b00      	cmp	r3, #0
    1428:	f000 80b3 	beq.w	1592 <nrf_fprintf_fmt+0x4da>
    142c:	465f      	mov	r7, fp
    142e:	f1cb 0101 	rsb	r1, fp, #1
    1432:	e002      	b.n	143a <nrf_fprintf_fmt+0x382>
    1434:	f817 3f01 	ldrb.w	r3, [r7, #1]!
    1438:	b1ab      	cbz	r3, 1466 <nrf_fprintf_fmt+0x3ae>
    143a:	2b0a      	cmp	r3, #10
    143c:	68a8      	ldr	r0, [r5, #8]
    143e:	eb01 0b07 	add.w	fp, r1, r7
    1442:	d049      	beq.n	14d8 <nrf_fprintf_fmt+0x420>
    1444:	1c42      	adds	r2, r0, #1
    1446:	60aa      	str	r2, [r5, #8]
    1448:	682a      	ldr	r2, [r5, #0]
    144a:	5413      	strb	r3, [r2, r0]
    144c:	e9d5 3201 	ldrd	r3, r2, [r5, #4]
    1450:	429a      	cmp	r2, r3
    1452:	d3ef      	bcc.n	1434 <nrf_fprintf_fmt+0x37c>
    1454:	4628      	mov	r0, r5
    1456:	9102      	str	r1, [sp, #8]
    1458:	f7ff fd6a 	bl	f30 <nrf_fprintf_buffer_flush>
    145c:	f817 3f01 	ldrb.w	r3, [r7, #1]!
    1460:	9902      	ldr	r1, [sp, #8]
    1462:	2b00      	cmp	r3, #0
    1464:	d1e9      	bne.n	143a <nrf_fprintf_fmt+0x382>
    1466:	455e      	cmp	r6, fp
    1468:	f67f aea8 	bls.w	11bc <nrf_fprintf_fmt+0x104>
    146c:	2720      	movs	r7, #32
    146e:	e002      	b.n	1476 <nrf_fprintf_fmt+0x3be>
    1470:	455e      	cmp	r6, fp
    1472:	f43f aea3 	beq.w	11bc <nrf_fprintf_fmt+0x104>
    1476:	68aa      	ldr	r2, [r5, #8]
    1478:	682b      	ldr	r3, [r5, #0]
    147a:	1c51      	adds	r1, r2, #1
    147c:	60a9      	str	r1, [r5, #8]
    147e:	549f      	strb	r7, [r3, r2]
    1480:	e9d5 3201 	ldrd	r3, r2, [r5, #4]
    1484:	429a      	cmp	r2, r3
    1486:	f106 36ff 	add.w	r6, r6, #4294967295	; 0xffffffff
    148a:	d3f1      	bcc.n	1470 <nrf_fprintf_fmt+0x3b8>
    148c:	4628      	mov	r0, r5
    148e:	f7ff fd4f 	bl	f30 <nrf_fprintf_buffer_flush>
    1492:	e7ed      	b.n	1470 <nrf_fprintf_fmt+0x3b8>
    1494:	4628      	mov	r0, r5
    1496:	9102      	str	r1, [sp, #8]
    1498:	f7ff fd4a 	bl	f30 <nrf_fprintf_buffer_flush>
    149c:	9902      	ldr	r1, [sp, #8]
    149e:	e747      	b.n	1330 <nrf_fprintf_fmt+0x278>
    14a0:	4628      	mov	r0, r5
    14a2:	9102      	str	r1, [sp, #8]
    14a4:	f7ff fd44 	bl	f30 <nrf_fprintf_buffer_flush>
    14a8:	68ab      	ldr	r3, [r5, #8]
    14aa:	9902      	ldr	r1, [sp, #8]
    14ac:	e736      	b.n	131c <nrf_fprintf_fmt+0x264>
    14ae:	68a9      	ldr	r1, [r5, #8]
    14b0:	682a      	ldr	r2, [r5, #0]
    14b2:	1c48      	adds	r0, r1, #1
    14b4:	60a8      	str	r0, [r5, #8]
    14b6:	f1cb 0b00 	rsb	fp, fp, #0
    14ba:	202d      	movs	r0, #45	; 0x2d
    14bc:	5450      	strb	r0, [r2, r1]
    14be:	e9d5 2101 	ldrd	r2, r1, [r5, #4]
    14c2:	4291      	cmp	r1, r2
    14c4:	f4ff af0b 	bcc.w	12de <nrf_fprintf_fmt+0x226>
    14c8:	4628      	mov	r0, r5
    14ca:	9303      	str	r3, [sp, #12]
    14cc:	f7ff fd30 	bl	f30 <nrf_fprintf_buffer_flush>
    14d0:	9b03      	ldr	r3, [sp, #12]
    14d2:	e704      	b.n	12de <nrf_fprintf_fmt+0x226>
    14d4:	3e01      	subs	r6, #1
    14d6:	e6e2      	b.n	129e <nrf_fprintf_fmt+0x1e6>
    14d8:	1c42      	adds	r2, r0, #1
    14da:	60aa      	str	r2, [r5, #8]
    14dc:	682a      	ldr	r2, [r5, #0]
    14de:	f802 a000 	strb.w	sl, [r2, r0]
    14e2:	e9d5 2001 	ldrd	r2, r0, [r5, #4]
    14e6:	4290      	cmp	r0, r2
    14e8:	d3ac      	bcc.n	1444 <nrf_fprintf_fmt+0x38c>
    14ea:	4628      	mov	r0, r5
    14ec:	e9cd 3102 	strd	r3, r1, [sp, #8]
    14f0:	f7ff fd1e 	bl	f30 <nrf_fprintf_buffer_flush>
    14f4:	e9dd 3102 	ldrd	r3, r1, [sp, #8]
    14f8:	68a8      	ldr	r0, [r5, #8]
    14fa:	e7a3      	b.n	1444 <nrf_fprintf_fmt+0x38c>
    14fc:	4770      	bx	lr
    14fe:	682a      	ldr	r2, [r5, #0]
    1500:	1c59      	adds	r1, r3, #1
    1502:	60a9      	str	r1, [r5, #8]
    1504:	f802 a003 	strb.w	sl, [r2, r3]
    1508:	e9d5 2301 	ldrd	r2, r3, [r5, #4]
    150c:	4293      	cmp	r3, r2
    150e:	f4ff af6b 	bcc.w	13e8 <nrf_fprintf_fmt+0x330>
    1512:	4628      	mov	r0, r5
    1514:	f7ff fd0c 	bl	f30 <nrf_fprintf_buffer_flush>
    1518:	68ab      	ldr	r3, [r5, #8]
    151a:	e765      	b.n	13e8 <nrf_fprintf_fmt+0x330>
    151c:	2b00      	cmp	r3, #0
    151e:	f47f aee3 	bne.w	12e8 <nrf_fprintf_fmt+0x230>
    1522:	b18e      	cbz	r6, 1548 <nrf_fprintf_fmt+0x490>
    1524:	2230      	movs	r2, #48	; 0x30
    1526:	9902      	ldr	r1, [sp, #8]
    1528:	42b1      	cmp	r1, r6
    152a:	f4bf aedd 	bcs.w	12e8 <nrf_fprintf_fmt+0x230>
    152e:	68a9      	ldr	r1, [r5, #8]
    1530:	1c48      	adds	r0, r1, #1
    1532:	60a8      	str	r0, [r5, #8]
    1534:	6828      	ldr	r0, [r5, #0]
    1536:	5442      	strb	r2, [r0, r1]
    1538:	e9d5 0101 	ldrd	r0, r1, [r5, #4]
    153c:	4281      	cmp	r1, r0
    153e:	f106 36ff 	add.w	r6, r6, #4294967295	; 0xffffffff
    1542:	d21f      	bcs.n	1584 <nrf_fprintf_fmt+0x4cc>
    1544:	2e00      	cmp	r6, #0
    1546:	d1ee      	bne.n	1526 <nrf_fprintf_fmt+0x46e>
    1548:	2600      	movs	r6, #0
    154a:	e6cd      	b.n	12e8 <nrf_fprintf_fmt+0x230>
    154c:	68a9      	ldr	r1, [r5, #8]
    154e:	682a      	ldr	r2, [r5, #0]
    1550:	1c48      	adds	r0, r1, #1
    1552:	60a8      	str	r0, [r5, #8]
    1554:	202b      	movs	r0, #43	; 0x2b
    1556:	e7b1      	b.n	14bc <nrf_fprintf_fmt+0x404>
    1558:	682a      	ldr	r2, [r5, #0]
    155a:	1c59      	adds	r1, r3, #1
    155c:	60a9      	str	r1, [r5, #8]
    155e:	f802 a003 	strb.w	sl, [r2, r3]
    1562:	e9d5 2301 	ldrd	r2, r3, [r5, #4]
    1566:	4293      	cmp	r3, r2
    1568:	f4ff aef6 	bcc.w	1358 <nrf_fprintf_fmt+0x2a0>
    156c:	4628      	mov	r0, r5
    156e:	f7ff fcdf 	bl	f30 <nrf_fprintf_buffer_flush>
    1572:	68ab      	ldr	r3, [r5, #8]
    1574:	e6f0      	b.n	1358 <nrf_fprintf_fmt+0x2a0>
    1576:	4628      	mov	r0, r5
    1578:	9303      	str	r3, [sp, #12]
    157a:	f7ff fcd9 	bl	f30 <nrf_fprintf_buffer_flush>
    157e:	9b03      	ldr	r3, [sp, #12]
    1580:	2220      	movs	r2, #32
    1582:	e6a2      	b.n	12ca <nrf_fprintf_fmt+0x212>
    1584:	4628      	mov	r0, r5
    1586:	9303      	str	r3, [sp, #12]
    1588:	f7ff fcd2 	bl	f30 <nrf_fprintf_buffer_flush>
    158c:	9b03      	ldr	r3, [sp, #12]
    158e:	2230      	movs	r2, #48	; 0x30
    1590:	e7d8      	b.n	1544 <nrf_fprintf_fmt+0x48c>
    1592:	469b      	mov	fp, r3
    1594:	e767      	b.n	1466 <nrf_fprintf_fmt+0x3ae>
    1596:	bf00      	nop
    1598:	cccccccd 	.word	0xcccccccd

0000159c <memobj_op>:
    159c:	e92d 47f0 	stmdb	sp!, {r4, r5, r6, r7, r8, r9, sl, lr}
    15a0:	4604      	mov	r4, r0
    15a2:	88c7      	ldrh	r7, [r0, #6]
    15a4:	7940      	ldrb	r0, [r0, #5]
    15a6:	6816      	ldr	r6, [r2, #0]
    15a8:	f89d 9020 	ldrb.w	r9, [sp, #32]
    15ac:	fb07 f000 	mul.w	r0, r7, r0
    15b0:	3804      	subs	r0, #4
    15b2:	eb06 0e03 	add.w	lr, r6, r3
    15b6:	1d1d      	adds	r5, r3, #4
    15b8:	4586      	cmp	lr, r0
    15ba:	bf88      	it	hi
    15bc:	1ac6      	subhi	r6, r0, r3
    15be:	42bd      	cmp	r5, r7
    15c0:	4688      	mov	r8, r1
    15c2:	6016      	str	r6, [r2, #0]
    15c4:	fbb5 f1f7 	udiv	r1, r5, r7
    15c8:	fb07 5c11 	mls	ip, r7, r1, r5
    15cc:	d302      	bcc.n	15d4 <memobj_op+0x38>
    15ce:	3901      	subs	r1, #1
    15d0:	6824      	ldr	r4, [r4, #0]
    15d2:	d1fc      	bne.n	15ce <memobj_op+0x32>
    15d4:	eba7 050c 	sub.w	r5, r7, ip
    15d8:	42b5      	cmp	r5, r6
    15da:	bf28      	it	cs
    15dc:	4635      	movcs	r5, r6
    15de:	b1ee      	cbz	r6, 161c <memobj_op+0x80>
    15e0:	f04f 0a00 	mov.w	sl, #0
    15e4:	e00c      	b.n	1600 <memobj_op+0x64>
    15e6:	4618      	mov	r0, r3
    15e8:	f001 fe54 	bl	3294 <memcpy>
    15ec:	1b76      	subs	r6, r6, r5
    15ee:	42b7      	cmp	r7, r6
    15f0:	44aa      	add	sl, r5
    15f2:	6824      	ldr	r4, [r4, #0]
    15f4:	463d      	mov	r5, r7
    15f6:	f04f 0c00 	mov.w	ip, #0
    15fa:	bf28      	it	cs
    15fc:	4635      	movcs	r5, r6
    15fe:	b16e      	cbz	r6, 161c <memobj_op+0x80>
    1600:	f10c 0004 	add.w	r0, ip, #4
    1604:	4420      	add	r0, r4
    1606:	462a      	mov	r2, r5
    1608:	4601      	mov	r1, r0
    160a:	eb08 030a 	add.w	r3, r8, sl
    160e:	f1b9 0f00 	cmp.w	r9, #0
    1612:	d1e8      	bne.n	15e6 <memobj_op+0x4a>
    1614:	4619      	mov	r1, r3
    1616:	f001 fe3d 	bl	3294 <memcpy>
    161a:	e7e7      	b.n	15ec <memobj_op+0x50>
    161c:	e8bd 87f0 	ldmia.w	sp!, {r4, r5, r6, r7, r8, r9, sl, pc}

00001620 <nrf_memobj_pool_init>:
    1620:	f7ff bc2c 	b.w	e7c <nrf_balloc_init>

00001624 <nrf_memobj_alloc>:
    1624:	e92d 41f0 	stmdb	sp!, {r4, r5, r6, r7, r8, lr}
    1628:	8a05      	ldrh	r5, [r0, #16]
    162a:	3103      	adds	r1, #3
    162c:	3d04      	subs	r5, #4
    162e:	194e      	adds	r6, r1, r5
    1630:	4680      	mov	r8, r0
    1632:	fbb6 f6f5 	udiv	r6, r6, r5
    1636:	f7ff fc3f 	bl	eb8 <nrf_balloc_alloc>
    163a:	b3a0      	cbz	r0, 16a6 <nrf_memobj_alloc+0x82>
    163c:	b2f6      	uxtb	r6, r6
    163e:	f44f 7380 	mov.w	r3, #256	; 0x100
    1642:	3e01      	subs	r6, #1
    1644:	4604      	mov	r4, r0
    1646:	8083      	strh	r3, [r0, #4]
    1648:	80c5      	strh	r5, [r0, #6]
    164a:	f8c0 8000 	str.w	r8, [r0]
    164e:	d02b      	beq.n	16a8 <nrf_memobj_alloc+0x84>
    1650:	4603      	mov	r3, r0
    1652:	2500      	movs	r5, #0
    1654:	e008      	b.n	1668 <nrf_memobj_alloc+0x44>
    1656:	7962      	ldrb	r2, [r4, #5]
    1658:	42ae      	cmp	r6, r5
    165a:	f102 0201 	add.w	r2, r2, #1
    165e:	7162      	strb	r2, [r4, #5]
    1660:	6038      	str	r0, [r7, #0]
    1662:	f8c0 8000 	str.w	r8, [r0]
    1666:	d01f      	beq.n	16a8 <nrf_memobj_alloc+0x84>
    1668:	4640      	mov	r0, r8
    166a:	461f      	mov	r7, r3
    166c:	f7ff fc24 	bl	eb8 <nrf_balloc_alloc>
    1670:	3501      	adds	r5, #1
    1672:	4603      	mov	r3, r0
    1674:	2800      	cmp	r0, #0
    1676:	d1ee      	bne.n	1656 <nrf_memobj_alloc+0x32>
    1678:	7967      	ldrb	r7, [r4, #5]
    167a:	1e79      	subs	r1, r7, #1
    167c:	d017      	beq.n	16ae <nrf_memobj_alloc+0x8a>
    167e:	4622      	mov	r2, r4
    1680:	3301      	adds	r3, #1
    1682:	4299      	cmp	r1, r3
    1684:	6812      	ldr	r2, [r2, #0]
    1686:	d1fb      	bne.n	1680 <nrf_memobj_alloc+0x5c>
    1688:	f8d2 8000 	ldr.w	r8, [r2]
    168c:	b15f      	cbz	r7, 16a6 <nrf_memobj_alloc+0x82>
    168e:	6826      	ldr	r6, [r4, #0]
    1690:	2500      	movs	r5, #0
    1692:	e001      	b.n	1698 <nrf_memobj_alloc+0x74>
    1694:	4634      	mov	r4, r6
    1696:	6836      	ldr	r6, [r6, #0]
    1698:	4621      	mov	r1, r4
    169a:	4640      	mov	r0, r8
    169c:	3501      	adds	r5, #1
    169e:	f7ff fc31 	bl	f04 <nrf_balloc_free>
    16a2:	42af      	cmp	r7, r5
    16a4:	d8f6      	bhi.n	1694 <nrf_memobj_alloc+0x70>
    16a6:	2400      	movs	r4, #0
    16a8:	4620      	mov	r0, r4
    16aa:	e8bd 81f0 	ldmia.w	sp!, {r4, r5, r6, r7, r8, pc}
    16ae:	6820      	ldr	r0, [r4, #0]
    16b0:	4621      	mov	r1, r4
    16b2:	f7ff fc27 	bl	f04 <nrf_balloc_free>
    16b6:	e7f6      	b.n	16a6 <nrf_memobj_alloc+0x82>

000016b8 <nrf_memobj_get>:
    16b8:	2101      	movs	r1, #1
    16ba:	3004      	adds	r0, #4
    16bc:	f7ff bbae 	b.w	e1c <nrf_atomic_u32_add>

000016c0 <nrf_memobj_put>:
    16c0:	e92d 41f0 	stmdb	sp!, {r4, r5, r6, r7, r8, lr}
    16c4:	2101      	movs	r1, #1
    16c6:	4604      	mov	r4, r0
    16c8:	3004      	adds	r0, #4
    16ca:	f7ff fbb3 	bl	e34 <nrf_atomic_u32_sub>
    16ce:	f010 03ff 	ands.w	r3, r0, #255	; 0xff
    16d2:	d001      	beq.n	16d8 <nrf_memobj_put+0x18>
    16d4:	e8bd 81f0 	ldmia.w	sp!, {r4, r5, r6, r7, r8, pc}
    16d8:	7967      	ldrb	r7, [r4, #5]
    16da:	1e79      	subs	r1, r7, #1
    16dc:	d016      	beq.n	170c <nrf_memobj_put+0x4c>
    16de:	4622      	mov	r2, r4
    16e0:	3301      	adds	r3, #1
    16e2:	4299      	cmp	r1, r3
    16e4:	6812      	ldr	r2, [r2, #0]
    16e6:	d1fb      	bne.n	16e0 <nrf_memobj_put+0x20>
    16e8:	f8d2 8000 	ldr.w	r8, [r2]
    16ec:	2f00      	cmp	r7, #0
    16ee:	d0f1      	beq.n	16d4 <nrf_memobj_put+0x14>
    16f0:	6826      	ldr	r6, [r4, #0]
    16f2:	2500      	movs	r5, #0
    16f4:	e001      	b.n	16fa <nrf_memobj_put+0x3a>
    16f6:	4634      	mov	r4, r6
    16f8:	6836      	ldr	r6, [r6, #0]
    16fa:	4621      	mov	r1, r4
    16fc:	4640      	mov	r0, r8
    16fe:	3501      	adds	r5, #1
    1700:	f7ff fc00 	bl	f04 <nrf_balloc_free>
    1704:	42af      	cmp	r7, r5
    1706:	d8f6      	bhi.n	16f6 <nrf_memobj_put+0x36>
    1708:	e8bd 81f0 	ldmia.w	sp!, {r4, r5, r6, r7, r8, pc}
    170c:	6820      	ldr	r0, [r4, #0]
    170e:	4621      	mov	r1, r4
    1710:	e8bd 41f0 	ldmia.w	sp!, {r4, r5, r6, r7, r8, lr}
    1714:	f7ff bbf6 	b.w	f04 <nrf_balloc_free>

00001718 <nrf_memobj_write>:
    1718:	b530      	push	{r4, r5, lr}
    171a:	b085      	sub	sp, #20
    171c:	2500      	movs	r5, #0
    171e:	4614      	mov	r4, r2
    1720:	9500      	str	r5, [sp, #0]
    1722:	aa03      	add	r2, sp, #12
    1724:	9403      	str	r4, [sp, #12]
    1726:	f7ff ff39 	bl	159c <memobj_op>
    172a:	b005      	add	sp, #20
    172c:	bd30      	pop	{r4, r5, pc}
    172e:	bf00      	nop

00001730 <nrf_memobj_read>:
    1730:	b530      	push	{r4, r5, lr}
    1732:	b085      	sub	sp, #20
    1734:	2501      	movs	r5, #1
    1736:	4614      	mov	r4, r2
    1738:	9500      	str	r5, [sp, #0]
    173a:	aa03      	add	r2, sp, #12
    173c:	9403      	str	r4, [sp, #12]
    173e:	f7ff ff2d 	bl	159c <memobj_op>
    1742:	b005      	add	sp, #20
    1744:	bd30      	pop	{r4, r5, pc}
    1746:	bf00      	nop

00001748 <nrf_ringbuf_init>:
    1748:	6882      	ldr	r2, [r0, #8]
    174a:	2300      	movs	r3, #0
    174c:	6093      	str	r3, [r2, #8]
    174e:	6882      	ldr	r2, [r0, #8]
    1750:	6113      	str	r3, [r2, #16]
    1752:	6882      	ldr	r2, [r0, #8]
    1754:	6153      	str	r3, [r2, #20]
    1756:	6882      	ldr	r2, [r0, #8]
    1758:	60d3      	str	r3, [r2, #12]
    175a:	6882      	ldr	r2, [r0, #8]
    175c:	6053      	str	r3, [r2, #4]
    175e:	6882      	ldr	r2, [r0, #8]
    1760:	6013      	str	r3, [r2, #0]
    1762:	4770      	bx	lr

00001764 <twim_evt_handler>:
    1764:	b530      	push	{r4, r5, lr}
    1766:	4b0d      	ldr	r3, [pc, #52]	; (179c <twim_evt_handler+0x38>)
    1768:	4c0d      	ldr	r4, [pc, #52]	; (17a0 <twim_evt_handler+0x3c>)
    176a:	7802      	ldrb	r2, [r0, #0]
    176c:	f853 3021 	ldr.w	r3, [r3, r1, lsl #2]
    1770:	f854 1021 	ldr.w	r1, [r4, r1, lsl #2]
    1774:	8884      	ldrh	r4, [r0, #4]
    1776:	b085      	sub	sp, #20
    1778:	f88d 2000 	strb.w	r2, [sp]
    177c:	f8ad 4004 	strh.w	r4, [sp, #4]
    1780:	6882      	ldr	r2, [r0, #8]
    1782:	f88d 2006 	strb.w	r2, [sp, #6]
    1786:	e9d0 5403 	ldrd	r5, r4, [r0, #12]
    178a:	6942      	ldr	r2, [r0, #20]
    178c:	f88d 5007 	strb.w	r5, [sp, #7]
    1790:	e9cd 4202 	strd	r4, r2, [sp, #8]
    1794:	4668      	mov	r0, sp
    1796:	4798      	blx	r3
    1798:	b005      	add	sp, #20
    179a:	bd30      	pop	{r4, r5, pc}
    179c:	20000624 	.word	0x20000624
    17a0:	2000061c 	.word	0x2000061c

000017a4 <nrf_drv_twi_init>:
    17a4:	e92d 4ff0 	stmdb	sp!, {r4, r5, r6, r7, r8, r9, sl, fp, lr}
    17a8:	4616      	mov	r6, r2
    17aa:	f890 a000 	ldrb.w	sl, [r0]
    17ae:	4a3a      	ldr	r2, [pc, #232]	; (1898 <nrf_drv_twi_init+0xf4>)
    17b0:	f842 602a 	str.w	r6, [r2, sl, lsl #2]
    17b4:	4a39      	ldr	r2, [pc, #228]	; (189c <nrf_drv_twi_init+0xf8>)
    17b6:	f842 302a 	str.w	r3, [r2, sl, lsl #2]
    17ba:	7b4b      	ldrb	r3, [r1, #13]
    17bc:	b081      	sub	sp, #4
    17be:	4680      	mov	r8, r0
    17c0:	460c      	mov	r4, r1
    17c2:	b963      	cbnz	r3, 17de <nrf_drv_twi_init+0x3a>
    17c4:	4a36      	ldr	r2, [pc, #216]	; (18a0 <nrf_drv_twi_init+0xfc>)
    17c6:	2e00      	cmp	r6, #0
    17c8:	4653      	mov	r3, sl
    17ca:	bf08      	it	eq
    17cc:	4632      	moveq	r2, r6
    17ce:	4621      	mov	r1, r4
    17d0:	f108 0004 	add.w	r0, r8, #4
    17d4:	b001      	add	sp, #4
    17d6:	e8bd 4ff0 	ldmia.w	sp!, {r4, r5, r6, r7, r8, r9, sl, fp, lr}
    17da:	f000 bbb9 	b.w	1f50 <nrfx_twim_init>
    17de:	680b      	ldr	r3, [r1, #0]
    17e0:	4f30      	ldr	r7, [pc, #192]	; (18a4 <nrf_drv_twi_init+0x100>)
    17e2:	f04f 45a0 	mov.w	r5, #1342177280	; 0x50000000
    17e6:	f503 73e0 	add.w	r3, r3, #448	; 0x1c0
    17ea:	f240 620c 	movw	r2, #1548	; 0x60c
    17ee:	f845 2023 	str.w	r2, [r5, r3, lsl #2]
    17f2:	684b      	ldr	r3, [r1, #4]
    17f4:	f503 73e0 	add.w	r3, r3, #448	; 0x1c0
    17f8:	f04f 0901 	mov.w	r9, #1
    17fc:	f845 2023 	str.w	r2, [r5, r3, lsl #2]
    1800:	680b      	ldr	r3, [r1, #0]
    1802:	fa09 f303 	lsl.w	r3, r9, r3
    1806:	f8c5 3508 	str.w	r3, [r5, #1288]	; 0x508
    180a:	684b      	ldr	r3, [r1, #4]
    180c:	fa09 f303 	lsl.w	r3, r9, r3
    1810:	f8c5 3508 	str.w	r3, [r5, #1288]	; 0x508
    1814:	680b      	ldr	r3, [r1, #0]
    1816:	f503 73e0 	add.w	r3, r3, #448	; 0x1c0
    181a:	f240 620d 	movw	r2, #1549	; 0x60d
    181e:	f845 2023 	str.w	r2, [r5, r3, lsl #2]
    1822:	684b      	ldr	r3, [r1, #4]
    1824:	f503 73e0 	add.w	r3, r3, #448	; 0x1c0
    1828:	ea47 0709 	orr.w	r7, r7, r9
    182c:	f845 2023 	str.w	r2, [r5, r3, lsl #2]
    1830:	f44f 7080 	mov.w	r0, #256	; 0x100
    1834:	47b8      	blx	r7
    1836:	f04f 0b00 	mov.w	fp, #0
    183a:	f8d5 3510 	ldr.w	r3, [r5, #1296]	; 0x510
    183e:	6862      	ldr	r2, [r4, #4]
    1840:	40d3      	lsrs	r3, r2
    1842:	07db      	lsls	r3, r3, #31
    1844:	f44f 7080 	mov.w	r0, #256	; 0x100
    1848:	d422      	bmi.n	1890 <nrf_drv_twi_init+0xec>
    184a:	6823      	ldr	r3, [r4, #0]
    184c:	fa09 f303 	lsl.w	r3, r9, r3
    1850:	f8c5 350c 	str.w	r3, [r5, #1292]	; 0x50c
    1854:	47b8      	blx	r7
    1856:	6823      	ldr	r3, [r4, #0]
    1858:	fa09 f303 	lsl.w	r3, r9, r3
    185c:	f10b 0b01 	add.w	fp, fp, #1
    1860:	f44f 7080 	mov.w	r0, #256	; 0x100
    1864:	f8c5 3508 	str.w	r3, [r5, #1288]	; 0x508
    1868:	47b8      	blx	r7
    186a:	f1bb 0f09 	cmp.w	fp, #9
    186e:	d1e4      	bne.n	183a <nrf_drv_twi_init+0x96>
    1870:	6862      	ldr	r2, [r4, #4]
    1872:	2501      	movs	r5, #1
    1874:	f04f 49a0 	mov.w	r9, #1342177280	; 0x50000000
    1878:	fa05 f202 	lsl.w	r2, r5, r2
    187c:	f8c9 250c 	str.w	r2, [r9, #1292]	; 0x50c
    1880:	f44f 7080 	mov.w	r0, #256	; 0x100
    1884:	47b8      	blx	r7
    1886:	6863      	ldr	r3, [r4, #4]
    1888:	409d      	lsls	r5, r3
    188a:	f8c9 5508 	str.w	r5, [r9, #1288]	; 0x508
    188e:	e799      	b.n	17c4 <nrf_drv_twi_init+0x20>
    1890:	f1bb 0f00 	cmp.w	fp, #0
    1894:	d1ed      	bne.n	1872 <nrf_drv_twi_init+0xce>
    1896:	e795      	b.n	17c4 <nrf_drv_twi_init+0x20>
    1898:	20000624 	.word	0x20000624
    189c:	2000061c 	.word	0x2000061c
    18a0:	00001765 	.word	0x00001765
    18a4:	000035c0 	.word	0x000035c0

000018a8 <uarte_evt_handler>:
    18a8:	b530      	push	{r4, r5, lr}
    18aa:	4b0a      	ldr	r3, [pc, #40]	; (18d4 <uarte_evt_handler+0x2c>)
    18ac:	4c0a      	ldr	r4, [pc, #40]	; (18d8 <uarte_evt_handler+0x30>)
    18ae:	f853 3021 	ldr.w	r3, [r3, r1, lsl #2]
    18b2:	f854 1021 	ldr.w	r1, [r4, r1, lsl #2]
    18b6:	7802      	ldrb	r2, [r0, #0]
    18b8:	b085      	sub	sp, #20
    18ba:	e9d0 5401 	ldrd	r5, r4, [r0, #4]
    18be:	f88d 2000 	strb.w	r2, [sp]
    18c2:	68c2      	ldr	r2, [r0, #12]
    18c4:	9501      	str	r5, [sp, #4]
    18c6:	f88d 4008 	strb.w	r4, [sp, #8]
    18ca:	9203      	str	r2, [sp, #12]
    18cc:	4668      	mov	r0, sp
    18ce:	4798      	blx	r3
    18d0:	b005      	add	sp, #20
    18d2:	bd30      	pop	{r4, r5, pc}
    18d4:	20000630 	.word	0x20000630
    18d8:	2000062c 	.word	0x2000062c

000018dc <uart_evt_handler>:
    18dc:	b530      	push	{r4, r5, lr}
    18de:	4b0a      	ldr	r3, [pc, #40]	; (1908 <uart_evt_handler+0x2c>)
    18e0:	4c0a      	ldr	r4, [pc, #40]	; (190c <uart_evt_handler+0x30>)
    18e2:	f853 3021 	ldr.w	r3, [r3, r1, lsl #2]
    18e6:	f854 1021 	ldr.w	r1, [r4, r1, lsl #2]
    18ea:	7802      	ldrb	r2, [r0, #0]
    18ec:	b085      	sub	sp, #20
    18ee:	e9d0 5401 	ldrd	r5, r4, [r0, #4]
    18f2:	f88d 2000 	strb.w	r2, [sp]
    18f6:	68c2      	ldr	r2, [r0, #12]
    18f8:	9501      	str	r5, [sp, #4]
    18fa:	f88d 4008 	strb.w	r4, [sp, #8]
    18fe:	9203      	str	r2, [sp, #12]
    1900:	4668      	mov	r0, sp
    1902:	4798      	blx	r3
    1904:	b005      	add	sp, #20
    1906:	bd30      	pop	{r4, r5, pc}
    1908:	20000630 	.word	0x20000630
    190c:	2000062c 	.word	0x2000062c

00001910 <nrf_drv_uart_init>:
    1910:	b5f0      	push	{r4, r5, r6, r7, lr}
    1912:	4b17      	ldr	r3, [pc, #92]	; (1970 <nrf_drv_uart_init+0x60>)
    1914:	7806      	ldrb	r6, [r0, #0]
    1916:	7f4f      	ldrb	r7, [r1, #29]
    1918:	f843 2026 	str.w	r2, [r3, r6, lsl #2]
    191c:	4614      	mov	r4, r2
    191e:	4b15      	ldr	r3, [pc, #84]	; (1974 <nrf_drv_uart_init+0x64>)
    1920:	4a15      	ldr	r2, [pc, #84]	; (1978 <nrf_drv_uart_init+0x68>)
    1922:	559f      	strb	r7, [r3, r6]
    1924:	4605      	mov	r5, r0
    1926:	6908      	ldr	r0, [r1, #16]
    1928:	f842 0026 	str.w	r0, [r2, r6, lsl #2]
    192c:	468c      	mov	ip, r1
    192e:	e8bc 000f 	ldmia.w	ip!, {r0, r1, r2, r3}
    1932:	b089      	sub	sp, #36	; 0x24
    1934:	46ee      	mov	lr, sp
    1936:	e8ae 000f 	stmia.w	lr!, {r0, r1, r2, r3}
    193a:	e89c 000f 	ldmia.w	ip, {r0, r1, r2, r3}
    193e:	e88e 000f 	stmia.w	lr, {r0, r1, r2, r3}
    1942:	9604      	str	r6, [sp, #16]
    1944:	b14f      	cbz	r7, 195a <nrf_drv_uart_init+0x4a>
    1946:	2c00      	cmp	r4, #0
    1948:	4a0c      	ldr	r2, [pc, #48]	; (197c <nrf_drv_uart_init+0x6c>)
    194a:	4669      	mov	r1, sp
    194c:	bf08      	it	eq
    194e:	4622      	moveq	r2, r4
    1950:	1d28      	adds	r0, r5, #4
    1952:	f000 ffd1 	bl	28f8 <nrfx_uarte_init>
    1956:	b009      	add	sp, #36	; 0x24
    1958:	bdf0      	pop	{r4, r5, r6, r7, pc}
    195a:	2c00      	cmp	r4, #0
    195c:	4a08      	ldr	r2, [pc, #32]	; (1980 <nrf_drv_uart_init+0x70>)
    195e:	4669      	mov	r1, sp
    1960:	bf08      	it	eq
    1962:	4622      	moveq	r2, r4
    1964:	f105 000c 	add.w	r0, r5, #12
    1968:	f000 fd6a 	bl	2440 <nrfx_uart_init>
    196c:	b009      	add	sp, #36	; 0x24
    196e:	bdf0      	pop	{r4, r5, r6, r7, pc}
    1970:	20000630 	.word	0x20000630
    1974:	20000634 	.word	0x20000634
    1978:	2000062c 	.word	0x2000062c
    197c:	000018a9 	.word	0x000018a9
    1980:	000018dd 	.word	0x000018dd

00001984 <UARTE0_UART0_IRQHandler>:
    1984:	4b01      	ldr	r3, [pc, #4]	; (198c <UARTE0_UART0_IRQHandler+0x8>)
    1986:	681b      	ldr	r3, [r3, #0]
    1988:	4718      	bx	r3
    198a:	bf00      	nop
    198c:	20000638 	.word	0x20000638

00001990 <nrfx_prs_acquire>:
    1990:	b538      	push	{r3, r4, r5, lr}
    1992:	4b0c      	ldr	r3, [pc, #48]	; (19c4 <nrfx_prs_acquire+0x34>)
    1994:	4298      	cmp	r0, r3
    1996:	d113      	bne.n	19c0 <nrfx_prs_acquire+0x30>
    1998:	2000      	movs	r0, #0
    199a:	460d      	mov	r5, r1
    199c:	f7ff fa22 	bl	de4 <app_util_critical_region_enter>
    19a0:	4b09      	ldr	r3, [pc, #36]	; (19c8 <nrfx_prs_acquire+0x38>)
    19a2:	791c      	ldrb	r4, [r3, #4]
    19a4:	b124      	cbz	r4, 19b0 <nrfx_prs_acquire+0x20>
    19a6:	2000      	movs	r0, #0
    19a8:	f7ff fa24 	bl	df4 <app_util_critical_region_exit>
    19ac:	2011      	movs	r0, #17
    19ae:	bd38      	pop	{r3, r4, r5, pc}
    19b0:	2201      	movs	r2, #1
    19b2:	4620      	mov	r0, r4
    19b4:	601d      	str	r5, [r3, #0]
    19b6:	711a      	strb	r2, [r3, #4]
    19b8:	f7ff fa1c 	bl	df4 <app_util_critical_region_exit>
    19bc:	4620      	mov	r0, r4
    19be:	bd38      	pop	{r3, r4, r5, pc}
    19c0:	2000      	movs	r0, #0
    19c2:	bd38      	pop	{r3, r4, r5, pc}
    19c4:	40002000 	.word	0x40002000
    19c8:	20000638 	.word	0x20000638

000019cc <nrfx_prs_release>:
    19cc:	4b03      	ldr	r3, [pc, #12]	; (19dc <nrfx_prs_release+0x10>)
    19ce:	4298      	cmp	r0, r3
    19d0:	d103      	bne.n	19da <nrfx_prs_release+0xe>
    19d2:	4b03      	ldr	r3, [pc, #12]	; (19e0 <nrfx_prs_release+0x14>)
    19d4:	2200      	movs	r2, #0
    19d6:	601a      	str	r2, [r3, #0]
    19d8:	711a      	strb	r2, [r3, #4]
    19da:	4770      	bx	lr
    19dc:	40002000 	.word	0x40002000
    19e0:	20000638 	.word	0x20000638

000019e4 <xfer_completeness_check>:
    19e4:	7b0b      	ldrb	r3, [r1, #12]
    19e6:	4602      	mov	r2, r0
    19e8:	2b03      	cmp	r3, #3
    19ea:	d81f      	bhi.n	1a2c <xfer_completeness_check+0x48>
    19ec:	e8df f003 	tbb	[pc, r3]
    19f0:	02142026 	.word	0x02142026
    19f4:	688b      	ldr	r3, [r1, #8]
    19f6:	0358      	lsls	r0, r3, #13
    19f8:	d426      	bmi.n	1a48 <xfer_completeness_check+0x64>
    19fa:	688b      	ldr	r3, [r1, #8]
    19fc:	035b      	lsls	r3, r3, #13
    19fe:	d415      	bmi.n	1a2c <xfer_completeness_check+0x48>
    1a00:	f8d2 354c 	ldr.w	r3, [r2, #1356]	; 0x54c
    1a04:	6949      	ldr	r1, [r1, #20]
    1a06:	4299      	cmp	r1, r3
    1a08:	d010      	beq.n	1a2c <xfer_completeness_check+0x48>
    1a0a:	2000      	movs	r0, #0
    1a0c:	2106      	movs	r1, #6
    1a0e:	f8c2 0500 	str.w	r0, [r2, #1280]	; 0x500
    1a12:	f8c2 1500 	str.w	r1, [r2, #1280]	; 0x500
    1a16:	4770      	bx	lr
    1a18:	f8d2 354c 	ldr.w	r3, [r2, #1356]	; 0x54c
    1a1c:	6908      	ldr	r0, [r1, #16]
    1a1e:	4298      	cmp	r0, r3
    1a20:	d1f3      	bne.n	1a0a <xfer_completeness_check+0x26>
    1a22:	f8d2 353c 	ldr.w	r3, [r2, #1340]	; 0x53c
    1a26:	6949      	ldr	r1, [r1, #20]
    1a28:	4299      	cmp	r1, r3
    1a2a:	d1ee      	bne.n	1a0a <xfer_completeness_check+0x26>
    1a2c:	2001      	movs	r0, #1
    1a2e:	4770      	bx	lr
    1a30:	f8d2 353c 	ldr.w	r3, [r2, #1340]	; 0x53c
    1a34:	6909      	ldr	r1, [r1, #16]
    1a36:	4299      	cmp	r1, r3
    1a38:	d1e7      	bne.n	1a0a <xfer_completeness_check+0x26>
    1a3a:	e7f7      	b.n	1a2c <xfer_completeness_check+0x48>
    1a3c:	f8d2 354c 	ldr.w	r3, [r2, #1356]	; 0x54c
    1a40:	6909      	ldr	r1, [r1, #16]
    1a42:	4299      	cmp	r1, r3
    1a44:	d1e1      	bne.n	1a0a <xfer_completeness_check+0x26>
    1a46:	e7f1      	b.n	1a2c <xfer_completeness_check+0x48>
    1a48:	f8d2 354c 	ldr.w	r3, [r2, #1356]	; 0x54c
    1a4c:	6908      	ldr	r0, [r1, #16]
    1a4e:	4298      	cmp	r0, r3
    1a50:	d1db      	bne.n	1a0a <xfer_completeness_check+0x26>
    1a52:	e7d2      	b.n	19fa <xfer_completeness_check+0x16>

00001a54 <twim_xfer>:
    1a54:	e92d 43f0 	stmdb	sp!, {r4, r5, r6, r7, r8, r9, lr}
    1a58:	4615      	mov	r5, r2
    1a5a:	2200      	movs	r2, #0
    1a5c:	f880 202e 	strb.w	r2, [r0, #46]	; 0x2e
    1a60:	68ea      	ldr	r2, [r5, #12]
    1a62:	f002 4260 	and.w	r2, r2, #3758096384	; 0xe0000000
    1a66:	f1b2 5f00 	cmp.w	r2, #536870912	; 0x20000000
    1a6a:	b08b      	sub	sp, #44	; 0x2c
    1a6c:	d14f      	bne.n	1b0e <twim_xfer+0xba>
    1a6e:	461c      	mov	r4, r3
    1a70:	4bb2      	ldr	r3, [pc, #712]	; (1d3c <twim_xfer+0x2e8>)
    1a72:	f8c1 3308 	str.w	r3, [r1, #776]	; 0x308
    1a76:	f890 302f 	ldrb.w	r3, [r0, #47]	; 0x2f
    1a7a:	4686      	mov	lr, r0
    1a7c:	468c      	mov	ip, r1
    1a7e:	f003 08ff 	and.w	r8, r3, #255	; 0xff
    1a82:	2b00      	cmp	r3, #0
    1a84:	f040 80e5 	bne.w	1c52 <twim_xfer+0x1fe>
    1a88:	f014 0f14 	tst.w	r4, #20
    1a8c:	bf0c      	ite	eq
    1a8e:	2301      	moveq	r3, #1
    1a90:	2300      	movne	r3, #0
    1a92:	f880 302f 	strb.w	r3, [r0, #47]	; 0x2f
    1a96:	462f      	mov	r7, r5
    1a98:	f100 060c 	add.w	r6, r0, #12
    1a9c:	cf0f      	ldmia	r7!, {r0, r1, r2, r3}
    1a9e:	c60f      	stmia	r6!, {r0, r1, r2, r3}
    1aa0:	f3c4 1900 	ubfx	r9, r4, #4, #1
    1aa4:	683b      	ldr	r3, [r7, #0]
    1aa6:	6033      	str	r3, [r6, #0]
    1aa8:	f88e 9030 	strb.w	r9, [lr, #48]	; 0x30
    1aac:	f8ce 4020 	str.w	r4, [lr, #32]
    1ab0:	786b      	ldrb	r3, [r5, #1]
    1ab2:	f8cc 3588 	str.w	r3, [ip, #1416]	; 0x588
    1ab6:	f8cc 8104 	str.w	r8, [ip, #260]	; 0x104
    1aba:	f8dc 3104 	ldr.w	r3, [ip, #260]	; 0x104
    1abe:	9304      	str	r3, [sp, #16]
    1ac0:	9b04      	ldr	r3, [sp, #16]
    1ac2:	f8cc 8124 	str.w	r8, [ip, #292]	; 0x124
    1ac6:	f8dc 3124 	ldr.w	r3, [ip, #292]	; 0x124
    1aca:	9303      	str	r3, [sp, #12]
    1acc:	9b03      	ldr	r3, [sp, #12]
    1ace:	f8cc 8160 	str.w	r8, [ip, #352]	; 0x160
    1ad2:	f8dc 3160 	ldr.w	r3, [ip, #352]	; 0x160
    1ad6:	9302      	str	r3, [sp, #8]
    1ad8:	9b02      	ldr	r3, [sp, #8]
    1ada:	f8cc 8148 	str.w	r8, [ip, #328]	; 0x148
    1ade:	f8dc 3148 	ldr.w	r3, [ip, #328]	; 0x148
    1ae2:	9301      	str	r3, [sp, #4]
    1ae4:	9b01      	ldr	r3, [sp, #4]
    1ae6:	f014 0301 	ands.w	r3, r4, #1
    1aea:	bf18      	it	ne
    1aec:	2301      	movne	r3, #1
    1aee:	f8cc 3550 	str.w	r3, [ip, #1360]	; 0x550
    1af2:	f014 0302 	ands.w	r3, r4, #2
    1af6:	bf18      	it	ne
    1af8:	2301      	movne	r3, #1
    1afa:	f8cc 3540 	str.w	r3, [ip, #1344]	; 0x540
    1afe:	782b      	ldrb	r3, [r5, #0]
    1b00:	2b03      	cmp	r3, #3
    1b02:	f200 8117 	bhi.w	1d34 <twim_xfer+0x2e0>
    1b06:	e8df f003 	tbb	[pc, r3]
    1b0a:	773a      	.short	0x773a
    1b0c:	078a      	.short	0x078a
    1b0e:	2610      	movs	r6, #16
    1b10:	4630      	mov	r0, r6
    1b12:	b00b      	add	sp, #44	; 0x2c
    1b14:	e8bd 83f0 	ldmia.w	sp!, {r4, r5, r6, r7, r8, r9, pc}
    1b18:	692b      	ldr	r3, [r5, #16]
    1b1a:	f003 4360 	and.w	r3, r3, #3758096384	; 0xe0000000
    1b1e:	f1b3 5f00 	cmp.w	r3, #536870912	; 0x20000000
    1b22:	d1f4      	bne.n	1b0e <twim_xfer+0xba>
    1b24:	f44f 7380 	mov.w	r3, #256	; 0x100
    1b28:	f8cc 3200 	str.w	r3, [ip, #512]	; 0x200
    1b2c:	686b      	ldr	r3, [r5, #4]
    1b2e:	68ea      	ldr	r2, [r5, #12]
    1b30:	f8cc 2544 	str.w	r2, [ip, #1348]	; 0x544
    1b34:	f8cc 3548 	str.w	r3, [ip, #1352]	; 0x548
    1b38:	2300      	movs	r3, #0
    1b3a:	f8cc 3150 	str.w	r3, [ip, #336]	; 0x150
    1b3e:	f8dc 3150 	ldr.w	r3, [ip, #336]	; 0x150
    1b42:	9305      	str	r3, [sp, #20]
    1b44:	2301      	movs	r3, #1
    1b46:	9a05      	ldr	r2, [sp, #20]
    1b48:	f8cc 3020 	str.w	r3, [ip, #32]
    1b4c:	f8cc 3008 	str.w	r3, [ip, #8]
    1b50:	f8dc 3150 	ldr.w	r3, [ip, #336]	; 0x150
    1b54:	2b00      	cmp	r3, #0
    1b56:	d0fb      	beq.n	1b50 <twim_xfer+0xfc>
    1b58:	2600      	movs	r6, #0
    1b5a:	f8cc 6150 	str.w	r6, [ip, #336]	; 0x150
    1b5e:	f8dc 3150 	ldr.w	r3, [ip, #336]	; 0x150
    1b62:	9306      	str	r3, [sp, #24]
    1b64:	9b06      	ldr	r3, [sp, #24]
    1b66:	692a      	ldr	r2, [r5, #16]
    1b68:	68ab      	ldr	r3, [r5, #8]
    1b6a:	f8cc 2544 	str.w	r2, [ip, #1348]	; 0x544
    1b6e:	f8cc 3548 	str.w	r3, [ip, #1352]	; 0x548
    1b72:	f44f 2380 	mov.w	r3, #262144	; 0x40000
    1b76:	f8ce 3008 	str.w	r3, [lr, #8]
    1b7a:	2308      	movs	r3, #8
    1b7c:	e015      	b.n	1baa <twim_xfer+0x156>
    1b7e:	686b      	ldr	r3, [r5, #4]
    1b80:	68ea      	ldr	r2, [r5, #12]
    1b82:	f8cc 2544 	str.w	r2, [ip, #1348]	; 0x544
    1b86:	f8cc 3548 	str.w	r3, [ip, #1352]	; 0x548
    1b8a:	06a3      	lsls	r3, r4, #26
    1b8c:	f140 80cf 	bpl.w	1d2e <twim_xfer+0x2da>
    1b90:	f44f 7380 	mov.w	r3, #256	; 0x100
    1b94:	f8cc 3200 	str.w	r3, [ip, #512]	; 0x200
    1b98:	f44f 2380 	mov.w	r3, #262144	; 0x40000
    1b9c:	f8ce 3008 	str.w	r3, [lr, #8]
    1ba0:	2301      	movs	r3, #1
    1ba2:	f8cc 3020 	str.w	r3, [ip, #32]
    1ba6:	2600      	movs	r6, #0
    1ba8:	2308      	movs	r3, #8
    1baa:	0727      	lsls	r7, r4, #28
    1bac:	d405      	bmi.n	1bba <twim_xfer+0x166>
    1bae:	782a      	ldrb	r2, [r5, #0]
    1bb0:	2a03      	cmp	r2, #3
    1bb2:	bf1c      	itt	ne
    1bb4:	2201      	movne	r2, #1
    1bb6:	f84c 2003 	strne.w	r2, [ip, r3]
    1bba:	f8de 2000 	ldr.w	r2, [lr]
    1bbe:	2a00      	cmp	r2, #0
    1bc0:	d04f      	beq.n	1c62 <twim_xfer+0x20e>
    1bc2:	0765      	lsls	r5, r4, #29
    1bc4:	bf44      	itt	mi
    1bc6:	2300      	movmi	r3, #0
    1bc8:	f8ce 3008 	strmi.w	r3, [lr, #8]
    1bcc:	0664      	lsls	r4, r4, #25
    1bce:	d405      	bmi.n	1bdc <twim_xfer+0x188>
    1bd0:	f8de 3008 	ldr.w	r3, [lr, #8]
    1bd4:	f043 0302 	orr.w	r3, r3, #2
    1bd8:	f8ce 3008 	str.w	r3, [lr, #8]
    1bdc:	f8de 3008 	ldr.w	r3, [lr, #8]
    1be0:	f443 7300 	orr.w	r3, r3, #512	; 0x200
    1be4:	f8ce 3008 	str.w	r3, [lr, #8]
    1be8:	f8de 3008 	ldr.w	r3, [lr, #8]
    1bec:	f8cc 3304 	str.w	r3, [ip, #772]	; 0x304
    1bf0:	4630      	mov	r0, r6
    1bf2:	b00b      	add	sp, #44	; 0x2c
    1bf4:	e8bd 83f0 	ldmia.w	sp!, {r4, r5, r6, r7, r8, r9, pc}
    1bf8:	686b      	ldr	r3, [r5, #4]
    1bfa:	68ea      	ldr	r2, [r5, #12]
    1bfc:	f8cc 2534 	str.w	r2, [ip, #1332]	; 0x534
    1c00:	f8cc 3538 	str.w	r3, [ip, #1336]	; 0x538
    1c04:	f44f 5380 	mov.w	r3, #4096	; 0x1000
    1c08:	f8cc 3200 	str.w	r3, [ip, #512]	; 0x200
    1c0c:	2302      	movs	r3, #2
    1c0e:	f8ce 3008 	str.w	r3, [lr, #8]
    1c12:	2301      	movs	r3, #1
    1c14:	f8cc 3020 	str.w	r3, [ip, #32]
    1c18:	2300      	movs	r3, #0
    1c1a:	461e      	mov	r6, r3
    1c1c:	e7c5      	b.n	1baa <twim_xfer+0x156>
    1c1e:	686b      	ldr	r3, [r5, #4]
    1c20:	68ea      	ldr	r2, [r5, #12]
    1c22:	f8cc 2544 	str.w	r2, [ip, #1348]	; 0x544
    1c26:	f8cc 3548 	str.w	r3, [ip, #1352]	; 0x548
    1c2a:	692b      	ldr	r3, [r5, #16]
    1c2c:	f003 4260 	and.w	r2, r3, #3758096384	; 0xe0000000
    1c30:	f1b2 5f00 	cmp.w	r2, #536870912	; 0x20000000
    1c34:	f47f af6b 	bne.w	1b0e <twim_xfer+0xba>
    1c38:	68aa      	ldr	r2, [r5, #8]
    1c3a:	f8cc 3534 	str.w	r3, [ip, #1332]	; 0x534
    1c3e:	f8cc 2538 	str.w	r2, [ip, #1336]	; 0x538
    1c42:	f44f 5384 	mov.w	r3, #4224	; 0x1080
    1c46:	f8cc 3200 	str.w	r3, [ip, #512]	; 0x200
    1c4a:	2302      	movs	r3, #2
    1c4c:	f8ce 3008 	str.w	r3, [lr, #8]
    1c50:	e7a6      	b.n	1ba0 <twim_xfer+0x14c>
    1c52:	6883      	ldr	r3, [r0, #8]
    1c54:	f8c1 3304 	str.w	r3, [r1, #772]	; 0x304
    1c58:	2611      	movs	r6, #17
    1c5a:	4630      	mov	r0, r6
    1c5c:	b00b      	add	sp, #44	; 0x2c
    1c5e:	e8bd 83f0 	ldmia.w	sp!, {r4, r5, r6, r7, r8, r9, pc}
    1c62:	2501      	movs	r5, #1
    1c64:	f8dc 3148 	ldr.w	r3, [ip, #328]	; 0x148
    1c68:	b9cb      	cbnz	r3, 1c9e <twim_xfer+0x24a>
    1c6a:	f8dc 3104 	ldr.w	r3, [ip, #260]	; 0x104
    1c6e:	b9cb      	cbnz	r3, 1ca4 <twim_xfer+0x250>
    1c70:	f8dc 1124 	ldr.w	r1, [ip, #292]	; 0x124
    1c74:	2900      	cmp	r1, #0
    1c76:	d0f5      	beq.n	1c64 <twim_xfer+0x210>
    1c78:	f8cc 2124 	str.w	r2, [ip, #292]	; 0x124
    1c7c:	f8dc 1124 	ldr.w	r1, [ip, #292]	; 0x124
    1c80:	9108      	str	r1, [sp, #32]
    1c82:	9908      	ldr	r1, [sp, #32]
    1c84:	f8dc 0160 	ldr.w	r0, [ip, #352]	; 0x160
    1c88:	f8dc 1200 	ldr.w	r1, [ip, #512]	; 0x200
    1c8c:	b9a8      	cbnz	r0, 1cba <twim_xfer+0x266>
    1c8e:	f8cc 5020 	str.w	r5, [ip, #32]
    1c92:	f8cc 5014 	str.w	r5, [ip, #20]
    1c96:	f8dc 3148 	ldr.w	r3, [ip, #328]	; 0x148
    1c9a:	2b00      	cmp	r3, #0
    1c9c:	d0e5      	beq.n	1c6a <twim_xfer+0x216>
    1c9e:	f8dc 3104 	ldr.w	r3, [ip, #260]	; 0x104
    1ca2:	b12b      	cbz	r3, 1cb0 <twim_xfer+0x25c>
    1ca4:	f8cc 2104 	str.w	r2, [ip, #260]	; 0x104
    1ca8:	f8dc 3104 	ldr.w	r3, [ip, #260]	; 0x104
    1cac:	9307      	str	r3, [sp, #28]
    1cae:	9b07      	ldr	r3, [sp, #28]
    1cb0:	f8dc 3124 	ldr.w	r3, [ip, #292]	; 0x124
    1cb4:	b13b      	cbz	r3, 1cc6 <twim_xfer+0x272>
    1cb6:	2301      	movs	r3, #1
    1cb8:	e7de      	b.n	1c78 <twim_xfer+0x224>
    1cba:	0588      	lsls	r0, r1, #22
    1cbc:	d51f      	bpl.n	1cfe <twim_xfer+0x2aa>
    1cbe:	05c9      	lsls	r1, r1, #23
    1cc0:	d423      	bmi.n	1d0a <twim_xfer+0x2b6>
    1cc2:	2b00      	cmp	r3, #0
    1cc4:	d0ce      	beq.n	1c64 <twim_xfer+0x210>
    1cc6:	f8dc 34c4 	ldr.w	r3, [ip, #1220]	; 0x4c4
    1cca:	f8cc 34c4 	str.w	r3, [ip, #1220]	; 0x4c4
    1cce:	2200      	movs	r2, #0
    1cd0:	f88e 202f 	strb.w	r2, [lr, #47]	; 0x2f
    1cd4:	b303      	cbz	r3, 1d18 <twim_xfer+0x2c4>
    1cd6:	f013 0f01 	tst.w	r3, #1
    1cda:	bf18      	it	ne
    1cdc:	f44f 4602 	movne.w	r6, #33280	; 0x8200
    1ce0:	f248 2201 	movw	r2, #33281	; 0x8201
    1ce4:	bf08      	it	eq
    1ce6:	2603      	moveq	r6, #3
    1ce8:	f013 0f02 	tst.w	r3, #2
    1cec:	bf18      	it	ne
    1cee:	4616      	movne	r6, r2
    1cf0:	f248 2202 	movw	r2, #33282	; 0x8202
    1cf4:	f013 0f04 	tst.w	r3, #4
    1cf8:	bf18      	it	ne
    1cfa:	4616      	movne	r6, r2
    1cfc:	e708      	b.n	1b10 <twim_xfer+0xbc>
    1cfe:	05cb      	lsls	r3, r1, #23
    1d00:	f8cc 5020 	str.w	r5, [ip, #32]
    1d04:	f8cc 5014 	str.w	r5, [ip, #20]
    1d08:	d5ac      	bpl.n	1c64 <twim_xfer+0x210>
    1d0a:	f8cc 2148 	str.w	r2, [ip, #328]	; 0x148
    1d0e:	f8dc 3148 	ldr.w	r3, [ip, #328]	; 0x148
    1d12:	9309      	str	r3, [sp, #36]	; 0x24
    1d14:	9b09      	ldr	r3, [sp, #36]	; 0x24
    1d16:	e7a5      	b.n	1c64 <twim_xfer+0x210>
    1d18:	0662      	lsls	r2, r4, #25
    1d1a:	f53f aef9 	bmi.w	1b10 <twim_xfer+0xbc>
    1d1e:	4671      	mov	r1, lr
    1d20:	4660      	mov	r0, ip
    1d22:	f7ff fe5f 	bl	19e4 <xfer_completeness_check>
    1d26:	2800      	cmp	r0, #0
    1d28:	bf08      	it	eq
    1d2a:	2603      	moveq	r6, #3
    1d2c:	e6f0      	b.n	1b10 <twim_xfer+0xbc>
    1d2e:	f44f 7300 	mov.w	r3, #512	; 0x200
    1d32:	e788      	b.n	1c46 <twim_xfer+0x1f2>
    1d34:	2308      	movs	r3, #8
    1d36:	2607      	movs	r6, #7
    1d38:	e737      	b.n	1baa <twim_xfer+0x156>
    1d3a:	bf00      	nop
    1d3c:	019c0202 	.word	0x019c0202

00001d40 <SPIM0_SPIS0_TWIM0_TWIS0_SPI0_TWI0_IRQHandler>:
    1d40:	b5f0      	push	{r4, r5, r6, r7, lr}
    1d42:	4b7e      	ldr	r3, [pc, #504]	; (1f3c <SPIM0_SPIS0_TWIM0_TWIS0_SPI0_TWI0_IRQHandler+0x1fc>)
    1d44:	f8d3 2124 	ldr.w	r2, [r3, #292]	; 0x124
    1d48:	b08d      	sub	sp, #52	; 0x34
    1d4a:	b15a      	cbz	r2, 1d64 <SPIM0_SPIS0_TWIM0_TWIS0_SPI0_TWI0_IRQHandler+0x24>
    1d4c:	2200      	movs	r2, #0
    1d4e:	f8c3 2124 	str.w	r2, [r3, #292]	; 0x124
    1d52:	f8d3 2124 	ldr.w	r2, [r3, #292]	; 0x124
    1d56:	9205      	str	r2, [sp, #20]
    1d58:	9a05      	ldr	r2, [sp, #20]
    1d5a:	f8d3 2104 	ldr.w	r2, [r3, #260]	; 0x104
    1d5e:	2a00      	cmp	r2, #0
    1d60:	f000 8085 	beq.w	1e6e <SPIM0_SPIS0_TWIM0_TWIS0_SPI0_TWI0_IRQHandler+0x12e>
    1d64:	4d75      	ldr	r5, [pc, #468]	; (1f3c <SPIM0_SPIS0_TWIM0_TWIS0_SPI0_TWI0_IRQHandler+0x1fc>)
    1d66:	4c76      	ldr	r4, [pc, #472]	; (1f40 <SPIM0_SPIS0_TWIM0_TWIS0_SPI0_TWI0_IRQHandler+0x200>)
    1d68:	f8d5 3104 	ldr.w	r3, [r5, #260]	; 0x104
    1d6c:	2b00      	cmp	r3, #0
    1d6e:	d037      	beq.n	1de0 <SPIM0_SPIS0_TWIM0_TWIS0_SPI0_TWI0_IRQHandler+0xa0>
    1d70:	2300      	movs	r3, #0
    1d72:	f8c5 3104 	str.w	r3, [r5, #260]	; 0x104
    1d76:	6a26      	ldr	r6, [r4, #32]
    1d78:	f8d5 3104 	ldr.w	r3, [r5, #260]	; 0x104
    1d7c:	9304      	str	r3, [sp, #16]
    1d7e:	0677      	lsls	r7, r6, #25
    1d80:	9b04      	ldr	r3, [sp, #16]
    1d82:	d404      	bmi.n	1d8e <SPIM0_SPIS0_TWIM0_TWIS0_SPI0_TWI0_IRQHandler+0x4e>
    1d84:	f894 302e 	ldrb.w	r3, [r4, #46]	; 0x2e
    1d88:	2b00      	cmp	r3, #0
    1d8a:	f000 80a5 	beq.w	1ed8 <SPIM0_SPIS0_TWIM0_TWIS0_SPI0_TWI0_IRQHandler+0x198>
    1d8e:	f016 0504 	ands.w	r5, r6, #4
    1d92:	d156      	bne.n	1e42 <SPIM0_SPIS0_TWIM0_TWIS0_SPI0_TWI0_IRQHandler+0x102>
    1d94:	4f6b      	ldr	r7, [pc, #428]	; (1f44 <SPIM0_SPIS0_TWIM0_TWIS0_SPI0_TWI0_IRQHandler+0x204>)
    1d96:	f8df c1a4 	ldr.w	ip, [pc, #420]	; 1f3c <SPIM0_SPIS0_TWIM0_TWIS0_SPI0_TWI0_IRQHandler+0x1fc>
    1d9a:	cf0f      	ldmia	r7!, {r0, r1, r2, r3}
    1d9c:	ae07      	add	r6, sp, #28
    1d9e:	c60f      	stmia	r6!, {r0, r1, r2, r3}
    1da0:	683b      	ldr	r3, [r7, #0]
    1da2:	6033      	str	r3, [r6, #0]
    1da4:	f8cc 5160 	str.w	r5, [ip, #352]	; 0x160
    1da8:	f8dc 3160 	ldr.w	r3, [ip, #352]	; 0x160
    1dac:	9302      	str	r3, [sp, #8]
    1dae:	9b02      	ldr	r3, [sp, #8]
    1db0:	f8cc 515c 	str.w	r5, [ip, #348]	; 0x15c
    1db4:	f8dc 315c 	ldr.w	r3, [ip, #348]	; 0x15c
    1db8:	f894 6030 	ldrb.w	r6, [r4, #48]	; 0x30
    1dbc:	9303      	str	r3, [sp, #12]
    1dbe:	9b03      	ldr	r3, [sp, #12]
    1dc0:	2e00      	cmp	r6, #0
    1dc2:	f040 8084 	bne.w	1ece <SPIM0_SPIS0_TWIM0_TWIS0_SPI0_TWI0_IRQHandler+0x18e>
    1dc6:	4b5d      	ldr	r3, [pc, #372]	; (1f3c <SPIM0_SPIS0_TWIM0_TWIS0_SPI0_TWI0_IRQHandler+0x1fc>)
    1dc8:	2200      	movs	r2, #0
    1dca:	f8c3 2200 	str.w	r2, [r3, #512]	; 0x200
    1dce:	60a2      	str	r2, [r4, #8]
    1dd0:	4a5d      	ldr	r2, [pc, #372]	; (1f48 <SPIM0_SPIS0_TWIM0_TWIS0_SPI0_TWI0_IRQHandler+0x208>)
    1dd2:	f8c3 2308 	str.w	r2, [r3, #776]	; 0x308
    1dd6:	4b5d      	ldr	r3, [pc, #372]	; (1f4c <SPIM0_SPIS0_TWIM0_TWIS0_SPI0_TWI0_IRQHandler+0x20c>)
    1dd8:	2208      	movs	r2, #8
    1dda:	f8c3 2180 	str.w	r2, [r3, #384]	; 0x180
    1dde:	e032      	b.n	1e46 <SPIM0_SPIS0_TWIM0_TWIS0_SPI0_TWI0_IRQHandler+0x106>
    1de0:	f8c5 3148 	str.w	r3, [r5, #328]	; 0x148
    1de4:	f8d5 2148 	ldr.w	r2, [r5, #328]	; 0x148
    1de8:	7b23      	ldrb	r3, [r4, #12]
    1dea:	9201      	str	r2, [sp, #4]
    1dec:	9a01      	ldr	r2, [sp, #4]
    1dee:	2b00      	cmp	r3, #0
    1df0:	f040 8085 	bne.w	1efe <SPIM0_SPIS0_TWIM0_TWIS0_SPI0_TWI0_IRQHandler+0x1be>
    1df4:	f104 0e0c 	add.w	lr, r4, #12
    1df8:	e8be 000f 	ldmia.w	lr!, {r0, r1, r2, r3}
    1dfc:	f10d 0c1c 	add.w	ip, sp, #28
    1e00:	e8ac 000f 	stmia.w	ip!, {r0, r1, r2, r3}
    1e04:	f894 6030 	ldrb.w	r6, [r4, #48]	; 0x30
    1e08:	f8de 3000 	ldr.w	r3, [lr]
    1e0c:	f8cc 3000 	str.w	r3, [ip]
    1e10:	2e00      	cmp	r6, #0
    1e12:	d045      	beq.n	1ea0 <SPIM0_SPIS0_TWIM0_TWIS0_SPI0_TWI0_IRQHandler+0x160>
    1e14:	6a25      	ldr	r5, [r4, #32]
    1e16:	f005 0504 	and.w	r5, r5, #4
    1e1a:	4a48      	ldr	r2, [pc, #288]	; (1f3c <SPIM0_SPIS0_TWIM0_TWIS0_SPI0_TWI0_IRQHandler+0x1fc>)
    1e1c:	f8d2 34c4 	ldr.w	r3, [r2, #1220]	; 0x4c4
    1e20:	f8c2 34c4 	str.w	r3, [r2, #1220]	; 0x4c4
    1e24:	0798      	lsls	r0, r3, #30
    1e26:	d560      	bpl.n	1eea <SPIM0_SPIS0_TWIM0_TWIS0_SPI0_TWI0_IRQHandler+0x1aa>
    1e28:	2301      	movs	r3, #1
    1e2a:	f88d 3018 	strb.w	r3, [sp, #24]
    1e2e:	b115      	cbz	r5, 1e36 <SPIM0_SPIS0_TWIM0_TWIS0_SPI0_TWI0_IRQHandler+0xf6>
    1e30:	f894 302e 	ldrb.w	r3, [r4, #46]	; 0x2e
    1e34:	b11b      	cbz	r3, 1e3e <SPIM0_SPIS0_TWIM0_TWIS0_SPI0_TWI0_IRQHandler+0xfe>
    1e36:	e9d4 3100 	ldrd	r3, r1, [r4]
    1e3a:	a806      	add	r0, sp, #24
    1e3c:	4798      	blx	r3
    1e3e:	b00d      	add	sp, #52	; 0x34
    1e40:	bdf0      	pop	{r4, r5, r6, r7, pc}
    1e42:	f894 6030 	ldrb.w	r6, [r4, #48]	; 0x30
    1e46:	4a3d      	ldr	r2, [pc, #244]	; (1f3c <SPIM0_SPIS0_TWIM0_TWIS0_SPI0_TWI0_IRQHandler+0x1fc>)
    1e48:	f8d2 34c4 	ldr.w	r3, [r2, #1220]	; 0x4c4
    1e4c:	f8c2 34c4 	str.w	r3, [r2, #1220]	; 0x4c4
    1e50:	0799      	lsls	r1, r3, #30
    1e52:	d40a      	bmi.n	1e6a <SPIM0_SPIS0_TWIM0_TWIS0_SPI0_TWI0_IRQHandler+0x12a>
    1e54:	075a      	lsls	r2, r3, #29
    1e56:	d54b      	bpl.n	1ef0 <SPIM0_SPIS0_TWIM0_TWIS0_SPI0_TWI0_IRQHandler+0x1b0>
    1e58:	2302      	movs	r3, #2
    1e5a:	f88d 3018 	strb.w	r3, [sp, #24]
    1e5e:	2e00      	cmp	r6, #0
    1e60:	d1e5      	bne.n	1e2e <SPIM0_SPIS0_TWIM0_TWIS0_SPI0_TWI0_IRQHandler+0xee>
    1e62:	2300      	movs	r3, #0
    1e64:	f884 302f 	strb.w	r3, [r4, #47]	; 0x2f
    1e68:	e7e1      	b.n	1e2e <SPIM0_SPIS0_TWIM0_TWIS0_SPI0_TWI0_IRQHandler+0xee>
    1e6a:	2301      	movs	r3, #1
    1e6c:	e7f5      	b.n	1e5a <SPIM0_SPIS0_TWIM0_TWIS0_SPI0_TWI0_IRQHandler+0x11a>
    1e6e:	4c34      	ldr	r4, [pc, #208]	; (1f40 <SPIM0_SPIS0_TWIM0_TWIS0_SPI0_TWI0_IRQHandler+0x200>)
    1e70:	2202      	movs	r2, #2
    1e72:	68a1      	ldr	r1, [r4, #8]
    1e74:	f8c3 1308 	str.w	r1, [r3, #776]	; 0x308
    1e78:	60a2      	str	r2, [r4, #8]
    1e7a:	68a2      	ldr	r2, [r4, #8]
    1e7c:	f8c3 2304 	str.w	r2, [r3, #772]	; 0x304
    1e80:	f8d3 2160 	ldr.w	r2, [r3, #352]	; 0x160
    1e84:	b11a      	cbz	r2, 1e8e <SPIM0_SPIS0_TWIM0_TWIS0_SPI0_TWI0_IRQHandler+0x14e>
    1e86:	f8d3 3200 	ldr.w	r3, [r3, #512]	; 0x200
    1e8a:	059b      	lsls	r3, r3, #22
    1e8c:	d403      	bmi.n	1e96 <SPIM0_SPIS0_TWIM0_TWIS0_SPI0_TWI0_IRQHandler+0x156>
    1e8e:	4b2b      	ldr	r3, [pc, #172]	; (1f3c <SPIM0_SPIS0_TWIM0_TWIS0_SPI0_TWI0_IRQHandler+0x1fc>)
    1e90:	2201      	movs	r2, #1
    1e92:	621a      	str	r2, [r3, #32]
    1e94:	615a      	str	r2, [r3, #20]
    1e96:	2301      	movs	r3, #1
    1e98:	f884 302e 	strb.w	r3, [r4, #46]	; 0x2e
    1e9c:	b00d      	add	sp, #52	; 0x34
    1e9e:	bdf0      	pop	{r4, r5, r6, r7, pc}
    1ea0:	4b2a      	ldr	r3, [pc, #168]	; (1f4c <SPIM0_SPIS0_TWIM0_TWIS0_SPI0_TWI0_IRQHandler+0x20c>)
    1ea2:	4a29      	ldr	r2, [pc, #164]	; (1f48 <SPIM0_SPIS0_TWIM0_TWIS0_SPI0_TWI0_IRQHandler+0x208>)
    1ea4:	f8c5 6200 	str.w	r6, [r5, #512]	; 0x200
    1ea8:	60a6      	str	r6, [r4, #8]
    1eaa:	f8c5 2308 	str.w	r2, [r5, #776]	; 0x308
    1eae:	2208      	movs	r2, #8
    1eb0:	f8c3 2180 	str.w	r2, [r3, #384]	; 0x180
    1eb4:	f8d5 34c4 	ldr.w	r3, [r5, #1220]	; 0x4c4
    1eb8:	6a22      	ldr	r2, [r4, #32]
    1eba:	f8c5 34c4 	str.w	r3, [r5, #1220]	; 0x4c4
    1ebe:	0798      	lsls	r0, r3, #30
    1ec0:	f002 0504 	and.w	r5, r2, #4
    1ec4:	d52f      	bpl.n	1f26 <SPIM0_SPIS0_TWIM0_TWIS0_SPI0_TWI0_IRQHandler+0x1e6>
    1ec6:	2301      	movs	r3, #1
    1ec8:	f88d 3018 	strb.w	r3, [sp, #24]
    1ecc:	e7c9      	b.n	1e62 <SPIM0_SPIS0_TWIM0_TWIS0_SPI0_TWI0_IRQHandler+0x122>
    1ece:	f894 302e 	ldrb.w	r3, [r4, #46]	; 0x2e
    1ed2:	2b00      	cmp	r3, #0
    1ed4:	d0a1      	beq.n	1e1a <SPIM0_SPIS0_TWIM0_TWIS0_SPI0_TWI0_IRQHandler+0xda>
    1ed6:	e776      	b.n	1dc6 <SPIM0_SPIS0_TWIM0_TWIS0_SPI0_TWI0_IRQHandler+0x86>
    1ed8:	4621      	mov	r1, r4
    1eda:	4628      	mov	r0, r5
    1edc:	f7ff fd82 	bl	19e4 <xfer_completeness_check>
    1ee0:	f080 0001 	eor.w	r0, r0, #1
    1ee4:	f884 002e 	strb.w	r0, [r4, #46]	; 0x2e
    1ee8:	e751      	b.n	1d8e <SPIM0_SPIS0_TWIM0_TWIS0_SPI0_TWI0_IRQHandler+0x4e>
    1eea:	075a      	lsls	r2, r3, #29
    1eec:	d421      	bmi.n	1f32 <SPIM0_SPIS0_TWIM0_TWIS0_SPI0_TWI0_IRQHandler+0x1f2>
    1eee:	2601      	movs	r6, #1
    1ef0:	07df      	lsls	r7, r3, #31
    1ef2:	d416      	bmi.n	1f22 <SPIM0_SPIS0_TWIM0_TWIS0_SPI0_TWI0_IRQHandler+0x1e2>
    1ef4:	f894 302e 	ldrb.w	r3, [r4, #46]	; 0x2e
    1ef8:	009b      	lsls	r3, r3, #2
    1efa:	b2db      	uxtb	r3, r3
    1efc:	e7ad      	b.n	1e5a <SPIM0_SPIS0_TWIM0_TWIS0_SPI0_TWI0_IRQHandler+0x11a>
    1efe:	4b12      	ldr	r3, [pc, #72]	; (1f48 <SPIM0_SPIS0_TWIM0_TWIS0_SPI0_TWI0_IRQHandler+0x208>)
    1f00:	f44f 7100 	mov.w	r1, #512	; 0x200
    1f04:	f240 2202 	movw	r2, #514	; 0x202
    1f08:	f8c5 1200 	str.w	r1, [r5, #512]	; 0x200
    1f0c:	60a2      	str	r2, [r4, #8]
    1f0e:	f8c5 3308 	str.w	r3, [r5, #776]	; 0x308
    1f12:	68a2      	ldr	r2, [r4, #8]
    1f14:	f8c5 2304 	str.w	r2, [r5, #772]	; 0x304
    1f18:	2301      	movs	r3, #1
    1f1a:	60ab      	str	r3, [r5, #8]
    1f1c:	622b      	str	r3, [r5, #32]
    1f1e:	b00d      	add	sp, #52	; 0x34
    1f20:	bdf0      	pop	{r4, r5, r6, r7, pc}
    1f22:	2303      	movs	r3, #3
    1f24:	e799      	b.n	1e5a <SPIM0_SPIS0_TWIM0_TWIS0_SPI0_TWI0_IRQHandler+0x11a>
    1f26:	0759      	lsls	r1, r3, #29
    1f28:	d5e2      	bpl.n	1ef0 <SPIM0_SPIS0_TWIM0_TWIS0_SPI0_TWI0_IRQHandler+0x1b0>
    1f2a:	2302      	movs	r3, #2
    1f2c:	f88d 3018 	strb.w	r3, [sp, #24]
    1f30:	e797      	b.n	1e62 <SPIM0_SPIS0_TWIM0_TWIS0_SPI0_TWI0_IRQHandler+0x122>
    1f32:	2302      	movs	r3, #2
    1f34:	f88d 3018 	strb.w	r3, [sp, #24]
    1f38:	e779      	b.n	1e2e <SPIM0_SPIS0_TWIM0_TWIS0_SPI0_TWI0_IRQHandler+0xee>
    1f3a:	bf00      	nop
    1f3c:	40003000 	.word	0x40003000
    1f40:	20000640 	.word	0x20000640
    1f44:	2000064c 	.word	0x2000064c
    1f48:	019c0202 	.word	0x019c0202
    1f4c:	e000e100 	.word	0xe000e100

00001f50 <nrfx_twim_init>:
    1f50:	e92d 4ff8 	stmdb	sp!, {r3, r4, r5, r6, r7, r8, r9, sl, fp, lr}
    1f54:	f890 a004 	ldrb.w	sl, [r0, #4]
    1f58:	f8df 80e8 	ldr.w	r8, [pc, #232]	; 2044 <Heap_Size+0x44>
    1f5c:	2734      	movs	r7, #52	; 0x34
    1f5e:	fb07 f70a 	mul.w	r7, r7, sl
    1f62:	eb08 0607 	add.w	r6, r8, r7
    1f66:	469b      	mov	fp, r3
    1f68:	f896 302d 	ldrb.w	r3, [r6, #45]	; 0x2d
    1f6c:	2b00      	cmp	r3, #0
    1f6e:	d156      	bne.n	201e <Heap_Size+0x1e>
    1f70:	4605      	mov	r5, r0
    1f72:	460c      	mov	r4, r1
    1f74:	6800      	ldr	r0, [r0, #0]
    1f76:	4930      	ldr	r1, [pc, #192]	; (2038 <Heap_Size+0x38>)
    1f78:	4691      	mov	r9, r2
    1f7a:	f7ff fd09 	bl	1990 <nrfx_prs_acquire>
    1f7e:	2800      	cmp	r0, #0
    1f80:	d157      	bne.n	2032 <Heap_Size+0x32>
    1f82:	f848 9007 	str.w	r9, [r8, r7]
    1f86:	60b0      	str	r0, [r6, #8]
    1f88:	f8c6 b004 	str.w	fp, [r6, #4]
    1f8c:	f886 002f 	strb.w	r0, [r6, #47]	; 0x2f
    1f90:	f886 0030 	strb.w	r0, [r6, #48]	; 0x30
    1f94:	7b63      	ldrb	r3, [r4, #13]
    1f96:	f886 3032 	strb.w	r3, [r6, #50]	; 0x32
    1f9a:	6823      	ldr	r3, [r4, #0]
    1f9c:	f04f 42a0 	mov.w	r2, #1342177280	; 0x50000000
    1fa0:	f503 73e0 	add.w	r3, r3, #448	; 0x1c0
    1fa4:	f240 610c 	movw	r1, #1548	; 0x60c
    1fa8:	f842 1023 	str.w	r1, [r2, r3, lsl #2]
    1fac:	6863      	ldr	r3, [r4, #4]
    1fae:	f503 73e0 	add.w	r3, r3, #448	; 0x1c0
    1fb2:	f842 1023 	str.w	r1, [r2, r3, lsl #2]
    1fb6:	e9d4 2100 	ldrd	r2, r1, [r4]
    1fba:	682b      	ldr	r3, [r5, #0]
    1fbc:	f8c3 2508 	str.w	r2, [r3, #1288]	; 0x508
    1fc0:	f8c3 150c 	str.w	r1, [r3, #1292]	; 0x50c
    1fc4:	68a2      	ldr	r2, [r4, #8]
    1fc6:	f8c3 2524 	str.w	r2, [r3, #1316]	; 0x524
    1fca:	f1b9 0f00 	cmp.w	r9, #0
    1fce:	d01e      	beq.n	200e <Heap_Size+0xe>
    1fd0:	682a      	ldr	r2, [r5, #0]
    1fd2:	7b23      	ldrb	r3, [r4, #12]
    1fd4:	f342 3107 	sbfx	r1, r2, #12, #8
    1fd8:	2900      	cmp	r1, #0
    1fda:	ea4f 3212 	mov.w	r2, r2, lsr #12
    1fde:	db21      	blt.n	2024 <Heap_Size+0x24>
    1fe0:	f101 4160 	add.w	r1, r1, #3758096384	; 0xe0000000
    1fe4:	015b      	lsls	r3, r3, #5
    1fe6:	f501 4161 	add.w	r1, r1, #57600	; 0xe100
    1fea:	b2db      	uxtb	r3, r3
    1fec:	f881 3300 	strb.w	r3, [r1, #768]	; 0x300
    1ff0:	682b      	ldr	r3, [r5, #0]
    1ff2:	0b1a      	lsrs	r2, r3, #12
    1ff4:	f343 3307 	sbfx	r3, r3, #12, #8
    1ff8:	2b00      	cmp	r3, #0
    1ffa:	db08      	blt.n	200e <Heap_Size+0xe>
    1ffc:	4c0f      	ldr	r4, [pc, #60]	; (203c <Heap_Size+0x3c>)
    1ffe:	095b      	lsrs	r3, r3, #5
    2000:	2101      	movs	r1, #1
    2002:	f002 021f 	and.w	r2, r2, #31
    2006:	fa01 f202 	lsl.w	r2, r1, r2
    200a:	f844 2023 	str.w	r2, [r4, r3, lsl #2]
    200e:	2334      	movs	r3, #52	; 0x34
    2010:	fb03 880a 	mla	r8, r3, sl, r8
    2014:	2301      	movs	r3, #1
    2016:	f888 302d 	strb.w	r3, [r8, #45]	; 0x2d
    201a:	e8bd 8ff8 	ldmia.w	sp!, {r3, r4, r5, r6, r7, r8, r9, sl, fp, pc}
    201e:	2008      	movs	r0, #8
    2020:	e8bd 8ff8 	ldmia.w	sp!, {r3, r4, r5, r6, r7, r8, r9, sl, fp, pc}
    2024:	4906      	ldr	r1, [pc, #24]	; (2040 <Heap_Size+0x40>)
    2026:	f002 020f 	and.w	r2, r2, #15
    202a:	015b      	lsls	r3, r3, #5
    202c:	b2db      	uxtb	r3, r3
    202e:	548b      	strb	r3, [r1, r2]
    2030:	e7de      	b.n	1ff0 <nrfx_twim_init+0xa0>
    2032:	2011      	movs	r0, #17
    2034:	e8bd 8ff8 	ldmia.w	sp!, {r3, r4, r5, r6, r7, r8, r9, sl, fp, pc}
    2038:	00001d41 	.word	0x00001d41
    203c:	e000e100 	.word	0xe000e100
    2040:	e000ed14 	.word	0xe000ed14
    2044:	20000640 	.word	0x20000640

00002048 <nrfx_twim_enable>:
    2048:	7902      	ldrb	r2, [r0, #4]
    204a:	4b06      	ldr	r3, [pc, #24]	; (2064 <nrfx_twim_enable+0x1c>)
    204c:	6801      	ldr	r1, [r0, #0]
    204e:	f04f 0c34 	mov.w	ip, #52	; 0x34
    2052:	fb0c 3302 	mla	r3, ip, r2, r3
    2056:	2006      	movs	r0, #6
    2058:	2202      	movs	r2, #2
    205a:	f8c1 0500 	str.w	r0, [r1, #1280]	; 0x500
    205e:	f883 202d 	strb.w	r2, [r3, #45]	; 0x2d
    2062:	4770      	bx	lr
    2064:	20000640 	.word	0x20000640

00002068 <nrfx_twim_tx>:
    2068:	b510      	push	{r4, lr}
    206a:	b086      	sub	sp, #24
    206c:	4c0d      	ldr	r4, [pc, #52]	; (20a4 <nrfx_twim_tx+0x3c>)
    206e:	9204      	str	r2, [sp, #16]
    2070:	7902      	ldrb	r2, [r0, #4]
    2072:	f88d 1005 	strb.w	r1, [sp, #5]
    2076:	4619      	mov	r1, r3
    2078:	f89d c020 	ldrb.w	ip, [sp, #32]
    207c:	9102      	str	r1, [sp, #8]
    207e:	6801      	ldr	r1, [r0, #0]
    2080:	eb02 0042 	add.w	r0, r2, r2, lsl #1
    2084:	eb02 0080 	add.w	r0, r2, r0, lsl #2
    2088:	ea4f 134c 	mov.w	r3, ip, lsl #5
    208c:	aa01      	add	r2, sp, #4
    208e:	eb04 0080 	add.w	r0, r4, r0, lsl #2
    2092:	2400      	movs	r4, #0
    2094:	f88d 4004 	strb.w	r4, [sp, #4]
    2098:	9403      	str	r4, [sp, #12]
    209a:	9405      	str	r4, [sp, #20]
    209c:	f7ff fcda 	bl	1a54 <twim_xfer>
    20a0:	b006      	add	sp, #24
    20a2:	bd10      	pop	{r4, pc}
    20a4:	20000640 	.word	0x20000640

000020a8 <nrfx_twim_rx>:
    20a8:	e92d 43f0 	stmdb	sp!, {r4, r5, r6, r7, r8, r9, lr}
    20ac:	7905      	ldrb	r5, [r0, #4]
    20ae:	4f71      	ldr	r7, [pc, #452]	; (2274 <nrfx_twim_rx+0x1cc>)
    20b0:	6804      	ldr	r4, [r0, #0]
    20b2:	f04f 0e34 	mov.w	lr, #52	; 0x34
    20b6:	fb0e fe05 	mul.w	lr, lr, r5
    20ba:	eb07 0c0e 	add.w	ip, r7, lr
    20be:	2000      	movs	r0, #0
    20c0:	f88c 002e 	strb.w	r0, [ip, #46]	; 0x2e
    20c4:	f002 4060 	and.w	r0, r2, #3758096384	; 0xe0000000
    20c8:	f1b0 5f00 	cmp.w	r0, #536870912	; 0x20000000
    20cc:	b089      	sub	sp, #36	; 0x24
    20ce:	f040 80ba 	bne.w	2246 <nrfx_twim_rx+0x19e>
    20d2:	4869      	ldr	r0, [pc, #420]	; (2278 <nrfx_twim_rx+0x1d0>)
    20d4:	f8c4 0308 	str.w	r0, [r4, #776]	; 0x308
    20d8:	f89c 602f 	ldrb.w	r6, [ip, #47]	; 0x2f
    20dc:	f006 00ff 	and.w	r0, r6, #255	; 0xff
    20e0:	2e00      	cmp	r6, #0
    20e2:	f040 80b4 	bne.w	224e <nrfx_twim_rx+0x1a6>
    20e6:	eb05 0645 	add.w	r6, r5, r5, lsl #1
    20ea:	eb05 0686 	add.w	r6, r5, r6, lsl #2
    20ee:	eb07 0986 	add.w	r9, r7, r6, lsl #2
    20f2:	ea4f 0886 	mov.w	r8, r6, lsl #2
    20f6:	2601      	movs	r6, #1
    20f8:	f88c 602f 	strb.w	r6, [ip, #47]	; 0x2f
    20fc:	f889 600c 	strb.w	r6, [r9, #12]
    2100:	f8c4 1588 	str.w	r1, [r4, #1416]	; 0x588
    2104:	f8c4 0104 	str.w	r0, [r4, #260]	; 0x104
    2108:	f88c 100d 	strb.w	r1, [ip, #13]
    210c:	f8d4 1104 	ldr.w	r1, [r4, #260]	; 0x104
    2110:	9101      	str	r1, [sp, #4]
    2112:	9901      	ldr	r1, [sp, #4]
    2114:	f8c4 0124 	str.w	r0, [r4, #292]	; 0x124
    2118:	f8d4 1124 	ldr.w	r1, [r4, #292]	; 0x124
    211c:	9102      	str	r1, [sp, #8]
    211e:	9902      	ldr	r1, [sp, #8]
    2120:	f8c4 0160 	str.w	r0, [r4, #352]	; 0x160
    2124:	f8d4 1160 	ldr.w	r1, [r4, #352]	; 0x160
    2128:	9103      	str	r1, [sp, #12]
    212a:	9903      	ldr	r1, [sp, #12]
    212c:	f8c4 0148 	str.w	r0, [r4, #328]	; 0x148
    2130:	f8d4 1148 	ldr.w	r1, [r4, #328]	; 0x148
    2134:	9104      	str	r1, [sp, #16]
    2136:	9904      	ldr	r1, [sp, #16]
    2138:	f8c4 0550 	str.w	r0, [r4, #1360]	; 0x550
    213c:	e9cc 3004 	strd	r3, r0, [ip, #16]
    2140:	f8c4 0540 	str.w	r0, [r4, #1344]	; 0x540
    2144:	f8c4 2534 	str.w	r2, [r4, #1332]	; 0x534
    2148:	f8c4 3538 	str.w	r3, [r4, #1336]	; 0x538
    214c:	f44f 5380 	mov.w	r3, #4096	; 0x1000
    2150:	f8c4 3200 	str.w	r3, [r4, #512]	; 0x200
    2154:	2302      	movs	r3, #2
    2156:	e9cc 2006 	strd	r2, r0, [ip, #24]
    215a:	f88c 0030 	strb.w	r0, [ip, #48]	; 0x30
    215e:	f8cc 0020 	str.w	r0, [ip, #32]
    2162:	f8cc 3008 	str.w	r3, [ip, #8]
    2166:	6226      	str	r6, [r4, #32]
    2168:	6026      	str	r6, [r4, #0]
    216a:	f857 200e 	ldr.w	r2, [r7, lr]
    216e:	b362      	cbz	r2, 21ca <nrfx_twim_rx+0x122>
    2170:	f8dc 3008 	ldr.w	r3, [ip, #8]
    2174:	f043 0302 	orr.w	r3, r3, #2
    2178:	f8cc 3008 	str.w	r3, [ip, #8]
    217c:	f8dc 3008 	ldr.w	r3, [ip, #8]
    2180:	f443 7300 	orr.w	r3, r3, #512	; 0x200
    2184:	f8cc 3008 	str.w	r3, [ip, #8]
    2188:	f8dc 3008 	ldr.w	r3, [ip, #8]
    218c:	f8c4 3304 	str.w	r3, [r4, #772]	; 0x304
    2190:	b009      	add	sp, #36	; 0x24
    2192:	e8bd 83f0 	ldmia.w	sp!, {r4, r5, r6, r7, r8, r9, pc}
    2196:	f8d4 3104 	ldr.w	r3, [r4, #260]	; 0x104
    219a:	b12b      	cbz	r3, 21a8 <nrfx_twim_rx+0x100>
    219c:	f8c4 2104 	str.w	r2, [r4, #260]	; 0x104
    21a0:	f8d4 3104 	ldr.w	r3, [r4, #260]	; 0x104
    21a4:	9305      	str	r3, [sp, #20]
    21a6:	9b05      	ldr	r3, [sp, #20]
    21a8:	f8d4 3124 	ldr.w	r3, [r4, #292]	; 0x124
    21ac:	b30b      	cbz	r3, 21f2 <nrfx_twim_rx+0x14a>
    21ae:	2301      	movs	r3, #1
    21b0:	f8c4 2124 	str.w	r2, [r4, #292]	; 0x124
    21b4:	f8d4 1124 	ldr.w	r1, [r4, #292]	; 0x124
    21b8:	9107      	str	r1, [sp, #28]
    21ba:	9907      	ldr	r1, [sp, #28]
    21bc:	f8d4 0160 	ldr.w	r0, [r4, #352]	; 0x160
    21c0:	f8d4 1200 	ldr.w	r1, [r4, #512]	; 0x200
    21c4:	b970      	cbnz	r0, 21e4 <nrfx_twim_rx+0x13c>
    21c6:	6226      	str	r6, [r4, #32]
    21c8:	6166      	str	r6, [r4, #20]
    21ca:	f8d4 3148 	ldr.w	r3, [r4, #328]	; 0x148
    21ce:	2b00      	cmp	r3, #0
    21d0:	d1e1      	bne.n	2196 <nrfx_twim_rx+0xee>
    21d2:	f8d4 3104 	ldr.w	r3, [r4, #260]	; 0x104
    21d6:	2b00      	cmp	r3, #0
    21d8:	d1e0      	bne.n	219c <nrfx_twim_rx+0xf4>
    21da:	f8d4 1124 	ldr.w	r1, [r4, #292]	; 0x124
    21de:	2900      	cmp	r1, #0
    21e0:	d1e6      	bne.n	21b0 <nrfx_twim_rx+0x108>
    21e2:	e7f2      	b.n	21ca <nrfx_twim_rx+0x122>
    21e4:	f411 7f00 	tst.w	r1, #512	; 0x200
    21e8:	d022      	beq.n	2230 <nrfx_twim_rx+0x188>
    21ea:	05c9      	lsls	r1, r1, #23
    21ec:	d424      	bmi.n	2238 <nrfx_twim_rx+0x190>
    21ee:	2b00      	cmp	r3, #0
    21f0:	d0eb      	beq.n	21ca <nrfx_twim_rx+0x122>
    21f2:	2334      	movs	r3, #52	; 0x34
    21f4:	f8d4 24c4 	ldr.w	r2, [r4, #1220]	; 0x4c4
    21f8:	f8c4 24c4 	str.w	r2, [r4, #1220]	; 0x4c4
    21fc:	fb03 7305 	mla	r3, r3, r5, r7
    2200:	2100      	movs	r1, #0
    2202:	f883 102f 	strb.w	r1, [r3, #47]	; 0x2f
    2206:	b352      	cbz	r2, 225e <nrfx_twim_rx+0x1b6>
    2208:	f012 0f01 	tst.w	r2, #1
    220c:	bf18      	it	ne
    220e:	f44f 4002 	movne.w	r0, #33280	; 0x8200
    2212:	f248 2301 	movw	r3, #33281	; 0x8201
    2216:	bf08      	it	eq
    2218:	2003      	moveq	r0, #3
    221a:	f012 0f02 	tst.w	r2, #2
    221e:	bf18      	it	ne
    2220:	4618      	movne	r0, r3
    2222:	f248 2302 	movw	r3, #33282	; 0x8202
    2226:	f012 0f04 	tst.w	r2, #4
    222a:	bf18      	it	ne
    222c:	4618      	movne	r0, r3
    222e:	e7af      	b.n	2190 <nrfx_twim_rx+0xe8>
    2230:	05cb      	lsls	r3, r1, #23
    2232:	6226      	str	r6, [r4, #32]
    2234:	6166      	str	r6, [r4, #20]
    2236:	d5c8      	bpl.n	21ca <nrfx_twim_rx+0x122>
    2238:	f8c4 2148 	str.w	r2, [r4, #328]	; 0x148
    223c:	f8d4 3148 	ldr.w	r3, [r4, #328]	; 0x148
    2240:	9306      	str	r3, [sp, #24]
    2242:	9b06      	ldr	r3, [sp, #24]
    2244:	e7c1      	b.n	21ca <nrfx_twim_rx+0x122>
    2246:	2010      	movs	r0, #16
    2248:	b009      	add	sp, #36	; 0x24
    224a:	e8bd 83f0 	ldmia.w	sp!, {r4, r5, r6, r7, r8, r9, pc}
    224e:	f8dc 3008 	ldr.w	r3, [ip, #8]
    2252:	f8c4 3304 	str.w	r3, [r4, #772]	; 0x304
    2256:	2011      	movs	r0, #17
    2258:	b009      	add	sp, #36	; 0x24
    225a:	e8bd 83f0 	ldmia.w	sp!, {r4, r5, r6, r7, r8, r9, pc}
    225e:	eb07 0108 	add.w	r1, r7, r8
    2262:	4620      	mov	r0, r4
    2264:	f7ff fbbe 	bl	19e4 <xfer_completeness_check>
    2268:	2800      	cmp	r0, #0
    226a:	bf14      	ite	ne
    226c:	2000      	movne	r0, #0
    226e:	2003      	moveq	r0, #3
    2270:	e78e      	b.n	2190 <nrfx_twim_rx+0xe8>
    2272:	bf00      	nop
    2274:	20000640 	.word	0x20000640
    2278:	019c0202 	.word	0x019c0202

0000227c <nrfx_uart_0_irq_handler>:
    227c:	b510      	push	{r4, lr}
    227e:	4a6e      	ldr	r2, [pc, #440]	; (2438 <nrfx_uart_0_irq_handler+0x1bc>)
    2280:	f8d2 3304 	ldr.w	r3, [r2, #772]	; 0x304
    2284:	0599      	lsls	r1, r3, #22
    2286:	b08a      	sub	sp, #40	; 0x28
    2288:	d567      	bpl.n	235a <nrfx_uart_0_irq_handler+0xde>
    228a:	f8d2 3124 	ldr.w	r3, [r2, #292]	; 0x124
    228e:	2b00      	cmp	r3, #0
    2290:	d063      	beq.n	235a <nrfx_uart_0_irq_handler+0xde>
    2292:	2300      	movs	r3, #0
    2294:	f8c2 3124 	str.w	r3, [r2, #292]	; 0x124
    2298:	f8d2 3124 	ldr.w	r3, [r2, #292]	; 0x124
    229c:	9301      	str	r3, [sp, #4]
    229e:	f44f 7101 	mov.w	r1, #516	; 0x204
    22a2:	4b66      	ldr	r3, [pc, #408]	; (243c <nrfx_uart_0_irq_handler+0x1c0>)
    22a4:	9801      	ldr	r0, [sp, #4]
    22a6:	f8c2 1308 	str.w	r1, [r2, #776]	; 0x308
    22aa:	f893 1029 	ldrb.w	r1, [r3, #41]	; 0x29
    22ae:	b909      	cbnz	r1, 22b4 <nrfx_uart_0_irq_handler+0x38>
    22b0:	2101      	movs	r1, #1
    22b2:	6051      	str	r1, [r2, #4]
    22b4:	4a60      	ldr	r2, [pc, #384]	; (2438 <nrfx_uart_0_irq_handler+0x1bc>)
    22b6:	2102      	movs	r1, #2
    22b8:	f88d 1018 	strb.w	r1, [sp, #24]
    22bc:	f8d2 1480 	ldr.w	r1, [r2, #1152]	; 0x480
    22c0:	f8c2 1480 	str.w	r1, [r2, #1152]	; 0x480
    22c4:	68d8      	ldr	r0, [r3, #12]
    22c6:	9109      	str	r1, [sp, #36]	; 0x24
    22c8:	6999      	ldr	r1, [r3, #24]
    22ca:	685c      	ldr	r4, [r3, #4]
    22cc:	2200      	movs	r2, #0
    22ce:	e9cd 0107 	strd	r0, r1, [sp, #28]
    22d2:	e9c3 2206 	strd	r2, r2, [r3, #24]
    22d6:	6819      	ldr	r1, [r3, #0]
    22d8:	a806      	add	r0, sp, #24
    22da:	47a0      	blx	r4
    22dc:	4a56      	ldr	r2, [pc, #344]	; (2438 <nrfx_uart_0_irq_handler+0x1bc>)
    22de:	f8d2 311c 	ldr.w	r3, [r2, #284]	; 0x11c
    22e2:	b1c3      	cbz	r3, 2316 <nrfx_uart_0_irq_handler+0x9a>
    22e4:	4b55      	ldr	r3, [pc, #340]	; (243c <nrfx_uart_0_irq_handler+0x1c0>)
    22e6:	6958      	ldr	r0, [r3, #20]
    22e8:	6a19      	ldr	r1, [r3, #32]
    22ea:	4288      	cmp	r0, r1
    22ec:	d96a      	bls.n	23c4 <nrfx_uart_0_irq_handler+0x148>
    22ee:	f893 1028 	ldrb.w	r1, [r3, #40]	; 0x28
    22f2:	f001 00ff 	and.w	r0, r1, #255	; 0xff
    22f6:	2900      	cmp	r1, #0
    22f8:	d164      	bne.n	23c4 <nrfx_uart_0_irq_handler+0x148>
    22fa:	f8c2 011c 	str.w	r0, [r2, #284]	; 0x11c
    22fe:	f8d2 111c 	ldr.w	r1, [r2, #284]	; 0x11c
    2302:	9103      	str	r1, [sp, #12]
    2304:	9903      	ldr	r1, [sp, #12]
    2306:	689c      	ldr	r4, [r3, #8]
    2308:	6a18      	ldr	r0, [r3, #32]
    230a:	6a19      	ldr	r1, [r3, #32]
    230c:	5c20      	ldrb	r0, [r4, r0]
    230e:	3101      	adds	r1, #1
    2310:	6219      	str	r1, [r3, #32]
    2312:	f8c2 051c 	str.w	r0, [r2, #1308]	; 0x51c
    2316:	4a48      	ldr	r2, [pc, #288]	; (2438 <nrfx_uart_0_irq_handler+0x1bc>)
    2318:	f8d2 3144 	ldr.w	r3, [r2, #324]	; 0x144
    231c:	b1db      	cbz	r3, 2356 <nrfx_uart_0_irq_handler+0xda>
    231e:	2100      	movs	r1, #0
    2320:	4b46      	ldr	r3, [pc, #280]	; (243c <nrfx_uart_0_irq_handler+0x1c0>)
    2322:	f8c2 1144 	str.w	r1, [r2, #324]	; 0x144
    2326:	f8d2 0144 	ldr.w	r0, [r2, #324]	; 0x144
    232a:	f893 1029 	ldrb.w	r1, [r3, #41]	; 0x29
    232e:	9000      	str	r0, [sp, #0]
    2330:	9800      	ldr	r0, [sp, #0]
    2332:	b109      	cbz	r1, 2338 <nrfx_uart_0_irq_handler+0xbc>
    2334:	2101      	movs	r1, #1
    2336:	6011      	str	r1, [r2, #0]
    2338:	699a      	ldr	r2, [r3, #24]
    233a:	b162      	cbz	r2, 2356 <nrfx_uart_0_irq_handler+0xda>
    233c:	68d8      	ldr	r0, [r3, #12]
    233e:	6a5c      	ldr	r4, [r3, #36]	; 0x24
    2340:	2100      	movs	r1, #0
    2342:	2201      	movs	r2, #1
    2344:	e9cd 0407 	strd	r0, r4, [sp, #28]
    2348:	6199      	str	r1, [r3, #24]
    234a:	f88d 2018 	strb.w	r2, [sp, #24]
    234e:	a806      	add	r0, sp, #24
    2350:	e9d3 1200 	ldrd	r1, r2, [r3]
    2354:	4790      	blx	r2
    2356:	b00a      	add	sp, #40	; 0x28
    2358:	bd10      	pop	{r4, pc}
    235a:	4a37      	ldr	r2, [pc, #220]	; (2438 <nrfx_uart_0_irq_handler+0x1bc>)
    235c:	f8d2 3304 	ldr.w	r3, [r2, #772]	; 0x304
    2360:	075b      	lsls	r3, r3, #29
    2362:	d5bb      	bpl.n	22dc <nrfx_uart_0_irq_handler+0x60>
    2364:	f8d2 3108 	ldr.w	r3, [r2, #264]	; 0x108
    2368:	2b00      	cmp	r3, #0
    236a:	d0b7      	beq.n	22dc <nrfx_uart_0_irq_handler+0x60>
    236c:	4b33      	ldr	r3, [pc, #204]	; (243c <nrfx_uart_0_irq_handler+0x1c0>)
    236e:	6999      	ldr	r1, [r3, #24]
    2370:	2900      	cmp	r1, #0
    2372:	d03e      	beq.n	23f2 <nrfx_uart_0_irq_handler+0x176>
    2374:	2100      	movs	r1, #0
    2376:	f8c2 1108 	str.w	r1, [r2, #264]	; 0x108
    237a:	f8d2 1108 	ldr.w	r1, [r2, #264]	; 0x108
    237e:	9104      	str	r1, [sp, #16]
    2380:	9904      	ldr	r1, [sp, #16]
    2382:	68d8      	ldr	r0, [r3, #12]
    2384:	6a59      	ldr	r1, [r3, #36]	; 0x24
    2386:	f8d2 2518 	ldr.w	r2, [r2, #1304]	; 0x518
    238a:	5442      	strb	r2, [r0, r1]
    238c:	6a5a      	ldr	r2, [r3, #36]	; 0x24
    238e:	6999      	ldr	r1, [r3, #24]
    2390:	3201      	adds	r2, #1
    2392:	625a      	str	r2, [r3, #36]	; 0x24
    2394:	6a5a      	ldr	r2, [r3, #36]	; 0x24
    2396:	428a      	cmp	r2, r1
    2398:	d1a0      	bne.n	22dc <nrfx_uart_0_irq_handler+0x60>
    239a:	69da      	ldr	r2, [r3, #28]
    239c:	2a00      	cmp	r2, #0
    239e:	d031      	beq.n	2404 <nrfx_uart_0_irq_handler+0x188>
    23a0:	619a      	str	r2, [r3, #24]
    23a2:	691a      	ldr	r2, [r3, #16]
    23a4:	68d8      	ldr	r0, [r3, #12]
    23a6:	6a5c      	ldr	r4, [r3, #36]	; 0x24
    23a8:	60da      	str	r2, [r3, #12]
    23aa:	2100      	movs	r1, #0
    23ac:	2201      	movs	r2, #1
    23ae:	9408      	str	r4, [sp, #32]
    23b0:	61d9      	str	r1, [r3, #28]
    23b2:	6259      	str	r1, [r3, #36]	; 0x24
    23b4:	9007      	str	r0, [sp, #28]
    23b6:	685c      	ldr	r4, [r3, #4]
    23b8:	6819      	ldr	r1, [r3, #0]
    23ba:	f88d 2018 	strb.w	r2, [sp, #24]
    23be:	a806      	add	r0, sp, #24
    23c0:	47a0      	blx	r4
    23c2:	e78b      	b.n	22dc <nrfx_uart_0_irq_handler+0x60>
    23c4:	4a1c      	ldr	r2, [pc, #112]	; (2438 <nrfx_uart_0_irq_handler+0x1bc>)
    23c6:	2000      	movs	r0, #0
    23c8:	f8c2 011c 	str.w	r0, [r2, #284]	; 0x11c
    23cc:	f8d2 211c 	ldr.w	r2, [r2, #284]	; 0x11c
    23d0:	9202      	str	r2, [sp, #8]
    23d2:	9a02      	ldr	r2, [sp, #8]
    23d4:	695a      	ldr	r2, [r3, #20]
    23d6:	2a00      	cmp	r2, #0
    23d8:	d09d      	beq.n	2316 <nrfx_uart_0_irq_handler+0x9a>
    23da:	e9d3 2101 	ldrd	r2, r1, [r3, #4]
    23de:	695c      	ldr	r4, [r3, #20]
    23e0:	f88d 0018 	strb.w	r0, [sp, #24]
    23e4:	e9cd 1407 	strd	r1, r4, [sp, #28]
    23e8:	6158      	str	r0, [r3, #20]
    23ea:	6819      	ldr	r1, [r3, #0]
    23ec:	a806      	add	r0, sp, #24
    23ee:	4790      	blx	r2
    23f0:	e791      	b.n	2316 <nrfx_uart_0_irq_handler+0x9a>
    23f2:	f8c2 1108 	str.w	r1, [r2, #264]	; 0x108
    23f6:	f8d2 0108 	ldr.w	r0, [r2, #264]	; 0x108
    23fa:	9005      	str	r0, [sp, #20]
    23fc:	9805      	ldr	r0, [sp, #20]
    23fe:	f8d2 2518 	ldr.w	r2, [r2, #1304]	; 0x518
    2402:	e7c7      	b.n	2394 <nrfx_uart_0_irq_handler+0x118>
    2404:	f893 2029 	ldrb.w	r2, [r3, #41]	; 0x29
    2408:	b912      	cbnz	r2, 2410 <nrfx_uart_0_irq_handler+0x194>
    240a:	4a0b      	ldr	r2, [pc, #44]	; (2438 <nrfx_uart_0_irq_handler+0x1bc>)
    240c:	2101      	movs	r1, #1
    240e:	6051      	str	r1, [r2, #4]
    2410:	4a09      	ldr	r2, [pc, #36]	; (2438 <nrfx_uart_0_irq_handler+0x1bc>)
    2412:	f44f 7101 	mov.w	r1, #516	; 0x204
    2416:	f8c2 1308 	str.w	r1, [r2, #776]	; 0x308
    241a:	68d8      	ldr	r0, [r3, #12]
    241c:	6a5c      	ldr	r4, [r3, #36]	; 0x24
    241e:	2100      	movs	r1, #0
    2420:	2201      	movs	r2, #1
    2422:	e9cd 0407 	strd	r0, r4, [sp, #28]
    2426:	6199      	str	r1, [r3, #24]
    2428:	f88d 2018 	strb.w	r2, [sp, #24]
    242c:	a806      	add	r0, sp, #24
    242e:	e9d3 1200 	ldrd	r1, r2, [r3]
    2432:	4790      	blx	r2
    2434:	e752      	b.n	22dc <nrfx_uart_0_irq_handler+0x60>
    2436:	bf00      	nop
    2438:	40002000 	.word	0x40002000
    243c:	20000674 	.word	0x20000674

00002440 <nrfx_uart_init>:
    2440:	e92d 41f0 	stmdb	sp!, {r4, r5, r6, r7, r8, lr}
    2444:	4e60      	ldr	r6, [pc, #384]	; (25c8 <nrfx_uart_init+0x188>)
    2446:	f890 8004 	ldrb.w	r8, [r0, #4]
    244a:	232c      	movs	r3, #44	; 0x2c
    244c:	fb03 6308 	mla	r3, r3, r8, r6
    2450:	b082      	sub	sp, #8
    2452:	f893 302a 	ldrb.w	r3, [r3, #42]	; 0x2a
    2456:	2b00      	cmp	r3, #0
    2458:	f040 8088 	bne.w	256c <nrfx_uart_init+0x12c>
    245c:	4605      	mov	r5, r0
    245e:	460c      	mov	r4, r1
    2460:	6800      	ldr	r0, [r0, #0]
    2462:	495a      	ldr	r1, [pc, #360]	; (25cc <nrfx_uart_init+0x18c>)
    2464:	4617      	mov	r7, r2
    2466:	f7ff fa93 	bl	1990 <nrfx_prs_acquire>
    246a:	2800      	cmp	r0, #0
    246c:	d17a      	bne.n	2564 <nrfx_uart_init+0x124>
    246e:	6823      	ldr	r3, [r4, #0]
    2470:	1c59      	adds	r1, r3, #1
    2472:	d00c      	beq.n	248e <nrfx_uart_init+0x4e>
    2474:	f04f 41a0 	mov.w	r1, #1342177280	; 0x50000000
    2478:	2201      	movs	r2, #1
    247a:	fa02 f303 	lsl.w	r3, r2, r3
    247e:	f8c1 3508 	str.w	r3, [r1, #1288]	; 0x508
    2482:	6823      	ldr	r3, [r4, #0]
    2484:	f503 73e0 	add.w	r3, r3, #448	; 0x1c0
    2488:	2203      	movs	r2, #3
    248a:	f841 2023 	str.w	r2, [r1, r3, lsl #2]
    248e:	6863      	ldr	r3, [r4, #4]
    2490:	1c5a      	adds	r2, r3, #1
    2492:	d006      	beq.n	24a2 <nrfx_uart_init+0x62>
    2494:	f503 73e0 	add.w	r3, r3, #448	; 0x1c0
    2498:	f04f 42a0 	mov.w	r2, #1342177280	; 0x50000000
    249c:	2100      	movs	r1, #0
    249e:	f842 1023 	str.w	r1, [r2, r3, lsl #2]
    24a2:	682b      	ldr	r3, [r5, #0]
    24a4:	69a2      	ldr	r2, [r4, #24]
    24a6:	f8c3 2524 	str.w	r2, [r3, #1316]	; 0x524
    24aa:	7d22      	ldrb	r2, [r4, #20]
    24ac:	7d63      	ldrb	r3, [r4, #21]
    24ae:	4313      	orrs	r3, r2
    24b0:	682a      	ldr	r2, [r5, #0]
    24b2:	f8c2 356c 	str.w	r3, [r2, #1388]	; 0x56c
    24b6:	e9d4 1200 	ldrd	r1, r2, [r4]
    24ba:	682b      	ldr	r3, [r5, #0]
    24bc:	f8c3 2514 	str.w	r2, [r3, #1300]	; 0x514
    24c0:	f8c3 150c 	str.w	r1, [r3, #1292]	; 0x50c
    24c4:	7d23      	ldrb	r3, [r4, #20]
    24c6:	2b01      	cmp	r3, #1
    24c8:	d05b      	beq.n	2582 <nrfx_uart_init+0x142>
    24ca:	232c      	movs	r3, #44	; 0x2c
    24cc:	fb03 f308 	mul.w	r3, r3, r8
    24d0:	18f2      	adds	r2, r6, r3
    24d2:	6057      	str	r7, [r2, #4]
    24d4:	6922      	ldr	r2, [r4, #16]
    24d6:	50f2      	str	r2, [r6, r3]
    24d8:	b38f      	cbz	r7, 253e <nrfx_uart_init+0xfe>
    24da:	682a      	ldr	r2, [r5, #0]
    24dc:	7f23      	ldrb	r3, [r4, #28]
    24de:	2100      	movs	r1, #0
    24e0:	f8c2 111c 	str.w	r1, [r2, #284]	; 0x11c
    24e4:	f8d2 211c 	ldr.w	r2, [r2, #284]	; 0x11c
    24e8:	9200      	str	r2, [sp, #0]
    24ea:	9a00      	ldr	r2, [sp, #0]
    24ec:	682a      	ldr	r2, [r5, #0]
    24ee:	f8c2 1144 	str.w	r1, [r2, #324]	; 0x144
    24f2:	f8d2 2144 	ldr.w	r2, [r2, #324]	; 0x144
    24f6:	9201      	str	r2, [sp, #4]
    24f8:	9a01      	ldr	r2, [sp, #4]
    24fa:	682a      	ldr	r2, [r5, #0]
    24fc:	4934      	ldr	r1, [pc, #208]	; (25d0 <nrfx_uart_init+0x190>)
    24fe:	f8c2 1304 	str.w	r1, [r2, #772]	; 0x304
    2502:	682a      	ldr	r2, [r5, #0]
    2504:	f342 3107 	sbfx	r1, r2, #12, #8
    2508:	2900      	cmp	r1, #0
    250a:	ea4f 3212 	mov.w	r2, r2, lsr #12
    250e:	db31      	blt.n	2574 <nrfx_uart_init+0x134>
    2510:	f101 4160 	add.w	r1, r1, #3758096384	; 0xe0000000
    2514:	015b      	lsls	r3, r3, #5
    2516:	f501 4161 	add.w	r1, r1, #57600	; 0xe100
    251a:	b2db      	uxtb	r3, r3
    251c:	f881 3300 	strb.w	r3, [r1, #768]	; 0x300
    2520:	682b      	ldr	r3, [r5, #0]
    2522:	f343 3207 	sbfx	r2, r3, #12, #8
    2526:	2a00      	cmp	r2, #0
    2528:	ea4f 3113 	mov.w	r1, r3, lsr #12
    252c:	db08      	blt.n	2540 <nrfx_uart_init+0x100>
    252e:	4c29      	ldr	r4, [pc, #164]	; (25d4 <nrfx_uart_init+0x194>)
    2530:	0952      	lsrs	r2, r2, #5
    2532:	f001 011f 	and.w	r1, r1, #31
    2536:	2301      	movs	r3, #1
    2538:	408b      	lsls	r3, r1
    253a:	f844 3022 	str.w	r3, [r4, r2, lsl #2]
    253e:	682b      	ldr	r3, [r5, #0]
    2540:	2204      	movs	r2, #4
    2542:	f8c3 2500 	str.w	r2, [r3, #1280]	; 0x500
    2546:	232c      	movs	r3, #44	; 0x2c
    2548:	fb03 6608 	mla	r6, r3, r8, r6
    254c:	2201      	movs	r2, #1
    254e:	2300      	movs	r3, #0
    2550:	e9c6 3306 	strd	r3, r3, [r6, #24]
    2554:	f886 3029 	strb.w	r3, [r6, #41]	; 0x29
    2558:	6173      	str	r3, [r6, #20]
    255a:	f886 202a 	strb.w	r2, [r6, #42]	; 0x2a
    255e:	b002      	add	sp, #8
    2560:	e8bd 81f0 	ldmia.w	sp!, {r4, r5, r6, r7, r8, pc}
    2564:	2011      	movs	r0, #17
    2566:	b002      	add	sp, #8
    2568:	e8bd 81f0 	ldmia.w	sp!, {r4, r5, r6, r7, r8, pc}
    256c:	2008      	movs	r0, #8
    256e:	b002      	add	sp, #8
    2570:	e8bd 81f0 	ldmia.w	sp!, {r4, r5, r6, r7, r8, pc}
    2574:	4918      	ldr	r1, [pc, #96]	; (25d8 <nrfx_uart_init+0x198>)
    2576:	f002 020f 	and.w	r2, r2, #15
    257a:	015b      	lsls	r3, r3, #5
    257c:	b2db      	uxtb	r3, r3
    257e:	548b      	strb	r3, [r1, r2]
    2580:	e7ce      	b.n	2520 <nrfx_uart_init+0xe0>
    2582:	68a3      	ldr	r3, [r4, #8]
    2584:	1c59      	adds	r1, r3, #1
    2586:	d006      	beq.n	2596 <nrfx_uart_init+0x156>
    2588:	f503 73e0 	add.w	r3, r3, #448	; 0x1c0
    258c:	f04f 42a0 	mov.w	r2, #1342177280	; 0x50000000
    2590:	2100      	movs	r1, #0
    2592:	f842 1023 	str.w	r1, [r2, r3, lsl #2]
    2596:	68e3      	ldr	r3, [r4, #12]
    2598:	1c5a      	adds	r2, r3, #1
    259a:	d00d      	beq.n	25b8 <nrfx_uart_init+0x178>
    259c:	f04f 41a0 	mov.w	r1, #1342177280	; 0x50000000
    25a0:	2201      	movs	r2, #1
    25a2:	fa02 f303 	lsl.w	r3, r2, r3
    25a6:	f8c1 3508 	str.w	r3, [r1, #1288]	; 0x508
    25aa:	68e3      	ldr	r3, [r4, #12]
    25ac:	f503 73e0 	add.w	r3, r3, #448	; 0x1c0
    25b0:	2203      	movs	r2, #3
    25b2:	f841 2023 	str.w	r2, [r1, r3, lsl #2]
    25b6:	68e3      	ldr	r3, [r4, #12]
    25b8:	682a      	ldr	r2, [r5, #0]
    25ba:	68a1      	ldr	r1, [r4, #8]
    25bc:	f8c2 3508 	str.w	r3, [r2, #1288]	; 0x508
    25c0:	f8c2 1510 	str.w	r1, [r2, #1296]	; 0x510
    25c4:	e781      	b.n	24ca <nrfx_uart_init+0x8a>
    25c6:	bf00      	nop
    25c8:	20000674 	.word	0x20000674
    25cc:	0000227d 	.word	0x0000227d
    25d0:	00020080 	.word	0x00020080
    25d4:	e000e100 	.word	0xe000e100
    25d8:	e000ed14 	.word	0xe000ed14

000025dc <nrfx_uart_uninit>:
    25dc:	b5f8      	push	{r3, r4, r5, r6, r7, lr}
    25de:	6803      	ldr	r3, [r0, #0]
    25e0:	7906      	ldrb	r6, [r0, #4]
    25e2:	4c32      	ldr	r4, [pc, #200]	; (26ac <nrfx_uart_uninit+0xd0>)
    25e4:	2200      	movs	r2, #0
    25e6:	f8c3 2500 	str.w	r2, [r3, #1280]	; 0x500
    25ea:	232c      	movs	r3, #44	; 0x2c
    25ec:	fb03 4306 	mla	r3, r3, r6, r4
    25f0:	685b      	ldr	r3, [r3, #4]
    25f2:	b1bb      	cbz	r3, 2624 <nrfx_uart_uninit+0x48>
    25f4:	6803      	ldr	r3, [r0, #0]
    25f6:	4a2e      	ldr	r2, [pc, #184]	; (26b0 <nrfx_uart_uninit+0xd4>)
    25f8:	f8c3 2308 	str.w	r2, [r3, #776]	; 0x308
    25fc:	6803      	ldr	r3, [r0, #0]
    25fe:	f343 3207 	sbfx	r2, r3, #12, #8
    2602:	2a00      	cmp	r2, #0
    2604:	ea4f 3113 	mov.w	r1, r3, lsr #12
    2608:	db0d      	blt.n	2626 <nrfx_uart_uninit+0x4a>
    260a:	0952      	lsrs	r2, r2, #5
    260c:	4d29      	ldr	r5, [pc, #164]	; (26b4 <nrfx_uart_uninit+0xd8>)
    260e:	f001 011f 	and.w	r1, r1, #31
    2612:	3220      	adds	r2, #32
    2614:	2301      	movs	r3, #1
    2616:	408b      	lsls	r3, r1
    2618:	f845 3022 	str.w	r3, [r5, r2, lsl #2]
    261c:	f3bf 8f4f 	dsb	sy
    2620:	f3bf 8f6f 	isb	sy
    2624:	6803      	ldr	r3, [r0, #0]
    2626:	f8d3 c50c 	ldr.w	ip, [r3, #1292]	; 0x50c
    262a:	f8d3 7514 	ldr.w	r7, [r3, #1300]	; 0x514
    262e:	f8d3 1508 	ldr.w	r1, [r3, #1288]	; 0x508
    2632:	f8d3 5510 	ldr.w	r5, [r3, #1296]	; 0x510
    2636:	f04f 32ff 	mov.w	r2, #4294967295	; 0xffffffff
    263a:	f8c3 2514 	str.w	r2, [r3, #1300]	; 0x514
    263e:	f8c3 250c 	str.w	r2, [r3, #1292]	; 0x50c
    2642:	6803      	ldr	r3, [r0, #0]
    2644:	4594      	cmp	ip, r2
    2646:	f8c3 2508 	str.w	r2, [r3, #1288]	; 0x508
    264a:	f8c3 2510 	str.w	r2, [r3, #1296]	; 0x510
    264e:	d006      	beq.n	265e <nrfx_uart_uninit+0x82>
    2650:	f50c 7ce0 	add.w	ip, ip, #448	; 0x1c0
    2654:	f04f 43a0 	mov.w	r3, #1342177280	; 0x50000000
    2658:	2202      	movs	r2, #2
    265a:	f843 202c 	str.w	r2, [r3, ip, lsl #2]
    265e:	1c7b      	adds	r3, r7, #1
    2660:	d006      	beq.n	2670 <nrfx_uart_uninit+0x94>
    2662:	f507 77e0 	add.w	r7, r7, #448	; 0x1c0
    2666:	f04f 43a0 	mov.w	r3, #1342177280	; 0x50000000
    266a:	2202      	movs	r2, #2
    266c:	f843 2027 	str.w	r2, [r3, r7, lsl #2]
    2670:	1c6a      	adds	r2, r5, #1
    2672:	d006      	beq.n	2682 <nrfx_uart_uninit+0xa6>
    2674:	f505 75e0 	add.w	r5, r5, #448	; 0x1c0
    2678:	f04f 43a0 	mov.w	r3, #1342177280	; 0x50000000
    267c:	2202      	movs	r2, #2
    267e:	f843 2025 	str.w	r2, [r3, r5, lsl #2]
    2682:	1c4b      	adds	r3, r1, #1
    2684:	d006      	beq.n	2694 <nrfx_uart_uninit+0xb8>
    2686:	f04f 43a0 	mov.w	r3, #1342177280	; 0x50000000
    268a:	f501 71e0 	add.w	r1, r1, #448	; 0x1c0
    268e:	2202      	movs	r2, #2
    2690:	f843 2021 	str.w	r2, [r3, r1, lsl #2]
    2694:	6800      	ldr	r0, [r0, #0]
    2696:	f7ff f999 	bl	19cc <nrfx_prs_release>
    269a:	232c      	movs	r3, #44	; 0x2c
    269c:	fb03 4406 	mla	r4, r3, r6, r4
    26a0:	2300      	movs	r3, #0
    26a2:	f884 302a 	strb.w	r3, [r4, #42]	; 0x2a
    26a6:	6063      	str	r3, [r4, #4]
    26a8:	bdf8      	pop	{r3, r4, r5, r6, r7, pc}
    26aa:	bf00      	nop
    26ac:	20000674 	.word	0x20000674
    26b0:	00020284 	.word	0x00020284
    26b4:	e000e100 	.word	0xe000e100

000026b8 <nrfx_uart_tx>:
    26b8:	e92d 41f0 	stmdb	sp!, {r4, r5, r6, r7, r8, lr}
    26bc:	4c32      	ldr	r4, [pc, #200]	; (2788 <nrfx_uart_tx+0xd0>)
    26be:	f890 e004 	ldrb.w	lr, [r0, #4]
    26c2:	232c      	movs	r3, #44	; 0x2c
    26c4:	fb03 430e 	mla	r3, r3, lr, r4
    26c8:	4684      	mov	ip, r0
    26ca:	6958      	ldr	r0, [r3, #20]
    26cc:	b084      	sub	sp, #16
    26ce:	bb28      	cbnz	r0, 271c <nrfx_uart_tx+0x64>
    26d0:	615a      	str	r2, [r3, #20]
    26d2:	6099      	str	r1, [r3, #8]
    26d4:	6218      	str	r0, [r3, #32]
    26d6:	f883 0028 	strb.w	r0, [r3, #40]	; 0x28
    26da:	f8dc 2000 	ldr.w	r2, [ip]
    26de:	f8c2 011c 	str.w	r0, [r2, #284]	; 0x11c
    26e2:	f8d2 211c 	ldr.w	r2, [r2, #284]	; 0x11c
    26e6:	9202      	str	r2, [sp, #8]
    26e8:	9a02      	ldr	r2, [sp, #8]
    26ea:	f8dc 2000 	ldr.w	r2, [ip]
    26ee:	2101      	movs	r1, #1
    26f0:	6091      	str	r1, [r2, #8]
    26f2:	f8dc 2000 	ldr.w	r2, [ip]
    26f6:	689d      	ldr	r5, [r3, #8]
    26f8:	f8c2 011c 	str.w	r0, [r2, #284]	; 0x11c
    26fc:	f8d2 111c 	ldr.w	r1, [r2, #284]	; 0x11c
    2700:	9101      	str	r1, [sp, #4]
    2702:	9901      	ldr	r1, [sp, #4]
    2704:	6a19      	ldr	r1, [r3, #32]
    2706:	5c6e      	ldrb	r6, [r5, r1]
    2708:	6a19      	ldr	r1, [r3, #32]
    270a:	3101      	adds	r1, #1
    270c:	6219      	str	r1, [r3, #32]
    270e:	f8c2 651c 	str.w	r6, [r2, #1308]	; 0x51c
    2712:	685a      	ldr	r2, [r3, #4]
    2714:	b132      	cbz	r2, 2724 <nrfx_uart_tx+0x6c>
    2716:	b004      	add	sp, #16
    2718:	e8bd 81f0 	ldmia.w	sp!, {r4, r5, r6, r7, r8, pc}
    271c:	2011      	movs	r0, #17
    271e:	b004      	add	sp, #16
    2720:	e8bd 81f0 	ldmia.w	sp!, {r4, r5, r6, r7, r8, pc}
    2724:	695e      	ldr	r6, [r3, #20]
    2726:	6a1a      	ldr	r2, [r3, #32]
    2728:	f8dc 1000 	ldr.w	r1, [ip]
    272c:	42b2      	cmp	r2, r6
    272e:	d21b      	bcs.n	2768 <nrfx_uart_tx+0xb0>
    2730:	4607      	mov	r7, r0
    2732:	e002      	b.n	273a <nrfx_uart_tx+0x82>
    2734:	f893 2028 	ldrb.w	r2, [r3, #40]	; 0x28
    2738:	bb22      	cbnz	r2, 2784 <nrfx_uart_tx+0xcc>
    273a:	f8d1 211c 	ldr.w	r2, [r1, #284]	; 0x11c
    273e:	2a00      	cmp	r2, #0
    2740:	d0f8      	beq.n	2734 <nrfx_uart_tx+0x7c>
    2742:	f8c1 711c 	str.w	r7, [r1, #284]	; 0x11c
    2746:	f8d1 211c 	ldr.w	r2, [r1, #284]	; 0x11c
    274a:	9203      	str	r2, [sp, #12]
    274c:	9a03      	ldr	r2, [sp, #12]
    274e:	6a1a      	ldr	r2, [r3, #32]
    2750:	f815 8002 	ldrb.w	r8, [r5, r2]
    2754:	6a1a      	ldr	r2, [r3, #32]
    2756:	3201      	adds	r2, #1
    2758:	621a      	str	r2, [r3, #32]
    275a:	f8c1 851c 	str.w	r8, [r1, #1308]	; 0x51c
    275e:	6a1a      	ldr	r2, [r3, #32]
    2760:	4296      	cmp	r6, r2
    2762:	d8ea      	bhi.n	273a <nrfx_uart_tx+0x82>
    2764:	f8dc 1000 	ldr.w	r1, [ip]
    2768:	f8d1 311c 	ldr.w	r3, [r1, #284]	; 0x11c
    276c:	2b00      	cmp	r3, #0
    276e:	d0fb      	beq.n	2768 <nrfx_uart_tx+0xb0>
    2770:	2301      	movs	r3, #1
    2772:	60cb      	str	r3, [r1, #12]
    2774:	232c      	movs	r3, #44	; 0x2c
    2776:	fb03 440e 	mla	r4, r3, lr, r4
    277a:	2300      	movs	r3, #0
    277c:	6163      	str	r3, [r4, #20]
    277e:	b004      	add	sp, #16
    2780:	e8bd 81f0 	ldmia.w	sp!, {r4, r5, r6, r7, r8, pc}
    2784:	200f      	movs	r0, #15
    2786:	e7f5      	b.n	2774 <nrfx_uart_tx+0xbc>
    2788:	20000674 	.word	0x20000674

0000278c <nrfx_uarte_0_irq_handler>:
    278c:	b510      	push	{r4, lr}
    278e:	4b58      	ldr	r3, [pc, #352]	; (28f0 <nrfx_uarte_0_irq_handler+0x164>)
    2790:	f8d3 2124 	ldr.w	r2, [r3, #292]	; 0x124
    2794:	b08a      	sub	sp, #40	; 0x28
    2796:	2a00      	cmp	r2, #0
    2798:	d04b      	beq.n	2832 <nrfx_uarte_0_irq_handler+0xa6>
    279a:	2000      	movs	r0, #0
    279c:	f8c3 0124 	str.w	r0, [r3, #292]	; 0x124
    27a0:	f8d3 1124 	ldr.w	r1, [r3, #292]	; 0x124
    27a4:	9104      	str	r1, [sp, #16]
    27a6:	2202      	movs	r2, #2
    27a8:	f88d 2018 	strb.w	r2, [sp, #24]
    27ac:	9904      	ldr	r1, [sp, #16]
    27ae:	4a51      	ldr	r2, [pc, #324]	; (28f4 <nrfx_uarte_0_irq_handler+0x168>)
    27b0:	f8d3 1480 	ldr.w	r1, [r3, #1152]	; 0x480
    27b4:	f8c3 1480 	str.w	r1, [r3, #1152]	; 0x480
    27b8:	9109      	str	r1, [sp, #36]	; 0x24
    27ba:	f8d3 453c 	ldr.w	r4, [r3, #1340]	; 0x53c
    27be:	68d1      	ldr	r1, [r2, #12]
    27c0:	6853      	ldr	r3, [r2, #4]
    27c2:	e9cd 1407 	strd	r1, r4, [sp, #28]
    27c6:	e9c2 0006 	strd	r0, r0, [r2, #24]
    27ca:	6811      	ldr	r1, [r2, #0]
    27cc:	a806      	add	r0, sp, #24
    27ce:	4798      	blx	r3
    27d0:	4b47      	ldr	r3, [pc, #284]	; (28f0 <nrfx_uarte_0_irq_handler+0x164>)
    27d2:	f8d3 2144 	ldr.w	r2, [r3, #324]	; 0x144
    27d6:	b152      	cbz	r2, 27ee <nrfx_uarte_0_irq_handler+0x62>
    27d8:	4a46      	ldr	r2, [pc, #280]	; (28f4 <nrfx_uarte_0_irq_handler+0x168>)
    27da:	2100      	movs	r1, #0
    27dc:	f8c3 1144 	str.w	r1, [r3, #324]	; 0x144
    27e0:	f8d3 4144 	ldr.w	r4, [r3, #324]	; 0x144
    27e4:	6990      	ldr	r0, [r2, #24]
    27e6:	9403      	str	r4, [sp, #12]
    27e8:	9c03      	ldr	r4, [sp, #12]
    27ea:	2800      	cmp	r0, #0
    27ec:	d149      	bne.n	2882 <nrfx_uarte_0_irq_handler+0xf6>
    27ee:	4b40      	ldr	r3, [pc, #256]	; (28f0 <nrfx_uarte_0_irq_handler+0x164>)
    27f0:	f8d3 2120 	ldr.w	r2, [r3, #288]	; 0x120
    27f4:	b162      	cbz	r2, 2810 <nrfx_uarte_0_irq_handler+0x84>
    27f6:	2000      	movs	r0, #0
    27f8:	f8c3 0120 	str.w	r0, [r3, #288]	; 0x120
    27fc:	f8d3 2120 	ldr.w	r2, [r3, #288]	; 0x120
    2800:	9202      	str	r2, [sp, #8]
    2802:	2101      	movs	r1, #1
    2804:	4a3b      	ldr	r2, [pc, #236]	; (28f4 <nrfx_uarte_0_irq_handler+0x168>)
    2806:	9c02      	ldr	r4, [sp, #8]
    2808:	60d9      	str	r1, [r3, #12]
    280a:	6951      	ldr	r1, [r2, #20]
    280c:	2900      	cmp	r1, #0
    280e:	d155      	bne.n	28bc <nrfx_uarte_0_irq_handler+0x130>
    2810:	4b37      	ldr	r3, [pc, #220]	; (28f0 <nrfx_uarte_0_irq_handler+0x164>)
    2812:	f8d3 2158 	ldr.w	r2, [r3, #344]	; 0x158
    2816:	b152      	cbz	r2, 282e <nrfx_uarte_0_irq_handler+0xa2>
    2818:	2000      	movs	r0, #0
    281a:	f8c3 0158 	str.w	r0, [r3, #344]	; 0x158
    281e:	f8d3 1158 	ldr.w	r1, [r3, #344]	; 0x158
    2822:	4a34      	ldr	r2, [pc, #208]	; (28f4 <nrfx_uarte_0_irq_handler+0x168>)
    2824:	9101      	str	r1, [sp, #4]
    2826:	9901      	ldr	r1, [sp, #4]
    2828:	6951      	ldr	r1, [r2, #20]
    282a:	2900      	cmp	r1, #0
    282c:	d138      	bne.n	28a0 <nrfx_uarte_0_irq_handler+0x114>
    282e:	b00a      	add	sp, #40	; 0x28
    2830:	bd10      	pop	{r4, pc}
    2832:	f8d3 1110 	ldr.w	r1, [r3, #272]	; 0x110
    2836:	2900      	cmp	r1, #0
    2838:	d0ca      	beq.n	27d0 <nrfx_uarte_0_irq_handler+0x44>
    283a:	f8c3 2110 	str.w	r2, [r3, #272]	; 0x110
    283e:	f8d3 1110 	ldr.w	r1, [r3, #272]	; 0x110
    2842:	4c2c      	ldr	r4, [pc, #176]	; (28f4 <nrfx_uarte_0_irq_handler+0x168>)
    2844:	9105      	str	r1, [sp, #20]
    2846:	9905      	ldr	r1, [sp, #20]
    2848:	69a1      	ldr	r1, [r4, #24]
    284a:	f8d3 053c 	ldr.w	r0, [r3, #1340]	; 0x53c
    284e:	4288      	cmp	r0, r1
    2850:	d1be      	bne.n	27d0 <nrfx_uarte_0_irq_handler+0x44>
    2852:	69e1      	ldr	r1, [r4, #28]
    2854:	2900      	cmp	r1, #0
    2856:	d03e      	beq.n	28d6 <nrfx_uarte_0_irq_handler+0x14a>
    2858:	e9c4 1206 	strd	r1, r2, [r4, #24]
    285c:	f8d3 2200 	ldr.w	r2, [r3, #512]	; 0x200
    2860:	f022 0220 	bic.w	r2, r2, #32
    2864:	f8c3 2200 	str.w	r2, [r3, #512]	; 0x200
    2868:	68e2      	ldr	r2, [r4, #12]
    286a:	9207      	str	r2, [sp, #28]
    286c:	2101      	movs	r1, #1
    286e:	6922      	ldr	r2, [r4, #16]
    2870:	f88d 1018 	strb.w	r1, [sp, #24]
    2874:	9008      	str	r0, [sp, #32]
    2876:	6863      	ldr	r3, [r4, #4]
    2878:	6821      	ldr	r1, [r4, #0]
    287a:	60e2      	str	r2, [r4, #12]
    287c:	a806      	add	r0, sp, #24
    287e:	4798      	blx	r3
    2880:	e7a6      	b.n	27d0 <nrfx_uarte_0_irq_handler+0x44>
    2882:	f8d3 453c 	ldr.w	r4, [r3, #1340]	; 0x53c
    2886:	68d0      	ldr	r0, [r2, #12]
    2888:	2301      	movs	r3, #1
    288a:	e9c2 1106 	strd	r1, r1, [r2, #24]
    288e:	e9cd 0407 	strd	r0, r4, [sp, #28]
    2892:	f88d 3018 	strb.w	r3, [sp, #24]
    2896:	a806      	add	r0, sp, #24
    2898:	e9d2 1300 	ldrd	r1, r3, [r2]
    289c:	4798      	blx	r3
    289e:	e7a6      	b.n	27ee <nrfx_uarte_0_irq_handler+0x62>
    28a0:	f8d3 454c 	ldr.w	r4, [r3, #1356]	; 0x54c
    28a4:	f88d 0018 	strb.w	r0, [sp, #24]
    28a8:	e9d2 3101 	ldrd	r3, r1, [r2, #4]
    28ac:	6150      	str	r0, [r2, #20]
    28ae:	e9cd 1407 	strd	r1, r4, [sp, #28]
    28b2:	a806      	add	r0, sp, #24
    28b4:	6811      	ldr	r1, [r2, #0]
    28b6:	4798      	blx	r3
    28b8:	b00a      	add	sp, #40	; 0x28
    28ba:	bd10      	pop	{r4, pc}
    28bc:	f8d3 454c 	ldr.w	r4, [r3, #1356]	; 0x54c
    28c0:	f88d 0018 	strb.w	r0, [sp, #24]
    28c4:	e9d2 3101 	ldrd	r3, r1, [r2, #4]
    28c8:	6150      	str	r0, [r2, #20]
    28ca:	e9cd 1407 	strd	r1, r4, [sp, #28]
    28ce:	a806      	add	r0, sp, #24
    28d0:	6811      	ldr	r1, [r2, #0]
    28d2:	4798      	blx	r3
    28d4:	e79c      	b.n	2810 <nrfx_uarte_0_irq_handler+0x84>
    28d6:	68e2      	ldr	r2, [r4, #12]
    28d8:	61a1      	str	r1, [r4, #24]
    28da:	2301      	movs	r3, #1
    28dc:	e9cd 2007 	strd	r2, r0, [sp, #28]
    28e0:	f88d 3018 	strb.w	r3, [sp, #24]
    28e4:	a806      	add	r0, sp, #24
    28e6:	e9d4 1300 	ldrd	r1, r3, [r4]
    28ea:	4798      	blx	r3
    28ec:	e770      	b.n	27d0 <nrfx_uarte_0_irq_handler+0x44>
    28ee:	bf00      	nop
    28f0:	40002000 	.word	0x40002000
    28f4:	200006a0 	.word	0x200006a0

000028f8 <nrfx_uarte_init>:
    28f8:	e92d 43f0 	stmdb	sp!, {r4, r5, r6, r7, r8, r9, lr}
    28fc:	7907      	ldrb	r7, [r0, #4]
    28fe:	4e6d      	ldr	r6, [pc, #436]	; (2ab4 <nrfx_uarte_init+0x1bc>)
    2900:	eb07 03c7 	add.w	r3, r7, r7, lsl #3
    2904:	eb06 0383 	add.w	r3, r6, r3, lsl #2
    2908:	b087      	sub	sp, #28
    290a:	f893 3020 	ldrb.w	r3, [r3, #32]
    290e:	2b00      	cmp	r3, #0
    2910:	f040 80a2 	bne.w	2a58 <nrfx_uarte_init+0x160>
    2914:	4604      	mov	r4, r0
    2916:	460d      	mov	r5, r1
    2918:	6800      	ldr	r0, [r0, #0]
    291a:	4967      	ldr	r1, [pc, #412]	; (2ab8 <nrfx_uarte_init+0x1c0>)
    291c:	4690      	mov	r8, r2
    291e:	f7ff f837 	bl	1990 <nrfx_prs_acquire>
    2922:	2800      	cmp	r0, #0
    2924:	f040 8094 	bne.w	2a50 <nrfx_uarte_init+0x158>
    2928:	682b      	ldr	r3, [r5, #0]
    292a:	1c59      	adds	r1, r3, #1
    292c:	ea4f 09c7 	mov.w	r9, r7, lsl #3
    2930:	d00c      	beq.n	294c <nrfx_uarte_init+0x54>
    2932:	f04f 41a0 	mov.w	r1, #1342177280	; 0x50000000
    2936:	2201      	movs	r2, #1
    2938:	fa02 f303 	lsl.w	r3, r2, r3
    293c:	f8c1 3508 	str.w	r3, [r1, #1288]	; 0x508
    2940:	682b      	ldr	r3, [r5, #0]
    2942:	f503 73e0 	add.w	r3, r3, #448	; 0x1c0
    2946:	2203      	movs	r2, #3
    2948:	f841 2023 	str.w	r2, [r1, r3, lsl #2]
    294c:	686b      	ldr	r3, [r5, #4]
    294e:	1c5a      	adds	r2, r3, #1
    2950:	d006      	beq.n	2960 <nrfx_uarte_init+0x68>
    2952:	f503 73e0 	add.w	r3, r3, #448	; 0x1c0
    2956:	f04f 42a0 	mov.w	r2, #1342177280	; 0x50000000
    295a:	2100      	movs	r1, #0
    295c:	f842 1023 	str.w	r1, [r2, r3, lsl #2]
    2960:	6823      	ldr	r3, [r4, #0]
    2962:	69aa      	ldr	r2, [r5, #24]
    2964:	f8c3 2524 	str.w	r2, [r3, #1316]	; 0x524
    2968:	7d2b      	ldrb	r3, [r5, #20]
    296a:	7d6a      	ldrb	r2, [r5, #21]
    296c:	431a      	orrs	r2, r3
    296e:	6823      	ldr	r3, [r4, #0]
    2970:	f8c3 256c 	str.w	r2, [r3, #1388]	; 0x56c
    2974:	e9d5 3100 	ldrd	r3, r1, [r5]
    2978:	6822      	ldr	r2, [r4, #0]
    297a:	f8c2 350c 	str.w	r3, [r2, #1292]	; 0x50c
    297e:	f8c2 1514 	str.w	r1, [r2, #1300]	; 0x514
    2982:	7d2b      	ldrb	r3, [r5, #20]
    2984:	2b01      	cmp	r3, #1
    2986:	d072      	beq.n	2a6e <nrfx_uarte_init+0x176>
    2988:	eb09 0207 	add.w	r2, r9, r7
    298c:	eb06 0382 	add.w	r3, r6, r2, lsl #2
    2990:	f8c3 8004 	str.w	r8, [r3, #4]
    2994:	692b      	ldr	r3, [r5, #16]
    2996:	f846 3022 	str.w	r3, [r6, r2, lsl #2]
    299a:	f1b8 0f00 	cmp.w	r8, #0
    299e:	d046      	beq.n	2a2e <nrfx_uarte_init+0x136>
    29a0:	6821      	ldr	r1, [r4, #0]
    29a2:	7f2b      	ldrb	r3, [r5, #28]
    29a4:	2200      	movs	r2, #0
    29a6:	f8c1 2110 	str.w	r2, [r1, #272]	; 0x110
    29aa:	f8d1 1110 	ldr.w	r1, [r1, #272]	; 0x110
    29ae:	9101      	str	r1, [sp, #4]
    29b0:	9901      	ldr	r1, [sp, #4]
    29b2:	6821      	ldr	r1, [r4, #0]
    29b4:	f8c1 2120 	str.w	r2, [r1, #288]	; 0x120
    29b8:	f8d1 1120 	ldr.w	r1, [r1, #288]	; 0x120
    29bc:	9102      	str	r1, [sp, #8]
    29be:	9902      	ldr	r1, [sp, #8]
    29c0:	6821      	ldr	r1, [r4, #0]
    29c2:	f8c1 2124 	str.w	r2, [r1, #292]	; 0x124
    29c6:	f8d1 1124 	ldr.w	r1, [r1, #292]	; 0x124
    29ca:	9103      	str	r1, [sp, #12]
    29cc:	9903      	ldr	r1, [sp, #12]
    29ce:	6821      	ldr	r1, [r4, #0]
    29d0:	f8c1 2144 	str.w	r2, [r1, #324]	; 0x144
    29d4:	f8d1 1144 	ldr.w	r1, [r1, #324]	; 0x144
    29d8:	9104      	str	r1, [sp, #16]
    29da:	9904      	ldr	r1, [sp, #16]
    29dc:	6821      	ldr	r1, [r4, #0]
    29de:	f8c1 2158 	str.w	r2, [r1, #344]	; 0x158
    29e2:	f8d1 2158 	ldr.w	r2, [r1, #344]	; 0x158
    29e6:	9205      	str	r2, [sp, #20]
    29e8:	9a05      	ldr	r2, [sp, #20]
    29ea:	6822      	ldr	r2, [r4, #0]
    29ec:	4933      	ldr	r1, [pc, #204]	; (2abc <nrfx_uarte_init+0x1c4>)
    29ee:	f8c2 1304 	str.w	r1, [r2, #772]	; 0x304
    29f2:	6822      	ldr	r2, [r4, #0]
    29f4:	f342 3107 	sbfx	r1, r2, #12, #8
    29f8:	2900      	cmp	r1, #0
    29fa:	ea4f 3212 	mov.w	r2, r2, lsr #12
    29fe:	db2f      	blt.n	2a60 <nrfx_uarte_init+0x168>
    2a00:	f101 4160 	add.w	r1, r1, #3758096384	; 0xe0000000
    2a04:	015b      	lsls	r3, r3, #5
    2a06:	f501 4161 	add.w	r1, r1, #57600	; 0xe100
    2a0a:	b2db      	uxtb	r3, r3
    2a0c:	f881 3300 	strb.w	r3, [r1, #768]	; 0x300
    2a10:	6822      	ldr	r2, [r4, #0]
    2a12:	f342 3307 	sbfx	r3, r2, #12, #8
    2a16:	2b00      	cmp	r3, #0
    2a18:	ea4f 3112 	mov.w	r1, r2, lsr #12
    2a1c:	db08      	blt.n	2a30 <nrfx_uarte_init+0x138>
    2a1e:	4d28      	ldr	r5, [pc, #160]	; (2ac0 <nrfx_uarte_init+0x1c8>)
    2a20:	095b      	lsrs	r3, r3, #5
    2a22:	f001 011f 	and.w	r1, r1, #31
    2a26:	2201      	movs	r2, #1
    2a28:	408a      	lsls	r2, r1
    2a2a:	f845 2023 	str.w	r2, [r5, r3, lsl #2]
    2a2e:	6822      	ldr	r2, [r4, #0]
    2a30:	44b9      	add	r9, r7
    2a32:	eb06 0689 	add.w	r6, r6, r9, lsl #2
    2a36:	2101      	movs	r1, #1
    2a38:	2300      	movs	r3, #0
    2a3a:	f886 1020 	strb.w	r1, [r6, #32]
    2a3e:	2108      	movs	r1, #8
    2a40:	f8c2 1500 	str.w	r1, [r2, #1280]	; 0x500
    2a44:	e9c6 3306 	strd	r3, r3, [r6, #24]
    2a48:	6173      	str	r3, [r6, #20]
    2a4a:	b007      	add	sp, #28
    2a4c:	e8bd 83f0 	ldmia.w	sp!, {r4, r5, r6, r7, r8, r9, pc}
    2a50:	2011      	movs	r0, #17
    2a52:	b007      	add	sp, #28
    2a54:	e8bd 83f0 	ldmia.w	sp!, {r4, r5, r6, r7, r8, r9, pc}
    2a58:	2008      	movs	r0, #8
    2a5a:	b007      	add	sp, #28
    2a5c:	e8bd 83f0 	ldmia.w	sp!, {r4, r5, r6, r7, r8, r9, pc}
    2a60:	4918      	ldr	r1, [pc, #96]	; (2ac4 <nrfx_uarte_init+0x1cc>)
    2a62:	f002 020f 	and.w	r2, r2, #15
    2a66:	015b      	lsls	r3, r3, #5
    2a68:	b2db      	uxtb	r3, r3
    2a6a:	548b      	strb	r3, [r1, r2]
    2a6c:	e7d0      	b.n	2a10 <nrfx_uarte_init+0x118>
    2a6e:	68ab      	ldr	r3, [r5, #8]
    2a70:	1c59      	adds	r1, r3, #1
    2a72:	d006      	beq.n	2a82 <nrfx_uarte_init+0x18a>
    2a74:	f503 73e0 	add.w	r3, r3, #448	; 0x1c0
    2a78:	f04f 42a0 	mov.w	r2, #1342177280	; 0x50000000
    2a7c:	2100      	movs	r1, #0
    2a7e:	f842 1023 	str.w	r1, [r2, r3, lsl #2]
    2a82:	68eb      	ldr	r3, [r5, #12]
    2a84:	1c5a      	adds	r2, r3, #1
    2a86:	d00d      	beq.n	2aa4 <nrfx_uarte_init+0x1ac>
    2a88:	f04f 41a0 	mov.w	r1, #1342177280	; 0x50000000
    2a8c:	2201      	movs	r2, #1
    2a8e:	fa02 f303 	lsl.w	r3, r2, r3
    2a92:	f8c1 3508 	str.w	r3, [r1, #1288]	; 0x508
    2a96:	68eb      	ldr	r3, [r5, #12]
    2a98:	f503 73e0 	add.w	r3, r3, #448	; 0x1c0
    2a9c:	2203      	movs	r2, #3
    2a9e:	f841 2023 	str.w	r2, [r1, r3, lsl #2]
    2aa2:	68eb      	ldr	r3, [r5, #12]
    2aa4:	6822      	ldr	r2, [r4, #0]
    2aa6:	68a9      	ldr	r1, [r5, #8]
    2aa8:	f8c2 3508 	str.w	r3, [r2, #1288]	; 0x508
    2aac:	f8c2 1510 	str.w	r1, [r2, #1296]	; 0x510
    2ab0:	e76a      	b.n	2988 <nrfx_uarte_init+0x90>
    2ab2:	bf00      	nop
    2ab4:	200006a0 	.word	0x200006a0
    2ab8:	0000278d 	.word	0x0000278d
    2abc:	00420310 	.word	0x00420310
    2ac0:	e000e100 	.word	0xe000e100
    2ac4:	e000ed14 	.word	0xe000ed14

00002ac8 <nrfx_uarte_uninit>:
    2ac8:	e92d 41f0 	stmdb	sp!, {r4, r5, r6, r7, r8, lr}
    2acc:	7905      	ldrb	r5, [r0, #4]
    2ace:	4c4b      	ldr	r4, [pc, #300]	; (2bfc <nrfx_uarte_uninit+0x134>)
    2ad0:	eb05 03c5 	add.w	r3, r5, r5, lsl #3
    2ad4:	eb04 0383 	add.w	r3, r4, r3, lsl #2
    2ad8:	4601      	mov	r1, r0
    2ada:	685b      	ldr	r3, [r3, #4]
    2adc:	6800      	ldr	r0, [r0, #0]
    2ade:	b082      	sub	sp, #8
    2ae0:	00ee      	lsls	r6, r5, #3
    2ae2:	b1c3      	cbz	r3, 2b16 <nrfx_uarte_uninit+0x4e>
    2ae4:	4b46      	ldr	r3, [pc, #280]	; (2c00 <nrfx_uarte_uninit+0x138>)
    2ae6:	f8c0 3308 	str.w	r3, [r0, #776]	; 0x308
    2aea:	680b      	ldr	r3, [r1, #0]
    2aec:	f343 3207 	sbfx	r2, r3, #12, #8
    2af0:	2a00      	cmp	r2, #0
    2af2:	ea4f 3313 	mov.w	r3, r3, lsr #12
    2af6:	db0e      	blt.n	2b16 <nrfx_uarte_uninit+0x4e>
    2af8:	0952      	lsrs	r2, r2, #5
    2afa:	f8df c108 	ldr.w	ip, [pc, #264]	; 2c04 <nrfx_uarte_uninit+0x13c>
    2afe:	3220      	adds	r2, #32
    2b00:	2701      	movs	r7, #1
    2b02:	f003 031f 	and.w	r3, r3, #31
    2b06:	fa07 f303 	lsl.w	r3, r7, r3
    2b0a:	f84c 3022 	str.w	r3, [ip, r2, lsl #2]
    2b0e:	f3bf 8f4f 	dsb	sy
    2b12:	f3bf 8f6f 	isb	sy
    2b16:	1973      	adds	r3, r6, r5
    2b18:	eb04 0383 	add.w	r3, r4, r3, lsl #2
    2b1c:	699a      	ldr	r2, [r3, #24]
    2b1e:	f8d0 3200 	ldr.w	r3, [r0, #512]	; 0x200
    2b22:	f023 0320 	bic.w	r3, r3, #32
    2b26:	f8c0 3200 	str.w	r3, [r0, #512]	; 0x200
    2b2a:	b142      	cbz	r2, 2b3e <nrfx_uarte_uninit+0x76>
    2b2c:	2300      	movs	r3, #0
    2b2e:	f8c0 3144 	str.w	r3, [r0, #324]	; 0x144
    2b32:	f8d0 3144 	ldr.w	r3, [r0, #324]	; 0x144
    2b36:	9300      	str	r3, [sp, #0]
    2b38:	9b00      	ldr	r3, [sp, #0]
    2b3a:	2301      	movs	r3, #1
    2b3c:	6043      	str	r3, [r0, #4]
    2b3e:	2300      	movs	r3, #0
    2b40:	f8c0 3158 	str.w	r3, [r0, #344]	; 0x158
    2b44:	f8d0 3158 	ldr.w	r3, [r0, #344]	; 0x158
    2b48:	9301      	str	r3, [sp, #4]
    2b4a:	9b01      	ldr	r3, [sp, #4]
    2b4c:	1973      	adds	r3, r6, r5
    2b4e:	2201      	movs	r2, #1
    2b50:	eb04 0383 	add.w	r3, r4, r3, lsl #2
    2b54:	60c2      	str	r2, [r0, #12]
    2b56:	699a      	ldr	r2, [r3, #24]
    2b58:	f8d0 3158 	ldr.w	r3, [r0, #344]	; 0x158
    2b5c:	2b00      	cmp	r3, #0
    2b5e:	d0fb      	beq.n	2b58 <nrfx_uarte_uninit+0x90>
    2b60:	b11a      	cbz	r2, 2b6a <nrfx_uarte_uninit+0xa2>
    2b62:	f8d0 3144 	ldr.w	r3, [r0, #324]	; 0x144
    2b66:	2b00      	cmp	r3, #0
    2b68:	d0f6      	beq.n	2b58 <nrfx_uarte_uninit+0x90>
    2b6a:	2300      	movs	r3, #0
    2b6c:	f8c0 3500 	str.w	r3, [r0, #1280]	; 0x500
    2b70:	680b      	ldr	r3, [r1, #0]
    2b72:	f04f 32ff 	mov.w	r2, #4294967295	; 0xffffffff
    2b76:	f8d3 850c 	ldr.w	r8, [r3, #1292]	; 0x50c
    2b7a:	f8d3 e514 	ldr.w	lr, [r3, #1300]	; 0x514
    2b7e:	f8d3 7508 	ldr.w	r7, [r3, #1288]	; 0x508
    2b82:	f8d3 c510 	ldr.w	ip, [r3, #1296]	; 0x510
    2b86:	f8c3 250c 	str.w	r2, [r3, #1292]	; 0x50c
    2b8a:	f8c3 2514 	str.w	r2, [r3, #1300]	; 0x514
    2b8e:	680b      	ldr	r3, [r1, #0]
    2b90:	4590      	cmp	r8, r2
    2b92:	f8c3 2508 	str.w	r2, [r3, #1288]	; 0x508
    2b96:	f8c3 2510 	str.w	r2, [r3, #1296]	; 0x510
    2b9a:	d006      	beq.n	2baa <nrfx_uarte_uninit+0xe2>
    2b9c:	f508 78e0 	add.w	r8, r8, #448	; 0x1c0
    2ba0:	f04f 43a0 	mov.w	r3, #1342177280	; 0x50000000
    2ba4:	2202      	movs	r2, #2
    2ba6:	f843 2028 	str.w	r2, [r3, r8, lsl #2]
    2baa:	f1be 3fff 	cmp.w	lr, #4294967295	; 0xffffffff
    2bae:	d006      	beq.n	2bbe <nrfx_uarte_uninit+0xf6>
    2bb0:	f50e 7ee0 	add.w	lr, lr, #448	; 0x1c0
    2bb4:	f04f 43a0 	mov.w	r3, #1342177280	; 0x50000000
    2bb8:	2202      	movs	r2, #2
    2bba:	f843 202e 	str.w	r2, [r3, lr, lsl #2]
    2bbe:	f1bc 3fff 	cmp.w	ip, #4294967295	; 0xffffffff
    2bc2:	d006      	beq.n	2bd2 <nrfx_uarte_uninit+0x10a>
    2bc4:	f50c 7ce0 	add.w	ip, ip, #448	; 0x1c0
    2bc8:	f04f 43a0 	mov.w	r3, #1342177280	; 0x50000000
    2bcc:	2202      	movs	r2, #2
    2bce:	f843 202c 	str.w	r2, [r3, ip, lsl #2]
    2bd2:	1c7b      	adds	r3, r7, #1
    2bd4:	d006      	beq.n	2be4 <nrfx_uarte_uninit+0x11c>
    2bd6:	f507 77e0 	add.w	r7, r7, #448	; 0x1c0
    2bda:	f04f 43a0 	mov.w	r3, #1342177280	; 0x50000000
    2bde:	2202      	movs	r2, #2
    2be0:	f843 2027 	str.w	r2, [r3, r7, lsl #2]
    2be4:	f7fe fef2 	bl	19cc <nrfx_prs_release>
    2be8:	442e      	add	r6, r5
    2bea:	eb04 0486 	add.w	r4, r4, r6, lsl #2
    2bee:	2300      	movs	r3, #0
    2bf0:	f884 3020 	strb.w	r3, [r4, #32]
    2bf4:	6063      	str	r3, [r4, #4]
    2bf6:	b002      	add	sp, #8
    2bf8:	e8bd 81f0 	ldmia.w	sp!, {r4, r5, r6, r7, r8, pc}
    2bfc:	200006a0 	.word	0x200006a0
    2c00:	00420310 	.word	0x00420310
    2c04:	e000e100 	.word	0xe000e100

00002c08 <nrfx_uarte_tx>:
    2c08:	f001 4c60 	and.w	ip, r1, #3758096384	; 0xe0000000
    2c0c:	f1bc 5f00 	cmp.w	ip, #536870912	; 0x20000000
    2c10:	d130      	bne.n	2c74 <nrfx_uarte_tx+0x6c>
    2c12:	b570      	push	{r4, r5, r6, lr}
    2c14:	f890 e004 	ldrb.w	lr, [r0, #4]
    2c18:	4c26      	ldr	r4, [pc, #152]	; (2cb4 <nrfx_uarte_tx+0xac>)
    2c1a:	eb0e 0cce 	add.w	ip, lr, lr, lsl #3
    2c1e:	eb04 0c8c 	add.w	ip, r4, ip, lsl #2
    2c22:	4603      	mov	r3, r0
    2c24:	f8dc 0014 	ldr.w	r0, [ip, #20]
    2c28:	b082      	sub	sp, #8
    2c2a:	ea4f 05ce 	mov.w	r5, lr, lsl #3
    2c2e:	2800      	cmp	r0, #0
    2c30:	d13a      	bne.n	2ca8 <nrfx_uarte_tx+0xa0>
    2c32:	f8cc 2014 	str.w	r2, [ip, #20]
    2c36:	f8cc 1008 	str.w	r1, [ip, #8]
    2c3a:	681a      	ldr	r2, [r3, #0]
    2c3c:	f8c2 0120 	str.w	r0, [r2, #288]	; 0x120
    2c40:	f8d2 2120 	ldr.w	r2, [r2, #288]	; 0x120
    2c44:	9201      	str	r2, [sp, #4]
    2c46:	9a01      	ldr	r2, [sp, #4]
    2c48:	681a      	ldr	r2, [r3, #0]
    2c4a:	f8c2 0158 	str.w	r0, [r2, #344]	; 0x158
    2c4e:	f8d2 2158 	ldr.w	r2, [r2, #344]	; 0x158
    2c52:	9200      	str	r2, [sp, #0]
    2c54:	9a00      	ldr	r2, [sp, #0]
    2c56:	681a      	ldr	r2, [r3, #0]
    2c58:	f8dc 6014 	ldr.w	r6, [ip, #20]
    2c5c:	f8c2 1544 	str.w	r1, [r2, #1348]	; 0x544
    2c60:	f8c2 6548 	str.w	r6, [r2, #1352]	; 0x548
    2c64:	681a      	ldr	r2, [r3, #0]
    2c66:	2101      	movs	r1, #1
    2c68:	6091      	str	r1, [r2, #8]
    2c6a:	f8dc 2004 	ldr.w	r2, [ip, #4]
    2c6e:	b11a      	cbz	r2, 2c78 <nrfx_uarte_tx+0x70>
    2c70:	b002      	add	sp, #8
    2c72:	bd70      	pop	{r4, r5, r6, pc}
    2c74:	2010      	movs	r0, #16
    2c76:	4770      	bx	lr
    2c78:	681a      	ldr	r2, [r3, #0]
    2c7a:	e000      	b.n	2c7e <nrfx_uarte_tx+0x76>
    2c7c:	b9b8      	cbnz	r0, 2cae <nrfx_uarte_tx+0xa6>
    2c7e:	f8d2 1120 	ldr.w	r1, [r2, #288]	; 0x120
    2c82:	f8d2 0158 	ldr.w	r0, [r2, #344]	; 0x158
    2c86:	2900      	cmp	r1, #0
    2c88:	d0f8      	beq.n	2c7c <nrfx_uarte_tx+0x74>
    2c8a:	b980      	cbnz	r0, 2cae <nrfx_uarte_tx+0xa6>
    2c8c:	2101      	movs	r1, #1
    2c8e:	60d1      	str	r1, [r2, #12]
    2c90:	681b      	ldr	r3, [r3, #0]
    2c92:	f8d3 2158 	ldr.w	r2, [r3, #344]	; 0x158
    2c96:	2a00      	cmp	r2, #0
    2c98:	d0fb      	beq.n	2c92 <nrfx_uarte_tx+0x8a>
    2c9a:	4475      	add	r5, lr
    2c9c:	eb04 0385 	add.w	r3, r4, r5, lsl #2
    2ca0:	2200      	movs	r2, #0
    2ca2:	615a      	str	r2, [r3, #20]
    2ca4:	b002      	add	sp, #8
    2ca6:	bd70      	pop	{r4, r5, r6, pc}
    2ca8:	2011      	movs	r0, #17
    2caa:	b002      	add	sp, #8
    2cac:	bd70      	pop	{r4, r5, r6, pc}
    2cae:	200f      	movs	r0, #15
    2cb0:	e7f3      	b.n	2c9a <nrfx_uarte_tx+0x92>
    2cb2:	bf00      	nop
    2cb4:	200006a0 	.word	0x200006a0

00002cb8 <twi_handler>:
    2cb8:	b508      	push	{r3, lr}
    2cba:	7803      	ldrb	r3, [r0, #0]
    2cbc:	b92b      	cbnz	r3, 2cca <twi_handler+0x12>
    2cbe:	7903      	ldrb	r3, [r0, #4]
    2cc0:	2b01      	cmp	r3, #1
    2cc2:	d003      	beq.n	2ccc <twi_handler+0x14>
    2cc4:	4b09      	ldr	r3, [pc, #36]	; (2cec <twi_handler+0x34>)
    2cc6:	2201      	movs	r2, #1
    2cc8:	701a      	strb	r2, [r3, #0]
    2cca:	bd08      	pop	{r3, pc}
    2ccc:	4a08      	ldr	r2, [pc, #32]	; (2cf0 <twi_handler+0x38>)
    2cce:	4809      	ldr	r0, [pc, #36]	; (2cf4 <twi_handler+0x3c>)
    2cd0:	4b09      	ldr	r3, [pc, #36]	; (2cf8 <twi_handler+0x40>)
    2cd2:	490a      	ldr	r1, [pc, #40]	; (2cfc <twi_handler+0x44>)
    2cd4:	1a80      	subs	r0, r0, r2
    2cd6:	08c0      	lsrs	r0, r0, #3
    2cd8:	0400      	lsls	r0, r0, #16
    2cda:	781a      	ldrb	r2, [r3, #0]
    2cdc:	f040 0003 	orr.w	r0, r0, #3
    2ce0:	f7fd fe46 	bl	970 <nrf_log_frontend_std_1>
    2ce4:	4b01      	ldr	r3, [pc, #4]	; (2cec <twi_handler+0x34>)
    2ce6:	2201      	movs	r2, #1
    2ce8:	701a      	strb	r2, [r3, #0]
    2cea:	e7ee      	b.n	2cca <twi_handler+0x12>
    2cec:	200006c5 	.word	0x200006c5
    2cf0:	0000375c 	.word	0x0000375c
    2cf4:	0000377c 	.word	0x0000377c
    2cf8:	200006c4 	.word	0x200006c4
    2cfc:	000035e4 	.word	0x000035e4

00002d00 <LM75B_set_mode>:
    2d00:	b510      	push	{r4, lr}
    2d02:	b084      	sub	sp, #16
    2d04:	2300      	movs	r3, #0
    2d06:	2101      	movs	r1, #1
    2d08:	9300      	str	r3, [sp, #0]
    2d0a:	f8ad 100c 	strh.w	r1, [sp, #12]
    2d0e:	4811      	ldr	r0, [pc, #68]	; (2d54 <LM75B_set_mode+0x54>)
    2d10:	2302      	movs	r3, #2
    2d12:	aa03      	add	r2, sp, #12
    2d14:	2148      	movs	r1, #72	; 0x48
    2d16:	f7ff f9a7 	bl	2068 <nrfx_twim_tx>
    2d1a:	b9a0      	cbnz	r0, 2d46 <LM75B_set_mode+0x46>
    2d1c:	4c0e      	ldr	r4, [pc, #56]	; (2d58 <LM75B_set_mode+0x58>)
    2d1e:	7823      	ldrb	r3, [r4, #0]
    2d20:	2b00      	cmp	r3, #0
    2d22:	d0fc      	beq.n	2d1e <LM75B_set_mode+0x1e>
    2d24:	2000      	movs	r0, #0
    2d26:	9000      	str	r0, [sp, #0]
    2d28:	f88d 000c 	strb.w	r0, [sp, #12]
    2d2c:	7020      	strb	r0, [r4, #0]
    2d2e:	2301      	movs	r3, #1
    2d30:	4808      	ldr	r0, [pc, #32]	; (2d54 <LM75B_set_mode+0x54>)
    2d32:	aa03      	add	r2, sp, #12
    2d34:	2148      	movs	r1, #72	; 0x48
    2d36:	f7ff f997 	bl	2068 <nrfx_twim_tx>
    2d3a:	b938      	cbnz	r0, 2d4c <LM75B_set_mode+0x4c>
    2d3c:	7823      	ldrb	r3, [r4, #0]
    2d3e:	2b00      	cmp	r3, #0
    2d40:	d0fc      	beq.n	2d3c <LM75B_set_mode+0x3c>
    2d42:	b004      	add	sp, #16
    2d44:	bd10      	pop	{r4, pc}
    2d46:	f7fe f807 	bl	d58 <app_error_handler_bare>
    2d4a:	e7e7      	b.n	2d1c <LM75B_set_mode+0x1c>
    2d4c:	f7fe f804 	bl	d58 <app_error_handler_bare>
    2d50:	e7f4      	b.n	2d3c <LM75B_set_mode+0x3c>
    2d52:	bf00      	nop
    2d54:	0000363c 	.word	0x0000363c
    2d58:	200006c5 	.word	0x200006c5

00002d5c <twi_init>:
    2d5c:	b510      	push	{r4, lr}
    2d5e:	211b      	movs	r1, #27
    2d60:	b084      	sub	sp, #16
    2d62:	231a      	movs	r3, #26
    2d64:	e9cd 1300 	strd	r1, r3, [sp]
    2d68:	f04f 74cc 	mov.w	r4, #26738688	; 0x1980000
    2d6c:	2102      	movs	r1, #2
    2d6e:	e9cd 4102 	strd	r4, r1, [sp, #8]
    2d72:	4a09      	ldr	r2, [pc, #36]	; (2d98 <twi_init+0x3c>)
    2d74:	4809      	ldr	r0, [pc, #36]	; (2d9c <twi_init+0x40>)
    2d76:	2300      	movs	r3, #0
    2d78:	4669      	mov	r1, sp
    2d7a:	f7fe fd13 	bl	17a4 <nrf_drv_twi_init>
    2d7e:	b920      	cbnz	r0, 2d8a <twi_init+0x2e>
    2d80:	4807      	ldr	r0, [pc, #28]	; (2da0 <twi_init+0x44>)
    2d82:	f7ff f961 	bl	2048 <nrfx_twim_enable>
    2d86:	b004      	add	sp, #16
    2d88:	bd10      	pop	{r4, pc}
    2d8a:	f7fd ffe5 	bl	d58 <app_error_handler_bare>
    2d8e:	4804      	ldr	r0, [pc, #16]	; (2da0 <twi_init+0x44>)
    2d90:	f7ff f95a 	bl	2048 <nrfx_twim_enable>
    2d94:	b004      	add	sp, #16
    2d96:	bd10      	pop	{r4, pc}
    2d98:	00002cb9 	.word	0x00002cb9
    2d9c:	00003638 	.word	0x00003638
    2da0:	0000363c 	.word	0x0000363c

00002da4 <main>:
    2da4:	2100      	movs	r1, #0
    2da6:	e92d 41f0 	stmdb	sp!, {r4, r5, r6, r7, r8, lr}
    2daa:	4608      	mov	r0, r1
    2dac:	f7fd fc4c 	bl	648 <nrf_log_init>
    2db0:	2800      	cmp	r0, #0
    2db2:	d136      	bne.n	2e22 <main+0x7e>
    2db4:	f7fd fba2 	bl	4fc <nrf_log_default_backends_init>
    2db8:	481b      	ldr	r0, [pc, #108]	; (2e28 <main+0x84>)
    2dba:	4b1c      	ldr	r3, [pc, #112]	; (2e2c <main+0x88>)
    2dbc:	491c      	ldr	r1, [pc, #112]	; (2e30 <main+0x8c>)
    2dbe:	1ac0      	subs	r0, r0, r3
    2dc0:	08c0      	lsrs	r0, r0, #3
    2dc2:	0400      	lsls	r0, r0, #16
    2dc4:	f040 0003 	orr.w	r0, r0, #3
    2dc8:	f7fd fe12 	bl	9f0 <nrf_log_frontend_std_0>
    2dcc:	f7fd fc8a 	bl	6e4 <nrf_log_frontend_dequeue>
    2dd0:	2800      	cmp	r0, #0
    2dd2:	d1fb      	bne.n	2dcc <main+0x28>
    2dd4:	f7ff ffc2 	bl	2d5c <twi_init>
    2dd8:	4e16      	ldr	r6, [pc, #88]	; (2e34 <main+0x90>)
    2dda:	4d17      	ldr	r5, [pc, #92]	; (2e38 <main+0x94>)
    2ddc:	f8df 8060 	ldr.w	r8, [pc, #96]	; 2e40 <main+0x9c>
    2de0:	4f16      	ldr	r7, [pc, #88]	; (2e3c <main+0x98>)
    2de2:	f7ff ff8d 	bl	2d00 <LM75B_set_mode>
    2de6:	f046 0601 	orr.w	r6, r6, #1
    2dea:	f44f 74fa 	mov.w	r4, #500	; 0x1f4
    2dee:	f44f 407a 	mov.w	r0, #64000	; 0xfa00
    2df2:	47b0      	blx	r6
    2df4:	3c01      	subs	r4, #1
    2df6:	d1fa      	bne.n	2dee <main+0x4a>
    2df8:	bf20      	wfe
    2dfa:	782b      	ldrb	r3, [r5, #0]
    2dfc:	2b00      	cmp	r3, #0
    2dfe:	d0fb      	beq.n	2df8 <main+0x54>
    2e00:	2400      	movs	r4, #0
    2e02:	2301      	movs	r3, #1
    2e04:	4642      	mov	r2, r8
    2e06:	2148      	movs	r1, #72	; 0x48
    2e08:	4638      	mov	r0, r7
    2e0a:	702c      	strb	r4, [r5, #0]
    2e0c:	f7ff f94c 	bl	20a8 <nrfx_twim_rx>
    2e10:	b920      	cbnz	r0, 2e1c <main+0x78>
    2e12:	f7fd fc67 	bl	6e4 <nrf_log_frontend_dequeue>
    2e16:	2800      	cmp	r0, #0
    2e18:	d1fb      	bne.n	2e12 <main+0x6e>
    2e1a:	e7e6      	b.n	2dea <main+0x46>
    2e1c:	f7fd ff9c 	bl	d58 <app_error_handler_bare>
    2e20:	e7f7      	b.n	2e12 <main+0x6e>
    2e22:	f7fd ff99 	bl	d58 <app_error_handler_bare>
    2e26:	e7c5      	b.n	2db4 <main+0x10>
    2e28:	0000377c 	.word	0x0000377c
    2e2c:	0000375c 	.word	0x0000375c
    2e30:	00003608 	.word	0x00003608
    2e34:	00003630 	.word	0x00003630
    2e38:	200006c5 	.word	0x200006c5
    2e3c:	0000363c 	.word	0x0000363c
    2e40:	200006c4 	.word	0x200006c4

00002e44 <SystemInit>:
    2e44:	b410      	push	{r4}
    2e46:	f04f 5380 	mov.w	r3, #268435456	; 0x10000000
    2e4a:	f8d3 3130 	ldr.w	r3, [r3, #304]	; 0x130
    2e4e:	1c58      	adds	r0, r3, #1
    2e50:	bf04      	itt	eq
    2e52:	f04f 4370 	moveq.w	r3, #4026531840	; 0xf0000000
    2e56:	f893 3fe0 	ldrbeq.w	r3, [r3, #4064]	; 0xfe0
    2e5a:	2b06      	cmp	r3, #6
    2e5c:	d108      	bne.n	2e70 <SystemInit+0x2c>
    2e5e:	f04f 5380 	mov.w	r3, #268435456	; 0x10000000
    2e62:	4ab7      	ldr	r2, [pc, #732]	; (3140 <SystemInit+0x2fc>)
    2e64:	f8d3 3324 	ldr.w	r3, [r3, #804]	; 0x324
    2e68:	f3c3 2304 	ubfx	r3, r3, #8, #5
    2e6c:	f8c2 3540 	str.w	r3, [r2, #1344]	; 0x540
    2e70:	f04f 4370 	mov.w	r3, #4026531840	; 0xf0000000
    2e74:	f893 2fe0 	ldrb.w	r2, [r3, #4064]	; 0xfe0
    2e78:	2a06      	cmp	r2, #6
    2e7a:	f000 8135 	beq.w	30e8 <SystemInit+0x2a4>
    2e7e:	f04f 5380 	mov.w	r3, #268435456	; 0x10000000
    2e82:	f8d3 3130 	ldr.w	r3, [r3, #304]	; 0x130
    2e86:	1c59      	adds	r1, r3, #1
    2e88:	bf04      	itt	eq
    2e8a:	f04f 4370 	moveq.w	r3, #4026531840	; 0xf0000000
    2e8e:	f893 3fe0 	ldrbeq.w	r3, [r3, #4064]	; 0xfe0
    2e92:	2b06      	cmp	r3, #6
    2e94:	d109      	bne.n	2eaa <SystemInit+0x66>
    2e96:	f04f 5380 	mov.w	r3, #268435456	; 0x10000000
    2e9a:	f04f 4280 	mov.w	r2, #1073741824	; 0x40000000
    2e9e:	f8d3 3244 	ldr.w	r3, [r3, #580]	; 0x244
    2ea2:	f3c3 3342 	ubfx	r3, r3, #13, #3
    2ea6:	f8c2 353c 	str.w	r3, [r2, #1340]	; 0x53c
    2eaa:	f04f 4370 	mov.w	r3, #4026531840	; 0xf0000000
    2eae:	f893 2fe0 	ldrb.w	r2, [r3, #4064]	; 0xfe0
    2eb2:	2a06      	cmp	r2, #6
    2eb4:	f000 8103 	beq.w	30be <SystemInit+0x27a>
    2eb8:	f04f 5380 	mov.w	r3, #268435456	; 0x10000000
    2ebc:	f8d3 3130 	ldr.w	r3, [r3, #304]	; 0x130
    2ec0:	1c5a      	adds	r2, r3, #1
    2ec2:	bf04      	itt	eq
    2ec4:	f04f 4370 	moveq.w	r3, #4026531840	; 0xf0000000
    2ec8:	f893 3fe0 	ldrbeq.w	r3, [r3, #4064]	; 0xfe0
    2ecc:	2b06      	cmp	r3, #6
    2ece:	d108      	bne.n	2ee2 <SystemInit+0x9e>
    2ed0:	f04f 4380 	mov.w	r3, #1073741824	; 0x40000000
    2ed4:	2200      	movs	r2, #0
    2ed6:	f8c3 210c 	str.w	r2, [r3, #268]	; 0x10c
    2eda:	f8c3 2110 	str.w	r2, [r3, #272]	; 0x110
    2ede:	f8c3 2538 	str.w	r2, [r3, #1336]	; 0x538
    2ee2:	f04f 4370 	mov.w	r3, #4026531840	; 0xf0000000
    2ee6:	f893 2fe0 	ldrb.w	r2, [r3, #4064]	; 0xfe0
    2eea:	f8d3 3fe8 	ldr.w	r3, [r3, #4072]	; 0xfe8
    2eee:	2a06      	cmp	r2, #6
    2ef0:	f000 80c5 	beq.w	307e <SystemInit+0x23a>
    2ef4:	f04f 5280 	mov.w	r2, #268435456	; 0x10000000
    2ef8:	f8d2 3130 	ldr.w	r3, [r2, #304]	; 0x130
    2efc:	1c5c      	adds	r4, r3, #1
    2efe:	d02e      	beq.n	2f5e <SystemInit+0x11a>
    2f00:	2b06      	cmp	r3, #6
    2f02:	f8d2 2134 	ldr.w	r2, [r2, #308]	; 0x134
    2f06:	d034      	beq.n	2f72 <SystemInit+0x12e>
    2f08:	f04f 5380 	mov.w	r3, #268435456	; 0x10000000
    2f0c:	f8d3 3130 	ldr.w	r3, [r3, #304]	; 0x130
    2f10:	2b06      	cmp	r3, #6
    2f12:	f000 8097 	beq.w	3044 <SystemInit+0x200>
    2f16:	f04f 5380 	mov.w	r3, #268435456	; 0x10000000
    2f1a:	e9d3 234c 	ldrd	r2, r3, [r3, #304]	; 0x130
    2f1e:	2a06      	cmp	r2, #6
    2f20:	f000 80a2 	beq.w	3068 <SystemInit+0x224>
    2f24:	4a87      	ldr	r2, [pc, #540]	; (3144 <SystemInit+0x300>)
    2f26:	f8d2 3088 	ldr.w	r3, [r2, #136]	; 0x88
    2f2a:	f443 0370 	orr.w	r3, r3, #15728640	; 0xf00000
    2f2e:	f8c2 3088 	str.w	r3, [r2, #136]	; 0x88
    2f32:	f3bf 8f4f 	dsb	sy
    2f36:	f3bf 8f6f 	isb	sy
    2f3a:	f04f 2310 	mov.w	r3, #268439552	; 0x10001000
    2f3e:	f8d3 2200 	ldr.w	r2, [r3, #512]	; 0x200
    2f42:	2a00      	cmp	r2, #0
    2f44:	f2c0 8114 	blt.w	3170 <SystemInit+0x32c>
    2f48:	f8d3 3204 	ldr.w	r3, [r3, #516]	; 0x204
    2f4c:	2b00      	cmp	r3, #0
    2f4e:	f2c0 810f 	blt.w	3170 <SystemInit+0x32c>
    2f52:	4b7d      	ldr	r3, [pc, #500]	; (3148 <SystemInit+0x304>)
    2f54:	4a7d      	ldr	r2, [pc, #500]	; (314c <SystemInit+0x308>)
    2f56:	601a      	str	r2, [r3, #0]
    2f58:	f85d 4b04 	ldr.w	r4, [sp], #4
    2f5c:	4770      	bx	lr
    2f5e:	f04f 4270 	mov.w	r2, #4026531840	; 0xf0000000
    2f62:	f892 1fe0 	ldrb.w	r1, [r2, #4064]	; 0xfe0
    2f66:	f8d2 2fe8 	ldr.w	r2, [r2, #4072]	; 0xfe8
    2f6a:	2906      	cmp	r1, #6
    2f6c:	d1da      	bne.n	2f24 <SystemInit+0xe0>
    2f6e:	f3c2 1203 	ubfx	r2, r2, #4, #4
    2f72:	3a03      	subs	r2, #3
    2f74:	2a03      	cmp	r2, #3
    2f76:	f240 80d5 	bls.w	3124 <SystemInit+0x2e0>
    2f7a:	f04f 5380 	mov.w	r3, #268435456	; 0x10000000
    2f7e:	4a74      	ldr	r2, [pc, #464]	; (3150 <SystemInit+0x30c>)
    2f80:	f8d3 1404 	ldr.w	r1, [r3, #1028]	; 0x404
    2f84:	f8c2 1520 	str.w	r1, [r2, #1312]	; 0x520
    2f88:	f8d3 1408 	ldr.w	r1, [r3, #1032]	; 0x408
    2f8c:	f8c2 1524 	str.w	r1, [r2, #1316]	; 0x524
    2f90:	f8d3 140c 	ldr.w	r1, [r3, #1036]	; 0x40c
    2f94:	f8c2 1528 	str.w	r1, [r2, #1320]	; 0x528
    2f98:	f8d3 1410 	ldr.w	r1, [r3, #1040]	; 0x410
    2f9c:	f8c2 152c 	str.w	r1, [r2, #1324]	; 0x52c
    2fa0:	f8d3 1414 	ldr.w	r1, [r3, #1044]	; 0x414
    2fa4:	f8c2 1530 	str.w	r1, [r2, #1328]	; 0x530
    2fa8:	f8d3 1418 	ldr.w	r1, [r3, #1048]	; 0x418
    2fac:	f8c2 1534 	str.w	r1, [r2, #1332]	; 0x534
    2fb0:	f8d3 141c 	ldr.w	r1, [r3, #1052]	; 0x41c
    2fb4:	f8c2 1540 	str.w	r1, [r2, #1344]	; 0x540
    2fb8:	f8d3 1420 	ldr.w	r1, [r3, #1056]	; 0x420
    2fbc:	f8c2 1544 	str.w	r1, [r2, #1348]	; 0x544
    2fc0:	f8d3 1424 	ldr.w	r1, [r3, #1060]	; 0x424
    2fc4:	f8c2 1548 	str.w	r1, [r2, #1352]	; 0x548
    2fc8:	f8d3 1428 	ldr.w	r1, [r3, #1064]	; 0x428
    2fcc:	f8c2 154c 	str.w	r1, [r2, #1356]	; 0x54c
    2fd0:	f8d3 142c 	ldr.w	r1, [r3, #1068]	; 0x42c
    2fd4:	f8c2 1550 	str.w	r1, [r2, #1360]	; 0x550
    2fd8:	f8d3 1430 	ldr.w	r1, [r3, #1072]	; 0x430
    2fdc:	f8c2 1554 	str.w	r1, [r2, #1364]	; 0x554
    2fe0:	f8d3 1434 	ldr.w	r1, [r3, #1076]	; 0x434
    2fe4:	f8c2 1560 	str.w	r1, [r2, #1376]	; 0x560
    2fe8:	f8d3 1438 	ldr.w	r1, [r3, #1080]	; 0x438
    2fec:	f8c2 1564 	str.w	r1, [r2, #1380]	; 0x564
    2ff0:	f8d3 143c 	ldr.w	r1, [r3, #1084]	; 0x43c
    2ff4:	f8c2 1568 	str.w	r1, [r2, #1384]	; 0x568
    2ff8:	f8d3 1440 	ldr.w	r1, [r3, #1088]	; 0x440
    2ffc:	f8c2 156c 	str.w	r1, [r2, #1388]	; 0x56c
    3000:	f8d3 1444 	ldr.w	r1, [r3, #1092]	; 0x444
    3004:	f8d3 3130 	ldr.w	r3, [r3, #304]	; 0x130
    3008:	f8c2 1570 	str.w	r1, [r2, #1392]	; 0x570
    300c:	1c58      	adds	r0, r3, #1
    300e:	f000 808f 	beq.w	3130 <SystemInit+0x2ec>
    3012:	2b06      	cmp	r3, #6
    3014:	f47f af78 	bne.w	2f08 <SystemInit+0xc4>
    3018:	f04f 5380 	mov.w	r3, #268435456	; 0x10000000
    301c:	f04f 4180 	mov.w	r1, #1073741824	; 0x40000000
    3020:	f8d3 2258 	ldr.w	r2, [r3, #600]	; 0x258
    3024:	f8d3 3130 	ldr.w	r3, [r3, #304]	; 0x130
    3028:	f002 024f 	and.w	r2, r2, #79	; 0x4f
    302c:	f8c1 2ee4 	str.w	r2, [r1, #3812]	; 0xee4
    3030:	1c59      	adds	r1, r3, #1
    3032:	f47f af6d 	bne.w	2f10 <SystemInit+0xcc>
    3036:	f04f 4370 	mov.w	r3, #4026531840	; 0xf0000000
    303a:	f893 3fe0 	ldrb.w	r3, [r3, #4064]	; 0xfe0
    303e:	2b06      	cmp	r3, #6
    3040:	f47f af70 	bne.w	2f24 <SystemInit+0xe0>
    3044:	f04f 4380 	mov.w	r3, #1073741824	; 0x40000000
    3048:	f8d3 2400 	ldr.w	r2, [r3, #1024]	; 0x400
    304c:	07d2      	lsls	r2, r2, #31
    304e:	f57f af62 	bpl.w	2f16 <SystemInit+0xd2>
    3052:	f06f 0201 	mvn.w	r2, #1
    3056:	f8c3 2400 	str.w	r2, [r3, #1024]	; 0x400
    305a:	f04f 5380 	mov.w	r3, #268435456	; 0x10000000
    305e:	e9d3 234c 	ldrd	r2, r3, [r3, #304]	; 0x130
    3062:	2a06      	cmp	r2, #6
    3064:	f47f af5e 	bne.w	2f24 <SystemInit+0xe0>
    3068:	3b03      	subs	r3, #3
    306a:	2b03      	cmp	r3, #3
    306c:	d94d      	bls.n	310a <SystemInit+0x2c6>
    306e:	4a39      	ldr	r2, [pc, #228]	; (3154 <SystemInit+0x310>)
    3070:	f8d2 373c 	ldr.w	r3, [r2, #1852]	; 0x73c
    3074:	f443 6380 	orr.w	r3, r3, #1024	; 0x400
    3078:	f8c2 373c 	str.w	r3, [r2, #1852]	; 0x73c
    307c:	e752      	b.n	2f24 <SystemInit+0xe0>
    307e:	f3c3 1303 	ubfx	r3, r3, #4, #4
    3082:	3b03      	subs	r3, #3
    3084:	2b03      	cmp	r3, #3
    3086:	f63f af35 	bhi.w	2ef4 <SystemInit+0xb0>
    308a:	4833      	ldr	r0, [pc, #204]	; (3158 <SystemInit+0x314>)
    308c:	5cc2      	ldrb	r2, [r0, r3]
    308e:	b122      	cbz	r2, 309a <SystemInit+0x256>
    3090:	f04f 4280 	mov.w	r2, #1073741824	; 0x40000000
    3094:	2103      	movs	r1, #3
    3096:	f8c2 15a0 	str.w	r1, [r2, #1440]	; 0x5a0
    309a:	5cc3      	ldrb	r3, [r0, r3]
    309c:	2b00      	cmp	r3, #0
    309e:	f43f af29 	beq.w	2ef4 <SystemInit+0xb0>
    30a2:	4b2e      	ldr	r3, [pc, #184]	; (315c <SystemInit+0x318>)
    30a4:	2405      	movs	r4, #5
    30a6:	2001      	movs	r0, #1
    30a8:	2100      	movs	r1, #0
    30aa:	223f      	movs	r2, #63	; 0x3f
    30ac:	f8c3 4610 	str.w	r4, [r3, #1552]	; 0x610
    30b0:	f8c3 0688 	str.w	r0, [r3, #1672]	; 0x688
    30b4:	f8c3 1618 	str.w	r1, [r3, #1560]	; 0x618
    30b8:	f8c3 2614 	str.w	r2, [r3, #1556]	; 0x614
    30bc:	e71a      	b.n	2ef4 <SystemInit+0xb0>
    30be:	f8d3 3fe8 	ldr.w	r3, [r3, #4072]	; 0xfe8
    30c2:	f3c3 1303 	ubfx	r3, r3, #4, #4
    30c6:	3b03      	subs	r3, #3
    30c8:	2b03      	cmp	r3, #3
    30ca:	f63f aef5 	bhi.w	2eb8 <SystemInit+0x74>
    30ce:	4a22      	ldr	r2, [pc, #136]	; (3158 <SystemInit+0x314>)
    30d0:	5cd3      	ldrb	r3, [r2, r3]
    30d2:	2b00      	cmp	r3, #0
    30d4:	f43f aef0 	beq.w	2eb8 <SystemInit+0x74>
    30d8:	4a1a      	ldr	r2, [pc, #104]	; (3144 <SystemInit+0x300>)
    30da:	f8d2 30fc 	ldr.w	r3, [r2, #252]	; 0xfc
    30de:	f023 7380 	bic.w	r3, r3, #16777216	; 0x1000000
    30e2:	f8c2 30fc 	str.w	r3, [r2, #252]	; 0xfc
    30e6:	e6e7      	b.n	2eb8 <SystemInit+0x74>
    30e8:	f8d3 3fe8 	ldr.w	r3, [r3, #4072]	; 0xfe8
    30ec:	f3c3 1303 	ubfx	r3, r3, #4, #4
    30f0:	3b03      	subs	r3, #3
    30f2:	2b03      	cmp	r3, #3
    30f4:	f63f aec3 	bhi.w	2e7e <SystemInit+0x3a>
    30f8:	4a17      	ldr	r2, [pc, #92]	; (3158 <SystemInit+0x314>)
    30fa:	5cd3      	ldrb	r3, [r2, r3]
    30fc:	2b00      	cmp	r3, #0
    30fe:	f43f aebe 	beq.w	2e7e <SystemInit+0x3a>
    3102:	4b17      	ldr	r3, [pc, #92]	; (3160 <SystemInit+0x31c>)
    3104:	4a17      	ldr	r2, [pc, #92]	; (3164 <SystemInit+0x320>)
    3106:	675a      	str	r2, [r3, #116]	; 0x74
    3108:	e6b9      	b.n	2e7e <SystemInit+0x3a>
    310a:	4a17      	ldr	r2, [pc, #92]	; (3168 <SystemInit+0x324>)
    310c:	5cd3      	ldrb	r3, [r2, r3]
    310e:	2b00      	cmp	r3, #0
    3110:	f43f af08 	beq.w	2f24 <SystemInit+0xe0>
    3114:	4a0f      	ldr	r2, [pc, #60]	; (3154 <SystemInit+0x310>)
    3116:	f8d2 373c 	ldr.w	r3, [r2, #1852]	; 0x73c
    311a:	f443 6380 	orr.w	r3, r3, #1024	; 0x400
    311e:	f8c2 373c 	str.w	r3, [r2, #1852]	; 0x73c
    3122:	e6ff      	b.n	2f24 <SystemInit+0xe0>
    3124:	4911      	ldr	r1, [pc, #68]	; (316c <SystemInit+0x328>)
    3126:	5c8a      	ldrb	r2, [r1, r2]
    3128:	2a00      	cmp	r2, #0
    312a:	f47f af26 	bne.w	2f7a <SystemInit+0x136>
    312e:	e76d      	b.n	300c <SystemInit+0x1c8>
    3130:	f04f 4370 	mov.w	r3, #4026531840	; 0xf0000000
    3134:	f893 3fe0 	ldrb.w	r3, [r3, #4064]	; 0xfe0
    3138:	2b06      	cmp	r3, #6
    313a:	f43f af6d 	beq.w	3018 <SystemInit+0x1d4>
    313e:	e6f1      	b.n	2f24 <SystemInit+0xe0>
    3140:	40013000 	.word	0x40013000
    3144:	e000ed00 	.word	0xe000ed00
    3148:	2000001c 	.word	0x2000001c
    314c:	03d09000 	.word	0x03d09000
    3150:	4000c000 	.word	0x4000c000
    3154:	40001000 	.word	0x40001000
    3158:	00003650 	.word	0x00003650
    315c:	40005000 	.word	0x40005000
    3160:	4007c000 	.word	0x4007c000
    3164:	baadf00d 	.word	0xbaadf00d
    3168:	0000364c 	.word	0x0000364c
    316c:	00003648 	.word	0x00003648
    3170:	4a18      	ldr	r2, [pc, #96]	; (31d4 <SystemInit+0x390>)
    3172:	2301      	movs	r3, #1
    3174:	f8c2 3504 	str.w	r3, [r2, #1284]	; 0x504
    3178:	f8d2 3400 	ldr.w	r3, [r2, #1024]	; 0x400
    317c:	2b00      	cmp	r3, #0
    317e:	d0fb      	beq.n	3178 <SystemInit+0x334>
    3180:	f04f 2310 	mov.w	r3, #268439552	; 0x10001000
    3184:	2115      	movs	r1, #21
    3186:	4a13      	ldr	r2, [pc, #76]	; (31d4 <SystemInit+0x390>)
    3188:	f8c3 1200 	str.w	r1, [r3, #512]	; 0x200
    318c:	f8d2 3400 	ldr.w	r3, [r2, #1024]	; 0x400
    3190:	2b00      	cmp	r3, #0
    3192:	d0fb      	beq.n	318c <SystemInit+0x348>
    3194:	f04f 2310 	mov.w	r3, #268439552	; 0x10001000
    3198:	2115      	movs	r1, #21
    319a:	4a0e      	ldr	r2, [pc, #56]	; (31d4 <SystemInit+0x390>)
    319c:	f8c3 1204 	str.w	r1, [r3, #516]	; 0x204
    31a0:	f8d2 3400 	ldr.w	r3, [r2, #1024]	; 0x400
    31a4:	2b00      	cmp	r3, #0
    31a6:	d0fb      	beq.n	31a0 <SystemInit+0x35c>
    31a8:	2300      	movs	r3, #0
    31aa:	490a      	ldr	r1, [pc, #40]	; (31d4 <SystemInit+0x390>)
    31ac:	f8c2 3504 	str.w	r3, [r2, #1284]	; 0x504
    31b0:	f8d1 3400 	ldr.w	r3, [r1, #1024]	; 0x400
    31b4:	2b00      	cmp	r3, #0
    31b6:	d0fb      	beq.n	31b0 <SystemInit+0x36c>
    31b8:	f3bf 8f4f 	dsb	sy
    31bc:	4906      	ldr	r1, [pc, #24]	; (31d8 <SystemInit+0x394>)
    31be:	4b07      	ldr	r3, [pc, #28]	; (31dc <SystemInit+0x398>)
    31c0:	68ca      	ldr	r2, [r1, #12]
    31c2:	f402 62e0 	and.w	r2, r2, #1792	; 0x700
    31c6:	4313      	orrs	r3, r2
    31c8:	60cb      	str	r3, [r1, #12]
    31ca:	f3bf 8f4f 	dsb	sy
    31ce:	bf00      	nop
    31d0:	e7fd      	b.n	31ce <SystemInit+0x38a>
    31d2:	bf00      	nop
    31d4:	4001e000 	.word	0x4001e000
    31d8:	e000ed00 	.word	0xe000ed00
    31dc:	05fa0004 	.word	0x05fa0004

000031e0 <atexit>:
    31e0:	2300      	movs	r3, #0
    31e2:	4601      	mov	r1, r0
    31e4:	461a      	mov	r2, r3
    31e6:	4618      	mov	r0, r3
    31e8:	f000 b86a 	b.w	32c0 <__register_exitproc>

000031ec <exit>:
    31ec:	b508      	push	{r3, lr}
    31ee:	4b06      	ldr	r3, [pc, #24]	; (3208 <exit+0x1c>)
    31f0:	4604      	mov	r4, r0
    31f2:	b113      	cbz	r3, 31fa <exit+0xe>
    31f4:	2100      	movs	r1, #0
    31f6:	f000 f8c1 	bl	337c <__call_exitprocs>
    31fa:	4b04      	ldr	r3, [pc, #16]	; (320c <exit+0x20>)
    31fc:	681b      	ldr	r3, [r3, #0]
    31fe:	b103      	cbz	r3, 3202 <exit+0x16>
    3200:	4798      	blx	r3
    3202:	4620      	mov	r0, r4
    3204:	f000 f916 	bl	3434 <_exit>
    3208:	0000337d 	.word	0x0000337d
    320c:	200006c8 	.word	0x200006c8

00003210 <memset>:
    3210:	4402      	add	r2, r0
    3212:	4603      	mov	r3, r0
    3214:	4293      	cmp	r3, r2
    3216:	d100      	bne.n	321a <memset+0xa>
    3218:	4770      	bx	lr
    321a:	f803 1b01 	strb.w	r1, [r3], #1
    321e:	e7f9      	b.n	3214 <memset+0x4>

00003220 <__libc_init_array>:
    3220:	b570      	push	{r4, r5, r6, lr}
    3222:	4d0d      	ldr	r5, [pc, #52]	; (3258 <__libc_init_array+0x38>)
    3224:	4c0d      	ldr	r4, [pc, #52]	; (325c <__libc_init_array+0x3c>)
    3226:	1b64      	subs	r4, r4, r5
    3228:	10a4      	asrs	r4, r4, #2
    322a:	2600      	movs	r6, #0
    322c:	42a6      	cmp	r6, r4
    322e:	d109      	bne.n	3244 <__libc_init_array+0x24>
    3230:	4d0b      	ldr	r5, [pc, #44]	; (3260 <__libc_init_array+0x40>)
    3232:	4c0c      	ldr	r4, [pc, #48]	; (3264 <__libc_init_array+0x44>)
    3234:	f000 f900 	bl	3438 <_init>
    3238:	1b64      	subs	r4, r4, r5
    323a:	10a4      	asrs	r4, r4, #2
    323c:	2600      	movs	r6, #0
    323e:	42a6      	cmp	r6, r4
    3240:	d105      	bne.n	324e <__libc_init_array+0x2e>
    3242:	bd70      	pop	{r4, r5, r6, pc}
    3244:	f855 3b04 	ldr.w	r3, [r5], #4
    3248:	4798      	blx	r3
    324a:	3601      	adds	r6, #1
    324c:	e7ee      	b.n	322c <__libc_init_array+0xc>
    324e:	f855 3b04 	ldr.w	r3, [r5], #4
    3252:	4798      	blx	r3
    3254:	3601      	adds	r6, #1
    3256:	e7f2      	b.n	323e <__libc_init_array+0x1e>
    3258:	20000024 	.word	0x20000024
    325c:	20000024 	.word	0x20000024
    3260:	20000024 	.word	0x20000024
    3264:	20000028 	.word	0x20000028

00003268 <__libc_fini_array>:
    3268:	b538      	push	{r3, r4, r5, lr}
    326a:	4d07      	ldr	r5, [pc, #28]	; (3288 <__libc_fini_array+0x20>)
    326c:	4c07      	ldr	r4, [pc, #28]	; (328c <__libc_fini_array+0x24>)
    326e:	1b64      	subs	r4, r4, r5
    3270:	10a4      	asrs	r4, r4, #2
    3272:	b91c      	cbnz	r4, 327c <__libc_fini_array+0x14>
    3274:	e8bd 4038 	ldmia.w	sp!, {r3, r4, r5, lr}
    3278:	f000 b8e4 	b.w	3444 <_fini>
    327c:	3c01      	subs	r4, #1
    327e:	f855 3024 	ldr.w	r3, [r5, r4, lsl #2]
    3282:	4798      	blx	r3
    3284:	e7f5      	b.n	3272 <__libc_fini_array+0xa>
    3286:	bf00      	nop
    3288:	20000028 	.word	0x20000028
    328c:	2000002c 	.word	0x2000002c

00003290 <__retarget_lock_acquire_recursive>:
    3290:	4770      	bx	lr

00003292 <__retarget_lock_release_recursive>:
    3292:	4770      	bx	lr

00003294 <memcpy>:
    3294:	440a      	add	r2, r1
    3296:	4291      	cmp	r1, r2
    3298:	f100 33ff 	add.w	r3, r0, #4294967295	; 0xffffffff
    329c:	d100      	bne.n	32a0 <memcpy+0xc>
    329e:	4770      	bx	lr
    32a0:	b510      	push	{r4, lr}
    32a2:	f811 4b01 	ldrb.w	r4, [r1], #1
    32a6:	f803 4f01 	strb.w	r4, [r3, #1]!
    32aa:	4291      	cmp	r1, r2
    32ac:	d1f9      	bne.n	32a2 <memcpy+0xe>
    32ae:	bd10      	pop	{r4, pc}

000032b0 <strlen>:
    32b0:	4603      	mov	r3, r0
    32b2:	f813 2b01 	ldrb.w	r2, [r3], #1
    32b6:	2a00      	cmp	r2, #0
    32b8:	d1fb      	bne.n	32b2 <strlen+0x2>
    32ba:	1a18      	subs	r0, r3, r0
    32bc:	3801      	subs	r0, #1
    32be:	4770      	bx	lr

000032c0 <__register_exitproc>:
    32c0:	e92d 43f8 	stmdb	sp!, {r3, r4, r5, r6, r7, r8, r9, lr}
    32c4:	f8df 80b0 	ldr.w	r8, [pc, #176]	; 3378 <__register_exitproc+0xb8>
    32c8:	4606      	mov	r6, r0
    32ca:	f8d8 0000 	ldr.w	r0, [r8]
    32ce:	461f      	mov	r7, r3
    32d0:	460d      	mov	r5, r1
    32d2:	4691      	mov	r9, r2
    32d4:	f7ff ffdc 	bl	3290 <__retarget_lock_acquire_recursive>
    32d8:	4b23      	ldr	r3, [pc, #140]	; (3368 <__register_exitproc+0xa8>)
    32da:	681c      	ldr	r4, [r3, #0]
    32dc:	b934      	cbnz	r4, 32ec <__register_exitproc+0x2c>
    32de:	4c23      	ldr	r4, [pc, #140]	; (336c <__register_exitproc+0xac>)
    32e0:	601c      	str	r4, [r3, #0]
    32e2:	4b23      	ldr	r3, [pc, #140]	; (3370 <__register_exitproc+0xb0>)
    32e4:	b113      	cbz	r3, 32ec <__register_exitproc+0x2c>
    32e6:	681b      	ldr	r3, [r3, #0]
    32e8:	f8c4 3088 	str.w	r3, [r4, #136]	; 0x88
    32ec:	6863      	ldr	r3, [r4, #4]
    32ee:	2b1f      	cmp	r3, #31
    32f0:	dd07      	ble.n	3302 <__register_exitproc+0x42>
    32f2:	f8d8 0000 	ldr.w	r0, [r8]
    32f6:	f7ff ffcc 	bl	3292 <__retarget_lock_release_recursive>
    32fa:	f04f 30ff 	mov.w	r0, #4294967295	; 0xffffffff
    32fe:	e8bd 83f8 	ldmia.w	sp!, {r3, r4, r5, r6, r7, r8, r9, pc}
    3302:	b32e      	cbz	r6, 3350 <__register_exitproc+0x90>
    3304:	f8d4 0088 	ldr.w	r0, [r4, #136]	; 0x88
    3308:	b968      	cbnz	r0, 3326 <__register_exitproc+0x66>
    330a:	4b1a      	ldr	r3, [pc, #104]	; (3374 <__register_exitproc+0xb4>)
    330c:	2b00      	cmp	r3, #0
    330e:	d0f0      	beq.n	32f2 <__register_exitproc+0x32>
    3310:	f44f 7084 	mov.w	r0, #264	; 0x108
    3314:	f3af 8000 	nop.w
    3318:	2800      	cmp	r0, #0
    331a:	d0ea      	beq.n	32f2 <__register_exitproc+0x32>
    331c:	2300      	movs	r3, #0
    331e:	e9c0 3340 	strd	r3, r3, [r0, #256]	; 0x100
    3322:	f8c4 0088 	str.w	r0, [r4, #136]	; 0x88
    3326:	6863      	ldr	r3, [r4, #4]
    3328:	f840 9023 	str.w	r9, [r0, r3, lsl #2]
    332c:	2201      	movs	r2, #1
    332e:	409a      	lsls	r2, r3
    3330:	eb00 0183 	add.w	r1, r0, r3, lsl #2
    3334:	f8d0 3100 	ldr.w	r3, [r0, #256]	; 0x100
    3338:	4313      	orrs	r3, r2
    333a:	f8c0 3100 	str.w	r3, [r0, #256]	; 0x100
    333e:	2e02      	cmp	r6, #2
    3340:	f8c1 7080 	str.w	r7, [r1, #128]	; 0x80
    3344:	bf02      	ittt	eq
    3346:	f8d0 3104 	ldreq.w	r3, [r0, #260]	; 0x104
    334a:	4313      	orreq	r3, r2
    334c:	f8c0 3104 	streq.w	r3, [r0, #260]	; 0x104
    3350:	6863      	ldr	r3, [r4, #4]
    3352:	f8d8 0000 	ldr.w	r0, [r8]
    3356:	1c5a      	adds	r2, r3, #1
    3358:	3302      	adds	r3, #2
    335a:	6062      	str	r2, [r4, #4]
    335c:	f844 5023 	str.w	r5, [r4, r3, lsl #2]
    3360:	f7ff ff97 	bl	3292 <__retarget_lock_release_recursive>
    3364:	2000      	movs	r0, #0
    3366:	e7ca      	b.n	32fe <__register_exitproc+0x3e>
    3368:	2000075c 	.word	0x2000075c
    336c:	200006d0 	.word	0x200006d0
	...
    3378:	20000020 	.word	0x20000020

0000337c <__call_exitprocs>:
    337c:	e92d 4ff7 	stmdb	sp!, {r0, r1, r2, r4, r5, r6, r7, r8, r9, sl, fp, lr}
    3380:	f8df 90a8 	ldr.w	r9, [pc, #168]	; 342c <__call_exitprocs+0xb0>
    3384:	9100      	str	r1, [sp, #0]
    3386:	4680      	mov	r8, r0
    3388:	f8d9 0000 	ldr.w	r0, [r9]
    338c:	f8df a0a0 	ldr.w	sl, [pc, #160]	; 3430 <__call_exitprocs+0xb4>
    3390:	f7ff ff7e 	bl	3290 <__retarget_lock_acquire_recursive>
    3394:	f8da 4000 	ldr.w	r4, [sl]
    3398:	b934      	cbnz	r4, 33a8 <__call_exitprocs+0x2c>
    339a:	f8d9 0000 	ldr.w	r0, [r9]
    339e:	b003      	add	sp, #12
    33a0:	e8bd 4ff0 	ldmia.w	sp!, {r4, r5, r6, r7, r8, r9, sl, fp, lr}
    33a4:	f7ff bf75 	b.w	3292 <__retarget_lock_release_recursive>
    33a8:	6865      	ldr	r5, [r4, #4]
    33aa:	f8d4 7088 	ldr.w	r7, [r4, #136]	; 0x88
    33ae:	1e6e      	subs	r6, r5, #1
    33b0:	3501      	adds	r5, #1
    33b2:	eb04 0585 	add.w	r5, r4, r5, lsl #2
    33b6:	f107 0b80 	add.w	fp, r7, #128	; 0x80
    33ba:	2e00      	cmp	r6, #0
    33bc:	dbed      	blt.n	339a <__call_exitprocs+0x1e>
    33be:	9b00      	ldr	r3, [sp, #0]
    33c0:	b143      	cbz	r3, 33d4 <__call_exitprocs+0x58>
    33c2:	b917      	cbnz	r7, 33ca <__call_exitprocs+0x4e>
    33c4:	3e01      	subs	r6, #1
    33c6:	3d04      	subs	r5, #4
    33c8:	e7f7      	b.n	33ba <__call_exitprocs+0x3e>
    33ca:	f85b 2026 	ldr.w	r2, [fp, r6, lsl #2]
    33ce:	9b00      	ldr	r3, [sp, #0]
    33d0:	429a      	cmp	r2, r3
    33d2:	d1f7      	bne.n	33c4 <__call_exitprocs+0x48>
    33d4:	6861      	ldr	r1, [r4, #4]
    33d6:	682a      	ldr	r2, [r5, #0]
    33d8:	3901      	subs	r1, #1
    33da:	42b1      	cmp	r1, r6
    33dc:	bf16      	itet	ne
    33de:	2300      	movne	r3, #0
    33e0:	6066      	streq	r6, [r4, #4]
    33e2:	602b      	strne	r3, [r5, #0]
    33e4:	2a00      	cmp	r2, #0
    33e6:	d0ed      	beq.n	33c4 <__call_exitprocs+0x48>
    33e8:	6863      	ldr	r3, [r4, #4]
    33ea:	9301      	str	r3, [sp, #4]
    33ec:	b13f      	cbz	r7, 33fe <__call_exitprocs+0x82>
    33ee:	f8d7 1100 	ldr.w	r1, [r7, #256]	; 0x100
    33f2:	2301      	movs	r3, #1
    33f4:	fa03 fc06 	lsl.w	ip, r3, r6
    33f8:	ea1c 0f01 	tst.w	ip, r1
    33fc:	d109      	bne.n	3412 <__call_exitprocs+0x96>
    33fe:	4790      	blx	r2
    3400:	6861      	ldr	r1, [r4, #4]
    3402:	9b01      	ldr	r3, [sp, #4]
    3404:	f8da 2000 	ldr.w	r2, [sl]
    3408:	4299      	cmp	r1, r3
    340a:	d1c3      	bne.n	3394 <__call_exitprocs+0x18>
    340c:	4294      	cmp	r4, r2
    340e:	d0d9      	beq.n	33c4 <__call_exitprocs+0x48>
    3410:	e7c0      	b.n	3394 <__call_exitprocs+0x18>
    3412:	f8d7 0104 	ldr.w	r0, [r7, #260]	; 0x104
    3416:	f857 1026 	ldr.w	r1, [r7, r6, lsl #2]
    341a:	ea1c 0f00 	tst.w	ip, r0
    341e:	d102      	bne.n	3426 <__call_exitprocs+0xaa>
    3420:	4640      	mov	r0, r8
    3422:	4790      	blx	r2
    3424:	e7ec      	b.n	3400 <__call_exitprocs+0x84>
    3426:	4608      	mov	r0, r1
    3428:	4790      	blx	r2
    342a:	e7e9      	b.n	3400 <__call_exitprocs+0x84>
    342c:	20000020 	.word	0x20000020
    3430:	2000075c 	.word	0x2000075c

00003434 <_exit>:
    3434:	e7fe      	b.n	3434 <_exit>
    3436:	bf00      	nop

00003438 <_init>:
    3438:	b5f8      	push	{r3, r4, r5, r6, r7, lr}
    343a:	bf00      	nop
    343c:	bcf8      	pop	{r3, r4, r5, r6, r7}
    343e:	bc08      	pop	{r3}
    3440:	469e      	mov	lr, r3
    3442:	4770      	bx	lr

00003444 <_fini>:
    3444:	b5f8      	push	{r3, r4, r5, r6, r7, lr}
    3446:	bf00      	nop
    3448:	bcf8      	pop	{r3, r4, r5, r6, r7}
    344a:	bc08      	pop	{r3}
    344c:	469e      	mov	lr, r3
    344e:	4770      	bx	lr
    3450:	ffffffff 	.word	0xffffffff
    3454:	ffffffff 	.word	0xffffffff
    3458:	ffffffff 	.word	0xffffffff
    345c:	ffffffff 	.word	0xffffffff
	...
    3468:	01d60000 	.word	0x01d60000
    346c:	00000106 	.word	0x00000106

00003470 <nrf_log_backend_uart_api>:
    3470:	000003d5 00000445 000003d1 74726175     ....E.......uart
    3480:	676f6c5f 6361625f 646e656b 00000000     _log_backend....
    3490:	6b636142 73646e65 756c6620 64656873     Backends flushed
    34a0:	00000000 00707061                       ....app.

000034a8 <m_log_push_ringbuf>:
    34a8:	20000580 0000007f 20000600 3b315b1b     ... ....... .[1;
    34b8:	006d3133 6f4c7325 64207367 70706f72     31m.%sLogs dropp
    34c8:	28206465 25296425 000a0d73 6d305b1b     ed (%d)%s....[0m
    34d8:	00000000 00007325 3e73253c 3a732520     ....%s..<%s> %s:
    34e8:	00000020 00000a0d 32302520 00000078      ....... %02x...
    34f8:	00202020 0000007c 00006325 3b315b1b        .|...%c...[1;
    3508:	006d3033 3b315b1b 006d3233 3b315b1b     30m..[1;32m..[1;
    3518:	006d3333 3b315b1b 006d3433 3b315b1b     33m..[1;34m..[1;
    3528:	006d3533 3b315b1b 006d3633 3b315b1b     35m..[1;36m..[1;
    3538:	006d3733 6f727265 00000072 6e726177     37m.error...warn
    3548:	00676e69 6f666e69 00000000 75626564     ing.info....debu
    3558:	00000067                                g...

0000355c <m_colors>:
    355c:	000034d4 00003504 000034b4 0000350c     .4...5...4...5..
    356c:	00003514 0000351c 00003524 0000352c     .5...5..$5..,5..
    357c:	00003534                                45..

00003580 <severity_names>:
    3580:	00000000 0000353c 00003544 0000354c     ....<5..D5..L5..
    3590:	00003554 61746146 7265206c 00726f72     T5..Fatal error.
    35a0:	74737953 72206d65 74657365 00000000     System reset....

000035b0 <_aV2C.0>:
    35b0:	33323130 37363534 42413938 46454443     0123456789ABCDEF

000035c0 <delay_machine_code.0>:
    35c0:	d8fd3803 00004770 00535250 4d495754     .8..pG..PRS.TWIM
    35d0:	00000000 54524155 00000000 54524155     ....UART....UART
    35e0:	00000045 706d6554 74617265 3a657275     E...Temperature:
    35f0:	20642520 736c6543 20737569 72676564      %d Celsius degr
    3600:	2e736565 00000000 57540a0d 65732049     ees.......TWI se
    3610:	726f736e 61786520 656c706d 61747320     nsor example sta
    3620:	64657472 0000002e 00000000 00000000     rted............

00003630 <delay_machine_code.0>:
    3630:	d8fd3803 00004770                       .8..pG..

00003638 <m_twi>:
    3638:	00000000 40003000 00000000 00000001     .....0.@........

00003648 <CSWTCH.15>:
    3648:	01010000                                ....

0000364c <CSWTCH.19>:
    364c:	01000000                                ....

00003650 <CSWTCH.5>:
    3650:	00000001                                ....

00003654 <_ctype_>:
    3654:	20202000 20202020 28282020 20282828     .         ((((( 
    3664:	20202020 20202020 20202020 20202020                     
    3674:	10108820 10101010 10101010 10101010      ...............
    3684:	04040410 04040404 10040404 10101010     ................
    3694:	41411010 41414141 01010101 01010101     ..AAAAAA........
    36a4:	01010101 01010101 01010101 10101010     ................
    36b4:	42421010 42424242 02020202 02020202     ..BBBBBB........
    36c4:	02020202 02020202 02020202 10101010     ................
    36d4:	00000020 00000000 00000000 00000000      ...............
	...

00003758 <__EH_FRAME_BEGIN__>:
    3758:	00000000                                ....
