
twi_sensor-o0.elf:     file format elf32-littlearm


Disassembly of section .text:

00000000 <__isr_vector>:
       0:	20010000 	.word	0x20010000
       4:	000002b1 	.word	0x000002b1
       8:	000002d9 	.word	0x000002d9
       c:	000002db 	.word	0x000002db
      10:	000002dd 	.word	0x000002dd
      14:	000002df 	.word	0x000002df
      18:	000002e1 	.word	0x000002e1
	...
      2c:	000002e3 	.word	0x000002e3
      30:	000002e5 	.word	0x000002e5
      34:	00000000 	.word	0x00000000
      38:	000002e7 	.word	0x000002e7
      3c:	000002e9 	.word	0x000002e9
      40:	000002eb 	.word	0x000002eb
      44:	000002eb 	.word	0x000002eb
      48:	00002701 	.word	0x00002701
      4c:	00003661 	.word	0x00003661
      50:	000002eb 	.word	0x000002eb
      54:	000002eb 	.word	0x000002eb
      58:	000002eb 	.word	0x000002eb
      5c:	000002eb 	.word	0x000002eb
      60:	000002eb 	.word	0x000002eb
      64:	000002eb 	.word	0x000002eb
      68:	000002eb 	.word	0x000002eb
      6c:	000002eb 	.word	0x000002eb
      70:	000002eb 	.word	0x000002eb
      74:	000002eb 	.word	0x000002eb
      78:	000002eb 	.word	0x000002eb
      7c:	000002eb 	.word	0x000002eb
      80:	000002eb 	.word	0x000002eb
      84:	000002eb 	.word	0x000002eb
      88:	000002eb 	.word	0x000002eb
      8c:	000002eb 	.word	0x000002eb
      90:	000002eb 	.word	0x000002eb
      94:	000002eb 	.word	0x000002eb
      98:	000002eb 	.word	0x000002eb
      9c:	000002eb 	.word	0x000002eb
      a0:	000002eb 	.word	0x000002eb
      a4:	000002eb 	.word	0x000002eb
      a8:	000002eb 	.word	0x000002eb
      ac:	000002eb 	.word	0x000002eb
      b0:	000002eb 	.word	0x000002eb
      b4:	000002eb 	.word	0x000002eb
	...
      c0:	000002eb 	.word	0x000002eb
      c4:	000002eb 	.word	0x000002eb
      c8:	000002eb 	.word	0x000002eb
      cc:	000002eb 	.word	0x000002eb
      d0:	000002eb 	.word	0x000002eb
      d4:	000002eb 	.word	0x000002eb
      d8:	000002eb 	.word	0x000002eb
	...

00000200 <__do_global_dtors_aux>:
     200:	b510      	push	{r4, lr}
     202:	4c05      	ldr	r4, [pc, #20]	; (218 <__do_global_dtors_aux+0x18>)
     204:	7823      	ldrb	r3, [r4, #0]
     206:	b933      	cbnz	r3, 216 <__do_global_dtors_aux+0x16>
     208:	4b04      	ldr	r3, [pc, #16]	; (21c <__do_global_dtors_aux+0x1c>)
     20a:	b113      	cbz	r3, 212 <__do_global_dtors_aux+0x12>
     20c:	4804      	ldr	r0, [pc, #16]	; (220 <__do_global_dtors_aux+0x20>)
     20e:	f3af 8000 	nop.w
     212:	2301      	movs	r3, #1
     214:	7023      	strb	r3, [r4, #0]
     216:	bd10      	pop	{r4, pc}
     218:	20000068 	.word	0x20000068
     21c:	00000000 	.word	0x00000000
     220:	00006058 	.word	0x00006058

00000224 <frame_dummy>:
     224:	b508      	push	{r3, lr}
     226:	4b03      	ldr	r3, [pc, #12]	; (234 <frame_dummy+0x10>)
     228:	b11b      	cbz	r3, 232 <frame_dummy+0xe>
     22a:	4903      	ldr	r1, [pc, #12]	; (238 <frame_dummy+0x14>)
     22c:	4803      	ldr	r0, [pc, #12]	; (23c <frame_dummy+0x18>)
     22e:	f3af 8000 	nop.w
     232:	bd08      	pop	{r3, pc}
     234:	00000000 	.word	0x00000000
     238:	2000006c 	.word	0x2000006c
     23c:	00006058 	.word	0x00006058

00000240 <_stack_init>:
     240:	f5a3 3a80 	sub.w	sl, r3, #65536	; 0x10000
     244:	4770      	bx	lr
     246:	bf00      	nop

00000248 <_mainCRTStartup>:
     248:	4b15      	ldr	r3, [pc, #84]	; (2a0 <_mainCRTStartup+0x58>)
     24a:	2b00      	cmp	r3, #0
     24c:	bf08      	it	eq
     24e:	4b11      	ldreq	r3, [pc, #68]	; (294 <_mainCRTStartup+0x4c>)
     250:	469d      	mov	sp, r3
     252:	f7ff fff5 	bl	240 <_stack_init>
     256:	2100      	movs	r1, #0
     258:	468b      	mov	fp, r1
     25a:	460f      	mov	r7, r1
     25c:	4811      	ldr	r0, [pc, #68]	; (2a4 <_mainCRTStartup+0x5c>)
     25e:	4a12      	ldr	r2, [pc, #72]	; (2a8 <_mainCRTStartup+0x60>)
     260:	1a12      	subs	r2, r2, r0
     262:	f005 fc6b 	bl	5b3c <memset>
     266:	4b0c      	ldr	r3, [pc, #48]	; (298 <_mainCRTStartup+0x50>)
     268:	2b00      	cmp	r3, #0
     26a:	d000      	beq.n	26e <_mainCRTStartup+0x26>
     26c:	4798      	blx	r3
     26e:	4b0b      	ldr	r3, [pc, #44]	; (29c <_mainCRTStartup+0x54>)
     270:	2b00      	cmp	r3, #0
     272:	d000      	beq.n	276 <_mainCRTStartup+0x2e>
     274:	4798      	blx	r3
     276:	2000      	movs	r0, #0
     278:	2100      	movs	r1, #0
     27a:	0004      	movs	r4, r0
     27c:	000d      	movs	r5, r1
     27e:	480b      	ldr	r0, [pc, #44]	; (2ac <_mainCRTStartup+0x64>)
     280:	f005 fc44 	bl	5b0c <atexit>
     284:	f005 fc62 	bl	5b4c <__libc_init_array>
     288:	0020      	movs	r0, r4
     28a:	0029      	movs	r1, r5
     28c:	f004 ffbc 	bl	5208 <main>
     290:	f005 fc42 	bl	5b18 <exit>
     294:	00080000 	.word	0x00080000
	...
     2a0:	20010000 	.word	0x20010000
     2a4:	20000068 	.word	0x20000068
     2a8:	20000798 	.word	0x20000798
     2ac:	00005b95 	.word	0x00005b95

000002b0 <Reset_Handler>:
     2b0:	4906      	ldr	r1, [pc, #24]	; (2cc <Reset_Handler+0x1c>)
     2b2:	4a07      	ldr	r2, [pc, #28]	; (2d0 <Reset_Handler+0x20>)
     2b4:	4b07      	ldr	r3, [pc, #28]	; (2d4 <Reset_Handler+0x24>)
     2b6:	1a9b      	subs	r3, r3, r2
     2b8:	dd03      	ble.n	2c2 <Reset_Handler+0x12>
     2ba:	3b04      	subs	r3, #4
     2bc:	58c8      	ldr	r0, [r1, r3]
     2be:	50d0      	str	r0, [r2, r3]
     2c0:	dcfb      	bgt.n	2ba <Reset_Handler+0xa>
     2c2:	f005 fab5 	bl	5830 <SystemInit>
     2c6:	f7ff ffbf 	bl	248 <_mainCRTStartup>
     2ca:	0000      	.short	0x0000
     2cc:	000060b0 	.word	0x000060b0
     2d0:	20000000 	.word	0x20000000
     2d4:	20000068 	.word	0x20000068

000002d8 <NMI_Handler>:
     2d8:	e7fe      	b.n	2d8 <NMI_Handler>

000002da <HardFault_Handler>:
     2da:	e7fe      	b.n	2da <HardFault_Handler>

000002dc <MemoryManagement_Handler>:
     2dc:	e7fe      	b.n	2dc <MemoryManagement_Handler>

000002de <BusFault_Handler>:
     2de:	e7fe      	b.n	2de <BusFault_Handler>

000002e0 <UsageFault_Handler>:
     2e0:	e7fe      	b.n	2e0 <UsageFault_Handler>

000002e2 <SVC_Handler>:
     2e2:	e7fe      	b.n	2e2 <SVC_Handler>

000002e4 <DebugMon_Handler>:
     2e4:	e7fe      	b.n	2e4 <DebugMon_Handler>

000002e6 <PendSV_Handler>:
     2e6:	e7fe      	b.n	2e6 <PendSV_Handler>

000002e8 <SysTick_Handler>:
     2e8:	e7fe      	b.n	2e8 <SysTick_Handler>

000002ea <Default_Handler>:
     2ea:	e7fe      	b.n	2ea <Default_Handler>

000002ec <nrf_log_backend_serial_put>:
     2ec:	b580      	push	{r7, lr}
     2ee:	b0a0      	sub	sp, #128	; 0x80
     2f0:	af02      	add	r7, sp, #8
     2f2:	60f8      	str	r0, [r7, #12]
     2f4:	60b9      	str	r1, [r7, #8]
     2f6:	607a      	str	r2, [r7, #4]
     2f8:	603b      	str	r3, [r7, #0]
     2fa:	68b8      	ldr	r0, [r7, #8]
     2fc:	f001 fee6 	bl	20cc <nrf_memobj_get>
     300:	687b      	ldr	r3, [r7, #4]
     302:	64fb      	str	r3, [r7, #76]	; 0x4c
     304:	683b      	ldr	r3, [r7, #0]
     306:	653b      	str	r3, [r7, #80]	; 0x50
     308:	2300      	movs	r3, #0
     30a:	657b      	str	r3, [r7, #84]	; 0x54
     30c:	2300      	movs	r3, #0
     30e:	f887 3058 	strb.w	r3, [r7, #88]	; 0x58
     312:	2300      	movs	r3, #0
     314:	65fb      	str	r3, [r7, #92]	; 0x5c
     316:	f8d7 3080 	ldr.w	r3, [r7, #128]	; 0x80
     31a:	663b      	str	r3, [r7, #96]	; 0x60
     31c:	2300      	movs	r3, #0
     31e:	677b      	str	r3, [r7, #116]	; 0x74
     320:	f107 0134 	add.w	r1, r7, #52	; 0x34
     324:	6f7b      	ldr	r3, [r7, #116]	; 0x74
     326:	2208      	movs	r2, #8
     328:	68b8      	ldr	r0, [r7, #8]
     32a:	f001 ff93 	bl	2254 <nrf_memobj_read>
     32e:	2308      	movs	r3, #8
     330:	677b      	str	r3, [r7, #116]	; 0x74
     332:	6bfb      	ldr	r3, [r7, #60]	; 0x3c
     334:	643b      	str	r3, [r7, #64]	; 0x40
     336:	8f3b      	ldrh	r3, [r7, #56]	; 0x38
     338:	f8a7 3044 	strh.w	r3, [r7, #68]	; 0x44
     33c:	8f7b      	ldrh	r3, [r7, #58]	; 0x3a
     33e:	f8a7 3046 	strh.w	r3, [r7, #70]	; 0x46
     342:	2300      	movs	r3, #0
     344:	f887 3049 	strb.w	r3, [r7, #73]	; 0x49
     348:	f897 3034 	ldrb.w	r3, [r7, #52]	; 0x34
     34c:	f003 0303 	and.w	r3, r3, #3
     350:	b2db      	uxtb	r3, r3
     352:	2b01      	cmp	r3, #1
     354:	d129      	bne.n	3aa <nrf_log_backend_serial_put+0xbe>
     356:	6b7b      	ldr	r3, [r7, #52]	; 0x34
     358:	f3c3 2395 	ubfx	r3, r3, #10, #22
     35c:	66bb      	str	r3, [r7, #104]	; 0x68
     35e:	f897 3034 	ldrb.w	r3, [r7, #52]	; 0x34
     362:	f3c3 03c2 	ubfx	r3, r3, #3, #3
     366:	b2db      	uxtb	r3, r3
     368:	f887 3048 	strb.w	r3, [r7, #72]	; 0x48
     36c:	8ebb      	ldrh	r3, [r7, #52]	; 0x34
     36e:	f3c3 1383 	ubfx	r3, r3, #6, #4
     372:	b2db      	uxtb	r3, r3
     374:	667b      	str	r3, [r7, #100]	; 0x64
     376:	6e7b      	ldr	r3, [r7, #100]	; 0x64
     378:	009a      	lsls	r2, r3, #2
     37a:	f107 011c 	add.w	r1, r7, #28
     37e:	6f7b      	ldr	r3, [r7, #116]	; 0x74
     380:	68b8      	ldr	r0, [r7, #8]
     382:	f001 ff67 	bl	2254 <nrf_memobj_read>
     386:	6e7b      	ldr	r3, [r7, #100]	; 0x64
     388:	009b      	lsls	r3, r3, #2
     38a:	6f7a      	ldr	r2, [r7, #116]	; 0x74
     38c:	4413      	add	r3, r2
     38e:	677b      	str	r3, [r7, #116]	; 0x74
     390:	f107 0240 	add.w	r2, r7, #64	; 0x40
     394:	f107 011c 	add.w	r1, r7, #28
     398:	f107 034c 	add.w	r3, r7, #76	; 0x4c
     39c:	9300      	str	r3, [sp, #0]
     39e:	4613      	mov	r3, r2
     3a0:	6e7a      	ldr	r2, [r7, #100]	; 0x64
     3a2:	6eb8      	ldr	r0, [r7, #104]	; 0x68
     3a4:	f000 ff8e 	bl	12c4 <nrf_log_std_entry_process>
     3a8:	e032      	b.n	410 <nrf_log_backend_serial_put+0x124>
     3aa:	f897 3034 	ldrb.w	r3, [r7, #52]	; 0x34
     3ae:	f003 0303 	and.w	r3, r3, #3
     3b2:	b2db      	uxtb	r3, r3
     3b4:	2b02      	cmp	r3, #2
     3b6:	d12b      	bne.n	410 <nrf_log_backend_serial_put+0x124>
     3b8:	8efb      	ldrh	r3, [r7, #54]	; 0x36
     3ba:	f3c3 1389 	ubfx	r3, r3, #6, #10
     3be:	b29b      	uxth	r3, r3
     3c0:	673b      	str	r3, [r7, #112]	; 0x70
     3c2:	f897 3034 	ldrb.w	r3, [r7, #52]	; 0x34
     3c6:	f3c3 03c2 	ubfx	r3, r3, #3, #3
     3ca:	b2db      	uxtb	r3, r3
     3cc:	f887 3048 	strb.w	r3, [r7, #72]	; 0x48
     3d0:	6f3b      	ldr	r3, [r7, #112]	; 0x70
     3d2:	2b08      	cmp	r3, #8
     3d4:	bf28      	it	cs
     3d6:	2308      	movcs	r3, #8
     3d8:	66fb      	str	r3, [r7, #108]	; 0x6c
     3da:	f107 0114 	add.w	r1, r7, #20
     3de:	6f7b      	ldr	r3, [r7, #116]	; 0x74
     3e0:	6efa      	ldr	r2, [r7, #108]	; 0x6c
     3e2:	68b8      	ldr	r0, [r7, #8]
     3e4:	f001 ff36 	bl	2254 <nrf_memobj_read>
     3e8:	6f7a      	ldr	r2, [r7, #116]	; 0x74
     3ea:	6efb      	ldr	r3, [r7, #108]	; 0x6c
     3ec:	4413      	add	r3, r2
     3ee:	677b      	str	r3, [r7, #116]	; 0x74
     3f0:	6f3a      	ldr	r2, [r7, #112]	; 0x70
     3f2:	6efb      	ldr	r3, [r7, #108]	; 0x6c
     3f4:	1ad3      	subs	r3, r2, r3
     3f6:	673b      	str	r3, [r7, #112]	; 0x70
     3f8:	f107 034c 	add.w	r3, r7, #76	; 0x4c
     3fc:	f107 0240 	add.w	r2, r7, #64	; 0x40
     400:	f107 0014 	add.w	r0, r7, #20
     404:	6ef9      	ldr	r1, [r7, #108]	; 0x6c
     406:	f000 ffff 	bl	1408 <nrf_log_hexdump_entry_process>
     40a:	6f3b      	ldr	r3, [r7, #112]	; 0x70
     40c:	2b00      	cmp	r3, #0
     40e:	d1df      	bne.n	3d0 <nrf_log_backend_serial_put+0xe4>
     410:	68b8      	ldr	r0, [r7, #8]
     412:	f001 fe6b 	bl	20ec <nrf_memobj_put>
     416:	bf00      	nop
     418:	3778      	adds	r7, #120	; 0x78
     41a:	46bd      	mov	sp, r7
     41c:	bd80      	pop	{r7, pc}
	...

00000420 <nrf_drv_uart_uninit>:
     420:	b580      	push	{r7, lr}
     422:	b082      	sub	sp, #8
     424:	af00      	add	r7, sp, #0
     426:	6078      	str	r0, [r7, #4]
     428:	687b      	ldr	r3, [r7, #4]
     42a:	781b      	ldrb	r3, [r3, #0]
     42c:	461a      	mov	r2, r3
     42e:	4b0d      	ldr	r3, [pc, #52]	; (464 <nrf_drv_uart_uninit+0x44>)
     430:	5c9b      	ldrb	r3, [r3, r2]
     432:	2b00      	cmp	r3, #0
     434:	d005      	beq.n	442 <nrf_drv_uart_uninit+0x22>
     436:	687b      	ldr	r3, [r7, #4]
     438:	3304      	adds	r3, #4
     43a:	4618      	mov	r0, r3
     43c:	f004 fb8a 	bl	4b54 <nrfx_uarte_uninit>
     440:	e00b      	b.n	45a <nrf_drv_uart_uninit+0x3a>
     442:	687b      	ldr	r3, [r7, #4]
     444:	781b      	ldrb	r3, [r3, #0]
     446:	461a      	mov	r2, r3
     448:	4b06      	ldr	r3, [pc, #24]	; (464 <nrf_drv_uart_uninit+0x44>)
     44a:	5c9b      	ldrb	r3, [r3, r2]
     44c:	2b00      	cmp	r3, #0
     44e:	d104      	bne.n	45a <nrf_drv_uart_uninit+0x3a>
     450:	687b      	ldr	r3, [r7, #4]
     452:	330c      	adds	r3, #12
     454:	4618      	mov	r0, r3
     456:	f003 fd01 	bl	3e5c <nrfx_uart_uninit>
     45a:	bf00      	nop
     45c:	3708      	adds	r7, #8
     45e:	46bd      	mov	sp, r7
     460:	bd80      	pop	{r7, pc}
     462:	bf00      	nop
     464:	2000066c 	.word	0x2000066c

00000468 <nrf_drv_uart_tx>:
     468:	b580      	push	{r7, lr}
     46a:	b086      	sub	sp, #24
     46c:	af00      	add	r7, sp, #0
     46e:	60f8      	str	r0, [r7, #12]
     470:	60b9      	str	r1, [r7, #8]
     472:	4613      	mov	r3, r2
     474:	71fb      	strb	r3, [r7, #7]
     476:	2300      	movs	r3, #0
     478:	617b      	str	r3, [r7, #20]
     47a:	68fb      	ldr	r3, [r7, #12]
     47c:	781b      	ldrb	r3, [r3, #0]
     47e:	461a      	mov	r2, r3
     480:	4b10      	ldr	r3, [pc, #64]	; (4c4 <nrf_drv_uart_tx+0x5c>)
     482:	5c9b      	ldrb	r3, [r3, r2]
     484:	2b00      	cmp	r3, #0
     486:	d008      	beq.n	49a <nrf_drv_uart_tx+0x32>
     488:	68fb      	ldr	r3, [r7, #12]
     48a:	3304      	adds	r3, #4
     48c:	79fa      	ldrb	r2, [r7, #7]
     48e:	68b9      	ldr	r1, [r7, #8]
     490:	4618      	mov	r0, r3
     492:	f004 fbc3 	bl	4c1c <nrfx_uarte_tx>
     496:	6178      	str	r0, [r7, #20]
     498:	e00e      	b.n	4b8 <nrf_drv_uart_tx+0x50>
     49a:	68fb      	ldr	r3, [r7, #12]
     49c:	781b      	ldrb	r3, [r3, #0]
     49e:	461a      	mov	r2, r3
     4a0:	4b08      	ldr	r3, [pc, #32]	; (4c4 <nrf_drv_uart_tx+0x5c>)
     4a2:	5c9b      	ldrb	r3, [r3, r2]
     4a4:	2b00      	cmp	r3, #0
     4a6:	d107      	bne.n	4b8 <nrf_drv_uart_tx+0x50>
     4a8:	68fb      	ldr	r3, [r7, #12]
     4aa:	330c      	adds	r3, #12
     4ac:	79fa      	ldrb	r2, [r7, #7]
     4ae:	68b9      	ldr	r1, [r7, #8]
     4b0:	4618      	mov	r0, r3
     4b2:	f003 fd4b 	bl	3f4c <nrfx_uart_tx>
     4b6:	6178      	str	r0, [r7, #20]
     4b8:	697b      	ldr	r3, [r7, #20]
     4ba:	4618      	mov	r0, r3
     4bc:	3718      	adds	r7, #24
     4be:	46bd      	mov	sp, r7
     4c0:	bd80      	pop	{r7, pc}
     4c2:	bf00      	nop
     4c4:	2000066c 	.word	0x2000066c

000004c8 <uart_evt_handler>:
     4c8:	b480      	push	{r7}
     4ca:	b083      	sub	sp, #12
     4cc:	af00      	add	r7, sp, #0
     4ce:	6078      	str	r0, [r7, #4]
     4d0:	6039      	str	r1, [r7, #0]
     4d2:	4b04      	ldr	r3, [pc, #16]	; (4e4 <uart_evt_handler+0x1c>)
     4d4:	2201      	movs	r2, #1
     4d6:	701a      	strb	r2, [r3, #0]
     4d8:	bf00      	nop
     4da:	370c      	adds	r7, #12
     4dc:	46bd      	mov	sp, r7
     4de:	f85d 7b04 	ldr.w	r7, [sp], #4
     4e2:	4770      	bx	lr
     4e4:	200000c4 	.word	0x200000c4

000004e8 <uart_init>:
     4e8:	b5b0      	push	{r4, r5, r7, lr}
     4ea:	b08c      	sub	sp, #48	; 0x30
     4ec:	af00      	add	r7, sp, #0
     4ee:	4603      	mov	r3, r0
     4f0:	71fb      	strb	r3, [r7, #7]
     4f2:	4b1a      	ldr	r3, [pc, #104]	; (55c <uart_init+0x74>)
     4f4:	f107 0408 	add.w	r4, r7, #8
     4f8:	461d      	mov	r5, r3
     4fa:	cd0f      	ldmia	r5!, {r0, r1, r2, r3}
     4fc:	c40f      	stmia	r4!, {r0, r1, r2, r3}
     4fe:	e895 000f 	ldmia.w	r5, {r0, r1, r2, r3}
     502:	e884 000f 	stmia.w	r4, {r0, r1, r2, r3}
     506:	2306      	movs	r3, #6
     508:	60bb      	str	r3, [r7, #8]
     50a:	f04f 33ff 	mov.w	r3, #4294967295	; 0xffffffff
     50e:	60fb      	str	r3, [r7, #12]
     510:	f04f 33ff 	mov.w	r3, #4294967295	; 0xffffffff
     514:	613b      	str	r3, [r7, #16]
     516:	f04f 33ff 	mov.w	r3, #4294967295	; 0xffffffff
     51a:	617b      	str	r3, [r7, #20]
     51c:	f04f 73eb 	mov.w	r3, #30801920	; 0x1d60000
     520:	623b      	str	r3, [r7, #32]
     522:	79fb      	ldrb	r3, [r7, #7]
     524:	2b00      	cmp	r3, #0
     526:	d001      	beq.n	52c <uart_init+0x44>
     528:	4a0d      	ldr	r2, [pc, #52]	; (560 <uart_init+0x78>)
     52a:	e000      	b.n	52e <uart_init+0x46>
     52c:	2200      	movs	r2, #0
     52e:	f107 0308 	add.w	r3, r7, #8
     532:	4619      	mov	r1, r3
     534:	480b      	ldr	r0, [pc, #44]	; (564 <uart_init+0x7c>)
     536:	f002 f87d 	bl	2634 <nrf_drv_uart_init>
     53a:	62f8      	str	r0, [r7, #44]	; 0x2c
     53c:	6afb      	ldr	r3, [r7, #44]	; 0x2c
     53e:	62bb      	str	r3, [r7, #40]	; 0x28
     540:	6abb      	ldr	r3, [r7, #40]	; 0x28
     542:	2b00      	cmp	r3, #0
     544:	d002      	beq.n	54c <uart_init+0x64>
     546:	6ab8      	ldr	r0, [r7, #40]	; 0x28
     548:	f000 ffd6 	bl	14f8 <app_error_handler_bare>
     54c:	4a06      	ldr	r2, [pc, #24]	; (568 <uart_init+0x80>)
     54e:	79fb      	ldrb	r3, [r7, #7]
     550:	7013      	strb	r3, [r2, #0]
     552:	bf00      	nop
     554:	3730      	adds	r7, #48	; 0x30
     556:	46bd      	mov	sp, r7
     558:	bdb0      	pop	{r4, r5, r7, pc}
     55a:	bf00      	nop
     55c:	00005d7c 	.word	0x00005d7c
     560:	000004c9 	.word	0x000004c9
     564:	20000000 	.word	0x20000000
     568:	200000c5 	.word	0x200000c5

0000056c <nrf_log_backend_uart_init>:
     56c:	b580      	push	{r7, lr}
     56e:	b082      	sub	sp, #8
     570:	af00      	add	r7, sp, #0
     572:	2301      	movs	r3, #1
     574:	71fb      	strb	r3, [r7, #7]
     576:	79fb      	ldrb	r3, [r7, #7]
     578:	4618      	mov	r0, r3
     57a:	f7ff ffb5 	bl	4e8 <uart_init>
     57e:	bf00      	nop
     580:	3708      	adds	r7, #8
     582:	46bd      	mov	sp, r7
     584:	bd80      	pop	{r7, pc}
	...

00000588 <serial_tx>:
     588:	b580      	push	{r7, lr}
     58a:	b088      	sub	sp, #32
     58c:	af00      	add	r7, sp, #0
     58e:	60f8      	str	r0, [r7, #12]
     590:	60b9      	str	r1, [r7, #8]
     592:	607a      	str	r2, [r7, #4]
     594:	687b      	ldr	r3, [r7, #4]
     596:	77fb      	strb	r3, [r7, #31]
     598:	4b11      	ldr	r3, [pc, #68]	; (5e0 <serial_tx+0x58>)
     59a:	2200      	movs	r2, #0
     59c:	701a      	strb	r2, [r3, #0]
     59e:	7ffb      	ldrb	r3, [r7, #31]
     5a0:	461a      	mov	r2, r3
     5a2:	68b9      	ldr	r1, [r7, #8]
     5a4:	480f      	ldr	r0, [pc, #60]	; (5e4 <serial_tx+0x5c>)
     5a6:	f7ff ff5f 	bl	468 <nrf_drv_uart_tx>
     5aa:	61b8      	str	r0, [r7, #24]
     5ac:	69bb      	ldr	r3, [r7, #24]
     5ae:	617b      	str	r3, [r7, #20]
     5b0:	697b      	ldr	r3, [r7, #20]
     5b2:	2b00      	cmp	r3, #0
     5b4:	d002      	beq.n	5bc <serial_tx+0x34>
     5b6:	6978      	ldr	r0, [r7, #20]
     5b8:	f000 ff9e 	bl	14f8 <app_error_handler_bare>
     5bc:	bf00      	nop
     5be:	4b0a      	ldr	r3, [pc, #40]	; (5e8 <serial_tx+0x60>)
     5c0:	781b      	ldrb	r3, [r3, #0]
     5c2:	2b00      	cmp	r3, #0
     5c4:	d007      	beq.n	5d6 <serial_tx+0x4e>
     5c6:	4b06      	ldr	r3, [pc, #24]	; (5e0 <serial_tx+0x58>)
     5c8:	781b      	ldrb	r3, [r3, #0]
     5ca:	b2db      	uxtb	r3, r3
     5cc:	f083 0301 	eor.w	r3, r3, #1
     5d0:	b2db      	uxtb	r3, r3
     5d2:	2b00      	cmp	r3, #0
     5d4:	d1f3      	bne.n	5be <serial_tx+0x36>
     5d6:	bf00      	nop
     5d8:	3720      	adds	r7, #32
     5da:	46bd      	mov	sp, r7
     5dc:	bd80      	pop	{r7, pc}
     5de:	bf00      	nop
     5e0:	200000c4 	.word	0x200000c4
     5e4:	20000000 	.word	0x20000000
     5e8:	200000c5 	.word	0x200000c5

000005ec <nrf_log_backend_uart_put>:
     5ec:	b580      	push	{r7, lr}
     5ee:	b084      	sub	sp, #16
     5f0:	af02      	add	r7, sp, #8
     5f2:	6078      	str	r0, [r7, #4]
     5f4:	6039      	str	r1, [r7, #0]
     5f6:	4b06      	ldr	r3, [pc, #24]	; (610 <nrf_log_backend_uart_put+0x24>)
     5f8:	9300      	str	r3, [sp, #0]
     5fa:	2340      	movs	r3, #64	; 0x40
     5fc:	4a05      	ldr	r2, [pc, #20]	; (614 <nrf_log_backend_uart_put+0x28>)
     5fe:	6839      	ldr	r1, [r7, #0]
     600:	6878      	ldr	r0, [r7, #4]
     602:	f7ff fe73 	bl	2ec <nrf_log_backend_serial_put>
     606:	bf00      	nop
     608:	3708      	adds	r7, #8
     60a:	46bd      	mov	sp, r7
     60c:	bd80      	pop	{r7, pc}
     60e:	bf00      	nop
     610:	00000589 	.word	0x00000589
     614:	20000084 	.word	0x20000084

00000618 <nrf_log_backend_uart_flush>:
     618:	b480      	push	{r7}
     61a:	b083      	sub	sp, #12
     61c:	af00      	add	r7, sp, #0
     61e:	6078      	str	r0, [r7, #4]
     620:	bf00      	nop
     622:	370c      	adds	r7, #12
     624:	46bd      	mov	sp, r7
     626:	f85d 7b04 	ldr.w	r7, [sp], #4
     62a:	4770      	bx	lr

0000062c <nrf_log_backend_uart_panic_set>:
     62c:	b580      	push	{r7, lr}
     62e:	b082      	sub	sp, #8
     630:	af00      	add	r7, sp, #0
     632:	6078      	str	r0, [r7, #4]
     634:	4804      	ldr	r0, [pc, #16]	; (648 <nrf_log_backend_uart_panic_set+0x1c>)
     636:	f7ff fef3 	bl	420 <nrf_drv_uart_uninit>
     63a:	2000      	movs	r0, #0
     63c:	f7ff ff54 	bl	4e8 <uart_init>
     640:	bf00      	nop
     642:	3708      	adds	r7, #8
     644:	46bd      	mov	sp, r7
     646:	bd80      	pop	{r7, pc}
     648:	20000000 	.word	0x20000000

0000064c <nrf_log_backend_enable>:
     64c:	b480      	push	{r7}
     64e:	b083      	sub	sp, #12
     650:	af00      	add	r7, sp, #0
     652:	6078      	str	r0, [r7, #4]
     654:	687b      	ldr	r3, [r7, #4]
     656:	68db      	ldr	r3, [r3, #12]
     658:	2201      	movs	r2, #1
     65a:	715a      	strb	r2, [r3, #5]
     65c:	bf00      	nop
     65e:	370c      	adds	r7, #12
     660:	46bd      	mov	sp, r7
     662:	f85d 7b04 	ldr.w	r7, [sp], #4
     666:	4770      	bx	lr

00000668 <nrf_log_default_backends_init>:
     668:	b580      	push	{r7, lr}
     66a:	b082      	sub	sp, #8
     66c:	af00      	add	r7, sp, #0
     66e:	f04f 33ff 	mov.w	r3, #4294967295	; 0xffffffff
     672:	607b      	str	r3, [r7, #4]
     674:	f7ff ff7a 	bl	56c <nrf_log_backend_uart_init>
     678:	2104      	movs	r1, #4
     67a:	4805      	ldr	r0, [pc, #20]	; (690 <nrf_log_default_backends_init+0x28>)
     67c:	f000 fd34 	bl	10e8 <nrf_log_backend_add>
     680:	6078      	str	r0, [r7, #4]
     682:	4803      	ldr	r0, [pc, #12]	; (690 <nrf_log_default_backends_init+0x28>)
     684:	f7ff ffe2 	bl	64c <nrf_log_backend_enable>
     688:	bf00      	nop
     68a:	3708      	adds	r7, #8
     68c:	46bd      	mov	sp, r7
     68e:	bd80      	pop	{r7, pc}
     690:	00006084 	.word	0x00006084

00000694 <nrf_log_backend_put>:
     694:	b580      	push	{r7, lr}
     696:	b082      	sub	sp, #8
     698:	af00      	add	r7, sp, #0
     69a:	6078      	str	r0, [r7, #4]
     69c:	6039      	str	r1, [r7, #0]
     69e:	687b      	ldr	r3, [r7, #4]
     6a0:	681b      	ldr	r3, [r3, #0]
     6a2:	681b      	ldr	r3, [r3, #0]
     6a4:	6839      	ldr	r1, [r7, #0]
     6a6:	6878      	ldr	r0, [r7, #4]
     6a8:	4798      	blx	r3
     6aa:	bf00      	nop
     6ac:	3708      	adds	r7, #8
     6ae:	46bd      	mov	sp, r7
     6b0:	bd80      	pop	{r7, pc}

000006b2 <nrf_log_backend_panic_set>:
     6b2:	b580      	push	{r7, lr}
     6b4:	b082      	sub	sp, #8
     6b6:	af00      	add	r7, sp, #0
     6b8:	6078      	str	r0, [r7, #4]
     6ba:	687b      	ldr	r3, [r7, #4]
     6bc:	681b      	ldr	r3, [r3, #0]
     6be:	685b      	ldr	r3, [r3, #4]
     6c0:	6878      	ldr	r0, [r7, #4]
     6c2:	4798      	blx	r3
     6c4:	bf00      	nop
     6c6:	3708      	adds	r7, #8
     6c8:	46bd      	mov	sp, r7
     6ca:	bd80      	pop	{r7, pc}

000006cc <nrf_log_backend_flush>:
     6cc:	b580      	push	{r7, lr}
     6ce:	b082      	sub	sp, #8
     6d0:	af00      	add	r7, sp, #0
     6d2:	6078      	str	r0, [r7, #4]
     6d4:	687b      	ldr	r3, [r7, #4]
     6d6:	681b      	ldr	r3, [r3, #0]
     6d8:	689b      	ldr	r3, [r3, #8]
     6da:	6878      	ldr	r0, [r7, #4]
     6dc:	4798      	blx	r3
     6de:	bf00      	nop
     6e0:	3708      	adds	r7, #8
     6e2:	46bd      	mov	sp, r7
     6e4:	bd80      	pop	{r7, pc}

000006e6 <nrf_log_backend_id_set>:
     6e6:	b480      	push	{r7}
     6e8:	b083      	sub	sp, #12
     6ea:	af00      	add	r7, sp, #0
     6ec:	6078      	str	r0, [r7, #4]
     6ee:	460b      	mov	r3, r1
     6f0:	70fb      	strb	r3, [r7, #3]
     6f2:	687b      	ldr	r3, [r7, #4]
     6f4:	68db      	ldr	r3, [r3, #12]
     6f6:	78fa      	ldrb	r2, [r7, #3]
     6f8:	711a      	strb	r2, [r3, #4]
     6fa:	bf00      	nop
     6fc:	370c      	adds	r7, #12
     6fe:	46bd      	mov	sp, r7
     700:	f85d 7b04 	ldr.w	r7, [sp], #4
     704:	4770      	bx	lr

00000706 <nrf_log_backend_id_get>:
     706:	b480      	push	{r7}
     708:	b083      	sub	sp, #12
     70a:	af00      	add	r7, sp, #0
     70c:	6078      	str	r0, [r7, #4]
     70e:	687b      	ldr	r3, [r7, #4]
     710:	68db      	ldr	r3, [r3, #12]
     712:	791b      	ldrb	r3, [r3, #4]
     714:	4618      	mov	r0, r3
     716:	370c      	adds	r7, #12
     718:	46bd      	mov	sp, r7
     71a:	f85d 7b04 	ldr.w	r7, [sp], #4
     71e:	4770      	bx	lr

00000720 <nrf_log_backend_enable>:
     720:	b480      	push	{r7}
     722:	b083      	sub	sp, #12
     724:	af00      	add	r7, sp, #0
     726:	6078      	str	r0, [r7, #4]
     728:	687b      	ldr	r3, [r7, #4]
     72a:	68db      	ldr	r3, [r3, #12]
     72c:	2201      	movs	r2, #1
     72e:	715a      	strb	r2, [r3, #5]
     730:	bf00      	nop
     732:	370c      	adds	r7, #12
     734:	46bd      	mov	sp, r7
     736:	f85d 7b04 	ldr.w	r7, [sp], #4
     73a:	4770      	bx	lr

0000073c <nrf_log_backend_is_enabled>:
     73c:	b480      	push	{r7}
     73e:	b083      	sub	sp, #12
     740:	af00      	add	r7, sp, #0
     742:	6078      	str	r0, [r7, #4]
     744:	687b      	ldr	r3, [r7, #4]
     746:	68db      	ldr	r3, [r3, #12]
     748:	795b      	ldrb	r3, [r3, #5]
     74a:	4618      	mov	r0, r3
     74c:	370c      	adds	r7, #12
     74e:	46bd      	mov	sp, r7
     750:	f85d 7b04 	ldr.w	r7, [sp], #4
     754:	4770      	bx	lr
	...

00000758 <nrf_log_init>:
     758:	b580      	push	{r7, lr}
     75a:	b084      	sub	sp, #16
     75c:	af00      	add	r7, sp, #0
     75e:	6078      	str	r0, [r7, #4]
     760:	6039      	str	r1, [r7, #0]
     762:	4b0c      	ldr	r3, [pc, #48]	; (794 <nrf_log_init+0x3c>)
     764:	2200      	movs	r2, #0
     766:	701a      	strb	r2, [r3, #0]
     768:	480b      	ldr	r0, [pc, #44]	; (798 <nrf_log_init+0x40>)
     76a:	f001 fc15 	bl	1f98 <nrf_memobj_pool_init>
     76e:	60f8      	str	r0, [r7, #12]
     770:	68fb      	ldr	r3, [r7, #12]
     772:	2b00      	cmp	r3, #0
     774:	d001      	beq.n	77a <nrf_log_init+0x22>
     776:	68fb      	ldr	r3, [r7, #12]
     778:	e008      	b.n	78c <nrf_log_init+0x34>
     77a:	4808      	ldr	r0, [pc, #32]	; (79c <nrf_log_init+0x44>)
     77c:	f001 fd80 	bl	2280 <nrf_ringbuf_init>
     780:	4a07      	ldr	r2, [pc, #28]	; (7a0 <nrf_log_init+0x48>)
     782:	4b08      	ldr	r3, [pc, #32]	; (7a4 <nrf_log_init+0x4c>)
     784:	1ad3      	subs	r3, r2, r3
     786:	08db      	lsrs	r3, r3, #3
     788:	60bb      	str	r3, [r7, #8]
     78a:	2300      	movs	r3, #0
     78c:	4618      	mov	r0, r3
     78e:	3710      	adds	r7, #16
     790:	46bd      	mov	sp, r7
     792:	bd80      	pop	{r7, pc}
     794:	20000230 	.word	0x20000230
     798:	00006094 	.word	0x00006094
     79c:	00005dbc 	.word	0x00005dbc
     7a0:	00006084 	.word	0x00006084
     7a4:	0000605c 	.word	0x0000605c

000007a8 <nrf_log_module_cnt_get>:
     7a8:	b480      	push	{r7}
     7aa:	af00      	add	r7, sp, #0
     7ac:	4a04      	ldr	r2, [pc, #16]	; (7c0 <nrf_log_module_cnt_get+0x18>)
     7ae:	4b05      	ldr	r3, [pc, #20]	; (7c4 <nrf_log_module_cnt_get+0x1c>)
     7b0:	1ad3      	subs	r3, r2, r3
     7b2:	08db      	lsrs	r3, r3, #3
     7b4:	4618      	mov	r0, r3
     7b6:	46bd      	mov	sp, r7
     7b8:	f85d 7b04 	ldr.w	r7, [sp], #4
     7bc:	4770      	bx	lr
     7be:	bf00      	nop
     7c0:	00006084 	.word	0x00006084
     7c4:	0000605c 	.word	0x0000605c

000007c8 <module_idx_get>:
     7c8:	b580      	push	{r7, lr}
     7ca:	b086      	sub	sp, #24
     7cc:	af00      	add	r7, sp, #0
     7ce:	6078      	str	r0, [r7, #4]
     7d0:	460b      	mov	r3, r1
     7d2:	70fb      	strb	r3, [r7, #3]
     7d4:	78fb      	ldrb	r3, [r7, #3]
     7d6:	2b00      	cmp	r3, #0
     7d8:	d01f      	beq.n	81a <module_idx_get+0x52>
     7da:	f7ff ffe5 	bl	7a8 <nrf_log_module_cnt_get>
     7de:	6138      	str	r0, [r7, #16]
     7e0:	2300      	movs	r3, #0
     7e2:	617b      	str	r3, [r7, #20]
     7e4:	e013      	b.n	80e <module_idx_get+0x46>
     7e6:	697b      	ldr	r3, [r7, #20]
     7e8:	009b      	lsls	r3, r3, #2
     7ea:	4a0e      	ldr	r2, [pc, #56]	; (824 <module_idx_get+0x5c>)
     7ec:	4413      	add	r3, r2
     7ee:	60fb      	str	r3, [r7, #12]
     7f0:	68fb      	ldr	r3, [r7, #12]
     7f2:	881b      	ldrh	r3, [r3, #0]
     7f4:	461a      	mov	r2, r3
     7f6:	687b      	ldr	r3, [r7, #4]
     7f8:	681b      	ldr	r3, [r3, #0]
     7fa:	429a      	cmp	r2, r3
     7fc:	d104      	bne.n	808 <module_idx_get+0x40>
     7fe:	687b      	ldr	r3, [r7, #4]
     800:	697a      	ldr	r2, [r7, #20]
     802:	601a      	str	r2, [r3, #0]
     804:	2300      	movs	r3, #0
     806:	e009      	b.n	81c <module_idx_get+0x54>
     808:	697b      	ldr	r3, [r7, #20]
     80a:	3301      	adds	r3, #1
     80c:	617b      	str	r3, [r7, #20]
     80e:	697a      	ldr	r2, [r7, #20]
     810:	693b      	ldr	r3, [r7, #16]
     812:	429a      	cmp	r2, r3
     814:	d3e7      	bcc.n	7e6 <module_idx_get+0x1e>
     816:	2305      	movs	r3, #5
     818:	e000      	b.n	81c <module_idx_get+0x54>
     81a:	2300      	movs	r3, #0
     81c:	4618      	mov	r0, r3
     81e:	3718      	adds	r7, #24
     820:	46bd      	mov	sp, r7
     822:	bd80      	pop	{r7, pc}
     824:	20000068 	.word	0x20000068

00000828 <nrf_log_module_name_get>:
     828:	b580      	push	{r7, lr}
     82a:	b084      	sub	sp, #16
     82c:	af00      	add	r7, sp, #0
     82e:	6078      	str	r0, [r7, #4]
     830:	460b      	mov	r3, r1
     832:	70fb      	strb	r3, [r7, #3]
     834:	78fa      	ldrb	r2, [r7, #3]
     836:	1d3b      	adds	r3, r7, #4
     838:	4611      	mov	r1, r2
     83a:	4618      	mov	r0, r3
     83c:	f7ff ffc4 	bl	7c8 <module_idx_get>
     840:	4603      	mov	r3, r0
     842:	2b00      	cmp	r3, #0
     844:	d107      	bne.n	856 <nrf_log_module_name_get+0x2e>
     846:	687b      	ldr	r3, [r7, #4]
     848:	00db      	lsls	r3, r3, #3
     84a:	4a05      	ldr	r2, [pc, #20]	; (860 <nrf_log_module_name_get+0x38>)
     84c:	4413      	add	r3, r2
     84e:	60fb      	str	r3, [r7, #12]
     850:	68fb      	ldr	r3, [r7, #12]
     852:	681b      	ldr	r3, [r3, #0]
     854:	e000      	b.n	858 <nrf_log_module_name_get+0x30>
     856:	2300      	movs	r3, #0
     858:	4618      	mov	r0, r3
     85a:	3710      	adds	r7, #16
     85c:	46bd      	mov	sp, r7
     85e:	bd80      	pop	{r7, pc}
     860:	0000605c 	.word	0x0000605c

00000864 <nrf_log_color_id_get>:
     864:	b480      	push	{r7}
     866:	b085      	sub	sp, #20
     868:	af00      	add	r7, sp, #0
     86a:	6078      	str	r0, [r7, #4]
     86c:	460b      	mov	r3, r1
     86e:	70fb      	strb	r3, [r7, #3]
     870:	687b      	ldr	r3, [r7, #4]
     872:	00db      	lsls	r3, r3, #3
     874:	4a14      	ldr	r2, [pc, #80]	; (8c8 <nrf_log_color_id_get+0x64>)
     876:	4413      	add	r3, r2
     878:	60bb      	str	r3, [r7, #8]
     87a:	78fb      	ldrb	r3, [r7, #3]
     87c:	3b01      	subs	r3, #1
     87e:	2b03      	cmp	r3, #3
     880:	d818      	bhi.n	8b4 <nrf_log_color_id_get+0x50>
     882:	a201      	add	r2, pc, #4	; (adr r2, 888 <nrf_log_color_id_get+0x24>)
     884:	f852 f023 	ldr.w	pc, [r2, r3, lsl #2]
     888:	00000899 	.word	0x00000899
     88c:	0000089f 	.word	0x0000089f
     890:	000008a5 	.word	0x000008a5
     894:	000008ad 	.word	0x000008ad
     898:	2302      	movs	r3, #2
     89a:	73fb      	strb	r3, [r7, #15]
     89c:	e00d      	b.n	8ba <nrf_log_color_id_get+0x56>
     89e:	2304      	movs	r3, #4
     8a0:	73fb      	strb	r3, [r7, #15]
     8a2:	e00a      	b.n	8ba <nrf_log_color_id_get+0x56>
     8a4:	68bb      	ldr	r3, [r7, #8]
     8a6:	791b      	ldrb	r3, [r3, #4]
     8a8:	73fb      	strb	r3, [r7, #15]
     8aa:	e006      	b.n	8ba <nrf_log_color_id_get+0x56>
     8ac:	68bb      	ldr	r3, [r7, #8]
     8ae:	795b      	ldrb	r3, [r3, #5]
     8b0:	73fb      	strb	r3, [r7, #15]
     8b2:	e002      	b.n	8ba <nrf_log_color_id_get+0x56>
     8b4:	2300      	movs	r3, #0
     8b6:	73fb      	strb	r3, [r7, #15]
     8b8:	bf00      	nop
     8ba:	7bfb      	ldrb	r3, [r7, #15]
     8bc:	4618      	mov	r0, r3
     8be:	3714      	adds	r7, #20
     8c0:	46bd      	mov	sp, r7
     8c2:	f85d 7b04 	ldr.w	r7, [sp], #4
     8c6:	4770      	bx	lr
     8c8:	0000605c 	.word	0x0000605c

000008cc <invalid_packets_omit>:
     8cc:	b480      	push	{r7}
     8ce:	b085      	sub	sp, #20
     8d0:	af00      	add	r7, sp, #0
     8d2:	6078      	str	r0, [r7, #4]
     8d4:	6039      	str	r1, [r7, #0]
     8d6:	2300      	movs	r3, #0
     8d8:	73fb      	strb	r3, [r7, #15]
     8da:	687b      	ldr	r3, [r7, #4]
     8dc:	781b      	ldrb	r3, [r3, #0]
     8de:	f003 0304 	and.w	r3, r3, #4
     8e2:	b2db      	uxtb	r3, r3
     8e4:	2b00      	cmp	r3, #0
     8e6:	d023      	beq.n	930 <invalid_packets_omit+0x64>
     8e8:	687b      	ldr	r3, [r7, #4]
     8ea:	781b      	ldrb	r3, [r3, #0]
     8ec:	f3c3 0301 	ubfx	r3, r3, #0, #2
     8f0:	b2db      	uxtb	r3, r3
     8f2:	2b01      	cmp	r3, #1
     8f4:	d002      	beq.n	8fc <invalid_packets_omit+0x30>
     8f6:	2b02      	cmp	r3, #2
     8f8:	d00c      	beq.n	914 <invalid_packets_omit+0x48>
     8fa:	e017      	b.n	92c <invalid_packets_omit+0x60>
     8fc:	683b      	ldr	r3, [r7, #0]
     8fe:	681b      	ldr	r3, [r3, #0]
     900:	687a      	ldr	r2, [r7, #4]
     902:	8812      	ldrh	r2, [r2, #0]
     904:	f3c2 1283 	ubfx	r2, r2, #6, #4
     908:	b2d2      	uxtb	r2, r2
     90a:	4413      	add	r3, r2
     90c:	1c9a      	adds	r2, r3, #2
     90e:	683b      	ldr	r3, [r7, #0]
     910:	601a      	str	r2, [r3, #0]
     912:	e00b      	b.n	92c <invalid_packets_omit+0x60>
     914:	683b      	ldr	r3, [r7, #0]
     916:	681b      	ldr	r3, [r3, #0]
     918:	687a      	ldr	r2, [r7, #4]
     91a:	8852      	ldrh	r2, [r2, #2]
     91c:	f3c2 1289 	ubfx	r2, r2, #6, #10
     920:	b292      	uxth	r2, r2
     922:	4413      	add	r3, r2
     924:	1c9a      	adds	r2, r3, #2
     926:	683b      	ldr	r3, [r7, #0]
     928:	601a      	str	r2, [r3, #0]
     92a:	bf00      	nop
     92c:	2301      	movs	r3, #1
     92e:	73fb      	strb	r3, [r7, #15]
     930:	7bfb      	ldrb	r3, [r7, #15]
     932:	4618      	mov	r0, r3
     934:	3714      	adds	r7, #20
     936:	46bd      	mov	sp, r7
     938:	f85d 7b04 	ldr.w	r7, [sp], #4
     93c:	4770      	bx	lr
	...

00000940 <log_skip>:
     940:	b580      	push	{r7, lr}
     942:	b08a      	sub	sp, #40	; 0x28
     944:	af00      	add	r7, sp, #0
     946:	2300      	movs	r3, #0
     948:	84fb      	strh	r3, [r7, #38]	; 0x26
     94a:	4838      	ldr	r0, [pc, #224]	; (a2c <log_skip+0xec>)
     94c:	f000 feed 	bl	172a <nrf_atomic_flag_set>
     950:	4837      	ldr	r0, [pc, #220]	; (a30 <log_skip+0xf0>)
     952:	f000 feea 	bl	172a <nrf_atomic_flag_set>
     956:	4b37      	ldr	r3, [pc, #220]	; (a34 <log_skip+0xf4>)
     958:	689b      	ldr	r3, [r3, #8]
     95a:	613b      	str	r3, [r7, #16]
     95c:	4b36      	ldr	r3, [pc, #216]	; (a38 <log_skip+0xf8>)
     95e:	681b      	ldr	r3, [r3, #0]
     960:	61bb      	str	r3, [r7, #24]
     962:	693a      	ldr	r2, [r7, #16]
     964:	69bb      	ldr	r3, [r7, #24]
     966:	4013      	ands	r3, r2
     968:	3302      	adds	r3, #2
     96a:	009b      	lsls	r3, r3, #2
     96c:	4a31      	ldr	r2, [pc, #196]	; (a34 <log_skip+0xf4>)
     96e:	4413      	add	r3, r2
     970:	3304      	adds	r3, #4
     972:	623b      	str	r3, [r7, #32]
     974:	f107 0310 	add.w	r3, r7, #16
     978:	4619      	mov	r1, r3
     97a:	6a38      	ldr	r0, [r7, #32]
     97c:	f7ff ffa6 	bl	8cc <invalid_packets_omit>
     980:	4603      	mov	r3, r0
     982:	2b00      	cmp	r3, #0
     984:	d009      	beq.n	99a <log_skip+0x5a>
     986:	693a      	ldr	r2, [r7, #16]
     988:	69bb      	ldr	r3, [r7, #24]
     98a:	4013      	ands	r3, r2
     98c:	3302      	adds	r3, #2
     98e:	009b      	lsls	r3, r3, #2
     990:	4a28      	ldr	r2, [pc, #160]	; (a34 <log_skip+0xf4>)
     992:	4413      	add	r3, r2
     994:	3304      	adds	r3, #4
     996:	623b      	str	r3, [r7, #32]
     998:	e7ec      	b.n	974 <log_skip+0x34>
     99a:	bf00      	nop
     99c:	2300      	movs	r3, #0
     99e:	61fb      	str	r3, [r7, #28]
     9a0:	e011      	b.n	9c6 <log_skip+0x86>
     9a2:	693b      	ldr	r3, [r7, #16]
     9a4:	1c5a      	adds	r2, r3, #1
     9a6:	613a      	str	r2, [r7, #16]
     9a8:	69ba      	ldr	r2, [r7, #24]
     9aa:	4013      	ands	r3, r2
     9ac:	69fa      	ldr	r2, [r7, #28]
     9ae:	0092      	lsls	r2, r2, #2
     9b0:	1d39      	adds	r1, r7, #4
     9b2:	440a      	add	r2, r1
     9b4:	491f      	ldr	r1, [pc, #124]	; (a34 <log_skip+0xf4>)
     9b6:	3302      	adds	r3, #2
     9b8:	009b      	lsls	r3, r3, #2
     9ba:	440b      	add	r3, r1
     9bc:	685b      	ldr	r3, [r3, #4]
     9be:	6013      	str	r3, [r2, #0]
     9c0:	69fb      	ldr	r3, [r7, #28]
     9c2:	3301      	adds	r3, #1
     9c4:	61fb      	str	r3, [r7, #28]
     9c6:	69fb      	ldr	r3, [r7, #28]
     9c8:	2b01      	cmp	r3, #1
     9ca:	d9ea      	bls.n	9a2 <log_skip+0x62>
     9cc:	793b      	ldrb	r3, [r7, #4]
     9ce:	f3c3 0301 	ubfx	r3, r3, #0, #2
     9d2:	b2db      	uxtb	r3, r3
     9d4:	2b01      	cmp	r3, #1
     9d6:	d00d      	beq.n	9f4 <log_skip+0xb4>
     9d8:	2b02      	cmp	r3, #2
     9da:	d116      	bne.n	a0a <log_skip+0xca>
     9dc:	897b      	ldrh	r3, [r7, #10]
     9de:	84fb      	strh	r3, [r7, #38]	; 0x26
     9e0:	88fb      	ldrh	r3, [r7, #6]
     9e2:	f3c3 1389 	ubfx	r3, r3, #6, #10
     9e6:	b29b      	uxth	r3, r3
     9e8:	3303      	adds	r3, #3
     9ea:	089a      	lsrs	r2, r3, #2
     9ec:	693b      	ldr	r3, [r7, #16]
     9ee:	4413      	add	r3, r2
     9f0:	613b      	str	r3, [r7, #16]
     9f2:	e00b      	b.n	a0c <log_skip+0xcc>
     9f4:	897b      	ldrh	r3, [r7, #10]
     9f6:	84fb      	strh	r3, [r7, #38]	; 0x26
     9f8:	88bb      	ldrh	r3, [r7, #4]
     9fa:	f3c3 1383 	ubfx	r3, r3, #6, #4
     9fe:	b2db      	uxtb	r3, r3
     a00:	461a      	mov	r2, r3
     a02:	693b      	ldr	r3, [r7, #16]
     a04:	4413      	add	r3, r2
     a06:	613b      	str	r3, [r7, #16]
     a08:	e000      	b.n	a0c <log_skip+0xcc>
     a0a:	bf00      	nop
     a0c:	4808      	ldr	r0, [pc, #32]	; (a30 <log_skip+0xf0>)
     a0e:	f000 fe99 	bl	1744 <nrf_atomic_flag_clear_fetch>
     a12:	6178      	str	r0, [r7, #20]
     a14:	697b      	ldr	r3, [r7, #20]
     a16:	2b00      	cmp	r3, #0
     a18:	d002      	beq.n	a20 <log_skip+0xe0>
     a1a:	693b      	ldr	r3, [r7, #16]
     a1c:	4a05      	ldr	r2, [pc, #20]	; (a34 <log_skip+0xf4>)
     a1e:	6093      	str	r3, [r2, #8]
     a20:	8cfb      	ldrh	r3, [r7, #38]	; 0x26
     a22:	4618      	mov	r0, r3
     a24:	3728      	adds	r7, #40	; 0x28
     a26:	46bd      	mov	sp, r7
     a28:	bd80      	pop	{r7, pc}
     a2a:	bf00      	nop
     a2c:	20000648 	.word	0x20000648
     a30:	20000644 	.word	0x20000644
     a34:	20000230 	.word	0x20000230
     a38:	2000001c 	.word	0x2000001c

00000a3c <dropped_sat16_get>:
     a3c:	b580      	push	{r7, lr}
     a3e:	b084      	sub	sp, #16
     a40:	af00      	add	r7, sp, #0
     a42:	2100      	movs	r1, #0
     a44:	4807      	ldr	r0, [pc, #28]	; (a64 <dropped_sat16_get+0x28>)
     a46:	f000 fdf4 	bl	1632 <nrf_atomic_u32_fetch_store>
     a4a:	60f8      	str	r0, [r7, #12]
     a4c:	68fb      	ldr	r3, [r7, #12]
     a4e:	60bb      	str	r3, [r7, #8]
     a50:	68bb      	ldr	r3, [r7, #8]
     a52:	f383 0310 	usat	r3, #16, r3
     a56:	607b      	str	r3, [r7, #4]
     a58:	687b      	ldr	r3, [r7, #4]
     a5a:	4618      	mov	r0, r3
     a5c:	3710      	adds	r7, #16
     a5e:	46bd      	mov	sp, r7
     a60:	bd80      	pop	{r7, pc}
     a62:	bf00      	nop
     a64:	2000064c 	.word	0x2000064c

00000a68 <std_header_set>:
     a68:	b580      	push	{r7, lr}
     a6a:	b088      	sub	sp, #32
     a6c:	af00      	add	r7, sp, #0
     a6e:	60f8      	str	r0, [r7, #12]
     a70:	60b9      	str	r1, [r7, #8]
     a72:	607a      	str	r2, [r7, #4]
     a74:	603b      	str	r3, [r7, #0]
     a76:	68fb      	ldr	r3, [r7, #12]
     a78:	0c1b      	lsrs	r3, r3, #16
     a7a:	61bb      	str	r3, [r7, #24]
     a7c:	f7ff ffde 	bl	a3c <dropped_sat16_get>
     a80:	61f8      	str	r0, [r7, #28]
     a82:	69fb      	ldr	r3, [r7, #28]
     a84:	0419      	lsls	r1, r3, #16
     a86:	683b      	ldr	r3, [r7, #0]
     a88:	1c5a      	adds	r2, r3, #1
     a8a:	6abb      	ldr	r3, [r7, #40]	; 0x28
     a8c:	4013      	ands	r3, r2
     a8e:	69ba      	ldr	r2, [r7, #24]
     a90:	430a      	orrs	r2, r1
     a92:	491b      	ldr	r1, [pc, #108]	; (b00 <std_header_set+0x98>)
     a94:	3302      	adds	r3, #2
     a96:	009b      	lsls	r3, r3, #2
     a98:	440b      	add	r3, r1
     a9a:	605a      	str	r2, [r3, #4]
     a9c:	683a      	ldr	r2, [r7, #0]
     a9e:	6abb      	ldr	r3, [r7, #40]	; 0x28
     aa0:	4013      	ands	r3, r2
     aa2:	3302      	adds	r3, #2
     aa4:	009b      	lsls	r3, r3, #2
     aa6:	4a16      	ldr	r2, [pc, #88]	; (b00 <std_header_set+0x98>)
     aa8:	4413      	add	r3, r2
     aaa:	3304      	adds	r3, #4
     aac:	617b      	str	r3, [r7, #20]
     aae:	68fb      	ldr	r3, [r7, #12]
     ab0:	f003 0307 	and.w	r3, r3, #7
     ab4:	b2d9      	uxtb	r1, r3
     ab6:	697a      	ldr	r2, [r7, #20]
     ab8:	7813      	ldrb	r3, [r2, #0]
     aba:	f361 03c5 	bfi	r3, r1, #3, #3
     abe:	7013      	strb	r3, [r2, #0]
     ac0:	687b      	ldr	r3, [r7, #4]
     ac2:	f003 030f 	and.w	r3, r3, #15
     ac6:	b2d9      	uxtb	r1, r3
     ac8:	697a      	ldr	r2, [r7, #20]
     aca:	8813      	ldrh	r3, [r2, #0]
     acc:	f361 1389 	bfi	r3, r1, #6, #4
     ad0:	8013      	strh	r3, [r2, #0]
     ad2:	68bb      	ldr	r3, [r7, #8]
     ad4:	f3c3 0115 	ubfx	r1, r3, #0, #22
     ad8:	697a      	ldr	r2, [r7, #20]
     ada:	6813      	ldr	r3, [r2, #0]
     adc:	f361 239f 	bfi	r3, r1, #10, #22
     ae0:	6013      	str	r3, [r2, #0]
     ae2:	697a      	ldr	r2, [r7, #20]
     ae4:	7813      	ldrb	r3, [r2, #0]
     ae6:	2101      	movs	r1, #1
     ae8:	f361 0301 	bfi	r3, r1, #0, #2
     aec:	7013      	strb	r3, [r2, #0]
     aee:	697a      	ldr	r2, [r7, #20]
     af0:	7813      	ldrb	r3, [r2, #0]
     af2:	f36f 0382 	bfc	r3, #2, #1
     af6:	7013      	strb	r3, [r2, #0]
     af8:	bf00      	nop
     afa:	3720      	adds	r7, #32
     afc:	46bd      	mov	sp, r7
     afe:	bd80      	pop	{r7, pc}
     b00:	20000230 	.word	0x20000230

00000b04 <buf_prealloc>:
     b04:	b580      	push	{r7, lr}
     b06:	b08a      	sub	sp, #40	; 0x28
     b08:	af00      	add	r7, sp, #0
     b0a:	60f8      	str	r0, [r7, #12]
     b0c:	60b9      	str	r1, [r7, #8]
     b0e:	4613      	mov	r3, r2
     b10:	71fb      	strb	r3, [r7, #7]
     b12:	68fb      	ldr	r3, [r7, #12]
     b14:	3302      	adds	r3, #2
     b16:	623b      	str	r3, [r7, #32]
     b18:	2301      	movs	r3, #1
     b1a:	77fb      	strb	r3, [r7, #31]
     b1c:	2000      	movs	r0, #0
     b1e:	f000 fd73 	bl	1608 <app_util_critical_region_enter>
     b22:	4b37      	ldr	r3, [pc, #220]	; (c00 <buf_prealloc+0xfc>)
     b24:	685a      	ldr	r2, [r3, #4]
     b26:	68bb      	ldr	r3, [r7, #8]
     b28:	601a      	str	r2, [r3, #0]
     b2a:	4b36      	ldr	r3, [pc, #216]	; (c04 <buf_prealloc+0x100>)
     b2c:	681a      	ldr	r2, [r3, #0]
     b2e:	4b34      	ldr	r3, [pc, #208]	; (c00 <buf_prealloc+0xfc>)
     b30:	6899      	ldr	r1, [r3, #8]
     b32:	4b33      	ldr	r3, [pc, #204]	; (c00 <buf_prealloc+0xfc>)
     b34:	685b      	ldr	r3, [r3, #4]
     b36:	1acb      	subs	r3, r1, r3
     b38:	4413      	add	r3, r2
     b3a:	3301      	adds	r3, #1
     b3c:	627b      	str	r3, [r7, #36]	; 0x24
     b3e:	e014      	b.n	b6a <buf_prealloc+0x66>
     b40:	2101      	movs	r1, #1
     b42:	4831      	ldr	r0, [pc, #196]	; (c08 <buf_prealloc+0x104>)
     b44:	f000 fdbf 	bl	16c6 <nrf_atomic_u32_add>
     b48:	f7ff fefa 	bl	940 <log_skip>
     b4c:	6178      	str	r0, [r7, #20]
     b4e:	6979      	ldr	r1, [r7, #20]
     b50:	482d      	ldr	r0, [pc, #180]	; (c08 <buf_prealloc+0x104>)
     b52:	f000 fdb8 	bl	16c6 <nrf_atomic_u32_add>
     b56:	4b2b      	ldr	r3, [pc, #172]	; (c04 <buf_prealloc+0x100>)
     b58:	681a      	ldr	r2, [r3, #0]
     b5a:	4b29      	ldr	r3, [pc, #164]	; (c00 <buf_prealloc+0xfc>)
     b5c:	6899      	ldr	r1, [r3, #8]
     b5e:	4b28      	ldr	r3, [pc, #160]	; (c00 <buf_prealloc+0xfc>)
     b60:	685b      	ldr	r3, [r3, #4]
     b62:	1acb      	subs	r3, r1, r3
     b64:	4413      	add	r3, r2
     b66:	3301      	adds	r3, #1
     b68:	627b      	str	r3, [r7, #36]	; 0x24
     b6a:	6a3a      	ldr	r2, [r7, #32]
     b6c:	6a7b      	ldr	r3, [r7, #36]	; 0x24
     b6e:	429a      	cmp	r2, r3
     b70:	d8e6      	bhi.n	b40 <buf_prealloc+0x3c>
     b72:	7ffb      	ldrb	r3, [r7, #31]
     b74:	2b00      	cmp	r3, #0
     b76:	d03b      	beq.n	bf0 <buf_prealloc+0xec>
     b78:	2300      	movs	r3, #0
     b7a:	613b      	str	r3, [r7, #16]
     b7c:	79fb      	ldrb	r3, [r7, #7]
     b7e:	2b00      	cmp	r3, #0
     b80:	d011      	beq.n	ba6 <buf_prealloc+0xa2>
     b82:	7c3b      	ldrb	r3, [r7, #16]
     b84:	2201      	movs	r2, #1
     b86:	f362 0301 	bfi	r3, r2, #0, #2
     b8a:	743b      	strb	r3, [r7, #16]
     b8c:	7c3b      	ldrb	r3, [r7, #16]
     b8e:	f043 0304 	orr.w	r3, r3, #4
     b92:	743b      	strb	r3, [r7, #16]
     b94:	68fb      	ldr	r3, [r7, #12]
     b96:	f003 030f 	and.w	r3, r3, #15
     b9a:	b2da      	uxtb	r2, r3
     b9c:	8a3b      	ldrh	r3, [r7, #16]
     b9e:	f362 1389 	bfi	r3, r2, #6, #4
     ba2:	823b      	strh	r3, [r7, #16]
     ba4:	e010      	b.n	bc8 <buf_prealloc+0xc4>
     ba6:	7c3b      	ldrb	r3, [r7, #16]
     ba8:	2202      	movs	r2, #2
     baa:	f362 0301 	bfi	r3, r2, #0, #2
     bae:	743b      	strb	r3, [r7, #16]
     bb0:	7c3b      	ldrb	r3, [r7, #16]
     bb2:	f043 0304 	orr.w	r3, r3, #4
     bb6:	743b      	strb	r3, [r7, #16]
     bb8:	68fb      	ldr	r3, [r7, #12]
     bba:	f3c3 0309 	ubfx	r3, r3, #0, #10
     bbe:	b29a      	uxth	r2, r3
     bc0:	8a7b      	ldrh	r3, [r7, #18]
     bc2:	f362 138f 	bfi	r3, r2, #6, #10
     bc6:	827b      	strh	r3, [r7, #18]
     bc8:	4b0d      	ldr	r3, [pc, #52]	; (c00 <buf_prealloc+0xfc>)
     bca:	685a      	ldr	r2, [r3, #4]
     bcc:	4b0d      	ldr	r3, [pc, #52]	; (c04 <buf_prealloc+0x100>)
     bce:	681b      	ldr	r3, [r3, #0]
     bd0:	4013      	ands	r3, r2
     bd2:	3302      	adds	r3, #2
     bd4:	009b      	lsls	r3, r3, #2
     bd6:	4a0a      	ldr	r2, [pc, #40]	; (c00 <buf_prealloc+0xfc>)
     bd8:	4413      	add	r3, r2
     bda:	3304      	adds	r3, #4
     bdc:	61bb      	str	r3, [r7, #24]
     bde:	693a      	ldr	r2, [r7, #16]
     be0:	69bb      	ldr	r3, [r7, #24]
     be2:	601a      	str	r2, [r3, #0]
     be4:	4b06      	ldr	r3, [pc, #24]	; (c00 <buf_prealloc+0xfc>)
     be6:	685a      	ldr	r2, [r3, #4]
     be8:	6a3b      	ldr	r3, [r7, #32]
     bea:	4413      	add	r3, r2
     bec:	4a04      	ldr	r2, [pc, #16]	; (c00 <buf_prealloc+0xfc>)
     bee:	6053      	str	r3, [r2, #4]
     bf0:	2000      	movs	r0, #0
     bf2:	f000 fd13 	bl	161c <app_util_critical_region_exit>
     bf6:	7ffb      	ldrb	r3, [r7, #31]
     bf8:	4618      	mov	r0, r3
     bfa:	3728      	adds	r7, #40	; 0x28
     bfc:	46bd      	mov	sp, r7
     bfe:	bd80      	pop	{r7, pc}
     c00:	20000230 	.word	0x20000230
     c04:	2000001c 	.word	0x2000001c
     c08:	2000064c 	.word	0x2000064c

00000c0c <std_n>:
     c0c:	b580      	push	{r7, lr}
     c0e:	b08a      	sub	sp, #40	; 0x28
     c10:	af02      	add	r7, sp, #8
     c12:	60f8      	str	r0, [r7, #12]
     c14:	60b9      	str	r1, [r7, #8]
     c16:	607a      	str	r2, [r7, #4]
     c18:	603b      	str	r3, [r7, #0]
     c1a:	4b1f      	ldr	r3, [pc, #124]	; (c98 <std_n+0x8c>)
     c1c:	681b      	ldr	r3, [r3, #0]
     c1e:	617b      	str	r3, [r7, #20]
     c20:	f107 0310 	add.w	r3, r7, #16
     c24:	2201      	movs	r2, #1
     c26:	4619      	mov	r1, r3
     c28:	6838      	ldr	r0, [r7, #0]
     c2a:	f7ff ff6b 	bl	b04 <buf_prealloc>
     c2e:	4603      	mov	r3, r0
     c30:	2b00      	cmp	r3, #0
     c32:	d024      	beq.n	c7e <std_n+0x72>
     c34:	693b      	ldr	r3, [r7, #16]
     c36:	3302      	adds	r3, #2
     c38:	61fb      	str	r3, [r7, #28]
     c3a:	2300      	movs	r3, #0
     c3c:	61bb      	str	r3, [r7, #24]
     c3e:	e011      	b.n	c64 <std_n+0x58>
     c40:	69bb      	ldr	r3, [r7, #24]
     c42:	009b      	lsls	r3, r3, #2
     c44:	687a      	ldr	r2, [r7, #4]
     c46:	441a      	add	r2, r3
     c48:	69fb      	ldr	r3, [r7, #28]
     c4a:	1c59      	adds	r1, r3, #1
     c4c:	61f9      	str	r1, [r7, #28]
     c4e:	6979      	ldr	r1, [r7, #20]
     c50:	400b      	ands	r3, r1
     c52:	6812      	ldr	r2, [r2, #0]
     c54:	4911      	ldr	r1, [pc, #68]	; (c9c <std_n+0x90>)
     c56:	3302      	adds	r3, #2
     c58:	009b      	lsls	r3, r3, #2
     c5a:	440b      	add	r3, r1
     c5c:	605a      	str	r2, [r3, #4]
     c5e:	69bb      	ldr	r3, [r7, #24]
     c60:	3301      	adds	r3, #1
     c62:	61bb      	str	r3, [r7, #24]
     c64:	69ba      	ldr	r2, [r7, #24]
     c66:	683b      	ldr	r3, [r7, #0]
     c68:	429a      	cmp	r2, r3
     c6a:	d3e9      	bcc.n	c40 <std_n+0x34>
     c6c:	693a      	ldr	r2, [r7, #16]
     c6e:	697b      	ldr	r3, [r7, #20]
     c70:	9300      	str	r3, [sp, #0]
     c72:	4613      	mov	r3, r2
     c74:	683a      	ldr	r2, [r7, #0]
     c76:	68b9      	ldr	r1, [r7, #8]
     c78:	68f8      	ldr	r0, [r7, #12]
     c7a:	f7ff fef5 	bl	a68 <std_header_set>
     c7e:	4b07      	ldr	r3, [pc, #28]	; (c9c <std_n+0x90>)
     c80:	781b      	ldrb	r3, [r3, #0]
     c82:	2b00      	cmp	r3, #0
     c84:	d004      	beq.n	c90 <std_n+0x84>
     c86:	f000 f83f 	bl	d08 <nrf_log_frontend_dequeue>
     c8a:	4603      	mov	r3, r0
     c8c:	2b00      	cmp	r3, #0
     c8e:	d1fa      	bne.n	c86 <std_n+0x7a>
     c90:	bf00      	nop
     c92:	3720      	adds	r7, #32
     c94:	46bd      	mov	sp, r7
     c96:	bd80      	pop	{r7, pc}
     c98:	2000001c 	.word	0x2000001c
     c9c:	20000230 	.word	0x20000230

00000ca0 <nrf_log_frontend_std_0>:
     ca0:	b580      	push	{r7, lr}
     ca2:	b082      	sub	sp, #8
     ca4:	af00      	add	r7, sp, #0
     ca6:	6078      	str	r0, [r7, #4]
     ca8:	6039      	str	r1, [r7, #0]
     caa:	2300      	movs	r3, #0
     cac:	2200      	movs	r2, #0
     cae:	6839      	ldr	r1, [r7, #0]
     cb0:	6878      	ldr	r0, [r7, #4]
     cb2:	f7ff ffab 	bl	c0c <std_n>
     cb6:	bf00      	nop
     cb8:	3708      	adds	r7, #8
     cba:	46bd      	mov	sp, r7
     cbc:	bd80      	pop	{r7, pc}

00000cbe <nrf_log_frontend_std_1>:
     cbe:	b580      	push	{r7, lr}
     cc0:	b086      	sub	sp, #24
     cc2:	af00      	add	r7, sp, #0
     cc4:	60f8      	str	r0, [r7, #12]
     cc6:	60b9      	str	r1, [r7, #8]
     cc8:	607a      	str	r2, [r7, #4]
     cca:	687b      	ldr	r3, [r7, #4]
     ccc:	617b      	str	r3, [r7, #20]
     cce:	f107 0214 	add.w	r2, r7, #20
     cd2:	2301      	movs	r3, #1
     cd4:	68b9      	ldr	r1, [r7, #8]
     cd6:	68f8      	ldr	r0, [r7, #12]
     cd8:	f7ff ff98 	bl	c0c <std_n>
     cdc:	bf00      	nop
     cde:	3718      	adds	r7, #24
     ce0:	46bd      	mov	sp, r7
     ce2:	bd80      	pop	{r7, pc}

00000ce4 <buffer_is_empty>:
     ce4:	b480      	push	{r7}
     ce6:	af00      	add	r7, sp, #0
     ce8:	4b06      	ldr	r3, [pc, #24]	; (d04 <buffer_is_empty+0x20>)
     cea:	689a      	ldr	r2, [r3, #8]
     cec:	4b05      	ldr	r3, [pc, #20]	; (d04 <buffer_is_empty+0x20>)
     cee:	685b      	ldr	r3, [r3, #4]
     cf0:	429a      	cmp	r2, r3
     cf2:	bf0c      	ite	eq
     cf4:	2301      	moveq	r3, #1
     cf6:	2300      	movne	r3, #0
     cf8:	b2db      	uxtb	r3, r3
     cfa:	4618      	mov	r0, r3
     cfc:	46bd      	mov	sp, r7
     cfe:	f85d 7b04 	ldr.w	r7, [sp], #4
     d02:	4770      	bx	lr
     d04:	20000230 	.word	0x20000230

00000d08 <nrf_log_frontend_dequeue>:
     d08:	b580      	push	{r7, lr}
     d0a:	b098      	sub	sp, #96	; 0x60
     d0c:	af00      	add	r7, sp, #0
     d0e:	f7ff ffe9 	bl	ce4 <buffer_is_empty>
     d12:	4603      	mov	r3, r0
     d14:	2b00      	cmp	r3, #0
     d16:	d001      	beq.n	d1c <nrf_log_frontend_dequeue+0x14>
     d18:	2300      	movs	r3, #0
     d1a:	e1a7      	b.n	106c <nrf_log_frontend_dequeue+0x364>
     d1c:	4b92      	ldr	r3, [pc, #584]	; (f68 <nrf_log_frontend_dequeue+0x260>)
     d1e:	2200      	movs	r2, #0
     d20:	f8c3 2418 	str.w	r2, [r3, #1048]	; 0x418
     d24:	f3bf 8f4f 	dsb	sy
     d28:	bf00      	nop
     d2a:	4b8f      	ldr	r3, [pc, #572]	; (f68 <nrf_log_frontend_dequeue+0x260>)
     d2c:	689b      	ldr	r3, [r3, #8]
     d2e:	613b      	str	r3, [r7, #16]
     d30:	4b8e      	ldr	r3, [pc, #568]	; (f6c <nrf_log_frontend_dequeue+0x264>)
     d32:	681b      	ldr	r3, [r3, #0]
     d34:	643b      	str	r3, [r7, #64]	; 0x40
     d36:	693a      	ldr	r2, [r7, #16]
     d38:	6c3b      	ldr	r3, [r7, #64]	; 0x40
     d3a:	4013      	ands	r3, r2
     d3c:	3302      	adds	r3, #2
     d3e:	009b      	lsls	r3, r3, #2
     d40:	4a89      	ldr	r2, [pc, #548]	; (f68 <nrf_log_frontend_dequeue+0x260>)
     d42:	4413      	add	r3, r2
     d44:	3304      	adds	r3, #4
     d46:	647b      	str	r3, [r7, #68]	; 0x44
     d48:	2300      	movs	r3, #0
     d4a:	65fb      	str	r3, [r7, #92]	; 0x5c
     d4c:	2300      	movs	r3, #0
     d4e:	65bb      	str	r3, [r7, #88]	; 0x58
     d50:	2300      	movs	r3, #0
     d52:	63fb      	str	r3, [r7, #60]	; 0x3c
     d54:	f107 0310 	add.w	r3, r7, #16
     d58:	4619      	mov	r1, r3
     d5a:	6c78      	ldr	r0, [r7, #68]	; 0x44
     d5c:	f7ff fdb6 	bl	8cc <invalid_packets_omit>
     d60:	4603      	mov	r3, r0
     d62:	2b00      	cmp	r3, #0
     d64:	d019      	beq.n	d9a <nrf_log_frontend_dequeue+0x92>
     d66:	4b80      	ldr	r3, [pc, #512]	; (f68 <nrf_log_frontend_dequeue+0x260>)
     d68:	f8d3 3418 	ldr.w	r3, [r3, #1048]	; 0x418
     d6c:	2b00      	cmp	r3, #0
     d6e:	d114      	bne.n	d9a <nrf_log_frontend_dequeue+0x92>
     d70:	4b7d      	ldr	r3, [pc, #500]	; (f68 <nrf_log_frontend_dequeue+0x260>)
     d72:	685a      	ldr	r2, [r3, #4]
     d74:	693b      	ldr	r3, [r7, #16]
     d76:	429a      	cmp	r2, r3
     d78:	d805      	bhi.n	d86 <nrf_log_frontend_dequeue+0x7e>
     d7a:	4b7b      	ldr	r3, [pc, #492]	; (f68 <nrf_log_frontend_dequeue+0x260>)
     d7c:	685b      	ldr	r3, [r3, #4]
     d7e:	4a7a      	ldr	r2, [pc, #488]	; (f68 <nrf_log_frontend_dequeue+0x260>)
     d80:	6093      	str	r3, [r2, #8]
     d82:	2300      	movs	r3, #0
     d84:	e172      	b.n	106c <nrf_log_frontend_dequeue+0x364>
     d86:	693a      	ldr	r2, [r7, #16]
     d88:	6c3b      	ldr	r3, [r7, #64]	; 0x40
     d8a:	4013      	ands	r3, r2
     d8c:	3302      	adds	r3, #2
     d8e:	009b      	lsls	r3, r3, #2
     d90:	4a75      	ldr	r2, [pc, #468]	; (f68 <nrf_log_frontend_dequeue+0x260>)
     d92:	4413      	add	r3, r2
     d94:	3304      	adds	r3, #4
     d96:	647b      	str	r3, [r7, #68]	; 0x44
     d98:	e7dc      	b.n	d54 <nrf_log_frontend_dequeue+0x4c>
     d9a:	2300      	movs	r3, #0
     d9c:	657b      	str	r3, [r7, #84]	; 0x54
     d9e:	e011      	b.n	dc4 <nrf_log_frontend_dequeue+0xbc>
     da0:	693b      	ldr	r3, [r7, #16]
     da2:	1c5a      	adds	r2, r3, #1
     da4:	613a      	str	r2, [r7, #16]
     da6:	6c3a      	ldr	r2, [r7, #64]	; 0x40
     da8:	4013      	ands	r3, r2
     daa:	6d7a      	ldr	r2, [r7, #84]	; 0x54
     dac:	0092      	lsls	r2, r2, #2
     dae:	1d39      	adds	r1, r7, #4
     db0:	440a      	add	r2, r1
     db2:	496d      	ldr	r1, [pc, #436]	; (f68 <nrf_log_frontend_dequeue+0x260>)
     db4:	3302      	adds	r3, #2
     db6:	009b      	lsls	r3, r3, #2
     db8:	440b      	add	r3, r1
     dba:	685b      	ldr	r3, [r3, #4]
     dbc:	6013      	str	r3, [r2, #0]
     dbe:	6d7b      	ldr	r3, [r7, #84]	; 0x54
     dc0:	3301      	adds	r3, #1
     dc2:	657b      	str	r3, [r7, #84]	; 0x54
     dc4:	6d7b      	ldr	r3, [r7, #84]	; 0x54
     dc6:	2b01      	cmp	r3, #1
     dc8:	d9ea      	bls.n	da0 <nrf_log_frontend_dequeue+0x98>
     dca:	793b      	ldrb	r3, [r7, #4]
     dcc:	f003 0303 	and.w	r3, r3, #3
     dd0:	b2db      	uxtb	r3, r3
     dd2:	2b02      	cmp	r3, #2
     dd4:	f040 8092 	bne.w	efc <nrf_log_frontend_dequeue+0x1f4>
     dd8:	88fb      	ldrh	r3, [r7, #6]
     dda:	f3c3 1389 	ubfx	r3, r3, #6, #10
     dde:	b29b      	uxth	r3, r3
     de0:	637b      	str	r3, [r7, #52]	; 0x34
     de2:	88fb      	ldrh	r3, [r7, #6]
     de4:	f3c3 1389 	ubfx	r3, r3, #6, #10
     de8:	b29b      	uxth	r3, r3
     dea:	2b50      	cmp	r3, #80	; 0x50
     dec:	bf28      	it	cs
     dee:	2350      	movcs	r3, #80	; 0x50
     df0:	b29b      	uxth	r3, r3
     df2:	633b      	str	r3, [r7, #48]	; 0x30
     df4:	6b3b      	ldr	r3, [r7, #48]	; 0x30
     df6:	f3c3 0309 	ubfx	r3, r3, #0, #10
     dfa:	b29a      	uxth	r2, r3
     dfc:	88fb      	ldrh	r3, [r7, #6]
     dfe:	f362 138f 	bfi	r3, r2, #6, #10
     e02:	80fb      	strh	r3, [r7, #6]
     e04:	6b3b      	ldr	r3, [r7, #48]	; 0x30
     e06:	3308      	adds	r3, #8
     e08:	62fb      	str	r3, [r7, #44]	; 0x2c
     e0a:	793b      	ldrb	r3, [r7, #4]
     e0c:	f3c3 03c2 	ubfx	r3, r3, #3, #3
     e10:	b2db      	uxtb	r3, r3
     e12:	63fb      	str	r3, [r7, #60]	; 0x3c
     e14:	6af9      	ldr	r1, [r7, #44]	; 0x2c
     e16:	4856      	ldr	r0, [pc, #344]	; (f70 <nrf_log_frontend_dequeue+0x268>)
     e18:	f001 f8ca 	bl	1fb0 <nrf_memobj_alloc>
     e1c:	65f8      	str	r0, [r7, #92]	; 0x5c
     e1e:	6dfb      	ldr	r3, [r7, #92]	; 0x5c
     e20:	2b00      	cmp	r3, #0
     e22:	f000 80c6 	beq.w	fb2 <nrf_log_frontend_dequeue+0x2aa>
     e26:	6df8      	ldr	r0, [r7, #92]	; 0x5c
     e28:	f001 f950 	bl	20cc <nrf_memobj_get>
     e2c:	1d39      	adds	r1, r7, #4
     e2e:	6dbb      	ldr	r3, [r7, #88]	; 0x58
     e30:	2208      	movs	r2, #8
     e32:	6df8      	ldr	r0, [r7, #92]	; 0x5c
     e34:	f001 f9f8 	bl	2228 <nrf_memobj_write>
     e38:	6dbb      	ldr	r3, [r7, #88]	; 0x58
     e3a:	3308      	adds	r3, #8
     e3c:	65bb      	str	r3, [r7, #88]	; 0x58
     e3e:	693b      	ldr	r3, [r7, #16]
     e40:	43da      	mvns	r2, r3
     e42:	6c3b      	ldr	r3, [r7, #64]	; 0x40
     e44:	4013      	ands	r3, r2
     e46:	3301      	adds	r3, #1
     e48:	009b      	lsls	r3, r3, #2
     e4a:	62bb      	str	r3, [r7, #40]	; 0x28
     e4c:	6b3a      	ldr	r2, [r7, #48]	; 0x30
     e4e:	6abb      	ldr	r3, [r7, #40]	; 0x28
     e50:	429a      	cmp	r2, r3
     e52:	d93d      	bls.n	ed0 <nrf_log_frontend_dequeue+0x1c8>
     e54:	6abb      	ldr	r3, [r7, #40]	; 0x28
     e56:	2b00      	cmp	r3, #0
     e58:	d008      	beq.n	e6c <nrf_log_frontend_dequeue+0x164>
     e5a:	693a      	ldr	r2, [r7, #16]
     e5c:	6c3b      	ldr	r3, [r7, #64]	; 0x40
     e5e:	4013      	ands	r3, r2
     e60:	3302      	adds	r3, #2
     e62:	009b      	lsls	r3, r3, #2
     e64:	4a40      	ldr	r2, [pc, #256]	; (f68 <nrf_log_frontend_dequeue+0x260>)
     e66:	4413      	add	r3, r2
     e68:	3304      	adds	r3, #4
     e6a:	e000      	b.n	e6e <nrf_log_frontend_dequeue+0x166>
     e6c:	4b41      	ldr	r3, [pc, #260]	; (f74 <nrf_log_frontend_dequeue+0x26c>)
     e6e:	623b      	str	r3, [r7, #32]
     e70:	6abb      	ldr	r3, [r7, #40]	; 0x28
     e72:	2b00      	cmp	r3, #0
     e74:	d002      	beq.n	e7c <nrf_log_frontend_dequeue+0x174>
     e76:	6abb      	ldr	r3, [r7, #40]	; 0x28
     e78:	b2db      	uxtb	r3, r3
     e7a:	e001      	b.n	e80 <nrf_log_frontend_dequeue+0x178>
     e7c:	6b3b      	ldr	r3, [r7, #48]	; 0x30
     e7e:	b2db      	uxtb	r3, r3
     e80:	77fb      	strb	r3, [r7, #31]
     e82:	6abb      	ldr	r3, [r7, #40]	; 0x28
     e84:	2b00      	cmp	r3, #0
     e86:	d001      	beq.n	e8c <nrf_log_frontend_dequeue+0x184>
     e88:	4b3a      	ldr	r3, [pc, #232]	; (f74 <nrf_log_frontend_dequeue+0x26c>)
     e8a:	e000      	b.n	e8e <nrf_log_frontend_dequeue+0x186>
     e8c:	2300      	movs	r3, #0
     e8e:	61bb      	str	r3, [r7, #24]
     e90:	6abb      	ldr	r3, [r7, #40]	; 0x28
     e92:	2b00      	cmp	r3, #0
     e94:	d006      	beq.n	ea4 <nrf_log_frontend_dequeue+0x19c>
     e96:	6b3b      	ldr	r3, [r7, #48]	; 0x30
     e98:	b2da      	uxtb	r2, r3
     e9a:	6abb      	ldr	r3, [r7, #40]	; 0x28
     e9c:	b2db      	uxtb	r3, r3
     e9e:	1ad3      	subs	r3, r2, r3
     ea0:	b2db      	uxtb	r3, r3
     ea2:	e000      	b.n	ea6 <nrf_log_frontend_dequeue+0x19e>
     ea4:	2300      	movs	r3, #0
     ea6:	75fb      	strb	r3, [r7, #23]
     ea8:	7ffa      	ldrb	r2, [r7, #31]
     eaa:	6dbb      	ldr	r3, [r7, #88]	; 0x58
     eac:	6a39      	ldr	r1, [r7, #32]
     eae:	6df8      	ldr	r0, [r7, #92]	; 0x5c
     eb0:	f001 f9ba 	bl	2228 <nrf_memobj_write>
     eb4:	7ffb      	ldrb	r3, [r7, #31]
     eb6:	6dba      	ldr	r2, [r7, #88]	; 0x58
     eb8:	4413      	add	r3, r2
     eba:	65bb      	str	r3, [r7, #88]	; 0x58
     ebc:	69bb      	ldr	r3, [r7, #24]
     ebe:	2b00      	cmp	r3, #0
     ec0:	d015      	beq.n	eee <nrf_log_frontend_dequeue+0x1e6>
     ec2:	7dfa      	ldrb	r2, [r7, #23]
     ec4:	6dbb      	ldr	r3, [r7, #88]	; 0x58
     ec6:	69b9      	ldr	r1, [r7, #24]
     ec8:	6df8      	ldr	r0, [r7, #92]	; 0x5c
     eca:	f001 f9ad 	bl	2228 <nrf_memobj_write>
     ece:	e00e      	b.n	eee <nrf_log_frontend_dequeue+0x1e6>
     ed0:	693a      	ldr	r2, [r7, #16]
     ed2:	6c3b      	ldr	r3, [r7, #64]	; 0x40
     ed4:	4013      	ands	r3, r2
     ed6:	3302      	adds	r3, #2
     ed8:	009b      	lsls	r3, r3, #2
     eda:	4a23      	ldr	r2, [pc, #140]	; (f68 <nrf_log_frontend_dequeue+0x260>)
     edc:	4413      	add	r3, r2
     ede:	3304      	adds	r3, #4
     ee0:	627b      	str	r3, [r7, #36]	; 0x24
     ee2:	6dbb      	ldr	r3, [r7, #88]	; 0x58
     ee4:	6b3a      	ldr	r2, [r7, #48]	; 0x30
     ee6:	6a79      	ldr	r1, [r7, #36]	; 0x24
     ee8:	6df8      	ldr	r0, [r7, #92]	; 0x5c
     eea:	f001 f99d 	bl	2228 <nrf_memobj_write>
     eee:	6b7b      	ldr	r3, [r7, #52]	; 0x34
     ef0:	3303      	adds	r3, #3
     ef2:	089a      	lsrs	r2, r3, #2
     ef4:	693b      	ldr	r3, [r7, #16]
     ef6:	4413      	add	r3, r2
     ef8:	613b      	str	r3, [r7, #16]
     efa:	e05a      	b.n	fb2 <nrf_log_frontend_dequeue+0x2aa>
     efc:	793b      	ldrb	r3, [r7, #4]
     efe:	f003 0303 	and.w	r3, r3, #3
     f02:	b2db      	uxtb	r3, r3
     f04:	2b01      	cmp	r3, #1
     f06:	d154      	bne.n	fb2 <nrf_log_frontend_dequeue+0x2aa>
     f08:	88bb      	ldrh	r3, [r7, #4]
     f0a:	f3c3 1383 	ubfx	r3, r3, #6, #4
     f0e:	b2db      	uxtb	r3, r3
     f10:	2b06      	cmp	r3, #6
     f12:	bf28      	it	cs
     f14:	2306      	movcs	r3, #6
     f16:	b2da      	uxtb	r2, r3
     f18:	88bb      	ldrh	r3, [r7, #4]
     f1a:	f362 1389 	bfi	r3, r2, #6, #4
     f1e:	80bb      	strh	r3, [r7, #4]
     f20:	88bb      	ldrh	r3, [r7, #4]
     f22:	f3c3 1383 	ubfx	r3, r3, #6, #4
     f26:	b2db      	uxtb	r3, r3
     f28:	3302      	adds	r3, #2
     f2a:	63bb      	str	r3, [r7, #56]	; 0x38
     f2c:	793b      	ldrb	r3, [r7, #4]
     f2e:	f3c3 03c2 	ubfx	r3, r3, #3, #3
     f32:	b2db      	uxtb	r3, r3
     f34:	63fb      	str	r3, [r7, #60]	; 0x3c
     f36:	6bbb      	ldr	r3, [r7, #56]	; 0x38
     f38:	009b      	lsls	r3, r3, #2
     f3a:	4619      	mov	r1, r3
     f3c:	480c      	ldr	r0, [pc, #48]	; (f70 <nrf_log_frontend_dequeue+0x268>)
     f3e:	f001 f837 	bl	1fb0 <nrf_memobj_alloc>
     f42:	65f8      	str	r0, [r7, #92]	; 0x5c
     f44:	6dfb      	ldr	r3, [r7, #92]	; 0x5c
     f46:	2b00      	cmp	r3, #0
     f48:	d033      	beq.n	fb2 <nrf_log_frontend_dequeue+0x2aa>
     f4a:	6df8      	ldr	r0, [r7, #92]	; 0x5c
     f4c:	f001 f8be 	bl	20cc <nrf_memobj_get>
     f50:	1d39      	adds	r1, r7, #4
     f52:	6dbb      	ldr	r3, [r7, #88]	; 0x58
     f54:	2208      	movs	r2, #8
     f56:	6df8      	ldr	r0, [r7, #92]	; 0x5c
     f58:	f001 f966 	bl	2228 <nrf_memobj_write>
     f5c:	6dbb      	ldr	r3, [r7, #88]	; 0x58
     f5e:	3308      	adds	r3, #8
     f60:	65bb      	str	r3, [r7, #88]	; 0x58
     f62:	2300      	movs	r3, #0
     f64:	657b      	str	r3, [r7, #84]	; 0x54
     f66:	e01c      	b.n	fa2 <nrf_log_frontend_dequeue+0x29a>
     f68:	20000230 	.word	0x20000230
     f6c:	2000001c 	.word	0x2000001c
     f70:	00006094 	.word	0x00006094
     f74:	2000023c 	.word	0x2000023c
     f78:	693b      	ldr	r3, [r7, #16]
     f7a:	1c5a      	adds	r2, r3, #1
     f7c:	613a      	str	r2, [r7, #16]
     f7e:	6c3a      	ldr	r2, [r7, #64]	; 0x40
     f80:	4013      	ands	r3, r2
     f82:	3302      	adds	r3, #2
     f84:	009b      	lsls	r3, r3, #2
     f86:	4a3b      	ldr	r2, [pc, #236]	; (1074 <nrf_log_frontend_dequeue+0x36c>)
     f88:	4413      	add	r3, r2
     f8a:	1d19      	adds	r1, r3, #4
     f8c:	6dbb      	ldr	r3, [r7, #88]	; 0x58
     f8e:	2204      	movs	r2, #4
     f90:	6df8      	ldr	r0, [r7, #92]	; 0x5c
     f92:	f001 f949 	bl	2228 <nrf_memobj_write>
     f96:	6dbb      	ldr	r3, [r7, #88]	; 0x58
     f98:	3304      	adds	r3, #4
     f9a:	65bb      	str	r3, [r7, #88]	; 0x58
     f9c:	6d7b      	ldr	r3, [r7, #84]	; 0x54
     f9e:	3301      	adds	r3, #1
     fa0:	657b      	str	r3, [r7, #84]	; 0x54
     fa2:	88bb      	ldrh	r3, [r7, #4]
     fa4:	f3c3 1383 	ubfx	r3, r3, #6, #4
     fa8:	b2db      	uxtb	r3, r3
     faa:	461a      	mov	r2, r3
     fac:	6d7b      	ldr	r3, [r7, #84]	; 0x54
     fae:	4293      	cmp	r3, r2
     fb0:	d3e2      	bcc.n	f78 <nrf_log_frontend_dequeue+0x270>
     fb2:	6dfb      	ldr	r3, [r7, #92]	; 0x5c
     fb4:	2b00      	cmp	r3, #0
     fb6:	d039      	beq.n	102c <nrf_log_frontend_dequeue+0x324>
     fb8:	4b2e      	ldr	r3, [pc, #184]	; (1074 <nrf_log_frontend_dequeue+0x36c>)
     fba:	f8d3 3410 	ldr.w	r3, [r3, #1040]	; 0x410
     fbe:	653b      	str	r3, [r7, #80]	; 0x50
     fc0:	4b2c      	ldr	r3, [pc, #176]	; (1074 <nrf_log_frontend_dequeue+0x36c>)
     fc2:	f8d3 3418 	ldr.w	r3, [r3, #1048]	; 0x418
     fc6:	2b00      	cmp	r3, #0
     fc8:	d01b      	beq.n	1002 <nrf_log_frontend_dequeue+0x2fa>
     fca:	6df8      	ldr	r0, [r7, #92]	; 0x5c
     fcc:	f001 f88e 	bl	20ec <nrf_memobj_put>
     fd0:	e046      	b.n	1060 <nrf_log_frontend_dequeue+0x358>
     fd2:	2300      	movs	r3, #0
     fd4:	f887 304f 	strb.w	r3, [r7, #79]	; 0x4f
     fd8:	6d38      	ldr	r0, [r7, #80]	; 0x50
     fda:	f7ff fbaf 	bl	73c <nrf_log_backend_is_enabled>
     fde:	4603      	mov	r3, r0
     fe0:	2b00      	cmp	r3, #0
     fe2:	d002      	beq.n	fea <nrf_log_frontend_dequeue+0x2e2>
     fe4:	2301      	movs	r3, #1
     fe6:	f887 304f 	strb.w	r3, [r7, #79]	; 0x4f
     fea:	f897 304f 	ldrb.w	r3, [r7, #79]	; 0x4f
     fee:	2b00      	cmp	r3, #0
     ff0:	d003      	beq.n	ffa <nrf_log_frontend_dequeue+0x2f2>
     ff2:	6df9      	ldr	r1, [r7, #92]	; 0x5c
     ff4:	6d38      	ldr	r0, [r7, #80]	; 0x50
     ff6:	f7ff fb4d 	bl	694 <nrf_log_backend_put>
     ffa:	6d3b      	ldr	r3, [r7, #80]	; 0x50
     ffc:	68db      	ldr	r3, [r3, #12]
     ffe:	681b      	ldr	r3, [r3, #0]
    1000:	653b      	str	r3, [r7, #80]	; 0x50
    1002:	6d3b      	ldr	r3, [r7, #80]	; 0x50
    1004:	2b00      	cmp	r3, #0
    1006:	d1e4      	bne.n	fd2 <nrf_log_frontend_dequeue+0x2ca>
    1008:	6df8      	ldr	r0, [r7, #92]	; 0x5c
    100a:	f001 f86f 	bl	20ec <nrf_memobj_put>
    100e:	2000      	movs	r0, #0
    1010:	f000 fafa 	bl	1608 <app_util_critical_region_enter>
    1014:	4b17      	ldr	r3, [pc, #92]	; (1074 <nrf_log_frontend_dequeue+0x36c>)
    1016:	f8d3 3418 	ldr.w	r3, [r3, #1048]	; 0x418
    101a:	2b00      	cmp	r3, #0
    101c:	d102      	bne.n	1024 <nrf_log_frontend_dequeue+0x31c>
    101e:	693b      	ldr	r3, [r7, #16]
    1020:	4a14      	ldr	r2, [pc, #80]	; (1074 <nrf_log_frontend_dequeue+0x36c>)
    1022:	6093      	str	r3, [r2, #8]
    1024:	2000      	movs	r0, #0
    1026:	f000 faf9 	bl	161c <app_util_critical_region_exit>
    102a:	e019      	b.n	1060 <nrf_log_frontend_dequeue+0x358>
    102c:	4b11      	ldr	r3, [pc, #68]	; (1074 <nrf_log_frontend_dequeue+0x36c>)
    102e:	f8d3 3410 	ldr.w	r3, [r3, #1040]	; 0x410
    1032:	64bb      	str	r3, [r7, #72]	; 0x48
    1034:	e006      	b.n	1044 <nrf_log_frontend_dequeue+0x33c>
    1036:	6cb8      	ldr	r0, [r7, #72]	; 0x48
    1038:	f7ff fb48 	bl	6cc <nrf_log_backend_flush>
    103c:	6cbb      	ldr	r3, [r7, #72]	; 0x48
    103e:	68db      	ldr	r3, [r3, #12]
    1040:	681b      	ldr	r3, [r3, #0]
    1042:	64bb      	str	r3, [r7, #72]	; 0x48
    1044:	6cbb      	ldr	r3, [r7, #72]	; 0x48
    1046:	2b00      	cmp	r3, #0
    1048:	d1f5      	bne.n	1036 <nrf_log_frontend_dequeue+0x32e>
    104a:	4a0b      	ldr	r2, [pc, #44]	; (1078 <nrf_log_frontend_dequeue+0x370>)
    104c:	4b0b      	ldr	r3, [pc, #44]	; (107c <nrf_log_frontend_dequeue+0x374>)
    104e:	1ad3      	subs	r3, r2, r3
    1050:	08db      	lsrs	r3, r3, #3
    1052:	041b      	lsls	r3, r3, #16
    1054:	f043 0302 	orr.w	r3, r3, #2
    1058:	4909      	ldr	r1, [pc, #36]	; (1080 <nrf_log_frontend_dequeue+0x378>)
    105a:	4618      	mov	r0, r3
    105c:	f7ff fe20 	bl	ca0 <nrf_log_frontend_std_0>
    1060:	f7ff fe40 	bl	ce4 <buffer_is_empty>
    1064:	4603      	mov	r3, r0
    1066:	f083 0301 	eor.w	r3, r3, #1
    106a:	b2db      	uxtb	r3, r3
    106c:	4618      	mov	r0, r3
    106e:	3760      	adds	r7, #96	; 0x60
    1070:	46bd      	mov	sp, r7
    1072:	bd80      	pop	{r7, pc}
    1074:	20000230 	.word	0x20000230
    1078:	0000607c 	.word	0x0000607c
    107c:	0000605c 	.word	0x0000605c
    1080:	00005dcc 	.word	0x00005dcc

00001084 <backend_id_assign>:
    1084:	b580      	push	{r7, lr}
    1086:	b084      	sub	sp, #16
    1088:	af00      	add	r7, sp, #0
    108a:	2300      	movs	r3, #0
    108c:	60fb      	str	r3, [r7, #12]
    108e:	e020      	b.n	10d2 <backend_id_assign+0x4e>
    1090:	4b14      	ldr	r3, [pc, #80]	; (10e4 <backend_id_assign+0x60>)
    1092:	f8d3 3410 	ldr.w	r3, [r3, #1040]	; 0x410
    1096:	60bb      	str	r3, [r7, #8]
    1098:	2301      	movs	r3, #1
    109a:	71fb      	strb	r3, [r7, #7]
    109c:	e00e      	b.n	10bc <backend_id_assign+0x38>
    109e:	68b8      	ldr	r0, [r7, #8]
    10a0:	f7ff fb31 	bl	706 <nrf_log_backend_id_get>
    10a4:	4603      	mov	r3, r0
    10a6:	461a      	mov	r2, r3
    10a8:	68fb      	ldr	r3, [r7, #12]
    10aa:	4293      	cmp	r3, r2
    10ac:	d102      	bne.n	10b4 <backend_id_assign+0x30>
    10ae:	2300      	movs	r3, #0
    10b0:	71fb      	strb	r3, [r7, #7]
    10b2:	e006      	b.n	10c2 <backend_id_assign+0x3e>
    10b4:	68bb      	ldr	r3, [r7, #8]
    10b6:	68db      	ldr	r3, [r3, #12]
    10b8:	681b      	ldr	r3, [r3, #0]
    10ba:	60bb      	str	r3, [r7, #8]
    10bc:	68bb      	ldr	r3, [r7, #8]
    10be:	2b00      	cmp	r3, #0
    10c0:	d1ed      	bne.n	109e <backend_id_assign+0x1a>
    10c2:	79fb      	ldrb	r3, [r7, #7]
    10c4:	2b00      	cmp	r3, #0
    10c6:	d001      	beq.n	10cc <backend_id_assign+0x48>
    10c8:	68fb      	ldr	r3, [r7, #12]
    10ca:	e007      	b.n	10dc <backend_id_assign+0x58>
    10cc:	68fb      	ldr	r3, [r7, #12]
    10ce:	3301      	adds	r3, #1
    10d0:	60fb      	str	r3, [r7, #12]
    10d2:	68fb      	ldr	r3, [r7, #12]
    10d4:	2b09      	cmp	r3, #9
    10d6:	dddb      	ble.n	1090 <backend_id_assign+0xc>
    10d8:	f04f 33ff 	mov.w	r3, #4294967295	; 0xffffffff
    10dc:	4618      	mov	r0, r3
    10de:	3710      	adds	r7, #16
    10e0:	46bd      	mov	sp, r7
    10e2:	bd80      	pop	{r7, pc}
    10e4:	20000230 	.word	0x20000230

000010e8 <nrf_log_backend_add>:
    10e8:	b580      	push	{r7, lr}
    10ea:	b084      	sub	sp, #16
    10ec:	af00      	add	r7, sp, #0
    10ee:	6078      	str	r0, [r7, #4]
    10f0:	460b      	mov	r3, r1
    10f2:	70fb      	strb	r3, [r7, #3]
    10f4:	f7ff ffc6 	bl	1084 <backend_id_assign>
    10f8:	60f8      	str	r0, [r7, #12]
    10fa:	68fb      	ldr	r3, [r7, #12]
    10fc:	f1b3 3fff 	cmp.w	r3, #4294967295	; 0xffffffff
    1100:	d101      	bne.n	1106 <nrf_log_backend_add+0x1e>
    1102:	68fb      	ldr	r3, [r7, #12]
    1104:	e022      	b.n	114c <nrf_log_backend_add+0x64>
    1106:	68fb      	ldr	r3, [r7, #12]
    1108:	b2db      	uxtb	r3, r3
    110a:	4619      	mov	r1, r3
    110c:	6878      	ldr	r0, [r7, #4]
    110e:	f7ff faea 	bl	6e6 <nrf_log_backend_id_set>
    1112:	4b10      	ldr	r3, [pc, #64]	; (1154 <nrf_log_backend_add+0x6c>)
    1114:	f8d3 3410 	ldr.w	r3, [r3, #1040]	; 0x410
    1118:	2b00      	cmp	r3, #0
    111a:	d108      	bne.n	112e <nrf_log_backend_add+0x46>
    111c:	4a0d      	ldr	r2, [pc, #52]	; (1154 <nrf_log_backend_add+0x6c>)
    111e:	687b      	ldr	r3, [r7, #4]
    1120:	f8c2 3410 	str.w	r3, [r2, #1040]	; 0x410
    1124:	687b      	ldr	r3, [r7, #4]
    1126:	68db      	ldr	r3, [r3, #12]
    1128:	2200      	movs	r2, #0
    112a:	601a      	str	r2, [r3, #0]
    112c:	e00d      	b.n	114a <nrf_log_backend_add+0x62>
    112e:	4b09      	ldr	r3, [pc, #36]	; (1154 <nrf_log_backend_add+0x6c>)
    1130:	f8d3 3410 	ldr.w	r3, [r3, #1040]	; 0x410
    1134:	68da      	ldr	r2, [r3, #12]
    1136:	687b      	ldr	r3, [r7, #4]
    1138:	68db      	ldr	r3, [r3, #12]
    113a:	6812      	ldr	r2, [r2, #0]
    113c:	601a      	str	r2, [r3, #0]
    113e:	4b05      	ldr	r3, [pc, #20]	; (1154 <nrf_log_backend_add+0x6c>)
    1140:	f8d3 3410 	ldr.w	r3, [r3, #1040]	; 0x410
    1144:	68db      	ldr	r3, [r3, #12]
    1146:	687a      	ldr	r2, [r7, #4]
    1148:	601a      	str	r2, [r3, #0]
    114a:	68fb      	ldr	r3, [r7, #12]
    114c:	4618      	mov	r0, r3
    114e:	3710      	adds	r7, #16
    1150:	46bd      	mov	sp, r7
    1152:	bd80      	pop	{r7, pc}
    1154:	20000230 	.word	0x20000230

00001158 <nrf_log_panic>:
    1158:	b580      	push	{r7, lr}
    115a:	b082      	sub	sp, #8
    115c:	af00      	add	r7, sp, #0
    115e:	4b0d      	ldr	r3, [pc, #52]	; (1194 <nrf_log_panic+0x3c>)
    1160:	f8d3 3410 	ldr.w	r3, [r3, #1040]	; 0x410
    1164:	607b      	str	r3, [r7, #4]
    1166:	4b0b      	ldr	r3, [pc, #44]	; (1194 <nrf_log_panic+0x3c>)
    1168:	2201      	movs	r2, #1
    116a:	701a      	strb	r2, [r3, #0]
    116c:	e009      	b.n	1182 <nrf_log_panic+0x2a>
    116e:	6878      	ldr	r0, [r7, #4]
    1170:	f7ff fad6 	bl	720 <nrf_log_backend_enable>
    1174:	6878      	ldr	r0, [r7, #4]
    1176:	f7ff fa9c 	bl	6b2 <nrf_log_backend_panic_set>
    117a:	687b      	ldr	r3, [r7, #4]
    117c:	68db      	ldr	r3, [r3, #12]
    117e:	681b      	ldr	r3, [r3, #0]
    1180:	607b      	str	r3, [r7, #4]
    1182:	687b      	ldr	r3, [r7, #4]
    1184:	2b00      	cmp	r3, #0
    1186:	d1f2      	bne.n	116e <nrf_log_panic+0x16>
    1188:	bf00      	nop
    118a:	bf00      	nop
    118c:	3708      	adds	r7, #8
    118e:	46bd      	mov	sp, r7
    1190:	bd80      	pop	{r7, pc}
    1192:	bf00      	nop
    1194:	20000230 	.word	0x20000230

00001198 <timestamp_print>:
    1198:	b480      	push	{r7}
    119a:	b083      	sub	sp, #12
    119c:	af00      	add	r7, sp, #0
    119e:	6078      	str	r0, [r7, #4]
    11a0:	6039      	str	r1, [r7, #0]
    11a2:	bf00      	nop
    11a4:	370c      	adds	r7, #12
    11a6:	46bd      	mov	sp, r7
    11a8:	f85d 7b04 	ldr.w	r7, [sp], #4
    11ac:	4770      	bx	lr
	...

000011b0 <prefix_process>:
    11b0:	b590      	push	{r4, r7, lr}
    11b2:	b085      	sub	sp, #20
    11b4:	af02      	add	r7, sp, #8
    11b6:	6078      	str	r0, [r7, #4]
    11b8:	6039      	str	r1, [r7, #0]
    11ba:	687b      	ldr	r3, [r7, #4]
    11bc:	88db      	ldrh	r3, [r3, #6]
    11be:	2b00      	cmp	r3, #0
    11c0:	d00a      	beq.n	11d8 <prefix_process+0x28>
    11c2:	687b      	ldr	r3, [r7, #4]
    11c4:	88db      	ldrh	r3, [r3, #6]
    11c6:	461a      	mov	r2, r3
    11c8:	4b1f      	ldr	r3, [pc, #124]	; (1248 <prefix_process+0x98>)
    11ca:	9300      	str	r3, [sp, #0]
    11cc:	4613      	mov	r3, r2
    11ce:	4a1f      	ldr	r2, [pc, #124]	; (124c <prefix_process+0x9c>)
    11d0:	491f      	ldr	r1, [pc, #124]	; (1250 <prefix_process+0xa0>)
    11d2:	6838      	ldr	r0, [r7, #0]
    11d4:	f000 fb81 	bl	18da <nrf_fprintf>
    11d8:	687b      	ldr	r3, [r7, #4]
    11da:	7a1b      	ldrb	r3, [r3, #8]
    11dc:	2b05      	cmp	r3, #5
    11de:	d02e      	beq.n	123e <prefix_process+0x8e>
    11e0:	687b      	ldr	r3, [r7, #4]
    11e2:	7a5b      	ldrb	r3, [r3, #9]
    11e4:	2b00      	cmp	r3, #0
    11e6:	d012      	beq.n	120e <prefix_process+0x5e>
    11e8:	687b      	ldr	r3, [r7, #4]
    11ea:	889b      	ldrh	r3, [r3, #4]
    11ec:	461a      	mov	r2, r3
    11ee:	687b      	ldr	r3, [r7, #4]
    11f0:	7a1b      	ldrb	r3, [r3, #8]
    11f2:	4619      	mov	r1, r3
    11f4:	4610      	mov	r0, r2
    11f6:	f7ff fb35 	bl	864 <nrf_log_color_id_get>
    11fa:	4603      	mov	r3, r0
    11fc:	461a      	mov	r2, r3
    11fe:	4b15      	ldr	r3, [pc, #84]	; (1254 <prefix_process+0xa4>)
    1200:	f853 3022 	ldr.w	r3, [r3, r2, lsl #2]
    1204:	461a      	mov	r2, r3
    1206:	4914      	ldr	r1, [pc, #80]	; (1258 <prefix_process+0xa8>)
    1208:	6838      	ldr	r0, [r7, #0]
    120a:	f000 fb66 	bl	18da <nrf_fprintf>
    120e:	687b      	ldr	r3, [r7, #4]
    1210:	681b      	ldr	r3, [r3, #0]
    1212:	4619      	mov	r1, r3
    1214:	6838      	ldr	r0, [r7, #0]
    1216:	f7ff ffbf 	bl	1198 <timestamp_print>
    121a:	687b      	ldr	r3, [r7, #4]
    121c:	7a1b      	ldrb	r3, [r3, #8]
    121e:	461a      	mov	r2, r3
    1220:	4b0e      	ldr	r3, [pc, #56]	; (125c <prefix_process+0xac>)
    1222:	f853 4022 	ldr.w	r4, [r3, r2, lsl #2]
    1226:	687b      	ldr	r3, [r7, #4]
    1228:	889b      	ldrh	r3, [r3, #4]
    122a:	2100      	movs	r1, #0
    122c:	4618      	mov	r0, r3
    122e:	f7ff fafb 	bl	828 <nrf_log_module_name_get>
    1232:	4603      	mov	r3, r0
    1234:	4622      	mov	r2, r4
    1236:	490a      	ldr	r1, [pc, #40]	; (1260 <prefix_process+0xb0>)
    1238:	6838      	ldr	r0, [r7, #0]
    123a:	f000 fb4e 	bl	18da <nrf_fprintf>
    123e:	bf00      	nop
    1240:	370c      	adds	r7, #12
    1242:	46bd      	mov	sp, r7
    1244:	bd90      	pop	{r4, r7, pc}
    1246:	bf00      	nop
    1248:	00005e00 	.word	0x00005e00
    124c:	00005e10 	.word	0x00005e10
    1250:	00005e48 	.word	0x00005e48
    1254:	20000034 	.word	0x20000034
    1258:	00005e60 	.word	0x00005e60
    125c:	20000020 	.word	0x20000020
    1260:	00005e64 	.word	0x00005e64

00001264 <postfix_process>:
    1264:	b580      	push	{r7, lr}
    1266:	b084      	sub	sp, #16
    1268:	af00      	add	r7, sp, #0
    126a:	60f8      	str	r0, [r7, #12]
    126c:	60b9      	str	r1, [r7, #8]
    126e:	4613      	mov	r3, r2
    1270:	71fb      	strb	r3, [r7, #7]
    1272:	68fb      	ldr	r3, [r7, #12]
    1274:	7a1b      	ldrb	r3, [r3, #8]
    1276:	2b05      	cmp	r3, #5
    1278:	d00f      	beq.n	129a <postfix_process+0x36>
    127a:	68fb      	ldr	r3, [r7, #12]
    127c:	7a5b      	ldrb	r3, [r3, #9]
    127e:	2b00      	cmp	r3, #0
    1280:	d006      	beq.n	1290 <postfix_process+0x2c>
    1282:	4b0d      	ldr	r3, [pc, #52]	; (12b8 <postfix_process+0x54>)
    1284:	681b      	ldr	r3, [r3, #0]
    1286:	461a      	mov	r2, r3
    1288:	490c      	ldr	r1, [pc, #48]	; (12bc <postfix_process+0x58>)
    128a:	68b8      	ldr	r0, [r7, #8]
    128c:	f000 fb25 	bl	18da <nrf_fprintf>
    1290:	490b      	ldr	r1, [pc, #44]	; (12c0 <postfix_process+0x5c>)
    1292:	68b8      	ldr	r0, [r7, #8]
    1294:	f000 fb21 	bl	18da <nrf_fprintf>
    1298:	e006      	b.n	12a8 <postfix_process+0x44>
    129a:	79fb      	ldrb	r3, [r7, #7]
    129c:	2b00      	cmp	r3, #0
    129e:	d003      	beq.n	12a8 <postfix_process+0x44>
    12a0:	4907      	ldr	r1, [pc, #28]	; (12c0 <postfix_process+0x5c>)
    12a2:	68b8      	ldr	r0, [r7, #8]
    12a4:	f000 fb19 	bl	18da <nrf_fprintf>
    12a8:	68b8      	ldr	r0, [r7, #8]
    12aa:	f000 fafd 	bl	18a8 <nrf_fprintf_buffer_flush>
    12ae:	bf00      	nop
    12b0:	3710      	adds	r7, #16
    12b2:	46bd      	mov	sp, r7
    12b4:	bd80      	pop	{r7, pc}
    12b6:	bf00      	nop
    12b8:	20000034 	.word	0x20000034
    12bc:	00005e60 	.word	0x00005e60
    12c0:	00005e70 	.word	0x00005e70

000012c4 <nrf_log_std_entry_process>:
    12c4:	b5b0      	push	{r4, r5, r7, lr}
    12c6:	b08a      	sub	sp, #40	; 0x28
    12c8:	af04      	add	r7, sp, #16
    12ca:	60f8      	str	r0, [r7, #12]
    12cc:	60b9      	str	r1, [r7, #8]
    12ce:	607a      	str	r2, [r7, #4]
    12d0:	603b      	str	r3, [r7, #0]
    12d2:	6abb      	ldr	r3, [r7, #40]	; 0x28
    12d4:	7b1b      	ldrb	r3, [r3, #12]
    12d6:	75fb      	strb	r3, [r7, #23]
    12d8:	6abb      	ldr	r3, [r7, #40]	; 0x28
    12da:	2200      	movs	r2, #0
    12dc:	731a      	strb	r2, [r3, #12]
    12de:	6ab9      	ldr	r1, [r7, #40]	; 0x28
    12e0:	6838      	ldr	r0, [r7, #0]
    12e2:	f7ff ff65 	bl	11b0 <prefix_process>
    12e6:	687b      	ldr	r3, [r7, #4]
    12e8:	2b06      	cmp	r3, #6
    12ea:	d87f      	bhi.n	13ec <nrf_log_std_entry_process+0x128>
    12ec:	a201      	add	r2, pc, #4	; (adr r2, 12f4 <nrf_log_std_entry_process+0x30>)
    12ee:	f852 f023 	ldr.w	pc, [r2, r3, lsl #2]
    12f2:	bf00      	nop
    12f4:	00001311 	.word	0x00001311
    12f8:	0000131b 	.word	0x0000131b
    12fc:	0000132b 	.word	0x0000132b
    1300:	0000133f 	.word	0x0000133f
    1304:	0000135d 	.word	0x0000135d
    1308:	00001385 	.word	0x00001385
    130c:	000013b5 	.word	0x000013b5
    1310:	68f9      	ldr	r1, [r7, #12]
    1312:	6ab8      	ldr	r0, [r7, #40]	; 0x28
    1314:	f000 fae1 	bl	18da <nrf_fprintf>
    1318:	e069      	b.n	13ee <nrf_log_std_entry_process+0x12a>
    131a:	68bb      	ldr	r3, [r7, #8]
    131c:	681b      	ldr	r3, [r3, #0]
    131e:	461a      	mov	r2, r3
    1320:	68f9      	ldr	r1, [r7, #12]
    1322:	6ab8      	ldr	r0, [r7, #40]	; 0x28
    1324:	f000 fad9 	bl	18da <nrf_fprintf>
    1328:	e061      	b.n	13ee <nrf_log_std_entry_process+0x12a>
    132a:	68bb      	ldr	r3, [r7, #8]
    132c:	681a      	ldr	r2, [r3, #0]
    132e:	68bb      	ldr	r3, [r7, #8]
    1330:	3304      	adds	r3, #4
    1332:	681b      	ldr	r3, [r3, #0]
    1334:	68f9      	ldr	r1, [r7, #12]
    1336:	6ab8      	ldr	r0, [r7, #40]	; 0x28
    1338:	f000 facf 	bl	18da <nrf_fprintf>
    133c:	e057      	b.n	13ee <nrf_log_std_entry_process+0x12a>
    133e:	68bb      	ldr	r3, [r7, #8]
    1340:	681a      	ldr	r2, [r3, #0]
    1342:	68bb      	ldr	r3, [r7, #8]
    1344:	3304      	adds	r3, #4
    1346:	6819      	ldr	r1, [r3, #0]
    1348:	68bb      	ldr	r3, [r7, #8]
    134a:	3308      	adds	r3, #8
    134c:	681b      	ldr	r3, [r3, #0]
    134e:	9300      	str	r3, [sp, #0]
    1350:	460b      	mov	r3, r1
    1352:	68f9      	ldr	r1, [r7, #12]
    1354:	6ab8      	ldr	r0, [r7, #40]	; 0x28
    1356:	f000 fac0 	bl	18da <nrf_fprintf>
    135a:	e048      	b.n	13ee <nrf_log_std_entry_process+0x12a>
    135c:	68bb      	ldr	r3, [r7, #8]
    135e:	6819      	ldr	r1, [r3, #0]
    1360:	68bb      	ldr	r3, [r7, #8]
    1362:	3304      	adds	r3, #4
    1364:	6818      	ldr	r0, [r3, #0]
    1366:	68bb      	ldr	r3, [r7, #8]
    1368:	3308      	adds	r3, #8
    136a:	681b      	ldr	r3, [r3, #0]
    136c:	68ba      	ldr	r2, [r7, #8]
    136e:	320c      	adds	r2, #12
    1370:	6812      	ldr	r2, [r2, #0]
    1372:	9201      	str	r2, [sp, #4]
    1374:	9300      	str	r3, [sp, #0]
    1376:	4603      	mov	r3, r0
    1378:	460a      	mov	r2, r1
    137a:	68f9      	ldr	r1, [r7, #12]
    137c:	6ab8      	ldr	r0, [r7, #40]	; 0x28
    137e:	f000 faac 	bl	18da <nrf_fprintf>
    1382:	e034      	b.n	13ee <nrf_log_std_entry_process+0x12a>
    1384:	68bb      	ldr	r3, [r7, #8]
    1386:	6818      	ldr	r0, [r3, #0]
    1388:	68bb      	ldr	r3, [r7, #8]
    138a:	3304      	adds	r3, #4
    138c:	681c      	ldr	r4, [r3, #0]
    138e:	68bb      	ldr	r3, [r7, #8]
    1390:	3308      	adds	r3, #8
    1392:	681b      	ldr	r3, [r3, #0]
    1394:	68ba      	ldr	r2, [r7, #8]
    1396:	320c      	adds	r2, #12
    1398:	6812      	ldr	r2, [r2, #0]
    139a:	68b9      	ldr	r1, [r7, #8]
    139c:	3110      	adds	r1, #16
    139e:	6809      	ldr	r1, [r1, #0]
    13a0:	9102      	str	r1, [sp, #8]
    13a2:	9201      	str	r2, [sp, #4]
    13a4:	9300      	str	r3, [sp, #0]
    13a6:	4623      	mov	r3, r4
    13a8:	4602      	mov	r2, r0
    13aa:	68f9      	ldr	r1, [r7, #12]
    13ac:	6ab8      	ldr	r0, [r7, #40]	; 0x28
    13ae:	f000 fa94 	bl	18da <nrf_fprintf>
    13b2:	e01c      	b.n	13ee <nrf_log_std_entry_process+0x12a>
    13b4:	68bb      	ldr	r3, [r7, #8]
    13b6:	681c      	ldr	r4, [r3, #0]
    13b8:	68bb      	ldr	r3, [r7, #8]
    13ba:	3304      	adds	r3, #4
    13bc:	681d      	ldr	r5, [r3, #0]
    13be:	68bb      	ldr	r3, [r7, #8]
    13c0:	3308      	adds	r3, #8
    13c2:	681b      	ldr	r3, [r3, #0]
    13c4:	68ba      	ldr	r2, [r7, #8]
    13c6:	320c      	adds	r2, #12
    13c8:	6812      	ldr	r2, [r2, #0]
    13ca:	68b9      	ldr	r1, [r7, #8]
    13cc:	3110      	adds	r1, #16
    13ce:	6809      	ldr	r1, [r1, #0]
    13d0:	68b8      	ldr	r0, [r7, #8]
    13d2:	3014      	adds	r0, #20
    13d4:	6800      	ldr	r0, [r0, #0]
    13d6:	9003      	str	r0, [sp, #12]
    13d8:	9102      	str	r1, [sp, #8]
    13da:	9201      	str	r2, [sp, #4]
    13dc:	9300      	str	r3, [sp, #0]
    13de:	462b      	mov	r3, r5
    13e0:	4622      	mov	r2, r4
    13e2:	68f9      	ldr	r1, [r7, #12]
    13e4:	6ab8      	ldr	r0, [r7, #40]	; 0x28
    13e6:	f000 fa78 	bl	18da <nrf_fprintf>
    13ea:	e000      	b.n	13ee <nrf_log_std_entry_process+0x12a>
    13ec:	bf00      	nop
    13ee:	2200      	movs	r2, #0
    13f0:	6ab9      	ldr	r1, [r7, #40]	; 0x28
    13f2:	6838      	ldr	r0, [r7, #0]
    13f4:	f7ff ff36 	bl	1264 <postfix_process>
    13f8:	6abb      	ldr	r3, [r7, #40]	; 0x28
    13fa:	7dfa      	ldrb	r2, [r7, #23]
    13fc:	731a      	strb	r2, [r3, #12]
    13fe:	bf00      	nop
    1400:	3718      	adds	r7, #24
    1402:	46bd      	mov	sp, r7
    1404:	bdb0      	pop	{r4, r5, r7, pc}
    1406:	bf00      	nop

00001408 <nrf_log_hexdump_entry_process>:
    1408:	b580      	push	{r7, lr}
    140a:	b086      	sub	sp, #24
    140c:	af00      	add	r7, sp, #0
    140e:	60f8      	str	r0, [r7, #12]
    1410:	60b9      	str	r1, [r7, #8]
    1412:	607a      	str	r2, [r7, #4]
    1414:	603b      	str	r3, [r7, #0]
    1416:	68bb      	ldr	r3, [r7, #8]
    1418:	2b08      	cmp	r3, #8
    141a:	d85c      	bhi.n	14d6 <nrf_log_hexdump_entry_process+0xce>
    141c:	683b      	ldr	r3, [r7, #0]
    141e:	7b1b      	ldrb	r3, [r3, #12]
    1420:	74fb      	strb	r3, [r7, #19]
    1422:	683b      	ldr	r3, [r7, #0]
    1424:	2200      	movs	r2, #0
    1426:	731a      	strb	r2, [r3, #12]
    1428:	6839      	ldr	r1, [r7, #0]
    142a:	6878      	ldr	r0, [r7, #4]
    142c:	f7ff fec0 	bl	11b0 <prefix_process>
    1430:	2300      	movs	r3, #0
    1432:	617b      	str	r3, [r7, #20]
    1434:	e014      	b.n	1460 <nrf_log_hexdump_entry_process+0x58>
    1436:	697a      	ldr	r2, [r7, #20]
    1438:	68bb      	ldr	r3, [r7, #8]
    143a:	429a      	cmp	r2, r3
    143c:	d209      	bcs.n	1452 <nrf_log_hexdump_entry_process+0x4a>
    143e:	68fa      	ldr	r2, [r7, #12]
    1440:	697b      	ldr	r3, [r7, #20]
    1442:	4413      	add	r3, r2
    1444:	781b      	ldrb	r3, [r3, #0]
    1446:	461a      	mov	r2, r3
    1448:	4925      	ldr	r1, [pc, #148]	; (14e0 <nrf_log_hexdump_entry_process+0xd8>)
    144a:	6838      	ldr	r0, [r7, #0]
    144c:	f000 fa45 	bl	18da <nrf_fprintf>
    1450:	e003      	b.n	145a <nrf_log_hexdump_entry_process+0x52>
    1452:	4924      	ldr	r1, [pc, #144]	; (14e4 <nrf_log_hexdump_entry_process+0xdc>)
    1454:	6838      	ldr	r0, [r7, #0]
    1456:	f000 fa40 	bl	18da <nrf_fprintf>
    145a:	697b      	ldr	r3, [r7, #20]
    145c:	3301      	adds	r3, #1
    145e:	617b      	str	r3, [r7, #20]
    1460:	697b      	ldr	r3, [r7, #20]
    1462:	2b07      	cmp	r3, #7
    1464:	d9e7      	bls.n	1436 <nrf_log_hexdump_entry_process+0x2e>
    1466:	4920      	ldr	r1, [pc, #128]	; (14e8 <nrf_log_hexdump_entry_process+0xe0>)
    1468:	6838      	ldr	r0, [r7, #0]
    146a:	f000 fa36 	bl	18da <nrf_fprintf>
    146e:	2300      	movs	r3, #0
    1470:	617b      	str	r3, [r7, #20]
    1472:	e024      	b.n	14be <nrf_log_hexdump_entry_process+0xb6>
    1474:	697a      	ldr	r2, [r7, #20]
    1476:	68bb      	ldr	r3, [r7, #8]
    1478:	429a      	cmp	r2, r3
    147a:	d219      	bcs.n	14b0 <nrf_log_hexdump_entry_process+0xa8>
    147c:	68fa      	ldr	r2, [r7, #12]
    147e:	697b      	ldr	r3, [r7, #20]
    1480:	4413      	add	r3, r2
    1482:	781b      	ldrb	r3, [r3, #0]
    1484:	74bb      	strb	r3, [r7, #18]
    1486:	7cbb      	ldrb	r3, [r7, #18]
    1488:	2b7e      	cmp	r3, #126	; 0x7e
    148a:	d80a      	bhi.n	14a2 <nrf_log_hexdump_entry_process+0x9a>
    148c:	7cbb      	ldrb	r3, [r7, #18]
    148e:	3301      	adds	r3, #1
    1490:	4a16      	ldr	r2, [pc, #88]	; (14ec <nrf_log_hexdump_entry_process+0xe4>)
    1492:	4413      	add	r3, r2
    1494:	781b      	ldrb	r3, [r3, #0]
    1496:	f003 0397 	and.w	r3, r3, #151	; 0x97
    149a:	2b00      	cmp	r3, #0
    149c:	d001      	beq.n	14a2 <nrf_log_hexdump_entry_process+0x9a>
    149e:	7cbb      	ldrb	r3, [r7, #18]
    14a0:	e000      	b.n	14a4 <nrf_log_hexdump_entry_process+0x9c>
    14a2:	232e      	movs	r3, #46	; 0x2e
    14a4:	461a      	mov	r2, r3
    14a6:	4912      	ldr	r1, [pc, #72]	; (14f0 <nrf_log_hexdump_entry_process+0xe8>)
    14a8:	6838      	ldr	r0, [r7, #0]
    14aa:	f000 fa16 	bl	18da <nrf_fprintf>
    14ae:	e003      	b.n	14b8 <nrf_log_hexdump_entry_process+0xb0>
    14b0:	4910      	ldr	r1, [pc, #64]	; (14f4 <nrf_log_hexdump_entry_process+0xec>)
    14b2:	6838      	ldr	r0, [r7, #0]
    14b4:	f000 fa11 	bl	18da <nrf_fprintf>
    14b8:	697b      	ldr	r3, [r7, #20]
    14ba:	3301      	adds	r3, #1
    14bc:	617b      	str	r3, [r7, #20]
    14be:	697b      	ldr	r3, [r7, #20]
    14c0:	2b07      	cmp	r3, #7
    14c2:	d9d7      	bls.n	1474 <nrf_log_hexdump_entry_process+0x6c>
    14c4:	2201      	movs	r2, #1
    14c6:	6839      	ldr	r1, [r7, #0]
    14c8:	6878      	ldr	r0, [r7, #4]
    14ca:	f7ff fecb 	bl	1264 <postfix_process>
    14ce:	683b      	ldr	r3, [r7, #0]
    14d0:	7cfa      	ldrb	r2, [r7, #19]
    14d2:	731a      	strb	r2, [r3, #12]
    14d4:	e000      	b.n	14d8 <nrf_log_hexdump_entry_process+0xd0>
    14d6:	bf00      	nop
    14d8:	3718      	adds	r7, #24
    14da:	46bd      	mov	sp, r7
    14dc:	bd80      	pop	{r7, pc}
    14de:	bf00      	nop
    14e0:	00005e74 	.word	0x00005e74
    14e4:	00005e7c 	.word	0x00005e7c
    14e8:	00005e80 	.word	0x00005e80
    14ec:	00005f56 	.word	0x00005f56
    14f0:	00005e84 	.word	0x00005e84
    14f4:	00005e88 	.word	0x00005e88

000014f8 <app_error_handler_bare>:
    14f8:	b580      	push	{r7, lr}
    14fa:	b086      	sub	sp, #24
    14fc:	af00      	add	r7, sp, #0
    14fe:	6078      	str	r0, [r7, #4]
    1500:	2300      	movs	r3, #0
    1502:	60fb      	str	r3, [r7, #12]
    1504:	2300      	movs	r3, #0
    1506:	613b      	str	r3, [r7, #16]
    1508:	687b      	ldr	r3, [r7, #4]
    150a:	617b      	str	r3, [r7, #20]
    150c:	f107 030c 	add.w	r3, r7, #12
    1510:	461a      	mov	r2, r3
    1512:	2100      	movs	r1, #0
    1514:	f244 0001 	movw	r0, #16385	; 0x4001
    1518:	f000 f81a 	bl	1550 <app_error_fault_handler>
    151c:	bf00      	nop
    151e:	3718      	adds	r7, #24
    1520:	46bd      	mov	sp, r7
    1522:	bd80      	pop	{r7, pc}

00001524 <__NVIC_SystemReset>:
    1524:	b480      	push	{r7}
    1526:	af00      	add	r7, sp, #0
    1528:	f3bf 8f4f 	dsb	sy
    152c:	bf00      	nop
    152e:	4b06      	ldr	r3, [pc, #24]	; (1548 <__NVIC_SystemReset+0x24>)
    1530:	68db      	ldr	r3, [r3, #12]
    1532:	f403 62e0 	and.w	r2, r3, #1792	; 0x700
    1536:	4904      	ldr	r1, [pc, #16]	; (1548 <__NVIC_SystemReset+0x24>)
    1538:	4b04      	ldr	r3, [pc, #16]	; (154c <__NVIC_SystemReset+0x28>)
    153a:	4313      	orrs	r3, r2
    153c:	60cb      	str	r3, [r1, #12]
    153e:	f3bf 8f4f 	dsb	sy
    1542:	bf00      	nop
    1544:	bf00      	nop
    1546:	e7fd      	b.n	1544 <__NVIC_SystemReset+0x20>
    1548:	e000ed00 	.word	0xe000ed00
    154c:	05fa0004 	.word	0x05fa0004

00001550 <app_error_fault_handler>:
    1550:	b580      	push	{r7, lr}
    1552:	b084      	sub	sp, #16
    1554:	af00      	add	r7, sp, #0
    1556:	60f8      	str	r0, [r7, #12]
    1558:	60b9      	str	r1, [r7, #8]
    155a:	607a      	str	r2, [r7, #4]
    155c:	b672      	cpsid	i
    155e:	bf00      	nop
    1560:	f7ff fdfa 	bl	1158 <nrf_log_panic>
    1564:	f7ff fbd0 	bl	d08 <nrf_log_frontend_dequeue>
    1568:	4603      	mov	r3, r0
    156a:	2b00      	cmp	r3, #0
    156c:	d1fa      	bne.n	1564 <app_error_fault_handler+0x14>
    156e:	4a0f      	ldr	r2, [pc, #60]	; (15ac <app_error_fault_handler+0x5c>)
    1570:	4b0f      	ldr	r3, [pc, #60]	; (15b0 <app_error_fault_handler+0x60>)
    1572:	1ad3      	subs	r3, r2, r3
    1574:	08db      	lsrs	r3, r3, #3
    1576:	041b      	lsls	r3, r3, #16
    1578:	f043 0301 	orr.w	r3, r3, #1
    157c:	490d      	ldr	r1, [pc, #52]	; (15b4 <app_error_fault_handler+0x64>)
    157e:	4618      	mov	r0, r3
    1580:	f7ff fb8e 	bl	ca0 <nrf_log_frontend_std_0>
    1584:	4b0c      	ldr	r3, [pc, #48]	; (15b8 <app_error_fault_handler+0x68>)
    1586:	681b      	ldr	r3, [r3, #0]
    1588:	f003 0301 	and.w	r3, r3, #1
    158c:	2b00      	cmp	r3, #0
    158e:	d000      	beq.n	1592 <app_error_fault_handler+0x42>
    1590:	be00      	bkpt	0x0000
    1592:	4a06      	ldr	r2, [pc, #24]	; (15ac <app_error_fault_handler+0x5c>)
    1594:	4b06      	ldr	r3, [pc, #24]	; (15b0 <app_error_fault_handler+0x60>)
    1596:	1ad3      	subs	r3, r2, r3
    1598:	08db      	lsrs	r3, r3, #3
    159a:	041b      	lsls	r3, r3, #16
    159c:	f043 0302 	orr.w	r3, r3, #2
    15a0:	4906      	ldr	r1, [pc, #24]	; (15bc <app_error_fault_handler+0x6c>)
    15a2:	4618      	mov	r0, r3
    15a4:	f7ff fb7c 	bl	ca0 <nrf_log_frontend_std_0>
    15a8:	f7ff ffbc 	bl	1524 <__NVIC_SystemReset>
    15ac:	0000607c 	.word	0x0000607c
    15b0:	0000605c 	.word	0x0000605c
    15b4:	00005e8c 	.word	0x00005e8c
    15b8:	e000edf0 	.word	0xe000edf0
    15bc:	00005e98 	.word	0x00005e98

000015c0 <app_util_disable_irq>:
    15c0:	b480      	push	{r7}
    15c2:	af00      	add	r7, sp, #0
    15c4:	b672      	cpsid	i
    15c6:	bf00      	nop
    15c8:	4b04      	ldr	r3, [pc, #16]	; (15dc <app_util_disable_irq+0x1c>)
    15ca:	681b      	ldr	r3, [r3, #0]
    15cc:	3301      	adds	r3, #1
    15ce:	4a03      	ldr	r2, [pc, #12]	; (15dc <app_util_disable_irq+0x1c>)
    15d0:	6013      	str	r3, [r2, #0]
    15d2:	bf00      	nop
    15d4:	46bd      	mov	sp, r7
    15d6:	f85d 7b04 	ldr.w	r7, [sp], #4
    15da:	4770      	bx	lr
    15dc:	20000650 	.word	0x20000650

000015e0 <app_util_enable_irq>:
    15e0:	b480      	push	{r7}
    15e2:	af00      	add	r7, sp, #0
    15e4:	4b07      	ldr	r3, [pc, #28]	; (1604 <app_util_enable_irq+0x24>)
    15e6:	681b      	ldr	r3, [r3, #0]
    15e8:	3b01      	subs	r3, #1
    15ea:	4a06      	ldr	r2, [pc, #24]	; (1604 <app_util_enable_irq+0x24>)
    15ec:	6013      	str	r3, [r2, #0]
    15ee:	4b05      	ldr	r3, [pc, #20]	; (1604 <app_util_enable_irq+0x24>)
    15f0:	681b      	ldr	r3, [r3, #0]
    15f2:	2b00      	cmp	r3, #0
    15f4:	d101      	bne.n	15fa <app_util_enable_irq+0x1a>
    15f6:	b662      	cpsie	i
    15f8:	bf00      	nop
    15fa:	bf00      	nop
    15fc:	46bd      	mov	sp, r7
    15fe:	f85d 7b04 	ldr.w	r7, [sp], #4
    1602:	4770      	bx	lr
    1604:	20000650 	.word	0x20000650

00001608 <app_util_critical_region_enter>:
    1608:	b580      	push	{r7, lr}
    160a:	b082      	sub	sp, #8
    160c:	af00      	add	r7, sp, #0
    160e:	6078      	str	r0, [r7, #4]
    1610:	f7ff ffd6 	bl	15c0 <app_util_disable_irq>
    1614:	bf00      	nop
    1616:	3708      	adds	r7, #8
    1618:	46bd      	mov	sp, r7
    161a:	bd80      	pop	{r7, pc}

0000161c <app_util_critical_region_exit>:
    161c:	b580      	push	{r7, lr}
    161e:	b082      	sub	sp, #8
    1620:	af00      	add	r7, sp, #0
    1622:	4603      	mov	r3, r0
    1624:	71fb      	strb	r3, [r7, #7]
    1626:	f7ff ffdb 	bl	15e0 <app_util_enable_irq>
    162a:	bf00      	nop
    162c:	3708      	adds	r7, #8
    162e:	46bd      	mov	sp, r7
    1630:	bd80      	pop	{r7, pc}

00001632 <nrf_atomic_u32_fetch_store>:
    1632:	b490      	push	{r4, r7}
    1634:	b086      	sub	sp, #24
    1636:	af00      	add	r7, sp, #0
    1638:	6078      	str	r0, [r7, #4]
    163a:	6039      	str	r1, [r7, #0]
    163c:	687b      	ldr	r3, [r7, #4]
    163e:	683a      	ldr	r2, [r7, #0]
    1640:	e853 4f00 	ldrex	r4, [r3]
    1644:	4610      	mov	r0, r2
    1646:	e843 0100 	strex	r1, r0, [r3]
    164a:	f091 0f00 	teq	r1, #0
    164e:	d1f7      	bne.n	1640 <nrf_atomic_u32_fetch_store+0xe>
    1650:	617c      	str	r4, [r7, #20]
    1652:	6138      	str	r0, [r7, #16]
    1654:	60f9      	str	r1, [r7, #12]
    1656:	697b      	ldr	r3, [r7, #20]
    1658:	4618      	mov	r0, r3
    165a:	3718      	adds	r7, #24
    165c:	46bd      	mov	sp, r7
    165e:	bc90      	pop	{r4, r7}
    1660:	4770      	bx	lr

00001662 <nrf_atomic_u32_or>:
    1662:	b490      	push	{r4, r7}
    1664:	b086      	sub	sp, #24
    1666:	af00      	add	r7, sp, #0
    1668:	6078      	str	r0, [r7, #4]
    166a:	6039      	str	r1, [r7, #0]
    166c:	687b      	ldr	r3, [r7, #4]
    166e:	683a      	ldr	r2, [r7, #0]
    1670:	e853 4f00 	ldrex	r4, [r3]
    1674:	ea44 0002 	orr.w	r0, r4, r2
    1678:	e843 0100 	strex	r1, r0, [r3]
    167c:	f091 0f00 	teq	r1, #0
    1680:	d1f6      	bne.n	1670 <nrf_atomic_u32_or+0xe>
    1682:	617c      	str	r4, [r7, #20]
    1684:	6138      	str	r0, [r7, #16]
    1686:	60f9      	str	r1, [r7, #12]
    1688:	693b      	ldr	r3, [r7, #16]
    168a:	4618      	mov	r0, r3
    168c:	3718      	adds	r7, #24
    168e:	46bd      	mov	sp, r7
    1690:	bc90      	pop	{r4, r7}
    1692:	4770      	bx	lr

00001694 <nrf_atomic_u32_fetch_and>:
    1694:	b490      	push	{r4, r7}
    1696:	b086      	sub	sp, #24
    1698:	af00      	add	r7, sp, #0
    169a:	6078      	str	r0, [r7, #4]
    169c:	6039      	str	r1, [r7, #0]
    169e:	687b      	ldr	r3, [r7, #4]
    16a0:	683a      	ldr	r2, [r7, #0]
    16a2:	e853 4f00 	ldrex	r4, [r3]
    16a6:	ea04 0002 	and.w	r0, r4, r2
    16aa:	e843 0100 	strex	r1, r0, [r3]
    16ae:	f091 0f00 	teq	r1, #0
    16b2:	d1f6      	bne.n	16a2 <nrf_atomic_u32_fetch_and+0xe>
    16b4:	617c      	str	r4, [r7, #20]
    16b6:	6138      	str	r0, [r7, #16]
    16b8:	60f9      	str	r1, [r7, #12]
    16ba:	697b      	ldr	r3, [r7, #20]
    16bc:	4618      	mov	r0, r3
    16be:	3718      	adds	r7, #24
    16c0:	46bd      	mov	sp, r7
    16c2:	bc90      	pop	{r4, r7}
    16c4:	4770      	bx	lr

000016c6 <nrf_atomic_u32_add>:
    16c6:	b490      	push	{r4, r7}
    16c8:	b086      	sub	sp, #24
    16ca:	af00      	add	r7, sp, #0
    16cc:	6078      	str	r0, [r7, #4]
    16ce:	6039      	str	r1, [r7, #0]
    16d0:	687b      	ldr	r3, [r7, #4]
    16d2:	683a      	ldr	r2, [r7, #0]
    16d4:	e853 4f00 	ldrex	r4, [r3]
    16d8:	eb04 0002 	add.w	r0, r4, r2
    16dc:	e843 0100 	strex	r1, r0, [r3]
    16e0:	f091 0f00 	teq	r1, #0
    16e4:	d1f6      	bne.n	16d4 <nrf_atomic_u32_add+0xe>
    16e6:	617c      	str	r4, [r7, #20]
    16e8:	6138      	str	r0, [r7, #16]
    16ea:	60f9      	str	r1, [r7, #12]
    16ec:	693b      	ldr	r3, [r7, #16]
    16ee:	4618      	mov	r0, r3
    16f0:	3718      	adds	r7, #24
    16f2:	46bd      	mov	sp, r7
    16f4:	bc90      	pop	{r4, r7}
    16f6:	4770      	bx	lr

000016f8 <nrf_atomic_u32_sub>:
    16f8:	b490      	push	{r4, r7}
    16fa:	b086      	sub	sp, #24
    16fc:	af00      	add	r7, sp, #0
    16fe:	6078      	str	r0, [r7, #4]
    1700:	6039      	str	r1, [r7, #0]
    1702:	687b      	ldr	r3, [r7, #4]
    1704:	683a      	ldr	r2, [r7, #0]
    1706:	e853 4f00 	ldrex	r4, [r3]
    170a:	eba4 0002 	sub.w	r0, r4, r2
    170e:	e843 0100 	strex	r1, r0, [r3]
    1712:	f091 0f00 	teq	r1, #0
    1716:	d1f6      	bne.n	1706 <nrf_atomic_u32_sub+0xe>
    1718:	617c      	str	r4, [r7, #20]
    171a:	6138      	str	r0, [r7, #16]
    171c:	60f9      	str	r1, [r7, #12]
    171e:	693b      	ldr	r3, [r7, #16]
    1720:	4618      	mov	r0, r3
    1722:	3718      	adds	r7, #24
    1724:	46bd      	mov	sp, r7
    1726:	bc90      	pop	{r4, r7}
    1728:	4770      	bx	lr

0000172a <nrf_atomic_flag_set>:
    172a:	b580      	push	{r7, lr}
    172c:	b082      	sub	sp, #8
    172e:	af00      	add	r7, sp, #0
    1730:	6078      	str	r0, [r7, #4]
    1732:	2101      	movs	r1, #1
    1734:	6878      	ldr	r0, [r7, #4]
    1736:	f7ff ff94 	bl	1662 <nrf_atomic_u32_or>
    173a:	4603      	mov	r3, r0
    173c:	4618      	mov	r0, r3
    173e:	3708      	adds	r7, #8
    1740:	46bd      	mov	sp, r7
    1742:	bd80      	pop	{r7, pc}

00001744 <nrf_atomic_flag_clear_fetch>:
    1744:	b580      	push	{r7, lr}
    1746:	b082      	sub	sp, #8
    1748:	af00      	add	r7, sp, #0
    174a:	6078      	str	r0, [r7, #4]
    174c:	2100      	movs	r1, #0
    174e:	6878      	ldr	r0, [r7, #4]
    1750:	f7ff ffa0 	bl	1694 <nrf_atomic_u32_fetch_and>
    1754:	4603      	mov	r3, r0
    1756:	4618      	mov	r0, r3
    1758:	3708      	adds	r7, #8
    175a:	46bd      	mov	sp, r7
    175c:	bd80      	pop	{r7, pc}

0000175e <nrf_balloc_idx2block>:
    175e:	b480      	push	{r7}
    1760:	b083      	sub	sp, #12
    1762:	af00      	add	r7, sp, #0
    1764:	6078      	str	r0, [r7, #4]
    1766:	460b      	mov	r3, r1
    1768:	70fb      	strb	r3, [r7, #3]
    176a:	687b      	ldr	r3, [r7, #4]
    176c:	68da      	ldr	r2, [r3, #12]
    176e:	78fb      	ldrb	r3, [r7, #3]
    1770:	6879      	ldr	r1, [r7, #4]
    1772:	8a09      	ldrh	r1, [r1, #16]
    1774:	fb01 f303 	mul.w	r3, r1, r3
    1778:	4413      	add	r3, r2
    177a:	4618      	mov	r0, r3
    177c:	370c      	adds	r7, #12
    177e:	46bd      	mov	sp, r7
    1780:	f85d 7b04 	ldr.w	r7, [sp], #4
    1784:	4770      	bx	lr

00001786 <nrf_balloc_block2idx>:
    1786:	b480      	push	{r7}
    1788:	b083      	sub	sp, #12
    178a:	af00      	add	r7, sp, #0
    178c:	6078      	str	r0, [r7, #4]
    178e:	6039      	str	r1, [r7, #0]
    1790:	683b      	ldr	r3, [r7, #0]
    1792:	687a      	ldr	r2, [r7, #4]
    1794:	68d2      	ldr	r2, [r2, #12]
    1796:	1a9b      	subs	r3, r3, r2
    1798:	687a      	ldr	r2, [r7, #4]
    179a:	8a12      	ldrh	r2, [r2, #16]
    179c:	fbb3 f3f2 	udiv	r3, r3, r2
    17a0:	b2db      	uxtb	r3, r3
    17a2:	4618      	mov	r0, r3
    17a4:	370c      	adds	r7, #12
    17a6:	46bd      	mov	sp, r7
    17a8:	f85d 7b04 	ldr.w	r7, [sp], #4
    17ac:	4770      	bx	lr

000017ae <nrf_balloc_init>:
    17ae:	b480      	push	{r7}
    17b0:	b085      	sub	sp, #20
    17b2:	af00      	add	r7, sp, #0
    17b4:	6078      	str	r0, [r7, #4]
    17b6:	687b      	ldr	r3, [r7, #4]
    17b8:	2b00      	cmp	r3, #0
    17ba:	d101      	bne.n	17c0 <nrf_balloc_init+0x12>
    17bc:	230e      	movs	r3, #14
    17be:	e01c      	b.n	17fa <nrf_balloc_init+0x4c>
    17c0:	687b      	ldr	r3, [r7, #4]
    17c2:	689a      	ldr	r2, [r3, #8]
    17c4:	687b      	ldr	r3, [r7, #4]
    17c6:	685b      	ldr	r3, [r3, #4]
    17c8:	1ad3      	subs	r3, r2, r3
    17ca:	73fb      	strb	r3, [r7, #15]
    17cc:	687b      	ldr	r3, [r7, #4]
    17ce:	681b      	ldr	r3, [r3, #0]
    17d0:	687a      	ldr	r2, [r7, #4]
    17d2:	6852      	ldr	r2, [r2, #4]
    17d4:	601a      	str	r2, [r3, #0]
    17d6:	e006      	b.n	17e6 <nrf_balloc_init+0x38>
    17d8:	687b      	ldr	r3, [r7, #4]
    17da:	681a      	ldr	r2, [r3, #0]
    17dc:	6813      	ldr	r3, [r2, #0]
    17de:	1c59      	adds	r1, r3, #1
    17e0:	6011      	str	r1, [r2, #0]
    17e2:	7bfa      	ldrb	r2, [r7, #15]
    17e4:	701a      	strb	r2, [r3, #0]
    17e6:	7bfb      	ldrb	r3, [r7, #15]
    17e8:	1e5a      	subs	r2, r3, #1
    17ea:	73fa      	strb	r2, [r7, #15]
    17ec:	2b00      	cmp	r3, #0
    17ee:	d1f3      	bne.n	17d8 <nrf_balloc_init+0x2a>
    17f0:	687b      	ldr	r3, [r7, #4]
    17f2:	681b      	ldr	r3, [r3, #0]
    17f4:	2200      	movs	r2, #0
    17f6:	711a      	strb	r2, [r3, #4]
    17f8:	2300      	movs	r3, #0
    17fa:	4618      	mov	r0, r3
    17fc:	3714      	adds	r7, #20
    17fe:	46bd      	mov	sp, r7
    1800:	f85d 7b04 	ldr.w	r7, [sp], #4
    1804:	4770      	bx	lr

00001806 <nrf_balloc_alloc>:
    1806:	b580      	push	{r7, lr}
    1808:	b084      	sub	sp, #16
    180a:	af00      	add	r7, sp, #0
    180c:	6078      	str	r0, [r7, #4]
    180e:	2300      	movs	r3, #0
    1810:	60fb      	str	r3, [r7, #12]
    1812:	2000      	movs	r0, #0
    1814:	f7ff fef8 	bl	1608 <app_util_critical_region_enter>
    1818:	687b      	ldr	r3, [r7, #4]
    181a:	681b      	ldr	r3, [r3, #0]
    181c:	681a      	ldr	r2, [r3, #0]
    181e:	687b      	ldr	r3, [r7, #4]
    1820:	685b      	ldr	r3, [r3, #4]
    1822:	429a      	cmp	r2, r3
    1824:	d91c      	bls.n	1860 <nrf_balloc_alloc+0x5a>
    1826:	687b      	ldr	r3, [r7, #4]
    1828:	681b      	ldr	r3, [r3, #0]
    182a:	681a      	ldr	r2, [r3, #0]
    182c:	3a01      	subs	r2, #1
    182e:	601a      	str	r2, [r3, #0]
    1830:	681b      	ldr	r3, [r3, #0]
    1832:	781b      	ldrb	r3, [r3, #0]
    1834:	4619      	mov	r1, r3
    1836:	6878      	ldr	r0, [r7, #4]
    1838:	f7ff ff91 	bl	175e <nrf_balloc_idx2block>
    183c:	60f8      	str	r0, [r7, #12]
    183e:	687b      	ldr	r3, [r7, #4]
    1840:	689a      	ldr	r2, [r3, #8]
    1842:	687b      	ldr	r3, [r7, #4]
    1844:	681b      	ldr	r3, [r3, #0]
    1846:	681b      	ldr	r3, [r3, #0]
    1848:	1ad3      	subs	r3, r2, r3
    184a:	72fb      	strb	r3, [r7, #11]
    184c:	687b      	ldr	r3, [r7, #4]
    184e:	681b      	ldr	r3, [r3, #0]
    1850:	791b      	ldrb	r3, [r3, #4]
    1852:	7afa      	ldrb	r2, [r7, #11]
    1854:	429a      	cmp	r2, r3
    1856:	d903      	bls.n	1860 <nrf_balloc_alloc+0x5a>
    1858:	687b      	ldr	r3, [r7, #4]
    185a:	681b      	ldr	r3, [r3, #0]
    185c:	7afa      	ldrb	r2, [r7, #11]
    185e:	711a      	strb	r2, [r3, #4]
    1860:	2000      	movs	r0, #0
    1862:	f7ff fedb 	bl	161c <app_util_critical_region_exit>
    1866:	68fb      	ldr	r3, [r7, #12]
    1868:	4618      	mov	r0, r3
    186a:	3710      	adds	r7, #16
    186c:	46bd      	mov	sp, r7
    186e:	bd80      	pop	{r7, pc}

00001870 <nrf_balloc_free>:
    1870:	b590      	push	{r4, r7, lr}
    1872:	b085      	sub	sp, #20
    1874:	af00      	add	r7, sp, #0
    1876:	6078      	str	r0, [r7, #4]
    1878:	6039      	str	r1, [r7, #0]
    187a:	683b      	ldr	r3, [r7, #0]
    187c:	60fb      	str	r3, [r7, #12]
    187e:	2000      	movs	r0, #0
    1880:	f7ff fec2 	bl	1608 <app_util_critical_region_enter>
    1884:	687b      	ldr	r3, [r7, #4]
    1886:	681b      	ldr	r3, [r3, #0]
    1888:	681c      	ldr	r4, [r3, #0]
    188a:	1c62      	adds	r2, r4, #1
    188c:	601a      	str	r2, [r3, #0]
    188e:	68f9      	ldr	r1, [r7, #12]
    1890:	6878      	ldr	r0, [r7, #4]
    1892:	f7ff ff78 	bl	1786 <nrf_balloc_block2idx>
    1896:	4603      	mov	r3, r0
    1898:	7023      	strb	r3, [r4, #0]
    189a:	2000      	movs	r0, #0
    189c:	f7ff febe 	bl	161c <app_util_critical_region_exit>
    18a0:	bf00      	nop
    18a2:	3714      	adds	r7, #20
    18a4:	46bd      	mov	sp, r7
    18a6:	bd90      	pop	{r4, r7, pc}

000018a8 <nrf_fprintf_buffer_flush>:
    18a8:	b580      	push	{r7, lr}
    18aa:	b082      	sub	sp, #8
    18ac:	af00      	add	r7, sp, #0
    18ae:	6078      	str	r0, [r7, #4]
    18b0:	687b      	ldr	r3, [r7, #4]
    18b2:	689b      	ldr	r3, [r3, #8]
    18b4:	2b00      	cmp	r3, #0
    18b6:	d00c      	beq.n	18d2 <nrf_fprintf_buffer_flush+0x2a>
    18b8:	687b      	ldr	r3, [r7, #4]
    18ba:	695b      	ldr	r3, [r3, #20]
    18bc:	687a      	ldr	r2, [r7, #4]
    18be:	6910      	ldr	r0, [r2, #16]
    18c0:	687a      	ldr	r2, [r7, #4]
    18c2:	6811      	ldr	r1, [r2, #0]
    18c4:	687a      	ldr	r2, [r7, #4]
    18c6:	6892      	ldr	r2, [r2, #8]
    18c8:	4798      	blx	r3
    18ca:	687b      	ldr	r3, [r7, #4]
    18cc:	2200      	movs	r2, #0
    18ce:	609a      	str	r2, [r3, #8]
    18d0:	e000      	b.n	18d4 <nrf_fprintf_buffer_flush+0x2c>
    18d2:	bf00      	nop
    18d4:	3708      	adds	r7, #8
    18d6:	46bd      	mov	sp, r7
    18d8:	bd80      	pop	{r7, pc}

000018da <nrf_fprintf>:
    18da:	b40e      	push	{r1, r2, r3}
    18dc:	b580      	push	{r7, lr}
    18de:	b085      	sub	sp, #20
    18e0:	af00      	add	r7, sp, #0
    18e2:	6078      	str	r0, [r7, #4]
    18e4:	69fb      	ldr	r3, [r7, #28]
    18e6:	2b00      	cmp	r3, #0
    18e8:	d00c      	beq.n	1904 <nrf_fprintf+0x2a>
    18ea:	2300      	movs	r3, #0
    18ec:	60fb      	str	r3, [r7, #12]
    18ee:	f107 0320 	add.w	r3, r7, #32
    18f2:	60fb      	str	r3, [r7, #12]
    18f4:	f107 030c 	add.w	r3, r7, #12
    18f8:	461a      	mov	r2, r3
    18fa:	69f9      	ldr	r1, [r7, #28]
    18fc:	6878      	ldr	r0, [r7, #4]
    18fe:	f000 f9af 	bl	1c60 <nrf_fprintf_fmt>
    1902:	e000      	b.n	1906 <nrf_fprintf+0x2c>
    1904:	bf00      	nop
    1906:	3714      	adds	r7, #20
    1908:	46bd      	mov	sp, r7
    190a:	e8bd 4080 	ldmia.w	sp!, {r7, lr}
    190e:	b003      	add	sp, #12
    1910:	4770      	bx	lr

00001912 <buffer_add>:
    1912:	b580      	push	{r7, lr}
    1914:	b082      	sub	sp, #8
    1916:	af00      	add	r7, sp, #0
    1918:	6078      	str	r0, [r7, #4]
    191a:	460b      	mov	r3, r1
    191c:	70fb      	strb	r3, [r7, #3]
    191e:	78fb      	ldrb	r3, [r7, #3]
    1920:	2b0a      	cmp	r3, #10
    1922:	d103      	bne.n	192c <buffer_add+0x1a>
    1924:	210d      	movs	r1, #13
    1926:	6878      	ldr	r0, [r7, #4]
    1928:	f7ff fff3 	bl	1912 <buffer_add>
    192c:	687b      	ldr	r3, [r7, #4]
    192e:	681a      	ldr	r2, [r3, #0]
    1930:	687b      	ldr	r3, [r7, #4]
    1932:	689b      	ldr	r3, [r3, #8]
    1934:	1c58      	adds	r0, r3, #1
    1936:	6879      	ldr	r1, [r7, #4]
    1938:	6088      	str	r0, [r1, #8]
    193a:	4413      	add	r3, r2
    193c:	78fa      	ldrb	r2, [r7, #3]
    193e:	701a      	strb	r2, [r3, #0]
    1940:	687b      	ldr	r3, [r7, #4]
    1942:	689a      	ldr	r2, [r3, #8]
    1944:	687b      	ldr	r3, [r7, #4]
    1946:	685b      	ldr	r3, [r3, #4]
    1948:	429a      	cmp	r2, r3
    194a:	d302      	bcc.n	1952 <buffer_add+0x40>
    194c:	6878      	ldr	r0, [r7, #4]
    194e:	f7ff ffab 	bl	18a8 <nrf_fprintf_buffer_flush>
    1952:	bf00      	nop
    1954:	3708      	adds	r7, #8
    1956:	46bd      	mov	sp, r7
    1958:	bd80      	pop	{r7, pc}

0000195a <string_print>:
    195a:	b580      	push	{r7, lr}
    195c:	b086      	sub	sp, #24
    195e:	af00      	add	r7, sp, #0
    1960:	60f8      	str	r0, [r7, #12]
    1962:	60b9      	str	r1, [r7, #8]
    1964:	607a      	str	r2, [r7, #4]
    1966:	603b      	str	r3, [r7, #0]
    1968:	2300      	movs	r3, #0
    196a:	617b      	str	r3, [r7, #20]
    196c:	683b      	ldr	r3, [r7, #0]
    196e:	f003 0301 	and.w	r3, r3, #1
    1972:	2b00      	cmp	r3, #0
    1974:	d021      	beq.n	19ba <string_print+0x60>
    1976:	e00a      	b.n	198e <string_print+0x34>
    1978:	68bb      	ldr	r3, [r7, #8]
    197a:	3301      	adds	r3, #1
    197c:	60bb      	str	r3, [r7, #8]
    197e:	697b      	ldr	r3, [r7, #20]
    1980:	3301      	adds	r3, #1
    1982:	617b      	str	r3, [r7, #20]
    1984:	7cfb      	ldrb	r3, [r7, #19]
    1986:	4619      	mov	r1, r3
    1988:	68f8      	ldr	r0, [r7, #12]
    198a:	f7ff ffc2 	bl	1912 <buffer_add>
    198e:	68bb      	ldr	r3, [r7, #8]
    1990:	781b      	ldrb	r3, [r3, #0]
    1992:	74fb      	strb	r3, [r7, #19]
    1994:	7cfb      	ldrb	r3, [r7, #19]
    1996:	2b00      	cmp	r3, #0
    1998:	d1ee      	bne.n	1978 <string_print+0x1e>
    199a:	e006      	b.n	19aa <string_print+0x50>
    199c:	687b      	ldr	r3, [r7, #4]
    199e:	3b01      	subs	r3, #1
    19a0:	607b      	str	r3, [r7, #4]
    19a2:	2120      	movs	r1, #32
    19a4:	68f8      	ldr	r0, [r7, #12]
    19a6:	f7ff ffb4 	bl	1912 <buffer_add>
    19aa:	687a      	ldr	r2, [r7, #4]
    19ac:	697b      	ldr	r3, [r7, #20]
    19ae:	429a      	cmp	r2, r3
    19b0:	d92b      	bls.n	1a0a <string_print+0xb0>
    19b2:	687b      	ldr	r3, [r7, #4]
    19b4:	2b00      	cmp	r3, #0
    19b6:	d1f1      	bne.n	199c <string_print+0x42>
    19b8:	e027      	b.n	1a0a <string_print+0xb0>
    19ba:	68bb      	ldr	r3, [r7, #8]
    19bc:	2b00      	cmp	r3, #0
    19be:	d00b      	beq.n	19d8 <string_print+0x7e>
    19c0:	68b8      	ldr	r0, [r7, #8]
    19c2:	f004 f90b 	bl	5bdc <strlen>
    19c6:	6178      	str	r0, [r7, #20]
    19c8:	e006      	b.n	19d8 <string_print+0x7e>
    19ca:	687b      	ldr	r3, [r7, #4]
    19cc:	3b01      	subs	r3, #1
    19ce:	607b      	str	r3, [r7, #4]
    19d0:	2120      	movs	r1, #32
    19d2:	68f8      	ldr	r0, [r7, #12]
    19d4:	f7ff ff9d 	bl	1912 <buffer_add>
    19d8:	687a      	ldr	r2, [r7, #4]
    19da:	697b      	ldr	r3, [r7, #20]
    19dc:	429a      	cmp	r2, r3
    19de:	d90e      	bls.n	19fe <string_print+0xa4>
    19e0:	687b      	ldr	r3, [r7, #4]
    19e2:	2b00      	cmp	r3, #0
    19e4:	d1f1      	bne.n	19ca <string_print+0x70>
    19e6:	e00a      	b.n	19fe <string_print+0xa4>
    19e8:	68bb      	ldr	r3, [r7, #8]
    19ea:	3301      	adds	r3, #1
    19ec:	60bb      	str	r3, [r7, #8]
    19ee:	697b      	ldr	r3, [r7, #20]
    19f0:	3301      	adds	r3, #1
    19f2:	617b      	str	r3, [r7, #20]
    19f4:	7cfb      	ldrb	r3, [r7, #19]
    19f6:	4619      	mov	r1, r3
    19f8:	68f8      	ldr	r0, [r7, #12]
    19fa:	f7ff ff8a 	bl	1912 <buffer_add>
    19fe:	68bb      	ldr	r3, [r7, #8]
    1a00:	781b      	ldrb	r3, [r3, #0]
    1a02:	74fb      	strb	r3, [r7, #19]
    1a04:	7cfb      	ldrb	r3, [r7, #19]
    1a06:	2b00      	cmp	r3, #0
    1a08:	d1ee      	bne.n	19e8 <string_print+0x8e>
    1a0a:	bf00      	nop
    1a0c:	3718      	adds	r7, #24
    1a0e:	46bd      	mov	sp, r7
    1a10:	bd80      	pop	{r7, pc}
	...

00001a14 <unsigned_print>:
    1a14:	b580      	push	{r7, lr}
    1a16:	b088      	sub	sp, #32
    1a18:	af00      	add	r7, sp, #0
    1a1a:	60f8      	str	r0, [r7, #12]
    1a1c:	60b9      	str	r1, [r7, #8]
    1a1e:	607a      	str	r2, [r7, #4]
    1a20:	603b      	str	r3, [r7, #0]
    1a22:	68bb      	ldr	r3, [r7, #8]
    1a24:	61fb      	str	r3, [r7, #28]
    1a26:	2301      	movs	r3, #1
    1a28:	61bb      	str	r3, [r7, #24]
    1a2a:	e007      	b.n	1a3c <unsigned_print+0x28>
    1a2c:	69fa      	ldr	r2, [r7, #28]
    1a2e:	687b      	ldr	r3, [r7, #4]
    1a30:	fbb2 f3f3 	udiv	r3, r2, r3
    1a34:	61fb      	str	r3, [r7, #28]
    1a36:	69bb      	ldr	r3, [r7, #24]
    1a38:	3301      	adds	r3, #1
    1a3a:	61bb      	str	r3, [r7, #24]
    1a3c:	69fa      	ldr	r2, [r7, #28]
    1a3e:	687b      	ldr	r3, [r7, #4]
    1a40:	429a      	cmp	r2, r3
    1a42:	d2f3      	bcs.n	1a2c <unsigned_print+0x18>
    1a44:	683a      	ldr	r2, [r7, #0]
    1a46:	69bb      	ldr	r3, [r7, #24]
    1a48:	429a      	cmp	r2, r3
    1a4a:	d901      	bls.n	1a50 <unsigned_print+0x3c>
    1a4c:	683b      	ldr	r3, [r7, #0]
    1a4e:	61bb      	str	r3, [r7, #24]
    1a50:	6afb      	ldr	r3, [r7, #44]	; 0x2c
    1a52:	f003 0301 	and.w	r3, r3, #1
    1a56:	2b00      	cmp	r3, #0
    1a58:	d11f      	bne.n	1a9a <unsigned_print+0x86>
    1a5a:	6abb      	ldr	r3, [r7, #40]	; 0x28
    1a5c:	2b00      	cmp	r3, #0
    1a5e:	d01c      	beq.n	1a9a <unsigned_print+0x86>
    1a60:	6afb      	ldr	r3, [r7, #44]	; 0x2c
    1a62:	f003 0302 	and.w	r3, r3, #2
    1a66:	2b00      	cmp	r3, #0
    1a68:	d005      	beq.n	1a76 <unsigned_print+0x62>
    1a6a:	683b      	ldr	r3, [r7, #0]
    1a6c:	2b00      	cmp	r3, #0
    1a6e:	d102      	bne.n	1a76 <unsigned_print+0x62>
    1a70:	2330      	movs	r3, #48	; 0x30
    1a72:	75fb      	strb	r3, [r7, #23]
    1a74:	e001      	b.n	1a7a <unsigned_print+0x66>
    1a76:	2320      	movs	r3, #32
    1a78:	75fb      	strb	r3, [r7, #23]
    1a7a:	e007      	b.n	1a8c <unsigned_print+0x78>
    1a7c:	6abb      	ldr	r3, [r7, #40]	; 0x28
    1a7e:	3b01      	subs	r3, #1
    1a80:	62bb      	str	r3, [r7, #40]	; 0x28
    1a82:	7dfb      	ldrb	r3, [r7, #23]
    1a84:	4619      	mov	r1, r3
    1a86:	68f8      	ldr	r0, [r7, #12]
    1a88:	f7ff ff43 	bl	1912 <buffer_add>
    1a8c:	6abb      	ldr	r3, [r7, #40]	; 0x28
    1a8e:	2b00      	cmp	r3, #0
    1a90:	d003      	beq.n	1a9a <unsigned_print+0x86>
    1a92:	69ba      	ldr	r2, [r7, #24]
    1a94:	6abb      	ldr	r3, [r7, #40]	; 0x28
    1a96:	429a      	cmp	r2, r3
    1a98:	d3f0      	bcc.n	1a7c <unsigned_print+0x68>
    1a9a:	2301      	movs	r3, #1
    1a9c:	61fb      	str	r3, [r7, #28]
    1a9e:	683b      	ldr	r3, [r7, #0]
    1aa0:	2b01      	cmp	r3, #1
    1aa2:	d903      	bls.n	1aac <unsigned_print+0x98>
    1aa4:	683b      	ldr	r3, [r7, #0]
    1aa6:	3b01      	subs	r3, #1
    1aa8:	603b      	str	r3, [r7, #0]
    1aaa:	e009      	b.n	1ac0 <unsigned_print+0xac>
    1aac:	68ba      	ldr	r2, [r7, #8]
    1aae:	69fb      	ldr	r3, [r7, #28]
    1ab0:	fbb2 f3f3 	udiv	r3, r2, r3
    1ab4:	613b      	str	r3, [r7, #16]
    1ab6:	693a      	ldr	r2, [r7, #16]
    1ab8:	687b      	ldr	r3, [r7, #4]
    1aba:	429a      	cmp	r2, r3
    1abc:	d200      	bcs.n	1ac0 <unsigned_print+0xac>
    1abe:	e005      	b.n	1acc <unsigned_print+0xb8>
    1ac0:	69fb      	ldr	r3, [r7, #28]
    1ac2:	687a      	ldr	r2, [r7, #4]
    1ac4:	fb02 f303 	mul.w	r3, r2, r3
    1ac8:	61fb      	str	r3, [r7, #28]
    1aca:	e7e8      	b.n	1a9e <unsigned_print+0x8a>
    1acc:	68ba      	ldr	r2, [r7, #8]
    1ace:	69fb      	ldr	r3, [r7, #28]
    1ad0:	fbb2 f3f3 	udiv	r3, r2, r3
    1ad4:	613b      	str	r3, [r7, #16]
    1ad6:	693b      	ldr	r3, [r7, #16]
    1ad8:	69fa      	ldr	r2, [r7, #28]
    1ada:	fb02 f303 	mul.w	r3, r2, r3
    1ade:	68ba      	ldr	r2, [r7, #8]
    1ae0:	1ad3      	subs	r3, r2, r3
    1ae2:	60bb      	str	r3, [r7, #8]
    1ae4:	4a15      	ldr	r2, [pc, #84]	; (1b3c <unsigned_print+0x128>)
    1ae6:	693b      	ldr	r3, [r7, #16]
    1ae8:	4413      	add	r3, r2
    1aea:	781b      	ldrb	r3, [r3, #0]
    1aec:	4619      	mov	r1, r3
    1aee:	68f8      	ldr	r0, [r7, #12]
    1af0:	f7ff ff0f 	bl	1912 <buffer_add>
    1af4:	69fa      	ldr	r2, [r7, #28]
    1af6:	687b      	ldr	r3, [r7, #4]
    1af8:	fbb2 f3f3 	udiv	r3, r2, r3
    1afc:	61fb      	str	r3, [r7, #28]
    1afe:	69fb      	ldr	r3, [r7, #28]
    1b00:	2b00      	cmp	r3, #0
    1b02:	d1e3      	bne.n	1acc <unsigned_print+0xb8>
    1b04:	6afb      	ldr	r3, [r7, #44]	; 0x2c
    1b06:	f003 0301 	and.w	r3, r3, #1
    1b0a:	2b00      	cmp	r3, #0
    1b0c:	d011      	beq.n	1b32 <unsigned_print+0x11e>
    1b0e:	6abb      	ldr	r3, [r7, #40]	; 0x28
    1b10:	2b00      	cmp	r3, #0
    1b12:	d00e      	beq.n	1b32 <unsigned_print+0x11e>
    1b14:	e006      	b.n	1b24 <unsigned_print+0x110>
    1b16:	6abb      	ldr	r3, [r7, #40]	; 0x28
    1b18:	3b01      	subs	r3, #1
    1b1a:	62bb      	str	r3, [r7, #40]	; 0x28
    1b1c:	2120      	movs	r1, #32
    1b1e:	68f8      	ldr	r0, [r7, #12]
    1b20:	f7ff fef7 	bl	1912 <buffer_add>
    1b24:	6abb      	ldr	r3, [r7, #40]	; 0x28
    1b26:	2b00      	cmp	r3, #0
    1b28:	d003      	beq.n	1b32 <unsigned_print+0x11e>
    1b2a:	69ba      	ldr	r2, [r7, #24]
    1b2c:	6abb      	ldr	r3, [r7, #40]	; 0x28
    1b2e:	429a      	cmp	r2, r3
    1b30:	d3f1      	bcc.n	1b16 <unsigned_print+0x102>
    1b32:	bf00      	nop
    1b34:	3720      	adds	r7, #32
    1b36:	46bd      	mov	sp, r7
    1b38:	bd80      	pop	{r7, pc}
    1b3a:	bf00      	nop
    1b3c:	00005ea8 	.word	0x00005ea8

00001b40 <int_print>:
    1b40:	b580      	push	{r7, lr}
    1b42:	b088      	sub	sp, #32
    1b44:	af02      	add	r7, sp, #8
    1b46:	60f8      	str	r0, [r7, #12]
    1b48:	60b9      	str	r1, [r7, #8]
    1b4a:	607a      	str	r2, [r7, #4]
    1b4c:	603b      	str	r3, [r7, #0]
    1b4e:	68bb      	ldr	r3, [r7, #8]
    1b50:	2b00      	cmp	r3, #0
    1b52:	bfb8      	it	lt
    1b54:	425b      	neglt	r3, r3
    1b56:	613b      	str	r3, [r7, #16]
    1b58:	2301      	movs	r3, #1
    1b5a:	617b      	str	r3, [r7, #20]
    1b5c:	e007      	b.n	1b6e <int_print+0x2e>
    1b5e:	687b      	ldr	r3, [r7, #4]
    1b60:	693a      	ldr	r2, [r7, #16]
    1b62:	fb92 f3f3 	sdiv	r3, r2, r3
    1b66:	613b      	str	r3, [r7, #16]
    1b68:	697b      	ldr	r3, [r7, #20]
    1b6a:	3301      	adds	r3, #1
    1b6c:	617b      	str	r3, [r7, #20]
    1b6e:	687b      	ldr	r3, [r7, #4]
    1b70:	693a      	ldr	r2, [r7, #16]
    1b72:	429a      	cmp	r2, r3
    1b74:	daf3      	bge.n	1b5e <int_print+0x1e>
    1b76:	683a      	ldr	r2, [r7, #0]
    1b78:	697b      	ldr	r3, [r7, #20]
    1b7a:	429a      	cmp	r2, r3
    1b7c:	d901      	bls.n	1b82 <int_print+0x42>
    1b7e:	683b      	ldr	r3, [r7, #0]
    1b80:	617b      	str	r3, [r7, #20]
    1b82:	6a3b      	ldr	r3, [r7, #32]
    1b84:	2b00      	cmp	r3, #0
    1b86:	d00a      	beq.n	1b9e <int_print+0x5e>
    1b88:	68bb      	ldr	r3, [r7, #8]
    1b8a:	2b00      	cmp	r3, #0
    1b8c:	db04      	blt.n	1b98 <int_print+0x58>
    1b8e:	6a7b      	ldr	r3, [r7, #36]	; 0x24
    1b90:	f003 0304 	and.w	r3, r3, #4
    1b94:	2b00      	cmp	r3, #0
    1b96:	d002      	beq.n	1b9e <int_print+0x5e>
    1b98:	6a3b      	ldr	r3, [r7, #32]
    1b9a:	3b01      	subs	r3, #1
    1b9c:	623b      	str	r3, [r7, #32]
    1b9e:	6a7b      	ldr	r3, [r7, #36]	; 0x24
    1ba0:	f003 0302 	and.w	r3, r3, #2
    1ba4:	2b00      	cmp	r3, #0
    1ba6:	d002      	beq.n	1bae <int_print+0x6e>
    1ba8:	683b      	ldr	r3, [r7, #0]
    1baa:	2b00      	cmp	r3, #0
    1bac:	d016      	beq.n	1bdc <int_print+0x9c>
    1bae:	6a7b      	ldr	r3, [r7, #36]	; 0x24
    1bb0:	f003 0301 	and.w	r3, r3, #1
    1bb4:	2b00      	cmp	r3, #0
    1bb6:	d111      	bne.n	1bdc <int_print+0x9c>
    1bb8:	6a3b      	ldr	r3, [r7, #32]
    1bba:	2b00      	cmp	r3, #0
    1bbc:	d00e      	beq.n	1bdc <int_print+0x9c>
    1bbe:	e006      	b.n	1bce <int_print+0x8e>
    1bc0:	6a3b      	ldr	r3, [r7, #32]
    1bc2:	3b01      	subs	r3, #1
    1bc4:	623b      	str	r3, [r7, #32]
    1bc6:	2120      	movs	r1, #32
    1bc8:	68f8      	ldr	r0, [r7, #12]
    1bca:	f7ff fea2 	bl	1912 <buffer_add>
    1bce:	6a3b      	ldr	r3, [r7, #32]
    1bd0:	2b00      	cmp	r3, #0
    1bd2:	d003      	beq.n	1bdc <int_print+0x9c>
    1bd4:	697a      	ldr	r2, [r7, #20]
    1bd6:	6a3b      	ldr	r3, [r7, #32]
    1bd8:	429a      	cmp	r2, r3
    1bda:	d3f1      	bcc.n	1bc0 <int_print+0x80>
    1bdc:	68bb      	ldr	r3, [r7, #8]
    1bde:	2b00      	cmp	r3, #0
    1be0:	da07      	bge.n	1bf2 <int_print+0xb2>
    1be2:	68bb      	ldr	r3, [r7, #8]
    1be4:	425b      	negs	r3, r3
    1be6:	60bb      	str	r3, [r7, #8]
    1be8:	212d      	movs	r1, #45	; 0x2d
    1bea:	68f8      	ldr	r0, [r7, #12]
    1bec:	f7ff fe91 	bl	1912 <buffer_add>
    1bf0:	e008      	b.n	1c04 <int_print+0xc4>
    1bf2:	6a7b      	ldr	r3, [r7, #36]	; 0x24
    1bf4:	f003 0304 	and.w	r3, r3, #4
    1bf8:	2b00      	cmp	r3, #0
    1bfa:	d003      	beq.n	1c04 <int_print+0xc4>
    1bfc:	212b      	movs	r1, #43	; 0x2b
    1bfe:	68f8      	ldr	r0, [r7, #12]
    1c00:	f7ff fe87 	bl	1912 <buffer_add>
    1c04:	6a7b      	ldr	r3, [r7, #36]	; 0x24
    1c06:	f003 0302 	and.w	r3, r3, #2
    1c0a:	2b00      	cmp	r3, #0
    1c0c:	d019      	beq.n	1c42 <int_print+0x102>
    1c0e:	6a7b      	ldr	r3, [r7, #36]	; 0x24
    1c10:	f003 0301 	and.w	r3, r3, #1
    1c14:	2b00      	cmp	r3, #0
    1c16:	d114      	bne.n	1c42 <int_print+0x102>
    1c18:	683b      	ldr	r3, [r7, #0]
    1c1a:	2b00      	cmp	r3, #0
    1c1c:	d111      	bne.n	1c42 <int_print+0x102>
    1c1e:	6a3b      	ldr	r3, [r7, #32]
    1c20:	2b00      	cmp	r3, #0
    1c22:	d00e      	beq.n	1c42 <int_print+0x102>
    1c24:	e006      	b.n	1c34 <int_print+0xf4>
    1c26:	6a3b      	ldr	r3, [r7, #32]
    1c28:	3b01      	subs	r3, #1
    1c2a:	623b      	str	r3, [r7, #32]
    1c2c:	2130      	movs	r1, #48	; 0x30
    1c2e:	68f8      	ldr	r0, [r7, #12]
    1c30:	f7ff fe6f 	bl	1912 <buffer_add>
    1c34:	6a3b      	ldr	r3, [r7, #32]
    1c36:	2b00      	cmp	r3, #0
    1c38:	d003      	beq.n	1c42 <int_print+0x102>
    1c3a:	697a      	ldr	r2, [r7, #20]
    1c3c:	6a3b      	ldr	r3, [r7, #32]
    1c3e:	429a      	cmp	r2, r3
    1c40:	d3f1      	bcc.n	1c26 <int_print+0xe6>
    1c42:	68b9      	ldr	r1, [r7, #8]
    1c44:	6a7b      	ldr	r3, [r7, #36]	; 0x24
    1c46:	9301      	str	r3, [sp, #4]
    1c48:	6a3b      	ldr	r3, [r7, #32]
    1c4a:	9300      	str	r3, [sp, #0]
    1c4c:	683b      	ldr	r3, [r7, #0]
    1c4e:	687a      	ldr	r2, [r7, #4]
    1c50:	68f8      	ldr	r0, [r7, #12]
    1c52:	f7ff fedf 	bl	1a14 <unsigned_print>
    1c56:	bf00      	nop
    1c58:	3718      	adds	r7, #24
    1c5a:	46bd      	mov	sp, r7
    1c5c:	bd80      	pop	{r7, pc}
	...

00001c60 <nrf_fprintf_fmt>:
    1c60:	b580      	push	{r7, lr}
    1c62:	b08e      	sub	sp, #56	; 0x38
    1c64:	af02      	add	r7, sp, #8
    1c66:	60f8      	str	r0, [r7, #12]
    1c68:	60b9      	str	r1, [r7, #8]
    1c6a:	607a      	str	r2, [r7, #4]
    1c6c:	68bb      	ldr	r3, [r7, #8]
    1c6e:	2b00      	cmp	r3, #0
    1c70:	f000 818e 	beq.w	1f90 <nrf_fprintf_fmt+0x330>
    1c74:	68bb      	ldr	r3, [r7, #8]
    1c76:	781b      	ldrb	r3, [r3, #0]
    1c78:	f887 302f 	strb.w	r3, [r7, #47]	; 0x2f
    1c7c:	68bb      	ldr	r3, [r7, #8]
    1c7e:	3301      	adds	r3, #1
    1c80:	60bb      	str	r3, [r7, #8]
    1c82:	f897 302f 	ldrb.w	r3, [r7, #47]	; 0x2f
    1c86:	2b00      	cmp	r3, #0
    1c88:	f000 8179 	beq.w	1f7e <nrf_fprintf_fmt+0x31e>
    1c8c:	f897 302f 	ldrb.w	r3, [r7, #47]	; 0x2f
    1c90:	2b25      	cmp	r3, #37	; 0x25
    1c92:	f040 8168 	bne.w	1f66 <nrf_fprintf_fmt+0x306>
    1c96:	2300      	movs	r3, #0
    1c98:	623b      	str	r3, [r7, #32]
    1c9a:	2301      	movs	r3, #1
    1c9c:	62bb      	str	r3, [r7, #40]	; 0x28
    1c9e:	68bb      	ldr	r3, [r7, #8]
    1ca0:	781b      	ldrb	r3, [r3, #0]
    1ca2:	f887 302f 	strb.w	r3, [r7, #47]	; 0x2f
    1ca6:	f897 302f 	ldrb.w	r3, [r7, #47]	; 0x2f
    1caa:	2b30      	cmp	r3, #48	; 0x30
    1cac:	d00d      	beq.n	1cca <nrf_fprintf_fmt+0x6a>
    1cae:	2b30      	cmp	r3, #48	; 0x30
    1cb0:	dc1b      	bgt.n	1cea <nrf_fprintf_fmt+0x8a>
    1cb2:	2b2b      	cmp	r3, #43	; 0x2b
    1cb4:	d011      	beq.n	1cda <nrf_fprintf_fmt+0x7a>
    1cb6:	2b2d      	cmp	r3, #45	; 0x2d
    1cb8:	d117      	bne.n	1cea <nrf_fprintf_fmt+0x8a>
    1cba:	6a3b      	ldr	r3, [r7, #32]
    1cbc:	f043 0301 	orr.w	r3, r3, #1
    1cc0:	623b      	str	r3, [r7, #32]
    1cc2:	68bb      	ldr	r3, [r7, #8]
    1cc4:	3301      	adds	r3, #1
    1cc6:	60bb      	str	r3, [r7, #8]
    1cc8:	e012      	b.n	1cf0 <nrf_fprintf_fmt+0x90>
    1cca:	6a3b      	ldr	r3, [r7, #32]
    1ccc:	f043 0302 	orr.w	r3, r3, #2
    1cd0:	623b      	str	r3, [r7, #32]
    1cd2:	68bb      	ldr	r3, [r7, #8]
    1cd4:	3301      	adds	r3, #1
    1cd6:	60bb      	str	r3, [r7, #8]
    1cd8:	e00a      	b.n	1cf0 <nrf_fprintf_fmt+0x90>
    1cda:	6a3b      	ldr	r3, [r7, #32]
    1cdc:	f043 0304 	orr.w	r3, r3, #4
    1ce0:	623b      	str	r3, [r7, #32]
    1ce2:	68bb      	ldr	r3, [r7, #8]
    1ce4:	3301      	adds	r3, #1
    1ce6:	60bb      	str	r3, [r7, #8]
    1ce8:	e002      	b.n	1cf0 <nrf_fprintf_fmt+0x90>
    1cea:	2300      	movs	r3, #0
    1cec:	62bb      	str	r3, [r7, #40]	; 0x28
    1cee:	bf00      	nop
    1cf0:	6abb      	ldr	r3, [r7, #40]	; 0x28
    1cf2:	2b00      	cmp	r3, #0
    1cf4:	d1d3      	bne.n	1c9e <nrf_fprintf_fmt+0x3e>
    1cf6:	2300      	movs	r3, #0
    1cf8:	61fb      	str	r3, [r7, #28]
    1cfa:	f897 302f 	ldrb.w	r3, [r7, #47]	; 0x2f
    1cfe:	2b2a      	cmp	r3, #42	; 0x2a
    1d00:	d10c      	bne.n	1d1c <nrf_fprintf_fmt+0xbc>
    1d02:	687b      	ldr	r3, [r7, #4]
    1d04:	681b      	ldr	r3, [r3, #0]
    1d06:	1d19      	adds	r1, r3, #4
    1d08:	687a      	ldr	r2, [r7, #4]
    1d0a:	6011      	str	r1, [r2, #0]
    1d0c:	681b      	ldr	r3, [r3, #0]
    1d0e:	69fa      	ldr	r2, [r7, #28]
    1d10:	4413      	add	r3, r2
    1d12:	61fb      	str	r3, [r7, #28]
    1d14:	68bb      	ldr	r3, [r7, #8]
    1d16:	3301      	adds	r3, #1
    1d18:	60bb      	str	r3, [r7, #8]
    1d1a:	e01a      	b.n	1d52 <nrf_fprintf_fmt+0xf2>
    1d1c:	68bb      	ldr	r3, [r7, #8]
    1d1e:	781b      	ldrb	r3, [r3, #0]
    1d20:	f887 302f 	strb.w	r3, [r7, #47]	; 0x2f
    1d24:	f897 302f 	ldrb.w	r3, [r7, #47]	; 0x2f
    1d28:	2b2f      	cmp	r3, #47	; 0x2f
    1d2a:	d912      	bls.n	1d52 <nrf_fprintf_fmt+0xf2>
    1d2c:	f897 302f 	ldrb.w	r3, [r7, #47]	; 0x2f
    1d30:	2b39      	cmp	r3, #57	; 0x39
    1d32:	d80e      	bhi.n	1d52 <nrf_fprintf_fmt+0xf2>
    1d34:	68bb      	ldr	r3, [r7, #8]
    1d36:	3301      	adds	r3, #1
    1d38:	60bb      	str	r3, [r7, #8]
    1d3a:	69fa      	ldr	r2, [r7, #28]
    1d3c:	4613      	mov	r3, r2
    1d3e:	009b      	lsls	r3, r3, #2
    1d40:	4413      	add	r3, r2
    1d42:	005b      	lsls	r3, r3, #1
    1d44:	461a      	mov	r2, r3
    1d46:	f897 302f 	ldrb.w	r3, [r7, #47]	; 0x2f
    1d4a:	4413      	add	r3, r2
    1d4c:	3b30      	subs	r3, #48	; 0x30
    1d4e:	61fb      	str	r3, [r7, #28]
    1d50:	e7d3      	b.n	1cfa <nrf_fprintf_fmt+0x9a>
    1d52:	2300      	movs	r3, #0
    1d54:	627b      	str	r3, [r7, #36]	; 0x24
    1d56:	68bb      	ldr	r3, [r7, #8]
    1d58:	781b      	ldrb	r3, [r3, #0]
    1d5a:	f887 302f 	strb.w	r3, [r7, #47]	; 0x2f
    1d5e:	f897 302f 	ldrb.w	r3, [r7, #47]	; 0x2f
    1d62:	2b2e      	cmp	r3, #46	; 0x2e
    1d64:	d11d      	bne.n	1da2 <nrf_fprintf_fmt+0x142>
    1d66:	68bb      	ldr	r3, [r7, #8]
    1d68:	3301      	adds	r3, #1
    1d6a:	60bb      	str	r3, [r7, #8]
    1d6c:	68bb      	ldr	r3, [r7, #8]
    1d6e:	781b      	ldrb	r3, [r3, #0]
    1d70:	f887 302f 	strb.w	r3, [r7, #47]	; 0x2f
    1d74:	f897 302f 	ldrb.w	r3, [r7, #47]	; 0x2f
    1d78:	2b2f      	cmp	r3, #47	; 0x2f
    1d7a:	d912      	bls.n	1da2 <nrf_fprintf_fmt+0x142>
    1d7c:	f897 302f 	ldrb.w	r3, [r7, #47]	; 0x2f
    1d80:	2b39      	cmp	r3, #57	; 0x39
    1d82:	d80e      	bhi.n	1da2 <nrf_fprintf_fmt+0x142>
    1d84:	68bb      	ldr	r3, [r7, #8]
    1d86:	3301      	adds	r3, #1
    1d88:	60bb      	str	r3, [r7, #8]
    1d8a:	6a7a      	ldr	r2, [r7, #36]	; 0x24
    1d8c:	4613      	mov	r3, r2
    1d8e:	009b      	lsls	r3, r3, #2
    1d90:	4413      	add	r3, r2
    1d92:	005b      	lsls	r3, r3, #1
    1d94:	461a      	mov	r2, r3
    1d96:	f897 302f 	ldrb.w	r3, [r7, #47]	; 0x2f
    1d9a:	4413      	add	r3, r2
    1d9c:	3b30      	subs	r3, #48	; 0x30
    1d9e:	627b      	str	r3, [r7, #36]	; 0x24
    1da0:	e7e4      	b.n	1d6c <nrf_fprintf_fmt+0x10c>
    1da2:	68bb      	ldr	r3, [r7, #8]
    1da4:	781b      	ldrb	r3, [r3, #0]
    1da6:	f887 302f 	strb.w	r3, [r7, #47]	; 0x2f
    1daa:	f897 302f 	ldrb.w	r3, [r7, #47]	; 0x2f
    1dae:	2b6c      	cmp	r3, #108	; 0x6c
    1db0:	d003      	beq.n	1dba <nrf_fprintf_fmt+0x15a>
    1db2:	f897 302f 	ldrb.w	r3, [r7, #47]	; 0x2f
    1db6:	2b68      	cmp	r3, #104	; 0x68
    1db8:	d107      	bne.n	1dca <nrf_fprintf_fmt+0x16a>
    1dba:	68bb      	ldr	r3, [r7, #8]
    1dbc:	3301      	adds	r3, #1
    1dbe:	60bb      	str	r3, [r7, #8]
    1dc0:	68bb      	ldr	r3, [r7, #8]
    1dc2:	781b      	ldrb	r3, [r3, #0]
    1dc4:	f887 302f 	strb.w	r3, [r7, #47]	; 0x2f
    1dc8:	e7ef      	b.n	1daa <nrf_fprintf_fmt+0x14a>
    1dca:	f897 302f 	ldrb.w	r3, [r7, #47]	; 0x2f
    1dce:	2b25      	cmp	r3, #37	; 0x25
    1dd0:	f000 80bf 	beq.w	1f52 <nrf_fprintf_fmt+0x2f2>
    1dd4:	2b25      	cmp	r3, #37	; 0x25
    1dd6:	f2c0 80c1 	blt.w	1f5c <nrf_fprintf_fmt+0x2fc>
    1dda:	2b78      	cmp	r3, #120	; 0x78
    1ddc:	f300 80be 	bgt.w	1f5c <nrf_fprintf_fmt+0x2fc>
    1de0:	2b58      	cmp	r3, #88	; 0x58
    1de2:	f2c0 80bb 	blt.w	1f5c <nrf_fprintf_fmt+0x2fc>
    1de6:	3b58      	subs	r3, #88	; 0x58
    1de8:	2b20      	cmp	r3, #32
    1dea:	f200 80b7 	bhi.w	1f5c <nrf_fprintf_fmt+0x2fc>
    1dee:	a201      	add	r2, pc, #4	; (adr r2, 1df4 <nrf_fprintf_fmt+0x194>)
    1df0:	f852 f023 	ldr.w	pc, [r2, r3, lsl #2]
    1df4:	00001edf 	.word	0x00001edf
    1df8:	00001f5d 	.word	0x00001f5d
    1dfc:	00001f5d 	.word	0x00001f5d
    1e00:	00001f5d 	.word	0x00001f5d
    1e04:	00001f5d 	.word	0x00001f5d
    1e08:	00001f5d 	.word	0x00001f5d
    1e0c:	00001f5d 	.word	0x00001f5d
    1e10:	00001f5d 	.word	0x00001f5d
    1e14:	00001f5d 	.word	0x00001f5d
    1e18:	00001f5d 	.word	0x00001f5d
    1e1c:	00001f5d 	.word	0x00001f5d
    1e20:	00001e79 	.word	0x00001e79
    1e24:	00001e97 	.word	0x00001e97
    1e28:	00001f5d 	.word	0x00001f5d
    1e2c:	00001f5d 	.word	0x00001f5d
    1e30:	00001f5d 	.word	0x00001f5d
    1e34:	00001f5d 	.word	0x00001f5d
    1e38:	00001e97 	.word	0x00001e97
    1e3c:	00001f5d 	.word	0x00001f5d
    1e40:	00001f5d 	.word	0x00001f5d
    1e44:	00001f5d 	.word	0x00001f5d
    1e48:	00001f5d 	.word	0x00001f5d
    1e4c:	00001f5d 	.word	0x00001f5d
    1e50:	00001f5d 	.word	0x00001f5d
    1e54:	00001f1f 	.word	0x00001f1f
    1e58:	00001f5d 	.word	0x00001f5d
    1e5c:	00001f5d 	.word	0x00001f5d
    1e60:	00001f03 	.word	0x00001f03
    1e64:	00001f5d 	.word	0x00001f5d
    1e68:	00001ebb 	.word	0x00001ebb
    1e6c:	00001f5d 	.word	0x00001f5d
    1e70:	00001f5d 	.word	0x00001f5d
    1e74:	00001edf 	.word	0x00001edf
    1e78:	687b      	ldr	r3, [r7, #4]
    1e7a:	681b      	ldr	r3, [r3, #0]
    1e7c:	1d19      	adds	r1, r3, #4
    1e7e:	687a      	ldr	r2, [r7, #4]
    1e80:	6011      	str	r1, [r2, #0]
    1e82:	681b      	ldr	r3, [r3, #0]
    1e84:	62bb      	str	r3, [r7, #40]	; 0x28
    1e86:	6abb      	ldr	r3, [r7, #40]	; 0x28
    1e88:	75fb      	strb	r3, [r7, #23]
    1e8a:	7dfb      	ldrb	r3, [r7, #23]
    1e8c:	4619      	mov	r1, r3
    1e8e:	68f8      	ldr	r0, [r7, #12]
    1e90:	f7ff fd3f 	bl	1912 <buffer_add>
    1e94:	e063      	b.n	1f5e <nrf_fprintf_fmt+0x2fe>
    1e96:	687b      	ldr	r3, [r7, #4]
    1e98:	681b      	ldr	r3, [r3, #0]
    1e9a:	1d19      	adds	r1, r3, #4
    1e9c:	687a      	ldr	r2, [r7, #4]
    1e9e:	6011      	str	r1, [r2, #0]
    1ea0:	681b      	ldr	r3, [r3, #0]
    1ea2:	62bb      	str	r3, [r7, #40]	; 0x28
    1ea4:	6a3b      	ldr	r3, [r7, #32]
    1ea6:	9301      	str	r3, [sp, #4]
    1ea8:	69fb      	ldr	r3, [r7, #28]
    1eaa:	9300      	str	r3, [sp, #0]
    1eac:	6a7b      	ldr	r3, [r7, #36]	; 0x24
    1eae:	220a      	movs	r2, #10
    1eb0:	6ab9      	ldr	r1, [r7, #40]	; 0x28
    1eb2:	68f8      	ldr	r0, [r7, #12]
    1eb4:	f7ff fe44 	bl	1b40 <int_print>
    1eb8:	e051      	b.n	1f5e <nrf_fprintf_fmt+0x2fe>
    1eba:	687b      	ldr	r3, [r7, #4]
    1ebc:	681b      	ldr	r3, [r3, #0]
    1ebe:	1d19      	adds	r1, r3, #4
    1ec0:	687a      	ldr	r2, [r7, #4]
    1ec2:	6011      	str	r1, [r2, #0]
    1ec4:	681b      	ldr	r3, [r3, #0]
    1ec6:	62bb      	str	r3, [r7, #40]	; 0x28
    1ec8:	6ab9      	ldr	r1, [r7, #40]	; 0x28
    1eca:	6a3b      	ldr	r3, [r7, #32]
    1ecc:	9301      	str	r3, [sp, #4]
    1ece:	69fb      	ldr	r3, [r7, #28]
    1ed0:	9300      	str	r3, [sp, #0]
    1ed2:	6a7b      	ldr	r3, [r7, #36]	; 0x24
    1ed4:	220a      	movs	r2, #10
    1ed6:	68f8      	ldr	r0, [r7, #12]
    1ed8:	f7ff fd9c 	bl	1a14 <unsigned_print>
    1edc:	e03f      	b.n	1f5e <nrf_fprintf_fmt+0x2fe>
    1ede:	687b      	ldr	r3, [r7, #4]
    1ee0:	681b      	ldr	r3, [r3, #0]
    1ee2:	1d19      	adds	r1, r3, #4
    1ee4:	687a      	ldr	r2, [r7, #4]
    1ee6:	6011      	str	r1, [r2, #0]
    1ee8:	681b      	ldr	r3, [r3, #0]
    1eea:	62bb      	str	r3, [r7, #40]	; 0x28
    1eec:	6ab9      	ldr	r1, [r7, #40]	; 0x28
    1eee:	6a3b      	ldr	r3, [r7, #32]
    1ef0:	9301      	str	r3, [sp, #4]
    1ef2:	69fb      	ldr	r3, [r7, #28]
    1ef4:	9300      	str	r3, [sp, #0]
    1ef6:	6a7b      	ldr	r3, [r7, #36]	; 0x24
    1ef8:	2210      	movs	r2, #16
    1efa:	68f8      	ldr	r0, [r7, #12]
    1efc:	f7ff fd8a 	bl	1a14 <unsigned_print>
    1f00:	e02d      	b.n	1f5e <nrf_fprintf_fmt+0x2fe>
    1f02:	687b      	ldr	r3, [r7, #4]
    1f04:	681b      	ldr	r3, [r3, #0]
    1f06:	1d19      	adds	r1, r3, #4
    1f08:	687a      	ldr	r2, [r7, #4]
    1f0a:	6011      	str	r1, [r2, #0]
    1f0c:	681b      	ldr	r3, [r3, #0]
    1f0e:	61bb      	str	r3, [r7, #24]
    1f10:	6a3b      	ldr	r3, [r7, #32]
    1f12:	69fa      	ldr	r2, [r7, #28]
    1f14:	69b9      	ldr	r1, [r7, #24]
    1f16:	68f8      	ldr	r0, [r7, #12]
    1f18:	f7ff fd1f 	bl	195a <string_print>
    1f1c:	e01f      	b.n	1f5e <nrf_fprintf_fmt+0x2fe>
    1f1e:	687b      	ldr	r3, [r7, #4]
    1f20:	681b      	ldr	r3, [r3, #0]
    1f22:	1d19      	adds	r1, r3, #4
    1f24:	687a      	ldr	r2, [r7, #4]
    1f26:	6011      	str	r1, [r2, #0]
    1f28:	681b      	ldr	r3, [r3, #0]
    1f2a:	62bb      	str	r3, [r7, #40]	; 0x28
    1f2c:	2130      	movs	r1, #48	; 0x30
    1f2e:	68f8      	ldr	r0, [r7, #12]
    1f30:	f7ff fcef 	bl	1912 <buffer_add>
    1f34:	2178      	movs	r1, #120	; 0x78
    1f36:	68f8      	ldr	r0, [r7, #12]
    1f38:	f7ff fceb 	bl	1912 <buffer_add>
    1f3c:	6ab9      	ldr	r1, [r7, #40]	; 0x28
    1f3e:	2300      	movs	r3, #0
    1f40:	9301      	str	r3, [sp, #4]
    1f42:	2308      	movs	r3, #8
    1f44:	9300      	str	r3, [sp, #0]
    1f46:	2308      	movs	r3, #8
    1f48:	2210      	movs	r2, #16
    1f4a:	68f8      	ldr	r0, [r7, #12]
    1f4c:	f7ff fd62 	bl	1a14 <unsigned_print>
    1f50:	e005      	b.n	1f5e <nrf_fprintf_fmt+0x2fe>
    1f52:	2125      	movs	r1, #37	; 0x25
    1f54:	68f8      	ldr	r0, [r7, #12]
    1f56:	f7ff fcdc 	bl	1912 <buffer_add>
    1f5a:	e000      	b.n	1f5e <nrf_fprintf_fmt+0x2fe>
    1f5c:	bf00      	nop
    1f5e:	68bb      	ldr	r3, [r7, #8]
    1f60:	3301      	adds	r3, #1
    1f62:	60bb      	str	r3, [r7, #8]
    1f64:	e005      	b.n	1f72 <nrf_fprintf_fmt+0x312>
    1f66:	f897 302f 	ldrb.w	r3, [r7, #47]	; 0x2f
    1f6a:	4619      	mov	r1, r3
    1f6c:	68f8      	ldr	r0, [r7, #12]
    1f6e:	f7ff fcd0 	bl	1912 <buffer_add>
    1f72:	68bb      	ldr	r3, [r7, #8]
    1f74:	781b      	ldrb	r3, [r3, #0]
    1f76:	2b00      	cmp	r3, #0
    1f78:	f47f ae7c 	bne.w	1c74 <nrf_fprintf_fmt+0x14>
    1f7c:	e000      	b.n	1f80 <nrf_fprintf_fmt+0x320>
    1f7e:	bf00      	nop
    1f80:	68fb      	ldr	r3, [r7, #12]
    1f82:	7b1b      	ldrb	r3, [r3, #12]
    1f84:	2b00      	cmp	r3, #0
    1f86:	d004      	beq.n	1f92 <nrf_fprintf_fmt+0x332>
    1f88:	68f8      	ldr	r0, [r7, #12]
    1f8a:	f7ff fc8d 	bl	18a8 <nrf_fprintf_buffer_flush>
    1f8e:	e000      	b.n	1f92 <nrf_fprintf_fmt+0x332>
    1f90:	bf00      	nop
    1f92:	3730      	adds	r7, #48	; 0x30
    1f94:	46bd      	mov	sp, r7
    1f96:	bd80      	pop	{r7, pc}

00001f98 <nrf_memobj_pool_init>:
    1f98:	b580      	push	{r7, lr}
    1f9a:	b082      	sub	sp, #8
    1f9c:	af00      	add	r7, sp, #0
    1f9e:	6078      	str	r0, [r7, #4]
    1fa0:	6878      	ldr	r0, [r7, #4]
    1fa2:	f7ff fc04 	bl	17ae <nrf_balloc_init>
    1fa6:	4603      	mov	r3, r0
    1fa8:	4618      	mov	r0, r3
    1faa:	3708      	adds	r7, #8
    1fac:	46bd      	mov	sp, r7
    1fae:	bd80      	pop	{r7, pc}

00001fb0 <nrf_memobj_alloc>:
    1fb0:	b580      	push	{r7, lr}
    1fb2:	b08a      	sub	sp, #40	; 0x28
    1fb4:	af00      	add	r7, sp, #0
    1fb6:	6078      	str	r0, [r7, #4]
    1fb8:	6039      	str	r1, [r7, #0]
    1fba:	687b      	ldr	r3, [r7, #4]
    1fbc:	8a1b      	ldrh	r3, [r3, #16]
    1fbe:	3b04      	subs	r3, #4
    1fc0:	61fb      	str	r3, [r7, #28]
    1fc2:	683a      	ldr	r2, [r7, #0]
    1fc4:	69fb      	ldr	r3, [r7, #28]
    1fc6:	4413      	add	r3, r2
    1fc8:	1cda      	adds	r2, r3, #3
    1fca:	69fb      	ldr	r3, [r7, #28]
    1fcc:	fbb2 f3f3 	udiv	r3, r2, r3
    1fd0:	76fb      	strb	r3, [r7, #27]
    1fd2:	6878      	ldr	r0, [r7, #4]
    1fd4:	f7ff fc17 	bl	1806 <nrf_balloc_alloc>
    1fd8:	6178      	str	r0, [r7, #20]
    1fda:	697b      	ldr	r3, [r7, #20]
    1fdc:	2b00      	cmp	r3, #0
    1fde:	d101      	bne.n	1fe4 <nrf_memobj_alloc+0x34>
    1fe0:	2300      	movs	r3, #0
    1fe2:	e037      	b.n	2054 <Heap_Size+0x54>
    1fe4:	697b      	ldr	r3, [r7, #20]
    1fe6:	2200      	movs	r2, #0
    1fe8:	711a      	strb	r2, [r3, #4]
    1fea:	697b      	ldr	r3, [r7, #20]
    1fec:	2201      	movs	r2, #1
    1fee:	715a      	strb	r2, [r3, #5]
    1ff0:	69fb      	ldr	r3, [r7, #28]
    1ff2:	b29a      	uxth	r2, r3
    1ff4:	697b      	ldr	r3, [r7, #20]
    1ff6:	80da      	strh	r2, [r3, #6]
    1ff8:	697b      	ldr	r3, [r7, #20]
    1ffa:	627b      	str	r3, [r7, #36]	; 0x24
    1ffc:	7efb      	ldrb	r3, [r7, #27]
    1ffe:	3b01      	subs	r3, #1
    2000:	613b      	str	r3, [r7, #16]
    2002:	6a7b      	ldr	r3, [r7, #36]	; 0x24
    2004:	687a      	ldr	r2, [r7, #4]
    2006:	601a      	str	r2, [r3, #0]
    2008:	2300      	movs	r3, #0
    200a:	623b      	str	r3, [r7, #32]
    200c:	e01d      	b.n	204a <Heap_Size+0x4a>
    200e:	6878      	ldr	r0, [r7, #4]
    2010:	f7ff fbf9 	bl	1806 <nrf_balloc_alloc>
    2014:	60f8      	str	r0, [r7, #12]
    2016:	68fb      	ldr	r3, [r7, #12]
    2018:	2b00      	cmp	r3, #0
    201a:	d00e      	beq.n	203a <Heap_Size+0x3a>
    201c:	697b      	ldr	r3, [r7, #20]
    201e:	795b      	ldrb	r3, [r3, #5]
    2020:	3301      	adds	r3, #1
    2022:	b2da      	uxtb	r2, r3
    2024:	697b      	ldr	r3, [r7, #20]
    2026:	715a      	strb	r2, [r3, #5]
    2028:	6a7b      	ldr	r3, [r7, #36]	; 0x24
    202a:	68fa      	ldr	r2, [r7, #12]
    202c:	601a      	str	r2, [r3, #0]
    202e:	68fb      	ldr	r3, [r7, #12]
    2030:	687a      	ldr	r2, [r7, #4]
    2032:	601a      	str	r2, [r3, #0]
    2034:	68fb      	ldr	r3, [r7, #12]
    2036:	627b      	str	r3, [r7, #36]	; 0x24
    2038:	e004      	b.n	2044 <Heap_Size+0x44>
    203a:	6978      	ldr	r0, [r7, #20]
    203c:	f000 f80e 	bl	205c <nrf_memobj_free>
    2040:	2300      	movs	r3, #0
    2042:	e007      	b.n	2054 <Heap_Size+0x54>
    2044:	6a3b      	ldr	r3, [r7, #32]
    2046:	3301      	adds	r3, #1
    2048:	623b      	str	r3, [r7, #32]
    204a:	6a3a      	ldr	r2, [r7, #32]
    204c:	693b      	ldr	r3, [r7, #16]
    204e:	429a      	cmp	r2, r3
    2050:	d3dd      	bcc.n	200e <Heap_Size+0xe>
    2052:	697b      	ldr	r3, [r7, #20]
    2054:	4618      	mov	r0, r3
    2056:	3728      	adds	r7, #40	; 0x28
    2058:	46bd      	mov	sp, r7
    205a:	bd80      	pop	{r7, pc}

0000205c <nrf_memobj_free>:
    205c:	b580      	push	{r7, lr}
    205e:	b08a      	sub	sp, #40	; 0x28
    2060:	af00      	add	r7, sp, #0
    2062:	6078      	str	r0, [r7, #4]
    2064:	687b      	ldr	r3, [r7, #4]
    2066:	61fb      	str	r3, [r7, #28]
    2068:	69fb      	ldr	r3, [r7, #28]
    206a:	795b      	ldrb	r3, [r3, #5]
    206c:	76fb      	strb	r3, [r7, #27]
    206e:	687b      	ldr	r3, [r7, #4]
    2070:	623b      	str	r3, [r7, #32]
    2072:	7efb      	ldrb	r3, [r7, #27]
    2074:	3b01      	subs	r3, #1
    2076:	617b      	str	r3, [r7, #20]
    2078:	2300      	movs	r3, #0
    207a:	627b      	str	r3, [r7, #36]	; 0x24
    207c:	e005      	b.n	208a <nrf_memobj_free+0x2e>
    207e:	6a3b      	ldr	r3, [r7, #32]
    2080:	681b      	ldr	r3, [r3, #0]
    2082:	623b      	str	r3, [r7, #32]
    2084:	6a7b      	ldr	r3, [r7, #36]	; 0x24
    2086:	3301      	adds	r3, #1
    2088:	627b      	str	r3, [r7, #36]	; 0x24
    208a:	6a7a      	ldr	r2, [r7, #36]	; 0x24
    208c:	697b      	ldr	r3, [r7, #20]
    208e:	429a      	cmp	r2, r3
    2090:	d3f5      	bcc.n	207e <nrf_memobj_free+0x22>
    2092:	6a3b      	ldr	r3, [r7, #32]
    2094:	681b      	ldr	r3, [r3, #0]
    2096:	613b      	str	r3, [r7, #16]
    2098:	687b      	ldr	r3, [r7, #4]
    209a:	623b      	str	r3, [r7, #32]
    209c:	2300      	movs	r3, #0
    209e:	627b      	str	r3, [r7, #36]	; 0x24
    20a0:	e00b      	b.n	20ba <nrf_memobj_free+0x5e>
    20a2:	6a3b      	ldr	r3, [r7, #32]
    20a4:	681b      	ldr	r3, [r3, #0]
    20a6:	60fb      	str	r3, [r7, #12]
    20a8:	6a39      	ldr	r1, [r7, #32]
    20aa:	6938      	ldr	r0, [r7, #16]
    20ac:	f7ff fbe0 	bl	1870 <nrf_balloc_free>
    20b0:	68fb      	ldr	r3, [r7, #12]
    20b2:	623b      	str	r3, [r7, #32]
    20b4:	6a7b      	ldr	r3, [r7, #36]	; 0x24
    20b6:	3301      	adds	r3, #1
    20b8:	627b      	str	r3, [r7, #36]	; 0x24
    20ba:	7efb      	ldrb	r3, [r7, #27]
    20bc:	6a7a      	ldr	r2, [r7, #36]	; 0x24
    20be:	429a      	cmp	r2, r3
    20c0:	d3ef      	bcc.n	20a2 <nrf_memobj_free+0x46>
    20c2:	bf00      	nop
    20c4:	bf00      	nop
    20c6:	3728      	adds	r7, #40	; 0x28
    20c8:	46bd      	mov	sp, r7
    20ca:	bd80      	pop	{r7, pc}

000020cc <nrf_memobj_get>:
    20cc:	b580      	push	{r7, lr}
    20ce:	b084      	sub	sp, #16
    20d0:	af00      	add	r7, sp, #0
    20d2:	6078      	str	r0, [r7, #4]
    20d4:	687b      	ldr	r3, [r7, #4]
    20d6:	60fb      	str	r3, [r7, #12]
    20d8:	68fb      	ldr	r3, [r7, #12]
    20da:	3304      	adds	r3, #4
    20dc:	2101      	movs	r1, #1
    20de:	4618      	mov	r0, r3
    20e0:	f7ff faf1 	bl	16c6 <nrf_atomic_u32_add>
    20e4:	bf00      	nop
    20e6:	3710      	adds	r7, #16
    20e8:	46bd      	mov	sp, r7
    20ea:	bd80      	pop	{r7, pc}

000020ec <nrf_memobj_put>:
    20ec:	b580      	push	{r7, lr}
    20ee:	b086      	sub	sp, #24
    20f0:	af00      	add	r7, sp, #0
    20f2:	6078      	str	r0, [r7, #4]
    20f4:	687b      	ldr	r3, [r7, #4]
    20f6:	617b      	str	r3, [r7, #20]
    20f8:	697b      	ldr	r3, [r7, #20]
    20fa:	3304      	adds	r3, #4
    20fc:	2101      	movs	r1, #1
    20fe:	4618      	mov	r0, r3
    2100:	f7ff fafa 	bl	16f8 <nrf_atomic_u32_sub>
    2104:	4603      	mov	r3, r0
    2106:	60fb      	str	r3, [r7, #12]
    2108:	f107 030c 	add.w	r3, r7, #12
    210c:	613b      	str	r3, [r7, #16]
    210e:	693b      	ldr	r3, [r7, #16]
    2110:	781b      	ldrb	r3, [r3, #0]
    2112:	2b00      	cmp	r3, #0
    2114:	d102      	bne.n	211c <nrf_memobj_put+0x30>
    2116:	6878      	ldr	r0, [r7, #4]
    2118:	f7ff ffa0 	bl	205c <nrf_memobj_free>
    211c:	bf00      	nop
    211e:	3718      	adds	r7, #24
    2120:	46bd      	mov	sp, r7
    2122:	bd80      	pop	{r7, pc}

00002124 <memobj_op>:
    2124:	b580      	push	{r7, lr}
    2126:	b090      	sub	sp, #64	; 0x40
    2128:	af00      	add	r7, sp, #0
    212a:	60f8      	str	r0, [r7, #12]
    212c:	60b9      	str	r1, [r7, #8]
    212e:	607a      	str	r2, [r7, #4]
    2130:	603b      	str	r3, [r7, #0]
    2132:	68fb      	ldr	r3, [r7, #12]
    2134:	627b      	str	r3, [r7, #36]	; 0x24
    2136:	68fb      	ldr	r3, [r7, #12]
    2138:	63fb      	str	r3, [r7, #60]	; 0x3c
    213a:	6a7b      	ldr	r3, [r7, #36]	; 0x24
    213c:	88db      	ldrh	r3, [r3, #6]
    213e:	461a      	mov	r2, r3
    2140:	6a7b      	ldr	r3, [r7, #36]	; 0x24
    2142:	795b      	ldrb	r3, [r3, #5]
    2144:	fb02 f303 	mul.w	r3, r2, r3
    2148:	3b04      	subs	r3, #4
    214a:	623b      	str	r3, [r7, #32]
    214c:	6a7b      	ldr	r3, [r7, #36]	; 0x24
    214e:	88db      	ldrh	r3, [r3, #6]
    2150:	61fb      	str	r3, [r7, #28]
    2152:	683b      	ldr	r3, [r7, #0]
    2154:	1d1a      	adds	r2, r3, #4
    2156:	69fb      	ldr	r3, [r7, #28]
    2158:	fbb2 f3f3 	udiv	r3, r2, r3
    215c:	63bb      	str	r3, [r7, #56]	; 0x38
    215e:	683b      	ldr	r3, [r7, #0]
    2160:	3304      	adds	r3, #4
    2162:	69fa      	ldr	r2, [r7, #28]
    2164:	fbb3 f2f2 	udiv	r2, r3, r2
    2168:	69f9      	ldr	r1, [r7, #28]
    216a:	fb01 f202 	mul.w	r2, r1, r2
    216e:	1a9b      	subs	r3, r3, r2
    2170:	637b      	str	r3, [r7, #52]	; 0x34
    2172:	687b      	ldr	r3, [r7, #4]
    2174:	681a      	ldr	r2, [r3, #0]
    2176:	683b      	ldr	r3, [r7, #0]
    2178:	4413      	add	r3, r2
    217a:	6a3a      	ldr	r2, [r7, #32]
    217c:	429a      	cmp	r2, r3
    217e:	d203      	bcs.n	2188 <memobj_op+0x64>
    2180:	6a3a      	ldr	r2, [r7, #32]
    2182:	683b      	ldr	r3, [r7, #0]
    2184:	1ad3      	subs	r3, r2, r3
    2186:	e001      	b.n	218c <memobj_op+0x68>
    2188:	687b      	ldr	r3, [r7, #4]
    218a:	681b      	ldr	r3, [r3, #0]
    218c:	633b      	str	r3, [r7, #48]	; 0x30
    218e:	687b      	ldr	r3, [r7, #4]
    2190:	6b3a      	ldr	r2, [r7, #48]	; 0x30
    2192:	601a      	str	r2, [r3, #0]
    2194:	e005      	b.n	21a2 <memobj_op+0x7e>
    2196:	6bfb      	ldr	r3, [r7, #60]	; 0x3c
    2198:	681b      	ldr	r3, [r3, #0]
    219a:	63fb      	str	r3, [r7, #60]	; 0x3c
    219c:	6bbb      	ldr	r3, [r7, #56]	; 0x38
    219e:	3b01      	subs	r3, #1
    21a0:	63bb      	str	r3, [r7, #56]	; 0x38
    21a2:	6bbb      	ldr	r3, [r7, #56]	; 0x38
    21a4:	2b00      	cmp	r3, #0
    21a6:	d1f6      	bne.n	2196 <memobj_op+0x72>
    21a8:	2300      	movs	r3, #0
    21aa:	62fb      	str	r3, [r7, #44]	; 0x2c
    21ac:	69fa      	ldr	r2, [r7, #28]
    21ae:	6b7b      	ldr	r3, [r7, #52]	; 0x34
    21b0:	1ad3      	subs	r3, r2, r3
    21b2:	62bb      	str	r3, [r7, #40]	; 0x28
    21b4:	6aba      	ldr	r2, [r7, #40]	; 0x28
    21b6:	6b3b      	ldr	r3, [r7, #48]	; 0x30
    21b8:	4293      	cmp	r3, r2
    21ba:	bf28      	it	cs
    21bc:	4613      	movcs	r3, r2
    21be:	62bb      	str	r3, [r7, #40]	; 0x28
    21c0:	e02a      	b.n	2218 <memobj_op+0xf4>
    21c2:	68ba      	ldr	r2, [r7, #8]
    21c4:	6afb      	ldr	r3, [r7, #44]	; 0x2c
    21c6:	4413      	add	r3, r2
    21c8:	61bb      	str	r3, [r7, #24]
    21ca:	6bfa      	ldr	r2, [r7, #60]	; 0x3c
    21cc:	6b7b      	ldr	r3, [r7, #52]	; 0x34
    21ce:	4413      	add	r3, r2
    21d0:	3304      	adds	r3, #4
    21d2:	617b      	str	r3, [r7, #20]
    21d4:	f897 3048 	ldrb.w	r3, [r7, #72]	; 0x48
    21d8:	2b00      	cmp	r3, #0
    21da:	d005      	beq.n	21e8 <memobj_op+0xc4>
    21dc:	6aba      	ldr	r2, [r7, #40]	; 0x28
    21de:	6979      	ldr	r1, [r7, #20]
    21e0:	69b8      	ldr	r0, [r7, #24]
    21e2:	f003 fced 	bl	5bc0 <memcpy>
    21e6:	e004      	b.n	21f2 <memobj_op+0xce>
    21e8:	6aba      	ldr	r2, [r7, #40]	; 0x28
    21ea:	69b9      	ldr	r1, [r7, #24]
    21ec:	6978      	ldr	r0, [r7, #20]
    21ee:	f003 fce7 	bl	5bc0 <memcpy>
    21f2:	2300      	movs	r3, #0
    21f4:	637b      	str	r3, [r7, #52]	; 0x34
    21f6:	6bfb      	ldr	r3, [r7, #60]	; 0x3c
    21f8:	681b      	ldr	r3, [r3, #0]
    21fa:	63fb      	str	r3, [r7, #60]	; 0x3c
    21fc:	6b3a      	ldr	r2, [r7, #48]	; 0x30
    21fe:	6abb      	ldr	r3, [r7, #40]	; 0x28
    2200:	1ad3      	subs	r3, r2, r3
    2202:	633b      	str	r3, [r7, #48]	; 0x30
    2204:	6afa      	ldr	r2, [r7, #44]	; 0x2c
    2206:	6abb      	ldr	r3, [r7, #40]	; 0x28
    2208:	4413      	add	r3, r2
    220a:	62fb      	str	r3, [r7, #44]	; 0x2c
    220c:	69fa      	ldr	r2, [r7, #28]
    220e:	6b3b      	ldr	r3, [r7, #48]	; 0x30
    2210:	4293      	cmp	r3, r2
    2212:	bf28      	it	cs
    2214:	4613      	movcs	r3, r2
    2216:	62bb      	str	r3, [r7, #40]	; 0x28
    2218:	6b3b      	ldr	r3, [r7, #48]	; 0x30
    221a:	2b00      	cmp	r3, #0
    221c:	d1d1      	bne.n	21c2 <memobj_op+0x9e>
    221e:	bf00      	nop
    2220:	bf00      	nop
    2222:	3740      	adds	r7, #64	; 0x40
    2224:	46bd      	mov	sp, r7
    2226:	bd80      	pop	{r7, pc}

00002228 <nrf_memobj_write>:
    2228:	b580      	push	{r7, lr}
    222a:	b088      	sub	sp, #32
    222c:	af02      	add	r7, sp, #8
    222e:	60f8      	str	r0, [r7, #12]
    2230:	60b9      	str	r1, [r7, #8]
    2232:	607a      	str	r2, [r7, #4]
    2234:	603b      	str	r3, [r7, #0]
    2236:	687b      	ldr	r3, [r7, #4]
    2238:	617b      	str	r3, [r7, #20]
    223a:	f107 0214 	add.w	r2, r7, #20
    223e:	2300      	movs	r3, #0
    2240:	9300      	str	r3, [sp, #0]
    2242:	683b      	ldr	r3, [r7, #0]
    2244:	68b9      	ldr	r1, [r7, #8]
    2246:	68f8      	ldr	r0, [r7, #12]
    2248:	f7ff ff6c 	bl	2124 <memobj_op>
    224c:	bf00      	nop
    224e:	3718      	adds	r7, #24
    2250:	46bd      	mov	sp, r7
    2252:	bd80      	pop	{r7, pc}

00002254 <nrf_memobj_read>:
    2254:	b580      	push	{r7, lr}
    2256:	b088      	sub	sp, #32
    2258:	af02      	add	r7, sp, #8
    225a:	60f8      	str	r0, [r7, #12]
    225c:	60b9      	str	r1, [r7, #8]
    225e:	607a      	str	r2, [r7, #4]
    2260:	603b      	str	r3, [r7, #0]
    2262:	687b      	ldr	r3, [r7, #4]
    2264:	617b      	str	r3, [r7, #20]
    2266:	f107 0214 	add.w	r2, r7, #20
    226a:	2301      	movs	r3, #1
    226c:	9300      	str	r3, [sp, #0]
    226e:	683b      	ldr	r3, [r7, #0]
    2270:	68b9      	ldr	r1, [r7, #8]
    2272:	68f8      	ldr	r0, [r7, #12]
    2274:	f7ff ff56 	bl	2124 <memobj_op>
    2278:	bf00      	nop
    227a:	3718      	adds	r7, #24
    227c:	46bd      	mov	sp, r7
    227e:	bd80      	pop	{r7, pc}

00002280 <nrf_ringbuf_init>:
    2280:	b480      	push	{r7}
    2282:	b083      	sub	sp, #12
    2284:	af00      	add	r7, sp, #0
    2286:	6078      	str	r0, [r7, #4]
    2288:	687b      	ldr	r3, [r7, #4]
    228a:	689b      	ldr	r3, [r3, #8]
    228c:	2200      	movs	r2, #0
    228e:	609a      	str	r2, [r3, #8]
    2290:	687b      	ldr	r3, [r7, #4]
    2292:	689b      	ldr	r3, [r3, #8]
    2294:	2200      	movs	r2, #0
    2296:	611a      	str	r2, [r3, #16]
    2298:	687b      	ldr	r3, [r7, #4]
    229a:	689b      	ldr	r3, [r3, #8]
    229c:	2200      	movs	r2, #0
    229e:	615a      	str	r2, [r3, #20]
    22a0:	687b      	ldr	r3, [r7, #4]
    22a2:	689b      	ldr	r3, [r3, #8]
    22a4:	2200      	movs	r2, #0
    22a6:	60da      	str	r2, [r3, #12]
    22a8:	687b      	ldr	r3, [r7, #4]
    22aa:	689b      	ldr	r3, [r3, #8]
    22ac:	2200      	movs	r2, #0
    22ae:	605a      	str	r2, [r3, #4]
    22b0:	687b      	ldr	r3, [r7, #4]
    22b2:	689b      	ldr	r3, [r3, #8]
    22b4:	2200      	movs	r2, #0
    22b6:	601a      	str	r2, [r3, #0]
    22b8:	bf00      	nop
    22ba:	370c      	adds	r7, #12
    22bc:	46bd      	mov	sp, r7
    22be:	f85d 7b04 	ldr.w	r7, [sp], #4
    22c2:	4770      	bx	lr

000022c4 <nrfx_coredep_delay_us>:
    22c4:	b580      	push	{r7, lr}
    22c6:	b084      	sub	sp, #16
    22c8:	af00      	add	r7, sp, #0
    22ca:	6078      	str	r0, [r7, #4]
    22cc:	687b      	ldr	r3, [r7, #4]
    22ce:	2b00      	cmp	r3, #0
    22d0:	d00a      	beq.n	22e8 <nrfx_coredep_delay_us+0x24>
    22d2:	4b07      	ldr	r3, [pc, #28]	; (22f0 <nrfx_coredep_delay_us+0x2c>)
    22d4:	f043 0301 	orr.w	r3, r3, #1
    22d8:	60fb      	str	r3, [r7, #12]
    22da:	687b      	ldr	r3, [r7, #4]
    22dc:	019b      	lsls	r3, r3, #6
    22de:	60bb      	str	r3, [r7, #8]
    22e0:	68fb      	ldr	r3, [r7, #12]
    22e2:	68b8      	ldr	r0, [r7, #8]
    22e4:	4798      	blx	r3
    22e6:	e000      	b.n	22ea <nrfx_coredep_delay_us+0x26>
    22e8:	bf00      	nop
    22ea:	3710      	adds	r7, #16
    22ec:	46bd      	mov	sp, r7
    22ee:	bd80      	pop	{r7, pc}
    22f0:	00005ec0 	.word	0x00005ec0

000022f4 <nrf_gpio_pin_port_decode>:
    22f4:	b480      	push	{r7}
    22f6:	b083      	sub	sp, #12
    22f8:	af00      	add	r7, sp, #0
    22fa:	6078      	str	r0, [r7, #4]
    22fc:	f04f 43a0 	mov.w	r3, #1342177280	; 0x50000000
    2300:	4618      	mov	r0, r3
    2302:	370c      	adds	r7, #12
    2304:	46bd      	mov	sp, r7
    2306:	f85d 7b04 	ldr.w	r7, [sp], #4
    230a:	4770      	bx	lr

0000230c <nrf_gpio_pin_set>:
    230c:	b580      	push	{r7, lr}
    230e:	b084      	sub	sp, #16
    2310:	af00      	add	r7, sp, #0
    2312:	6078      	str	r0, [r7, #4]
    2314:	1d3b      	adds	r3, r7, #4
    2316:	4618      	mov	r0, r3
    2318:	f7ff ffec 	bl	22f4 <nrf_gpio_pin_port_decode>
    231c:	60f8      	str	r0, [r7, #12]
    231e:	687b      	ldr	r3, [r7, #4]
    2320:	2201      	movs	r2, #1
    2322:	fa02 f303 	lsl.w	r3, r2, r3
    2326:	4619      	mov	r1, r3
    2328:	68f8      	ldr	r0, [r7, #12]
    232a:	f000 f83c 	bl	23a6 <nrf_gpio_port_out_set>
    232e:	bf00      	nop
    2330:	3710      	adds	r7, #16
    2332:	46bd      	mov	sp, r7
    2334:	bd80      	pop	{r7, pc}

00002336 <nrf_gpio_pin_clear>:
    2336:	b580      	push	{r7, lr}
    2338:	b084      	sub	sp, #16
    233a:	af00      	add	r7, sp, #0
    233c:	6078      	str	r0, [r7, #4]
    233e:	1d3b      	adds	r3, r7, #4
    2340:	4618      	mov	r0, r3
    2342:	f7ff ffd7 	bl	22f4 <nrf_gpio_pin_port_decode>
    2346:	60f8      	str	r0, [r7, #12]
    2348:	687b      	ldr	r3, [r7, #4]
    234a:	2201      	movs	r2, #1
    234c:	fa02 f303 	lsl.w	r3, r2, r3
    2350:	4619      	mov	r1, r3
    2352:	68f8      	ldr	r0, [r7, #12]
    2354:	f000 f836 	bl	23c4 <nrf_gpio_port_out_clear>
    2358:	bf00      	nop
    235a:	3710      	adds	r7, #16
    235c:	46bd      	mov	sp, r7
    235e:	bd80      	pop	{r7, pc}

00002360 <nrf_gpio_pin_read>:
    2360:	b580      	push	{r7, lr}
    2362:	b084      	sub	sp, #16
    2364:	af00      	add	r7, sp, #0
    2366:	6078      	str	r0, [r7, #4]
    2368:	1d3b      	adds	r3, r7, #4
    236a:	4618      	mov	r0, r3
    236c:	f7ff ffc2 	bl	22f4 <nrf_gpio_pin_port_decode>
    2370:	60f8      	str	r0, [r7, #12]
    2372:	68f8      	ldr	r0, [r7, #12]
    2374:	f000 f80a 	bl	238c <nrf_gpio_port_in_read>
    2378:	4602      	mov	r2, r0
    237a:	687b      	ldr	r3, [r7, #4]
    237c:	fa22 f303 	lsr.w	r3, r2, r3
    2380:	f003 0301 	and.w	r3, r3, #1
    2384:	4618      	mov	r0, r3
    2386:	3710      	adds	r7, #16
    2388:	46bd      	mov	sp, r7
    238a:	bd80      	pop	{r7, pc}

0000238c <nrf_gpio_port_in_read>:
    238c:	b480      	push	{r7}
    238e:	b083      	sub	sp, #12
    2390:	af00      	add	r7, sp, #0
    2392:	6078      	str	r0, [r7, #4]
    2394:	687b      	ldr	r3, [r7, #4]
    2396:	f8d3 3510 	ldr.w	r3, [r3, #1296]	; 0x510
    239a:	4618      	mov	r0, r3
    239c:	370c      	adds	r7, #12
    239e:	46bd      	mov	sp, r7
    23a0:	f85d 7b04 	ldr.w	r7, [sp], #4
    23a4:	4770      	bx	lr

000023a6 <nrf_gpio_port_out_set>:
    23a6:	b480      	push	{r7}
    23a8:	b083      	sub	sp, #12
    23aa:	af00      	add	r7, sp, #0
    23ac:	6078      	str	r0, [r7, #4]
    23ae:	6039      	str	r1, [r7, #0]
    23b0:	687b      	ldr	r3, [r7, #4]
    23b2:	683a      	ldr	r2, [r7, #0]
    23b4:	f8c3 2508 	str.w	r2, [r3, #1288]	; 0x508
    23b8:	bf00      	nop
    23ba:	370c      	adds	r7, #12
    23bc:	46bd      	mov	sp, r7
    23be:	f85d 7b04 	ldr.w	r7, [sp], #4
    23c2:	4770      	bx	lr

000023c4 <nrf_gpio_port_out_clear>:
    23c4:	b480      	push	{r7}
    23c6:	b083      	sub	sp, #12
    23c8:	af00      	add	r7, sp, #0
    23ca:	6078      	str	r0, [r7, #4]
    23cc:	6039      	str	r1, [r7, #0]
    23ce:	687b      	ldr	r3, [r7, #4]
    23d0:	683a      	ldr	r2, [r7, #0]
    23d2:	f8c3 250c 	str.w	r2, [r3, #1292]	; 0x50c
    23d6:	bf00      	nop
    23d8:	370c      	adds	r7, #12
    23da:	46bd      	mov	sp, r7
    23dc:	f85d 7b04 	ldr.w	r7, [sp], #4
    23e0:	4770      	bx	lr

000023e2 <twi_clear_bus>:
    23e2:	b580      	push	{r7, lr}
    23e4:	b084      	sub	sp, #16
    23e6:	af00      	add	r7, sp, #0
    23e8:	6078      	str	r0, [r7, #4]
    23ea:	f04f 42a0 	mov.w	r2, #1342177280	; 0x50000000
    23ee:	687b      	ldr	r3, [r7, #4]
    23f0:	681b      	ldr	r3, [r3, #0]
    23f2:	f503 73e0 	add.w	r3, r3, #448	; 0x1c0
    23f6:	f240 610c 	movw	r1, #1548	; 0x60c
    23fa:	f842 1023 	str.w	r1, [r2, r3, lsl #2]
    23fe:	f04f 42a0 	mov.w	r2, #1342177280	; 0x50000000
    2402:	687b      	ldr	r3, [r7, #4]
    2404:	685b      	ldr	r3, [r3, #4]
    2406:	f503 73e0 	add.w	r3, r3, #448	; 0x1c0
    240a:	f240 610c 	movw	r1, #1548	; 0x60c
    240e:	f842 1023 	str.w	r1, [r2, r3, lsl #2]
    2412:	687b      	ldr	r3, [r7, #4]
    2414:	681b      	ldr	r3, [r3, #0]
    2416:	4618      	mov	r0, r3
    2418:	f7ff ff78 	bl	230c <nrf_gpio_pin_set>
    241c:	687b      	ldr	r3, [r7, #4]
    241e:	685b      	ldr	r3, [r3, #4]
    2420:	4618      	mov	r0, r3
    2422:	f7ff ff73 	bl	230c <nrf_gpio_pin_set>
    2426:	f04f 42a0 	mov.w	r2, #1342177280	; 0x50000000
    242a:	687b      	ldr	r3, [r7, #4]
    242c:	681b      	ldr	r3, [r3, #0]
    242e:	f503 73e0 	add.w	r3, r3, #448	; 0x1c0
    2432:	f240 610d 	movw	r1, #1549	; 0x60d
    2436:	f842 1023 	str.w	r1, [r2, r3, lsl #2]
    243a:	f04f 42a0 	mov.w	r2, #1342177280	; 0x50000000
    243e:	687b      	ldr	r3, [r7, #4]
    2440:	685b      	ldr	r3, [r3, #4]
    2442:	f503 73e0 	add.w	r3, r3, #448	; 0x1c0
    2446:	f240 610d 	movw	r1, #1549	; 0x60d
    244a:	f842 1023 	str.w	r1, [r2, r3, lsl #2]
    244e:	2004      	movs	r0, #4
    2450:	f7ff ff38 	bl	22c4 <nrfx_coredep_delay_us>
    2454:	2300      	movs	r3, #0
    2456:	60fb      	str	r3, [r7, #12]
    2458:	e01e      	b.n	2498 <twi_clear_bus+0xb6>
    245a:	687b      	ldr	r3, [r7, #4]
    245c:	685b      	ldr	r3, [r3, #4]
    245e:	4618      	mov	r0, r3
    2460:	f7ff ff7e 	bl	2360 <nrf_gpio_pin_read>
    2464:	4603      	mov	r3, r0
    2466:	2b00      	cmp	r3, #0
    2468:	d003      	beq.n	2472 <twi_clear_bus+0x90>
    246a:	68fb      	ldr	r3, [r7, #12]
    246c:	2b00      	cmp	r3, #0
    246e:	d117      	bne.n	24a0 <twi_clear_bus+0xbe>
    2470:	e024      	b.n	24bc <twi_clear_bus+0xda>
    2472:	687b      	ldr	r3, [r7, #4]
    2474:	681b      	ldr	r3, [r3, #0]
    2476:	4618      	mov	r0, r3
    2478:	f7ff ff5d 	bl	2336 <nrf_gpio_pin_clear>
    247c:	2004      	movs	r0, #4
    247e:	f7ff ff21 	bl	22c4 <nrfx_coredep_delay_us>
    2482:	687b      	ldr	r3, [r7, #4]
    2484:	681b      	ldr	r3, [r3, #0]
    2486:	4618      	mov	r0, r3
    2488:	f7ff ff40 	bl	230c <nrf_gpio_pin_set>
    248c:	2004      	movs	r0, #4
    248e:	f7ff ff19 	bl	22c4 <nrfx_coredep_delay_us>
    2492:	68fb      	ldr	r3, [r7, #12]
    2494:	3301      	adds	r3, #1
    2496:	60fb      	str	r3, [r7, #12]
    2498:	68fb      	ldr	r3, [r7, #12]
    249a:	2b08      	cmp	r3, #8
    249c:	dddd      	ble.n	245a <twi_clear_bus+0x78>
    249e:	e000      	b.n	24a2 <twi_clear_bus+0xc0>
    24a0:	bf00      	nop
    24a2:	687b      	ldr	r3, [r7, #4]
    24a4:	685b      	ldr	r3, [r3, #4]
    24a6:	4618      	mov	r0, r3
    24a8:	f7ff ff45 	bl	2336 <nrf_gpio_pin_clear>
    24ac:	2004      	movs	r0, #4
    24ae:	f7ff ff09 	bl	22c4 <nrfx_coredep_delay_us>
    24b2:	687b      	ldr	r3, [r7, #4]
    24b4:	685b      	ldr	r3, [r3, #4]
    24b6:	4618      	mov	r0, r3
    24b8:	f7ff ff28 	bl	230c <nrf_gpio_pin_set>
    24bc:	3710      	adds	r7, #16
    24be:	46bd      	mov	sp, r7
    24c0:	bd80      	pop	{r7, pc}
	...

000024c4 <twim_evt_handler>:
    24c4:	b580      	push	{r7, lr}
    24c6:	b088      	sub	sp, #32
    24c8:	af00      	add	r7, sp, #0
    24ca:	6078      	str	r0, [r7, #4]
    24cc:	6039      	str	r1, [r7, #0]
    24ce:	683b      	ldr	r3, [r7, #0]
    24d0:	61fb      	str	r3, [r7, #28]
    24d2:	687b      	ldr	r3, [r7, #4]
    24d4:	781b      	ldrb	r3, [r3, #0]
    24d6:	733b      	strb	r3, [r7, #12]
    24d8:	687b      	ldr	r3, [r7, #4]
    24da:	791b      	ldrb	r3, [r3, #4]
    24dc:	743b      	strb	r3, [r7, #16]
    24de:	687b      	ldr	r3, [r7, #4]
    24e0:	795b      	ldrb	r3, [r3, #5]
    24e2:	747b      	strb	r3, [r7, #17]
    24e4:	687b      	ldr	r3, [r7, #4]
    24e6:	689b      	ldr	r3, [r3, #8]
    24e8:	b2db      	uxtb	r3, r3
    24ea:	74bb      	strb	r3, [r7, #18]
    24ec:	687b      	ldr	r3, [r7, #4]
    24ee:	68db      	ldr	r3, [r3, #12]
    24f0:	b2db      	uxtb	r3, r3
    24f2:	74fb      	strb	r3, [r7, #19]
    24f4:	687b      	ldr	r3, [r7, #4]
    24f6:	691b      	ldr	r3, [r3, #16]
    24f8:	617b      	str	r3, [r7, #20]
    24fa:	687b      	ldr	r3, [r7, #4]
    24fc:	695b      	ldr	r3, [r3, #20]
    24fe:	61bb      	str	r3, [r7, #24]
    2500:	4a07      	ldr	r2, [pc, #28]	; (2520 <twim_evt_handler+0x5c>)
    2502:	69fb      	ldr	r3, [r7, #28]
    2504:	f852 3023 	ldr.w	r3, [r2, r3, lsl #2]
    2508:	4906      	ldr	r1, [pc, #24]	; (2524 <twim_evt_handler+0x60>)
    250a:	69fa      	ldr	r2, [r7, #28]
    250c:	f851 1022 	ldr.w	r1, [r1, r2, lsl #2]
    2510:	f107 020c 	add.w	r2, r7, #12
    2514:	4610      	mov	r0, r2
    2516:	4798      	blx	r3
    2518:	bf00      	nop
    251a:	3720      	adds	r7, #32
    251c:	46bd      	mov	sp, r7
    251e:	bd80      	pop	{r7, pc}
    2520:	20000654 	.word	0x20000654
    2524:	2000065c 	.word	0x2000065c

00002528 <nrf_drv_twi_init>:
    2528:	b580      	push	{r7, lr}
    252a:	b086      	sub	sp, #24
    252c:	af00      	add	r7, sp, #0
    252e:	60f8      	str	r0, [r7, #12]
    2530:	60b9      	str	r1, [r7, #8]
    2532:	607a      	str	r2, [r7, #4]
    2534:	603b      	str	r3, [r7, #0]
    2536:	68fb      	ldr	r3, [r7, #12]
    2538:	781b      	ldrb	r3, [r3, #0]
    253a:	617b      	str	r3, [r7, #20]
    253c:	4912      	ldr	r1, [pc, #72]	; (2588 <nrf_drv_twi_init+0x60>)
    253e:	697b      	ldr	r3, [r7, #20]
    2540:	687a      	ldr	r2, [r7, #4]
    2542:	f841 2023 	str.w	r2, [r1, r3, lsl #2]
    2546:	4911      	ldr	r1, [pc, #68]	; (258c <nrf_drv_twi_init+0x64>)
    2548:	697b      	ldr	r3, [r7, #20]
    254a:	683a      	ldr	r2, [r7, #0]
    254c:	f841 2023 	str.w	r2, [r1, r3, lsl #2]
    2550:	68bb      	ldr	r3, [r7, #8]
    2552:	7b5b      	ldrb	r3, [r3, #13]
    2554:	2b00      	cmp	r3, #0
    2556:	d002      	beq.n	255e <nrf_drv_twi_init+0x36>
    2558:	68b8      	ldr	r0, [r7, #8]
    255a:	f7ff ff42 	bl	23e2 <twi_clear_bus>
    255e:	2300      	movs	r3, #0
    2560:	613b      	str	r3, [r7, #16]
    2562:	68fb      	ldr	r3, [r7, #12]
    2564:	1d18      	adds	r0, r3, #4
    2566:	687b      	ldr	r3, [r7, #4]
    2568:	2b00      	cmp	r3, #0
    256a:	d001      	beq.n	2570 <nrf_drv_twi_init+0x48>
    256c:	4a08      	ldr	r2, [pc, #32]	; (2590 <nrf_drv_twi_init+0x68>)
    256e:	e000      	b.n	2572 <nrf_drv_twi_init+0x4a>
    2570:	2200      	movs	r2, #0
    2572:	697b      	ldr	r3, [r7, #20]
    2574:	68b9      	ldr	r1, [r7, #8]
    2576:	f000 fc01 	bl	2d7c <nrfx_twim_init>
    257a:	6138      	str	r0, [r7, #16]
    257c:	693b      	ldr	r3, [r7, #16]
    257e:	4618      	mov	r0, r3
    2580:	3718      	adds	r7, #24
    2582:	46bd      	mov	sp, r7
    2584:	bd80      	pop	{r7, pc}
    2586:	bf00      	nop
    2588:	20000654 	.word	0x20000654
    258c:	2000065c 	.word	0x2000065c
    2590:	000024c5 	.word	0x000024c5

00002594 <uarte_evt_handler>:
    2594:	b580      	push	{r7, lr}
    2596:	b088      	sub	sp, #32
    2598:	af00      	add	r7, sp, #0
    259a:	6078      	str	r0, [r7, #4]
    259c:	6039      	str	r1, [r7, #0]
    259e:	683b      	ldr	r3, [r7, #0]
    25a0:	61fb      	str	r3, [r7, #28]
    25a2:	687b      	ldr	r3, [r7, #4]
    25a4:	781b      	ldrb	r3, [r3, #0]
    25a6:	733b      	strb	r3, [r7, #12]
    25a8:	687b      	ldr	r3, [r7, #4]
    25aa:	685b      	ldr	r3, [r3, #4]
    25ac:	613b      	str	r3, [r7, #16]
    25ae:	687b      	ldr	r3, [r7, #4]
    25b0:	689b      	ldr	r3, [r3, #8]
    25b2:	b2db      	uxtb	r3, r3
    25b4:	753b      	strb	r3, [r7, #20]
    25b6:	687b      	ldr	r3, [r7, #4]
    25b8:	68db      	ldr	r3, [r3, #12]
    25ba:	61bb      	str	r3, [r7, #24]
    25bc:	4a07      	ldr	r2, [pc, #28]	; (25dc <uarte_evt_handler+0x48>)
    25be:	69fb      	ldr	r3, [r7, #28]
    25c0:	f852 3023 	ldr.w	r3, [r2, r3, lsl #2]
    25c4:	4906      	ldr	r1, [pc, #24]	; (25e0 <uarte_evt_handler+0x4c>)
    25c6:	69fa      	ldr	r2, [r7, #28]
    25c8:	f851 1022 	ldr.w	r1, [r1, r2, lsl #2]
    25cc:	f107 020c 	add.w	r2, r7, #12
    25d0:	4610      	mov	r0, r2
    25d2:	4798      	blx	r3
    25d4:	bf00      	nop
    25d6:	3720      	adds	r7, #32
    25d8:	46bd      	mov	sp, r7
    25da:	bd80      	pop	{r7, pc}
    25dc:	20000664 	.word	0x20000664
    25e0:	20000668 	.word	0x20000668

000025e4 <uart_evt_handler>:
    25e4:	b580      	push	{r7, lr}
    25e6:	b088      	sub	sp, #32
    25e8:	af00      	add	r7, sp, #0
    25ea:	6078      	str	r0, [r7, #4]
    25ec:	6039      	str	r1, [r7, #0]
    25ee:	683b      	ldr	r3, [r7, #0]
    25f0:	61fb      	str	r3, [r7, #28]
    25f2:	687b      	ldr	r3, [r7, #4]
    25f4:	781b      	ldrb	r3, [r3, #0]
    25f6:	733b      	strb	r3, [r7, #12]
    25f8:	687b      	ldr	r3, [r7, #4]
    25fa:	685b      	ldr	r3, [r3, #4]
    25fc:	613b      	str	r3, [r7, #16]
    25fe:	687b      	ldr	r3, [r7, #4]
    2600:	689b      	ldr	r3, [r3, #8]
    2602:	b2db      	uxtb	r3, r3
    2604:	753b      	strb	r3, [r7, #20]
    2606:	687b      	ldr	r3, [r7, #4]
    2608:	68db      	ldr	r3, [r3, #12]
    260a:	61bb      	str	r3, [r7, #24]
    260c:	4a07      	ldr	r2, [pc, #28]	; (262c <uart_evt_handler+0x48>)
    260e:	69fb      	ldr	r3, [r7, #28]
    2610:	f852 3023 	ldr.w	r3, [r2, r3, lsl #2]
    2614:	4906      	ldr	r1, [pc, #24]	; (2630 <uart_evt_handler+0x4c>)
    2616:	69fa      	ldr	r2, [r7, #28]
    2618:	f851 1022 	ldr.w	r1, [r1, r2, lsl #2]
    261c:	f107 020c 	add.w	r2, r7, #12
    2620:	4610      	mov	r0, r2
    2622:	4798      	blx	r3
    2624:	bf00      	nop
    2626:	3720      	adds	r7, #32
    2628:	46bd      	mov	sp, r7
    262a:	bd80      	pop	{r7, pc}
    262c:	20000664 	.word	0x20000664
    2630:	20000668 	.word	0x20000668

00002634 <nrf_drv_uart_init>:
    2634:	b5b0      	push	{r4, r5, r7, lr}
    2636:	b08e      	sub	sp, #56	; 0x38
    2638:	af00      	add	r7, sp, #0
    263a:	60f8      	str	r0, [r7, #12]
    263c:	60b9      	str	r1, [r7, #8]
    263e:	607a      	str	r2, [r7, #4]
    2640:	68fb      	ldr	r3, [r7, #12]
    2642:	781b      	ldrb	r3, [r3, #0]
    2644:	633b      	str	r3, [r7, #48]	; 0x30
    2646:	4929      	ldr	r1, [pc, #164]	; (26ec <nrf_drv_uart_init+0xb8>)
    2648:	6b3b      	ldr	r3, [r7, #48]	; 0x30
    264a:	687a      	ldr	r2, [r7, #4]
    264c:	f841 2023 	str.w	r2, [r1, r3, lsl #2]
    2650:	68bb      	ldr	r3, [r7, #8]
    2652:	691a      	ldr	r2, [r3, #16]
    2654:	4926      	ldr	r1, [pc, #152]	; (26f0 <nrf_drv_uart_init+0xbc>)
    2656:	6b3b      	ldr	r3, [r7, #48]	; 0x30
    2658:	f841 2023 	str.w	r2, [r1, r3, lsl #2]
    265c:	68bb      	ldr	r3, [r7, #8]
    265e:	7f5b      	ldrb	r3, [r3, #29]
    2660:	4619      	mov	r1, r3
    2662:	4a24      	ldr	r2, [pc, #144]	; (26f4 <nrf_drv_uart_init+0xc0>)
    2664:	6b3b      	ldr	r3, [r7, #48]	; 0x30
    2666:	4413      	add	r3, r2
    2668:	460a      	mov	r2, r1
    266a:	701a      	strb	r2, [r3, #0]
    266c:	68bb      	ldr	r3, [r7, #8]
    266e:	f107 0410 	add.w	r4, r7, #16
    2672:	461d      	mov	r5, r3
    2674:	cd0f      	ldmia	r5!, {r0, r1, r2, r3}
    2676:	c40f      	stmia	r4!, {r0, r1, r2, r3}
    2678:	e895 000f 	ldmia.w	r5, {r0, r1, r2, r3}
    267c:	e884 000f 	stmia.w	r4, {r0, r1, r2, r3}
    2680:	6b3b      	ldr	r3, [r7, #48]	; 0x30
    2682:	623b      	str	r3, [r7, #32]
    2684:	2300      	movs	r3, #0
    2686:	637b      	str	r3, [r7, #52]	; 0x34
    2688:	68fb      	ldr	r3, [r7, #12]
    268a:	781b      	ldrb	r3, [r3, #0]
    268c:	461a      	mov	r2, r3
    268e:	4b19      	ldr	r3, [pc, #100]	; (26f4 <nrf_drv_uart_init+0xc0>)
    2690:	5c9b      	ldrb	r3, [r3, r2]
    2692:	2b00      	cmp	r3, #0
    2694:	d00e      	beq.n	26b4 <nrf_drv_uart_init+0x80>
    2696:	68fb      	ldr	r3, [r7, #12]
    2698:	1d18      	adds	r0, r3, #4
    269a:	687b      	ldr	r3, [r7, #4]
    269c:	2b00      	cmp	r3, #0
    269e:	d001      	beq.n	26a4 <nrf_drv_uart_init+0x70>
    26a0:	4a15      	ldr	r2, [pc, #84]	; (26f8 <nrf_drv_uart_init+0xc4>)
    26a2:	e000      	b.n	26a6 <nrf_drv_uart_init+0x72>
    26a4:	2200      	movs	r2, #0
    26a6:	f107 0310 	add.w	r3, r7, #16
    26aa:	4619      	mov	r1, r3
    26ac:	f002 f9f4 	bl	4a98 <nrfx_uarte_init>
    26b0:	6378      	str	r0, [r7, #52]	; 0x34
    26b2:	e015      	b.n	26e0 <nrf_drv_uart_init+0xac>
    26b4:	68fb      	ldr	r3, [r7, #12]
    26b6:	781b      	ldrb	r3, [r3, #0]
    26b8:	461a      	mov	r2, r3
    26ba:	4b0e      	ldr	r3, [pc, #56]	; (26f4 <nrf_drv_uart_init+0xc0>)
    26bc:	5c9b      	ldrb	r3, [r3, r2]
    26be:	2b00      	cmp	r3, #0
    26c0:	d10e      	bne.n	26e0 <nrf_drv_uart_init+0xac>
    26c2:	68fb      	ldr	r3, [r7, #12]
    26c4:	f103 000c 	add.w	r0, r3, #12
    26c8:	687b      	ldr	r3, [r7, #4]
    26ca:	2b00      	cmp	r3, #0
    26cc:	d001      	beq.n	26d2 <nrf_drv_uart_init+0x9e>
    26ce:	4a0b      	ldr	r2, [pc, #44]	; (26fc <nrf_drv_uart_init+0xc8>)
    26d0:	e000      	b.n	26d4 <nrf_drv_uart_init+0xa0>
    26d2:	2200      	movs	r2, #0
    26d4:	f107 0310 	add.w	r3, r7, #16
    26d8:	4619      	mov	r1, r3
    26da:	f001 fb5d 	bl	3d98 <nrfx_uart_init>
    26de:	6378      	str	r0, [r7, #52]	; 0x34
    26e0:	6b7b      	ldr	r3, [r7, #52]	; 0x34
    26e2:	4618      	mov	r0, r3
    26e4:	3738      	adds	r7, #56	; 0x38
    26e6:	46bd      	mov	sp, r7
    26e8:	bdb0      	pop	{r4, r5, r7, pc}
    26ea:	bf00      	nop
    26ec:	20000664 	.word	0x20000664
    26f0:	20000668 	.word	0x20000668
    26f4:	2000066c 	.word	0x2000066c
    26f8:	00002595 	.word	0x00002595
    26fc:	000025e5 	.word	0x000025e5

00002700 <UARTE0_UART0_IRQHandler>:
    2700:	b580      	push	{r7, lr}
    2702:	af00      	add	r7, sp, #0
    2704:	4b01      	ldr	r3, [pc, #4]	; (270c <UARTE0_UART0_IRQHandler+0xc>)
    2706:	681b      	ldr	r3, [r3, #0]
    2708:	4798      	blx	r3
    270a:	bd80      	pop	{r7, pc}
    270c:	20000670 	.word	0x20000670

00002710 <prs_box_get>:
    2710:	b480      	push	{r7}
    2712:	b083      	sub	sp, #12
    2714:	af00      	add	r7, sp, #0
    2716:	6078      	str	r0, [r7, #4]
    2718:	687b      	ldr	r3, [r7, #4]
    271a:	4a06      	ldr	r2, [pc, #24]	; (2734 <prs_box_get+0x24>)
    271c:	4293      	cmp	r3, r2
    271e:	d101      	bne.n	2724 <prs_box_get+0x14>
    2720:	4b05      	ldr	r3, [pc, #20]	; (2738 <prs_box_get+0x28>)
    2722:	e000      	b.n	2726 <prs_box_get+0x16>
    2724:	2300      	movs	r3, #0
    2726:	4618      	mov	r0, r3
    2728:	370c      	adds	r7, #12
    272a:	46bd      	mov	sp, r7
    272c:	f85d 7b04 	ldr.w	r7, [sp], #4
    2730:	4770      	bx	lr
    2732:	bf00      	nop
    2734:	40002000 	.word	0x40002000
    2738:	20000670 	.word	0x20000670

0000273c <nrfx_prs_acquire>:
    273c:	b580      	push	{r7, lr}
    273e:	b086      	sub	sp, #24
    2740:	af00      	add	r7, sp, #0
    2742:	6078      	str	r0, [r7, #4]
    2744:	6039      	str	r1, [r7, #0]
    2746:	6878      	ldr	r0, [r7, #4]
    2748:	f7ff ffe2 	bl	2710 <prs_box_get>
    274c:	60f8      	str	r0, [r7, #12]
    274e:	68fb      	ldr	r3, [r7, #12]
    2750:	2b00      	cmp	r3, #0
    2752:	d01b      	beq.n	278c <nrfx_prs_acquire+0x50>
    2754:	2300      	movs	r3, #0
    2756:	75fb      	strb	r3, [r7, #23]
    2758:	2000      	movs	r0, #0
    275a:	f7fe ff55 	bl	1608 <app_util_critical_region_enter>
    275e:	68fb      	ldr	r3, [r7, #12]
    2760:	791b      	ldrb	r3, [r3, #4]
    2762:	2b00      	cmp	r3, #0
    2764:	d002      	beq.n	276c <nrfx_prs_acquire+0x30>
    2766:	2301      	movs	r3, #1
    2768:	75fb      	strb	r3, [r7, #23]
    276a:	e005      	b.n	2778 <nrfx_prs_acquire+0x3c>
    276c:	68fb      	ldr	r3, [r7, #12]
    276e:	683a      	ldr	r2, [r7, #0]
    2770:	601a      	str	r2, [r3, #0]
    2772:	68fb      	ldr	r3, [r7, #12]
    2774:	2201      	movs	r2, #1
    2776:	711a      	strb	r2, [r3, #4]
    2778:	2000      	movs	r0, #0
    277a:	f7fe ff4f 	bl	161c <app_util_critical_region_exit>
    277e:	7dfb      	ldrb	r3, [r7, #23]
    2780:	2b00      	cmp	r3, #0
    2782:	d003      	beq.n	278c <nrfx_prs_acquire+0x50>
    2784:	2311      	movs	r3, #17
    2786:	613b      	str	r3, [r7, #16]
    2788:	693b      	ldr	r3, [r7, #16]
    278a:	e002      	b.n	2792 <nrfx_prs_acquire+0x56>
    278c:	2300      	movs	r3, #0
    278e:	613b      	str	r3, [r7, #16]
    2790:	693b      	ldr	r3, [r7, #16]
    2792:	4618      	mov	r0, r3
    2794:	3718      	adds	r7, #24
    2796:	46bd      	mov	sp, r7
    2798:	bd80      	pop	{r7, pc}

0000279a <nrfx_prs_release>:
    279a:	b580      	push	{r7, lr}
    279c:	b084      	sub	sp, #16
    279e:	af00      	add	r7, sp, #0
    27a0:	6078      	str	r0, [r7, #4]
    27a2:	6878      	ldr	r0, [r7, #4]
    27a4:	f7ff ffb4 	bl	2710 <prs_box_get>
    27a8:	60f8      	str	r0, [r7, #12]
    27aa:	68fb      	ldr	r3, [r7, #12]
    27ac:	2b00      	cmp	r3, #0
    27ae:	d005      	beq.n	27bc <nrfx_prs_release+0x22>
    27b0:	68fb      	ldr	r3, [r7, #12]
    27b2:	2200      	movs	r2, #0
    27b4:	601a      	str	r2, [r3, #0]
    27b6:	68fb      	ldr	r3, [r7, #12]
    27b8:	2200      	movs	r2, #0
    27ba:	711a      	strb	r2, [r3, #4]
    27bc:	bf00      	nop
    27be:	3710      	adds	r7, #16
    27c0:	46bd      	mov	sp, r7
    27c2:	bd80      	pop	{r7, pc}

000027c4 <__NVIC_EnableIRQ>:
    27c4:	b480      	push	{r7}
    27c6:	b083      	sub	sp, #12
    27c8:	af00      	add	r7, sp, #0
    27ca:	4603      	mov	r3, r0
    27cc:	71fb      	strb	r3, [r7, #7]
    27ce:	f997 3007 	ldrsb.w	r3, [r7, #7]
    27d2:	2b00      	cmp	r3, #0
    27d4:	db0b      	blt.n	27ee <__NVIC_EnableIRQ+0x2a>
    27d6:	79fb      	ldrb	r3, [r7, #7]
    27d8:	f003 021f 	and.w	r2, r3, #31
    27dc:	4907      	ldr	r1, [pc, #28]	; (27fc <__NVIC_EnableIRQ+0x38>)
    27de:	f997 3007 	ldrsb.w	r3, [r7, #7]
    27e2:	095b      	lsrs	r3, r3, #5
    27e4:	2001      	movs	r0, #1
    27e6:	fa00 f202 	lsl.w	r2, r0, r2
    27ea:	f841 2023 	str.w	r2, [r1, r3, lsl #2]
    27ee:	bf00      	nop
    27f0:	370c      	adds	r7, #12
    27f2:	46bd      	mov	sp, r7
    27f4:	f85d 7b04 	ldr.w	r7, [sp], #4
    27f8:	4770      	bx	lr
    27fa:	bf00      	nop
    27fc:	e000e100 	.word	0xe000e100

00002800 <__NVIC_ClearPendingIRQ>:
    2800:	b480      	push	{r7}
    2802:	b083      	sub	sp, #12
    2804:	af00      	add	r7, sp, #0
    2806:	4603      	mov	r3, r0
    2808:	71fb      	strb	r3, [r7, #7]
    280a:	f997 3007 	ldrsb.w	r3, [r7, #7]
    280e:	2b00      	cmp	r3, #0
    2810:	db0c      	blt.n	282c <__NVIC_ClearPendingIRQ+0x2c>
    2812:	79fb      	ldrb	r3, [r7, #7]
    2814:	f003 021f 	and.w	r2, r3, #31
    2818:	4907      	ldr	r1, [pc, #28]	; (2838 <__NVIC_ClearPendingIRQ+0x38>)
    281a:	f997 3007 	ldrsb.w	r3, [r7, #7]
    281e:	095b      	lsrs	r3, r3, #5
    2820:	2001      	movs	r0, #1
    2822:	fa00 f202 	lsl.w	r2, r0, r2
    2826:	3360      	adds	r3, #96	; 0x60
    2828:	f841 2023 	str.w	r2, [r1, r3, lsl #2]
    282c:	bf00      	nop
    282e:	370c      	adds	r7, #12
    2830:	46bd      	mov	sp, r7
    2832:	f85d 7b04 	ldr.w	r7, [sp], #4
    2836:	4770      	bx	lr
    2838:	e000e100 	.word	0xe000e100

0000283c <__NVIC_SetPriority>:
    283c:	b480      	push	{r7}
    283e:	b083      	sub	sp, #12
    2840:	af00      	add	r7, sp, #0
    2842:	4603      	mov	r3, r0
    2844:	6039      	str	r1, [r7, #0]
    2846:	71fb      	strb	r3, [r7, #7]
    2848:	f997 3007 	ldrsb.w	r3, [r7, #7]
    284c:	2b00      	cmp	r3, #0
    284e:	db0a      	blt.n	2866 <__NVIC_SetPriority+0x2a>
    2850:	683b      	ldr	r3, [r7, #0]
    2852:	b2da      	uxtb	r2, r3
    2854:	490c      	ldr	r1, [pc, #48]	; (2888 <__NVIC_SetPriority+0x4c>)
    2856:	f997 3007 	ldrsb.w	r3, [r7, #7]
    285a:	0152      	lsls	r2, r2, #5
    285c:	b2d2      	uxtb	r2, r2
    285e:	440b      	add	r3, r1
    2860:	f883 2300 	strb.w	r2, [r3, #768]	; 0x300
    2864:	e00a      	b.n	287c <__NVIC_SetPriority+0x40>
    2866:	683b      	ldr	r3, [r7, #0]
    2868:	b2da      	uxtb	r2, r3
    286a:	4908      	ldr	r1, [pc, #32]	; (288c <__NVIC_SetPriority+0x50>)
    286c:	79fb      	ldrb	r3, [r7, #7]
    286e:	f003 030f 	and.w	r3, r3, #15
    2872:	3b04      	subs	r3, #4
    2874:	0152      	lsls	r2, r2, #5
    2876:	b2d2      	uxtb	r2, r2
    2878:	440b      	add	r3, r1
    287a:	761a      	strb	r2, [r3, #24]
    287c:	bf00      	nop
    287e:	370c      	adds	r7, #12
    2880:	46bd      	mov	sp, r7
    2882:	f85d 7b04 	ldr.w	r7, [sp], #4
    2886:	4770      	bx	lr
    2888:	e000e100 	.word	0xe000e100
    288c:	e000ed00 	.word	0xe000ed00

00002890 <nrfx_is_in_ram>:
    2890:	b480      	push	{r7}
    2892:	b083      	sub	sp, #12
    2894:	af00      	add	r7, sp, #0
    2896:	6078      	str	r0, [r7, #4]
    2898:	687b      	ldr	r3, [r7, #4]
    289a:	f003 4360 	and.w	r3, r3, #3758096384	; 0xe0000000
    289e:	f1b3 5f00 	cmp.w	r3, #536870912	; 0x20000000
    28a2:	bf0c      	ite	eq
    28a4:	2301      	moveq	r3, #1
    28a6:	2300      	movne	r3, #0
    28a8:	b2db      	uxtb	r3, r3
    28aa:	4618      	mov	r0, r3
    28ac:	370c      	adds	r7, #12
    28ae:	46bd      	mov	sp, r7
    28b0:	f85d 7b04 	ldr.w	r7, [sp], #4
    28b4:	4770      	bx	lr

000028b6 <nrfx_get_irq_number>:
    28b6:	b480      	push	{r7}
    28b8:	b083      	sub	sp, #12
    28ba:	af00      	add	r7, sp, #0
    28bc:	6078      	str	r0, [r7, #4]
    28be:	687b      	ldr	r3, [r7, #4]
    28c0:	0b1b      	lsrs	r3, r3, #12
    28c2:	b25b      	sxtb	r3, r3
    28c4:	4618      	mov	r0, r3
    28c6:	370c      	adds	r7, #12
    28c8:	46bd      	mov	sp, r7
    28ca:	f85d 7b04 	ldr.w	r7, [sp], #4
    28ce:	4770      	bx	lr

000028d0 <_NRFX_IRQ_PRIORITY_SET>:
    28d0:	b580      	push	{r7, lr}
    28d2:	b082      	sub	sp, #8
    28d4:	af00      	add	r7, sp, #0
    28d6:	4603      	mov	r3, r0
    28d8:	460a      	mov	r2, r1
    28da:	71fb      	strb	r3, [r7, #7]
    28dc:	4613      	mov	r3, r2
    28de:	71bb      	strb	r3, [r7, #6]
    28e0:	79ba      	ldrb	r2, [r7, #6]
    28e2:	f997 3007 	ldrsb.w	r3, [r7, #7]
    28e6:	4611      	mov	r1, r2
    28e8:	4618      	mov	r0, r3
    28ea:	f7ff ffa7 	bl	283c <__NVIC_SetPriority>
    28ee:	bf00      	nop
    28f0:	3708      	adds	r7, #8
    28f2:	46bd      	mov	sp, r7
    28f4:	bd80      	pop	{r7, pc}

000028f6 <_NRFX_IRQ_ENABLE>:
    28f6:	b580      	push	{r7, lr}
    28f8:	b082      	sub	sp, #8
    28fa:	af00      	add	r7, sp, #0
    28fc:	4603      	mov	r3, r0
    28fe:	71fb      	strb	r3, [r7, #7]
    2900:	f997 3007 	ldrsb.w	r3, [r7, #7]
    2904:	4618      	mov	r0, r3
    2906:	f7ff ff5d 	bl	27c4 <__NVIC_EnableIRQ>
    290a:	bf00      	nop
    290c:	3708      	adds	r7, #8
    290e:	46bd      	mov	sp, r7
    2910:	bd80      	pop	{r7, pc}

00002912 <_NRFX_IRQ_PENDING_CLEAR>:
    2912:	b580      	push	{r7, lr}
    2914:	b082      	sub	sp, #8
    2916:	af00      	add	r7, sp, #0
    2918:	4603      	mov	r3, r0
    291a:	71fb      	strb	r3, [r7, #7]
    291c:	f997 3007 	ldrsb.w	r3, [r7, #7]
    2920:	4618      	mov	r0, r3
    2922:	f7ff ff6d 	bl	2800 <__NVIC_ClearPendingIRQ>
    2926:	bf00      	nop
    2928:	3708      	adds	r7, #8
    292a:	46bd      	mov	sp, r7
    292c:	bd80      	pop	{r7, pc}

0000292e <nrf_twim_task_trigger>:
    292e:	b480      	push	{r7}
    2930:	b083      	sub	sp, #12
    2932:	af00      	add	r7, sp, #0
    2934:	6078      	str	r0, [r7, #4]
    2936:	460b      	mov	r3, r1
    2938:	70fb      	strb	r3, [r7, #3]
    293a:	78fb      	ldrb	r3, [r7, #3]
    293c:	687a      	ldr	r2, [r7, #4]
    293e:	4413      	add	r3, r2
    2940:	2201      	movs	r2, #1
    2942:	601a      	str	r2, [r3, #0]
    2944:	bf00      	nop
    2946:	370c      	adds	r7, #12
    2948:	46bd      	mov	sp, r7
    294a:	f85d 7b04 	ldr.w	r7, [sp], #4
    294e:	4770      	bx	lr

00002950 <nrf_twim_event_clear>:
    2950:	b480      	push	{r7}
    2952:	b085      	sub	sp, #20
    2954:	af00      	add	r7, sp, #0
    2956:	6078      	str	r0, [r7, #4]
    2958:	460b      	mov	r3, r1
    295a:	807b      	strh	r3, [r7, #2]
    295c:	887b      	ldrh	r3, [r7, #2]
    295e:	687a      	ldr	r2, [r7, #4]
    2960:	4413      	add	r3, r2
    2962:	2200      	movs	r2, #0
    2964:	601a      	str	r2, [r3, #0]
    2966:	887b      	ldrh	r3, [r7, #2]
    2968:	687a      	ldr	r2, [r7, #4]
    296a:	4413      	add	r3, r2
    296c:	681b      	ldr	r3, [r3, #0]
    296e:	60fb      	str	r3, [r7, #12]
    2970:	68fb      	ldr	r3, [r7, #12]
    2972:	bf00      	nop
    2974:	3714      	adds	r7, #20
    2976:	46bd      	mov	sp, r7
    2978:	f85d 7b04 	ldr.w	r7, [sp], #4
    297c:	4770      	bx	lr

0000297e <nrf_twim_event_check>:
    297e:	b480      	push	{r7}
    2980:	b083      	sub	sp, #12
    2982:	af00      	add	r7, sp, #0
    2984:	6078      	str	r0, [r7, #4]
    2986:	460b      	mov	r3, r1
    2988:	807b      	strh	r3, [r7, #2]
    298a:	887b      	ldrh	r3, [r7, #2]
    298c:	687a      	ldr	r2, [r7, #4]
    298e:	4413      	add	r3, r2
    2990:	681b      	ldr	r3, [r3, #0]
    2992:	2b00      	cmp	r3, #0
    2994:	bf14      	ite	ne
    2996:	2301      	movne	r3, #1
    2998:	2300      	moveq	r3, #0
    299a:	b2db      	uxtb	r3, r3
    299c:	4618      	mov	r0, r3
    299e:	370c      	adds	r7, #12
    29a0:	46bd      	mov	sp, r7
    29a2:	f85d 7b04 	ldr.w	r7, [sp], #4
    29a6:	4770      	bx	lr

000029a8 <nrf_twim_int_enable>:
    29a8:	b480      	push	{r7}
    29aa:	b083      	sub	sp, #12
    29ac:	af00      	add	r7, sp, #0
    29ae:	6078      	str	r0, [r7, #4]
    29b0:	6039      	str	r1, [r7, #0]
    29b2:	687b      	ldr	r3, [r7, #4]
    29b4:	683a      	ldr	r2, [r7, #0]
    29b6:	f8c3 2304 	str.w	r2, [r3, #772]	; 0x304
    29ba:	bf00      	nop
    29bc:	370c      	adds	r7, #12
    29be:	46bd      	mov	sp, r7
    29c0:	f85d 7b04 	ldr.w	r7, [sp], #4
    29c4:	4770      	bx	lr

000029c6 <nrf_twim_int_disable>:
    29c6:	b480      	push	{r7}
    29c8:	b083      	sub	sp, #12
    29ca:	af00      	add	r7, sp, #0
    29cc:	6078      	str	r0, [r7, #4]
    29ce:	6039      	str	r1, [r7, #0]
    29d0:	687b      	ldr	r3, [r7, #4]
    29d2:	683a      	ldr	r2, [r7, #0]
    29d4:	f8c3 2308 	str.w	r2, [r3, #776]	; 0x308
    29d8:	bf00      	nop
    29da:	370c      	adds	r7, #12
    29dc:	46bd      	mov	sp, r7
    29de:	f85d 7b04 	ldr.w	r7, [sp], #4
    29e2:	4770      	bx	lr

000029e4 <nrf_twim_enable>:
    29e4:	b480      	push	{r7}
    29e6:	b083      	sub	sp, #12
    29e8:	af00      	add	r7, sp, #0
    29ea:	6078      	str	r0, [r7, #4]
    29ec:	687b      	ldr	r3, [r7, #4]
    29ee:	2206      	movs	r2, #6
    29f0:	f8c3 2500 	str.w	r2, [r3, #1280]	; 0x500
    29f4:	bf00      	nop
    29f6:	370c      	adds	r7, #12
    29f8:	46bd      	mov	sp, r7
    29fa:	f85d 7b04 	ldr.w	r7, [sp], #4
    29fe:	4770      	bx	lr

00002a00 <nrf_twim_disable>:
    2a00:	b480      	push	{r7}
    2a02:	b083      	sub	sp, #12
    2a04:	af00      	add	r7, sp, #0
    2a06:	6078      	str	r0, [r7, #4]
    2a08:	687b      	ldr	r3, [r7, #4]
    2a0a:	2200      	movs	r2, #0
    2a0c:	f8c3 2500 	str.w	r2, [r3, #1280]	; 0x500
    2a10:	bf00      	nop
    2a12:	370c      	adds	r7, #12
    2a14:	46bd      	mov	sp, r7
    2a16:	f85d 7b04 	ldr.w	r7, [sp], #4
    2a1a:	4770      	bx	lr

00002a1c <nrf_twim_pins_set>:
    2a1c:	b480      	push	{r7}
    2a1e:	b085      	sub	sp, #20
    2a20:	af00      	add	r7, sp, #0
    2a22:	60f8      	str	r0, [r7, #12]
    2a24:	60b9      	str	r1, [r7, #8]
    2a26:	607a      	str	r2, [r7, #4]
    2a28:	68fb      	ldr	r3, [r7, #12]
    2a2a:	68ba      	ldr	r2, [r7, #8]
    2a2c:	f8c3 2508 	str.w	r2, [r3, #1288]	; 0x508
    2a30:	68fb      	ldr	r3, [r7, #12]
    2a32:	687a      	ldr	r2, [r7, #4]
    2a34:	f8c3 250c 	str.w	r2, [r3, #1292]	; 0x50c
    2a38:	bf00      	nop
    2a3a:	3714      	adds	r7, #20
    2a3c:	46bd      	mov	sp, r7
    2a3e:	f85d 7b04 	ldr.w	r7, [sp], #4
    2a42:	4770      	bx	lr

00002a44 <nrf_twim_frequency_set>:
    2a44:	b480      	push	{r7}
    2a46:	b083      	sub	sp, #12
    2a48:	af00      	add	r7, sp, #0
    2a4a:	6078      	str	r0, [r7, #4]
    2a4c:	6039      	str	r1, [r7, #0]
    2a4e:	687b      	ldr	r3, [r7, #4]
    2a50:	683a      	ldr	r2, [r7, #0]
    2a52:	f8c3 2524 	str.w	r2, [r3, #1316]	; 0x524
    2a56:	bf00      	nop
    2a58:	370c      	adds	r7, #12
    2a5a:	46bd      	mov	sp, r7
    2a5c:	f85d 7b04 	ldr.w	r7, [sp], #4
    2a60:	4770      	bx	lr

00002a62 <nrf_twim_errorsrc_get_and_clear>:
    2a62:	b480      	push	{r7}
    2a64:	b085      	sub	sp, #20
    2a66:	af00      	add	r7, sp, #0
    2a68:	6078      	str	r0, [r7, #4]
    2a6a:	687b      	ldr	r3, [r7, #4]
    2a6c:	f8d3 34c4 	ldr.w	r3, [r3, #1220]	; 0x4c4
    2a70:	60fb      	str	r3, [r7, #12]
    2a72:	687b      	ldr	r3, [r7, #4]
    2a74:	68fa      	ldr	r2, [r7, #12]
    2a76:	f8c3 24c4 	str.w	r2, [r3, #1220]	; 0x4c4
    2a7a:	68fb      	ldr	r3, [r7, #12]
    2a7c:	4618      	mov	r0, r3
    2a7e:	3714      	adds	r7, #20
    2a80:	46bd      	mov	sp, r7
    2a82:	f85d 7b04 	ldr.w	r7, [sp], #4
    2a86:	4770      	bx	lr

00002a88 <nrf_twim_address_set>:
    2a88:	b480      	push	{r7}
    2a8a:	b083      	sub	sp, #12
    2a8c:	af00      	add	r7, sp, #0
    2a8e:	6078      	str	r0, [r7, #4]
    2a90:	460b      	mov	r3, r1
    2a92:	70fb      	strb	r3, [r7, #3]
    2a94:	78fa      	ldrb	r2, [r7, #3]
    2a96:	687b      	ldr	r3, [r7, #4]
    2a98:	f8c3 2588 	str.w	r2, [r3, #1416]	; 0x588
    2a9c:	bf00      	nop
    2a9e:	370c      	adds	r7, #12
    2aa0:	46bd      	mov	sp, r7
    2aa2:	f85d 7b04 	ldr.w	r7, [sp], #4
    2aa6:	4770      	bx	lr

00002aa8 <nrf_twim_tx_buffer_set>:
    2aa8:	b480      	push	{r7}
    2aaa:	b085      	sub	sp, #20
    2aac:	af00      	add	r7, sp, #0
    2aae:	60f8      	str	r0, [r7, #12]
    2ab0:	60b9      	str	r1, [r7, #8]
    2ab2:	607a      	str	r2, [r7, #4]
    2ab4:	68ba      	ldr	r2, [r7, #8]
    2ab6:	68fb      	ldr	r3, [r7, #12]
    2ab8:	f8c3 2544 	str.w	r2, [r3, #1348]	; 0x544
    2abc:	68fb      	ldr	r3, [r7, #12]
    2abe:	687a      	ldr	r2, [r7, #4]
    2ac0:	f8c3 2548 	str.w	r2, [r3, #1352]	; 0x548
    2ac4:	bf00      	nop
    2ac6:	3714      	adds	r7, #20
    2ac8:	46bd      	mov	sp, r7
    2aca:	f85d 7b04 	ldr.w	r7, [sp], #4
    2ace:	4770      	bx	lr

00002ad0 <nrf_twim_rx_buffer_set>:
    2ad0:	b480      	push	{r7}
    2ad2:	b085      	sub	sp, #20
    2ad4:	af00      	add	r7, sp, #0
    2ad6:	60f8      	str	r0, [r7, #12]
    2ad8:	60b9      	str	r1, [r7, #8]
    2ada:	607a      	str	r2, [r7, #4]
    2adc:	68ba      	ldr	r2, [r7, #8]
    2ade:	68fb      	ldr	r3, [r7, #12]
    2ae0:	f8c3 2534 	str.w	r2, [r3, #1332]	; 0x534
    2ae4:	68fb      	ldr	r3, [r7, #12]
    2ae6:	687a      	ldr	r2, [r7, #4]
    2ae8:	f8c3 2538 	str.w	r2, [r3, #1336]	; 0x538
    2aec:	bf00      	nop
    2aee:	3714      	adds	r7, #20
    2af0:	46bd      	mov	sp, r7
    2af2:	f85d 7b04 	ldr.w	r7, [sp], #4
    2af6:	4770      	bx	lr

00002af8 <nrf_twim_shorts_set>:
    2af8:	b480      	push	{r7}
    2afa:	b083      	sub	sp, #12
    2afc:	af00      	add	r7, sp, #0
    2afe:	6078      	str	r0, [r7, #4]
    2b00:	6039      	str	r1, [r7, #0]
    2b02:	687b      	ldr	r3, [r7, #4]
    2b04:	683a      	ldr	r2, [r7, #0]
    2b06:	f8c3 2200 	str.w	r2, [r3, #512]	; 0x200
    2b0a:	bf00      	nop
    2b0c:	370c      	adds	r7, #12
    2b0e:	46bd      	mov	sp, r7
    2b10:	f85d 7b04 	ldr.w	r7, [sp], #4
    2b14:	4770      	bx	lr

00002b16 <nrf_twim_txd_amount_get>:
    2b16:	b480      	push	{r7}
    2b18:	b083      	sub	sp, #12
    2b1a:	af00      	add	r7, sp, #0
    2b1c:	6078      	str	r0, [r7, #4]
    2b1e:	687b      	ldr	r3, [r7, #4]
    2b20:	f8d3 354c 	ldr.w	r3, [r3, #1356]	; 0x54c
    2b24:	4618      	mov	r0, r3
    2b26:	370c      	adds	r7, #12
    2b28:	46bd      	mov	sp, r7
    2b2a:	f85d 7b04 	ldr.w	r7, [sp], #4
    2b2e:	4770      	bx	lr

00002b30 <nrf_twim_shorts_get>:
    2b30:	b480      	push	{r7}
    2b32:	b083      	sub	sp, #12
    2b34:	af00      	add	r7, sp, #0
    2b36:	6078      	str	r0, [r7, #4]
    2b38:	687b      	ldr	r3, [r7, #4]
    2b3a:	f8d3 3200 	ldr.w	r3, [r3, #512]	; 0x200
    2b3e:	4618      	mov	r0, r3
    2b40:	370c      	adds	r7, #12
    2b42:	46bd      	mov	sp, r7
    2b44:	f85d 7b04 	ldr.w	r7, [sp], #4
    2b48:	4770      	bx	lr

00002b4a <nrf_twim_rxd_amount_get>:
    2b4a:	b480      	push	{r7}
    2b4c:	b083      	sub	sp, #12
    2b4e:	af00      	add	r7, sp, #0
    2b50:	6078      	str	r0, [r7, #4]
    2b52:	687b      	ldr	r3, [r7, #4]
    2b54:	f8d3 353c 	ldr.w	r3, [r3, #1340]	; 0x53c
    2b58:	4618      	mov	r0, r3
    2b5a:	370c      	adds	r7, #12
    2b5c:	46bd      	mov	sp, r7
    2b5e:	f85d 7b04 	ldr.w	r7, [sp], #4
    2b62:	4770      	bx	lr

00002b64 <nrf_twim_tx_list_enable>:
    2b64:	b480      	push	{r7}
    2b66:	b083      	sub	sp, #12
    2b68:	af00      	add	r7, sp, #0
    2b6a:	6078      	str	r0, [r7, #4]
    2b6c:	687b      	ldr	r3, [r7, #4]
    2b6e:	2201      	movs	r2, #1
    2b70:	f8c3 2550 	str.w	r2, [r3, #1360]	; 0x550
    2b74:	bf00      	nop
    2b76:	370c      	adds	r7, #12
    2b78:	46bd      	mov	sp, r7
    2b7a:	f85d 7b04 	ldr.w	r7, [sp], #4
    2b7e:	4770      	bx	lr

00002b80 <nrf_twim_tx_list_disable>:
    2b80:	b480      	push	{r7}
    2b82:	b083      	sub	sp, #12
    2b84:	af00      	add	r7, sp, #0
    2b86:	6078      	str	r0, [r7, #4]
    2b88:	687b      	ldr	r3, [r7, #4]
    2b8a:	2200      	movs	r2, #0
    2b8c:	f8c3 2550 	str.w	r2, [r3, #1360]	; 0x550
    2b90:	bf00      	nop
    2b92:	370c      	adds	r7, #12
    2b94:	46bd      	mov	sp, r7
    2b96:	f85d 7b04 	ldr.w	r7, [sp], #4
    2b9a:	4770      	bx	lr

00002b9c <nrf_twim_rx_list_enable>:
    2b9c:	b480      	push	{r7}
    2b9e:	b083      	sub	sp, #12
    2ba0:	af00      	add	r7, sp, #0
    2ba2:	6078      	str	r0, [r7, #4]
    2ba4:	687b      	ldr	r3, [r7, #4]
    2ba6:	2201      	movs	r2, #1
    2ba8:	f8c3 2540 	str.w	r2, [r3, #1344]	; 0x540
    2bac:	bf00      	nop
    2bae:	370c      	adds	r7, #12
    2bb0:	46bd      	mov	sp, r7
    2bb2:	f85d 7b04 	ldr.w	r7, [sp], #4
    2bb6:	4770      	bx	lr

00002bb8 <nrf_twim_rx_list_disable>:
    2bb8:	b480      	push	{r7}
    2bba:	b083      	sub	sp, #12
    2bbc:	af00      	add	r7, sp, #0
    2bbe:	6078      	str	r0, [r7, #4]
    2bc0:	687b      	ldr	r3, [r7, #4]
    2bc2:	2200      	movs	r2, #0
    2bc4:	f8c3 2540 	str.w	r2, [r3, #1344]	; 0x540
    2bc8:	bf00      	nop
    2bca:	370c      	adds	r7, #12
    2bcc:	46bd      	mov	sp, r7
    2bce:	f85d 7b04 	ldr.w	r7, [sp], #4
    2bd2:	4770      	bx	lr

00002bd4 <nrf_gpio_pin_port_decode>:
    2bd4:	b480      	push	{r7}
    2bd6:	b083      	sub	sp, #12
    2bd8:	af00      	add	r7, sp, #0
    2bda:	6078      	str	r0, [r7, #4]
    2bdc:	f04f 43a0 	mov.w	r3, #1342177280	; 0x50000000
    2be0:	4618      	mov	r0, r3
    2be2:	370c      	adds	r7, #12
    2be4:	46bd      	mov	sp, r7
    2be6:	f85d 7b04 	ldr.w	r7, [sp], #4
    2bea:	4770      	bx	lr

00002bec <nrf_gpio_cfg>:
    2bec:	b580      	push	{r7, lr}
    2bee:	b084      	sub	sp, #16
    2bf0:	af00      	add	r7, sp, #0
    2bf2:	6078      	str	r0, [r7, #4]
    2bf4:	4608      	mov	r0, r1
    2bf6:	4611      	mov	r1, r2
    2bf8:	461a      	mov	r2, r3
    2bfa:	4603      	mov	r3, r0
    2bfc:	70fb      	strb	r3, [r7, #3]
    2bfe:	460b      	mov	r3, r1
    2c00:	70bb      	strb	r3, [r7, #2]
    2c02:	4613      	mov	r3, r2
    2c04:	707b      	strb	r3, [r7, #1]
    2c06:	1d3b      	adds	r3, r7, #4
    2c08:	4618      	mov	r0, r3
    2c0a:	f7ff ffe3 	bl	2bd4 <nrf_gpio_pin_port_decode>
    2c0e:	60f8      	str	r0, [r7, #12]
    2c10:	78fa      	ldrb	r2, [r7, #3]
    2c12:	78bb      	ldrb	r3, [r7, #2]
    2c14:	005b      	lsls	r3, r3, #1
    2c16:	431a      	orrs	r2, r3
    2c18:	787b      	ldrb	r3, [r7, #1]
    2c1a:	009b      	lsls	r3, r3, #2
    2c1c:	431a      	orrs	r2, r3
    2c1e:	7e3b      	ldrb	r3, [r7, #24]
    2c20:	021b      	lsls	r3, r3, #8
    2c22:	ea42 0103 	orr.w	r1, r2, r3
    2c26:	7f3b      	ldrb	r3, [r7, #28]
    2c28:	041b      	lsls	r3, r3, #16
    2c2a:	687a      	ldr	r2, [r7, #4]
    2c2c:	4319      	orrs	r1, r3
    2c2e:	68fb      	ldr	r3, [r7, #12]
    2c30:	f502 72e0 	add.w	r2, r2, #448	; 0x1c0
    2c34:	f843 1022 	str.w	r1, [r3, r2, lsl #2]
    2c38:	bf00      	nop
    2c3a:	3710      	adds	r7, #16
    2c3c:	46bd      	mov	sp, r7
    2c3e:	bd80      	pop	{r7, pc}

00002c40 <twi_process_error>:
    2c40:	b480      	push	{r7}
    2c42:	b085      	sub	sp, #20
    2c44:	af00      	add	r7, sp, #0
    2c46:	6078      	str	r0, [r7, #4]
    2c48:	2303      	movs	r3, #3
    2c4a:	60fb      	str	r3, [r7, #12]
    2c4c:	687b      	ldr	r3, [r7, #4]
    2c4e:	f003 0301 	and.w	r3, r3, #1
    2c52:	2b00      	cmp	r3, #0
    2c54:	d002      	beq.n	2c5c <twi_process_error+0x1c>
    2c56:	f44f 4302 	mov.w	r3, #33280	; 0x8200
    2c5a:	60fb      	str	r3, [r7, #12]
    2c5c:	687b      	ldr	r3, [r7, #4]
    2c5e:	f003 0302 	and.w	r3, r3, #2
    2c62:	2b00      	cmp	r3, #0
    2c64:	d002      	beq.n	2c6c <twi_process_error+0x2c>
    2c66:	f248 2301 	movw	r3, #33281	; 0x8201
    2c6a:	60fb      	str	r3, [r7, #12]
    2c6c:	687b      	ldr	r3, [r7, #4]
    2c6e:	f003 0304 	and.w	r3, r3, #4
    2c72:	2b00      	cmp	r3, #0
    2c74:	d002      	beq.n	2c7c <twi_process_error+0x3c>
    2c76:	f248 2302 	movw	r3, #33282	; 0x8202
    2c7a:	60fb      	str	r3, [r7, #12]
    2c7c:	68fb      	ldr	r3, [r7, #12]
    2c7e:	4618      	mov	r0, r3
    2c80:	3714      	adds	r7, #20
    2c82:	46bd      	mov	sp, r7
    2c84:	f85d 7b04 	ldr.w	r7, [sp], #4
    2c88:	4770      	bx	lr
	...

00002c8c <xfer_completeness_check>:
    2c8c:	b580      	push	{r7, lr}
    2c8e:	b084      	sub	sp, #16
    2c90:	af00      	add	r7, sp, #0
    2c92:	6078      	str	r0, [r7, #4]
    2c94:	6039      	str	r1, [r7, #0]
    2c96:	2301      	movs	r3, #1
    2c98:	73fb      	strb	r3, [r7, #15]
    2c9a:	683b      	ldr	r3, [r7, #0]
    2c9c:	7b1b      	ldrb	r3, [r3, #12]
    2c9e:	2b03      	cmp	r3, #3
    2ca0:	d852      	bhi.n	2d48 <xfer_completeness_check+0xbc>
    2ca2:	a201      	add	r2, pc, #4	; (adr r2, 2ca8 <xfer_completeness_check+0x1c>)
    2ca4:	f852 f023 	ldr.w	pc, [r2, r3, lsl #2]
    2ca8:	00002d1d 	.word	0x00002d1d
    2cac:	00002d33 	.word	0x00002d33
    2cb0:	00002cf7 	.word	0x00002cf7
    2cb4:	00002cb9 	.word	0x00002cb9
    2cb8:	683b      	ldr	r3, [r7, #0]
    2cba:	689b      	ldr	r3, [r3, #8]
    2cbc:	f403 2380 	and.w	r3, r3, #262144	; 0x40000
    2cc0:	2b00      	cmp	r3, #0
    2cc2:	d007      	beq.n	2cd4 <xfer_completeness_check+0x48>
    2cc4:	6878      	ldr	r0, [r7, #4]
    2cc6:	f7ff ff26 	bl	2b16 <nrf_twim_txd_amount_get>
    2cca:	4602      	mov	r2, r0
    2ccc:	683b      	ldr	r3, [r7, #0]
    2cce:	691b      	ldr	r3, [r3, #16]
    2cd0:	429a      	cmp	r2, r3
    2cd2:	d10d      	bne.n	2cf0 <xfer_completeness_check+0x64>
    2cd4:	683b      	ldr	r3, [r7, #0]
    2cd6:	689b      	ldr	r3, [r3, #8]
    2cd8:	f403 2380 	and.w	r3, r3, #262144	; 0x40000
    2cdc:	2b00      	cmp	r3, #0
    2cde:	d135      	bne.n	2d4c <xfer_completeness_check+0xc0>
    2ce0:	6878      	ldr	r0, [r7, #4]
    2ce2:	f7ff ff18 	bl	2b16 <nrf_twim_txd_amount_get>
    2ce6:	4602      	mov	r2, r0
    2ce8:	683b      	ldr	r3, [r7, #0]
    2cea:	695b      	ldr	r3, [r3, #20]
    2cec:	429a      	cmp	r2, r3
    2cee:	d02d      	beq.n	2d4c <xfer_completeness_check+0xc0>
    2cf0:	2300      	movs	r3, #0
    2cf2:	73fb      	strb	r3, [r7, #15]
    2cf4:	e02a      	b.n	2d4c <xfer_completeness_check+0xc0>
    2cf6:	6878      	ldr	r0, [r7, #4]
    2cf8:	f7ff ff0d 	bl	2b16 <nrf_twim_txd_amount_get>
    2cfc:	4602      	mov	r2, r0
    2cfe:	683b      	ldr	r3, [r7, #0]
    2d00:	691b      	ldr	r3, [r3, #16]
    2d02:	429a      	cmp	r2, r3
    2d04:	d107      	bne.n	2d16 <xfer_completeness_check+0x8a>
    2d06:	6878      	ldr	r0, [r7, #4]
    2d08:	f7ff ff1f 	bl	2b4a <nrf_twim_rxd_amount_get>
    2d0c:	4602      	mov	r2, r0
    2d0e:	683b      	ldr	r3, [r7, #0]
    2d10:	695b      	ldr	r3, [r3, #20]
    2d12:	429a      	cmp	r2, r3
    2d14:	d01c      	beq.n	2d50 <xfer_completeness_check+0xc4>
    2d16:	2300      	movs	r3, #0
    2d18:	73fb      	strb	r3, [r7, #15]
    2d1a:	e019      	b.n	2d50 <xfer_completeness_check+0xc4>
    2d1c:	6878      	ldr	r0, [r7, #4]
    2d1e:	f7ff fefa 	bl	2b16 <nrf_twim_txd_amount_get>
    2d22:	4602      	mov	r2, r0
    2d24:	683b      	ldr	r3, [r7, #0]
    2d26:	691b      	ldr	r3, [r3, #16]
    2d28:	429a      	cmp	r2, r3
    2d2a:	d013      	beq.n	2d54 <xfer_completeness_check+0xc8>
    2d2c:	2300      	movs	r3, #0
    2d2e:	73fb      	strb	r3, [r7, #15]
    2d30:	e010      	b.n	2d54 <xfer_completeness_check+0xc8>
    2d32:	6878      	ldr	r0, [r7, #4]
    2d34:	f7ff ff09 	bl	2b4a <nrf_twim_rxd_amount_get>
    2d38:	4602      	mov	r2, r0
    2d3a:	683b      	ldr	r3, [r7, #0]
    2d3c:	691b      	ldr	r3, [r3, #16]
    2d3e:	429a      	cmp	r2, r3
    2d40:	d00a      	beq.n	2d58 <xfer_completeness_check+0xcc>
    2d42:	2300      	movs	r3, #0
    2d44:	73fb      	strb	r3, [r7, #15]
    2d46:	e007      	b.n	2d58 <xfer_completeness_check+0xcc>
    2d48:	bf00      	nop
    2d4a:	e006      	b.n	2d5a <xfer_completeness_check+0xce>
    2d4c:	bf00      	nop
    2d4e:	e004      	b.n	2d5a <xfer_completeness_check+0xce>
    2d50:	bf00      	nop
    2d52:	e002      	b.n	2d5a <xfer_completeness_check+0xce>
    2d54:	bf00      	nop
    2d56:	e000      	b.n	2d5a <xfer_completeness_check+0xce>
    2d58:	bf00      	nop
    2d5a:	7bfb      	ldrb	r3, [r7, #15]
    2d5c:	f083 0301 	eor.w	r3, r3, #1
    2d60:	b2db      	uxtb	r3, r3
    2d62:	2b00      	cmp	r3, #0
    2d64:	d005      	beq.n	2d72 <xfer_completeness_check+0xe6>
    2d66:	6878      	ldr	r0, [r7, #4]
    2d68:	f7ff fe4a 	bl	2a00 <nrf_twim_disable>
    2d6c:	6878      	ldr	r0, [r7, #4]
    2d6e:	f7ff fe39 	bl	29e4 <nrf_twim_enable>
    2d72:	7bfb      	ldrb	r3, [r7, #15]
    2d74:	4618      	mov	r0, r3
    2d76:	3710      	adds	r7, #16
    2d78:	46bd      	mov	sp, r7
    2d7a:	bd80      	pop	{r7, pc}

00002d7c <nrfx_twim_init>:
    2d7c:	b580      	push	{r7, lr}
    2d7e:	b08a      	sub	sp, #40	; 0x28
    2d80:	af02      	add	r7, sp, #8
    2d82:	60f8      	str	r0, [r7, #12]
    2d84:	60b9      	str	r1, [r7, #8]
    2d86:	607a      	str	r2, [r7, #4]
    2d88:	603b      	str	r3, [r7, #0]
    2d8a:	68fb      	ldr	r3, [r7, #12]
    2d8c:	791b      	ldrb	r3, [r3, #4]
    2d8e:	461a      	mov	r2, r3
    2d90:	2334      	movs	r3, #52	; 0x34
    2d92:	fb02 f303 	mul.w	r3, r2, r3
    2d96:	4a40      	ldr	r2, [pc, #256]	; (2e98 <nrfx_twim_init+0x11c>)
    2d98:	4413      	add	r3, r2
    2d9a:	617b      	str	r3, [r7, #20]
    2d9c:	697b      	ldr	r3, [r7, #20]
    2d9e:	f893 302d 	ldrb.w	r3, [r3, #45]	; 0x2d
    2da2:	2b00      	cmp	r3, #0
    2da4:	d003      	beq.n	2dae <nrfx_twim_init+0x32>
    2da6:	2308      	movs	r3, #8
    2da8:	61fb      	str	r3, [r7, #28]
    2daa:	69fb      	ldr	r3, [r7, #28]
    2dac:	e070      	b.n	2e90 <nrfx_twim_init+0x114>
    2dae:	68fb      	ldr	r3, [r7, #12]
    2db0:	681a      	ldr	r2, [r3, #0]
    2db2:	68fb      	ldr	r3, [r7, #12]
    2db4:	791b      	ldrb	r3, [r3, #4]
    2db6:	4619      	mov	r1, r3
    2db8:	4b38      	ldr	r3, [pc, #224]	; (2e9c <nrfx_twim_init+0x120>)
    2dba:	f853 3021 	ldr.w	r3, [r3, r1, lsl #2]
    2dbe:	4619      	mov	r1, r3
    2dc0:	4610      	mov	r0, r2
    2dc2:	f7ff fcbb 	bl	273c <nrfx_prs_acquire>
    2dc6:	4603      	mov	r3, r0
    2dc8:	2b00      	cmp	r3, #0
    2dca:	d003      	beq.n	2dd4 <nrfx_twim_init+0x58>
    2dcc:	2311      	movs	r3, #17
    2dce:	61fb      	str	r3, [r7, #28]
    2dd0:	69fb      	ldr	r3, [r7, #28]
    2dd2:	e05d      	b.n	2e90 <nrfx_twim_init+0x114>
    2dd4:	697b      	ldr	r3, [r7, #20]
    2dd6:	687a      	ldr	r2, [r7, #4]
    2dd8:	601a      	str	r2, [r3, #0]
    2dda:	697b      	ldr	r3, [r7, #20]
    2ddc:	683a      	ldr	r2, [r7, #0]
    2dde:	605a      	str	r2, [r3, #4]
    2de0:	697b      	ldr	r3, [r7, #20]
    2de2:	2200      	movs	r2, #0
    2de4:	609a      	str	r2, [r3, #8]
    2de6:	697b      	ldr	r3, [r7, #20]
    2de8:	2200      	movs	r2, #0
    2dea:	f883 2030 	strb.w	r2, [r3, #48]	; 0x30
    2dee:	697b      	ldr	r3, [r7, #20]
    2df0:	2200      	movs	r2, #0
    2df2:	f883 202f 	strb.w	r2, [r3, #47]	; 0x2f
    2df6:	68bb      	ldr	r3, [r7, #8]
    2df8:	7b5a      	ldrb	r2, [r3, #13]
    2dfa:	697b      	ldr	r3, [r7, #20]
    2dfc:	f883 2032 	strb.w	r2, [r3, #50]	; 0x32
    2e00:	68bb      	ldr	r3, [r7, #8]
    2e02:	6818      	ldr	r0, [r3, #0]
    2e04:	2300      	movs	r3, #0
    2e06:	9301      	str	r3, [sp, #4]
    2e08:	2306      	movs	r3, #6
    2e0a:	9300      	str	r3, [sp, #0]
    2e0c:	2303      	movs	r3, #3
    2e0e:	2200      	movs	r2, #0
    2e10:	2100      	movs	r1, #0
    2e12:	f7ff feeb 	bl	2bec <nrf_gpio_cfg>
    2e16:	68bb      	ldr	r3, [r7, #8]
    2e18:	6858      	ldr	r0, [r3, #4]
    2e1a:	2300      	movs	r3, #0
    2e1c:	9301      	str	r3, [sp, #4]
    2e1e:	2306      	movs	r3, #6
    2e20:	9300      	str	r3, [sp, #0]
    2e22:	2303      	movs	r3, #3
    2e24:	2200      	movs	r2, #0
    2e26:	2100      	movs	r1, #0
    2e28:	f7ff fee0 	bl	2bec <nrf_gpio_cfg>
    2e2c:	68fb      	ldr	r3, [r7, #12]
    2e2e:	681b      	ldr	r3, [r3, #0]
    2e30:	61bb      	str	r3, [r7, #24]
    2e32:	68bb      	ldr	r3, [r7, #8]
    2e34:	6819      	ldr	r1, [r3, #0]
    2e36:	68bb      	ldr	r3, [r7, #8]
    2e38:	685b      	ldr	r3, [r3, #4]
    2e3a:	461a      	mov	r2, r3
    2e3c:	69b8      	ldr	r0, [r7, #24]
    2e3e:	f7ff fded 	bl	2a1c <nrf_twim_pins_set>
    2e42:	68bb      	ldr	r3, [r7, #8]
    2e44:	689b      	ldr	r3, [r3, #8]
    2e46:	4619      	mov	r1, r3
    2e48:	69b8      	ldr	r0, [r7, #24]
    2e4a:	f7ff fdfb 	bl	2a44 <nrf_twim_frequency_set>
    2e4e:	697b      	ldr	r3, [r7, #20]
    2e50:	681b      	ldr	r3, [r3, #0]
    2e52:	2b00      	cmp	r3, #0
    2e54:	d015      	beq.n	2e82 <nrfx_twim_init+0x106>
    2e56:	68fb      	ldr	r3, [r7, #12]
    2e58:	681b      	ldr	r3, [r3, #0]
    2e5a:	4618      	mov	r0, r3
    2e5c:	f7ff fd2b 	bl	28b6 <nrfx_get_irq_number>
    2e60:	4603      	mov	r3, r0
    2e62:	461a      	mov	r2, r3
    2e64:	68bb      	ldr	r3, [r7, #8]
    2e66:	7b1b      	ldrb	r3, [r3, #12]
    2e68:	4619      	mov	r1, r3
    2e6a:	4610      	mov	r0, r2
    2e6c:	f7ff fd30 	bl	28d0 <_NRFX_IRQ_PRIORITY_SET>
    2e70:	68fb      	ldr	r3, [r7, #12]
    2e72:	681b      	ldr	r3, [r3, #0]
    2e74:	4618      	mov	r0, r3
    2e76:	f7ff fd1e 	bl	28b6 <nrfx_get_irq_number>
    2e7a:	4603      	mov	r3, r0
    2e7c:	4618      	mov	r0, r3
    2e7e:	f7ff fd3a 	bl	28f6 <_NRFX_IRQ_ENABLE>
    2e82:	697b      	ldr	r3, [r7, #20]
    2e84:	2201      	movs	r2, #1
    2e86:	f883 202d 	strb.w	r2, [r3, #45]	; 0x2d
    2e8a:	2300      	movs	r3, #0
    2e8c:	61fb      	str	r3, [r7, #28]
    2e8e:	69fb      	ldr	r3, [r7, #28]
    2e90:	4618      	mov	r0, r3
    2e92:	3720      	adds	r7, #32
    2e94:	46bd      	mov	sp, r7
    2e96:	bd80      	pop	{r7, pc}
    2e98:	20000678 	.word	0x20000678
    2e9c:	00005ed4 	.word	0x00005ed4

00002ea0 <nrfx_twim_enable>:
    2ea0:	b580      	push	{r7, lr}
    2ea2:	b084      	sub	sp, #16
    2ea4:	af00      	add	r7, sp, #0
    2ea6:	6078      	str	r0, [r7, #4]
    2ea8:	687b      	ldr	r3, [r7, #4]
    2eaa:	791b      	ldrb	r3, [r3, #4]
    2eac:	461a      	mov	r2, r3
    2eae:	2334      	movs	r3, #52	; 0x34
    2eb0:	fb02 f303 	mul.w	r3, r2, r3
    2eb4:	4a07      	ldr	r2, [pc, #28]	; (2ed4 <nrfx_twim_enable+0x34>)
    2eb6:	4413      	add	r3, r2
    2eb8:	60fb      	str	r3, [r7, #12]
    2eba:	687b      	ldr	r3, [r7, #4]
    2ebc:	681b      	ldr	r3, [r3, #0]
    2ebe:	4618      	mov	r0, r3
    2ec0:	f7ff fd90 	bl	29e4 <nrf_twim_enable>
    2ec4:	68fb      	ldr	r3, [r7, #12]
    2ec6:	2202      	movs	r2, #2
    2ec8:	f883 202d 	strb.w	r2, [r3, #45]	; 0x2d
    2ecc:	bf00      	nop
    2ece:	3710      	adds	r7, #16
    2ed0:	46bd      	mov	sp, r7
    2ed2:	bd80      	pop	{r7, pc}
    2ed4:	20000678 	.word	0x20000678

00002ed8 <twim_list_enable_handle>:
    2ed8:	b580      	push	{r7, lr}
    2eda:	b082      	sub	sp, #8
    2edc:	af00      	add	r7, sp, #0
    2ede:	6078      	str	r0, [r7, #4]
    2ee0:	6039      	str	r1, [r7, #0]
    2ee2:	683b      	ldr	r3, [r7, #0]
    2ee4:	f003 0301 	and.w	r3, r3, #1
    2ee8:	2b00      	cmp	r3, #0
    2eea:	d003      	beq.n	2ef4 <twim_list_enable_handle+0x1c>
    2eec:	6878      	ldr	r0, [r7, #4]
    2eee:	f7ff fe39 	bl	2b64 <nrf_twim_tx_list_enable>
    2ef2:	e002      	b.n	2efa <twim_list_enable_handle+0x22>
    2ef4:	6878      	ldr	r0, [r7, #4]
    2ef6:	f7ff fe43 	bl	2b80 <nrf_twim_tx_list_disable>
    2efa:	683b      	ldr	r3, [r7, #0]
    2efc:	f003 0302 	and.w	r3, r3, #2
    2f00:	2b00      	cmp	r3, #0
    2f02:	d003      	beq.n	2f0c <twim_list_enable_handle+0x34>
    2f04:	6878      	ldr	r0, [r7, #4]
    2f06:	f7ff fe49 	bl	2b9c <nrf_twim_rx_list_enable>
    2f0a:	e002      	b.n	2f12 <twim_list_enable_handle+0x3a>
    2f0c:	6878      	ldr	r0, [r7, #4]
    2f0e:	f7ff fe53 	bl	2bb8 <nrf_twim_rx_list_disable>
    2f12:	bf00      	nop
    2f14:	3708      	adds	r7, #8
    2f16:	46bd      	mov	sp, r7
    2f18:	bd80      	pop	{r7, pc}
	...

00002f1c <twim_xfer>:
    2f1c:	b5b0      	push	{r4, r5, r7, lr}
    2f1e:	b088      	sub	sp, #32
    2f20:	af00      	add	r7, sp, #0
    2f22:	60f8      	str	r0, [r7, #12]
    2f24:	60b9      	str	r1, [r7, #8]
    2f26:	607a      	str	r2, [r7, #4]
    2f28:	603b      	str	r3, [r7, #0]
    2f2a:	2300      	movs	r3, #0
    2f2c:	61fb      	str	r3, [r7, #28]
    2f2e:	2308      	movs	r3, #8
    2f30:	76fb      	strb	r3, [r7, #27]
    2f32:	68fb      	ldr	r3, [r7, #12]
    2f34:	2200      	movs	r2, #0
    2f36:	f883 202e 	strb.w	r2, [r3, #46]	; 0x2e
    2f3a:	687b      	ldr	r3, [r7, #4]
    2f3c:	68db      	ldr	r3, [r3, #12]
    2f3e:	4618      	mov	r0, r3
    2f40:	f7ff fca6 	bl	2890 <nrfx_is_in_ram>
    2f44:	4603      	mov	r3, r0
    2f46:	f083 0301 	eor.w	r3, r3, #1
    2f4a:	b2db      	uxtb	r3, r3
    2f4c:	2b00      	cmp	r3, #0
    2f4e:	d003      	beq.n	2f58 <twim_xfer+0x3c>
    2f50:	2310      	movs	r3, #16
    2f52:	61fb      	str	r3, [r7, #28]
    2f54:	69fb      	ldr	r3, [r7, #28]
    2f56:	e1d2      	b.n	32fe <twim_xfer+0x3e2>
    2f58:	49a8      	ldr	r1, [pc, #672]	; (31fc <twim_xfer+0x2e0>)
    2f5a:	68b8      	ldr	r0, [r7, #8]
    2f5c:	f7ff fd33 	bl	29c6 <nrf_twim_int_disable>
    2f60:	68fb      	ldr	r3, [r7, #12]
    2f62:	f893 302f 	ldrb.w	r3, [r3, #47]	; 0x2f
    2f66:	b2db      	uxtb	r3, r3
    2f68:	2b00      	cmp	r3, #0
    2f6a:	d009      	beq.n	2f80 <twim_xfer+0x64>
    2f6c:	68fb      	ldr	r3, [r7, #12]
    2f6e:	689b      	ldr	r3, [r3, #8]
    2f70:	4619      	mov	r1, r3
    2f72:	68b8      	ldr	r0, [r7, #8]
    2f74:	f7ff fd18 	bl	29a8 <nrf_twim_int_enable>
    2f78:	2311      	movs	r3, #17
    2f7a:	61fb      	str	r3, [r7, #28]
    2f7c:	69fb      	ldr	r3, [r7, #28]
    2f7e:	e1be      	b.n	32fe <twim_xfer+0x3e2>
    2f80:	683b      	ldr	r3, [r7, #0]
    2f82:	f003 0304 	and.w	r3, r3, #4
    2f86:	2b00      	cmp	r3, #0
    2f88:	d106      	bne.n	2f98 <twim_xfer+0x7c>
    2f8a:	683b      	ldr	r3, [r7, #0]
    2f8c:	f003 0310 	and.w	r3, r3, #16
    2f90:	2b00      	cmp	r3, #0
    2f92:	d101      	bne.n	2f98 <twim_xfer+0x7c>
    2f94:	2301      	movs	r3, #1
    2f96:	e000      	b.n	2f9a <twim_xfer+0x7e>
    2f98:	2300      	movs	r3, #0
    2f9a:	f003 0301 	and.w	r3, r3, #1
    2f9e:	b2da      	uxtb	r2, r3
    2fa0:	68fb      	ldr	r3, [r7, #12]
    2fa2:	f883 202f 	strb.w	r2, [r3, #47]	; 0x2f
    2fa6:	68fb      	ldr	r3, [r7, #12]
    2fa8:	687a      	ldr	r2, [r7, #4]
    2faa:	f103 040c 	add.w	r4, r3, #12
    2fae:	4615      	mov	r5, r2
    2fb0:	cd0f      	ldmia	r5!, {r0, r1, r2, r3}
    2fb2:	c40f      	stmia	r4!, {r0, r1, r2, r3}
    2fb4:	682b      	ldr	r3, [r5, #0]
    2fb6:	6023      	str	r3, [r4, #0]
    2fb8:	683b      	ldr	r3, [r7, #0]
    2fba:	091b      	lsrs	r3, r3, #4
    2fbc:	f003 0301 	and.w	r3, r3, #1
    2fc0:	2b00      	cmp	r3, #0
    2fc2:	bf14      	ite	ne
    2fc4:	2301      	movne	r3, #1
    2fc6:	2300      	moveq	r3, #0
    2fc8:	b2da      	uxtb	r2, r3
    2fca:	68fb      	ldr	r3, [r7, #12]
    2fcc:	f883 2030 	strb.w	r2, [r3, #48]	; 0x30
    2fd0:	68fb      	ldr	r3, [r7, #12]
    2fd2:	683a      	ldr	r2, [r7, #0]
    2fd4:	621a      	str	r2, [r3, #32]
    2fd6:	687b      	ldr	r3, [r7, #4]
    2fd8:	785b      	ldrb	r3, [r3, #1]
    2fda:	4619      	mov	r1, r3
    2fdc:	68b8      	ldr	r0, [r7, #8]
    2fde:	f7ff fd53 	bl	2a88 <nrf_twim_address_set>
    2fe2:	f44f 7182 	mov.w	r1, #260	; 0x104
    2fe6:	68b8      	ldr	r0, [r7, #8]
    2fe8:	f7ff fcb2 	bl	2950 <nrf_twim_event_clear>
    2fec:	f44f 7192 	mov.w	r1, #292	; 0x124
    2ff0:	68b8      	ldr	r0, [r7, #8]
    2ff2:	f7ff fcad 	bl	2950 <nrf_twim_event_clear>
    2ff6:	f44f 71b0 	mov.w	r1, #352	; 0x160
    2ffa:	68b8      	ldr	r0, [r7, #8]
    2ffc:	f7ff fca8 	bl	2950 <nrf_twim_event_clear>
    3000:	f44f 71a4 	mov.w	r1, #328	; 0x148
    3004:	68b8      	ldr	r0, [r7, #8]
    3006:	f7ff fca3 	bl	2950 <nrf_twim_event_clear>
    300a:	6839      	ldr	r1, [r7, #0]
    300c:	68b8      	ldr	r0, [r7, #8]
    300e:	f7ff ff63 	bl	2ed8 <twim_list_enable_handle>
    3012:	687b      	ldr	r3, [r7, #4]
    3014:	781b      	ldrb	r3, [r3, #0]
    3016:	2b03      	cmp	r3, #3
    3018:	f200 80ba 	bhi.w	3190 <twim_xfer+0x274>
    301c:	a201      	add	r2, pc, #4	; (adr r2, 3024 <twim_xfer+0x108>)
    301e:	f852 f023 	ldr.w	pc, [r2, r3, lsl #2]
    3022:	bf00      	nop
    3024:	0000311b 	.word	0x0000311b
    3028:	00003163 	.word	0x00003163
    302c:	000030c3 	.word	0x000030c3
    3030:	00003035 	.word	0x00003035
    3034:	687b      	ldr	r3, [r7, #4]
    3036:	691b      	ldr	r3, [r3, #16]
    3038:	4618      	mov	r0, r3
    303a:	f7ff fc29 	bl	2890 <nrfx_is_in_ram>
    303e:	4603      	mov	r3, r0
    3040:	f083 0301 	eor.w	r3, r3, #1
    3044:	b2db      	uxtb	r3, r3
    3046:	2b00      	cmp	r3, #0
    3048:	d003      	beq.n	3052 <twim_xfer+0x136>
    304a:	2310      	movs	r3, #16
    304c:	61fb      	str	r3, [r7, #28]
    304e:	69fb      	ldr	r3, [r7, #28]
    3050:	e155      	b.n	32fe <twim_xfer+0x3e2>
    3052:	f44f 7180 	mov.w	r1, #256	; 0x100
    3056:	68b8      	ldr	r0, [r7, #8]
    3058:	f7ff fd4e 	bl	2af8 <nrf_twim_shorts_set>
    305c:	687b      	ldr	r3, [r7, #4]
    305e:	68d9      	ldr	r1, [r3, #12]
    3060:	687b      	ldr	r3, [r7, #4]
    3062:	685b      	ldr	r3, [r3, #4]
    3064:	461a      	mov	r2, r3
    3066:	68b8      	ldr	r0, [r7, #8]
    3068:	f7ff fd1e 	bl	2aa8 <nrf_twim_tx_buffer_set>
    306c:	f44f 71a8 	mov.w	r1, #336	; 0x150
    3070:	68b8      	ldr	r0, [r7, #8]
    3072:	f7ff fc6d 	bl	2950 <nrf_twim_event_clear>
    3076:	2120      	movs	r1, #32
    3078:	68b8      	ldr	r0, [r7, #8]
    307a:	f7ff fc58 	bl	292e <nrf_twim_task_trigger>
    307e:	2108      	movs	r1, #8
    3080:	68b8      	ldr	r0, [r7, #8]
    3082:	f7ff fc54 	bl	292e <nrf_twim_task_trigger>
    3086:	bf00      	nop
    3088:	f44f 71a8 	mov.w	r1, #336	; 0x150
    308c:	68b8      	ldr	r0, [r7, #8]
    308e:	f7ff fc76 	bl	297e <nrf_twim_event_check>
    3092:	4603      	mov	r3, r0
    3094:	f083 0301 	eor.w	r3, r3, #1
    3098:	b2db      	uxtb	r3, r3
    309a:	2b00      	cmp	r3, #0
    309c:	d1f4      	bne.n	3088 <twim_xfer+0x16c>
    309e:	f44f 71a8 	mov.w	r1, #336	; 0x150
    30a2:	68b8      	ldr	r0, [r7, #8]
    30a4:	f7ff fc54 	bl	2950 <nrf_twim_event_clear>
    30a8:	687b      	ldr	r3, [r7, #4]
    30aa:	6919      	ldr	r1, [r3, #16]
    30ac:	687b      	ldr	r3, [r7, #4]
    30ae:	689b      	ldr	r3, [r3, #8]
    30b0:	461a      	mov	r2, r3
    30b2:	68b8      	ldr	r0, [r7, #8]
    30b4:	f7ff fcf8 	bl	2aa8 <nrf_twim_tx_buffer_set>
    30b8:	68fb      	ldr	r3, [r7, #12]
    30ba:	f44f 2280 	mov.w	r2, #262144	; 0x40000
    30be:	609a      	str	r2, [r3, #8]
    30c0:	e069      	b.n	3196 <twim_xfer+0x27a>
    30c2:	687b      	ldr	r3, [r7, #4]
    30c4:	68d9      	ldr	r1, [r3, #12]
    30c6:	687b      	ldr	r3, [r7, #4]
    30c8:	685b      	ldr	r3, [r3, #4]
    30ca:	461a      	mov	r2, r3
    30cc:	68b8      	ldr	r0, [r7, #8]
    30ce:	f7ff fceb 	bl	2aa8 <nrf_twim_tx_buffer_set>
    30d2:	687b      	ldr	r3, [r7, #4]
    30d4:	691b      	ldr	r3, [r3, #16]
    30d6:	4618      	mov	r0, r3
    30d8:	f7ff fbda 	bl	2890 <nrfx_is_in_ram>
    30dc:	4603      	mov	r3, r0
    30de:	f083 0301 	eor.w	r3, r3, #1
    30e2:	b2db      	uxtb	r3, r3
    30e4:	2b00      	cmp	r3, #0
    30e6:	d003      	beq.n	30f0 <twim_xfer+0x1d4>
    30e8:	2310      	movs	r3, #16
    30ea:	61fb      	str	r3, [r7, #28]
    30ec:	69fb      	ldr	r3, [r7, #28]
    30ee:	e106      	b.n	32fe <twim_xfer+0x3e2>
    30f0:	687b      	ldr	r3, [r7, #4]
    30f2:	6919      	ldr	r1, [r3, #16]
    30f4:	687b      	ldr	r3, [r7, #4]
    30f6:	689b      	ldr	r3, [r3, #8]
    30f8:	461a      	mov	r2, r3
    30fa:	68b8      	ldr	r0, [r7, #8]
    30fc:	f7ff fce8 	bl	2ad0 <nrf_twim_rx_buffer_set>
    3100:	f44f 5184 	mov.w	r1, #4224	; 0x1080
    3104:	68b8      	ldr	r0, [r7, #8]
    3106:	f7ff fcf7 	bl	2af8 <nrf_twim_shorts_set>
    310a:	68fb      	ldr	r3, [r7, #12]
    310c:	2202      	movs	r2, #2
    310e:	609a      	str	r2, [r3, #8]
    3110:	2120      	movs	r1, #32
    3112:	68b8      	ldr	r0, [r7, #8]
    3114:	f7ff fc0b 	bl	292e <nrf_twim_task_trigger>
    3118:	e03d      	b.n	3196 <twim_xfer+0x27a>
    311a:	687b      	ldr	r3, [r7, #4]
    311c:	68d9      	ldr	r1, [r3, #12]
    311e:	687b      	ldr	r3, [r7, #4]
    3120:	685b      	ldr	r3, [r3, #4]
    3122:	461a      	mov	r2, r3
    3124:	68b8      	ldr	r0, [r7, #8]
    3126:	f7ff fcbf 	bl	2aa8 <nrf_twim_tx_buffer_set>
    312a:	683b      	ldr	r3, [r7, #0]
    312c:	f003 0320 	and.w	r3, r3, #32
    3130:	2b00      	cmp	r3, #0
    3132:	d009      	beq.n	3148 <twim_xfer+0x22c>
    3134:	f44f 7180 	mov.w	r1, #256	; 0x100
    3138:	68b8      	ldr	r0, [r7, #8]
    313a:	f7ff fcdd 	bl	2af8 <nrf_twim_shorts_set>
    313e:	68fb      	ldr	r3, [r7, #12]
    3140:	f44f 2280 	mov.w	r2, #262144	; 0x40000
    3144:	609a      	str	r2, [r3, #8]
    3146:	e007      	b.n	3158 <twim_xfer+0x23c>
    3148:	f44f 7100 	mov.w	r1, #512	; 0x200
    314c:	68b8      	ldr	r0, [r7, #8]
    314e:	f7ff fcd3 	bl	2af8 <nrf_twim_shorts_set>
    3152:	68fb      	ldr	r3, [r7, #12]
    3154:	2202      	movs	r2, #2
    3156:	609a      	str	r2, [r3, #8]
    3158:	2120      	movs	r1, #32
    315a:	68b8      	ldr	r0, [r7, #8]
    315c:	f7ff fbe7 	bl	292e <nrf_twim_task_trigger>
    3160:	e019      	b.n	3196 <twim_xfer+0x27a>
    3162:	687b      	ldr	r3, [r7, #4]
    3164:	68d9      	ldr	r1, [r3, #12]
    3166:	687b      	ldr	r3, [r7, #4]
    3168:	685b      	ldr	r3, [r3, #4]
    316a:	461a      	mov	r2, r3
    316c:	68b8      	ldr	r0, [r7, #8]
    316e:	f7ff fcaf 	bl	2ad0 <nrf_twim_rx_buffer_set>
    3172:	f44f 5180 	mov.w	r1, #4096	; 0x1000
    3176:	68b8      	ldr	r0, [r7, #8]
    3178:	f7ff fcbe 	bl	2af8 <nrf_twim_shorts_set>
    317c:	68fb      	ldr	r3, [r7, #12]
    317e:	2202      	movs	r2, #2
    3180:	609a      	str	r2, [r3, #8]
    3182:	2300      	movs	r3, #0
    3184:	76fb      	strb	r3, [r7, #27]
    3186:	2120      	movs	r1, #32
    3188:	68b8      	ldr	r0, [r7, #8]
    318a:	f7ff fbd0 	bl	292e <nrf_twim_task_trigger>
    318e:	e002      	b.n	3196 <twim_xfer+0x27a>
    3190:	2307      	movs	r3, #7
    3192:	61fb      	str	r3, [r7, #28]
    3194:	bf00      	nop
    3196:	683b      	ldr	r3, [r7, #0]
    3198:	f003 0308 	and.w	r3, r3, #8
    319c:	2b00      	cmp	r3, #0
    319e:	d108      	bne.n	31b2 <twim_xfer+0x296>
    31a0:	687b      	ldr	r3, [r7, #4]
    31a2:	781b      	ldrb	r3, [r3, #0]
    31a4:	2b03      	cmp	r3, #3
    31a6:	d004      	beq.n	31b2 <twim_xfer+0x296>
    31a8:	7efb      	ldrb	r3, [r7, #27]
    31aa:	4619      	mov	r1, r3
    31ac:	68b8      	ldr	r0, [r7, #8]
    31ae:	f7ff fbbe 	bl	292e <nrf_twim_task_trigger>
    31b2:	68fb      	ldr	r3, [r7, #12]
    31b4:	681b      	ldr	r3, [r3, #0]
    31b6:	2b00      	cmp	r3, #0
    31b8:	d022      	beq.n	3200 <twim_xfer+0x2e4>
    31ba:	683b      	ldr	r3, [r7, #0]
    31bc:	f003 0304 	and.w	r3, r3, #4
    31c0:	2b00      	cmp	r3, #0
    31c2:	d002      	beq.n	31ca <twim_xfer+0x2ae>
    31c4:	68fb      	ldr	r3, [r7, #12]
    31c6:	2200      	movs	r2, #0
    31c8:	609a      	str	r2, [r3, #8]
    31ca:	683b      	ldr	r3, [r7, #0]
    31cc:	f003 0340 	and.w	r3, r3, #64	; 0x40
    31d0:	2b00      	cmp	r3, #0
    31d2:	d105      	bne.n	31e0 <twim_xfer+0x2c4>
    31d4:	68fb      	ldr	r3, [r7, #12]
    31d6:	689b      	ldr	r3, [r3, #8]
    31d8:	f043 0202 	orr.w	r2, r3, #2
    31dc:	68fb      	ldr	r3, [r7, #12]
    31de:	609a      	str	r2, [r3, #8]
    31e0:	68fb      	ldr	r3, [r7, #12]
    31e2:	689b      	ldr	r3, [r3, #8]
    31e4:	f443 7200 	orr.w	r2, r3, #512	; 0x200
    31e8:	68fb      	ldr	r3, [r7, #12]
    31ea:	609a      	str	r2, [r3, #8]
    31ec:	68fb      	ldr	r3, [r7, #12]
    31ee:	689b      	ldr	r3, [r3, #8]
    31f0:	4619      	mov	r1, r3
    31f2:	68b8      	ldr	r0, [r7, #8]
    31f4:	f7ff fbd8 	bl	29a8 <nrf_twim_int_enable>
    31f8:	e080      	b.n	32fc <twim_xfer+0x3e0>
    31fa:	bf00      	nop
    31fc:	019c0202 	.word	0x019c0202
    3200:	2300      	movs	r3, #0
    3202:	76bb      	strb	r3, [r7, #26]
    3204:	f44f 71a4 	mov.w	r1, #328	; 0x148
    3208:	68b8      	ldr	r0, [r7, #8]
    320a:	f7ff fbb8 	bl	297e <nrf_twim_event_check>
    320e:	4603      	mov	r3, r0
    3210:	2b00      	cmp	r3, #0
    3212:	d001      	beq.n	3218 <twim_xfer+0x2fc>
    3214:	2301      	movs	r3, #1
    3216:	76bb      	strb	r3, [r7, #26]
    3218:	f44f 7182 	mov.w	r1, #260	; 0x104
    321c:	68b8      	ldr	r0, [r7, #8]
    321e:	f7ff fbae 	bl	297e <nrf_twim_event_check>
    3222:	4603      	mov	r3, r0
    3224:	2b00      	cmp	r3, #0
    3226:	d006      	beq.n	3236 <twim_xfer+0x31a>
    3228:	f44f 7182 	mov.w	r1, #260	; 0x104
    322c:	68b8      	ldr	r0, [r7, #8]
    322e:	f7ff fb8f 	bl	2950 <nrf_twim_event_clear>
    3232:	2301      	movs	r3, #1
    3234:	76bb      	strb	r3, [r7, #26]
    3236:	f44f 7192 	mov.w	r1, #292	; 0x124
    323a:	68b8      	ldr	r0, [r7, #8]
    323c:	f7ff fb9f 	bl	297e <nrf_twim_event_check>
    3240:	4603      	mov	r3, r0
    3242:	2b00      	cmp	r3, #0
    3244:	d033      	beq.n	32ae <twim_xfer+0x392>
    3246:	f44f 7192 	mov.w	r1, #292	; 0x124
    324a:	68b8      	ldr	r0, [r7, #8]
    324c:	f7ff fb80 	bl	2950 <nrf_twim_event_clear>
    3250:	f44f 71b0 	mov.w	r1, #352	; 0x160
    3254:	68b8      	ldr	r0, [r7, #8]
    3256:	f7ff fb92 	bl	297e <nrf_twim_event_check>
    325a:	4603      	mov	r3, r0
    325c:	767b      	strb	r3, [r7, #25]
    325e:	68b8      	ldr	r0, [r7, #8]
    3260:	f7ff fc66 	bl	2b30 <nrf_twim_shorts_get>
    3264:	6178      	str	r0, [r7, #20]
    3266:	7e7b      	ldrb	r3, [r7, #25]
    3268:	f083 0301 	eor.w	r3, r3, #1
    326c:	b2db      	uxtb	r3, r3
    326e:	2b00      	cmp	r3, #0
    3270:	d104      	bne.n	327c <twim_xfer+0x360>
    3272:	697b      	ldr	r3, [r7, #20]
    3274:	f403 7300 	and.w	r3, r3, #512	; 0x200
    3278:	2b00      	cmp	r3, #0
    327a:	d109      	bne.n	3290 <twim_xfer+0x374>
    327c:	2120      	movs	r1, #32
    327e:	68b8      	ldr	r0, [r7, #8]
    3280:	f7ff fb55 	bl	292e <nrf_twim_task_trigger>
    3284:	2114      	movs	r1, #20
    3286:	68b8      	ldr	r0, [r7, #8]
    3288:	f7ff fb51 	bl	292e <nrf_twim_task_trigger>
    328c:	2300      	movs	r3, #0
    328e:	76bb      	strb	r3, [r7, #26]
    3290:	7e7b      	ldrb	r3, [r7, #25]
    3292:	2b00      	cmp	r3, #0
    3294:	d00b      	beq.n	32ae <twim_xfer+0x392>
    3296:	697b      	ldr	r3, [r7, #20]
    3298:	f403 7380 	and.w	r3, r3, #256	; 0x100
    329c:	2b00      	cmp	r3, #0
    329e:	d006      	beq.n	32ae <twim_xfer+0x392>
    32a0:	f44f 71a4 	mov.w	r1, #328	; 0x148
    32a4:	68b8      	ldr	r0, [r7, #8]
    32a6:	f7ff fb53 	bl	2950 <nrf_twim_event_clear>
    32aa:	2300      	movs	r3, #0
    32ac:	76bb      	strb	r3, [r7, #26]
    32ae:	7ebb      	ldrb	r3, [r7, #26]
    32b0:	f083 0301 	eor.w	r3, r3, #1
    32b4:	b2db      	uxtb	r3, r3
    32b6:	2b00      	cmp	r3, #0
    32b8:	d1a4      	bne.n	3204 <twim_xfer+0x2e8>
    32ba:	68b8      	ldr	r0, [r7, #8]
    32bc:	f7ff fbd1 	bl	2a62 <nrf_twim_errorsrc_get_and_clear>
    32c0:	6138      	str	r0, [r7, #16]
    32c2:	68fb      	ldr	r3, [r7, #12]
    32c4:	2200      	movs	r2, #0
    32c6:	f883 202f 	strb.w	r2, [r3, #47]	; 0x2f
    32ca:	693b      	ldr	r3, [r7, #16]
    32cc:	2b00      	cmp	r3, #0
    32ce:	d004      	beq.n	32da <twim_xfer+0x3be>
    32d0:	6938      	ldr	r0, [r7, #16]
    32d2:	f7ff fcb5 	bl	2c40 <twi_process_error>
    32d6:	61f8      	str	r0, [r7, #28]
    32d8:	e010      	b.n	32fc <twim_xfer+0x3e0>
    32da:	683b      	ldr	r3, [r7, #0]
    32dc:	f003 0340 	and.w	r3, r3, #64	; 0x40
    32e0:	2b00      	cmp	r3, #0
    32e2:	d10b      	bne.n	32fc <twim_xfer+0x3e0>
    32e4:	68f9      	ldr	r1, [r7, #12]
    32e6:	68b8      	ldr	r0, [r7, #8]
    32e8:	f7ff fcd0 	bl	2c8c <xfer_completeness_check>
    32ec:	4603      	mov	r3, r0
    32ee:	f083 0301 	eor.w	r3, r3, #1
    32f2:	b2db      	uxtb	r3, r3
    32f4:	2b00      	cmp	r3, #0
    32f6:	d001      	beq.n	32fc <twim_xfer+0x3e0>
    32f8:	2303      	movs	r3, #3
    32fa:	61fb      	str	r3, [r7, #28]
    32fc:	69fb      	ldr	r3, [r7, #28]
    32fe:	4618      	mov	r0, r3
    3300:	3720      	adds	r7, #32
    3302:	46bd      	mov	sp, r7
    3304:	bdb0      	pop	{r4, r5, r7, pc}
    3306:	bf00      	nop

00003308 <nrfx_twim_xfer>:
    3308:	b580      	push	{r7, lr}
    330a:	b086      	sub	sp, #24
    330c:	af00      	add	r7, sp, #0
    330e:	60f8      	str	r0, [r7, #12]
    3310:	60b9      	str	r1, [r7, #8]
    3312:	607a      	str	r2, [r7, #4]
    3314:	2300      	movs	r3, #0
    3316:	617b      	str	r3, [r7, #20]
    3318:	68fb      	ldr	r3, [r7, #12]
    331a:	791b      	ldrb	r3, [r3, #4]
    331c:	461a      	mov	r2, r3
    331e:	2334      	movs	r3, #52	; 0x34
    3320:	fb02 f303 	mul.w	r3, r2, r3
    3324:	4a07      	ldr	r2, [pc, #28]	; (3344 <nrfx_twim_xfer+0x3c>)
    3326:	4413      	add	r3, r2
    3328:	613b      	str	r3, [r7, #16]
    332a:	68fb      	ldr	r3, [r7, #12]
    332c:	6819      	ldr	r1, [r3, #0]
    332e:	687b      	ldr	r3, [r7, #4]
    3330:	68ba      	ldr	r2, [r7, #8]
    3332:	6938      	ldr	r0, [r7, #16]
    3334:	f7ff fdf2 	bl	2f1c <twim_xfer>
    3338:	6178      	str	r0, [r7, #20]
    333a:	697b      	ldr	r3, [r7, #20]
    333c:	4618      	mov	r0, r3
    333e:	3718      	adds	r7, #24
    3340:	46bd      	mov	sp, r7
    3342:	bd80      	pop	{r7, pc}
    3344:	20000678 	.word	0x20000678

00003348 <nrfx_twim_tx>:
    3348:	b580      	push	{r7, lr}
    334a:	b08a      	sub	sp, #40	; 0x28
    334c:	af00      	add	r7, sp, #0
    334e:	60f8      	str	r0, [r7, #12]
    3350:	607a      	str	r2, [r7, #4]
    3352:	603b      	str	r3, [r7, #0]
    3354:	460b      	mov	r3, r1
    3356:	72fb      	strb	r3, [r7, #11]
    3358:	2300      	movs	r3, #0
    335a:	753b      	strb	r3, [r7, #20]
    335c:	7afb      	ldrb	r3, [r7, #11]
    335e:	757b      	strb	r3, [r7, #21]
    3360:	683b      	ldr	r3, [r7, #0]
    3362:	61bb      	str	r3, [r7, #24]
    3364:	2300      	movs	r3, #0
    3366:	61fb      	str	r3, [r7, #28]
    3368:	687b      	ldr	r3, [r7, #4]
    336a:	623b      	str	r3, [r7, #32]
    336c:	2300      	movs	r3, #0
    336e:	627b      	str	r3, [r7, #36]	; 0x24
    3370:	f897 3030 	ldrb.w	r3, [r7, #48]	; 0x30
    3374:	2b00      	cmp	r3, #0
    3376:	d001      	beq.n	337c <nrfx_twim_tx+0x34>
    3378:	2220      	movs	r2, #32
    337a:	e000      	b.n	337e <nrfx_twim_tx+0x36>
    337c:	2200      	movs	r2, #0
    337e:	f107 0314 	add.w	r3, r7, #20
    3382:	4619      	mov	r1, r3
    3384:	68f8      	ldr	r0, [r7, #12]
    3386:	f7ff ffbf 	bl	3308 <nrfx_twim_xfer>
    338a:	4603      	mov	r3, r0
    338c:	4618      	mov	r0, r3
    338e:	3728      	adds	r7, #40	; 0x28
    3390:	46bd      	mov	sp, r7
    3392:	bd80      	pop	{r7, pc}

00003394 <nrfx_twim_rx>:
    3394:	b580      	push	{r7, lr}
    3396:	b08a      	sub	sp, #40	; 0x28
    3398:	af00      	add	r7, sp, #0
    339a:	60f8      	str	r0, [r7, #12]
    339c:	607a      	str	r2, [r7, #4]
    339e:	603b      	str	r3, [r7, #0]
    33a0:	460b      	mov	r3, r1
    33a2:	72fb      	strb	r3, [r7, #11]
    33a4:	2301      	movs	r3, #1
    33a6:	753b      	strb	r3, [r7, #20]
    33a8:	7afb      	ldrb	r3, [r7, #11]
    33aa:	757b      	strb	r3, [r7, #21]
    33ac:	683b      	ldr	r3, [r7, #0]
    33ae:	61bb      	str	r3, [r7, #24]
    33b0:	2300      	movs	r3, #0
    33b2:	61fb      	str	r3, [r7, #28]
    33b4:	687b      	ldr	r3, [r7, #4]
    33b6:	623b      	str	r3, [r7, #32]
    33b8:	2300      	movs	r3, #0
    33ba:	627b      	str	r3, [r7, #36]	; 0x24
    33bc:	f107 0314 	add.w	r3, r7, #20
    33c0:	2200      	movs	r2, #0
    33c2:	4619      	mov	r1, r3
    33c4:	68f8      	ldr	r0, [r7, #12]
    33c6:	f7ff ff9f 	bl	3308 <nrfx_twim_xfer>
    33ca:	4603      	mov	r3, r0
    33cc:	4618      	mov	r0, r3
    33ce:	3728      	adds	r7, #40	; 0x28
    33d0:	46bd      	mov	sp, r7
    33d2:	bd80      	pop	{r7, pc}

000033d4 <twim_irq_handler>:
    33d4:	b5b0      	push	{r4, r5, r7, lr}
    33d6:	b08a      	sub	sp, #40	; 0x28
    33d8:	af00      	add	r7, sp, #0
    33da:	6078      	str	r0, [r7, #4]
    33dc:	6039      	str	r1, [r7, #0]
    33de:	f44f 7192 	mov.w	r1, #292	; 0x124
    33e2:	6878      	ldr	r0, [r7, #4]
    33e4:	f7ff facb 	bl	297e <nrf_twim_event_check>
    33e8:	4603      	mov	r3, r0
    33ea:	2b00      	cmp	r3, #0
    33ec:	d03e      	beq.n	346c <twim_irq_handler+0x98>
    33ee:	f44f 7192 	mov.w	r1, #292	; 0x124
    33f2:	6878      	ldr	r0, [r7, #4]
    33f4:	f7ff faac 	bl	2950 <nrf_twim_event_clear>
    33f8:	f44f 7182 	mov.w	r1, #260	; 0x104
    33fc:	6878      	ldr	r0, [r7, #4]
    33fe:	f7ff fabe 	bl	297e <nrf_twim_event_check>
    3402:	4603      	mov	r3, r0
    3404:	f083 0301 	eor.w	r3, r3, #1
    3408:	b2db      	uxtb	r3, r3
    340a:	2b00      	cmp	r3, #0
    340c:	d02e      	beq.n	346c <twim_irq_handler+0x98>
    340e:	683b      	ldr	r3, [r7, #0]
    3410:	689b      	ldr	r3, [r3, #8]
    3412:	4619      	mov	r1, r3
    3414:	6878      	ldr	r0, [r7, #4]
    3416:	f7ff fad6 	bl	29c6 <nrf_twim_int_disable>
    341a:	683b      	ldr	r3, [r7, #0]
    341c:	2202      	movs	r2, #2
    341e:	609a      	str	r2, [r3, #8]
    3420:	683b      	ldr	r3, [r7, #0]
    3422:	689b      	ldr	r3, [r3, #8]
    3424:	4619      	mov	r1, r3
    3426:	6878      	ldr	r0, [r7, #4]
    3428:	f7ff fabe 	bl	29a8 <nrf_twim_int_enable>
    342c:	f44f 71b0 	mov.w	r1, #352	; 0x160
    3430:	6878      	ldr	r0, [r7, #4]
    3432:	f7ff faa4 	bl	297e <nrf_twim_event_check>
    3436:	4603      	mov	r3, r0
    3438:	f083 0301 	eor.w	r3, r3, #1
    343c:	b2db      	uxtb	r3, r3
    343e:	2b00      	cmp	r3, #0
    3440:	d107      	bne.n	3452 <twim_irq_handler+0x7e>
    3442:	6878      	ldr	r0, [r7, #4]
    3444:	f7ff fb74 	bl	2b30 <nrf_twim_shorts_get>
    3448:	4603      	mov	r3, r0
    344a:	f403 7300 	and.w	r3, r3, #512	; 0x200
    344e:	2b00      	cmp	r3, #0
    3450:	d107      	bne.n	3462 <twim_irq_handler+0x8e>
    3452:	2120      	movs	r1, #32
    3454:	6878      	ldr	r0, [r7, #4]
    3456:	f7ff fa6a 	bl	292e <nrf_twim_task_trigger>
    345a:	2114      	movs	r1, #20
    345c:	6878      	ldr	r0, [r7, #4]
    345e:	f7ff fa66 	bl	292e <nrf_twim_task_trigger>
    3462:	683b      	ldr	r3, [r7, #0]
    3464:	2201      	movs	r2, #1
    3466:	f883 202e 	strb.w	r2, [r3, #46]	; 0x2e
    346a:	e0f4      	b.n	3656 <twim_irq_handler+0x282>
    346c:	f44f 7182 	mov.w	r1, #260	; 0x104
    3470:	6878      	ldr	r0, [r7, #4]
    3472:	f7ff fa84 	bl	297e <nrf_twim_event_check>
    3476:	4603      	mov	r3, r0
    3478:	2b00      	cmp	r3, #0
    347a:	d05e      	beq.n	353a <twim_irq_handler+0x166>
    347c:	f44f 7182 	mov.w	r1, #260	; 0x104
    3480:	6878      	ldr	r0, [r7, #4]
    3482:	f7ff fa65 	bl	2950 <nrf_twim_event_clear>
    3486:	683b      	ldr	r3, [r7, #0]
    3488:	6a1b      	ldr	r3, [r3, #32]
    348a:	f003 0340 	and.w	r3, r3, #64	; 0x40
    348e:	2b00      	cmp	r3, #0
    3490:	d11a      	bne.n	34c8 <twim_irq_handler+0xf4>
    3492:	683b      	ldr	r3, [r7, #0]
    3494:	f893 302e 	ldrb.w	r3, [r3, #46]	; 0x2e
    3498:	f083 0301 	eor.w	r3, r3, #1
    349c:	b2db      	uxtb	r3, r3
    349e:	2b00      	cmp	r3, #0
    34a0:	d012      	beq.n	34c8 <twim_irq_handler+0xf4>
    34a2:	6839      	ldr	r1, [r7, #0]
    34a4:	6878      	ldr	r0, [r7, #4]
    34a6:	f7ff fbf1 	bl	2c8c <xfer_completeness_check>
    34aa:	4603      	mov	r3, r0
    34ac:	2b00      	cmp	r3, #0
    34ae:	bf14      	ite	ne
    34b0:	2301      	movne	r3, #1
    34b2:	2300      	moveq	r3, #0
    34b4:	b2db      	uxtb	r3, r3
    34b6:	f083 0301 	eor.w	r3, r3, #1
    34ba:	b2db      	uxtb	r3, r3
    34bc:	f003 0301 	and.w	r3, r3, #1
    34c0:	b2da      	uxtb	r2, r3
    34c2:	683b      	ldr	r3, [r7, #0]
    34c4:	f883 202e 	strb.w	r2, [r3, #46]	; 0x2e
    34c8:	683b      	ldr	r3, [r7, #0]
    34ca:	6a1b      	ldr	r3, [r3, #32]
    34cc:	f003 0304 	and.w	r3, r3, #4
    34d0:	2b00      	cmp	r3, #0
    34d2:	d17b      	bne.n	35cc <twim_irq_handler+0x1f8>
    34d4:	683b      	ldr	r3, [r7, #0]
    34d6:	f107 0410 	add.w	r4, r7, #16
    34da:	f103 050c 	add.w	r5, r3, #12
    34de:	cd0f      	ldmia	r5!, {r0, r1, r2, r3}
    34e0:	c40f      	stmia	r4!, {r0, r1, r2, r3}
    34e2:	682b      	ldr	r3, [r5, #0]
    34e4:	6023      	str	r3, [r4, #0]
    34e6:	f44f 71b0 	mov.w	r1, #352	; 0x160
    34ea:	6878      	ldr	r0, [r7, #4]
    34ec:	f7ff fa30 	bl	2950 <nrf_twim_event_clear>
    34f0:	f44f 71ae 	mov.w	r1, #348	; 0x15c
    34f4:	6878      	ldr	r0, [r7, #4]
    34f6:	f7ff fa2b 	bl	2950 <nrf_twim_event_clear>
    34fa:	683b      	ldr	r3, [r7, #0]
    34fc:	f893 3030 	ldrb.w	r3, [r3, #48]	; 0x30
    3500:	f083 0301 	eor.w	r3, r3, #1
    3504:	b2db      	uxtb	r3, r3
    3506:	2b00      	cmp	r3, #0
    3508:	d104      	bne.n	3514 <twim_irq_handler+0x140>
    350a:	683b      	ldr	r3, [r7, #0]
    350c:	f893 302e 	ldrb.w	r3, [r3, #46]	; 0x2e
    3510:	2b00      	cmp	r3, #0
    3512:	d05b      	beq.n	35cc <twim_irq_handler+0x1f8>
    3514:	2100      	movs	r1, #0
    3516:	6878      	ldr	r0, [r7, #4]
    3518:	f7ff faee 	bl	2af8 <nrf_twim_shorts_set>
    351c:	683b      	ldr	r3, [r7, #0]
    351e:	2200      	movs	r2, #0
    3520:	609a      	str	r2, [r3, #8]
    3522:	494e      	ldr	r1, [pc, #312]	; (365c <twim_irq_handler+0x288>)
    3524:	6878      	ldr	r0, [r7, #4]
    3526:	f7ff fa4e 	bl	29c6 <nrf_twim_int_disable>
    352a:	6878      	ldr	r0, [r7, #4]
    352c:	f7ff f9c3 	bl	28b6 <nrfx_get_irq_number>
    3530:	4603      	mov	r3, r0
    3532:	4618      	mov	r0, r3
    3534:	f7ff f9ed 	bl	2912 <_NRFX_IRQ_PENDING_CLEAR>
    3538:	e048      	b.n	35cc <twim_irq_handler+0x1f8>
    353a:	f44f 71a4 	mov.w	r1, #328	; 0x148
    353e:	6878      	ldr	r0, [r7, #4]
    3540:	f7ff fa06 	bl	2950 <nrf_twim_event_clear>
    3544:	683b      	ldr	r3, [r7, #0]
    3546:	7b1b      	ldrb	r3, [r3, #12]
    3548:	2b00      	cmp	r3, #0
    354a:	d123      	bne.n	3594 <twim_irq_handler+0x1c0>
    354c:	683b      	ldr	r3, [r7, #0]
    354e:	f107 0410 	add.w	r4, r7, #16
    3552:	f103 050c 	add.w	r5, r3, #12
    3556:	cd0f      	ldmia	r5!, {r0, r1, r2, r3}
    3558:	c40f      	stmia	r4!, {r0, r1, r2, r3}
    355a:	682b      	ldr	r3, [r5, #0]
    355c:	6023      	str	r3, [r4, #0]
    355e:	683b      	ldr	r3, [r7, #0]
    3560:	f893 3030 	ldrb.w	r3, [r3, #48]	; 0x30
    3564:	f083 0301 	eor.w	r3, r3, #1
    3568:	b2db      	uxtb	r3, r3
    356a:	2b00      	cmp	r3, #0
    356c:	d02e      	beq.n	35cc <twim_irq_handler+0x1f8>
    356e:	2100      	movs	r1, #0
    3570:	6878      	ldr	r0, [r7, #4]
    3572:	f7ff fac1 	bl	2af8 <nrf_twim_shorts_set>
    3576:	683b      	ldr	r3, [r7, #0]
    3578:	2200      	movs	r2, #0
    357a:	609a      	str	r2, [r3, #8]
    357c:	4937      	ldr	r1, [pc, #220]	; (365c <twim_irq_handler+0x288>)
    357e:	6878      	ldr	r0, [r7, #4]
    3580:	f7ff fa21 	bl	29c6 <nrf_twim_int_disable>
    3584:	6878      	ldr	r0, [r7, #4]
    3586:	f7ff f996 	bl	28b6 <nrfx_get_irq_number>
    358a:	4603      	mov	r3, r0
    358c:	4618      	mov	r0, r3
    358e:	f7ff f9c0 	bl	2912 <_NRFX_IRQ_PENDING_CLEAR>
    3592:	e01b      	b.n	35cc <twim_irq_handler+0x1f8>
    3594:	f44f 7100 	mov.w	r1, #512	; 0x200
    3598:	6878      	ldr	r0, [r7, #4]
    359a:	f7ff faad 	bl	2af8 <nrf_twim_shorts_set>
    359e:	683b      	ldr	r3, [r7, #0]
    35a0:	f240 2202 	movw	r2, #514	; 0x202
    35a4:	609a      	str	r2, [r3, #8]
    35a6:	492d      	ldr	r1, [pc, #180]	; (365c <twim_irq_handler+0x288>)
    35a8:	6878      	ldr	r0, [r7, #4]
    35aa:	f7ff fa0c 	bl	29c6 <nrf_twim_int_disable>
    35ae:	683b      	ldr	r3, [r7, #0]
    35b0:	689b      	ldr	r3, [r3, #8]
    35b2:	4619      	mov	r1, r3
    35b4:	6878      	ldr	r0, [r7, #4]
    35b6:	f7ff f9f7 	bl	29a8 <nrf_twim_int_enable>
    35ba:	2108      	movs	r1, #8
    35bc:	6878      	ldr	r0, [r7, #4]
    35be:	f7ff f9b6 	bl	292e <nrf_twim_task_trigger>
    35c2:	2120      	movs	r1, #32
    35c4:	6878      	ldr	r0, [r7, #4]
    35c6:	f7ff f9b2 	bl	292e <nrf_twim_task_trigger>
    35ca:	e044      	b.n	3656 <twim_irq_handler+0x282>
    35cc:	6878      	ldr	r0, [r7, #4]
    35ce:	f7ff fa48 	bl	2a62 <nrf_twim_errorsrc_get_and_clear>
    35d2:	6278      	str	r0, [r7, #36]	; 0x24
    35d4:	6a7b      	ldr	r3, [r7, #36]	; 0x24
    35d6:	f003 0302 	and.w	r3, r3, #2
    35da:	2b00      	cmp	r3, #0
    35dc:	d002      	beq.n	35e4 <twim_irq_handler+0x210>
    35de:	2301      	movs	r3, #1
    35e0:	733b      	strb	r3, [r7, #12]
    35e2:	e019      	b.n	3618 <twim_irq_handler+0x244>
    35e4:	6a7b      	ldr	r3, [r7, #36]	; 0x24
    35e6:	f003 0304 	and.w	r3, r3, #4
    35ea:	2b00      	cmp	r3, #0
    35ec:	d002      	beq.n	35f4 <twim_irq_handler+0x220>
    35ee:	2302      	movs	r3, #2
    35f0:	733b      	strb	r3, [r7, #12]
    35f2:	e011      	b.n	3618 <twim_irq_handler+0x244>
    35f4:	6a7b      	ldr	r3, [r7, #36]	; 0x24
    35f6:	f003 0301 	and.w	r3, r3, #1
    35fa:	2b00      	cmp	r3, #0
    35fc:	d002      	beq.n	3604 <twim_irq_handler+0x230>
    35fe:	2303      	movs	r3, #3
    3600:	733b      	strb	r3, [r7, #12]
    3602:	e009      	b.n	3618 <twim_irq_handler+0x244>
    3604:	683b      	ldr	r3, [r7, #0]
    3606:	f893 302e 	ldrb.w	r3, [r3, #46]	; 0x2e
    360a:	2b00      	cmp	r3, #0
    360c:	d002      	beq.n	3614 <twim_irq_handler+0x240>
    360e:	2304      	movs	r3, #4
    3610:	733b      	strb	r3, [r7, #12]
    3612:	e001      	b.n	3618 <twim_irq_handler+0x244>
    3614:	2300      	movs	r3, #0
    3616:	733b      	strb	r3, [r7, #12]
    3618:	683b      	ldr	r3, [r7, #0]
    361a:	f893 3030 	ldrb.w	r3, [r3, #48]	; 0x30
    361e:	f083 0301 	eor.w	r3, r3, #1
    3622:	b2db      	uxtb	r3, r3
    3624:	2b00      	cmp	r3, #0
    3626:	d003      	beq.n	3630 <twim_irq_handler+0x25c>
    3628:	683b      	ldr	r3, [r7, #0]
    362a:	2200      	movs	r2, #0
    362c:	f883 202f 	strb.w	r2, [r3, #47]	; 0x2f
    3630:	683b      	ldr	r3, [r7, #0]
    3632:	6a1b      	ldr	r3, [r3, #32]
    3634:	f003 0304 	and.w	r3, r3, #4
    3638:	2b00      	cmp	r3, #0
    363a:	d004      	beq.n	3646 <twim_irq_handler+0x272>
    363c:	683b      	ldr	r3, [r7, #0]
    363e:	f893 302e 	ldrb.w	r3, [r3, #46]	; 0x2e
    3642:	2b00      	cmp	r3, #0
    3644:	d007      	beq.n	3656 <twim_irq_handler+0x282>
    3646:	683b      	ldr	r3, [r7, #0]
    3648:	681b      	ldr	r3, [r3, #0]
    364a:	683a      	ldr	r2, [r7, #0]
    364c:	6851      	ldr	r1, [r2, #4]
    364e:	f107 020c 	add.w	r2, r7, #12
    3652:	4610      	mov	r0, r2
    3654:	4798      	blx	r3
    3656:	3728      	adds	r7, #40	; 0x28
    3658:	46bd      	mov	sp, r7
    365a:	bdb0      	pop	{r4, r5, r7, pc}
    365c:	019c0202 	.word	0x019c0202

00003660 <SPIM0_SPIS0_TWIM0_TWIS0_SPI0_TWI0_IRQHandler>:
    3660:	b580      	push	{r7, lr}
    3662:	af00      	add	r7, sp, #0
    3664:	4902      	ldr	r1, [pc, #8]	; (3670 <SPIM0_SPIS0_TWIM0_TWIS0_SPI0_TWI0_IRQHandler+0x10>)
    3666:	4803      	ldr	r0, [pc, #12]	; (3674 <SPIM0_SPIS0_TWIM0_TWIS0_SPI0_TWI0_IRQHandler+0x14>)
    3668:	f7ff feb4 	bl	33d4 <twim_irq_handler>
    366c:	bf00      	nop
    366e:	bd80      	pop	{r7, pc}
    3670:	20000678 	.word	0x20000678
    3674:	40003000 	.word	0x40003000

00003678 <__NVIC_EnableIRQ>:
    3678:	b480      	push	{r7}
    367a:	b083      	sub	sp, #12
    367c:	af00      	add	r7, sp, #0
    367e:	4603      	mov	r3, r0
    3680:	71fb      	strb	r3, [r7, #7]
    3682:	f997 3007 	ldrsb.w	r3, [r7, #7]
    3686:	2b00      	cmp	r3, #0
    3688:	db0b      	blt.n	36a2 <__NVIC_EnableIRQ+0x2a>
    368a:	79fb      	ldrb	r3, [r7, #7]
    368c:	f003 021f 	and.w	r2, r3, #31
    3690:	4907      	ldr	r1, [pc, #28]	; (36b0 <__NVIC_EnableIRQ+0x38>)
    3692:	f997 3007 	ldrsb.w	r3, [r7, #7]
    3696:	095b      	lsrs	r3, r3, #5
    3698:	2001      	movs	r0, #1
    369a:	fa00 f202 	lsl.w	r2, r0, r2
    369e:	f841 2023 	str.w	r2, [r1, r3, lsl #2]
    36a2:	bf00      	nop
    36a4:	370c      	adds	r7, #12
    36a6:	46bd      	mov	sp, r7
    36a8:	f85d 7b04 	ldr.w	r7, [sp], #4
    36ac:	4770      	bx	lr
    36ae:	bf00      	nop
    36b0:	e000e100 	.word	0xe000e100

000036b4 <__NVIC_DisableIRQ>:
    36b4:	b480      	push	{r7}
    36b6:	b083      	sub	sp, #12
    36b8:	af00      	add	r7, sp, #0
    36ba:	4603      	mov	r3, r0
    36bc:	71fb      	strb	r3, [r7, #7]
    36be:	f997 3007 	ldrsb.w	r3, [r7, #7]
    36c2:	2b00      	cmp	r3, #0
    36c4:	db12      	blt.n	36ec <__NVIC_DisableIRQ+0x38>
    36c6:	79fb      	ldrb	r3, [r7, #7]
    36c8:	f003 021f 	and.w	r2, r3, #31
    36cc:	490a      	ldr	r1, [pc, #40]	; (36f8 <__NVIC_DisableIRQ+0x44>)
    36ce:	f997 3007 	ldrsb.w	r3, [r7, #7]
    36d2:	095b      	lsrs	r3, r3, #5
    36d4:	2001      	movs	r0, #1
    36d6:	fa00 f202 	lsl.w	r2, r0, r2
    36da:	3320      	adds	r3, #32
    36dc:	f841 2023 	str.w	r2, [r1, r3, lsl #2]
    36e0:	f3bf 8f4f 	dsb	sy
    36e4:	bf00      	nop
    36e6:	f3bf 8f6f 	isb	sy
    36ea:	bf00      	nop
    36ec:	bf00      	nop
    36ee:	370c      	adds	r7, #12
    36f0:	46bd      	mov	sp, r7
    36f2:	f85d 7b04 	ldr.w	r7, [sp], #4
    36f6:	4770      	bx	lr
    36f8:	e000e100 	.word	0xe000e100

000036fc <__NVIC_SetPriority>:
    36fc:	b480      	push	{r7}
    36fe:	b083      	sub	sp, #12
    3700:	af00      	add	r7, sp, #0
    3702:	4603      	mov	r3, r0
    3704:	6039      	str	r1, [r7, #0]
    3706:	71fb      	strb	r3, [r7, #7]
    3708:	f997 3007 	ldrsb.w	r3, [r7, #7]
    370c:	2b00      	cmp	r3, #0
    370e:	db0a      	blt.n	3726 <__NVIC_SetPriority+0x2a>
    3710:	683b      	ldr	r3, [r7, #0]
    3712:	b2da      	uxtb	r2, r3
    3714:	490c      	ldr	r1, [pc, #48]	; (3748 <__NVIC_SetPriority+0x4c>)
    3716:	f997 3007 	ldrsb.w	r3, [r7, #7]
    371a:	0152      	lsls	r2, r2, #5
    371c:	b2d2      	uxtb	r2, r2
    371e:	440b      	add	r3, r1
    3720:	f883 2300 	strb.w	r2, [r3, #768]	; 0x300
    3724:	e00a      	b.n	373c <__NVIC_SetPriority+0x40>
    3726:	683b      	ldr	r3, [r7, #0]
    3728:	b2da      	uxtb	r2, r3
    372a:	4908      	ldr	r1, [pc, #32]	; (374c <__NVIC_SetPriority+0x50>)
    372c:	79fb      	ldrb	r3, [r7, #7]
    372e:	f003 030f 	and.w	r3, r3, #15
    3732:	3b04      	subs	r3, #4
    3734:	0152      	lsls	r2, r2, #5
    3736:	b2d2      	uxtb	r2, r2
    3738:	440b      	add	r3, r1
    373a:	761a      	strb	r2, [r3, #24]
    373c:	bf00      	nop
    373e:	370c      	adds	r7, #12
    3740:	46bd      	mov	sp, r7
    3742:	f85d 7b04 	ldr.w	r7, [sp], #4
    3746:	4770      	bx	lr
    3748:	e000e100 	.word	0xe000e100
    374c:	e000ed00 	.word	0xe000ed00

00003750 <nrfx_get_irq_number>:
    3750:	b480      	push	{r7}
    3752:	b083      	sub	sp, #12
    3754:	af00      	add	r7, sp, #0
    3756:	6078      	str	r0, [r7, #4]
    3758:	687b      	ldr	r3, [r7, #4]
    375a:	0b1b      	lsrs	r3, r3, #12
    375c:	b25b      	sxtb	r3, r3
    375e:	4618      	mov	r0, r3
    3760:	370c      	adds	r7, #12
    3762:	46bd      	mov	sp, r7
    3764:	f85d 7b04 	ldr.w	r7, [sp], #4
    3768:	4770      	bx	lr

0000376a <_NRFX_IRQ_PRIORITY_SET>:
    376a:	b580      	push	{r7, lr}
    376c:	b082      	sub	sp, #8
    376e:	af00      	add	r7, sp, #0
    3770:	4603      	mov	r3, r0
    3772:	460a      	mov	r2, r1
    3774:	71fb      	strb	r3, [r7, #7]
    3776:	4613      	mov	r3, r2
    3778:	71bb      	strb	r3, [r7, #6]
    377a:	79ba      	ldrb	r2, [r7, #6]
    377c:	f997 3007 	ldrsb.w	r3, [r7, #7]
    3780:	4611      	mov	r1, r2
    3782:	4618      	mov	r0, r3
    3784:	f7ff ffba 	bl	36fc <__NVIC_SetPriority>
    3788:	bf00      	nop
    378a:	3708      	adds	r7, #8
    378c:	46bd      	mov	sp, r7
    378e:	bd80      	pop	{r7, pc}

00003790 <_NRFX_IRQ_ENABLE>:
    3790:	b580      	push	{r7, lr}
    3792:	b082      	sub	sp, #8
    3794:	af00      	add	r7, sp, #0
    3796:	4603      	mov	r3, r0
    3798:	71fb      	strb	r3, [r7, #7]
    379a:	f997 3007 	ldrsb.w	r3, [r7, #7]
    379e:	4618      	mov	r0, r3
    37a0:	f7ff ff6a 	bl	3678 <__NVIC_EnableIRQ>
    37a4:	bf00      	nop
    37a6:	3708      	adds	r7, #8
    37a8:	46bd      	mov	sp, r7
    37aa:	bd80      	pop	{r7, pc}

000037ac <_NRFX_IRQ_DISABLE>:
    37ac:	b580      	push	{r7, lr}
    37ae:	b082      	sub	sp, #8
    37b0:	af00      	add	r7, sp, #0
    37b2:	4603      	mov	r3, r0
    37b4:	71fb      	strb	r3, [r7, #7]
    37b6:	f997 3007 	ldrsb.w	r3, [r7, #7]
    37ba:	4618      	mov	r0, r3
    37bc:	f7ff ff7a 	bl	36b4 <__NVIC_DisableIRQ>
    37c0:	bf00      	nop
    37c2:	3708      	adds	r7, #8
    37c4:	46bd      	mov	sp, r7
    37c6:	bd80      	pop	{r7, pc}

000037c8 <nrf_uart_event_clear>:
    37c8:	b480      	push	{r7}
    37ca:	b085      	sub	sp, #20
    37cc:	af00      	add	r7, sp, #0
    37ce:	6078      	str	r0, [r7, #4]
    37d0:	460b      	mov	r3, r1
    37d2:	807b      	strh	r3, [r7, #2]
    37d4:	887b      	ldrh	r3, [r7, #2]
    37d6:	687a      	ldr	r2, [r7, #4]
    37d8:	4413      	add	r3, r2
    37da:	2200      	movs	r2, #0
    37dc:	601a      	str	r2, [r3, #0]
    37de:	887b      	ldrh	r3, [r7, #2]
    37e0:	687a      	ldr	r2, [r7, #4]
    37e2:	4413      	add	r3, r2
    37e4:	681b      	ldr	r3, [r3, #0]
    37e6:	60fb      	str	r3, [r7, #12]
    37e8:	68fb      	ldr	r3, [r7, #12]
    37ea:	bf00      	nop
    37ec:	3714      	adds	r7, #20
    37ee:	46bd      	mov	sp, r7
    37f0:	f85d 7b04 	ldr.w	r7, [sp], #4
    37f4:	4770      	bx	lr

000037f6 <nrf_uart_event_check>:
    37f6:	b480      	push	{r7}
    37f8:	b083      	sub	sp, #12
    37fa:	af00      	add	r7, sp, #0
    37fc:	6078      	str	r0, [r7, #4]
    37fe:	460b      	mov	r3, r1
    3800:	807b      	strh	r3, [r7, #2]
    3802:	887b      	ldrh	r3, [r7, #2]
    3804:	687a      	ldr	r2, [r7, #4]
    3806:	4413      	add	r3, r2
    3808:	681b      	ldr	r3, [r3, #0]
    380a:	2b00      	cmp	r3, #0
    380c:	bf14      	ite	ne
    380e:	2301      	movne	r3, #1
    3810:	2300      	moveq	r3, #0
    3812:	b2db      	uxtb	r3, r3
    3814:	4618      	mov	r0, r3
    3816:	370c      	adds	r7, #12
    3818:	46bd      	mov	sp, r7
    381a:	f85d 7b04 	ldr.w	r7, [sp], #4
    381e:	4770      	bx	lr

00003820 <nrf_uart_int_enable>:
    3820:	b480      	push	{r7}
    3822:	b083      	sub	sp, #12
    3824:	af00      	add	r7, sp, #0
    3826:	6078      	str	r0, [r7, #4]
    3828:	6039      	str	r1, [r7, #0]
    382a:	687b      	ldr	r3, [r7, #4]
    382c:	683a      	ldr	r2, [r7, #0]
    382e:	f8c3 2304 	str.w	r2, [r3, #772]	; 0x304
    3832:	bf00      	nop
    3834:	370c      	adds	r7, #12
    3836:	46bd      	mov	sp, r7
    3838:	f85d 7b04 	ldr.w	r7, [sp], #4
    383c:	4770      	bx	lr

0000383e <nrf_uart_int_enable_check>:
    383e:	b480      	push	{r7}
    3840:	b083      	sub	sp, #12
    3842:	af00      	add	r7, sp, #0
    3844:	6078      	str	r0, [r7, #4]
    3846:	6039      	str	r1, [r7, #0]
    3848:	687b      	ldr	r3, [r7, #4]
    384a:	f8d3 2304 	ldr.w	r2, [r3, #772]	; 0x304
    384e:	683b      	ldr	r3, [r7, #0]
    3850:	4013      	ands	r3, r2
    3852:	2b00      	cmp	r3, #0
    3854:	bf14      	ite	ne
    3856:	2301      	movne	r3, #1
    3858:	2300      	moveq	r3, #0
    385a:	b2db      	uxtb	r3, r3
    385c:	4618      	mov	r0, r3
    385e:	370c      	adds	r7, #12
    3860:	46bd      	mov	sp, r7
    3862:	f85d 7b04 	ldr.w	r7, [sp], #4
    3866:	4770      	bx	lr

00003868 <nrf_uart_int_disable>:
    3868:	b480      	push	{r7}
    386a:	b083      	sub	sp, #12
    386c:	af00      	add	r7, sp, #0
    386e:	6078      	str	r0, [r7, #4]
    3870:	6039      	str	r1, [r7, #0]
    3872:	687b      	ldr	r3, [r7, #4]
    3874:	683a      	ldr	r2, [r7, #0]
    3876:	f8c3 2308 	str.w	r2, [r3, #776]	; 0x308
    387a:	bf00      	nop
    387c:	370c      	adds	r7, #12
    387e:	46bd      	mov	sp, r7
    3880:	f85d 7b04 	ldr.w	r7, [sp], #4
    3884:	4770      	bx	lr

00003886 <nrf_uart_errorsrc_get_and_clear>:
    3886:	b480      	push	{r7}
    3888:	b085      	sub	sp, #20
    388a:	af00      	add	r7, sp, #0
    388c:	6078      	str	r0, [r7, #4]
    388e:	687b      	ldr	r3, [r7, #4]
    3890:	f8d3 3480 	ldr.w	r3, [r3, #1152]	; 0x480
    3894:	60fb      	str	r3, [r7, #12]
    3896:	687b      	ldr	r3, [r7, #4]
    3898:	68fa      	ldr	r2, [r7, #12]
    389a:	f8c3 2480 	str.w	r2, [r3, #1152]	; 0x480
    389e:	68fb      	ldr	r3, [r7, #12]
    38a0:	4618      	mov	r0, r3
    38a2:	3714      	adds	r7, #20
    38a4:	46bd      	mov	sp, r7
    38a6:	f85d 7b04 	ldr.w	r7, [sp], #4
    38aa:	4770      	bx	lr

000038ac <nrf_uart_enable>:
    38ac:	b480      	push	{r7}
    38ae:	b083      	sub	sp, #12
    38b0:	af00      	add	r7, sp, #0
    38b2:	6078      	str	r0, [r7, #4]
    38b4:	687b      	ldr	r3, [r7, #4]
    38b6:	2204      	movs	r2, #4
    38b8:	f8c3 2500 	str.w	r2, [r3, #1280]	; 0x500
    38bc:	bf00      	nop
    38be:	370c      	adds	r7, #12
    38c0:	46bd      	mov	sp, r7
    38c2:	f85d 7b04 	ldr.w	r7, [sp], #4
    38c6:	4770      	bx	lr

000038c8 <nrf_uart_disable>:
    38c8:	b480      	push	{r7}
    38ca:	b083      	sub	sp, #12
    38cc:	af00      	add	r7, sp, #0
    38ce:	6078      	str	r0, [r7, #4]
    38d0:	687b      	ldr	r3, [r7, #4]
    38d2:	2200      	movs	r2, #0
    38d4:	f8c3 2500 	str.w	r2, [r3, #1280]	; 0x500
    38d8:	bf00      	nop
    38da:	370c      	adds	r7, #12
    38dc:	46bd      	mov	sp, r7
    38de:	f85d 7b04 	ldr.w	r7, [sp], #4
    38e2:	4770      	bx	lr

000038e4 <nrf_uart_txrx_pins_set>:
    38e4:	b480      	push	{r7}
    38e6:	b085      	sub	sp, #20
    38e8:	af00      	add	r7, sp, #0
    38ea:	60f8      	str	r0, [r7, #12]
    38ec:	60b9      	str	r1, [r7, #8]
    38ee:	607a      	str	r2, [r7, #4]
    38f0:	68fb      	ldr	r3, [r7, #12]
    38f2:	687a      	ldr	r2, [r7, #4]
    38f4:	f8c3 2514 	str.w	r2, [r3, #1300]	; 0x514
    38f8:	68fb      	ldr	r3, [r7, #12]
    38fa:	68ba      	ldr	r2, [r7, #8]
    38fc:	f8c3 250c 	str.w	r2, [r3, #1292]	; 0x50c
    3900:	bf00      	nop
    3902:	3714      	adds	r7, #20
    3904:	46bd      	mov	sp, r7
    3906:	f85d 7b04 	ldr.w	r7, [sp], #4
    390a:	4770      	bx	lr

0000390c <nrf_uart_txrx_pins_disconnect>:
    390c:	b580      	push	{r7, lr}
    390e:	b082      	sub	sp, #8
    3910:	af00      	add	r7, sp, #0
    3912:	6078      	str	r0, [r7, #4]
    3914:	f04f 32ff 	mov.w	r2, #4294967295	; 0xffffffff
    3918:	f04f 31ff 	mov.w	r1, #4294967295	; 0xffffffff
    391c:	6878      	ldr	r0, [r7, #4]
    391e:	f7ff ffe1 	bl	38e4 <nrf_uart_txrx_pins_set>
    3922:	bf00      	nop
    3924:	3708      	adds	r7, #8
    3926:	46bd      	mov	sp, r7
    3928:	bd80      	pop	{r7, pc}

0000392a <nrf_uart_tx_pin_get>:
    392a:	b480      	push	{r7}
    392c:	b083      	sub	sp, #12
    392e:	af00      	add	r7, sp, #0
    3930:	6078      	str	r0, [r7, #4]
    3932:	687b      	ldr	r3, [r7, #4]
    3934:	f8d3 350c 	ldr.w	r3, [r3, #1292]	; 0x50c
    3938:	4618      	mov	r0, r3
    393a:	370c      	adds	r7, #12
    393c:	46bd      	mov	sp, r7
    393e:	f85d 7b04 	ldr.w	r7, [sp], #4
    3942:	4770      	bx	lr

00003944 <nrf_uart_rx_pin_get>:
    3944:	b480      	push	{r7}
    3946:	b083      	sub	sp, #12
    3948:	af00      	add	r7, sp, #0
    394a:	6078      	str	r0, [r7, #4]
    394c:	687b      	ldr	r3, [r7, #4]
    394e:	f8d3 3514 	ldr.w	r3, [r3, #1300]	; 0x514
    3952:	4618      	mov	r0, r3
    3954:	370c      	adds	r7, #12
    3956:	46bd      	mov	sp, r7
    3958:	f85d 7b04 	ldr.w	r7, [sp], #4
    395c:	4770      	bx	lr

0000395e <nrf_uart_rts_pin_get>:
    395e:	b480      	push	{r7}
    3960:	b083      	sub	sp, #12
    3962:	af00      	add	r7, sp, #0
    3964:	6078      	str	r0, [r7, #4]
    3966:	687b      	ldr	r3, [r7, #4]
    3968:	f8d3 3508 	ldr.w	r3, [r3, #1288]	; 0x508
    396c:	4618      	mov	r0, r3
    396e:	370c      	adds	r7, #12
    3970:	46bd      	mov	sp, r7
    3972:	f85d 7b04 	ldr.w	r7, [sp], #4
    3976:	4770      	bx	lr

00003978 <nrf_uart_cts_pin_get>:
    3978:	b480      	push	{r7}
    397a:	b083      	sub	sp, #12
    397c:	af00      	add	r7, sp, #0
    397e:	6078      	str	r0, [r7, #4]
    3980:	687b      	ldr	r3, [r7, #4]
    3982:	f8d3 3510 	ldr.w	r3, [r3, #1296]	; 0x510
    3986:	4618      	mov	r0, r3
    3988:	370c      	adds	r7, #12
    398a:	46bd      	mov	sp, r7
    398c:	f85d 7b04 	ldr.w	r7, [sp], #4
    3990:	4770      	bx	lr

00003992 <nrf_uart_hwfc_pins_set>:
    3992:	b480      	push	{r7}
    3994:	b085      	sub	sp, #20
    3996:	af00      	add	r7, sp, #0
    3998:	60f8      	str	r0, [r7, #12]
    399a:	60b9      	str	r1, [r7, #8]
    399c:	607a      	str	r2, [r7, #4]
    399e:	68fb      	ldr	r3, [r7, #12]
    39a0:	68ba      	ldr	r2, [r7, #8]
    39a2:	f8c3 2508 	str.w	r2, [r3, #1288]	; 0x508
    39a6:	68fb      	ldr	r3, [r7, #12]
    39a8:	687a      	ldr	r2, [r7, #4]
    39aa:	f8c3 2510 	str.w	r2, [r3, #1296]	; 0x510
    39ae:	bf00      	nop
    39b0:	3714      	adds	r7, #20
    39b2:	46bd      	mov	sp, r7
    39b4:	f85d 7b04 	ldr.w	r7, [sp], #4
    39b8:	4770      	bx	lr

000039ba <nrf_uart_hwfc_pins_disconnect>:
    39ba:	b580      	push	{r7, lr}
    39bc:	b082      	sub	sp, #8
    39be:	af00      	add	r7, sp, #0
    39c0:	6078      	str	r0, [r7, #4]
    39c2:	f04f 32ff 	mov.w	r2, #4294967295	; 0xffffffff
    39c6:	f04f 31ff 	mov.w	r1, #4294967295	; 0xffffffff
    39ca:	6878      	ldr	r0, [r7, #4]
    39cc:	f7ff ffe1 	bl	3992 <nrf_uart_hwfc_pins_set>
    39d0:	bf00      	nop
    39d2:	3708      	adds	r7, #8
    39d4:	46bd      	mov	sp, r7
    39d6:	bd80      	pop	{r7, pc}

000039d8 <nrf_uart_rxd_get>:
    39d8:	b480      	push	{r7}
    39da:	b083      	sub	sp, #12
    39dc:	af00      	add	r7, sp, #0
    39de:	6078      	str	r0, [r7, #4]
    39e0:	687b      	ldr	r3, [r7, #4]
    39e2:	f8d3 3518 	ldr.w	r3, [r3, #1304]	; 0x518
    39e6:	b2db      	uxtb	r3, r3
    39e8:	4618      	mov	r0, r3
    39ea:	370c      	adds	r7, #12
    39ec:	46bd      	mov	sp, r7
    39ee:	f85d 7b04 	ldr.w	r7, [sp], #4
    39f2:	4770      	bx	lr

000039f4 <nrf_uart_txd_set>:
    39f4:	b480      	push	{r7}
    39f6:	b083      	sub	sp, #12
    39f8:	af00      	add	r7, sp, #0
    39fa:	6078      	str	r0, [r7, #4]
    39fc:	460b      	mov	r3, r1
    39fe:	70fb      	strb	r3, [r7, #3]
    3a00:	78fa      	ldrb	r2, [r7, #3]
    3a02:	687b      	ldr	r3, [r7, #4]
    3a04:	f8c3 251c 	str.w	r2, [r3, #1308]	; 0x51c
    3a08:	bf00      	nop
    3a0a:	370c      	adds	r7, #12
    3a0c:	46bd      	mov	sp, r7
    3a0e:	f85d 7b04 	ldr.w	r7, [sp], #4
    3a12:	4770      	bx	lr

00003a14 <nrf_uart_task_trigger>:
    3a14:	b480      	push	{r7}
    3a16:	b083      	sub	sp, #12
    3a18:	af00      	add	r7, sp, #0
    3a1a:	6078      	str	r0, [r7, #4]
    3a1c:	460b      	mov	r3, r1
    3a1e:	70fb      	strb	r3, [r7, #3]
    3a20:	78fb      	ldrb	r3, [r7, #3]
    3a22:	687a      	ldr	r2, [r7, #4]
    3a24:	4413      	add	r3, r2
    3a26:	2201      	movs	r2, #1
    3a28:	601a      	str	r2, [r3, #0]
    3a2a:	bf00      	nop
    3a2c:	370c      	adds	r7, #12
    3a2e:	46bd      	mov	sp, r7
    3a30:	f85d 7b04 	ldr.w	r7, [sp], #4
    3a34:	4770      	bx	lr

00003a36 <nrf_uart_configure>:
    3a36:	b480      	push	{r7}
    3a38:	b083      	sub	sp, #12
    3a3a:	af00      	add	r7, sp, #0
    3a3c:	6078      	str	r0, [r7, #4]
    3a3e:	460b      	mov	r3, r1
    3a40:	70fb      	strb	r3, [r7, #3]
    3a42:	4613      	mov	r3, r2
    3a44:	70bb      	strb	r3, [r7, #2]
    3a46:	78fa      	ldrb	r2, [r7, #3]
    3a48:	78bb      	ldrb	r3, [r7, #2]
    3a4a:	4313      	orrs	r3, r2
    3a4c:	b2db      	uxtb	r3, r3
    3a4e:	461a      	mov	r2, r3
    3a50:	687b      	ldr	r3, [r7, #4]
    3a52:	f8c3 256c 	str.w	r2, [r3, #1388]	; 0x56c
    3a56:	bf00      	nop
    3a58:	370c      	adds	r7, #12
    3a5a:	46bd      	mov	sp, r7
    3a5c:	f85d 7b04 	ldr.w	r7, [sp], #4
    3a60:	4770      	bx	lr

00003a62 <nrf_uart_baudrate_set>:
    3a62:	b480      	push	{r7}
    3a64:	b083      	sub	sp, #12
    3a66:	af00      	add	r7, sp, #0
    3a68:	6078      	str	r0, [r7, #4]
    3a6a:	6039      	str	r1, [r7, #0]
    3a6c:	687b      	ldr	r3, [r7, #4]
    3a6e:	683a      	ldr	r2, [r7, #0]
    3a70:	f8c3 2524 	str.w	r2, [r3, #1316]	; 0x524
    3a74:	bf00      	nop
    3a76:	370c      	adds	r7, #12
    3a78:	46bd      	mov	sp, r7
    3a7a:	f85d 7b04 	ldr.w	r7, [sp], #4
    3a7e:	4770      	bx	lr

00003a80 <nrf_gpio_pin_port_decode>:
    3a80:	b480      	push	{r7}
    3a82:	b083      	sub	sp, #12
    3a84:	af00      	add	r7, sp, #0
    3a86:	6078      	str	r0, [r7, #4]
    3a88:	f04f 43a0 	mov.w	r3, #1342177280	; 0x50000000
    3a8c:	4618      	mov	r0, r3
    3a8e:	370c      	adds	r7, #12
    3a90:	46bd      	mov	sp, r7
    3a92:	f85d 7b04 	ldr.w	r7, [sp], #4
    3a96:	4770      	bx	lr

00003a98 <nrf_gpio_cfg>:
    3a98:	b580      	push	{r7, lr}
    3a9a:	b084      	sub	sp, #16
    3a9c:	af00      	add	r7, sp, #0
    3a9e:	6078      	str	r0, [r7, #4]
    3aa0:	4608      	mov	r0, r1
    3aa2:	4611      	mov	r1, r2
    3aa4:	461a      	mov	r2, r3
    3aa6:	4603      	mov	r3, r0
    3aa8:	70fb      	strb	r3, [r7, #3]
    3aaa:	460b      	mov	r3, r1
    3aac:	70bb      	strb	r3, [r7, #2]
    3aae:	4613      	mov	r3, r2
    3ab0:	707b      	strb	r3, [r7, #1]
    3ab2:	1d3b      	adds	r3, r7, #4
    3ab4:	4618      	mov	r0, r3
    3ab6:	f7ff ffe3 	bl	3a80 <nrf_gpio_pin_port_decode>
    3aba:	60f8      	str	r0, [r7, #12]
    3abc:	78fa      	ldrb	r2, [r7, #3]
    3abe:	78bb      	ldrb	r3, [r7, #2]
    3ac0:	005b      	lsls	r3, r3, #1
    3ac2:	431a      	orrs	r2, r3
    3ac4:	787b      	ldrb	r3, [r7, #1]
    3ac6:	009b      	lsls	r3, r3, #2
    3ac8:	431a      	orrs	r2, r3
    3aca:	7e3b      	ldrb	r3, [r7, #24]
    3acc:	021b      	lsls	r3, r3, #8
    3ace:	ea42 0103 	orr.w	r1, r2, r3
    3ad2:	7f3b      	ldrb	r3, [r7, #28]
    3ad4:	041b      	lsls	r3, r3, #16
    3ad6:	687a      	ldr	r2, [r7, #4]
    3ad8:	4319      	orrs	r1, r3
    3ada:	68fb      	ldr	r3, [r7, #12]
    3adc:	f502 72e0 	add.w	r2, r2, #448	; 0x1c0
    3ae0:	f843 1022 	str.w	r1, [r3, r2, lsl #2]
    3ae4:	bf00      	nop
    3ae6:	3710      	adds	r7, #16
    3ae8:	46bd      	mov	sp, r7
    3aea:	bd80      	pop	{r7, pc}

00003aec <nrf_gpio_cfg_output>:
    3aec:	b580      	push	{r7, lr}
    3aee:	b084      	sub	sp, #16
    3af0:	af02      	add	r7, sp, #8
    3af2:	6078      	str	r0, [r7, #4]
    3af4:	2300      	movs	r3, #0
    3af6:	9301      	str	r3, [sp, #4]
    3af8:	2300      	movs	r3, #0
    3afa:	9300      	str	r3, [sp, #0]
    3afc:	2300      	movs	r3, #0
    3afe:	2201      	movs	r2, #1
    3b00:	2101      	movs	r1, #1
    3b02:	6878      	ldr	r0, [r7, #4]
    3b04:	f7ff ffc8 	bl	3a98 <nrf_gpio_cfg>
    3b08:	bf00      	nop
    3b0a:	3708      	adds	r7, #8
    3b0c:	46bd      	mov	sp, r7
    3b0e:	bd80      	pop	{r7, pc}

00003b10 <nrf_gpio_cfg_input>:
    3b10:	b580      	push	{r7, lr}
    3b12:	b084      	sub	sp, #16
    3b14:	af02      	add	r7, sp, #8
    3b16:	6078      	str	r0, [r7, #4]
    3b18:	460b      	mov	r3, r1
    3b1a:	70fb      	strb	r3, [r7, #3]
    3b1c:	78fb      	ldrb	r3, [r7, #3]
    3b1e:	2200      	movs	r2, #0
    3b20:	9201      	str	r2, [sp, #4]
    3b22:	2200      	movs	r2, #0
    3b24:	9200      	str	r2, [sp, #0]
    3b26:	2200      	movs	r2, #0
    3b28:	2100      	movs	r1, #0
    3b2a:	6878      	ldr	r0, [r7, #4]
    3b2c:	f7ff ffb4 	bl	3a98 <nrf_gpio_cfg>
    3b30:	bf00      	nop
    3b32:	3708      	adds	r7, #8
    3b34:	46bd      	mov	sp, r7
    3b36:	bd80      	pop	{r7, pc}

00003b38 <nrf_gpio_cfg_default>:
    3b38:	b580      	push	{r7, lr}
    3b3a:	b084      	sub	sp, #16
    3b3c:	af02      	add	r7, sp, #8
    3b3e:	6078      	str	r0, [r7, #4]
    3b40:	2300      	movs	r3, #0
    3b42:	9301      	str	r3, [sp, #4]
    3b44:	2300      	movs	r3, #0
    3b46:	9300      	str	r3, [sp, #0]
    3b48:	2300      	movs	r3, #0
    3b4a:	2201      	movs	r2, #1
    3b4c:	2100      	movs	r1, #0
    3b4e:	6878      	ldr	r0, [r7, #4]
    3b50:	f7ff ffa2 	bl	3a98 <nrf_gpio_cfg>
    3b54:	bf00      	nop
    3b56:	3708      	adds	r7, #8
    3b58:	46bd      	mov	sp, r7
    3b5a:	bd80      	pop	{r7, pc}

00003b5c <nrf_gpio_pin_set>:
    3b5c:	b580      	push	{r7, lr}
    3b5e:	b084      	sub	sp, #16
    3b60:	af00      	add	r7, sp, #0
    3b62:	6078      	str	r0, [r7, #4]
    3b64:	1d3b      	adds	r3, r7, #4
    3b66:	4618      	mov	r0, r3
    3b68:	f7ff ff8a 	bl	3a80 <nrf_gpio_pin_port_decode>
    3b6c:	60f8      	str	r0, [r7, #12]
    3b6e:	687b      	ldr	r3, [r7, #4]
    3b70:	2201      	movs	r2, #1
    3b72:	fa02 f303 	lsl.w	r3, r2, r3
    3b76:	4619      	mov	r1, r3
    3b78:	68f8      	ldr	r0, [r7, #12]
    3b7a:	f000 f804 	bl	3b86 <nrf_gpio_port_out_set>
    3b7e:	bf00      	nop
    3b80:	3710      	adds	r7, #16
    3b82:	46bd      	mov	sp, r7
    3b84:	bd80      	pop	{r7, pc}

00003b86 <nrf_gpio_port_out_set>:
    3b86:	b480      	push	{r7}
    3b88:	b083      	sub	sp, #12
    3b8a:	af00      	add	r7, sp, #0
    3b8c:	6078      	str	r0, [r7, #4]
    3b8e:	6039      	str	r1, [r7, #0]
    3b90:	687b      	ldr	r3, [r7, #4]
    3b92:	683a      	ldr	r2, [r7, #0]
    3b94:	f8c3 2508 	str.w	r2, [r3, #1288]	; 0x508
    3b98:	bf00      	nop
    3b9a:	370c      	adds	r7, #12
    3b9c:	46bd      	mov	sp, r7
    3b9e:	f85d 7b04 	ldr.w	r7, [sp], #4
    3ba2:	4770      	bx	lr

00003ba4 <apply_config>:
    3ba4:	b580      	push	{r7, lr}
    3ba6:	b082      	sub	sp, #8
    3ba8:	af00      	add	r7, sp, #0
    3baa:	6078      	str	r0, [r7, #4]
    3bac:	6039      	str	r1, [r7, #0]
    3bae:	683b      	ldr	r3, [r7, #0]
    3bb0:	681b      	ldr	r3, [r3, #0]
    3bb2:	f1b3 3fff 	cmp.w	r3, #4294967295	; 0xffffffff
    3bb6:	d009      	beq.n	3bcc <apply_config+0x28>
    3bb8:	683b      	ldr	r3, [r7, #0]
    3bba:	681b      	ldr	r3, [r3, #0]
    3bbc:	4618      	mov	r0, r3
    3bbe:	f7ff ffcd 	bl	3b5c <nrf_gpio_pin_set>
    3bc2:	683b      	ldr	r3, [r7, #0]
    3bc4:	681b      	ldr	r3, [r3, #0]
    3bc6:	4618      	mov	r0, r3
    3bc8:	f7ff ff90 	bl	3aec <nrf_gpio_cfg_output>
    3bcc:	683b      	ldr	r3, [r7, #0]
    3bce:	685b      	ldr	r3, [r3, #4]
    3bd0:	f1b3 3fff 	cmp.w	r3, #4294967295	; 0xffffffff
    3bd4:	d005      	beq.n	3be2 <apply_config+0x3e>
    3bd6:	683b      	ldr	r3, [r7, #0]
    3bd8:	685b      	ldr	r3, [r3, #4]
    3bda:	2100      	movs	r1, #0
    3bdc:	4618      	mov	r0, r3
    3bde:	f7ff ff97 	bl	3b10 <nrf_gpio_cfg_input>
    3be2:	687b      	ldr	r3, [r7, #4]
    3be4:	681a      	ldr	r2, [r3, #0]
    3be6:	683b      	ldr	r3, [r7, #0]
    3be8:	699b      	ldr	r3, [r3, #24]
    3bea:	4619      	mov	r1, r3
    3bec:	4610      	mov	r0, r2
    3bee:	f7ff ff38 	bl	3a62 <nrf_uart_baudrate_set>
    3bf2:	687b      	ldr	r3, [r7, #4]
    3bf4:	6818      	ldr	r0, [r3, #0]
    3bf6:	683b      	ldr	r3, [r7, #0]
    3bf8:	7d59      	ldrb	r1, [r3, #21]
    3bfa:	683b      	ldr	r3, [r7, #0]
    3bfc:	7d1b      	ldrb	r3, [r3, #20]
    3bfe:	461a      	mov	r2, r3
    3c00:	f7ff ff19 	bl	3a36 <nrf_uart_configure>
    3c04:	687b      	ldr	r3, [r7, #4]
    3c06:	6818      	ldr	r0, [r3, #0]
    3c08:	683b      	ldr	r3, [r7, #0]
    3c0a:	6819      	ldr	r1, [r3, #0]
    3c0c:	683b      	ldr	r3, [r7, #0]
    3c0e:	685b      	ldr	r3, [r3, #4]
    3c10:	461a      	mov	r2, r3
    3c12:	f7ff fe67 	bl	38e4 <nrf_uart_txrx_pins_set>
    3c16:	683b      	ldr	r3, [r7, #0]
    3c18:	7d1b      	ldrb	r3, [r3, #20]
    3c1a:	2b01      	cmp	r3, #1
    3c1c:	d122      	bne.n	3c64 <apply_config+0xc0>
    3c1e:	683b      	ldr	r3, [r7, #0]
    3c20:	689b      	ldr	r3, [r3, #8]
    3c22:	f1b3 3fff 	cmp.w	r3, #4294967295	; 0xffffffff
    3c26:	d005      	beq.n	3c34 <apply_config+0x90>
    3c28:	683b      	ldr	r3, [r7, #0]
    3c2a:	689b      	ldr	r3, [r3, #8]
    3c2c:	2100      	movs	r1, #0
    3c2e:	4618      	mov	r0, r3
    3c30:	f7ff ff6e 	bl	3b10 <nrf_gpio_cfg_input>
    3c34:	683b      	ldr	r3, [r7, #0]
    3c36:	68db      	ldr	r3, [r3, #12]
    3c38:	f1b3 3fff 	cmp.w	r3, #4294967295	; 0xffffffff
    3c3c:	d009      	beq.n	3c52 <apply_config+0xae>
    3c3e:	683b      	ldr	r3, [r7, #0]
    3c40:	68db      	ldr	r3, [r3, #12]
    3c42:	4618      	mov	r0, r3
    3c44:	f7ff ff8a 	bl	3b5c <nrf_gpio_pin_set>
    3c48:	683b      	ldr	r3, [r7, #0]
    3c4a:	68db      	ldr	r3, [r3, #12]
    3c4c:	4618      	mov	r0, r3
    3c4e:	f7ff ff4d 	bl	3aec <nrf_gpio_cfg_output>
    3c52:	687b      	ldr	r3, [r7, #4]
    3c54:	6818      	ldr	r0, [r3, #0]
    3c56:	683b      	ldr	r3, [r7, #0]
    3c58:	68d9      	ldr	r1, [r3, #12]
    3c5a:	683b      	ldr	r3, [r7, #0]
    3c5c:	689b      	ldr	r3, [r3, #8]
    3c5e:	461a      	mov	r2, r3
    3c60:	f7ff fe97 	bl	3992 <nrf_uart_hwfc_pins_set>
    3c64:	bf00      	nop
    3c66:	3708      	adds	r7, #8
    3c68:	46bd      	mov	sp, r7
    3c6a:	bd80      	pop	{r7, pc}

00003c6c <interrupts_enable>:
    3c6c:	b580      	push	{r7, lr}
    3c6e:	b082      	sub	sp, #8
    3c70:	af00      	add	r7, sp, #0
    3c72:	6078      	str	r0, [r7, #4]
    3c74:	460b      	mov	r3, r1
    3c76:	70fb      	strb	r3, [r7, #3]
    3c78:	687b      	ldr	r3, [r7, #4]
    3c7a:	681b      	ldr	r3, [r3, #0]
    3c7c:	f44f 718e 	mov.w	r1, #284	; 0x11c
    3c80:	4618      	mov	r0, r3
    3c82:	f7ff fda1 	bl	37c8 <nrf_uart_event_clear>
    3c86:	687b      	ldr	r3, [r7, #4]
    3c88:	681b      	ldr	r3, [r3, #0]
    3c8a:	f44f 71a2 	mov.w	r1, #324	; 0x144
    3c8e:	4618      	mov	r0, r3
    3c90:	f7ff fd9a 	bl	37c8 <nrf_uart_event_clear>
    3c94:	687b      	ldr	r3, [r7, #4]
    3c96:	681b      	ldr	r3, [r3, #0]
    3c98:	490e      	ldr	r1, [pc, #56]	; (3cd4 <interrupts_enable+0x68>)
    3c9a:	4618      	mov	r0, r3
    3c9c:	f7ff fdc0 	bl	3820 <nrf_uart_int_enable>
    3ca0:	687b      	ldr	r3, [r7, #4]
    3ca2:	681b      	ldr	r3, [r3, #0]
    3ca4:	4618      	mov	r0, r3
    3ca6:	f7ff fd53 	bl	3750 <nrfx_get_irq_number>
    3caa:	4603      	mov	r3, r0
    3cac:	461a      	mov	r2, r3
    3cae:	78fb      	ldrb	r3, [r7, #3]
    3cb0:	4619      	mov	r1, r3
    3cb2:	4610      	mov	r0, r2
    3cb4:	f7ff fd59 	bl	376a <_NRFX_IRQ_PRIORITY_SET>
    3cb8:	687b      	ldr	r3, [r7, #4]
    3cba:	681b      	ldr	r3, [r3, #0]
    3cbc:	4618      	mov	r0, r3
    3cbe:	f7ff fd47 	bl	3750 <nrfx_get_irq_number>
    3cc2:	4603      	mov	r3, r0
    3cc4:	4618      	mov	r0, r3
    3cc6:	f7ff fd63 	bl	3790 <_NRFX_IRQ_ENABLE>
    3cca:	bf00      	nop
    3ccc:	3708      	adds	r7, #8
    3cce:	46bd      	mov	sp, r7
    3cd0:	bd80      	pop	{r7, pc}
    3cd2:	bf00      	nop
    3cd4:	00020080 	.word	0x00020080

00003cd8 <interrupts_disable>:
    3cd8:	b580      	push	{r7, lr}
    3cda:	b082      	sub	sp, #8
    3cdc:	af00      	add	r7, sp, #0
    3cde:	6078      	str	r0, [r7, #4]
    3ce0:	687b      	ldr	r3, [r7, #4]
    3ce2:	681b      	ldr	r3, [r3, #0]
    3ce4:	4908      	ldr	r1, [pc, #32]	; (3d08 <interrupts_disable+0x30>)
    3ce6:	4618      	mov	r0, r3
    3ce8:	f7ff fdbe 	bl	3868 <nrf_uart_int_disable>
    3cec:	687b      	ldr	r3, [r7, #4]
    3cee:	681b      	ldr	r3, [r3, #0]
    3cf0:	4618      	mov	r0, r3
    3cf2:	f7ff fd2d 	bl	3750 <nrfx_get_irq_number>
    3cf6:	4603      	mov	r3, r0
    3cf8:	4618      	mov	r0, r3
    3cfa:	f7ff fd57 	bl	37ac <_NRFX_IRQ_DISABLE>
    3cfe:	bf00      	nop
    3d00:	3708      	adds	r7, #8
    3d02:	46bd      	mov	sp, r7
    3d04:	bd80      	pop	{r7, pc}
    3d06:	bf00      	nop
    3d08:	00020284 	.word	0x00020284

00003d0c <pins_to_default>:
    3d0c:	b580      	push	{r7, lr}
    3d0e:	b086      	sub	sp, #24
    3d10:	af00      	add	r7, sp, #0
    3d12:	6078      	str	r0, [r7, #4]
    3d14:	687b      	ldr	r3, [r7, #4]
    3d16:	681b      	ldr	r3, [r3, #0]
    3d18:	4618      	mov	r0, r3
    3d1a:	f7ff fe06 	bl	392a <nrf_uart_tx_pin_get>
    3d1e:	6178      	str	r0, [r7, #20]
    3d20:	687b      	ldr	r3, [r7, #4]
    3d22:	681b      	ldr	r3, [r3, #0]
    3d24:	4618      	mov	r0, r3
    3d26:	f7ff fe0d 	bl	3944 <nrf_uart_rx_pin_get>
    3d2a:	6138      	str	r0, [r7, #16]
    3d2c:	687b      	ldr	r3, [r7, #4]
    3d2e:	681b      	ldr	r3, [r3, #0]
    3d30:	4618      	mov	r0, r3
    3d32:	f7ff fe14 	bl	395e <nrf_uart_rts_pin_get>
    3d36:	60f8      	str	r0, [r7, #12]
    3d38:	687b      	ldr	r3, [r7, #4]
    3d3a:	681b      	ldr	r3, [r3, #0]
    3d3c:	4618      	mov	r0, r3
    3d3e:	f7ff fe1b 	bl	3978 <nrf_uart_cts_pin_get>
    3d42:	60b8      	str	r0, [r7, #8]
    3d44:	687b      	ldr	r3, [r7, #4]
    3d46:	681b      	ldr	r3, [r3, #0]
    3d48:	4618      	mov	r0, r3
    3d4a:	f7ff fddf 	bl	390c <nrf_uart_txrx_pins_disconnect>
    3d4e:	687b      	ldr	r3, [r7, #4]
    3d50:	681b      	ldr	r3, [r3, #0]
    3d52:	4618      	mov	r0, r3
    3d54:	f7ff fe31 	bl	39ba <nrf_uart_hwfc_pins_disconnect>
    3d58:	697b      	ldr	r3, [r7, #20]
    3d5a:	f1b3 3fff 	cmp.w	r3, #4294967295	; 0xffffffff
    3d5e:	d002      	beq.n	3d66 <pins_to_default+0x5a>
    3d60:	6978      	ldr	r0, [r7, #20]
    3d62:	f7ff fee9 	bl	3b38 <nrf_gpio_cfg_default>
    3d66:	693b      	ldr	r3, [r7, #16]
    3d68:	f1b3 3fff 	cmp.w	r3, #4294967295	; 0xffffffff
    3d6c:	d002      	beq.n	3d74 <pins_to_default+0x68>
    3d6e:	6938      	ldr	r0, [r7, #16]
    3d70:	f7ff fee2 	bl	3b38 <nrf_gpio_cfg_default>
    3d74:	68bb      	ldr	r3, [r7, #8]
    3d76:	f1b3 3fff 	cmp.w	r3, #4294967295	; 0xffffffff
    3d7a:	d002      	beq.n	3d82 <pins_to_default+0x76>
    3d7c:	68b8      	ldr	r0, [r7, #8]
    3d7e:	f7ff fedb 	bl	3b38 <nrf_gpio_cfg_default>
    3d82:	68fb      	ldr	r3, [r7, #12]
    3d84:	f1b3 3fff 	cmp.w	r3, #4294967295	; 0xffffffff
    3d88:	d002      	beq.n	3d90 <pins_to_default+0x84>
    3d8a:	68f8      	ldr	r0, [r7, #12]
    3d8c:	f7ff fed4 	bl	3b38 <nrf_gpio_cfg_default>
    3d90:	bf00      	nop
    3d92:	3718      	adds	r7, #24
    3d94:	46bd      	mov	sp, r7
    3d96:	bd80      	pop	{r7, pc}

00003d98 <nrfx_uart_init>:
    3d98:	b580      	push	{r7, lr}
    3d9a:	b086      	sub	sp, #24
    3d9c:	af00      	add	r7, sp, #0
    3d9e:	60f8      	str	r0, [r7, #12]
    3da0:	60b9      	str	r1, [r7, #8]
    3da2:	607a      	str	r2, [r7, #4]
    3da4:	68fb      	ldr	r3, [r7, #12]
    3da6:	791b      	ldrb	r3, [r3, #4]
    3da8:	461a      	mov	r2, r3
    3daa:	232c      	movs	r3, #44	; 0x2c
    3dac:	fb02 f303 	mul.w	r3, r2, r3
    3db0:	4a28      	ldr	r2, [pc, #160]	; (3e54 <nrfx_uart_init+0xbc>)
    3db2:	4413      	add	r3, r2
    3db4:	613b      	str	r3, [r7, #16]
    3db6:	2300      	movs	r3, #0
    3db8:	617b      	str	r3, [r7, #20]
    3dba:	693b      	ldr	r3, [r7, #16]
    3dbc:	f893 302a 	ldrb.w	r3, [r3, #42]	; 0x2a
    3dc0:	2b00      	cmp	r3, #0
    3dc2:	d003      	beq.n	3dcc <nrfx_uart_init+0x34>
    3dc4:	2308      	movs	r3, #8
    3dc6:	617b      	str	r3, [r7, #20]
    3dc8:	697b      	ldr	r3, [r7, #20]
    3dca:	e03e      	b.n	3e4a <nrfx_uart_init+0xb2>
    3dcc:	68fb      	ldr	r3, [r7, #12]
    3dce:	681a      	ldr	r2, [r3, #0]
    3dd0:	68fb      	ldr	r3, [r7, #12]
    3dd2:	791b      	ldrb	r3, [r3, #4]
    3dd4:	4619      	mov	r1, r3
    3dd6:	4b20      	ldr	r3, [pc, #128]	; (3e58 <nrfx_uart_init+0xc0>)
    3dd8:	f853 3021 	ldr.w	r3, [r3, r1, lsl #2]
    3ddc:	4619      	mov	r1, r3
    3dde:	4610      	mov	r0, r2
    3de0:	f7fe fcac 	bl	273c <nrfx_prs_acquire>
    3de4:	4603      	mov	r3, r0
    3de6:	2b00      	cmp	r3, #0
    3de8:	d003      	beq.n	3df2 <nrfx_uart_init+0x5a>
    3dea:	2311      	movs	r3, #17
    3dec:	617b      	str	r3, [r7, #20]
    3dee:	697b      	ldr	r3, [r7, #20]
    3df0:	e02b      	b.n	3e4a <nrfx_uart_init+0xb2>
    3df2:	68b9      	ldr	r1, [r7, #8]
    3df4:	68f8      	ldr	r0, [r7, #12]
    3df6:	f7ff fed5 	bl	3ba4 <apply_config>
    3dfa:	693b      	ldr	r3, [r7, #16]
    3dfc:	687a      	ldr	r2, [r7, #4]
    3dfe:	605a      	str	r2, [r3, #4]
    3e00:	68bb      	ldr	r3, [r7, #8]
    3e02:	691a      	ldr	r2, [r3, #16]
    3e04:	693b      	ldr	r3, [r7, #16]
    3e06:	601a      	str	r2, [r3, #0]
    3e08:	693b      	ldr	r3, [r7, #16]
    3e0a:	685b      	ldr	r3, [r3, #4]
    3e0c:	2b00      	cmp	r3, #0
    3e0e:	d005      	beq.n	3e1c <nrfx_uart_init+0x84>
    3e10:	68bb      	ldr	r3, [r7, #8]
    3e12:	7f1b      	ldrb	r3, [r3, #28]
    3e14:	4619      	mov	r1, r3
    3e16:	68f8      	ldr	r0, [r7, #12]
    3e18:	f7ff ff28 	bl	3c6c <interrupts_enable>
    3e1c:	68fb      	ldr	r3, [r7, #12]
    3e1e:	681b      	ldr	r3, [r3, #0]
    3e20:	4618      	mov	r0, r3
    3e22:	f7ff fd43 	bl	38ac <nrf_uart_enable>
    3e26:	693b      	ldr	r3, [r7, #16]
    3e28:	2200      	movs	r2, #0
    3e2a:	619a      	str	r2, [r3, #24]
    3e2c:	693b      	ldr	r3, [r7, #16]
    3e2e:	2200      	movs	r2, #0
    3e30:	61da      	str	r2, [r3, #28]
    3e32:	693b      	ldr	r3, [r7, #16]
    3e34:	2200      	movs	r2, #0
    3e36:	f883 2029 	strb.w	r2, [r3, #41]	; 0x29
    3e3a:	693b      	ldr	r3, [r7, #16]
    3e3c:	2200      	movs	r2, #0
    3e3e:	615a      	str	r2, [r3, #20]
    3e40:	693b      	ldr	r3, [r7, #16]
    3e42:	2201      	movs	r2, #1
    3e44:	f883 202a 	strb.w	r2, [r3, #42]	; 0x2a
    3e48:	697b      	ldr	r3, [r7, #20]
    3e4a:	4618      	mov	r0, r3
    3e4c:	3718      	adds	r7, #24
    3e4e:	46bd      	mov	sp, r7
    3e50:	bd80      	pop	{r7, pc}
    3e52:	bf00      	nop
    3e54:	200006ac 	.word	0x200006ac
    3e58:	00005ee0 	.word	0x00005ee0

00003e5c <nrfx_uart_uninit>:
    3e5c:	b580      	push	{r7, lr}
    3e5e:	b084      	sub	sp, #16
    3e60:	af00      	add	r7, sp, #0
    3e62:	6078      	str	r0, [r7, #4]
    3e64:	687b      	ldr	r3, [r7, #4]
    3e66:	791b      	ldrb	r3, [r3, #4]
    3e68:	461a      	mov	r2, r3
    3e6a:	232c      	movs	r3, #44	; 0x2c
    3e6c:	fb02 f303 	mul.w	r3, r2, r3
    3e70:	4a10      	ldr	r2, [pc, #64]	; (3eb4 <nrfx_uart_uninit+0x58>)
    3e72:	4413      	add	r3, r2
    3e74:	60fb      	str	r3, [r7, #12]
    3e76:	687b      	ldr	r3, [r7, #4]
    3e78:	681b      	ldr	r3, [r3, #0]
    3e7a:	4618      	mov	r0, r3
    3e7c:	f7ff fd24 	bl	38c8 <nrf_uart_disable>
    3e80:	68fb      	ldr	r3, [r7, #12]
    3e82:	685b      	ldr	r3, [r3, #4]
    3e84:	2b00      	cmp	r3, #0
    3e86:	d002      	beq.n	3e8e <nrfx_uart_uninit+0x32>
    3e88:	6878      	ldr	r0, [r7, #4]
    3e8a:	f7ff ff25 	bl	3cd8 <interrupts_disable>
    3e8e:	6878      	ldr	r0, [r7, #4]
    3e90:	f7ff ff3c 	bl	3d0c <pins_to_default>
    3e94:	687b      	ldr	r3, [r7, #4]
    3e96:	681b      	ldr	r3, [r3, #0]
    3e98:	4618      	mov	r0, r3
    3e9a:	f7fe fc7e 	bl	279a <nrfx_prs_release>
    3e9e:	68fb      	ldr	r3, [r7, #12]
    3ea0:	2200      	movs	r2, #0
    3ea2:	f883 202a 	strb.w	r2, [r3, #42]	; 0x2a
    3ea6:	68fb      	ldr	r3, [r7, #12]
    3ea8:	2200      	movs	r2, #0
    3eaa:	605a      	str	r2, [r3, #4]
    3eac:	bf00      	nop
    3eae:	3710      	adds	r7, #16
    3eb0:	46bd      	mov	sp, r7
    3eb2:	bd80      	pop	{r7, pc}
    3eb4:	200006ac 	.word	0x200006ac

00003eb8 <tx_byte>:
    3eb8:	b580      	push	{r7, lr}
    3eba:	b084      	sub	sp, #16
    3ebc:	af00      	add	r7, sp, #0
    3ebe:	6078      	str	r0, [r7, #4]
    3ec0:	6039      	str	r1, [r7, #0]
    3ec2:	f44f 718e 	mov.w	r1, #284	; 0x11c
    3ec6:	6878      	ldr	r0, [r7, #4]
    3ec8:	f7ff fc7e 	bl	37c8 <nrf_uart_event_clear>
    3ecc:	683b      	ldr	r3, [r7, #0]
    3ece:	689a      	ldr	r2, [r3, #8]
    3ed0:	683b      	ldr	r3, [r7, #0]
    3ed2:	6a1b      	ldr	r3, [r3, #32]
    3ed4:	4413      	add	r3, r2
    3ed6:	781b      	ldrb	r3, [r3, #0]
    3ed8:	73fb      	strb	r3, [r7, #15]
    3eda:	683b      	ldr	r3, [r7, #0]
    3edc:	6a1b      	ldr	r3, [r3, #32]
    3ede:	1c5a      	adds	r2, r3, #1
    3ee0:	683b      	ldr	r3, [r7, #0]
    3ee2:	621a      	str	r2, [r3, #32]
    3ee4:	7bfb      	ldrb	r3, [r7, #15]
    3ee6:	4619      	mov	r1, r3
    3ee8:	6878      	ldr	r0, [r7, #4]
    3eea:	f7ff fd83 	bl	39f4 <nrf_uart_txd_set>
    3eee:	bf00      	nop
    3ef0:	3710      	adds	r7, #16
    3ef2:	46bd      	mov	sp, r7
    3ef4:	bd80      	pop	{r7, pc}

00003ef6 <tx_blocking>:
    3ef6:	b580      	push	{r7, lr}
    3ef8:	b084      	sub	sp, #16
    3efa:	af00      	add	r7, sp, #0
    3efc:	6078      	str	r0, [r7, #4]
    3efe:	6039      	str	r1, [r7, #0]
    3f00:	683b      	ldr	r3, [r7, #0]
    3f02:	695b      	ldr	r3, [r3, #20]
    3f04:	60fb      	str	r3, [r7, #12]
    3f06:	e016      	b.n	3f36 <tx_blocking+0x40>
    3f08:	683b      	ldr	r3, [r7, #0]
    3f0a:	f893 3028 	ldrb.w	r3, [r3, #40]	; 0x28
    3f0e:	b2db      	uxtb	r3, r3
    3f10:	2b00      	cmp	r3, #0
    3f12:	d001      	beq.n	3f18 <tx_blocking+0x22>
    3f14:	2300      	movs	r3, #0
    3f16:	e014      	b.n	3f42 <tx_blocking+0x4c>
    3f18:	f44f 718e 	mov.w	r1, #284	; 0x11c
    3f1c:	6878      	ldr	r0, [r7, #4]
    3f1e:	f7ff fc6a 	bl	37f6 <nrf_uart_event_check>
    3f22:	4603      	mov	r3, r0
    3f24:	f083 0301 	eor.w	r3, r3, #1
    3f28:	b2db      	uxtb	r3, r3
    3f2a:	2b00      	cmp	r3, #0
    3f2c:	d1ec      	bne.n	3f08 <tx_blocking+0x12>
    3f2e:	6839      	ldr	r1, [r7, #0]
    3f30:	6878      	ldr	r0, [r7, #4]
    3f32:	f7ff ffc1 	bl	3eb8 <tx_byte>
    3f36:	683b      	ldr	r3, [r7, #0]
    3f38:	6a1b      	ldr	r3, [r3, #32]
    3f3a:	68fa      	ldr	r2, [r7, #12]
    3f3c:	429a      	cmp	r2, r3
    3f3e:	d8eb      	bhi.n	3f18 <tx_blocking+0x22>
    3f40:	2301      	movs	r3, #1
    3f42:	4618      	mov	r0, r3
    3f44:	3710      	adds	r7, #16
    3f46:	46bd      	mov	sp, r7
    3f48:	bd80      	pop	{r7, pc}
	...

00003f4c <nrfx_uart_tx>:
    3f4c:	b580      	push	{r7, lr}
    3f4e:	b086      	sub	sp, #24
    3f50:	af00      	add	r7, sp, #0
    3f52:	60f8      	str	r0, [r7, #12]
    3f54:	60b9      	str	r1, [r7, #8]
    3f56:	607a      	str	r2, [r7, #4]
    3f58:	68fb      	ldr	r3, [r7, #12]
    3f5a:	791b      	ldrb	r3, [r3, #4]
    3f5c:	461a      	mov	r2, r3
    3f5e:	232c      	movs	r3, #44	; 0x2c
    3f60:	fb02 f303 	mul.w	r3, r2, r3
    3f64:	4a2e      	ldr	r2, [pc, #184]	; (4020 <nrfx_uart_tx+0xd4>)
    3f66:	4413      	add	r3, r2
    3f68:	613b      	str	r3, [r7, #16]
    3f6a:	68f8      	ldr	r0, [r7, #12]
    3f6c:	f000 f85a 	bl	4024 <nrfx_uart_tx_in_progress>
    3f70:	4603      	mov	r3, r0
    3f72:	2b00      	cmp	r3, #0
    3f74:	d003      	beq.n	3f7e <nrfx_uart_tx+0x32>
    3f76:	2311      	movs	r3, #17
    3f78:	617b      	str	r3, [r7, #20]
    3f7a:	697b      	ldr	r3, [r7, #20]
    3f7c:	e04c      	b.n	4018 <nrfx_uart_tx+0xcc>
    3f7e:	693b      	ldr	r3, [r7, #16]
    3f80:	687a      	ldr	r2, [r7, #4]
    3f82:	615a      	str	r2, [r3, #20]
    3f84:	693b      	ldr	r3, [r7, #16]
    3f86:	68ba      	ldr	r2, [r7, #8]
    3f88:	609a      	str	r2, [r3, #8]
    3f8a:	693b      	ldr	r3, [r7, #16]
    3f8c:	2200      	movs	r2, #0
    3f8e:	621a      	str	r2, [r3, #32]
    3f90:	693b      	ldr	r3, [r7, #16]
    3f92:	2200      	movs	r2, #0
    3f94:	f883 2028 	strb.w	r2, [r3, #40]	; 0x28
    3f98:	2300      	movs	r3, #0
    3f9a:	617b      	str	r3, [r7, #20]
    3f9c:	68fb      	ldr	r3, [r7, #12]
    3f9e:	681b      	ldr	r3, [r3, #0]
    3fa0:	f44f 718e 	mov.w	r1, #284	; 0x11c
    3fa4:	4618      	mov	r0, r3
    3fa6:	f7ff fc0f 	bl	37c8 <nrf_uart_event_clear>
    3faa:	68fb      	ldr	r3, [r7, #12]
    3fac:	681b      	ldr	r3, [r3, #0]
    3fae:	2108      	movs	r1, #8
    3fb0:	4618      	mov	r0, r3
    3fb2:	f7ff fd2f 	bl	3a14 <nrf_uart_task_trigger>
    3fb6:	68fb      	ldr	r3, [r7, #12]
    3fb8:	681b      	ldr	r3, [r3, #0]
    3fba:	6939      	ldr	r1, [r7, #16]
    3fbc:	4618      	mov	r0, r3
    3fbe:	f7ff ff7b 	bl	3eb8 <tx_byte>
    3fc2:	693b      	ldr	r3, [r7, #16]
    3fc4:	685b      	ldr	r3, [r3, #4]
    3fc6:	2b00      	cmp	r3, #0
    3fc8:	d125      	bne.n	4016 <nrfx_uart_tx+0xca>
    3fca:	68fb      	ldr	r3, [r7, #12]
    3fcc:	681b      	ldr	r3, [r3, #0]
    3fce:	6939      	ldr	r1, [r7, #16]
    3fd0:	4618      	mov	r0, r3
    3fd2:	f7ff ff90 	bl	3ef6 <tx_blocking>
    3fd6:	4603      	mov	r3, r0
    3fd8:	f083 0301 	eor.w	r3, r3, #1
    3fdc:	b2db      	uxtb	r3, r3
    3fde:	2b00      	cmp	r3, #0
    3fe0:	d002      	beq.n	3fe8 <nrfx_uart_tx+0x9c>
    3fe2:	230f      	movs	r3, #15
    3fe4:	617b      	str	r3, [r7, #20]
    3fe6:	e013      	b.n	4010 <nrfx_uart_tx+0xc4>
    3fe8:	bf00      	nop
    3fea:	68fb      	ldr	r3, [r7, #12]
    3fec:	681b      	ldr	r3, [r3, #0]
    3fee:	f44f 718e 	mov.w	r1, #284	; 0x11c
    3ff2:	4618      	mov	r0, r3
    3ff4:	f7ff fbff 	bl	37f6 <nrf_uart_event_check>
    3ff8:	4603      	mov	r3, r0
    3ffa:	f083 0301 	eor.w	r3, r3, #1
    3ffe:	b2db      	uxtb	r3, r3
    4000:	2b00      	cmp	r3, #0
    4002:	d1f2      	bne.n	3fea <nrfx_uart_tx+0x9e>
    4004:	68fb      	ldr	r3, [r7, #12]
    4006:	681b      	ldr	r3, [r3, #0]
    4008:	210c      	movs	r1, #12
    400a:	4618      	mov	r0, r3
    400c:	f7ff fd02 	bl	3a14 <nrf_uart_task_trigger>
    4010:	693b      	ldr	r3, [r7, #16]
    4012:	2200      	movs	r2, #0
    4014:	615a      	str	r2, [r3, #20]
    4016:	697b      	ldr	r3, [r7, #20]
    4018:	4618      	mov	r0, r3
    401a:	3718      	adds	r7, #24
    401c:	46bd      	mov	sp, r7
    401e:	bd80      	pop	{r7, pc}
    4020:	200006ac 	.word	0x200006ac

00004024 <nrfx_uart_tx_in_progress>:
    4024:	b480      	push	{r7}
    4026:	b083      	sub	sp, #12
    4028:	af00      	add	r7, sp, #0
    402a:	6078      	str	r0, [r7, #4]
    402c:	687b      	ldr	r3, [r7, #4]
    402e:	791b      	ldrb	r3, [r3, #4]
    4030:	4619      	mov	r1, r3
    4032:	4a09      	ldr	r2, [pc, #36]	; (4058 <nrfx_uart_tx_in_progress+0x34>)
    4034:	232c      	movs	r3, #44	; 0x2c
    4036:	fb01 f303 	mul.w	r3, r1, r3
    403a:	4413      	add	r3, r2
    403c:	3314      	adds	r3, #20
    403e:	681b      	ldr	r3, [r3, #0]
    4040:	2b00      	cmp	r3, #0
    4042:	bf14      	ite	ne
    4044:	2301      	movne	r3, #1
    4046:	2300      	moveq	r3, #0
    4048:	b2db      	uxtb	r3, r3
    404a:	4618      	mov	r0, r3
    404c:	370c      	adds	r7, #12
    404e:	46bd      	mov	sp, r7
    4050:	f85d 7b04 	ldr.w	r7, [sp], #4
    4054:	4770      	bx	lr
    4056:	bf00      	nop
    4058:	200006ac 	.word	0x200006ac

0000405c <rx_byte>:
    405c:	b590      	push	{r4, r7, lr}
    405e:	b083      	sub	sp, #12
    4060:	af00      	add	r7, sp, #0
    4062:	6078      	str	r0, [r7, #4]
    4064:	6039      	str	r1, [r7, #0]
    4066:	683b      	ldr	r3, [r7, #0]
    4068:	699b      	ldr	r3, [r3, #24]
    406a:	2b00      	cmp	r3, #0
    406c:	d108      	bne.n	4080 <rx_byte+0x24>
    406e:	f44f 7184 	mov.w	r1, #264	; 0x108
    4072:	6878      	ldr	r0, [r7, #4]
    4074:	f7ff fba8 	bl	37c8 <nrf_uart_event_clear>
    4078:	6878      	ldr	r0, [r7, #4]
    407a:	f7ff fcad 	bl	39d8 <nrf_uart_rxd_get>
    407e:	e013      	b.n	40a8 <rx_byte+0x4c>
    4080:	f44f 7184 	mov.w	r1, #264	; 0x108
    4084:	6878      	ldr	r0, [r7, #4]
    4086:	f7ff fb9f 	bl	37c8 <nrf_uart_event_clear>
    408a:	683b      	ldr	r3, [r7, #0]
    408c:	68da      	ldr	r2, [r3, #12]
    408e:	683b      	ldr	r3, [r7, #0]
    4090:	6a5b      	ldr	r3, [r3, #36]	; 0x24
    4092:	18d4      	adds	r4, r2, r3
    4094:	6878      	ldr	r0, [r7, #4]
    4096:	f7ff fc9f 	bl	39d8 <nrf_uart_rxd_get>
    409a:	4603      	mov	r3, r0
    409c:	7023      	strb	r3, [r4, #0]
    409e:	683b      	ldr	r3, [r7, #0]
    40a0:	6a5b      	ldr	r3, [r3, #36]	; 0x24
    40a2:	1c5a      	adds	r2, r3, #1
    40a4:	683b      	ldr	r3, [r7, #0]
    40a6:	625a      	str	r2, [r3, #36]	; 0x24
    40a8:	370c      	adds	r7, #12
    40aa:	46bd      	mov	sp, r7
    40ac:	bd90      	pop	{r4, r7, pc}

000040ae <rx_done_event>:
    40ae:	b580      	push	{r7, lr}
    40b0:	b088      	sub	sp, #32
    40b2:	af00      	add	r7, sp, #0
    40b4:	60f8      	str	r0, [r7, #12]
    40b6:	60b9      	str	r1, [r7, #8]
    40b8:	607a      	str	r2, [r7, #4]
    40ba:	2301      	movs	r3, #1
    40bc:	743b      	strb	r3, [r7, #16]
    40be:	68bb      	ldr	r3, [r7, #8]
    40c0:	61bb      	str	r3, [r7, #24]
    40c2:	687b      	ldr	r3, [r7, #4]
    40c4:	617b      	str	r3, [r7, #20]
    40c6:	68fb      	ldr	r3, [r7, #12]
    40c8:	685b      	ldr	r3, [r3, #4]
    40ca:	68fa      	ldr	r2, [r7, #12]
    40cc:	6811      	ldr	r1, [r2, #0]
    40ce:	f107 0210 	add.w	r2, r7, #16
    40d2:	4610      	mov	r0, r2
    40d4:	4798      	blx	r3
    40d6:	bf00      	nop
    40d8:	3720      	adds	r7, #32
    40da:	46bd      	mov	sp, r7
    40dc:	bd80      	pop	{r7, pc}

000040de <tx_done_event>:
    40de:	b580      	push	{r7, lr}
    40e0:	b086      	sub	sp, #24
    40e2:	af00      	add	r7, sp, #0
    40e4:	6078      	str	r0, [r7, #4]
    40e6:	6039      	str	r1, [r7, #0]
    40e8:	2300      	movs	r3, #0
    40ea:	723b      	strb	r3, [r7, #8]
    40ec:	683b      	ldr	r3, [r7, #0]
    40ee:	613b      	str	r3, [r7, #16]
    40f0:	687b      	ldr	r3, [r7, #4]
    40f2:	689b      	ldr	r3, [r3, #8]
    40f4:	60fb      	str	r3, [r7, #12]
    40f6:	687b      	ldr	r3, [r7, #4]
    40f8:	2200      	movs	r2, #0
    40fa:	615a      	str	r2, [r3, #20]
    40fc:	687b      	ldr	r3, [r7, #4]
    40fe:	685b      	ldr	r3, [r3, #4]
    4100:	687a      	ldr	r2, [r7, #4]
    4102:	6811      	ldr	r1, [r2, #0]
    4104:	f107 0208 	add.w	r2, r7, #8
    4108:	4610      	mov	r0, r2
    410a:	4798      	blx	r3
    410c:	bf00      	nop
    410e:	3718      	adds	r7, #24
    4110:	46bd      	mov	sp, r7
    4112:	bd80      	pop	{r7, pc}

00004114 <uart_irq_handler>:
    4114:	b580      	push	{r7, lr}
    4116:	b08a      	sub	sp, #40	; 0x28
    4118:	af00      	add	r7, sp, #0
    411a:	6078      	str	r0, [r7, #4]
    411c:	6039      	str	r1, [r7, #0]
    411e:	f44f 7100 	mov.w	r1, #512	; 0x200
    4122:	6878      	ldr	r0, [r7, #4]
    4124:	f7ff fb8b 	bl	383e <nrf_uart_int_enable_check>
    4128:	4603      	mov	r3, r0
    412a:	2b00      	cmp	r3, #0
    412c:	d039      	beq.n	41a2 <uart_irq_handler+0x8e>
    412e:	f44f 7192 	mov.w	r1, #292	; 0x124
    4132:	6878      	ldr	r0, [r7, #4]
    4134:	f7ff fb5f 	bl	37f6 <nrf_uart_event_check>
    4138:	4603      	mov	r3, r0
    413a:	2b00      	cmp	r3, #0
    413c:	d031      	beq.n	41a2 <uart_irq_handler+0x8e>
    413e:	f44f 7192 	mov.w	r1, #292	; 0x124
    4142:	6878      	ldr	r0, [r7, #4]
    4144:	f7ff fb40 	bl	37c8 <nrf_uart_event_clear>
    4148:	f44f 7101 	mov.w	r1, #516	; 0x204
    414c:	6878      	ldr	r0, [r7, #4]
    414e:	f7ff fb8b 	bl	3868 <nrf_uart_int_disable>
    4152:	683b      	ldr	r3, [r7, #0]
    4154:	f893 3029 	ldrb.w	r3, [r3, #41]	; 0x29
    4158:	f083 0301 	eor.w	r3, r3, #1
    415c:	b2db      	uxtb	r3, r3
    415e:	2b00      	cmp	r3, #0
    4160:	d003      	beq.n	416a <uart_irq_handler+0x56>
    4162:	2104      	movs	r1, #4
    4164:	6878      	ldr	r0, [r7, #4]
    4166:	f7ff fc55 	bl	3a14 <nrf_uart_task_trigger>
    416a:	2302      	movs	r3, #2
    416c:	733b      	strb	r3, [r7, #12]
    416e:	6878      	ldr	r0, [r7, #4]
    4170:	f7ff fb89 	bl	3886 <nrf_uart_errorsrc_get_and_clear>
    4174:	4603      	mov	r3, r0
    4176:	61bb      	str	r3, [r7, #24]
    4178:	683b      	ldr	r3, [r7, #0]
    417a:	699b      	ldr	r3, [r3, #24]
    417c:	617b      	str	r3, [r7, #20]
    417e:	683b      	ldr	r3, [r7, #0]
    4180:	68db      	ldr	r3, [r3, #12]
    4182:	613b      	str	r3, [r7, #16]
    4184:	683b      	ldr	r3, [r7, #0]
    4186:	2200      	movs	r2, #0
    4188:	619a      	str	r2, [r3, #24]
    418a:	683b      	ldr	r3, [r7, #0]
    418c:	2200      	movs	r2, #0
    418e:	61da      	str	r2, [r3, #28]
    4190:	683b      	ldr	r3, [r7, #0]
    4192:	685b      	ldr	r3, [r3, #4]
    4194:	683a      	ldr	r2, [r7, #0]
    4196:	6811      	ldr	r1, [r2, #0]
    4198:	f107 020c 	add.w	r2, r7, #12
    419c:	4610      	mov	r0, r2
    419e:	4798      	blx	r3
    41a0:	e052      	b.n	4248 <uart_irq_handler+0x134>
    41a2:	2104      	movs	r1, #4
    41a4:	6878      	ldr	r0, [r7, #4]
    41a6:	f7ff fb4a 	bl	383e <nrf_uart_int_enable_check>
    41aa:	4603      	mov	r3, r0
    41ac:	2b00      	cmp	r3, #0
    41ae:	d04b      	beq.n	4248 <uart_irq_handler+0x134>
    41b0:	f44f 7184 	mov.w	r1, #264	; 0x108
    41b4:	6878      	ldr	r0, [r7, #4]
    41b6:	f7ff fb1e 	bl	37f6 <nrf_uart_event_check>
    41ba:	4603      	mov	r3, r0
    41bc:	2b00      	cmp	r3, #0
    41be:	d043      	beq.n	4248 <uart_irq_handler+0x134>
    41c0:	6839      	ldr	r1, [r7, #0]
    41c2:	6878      	ldr	r0, [r7, #4]
    41c4:	f7ff ff4a 	bl	405c <rx_byte>
    41c8:	683b      	ldr	r3, [r7, #0]
    41ca:	699a      	ldr	r2, [r3, #24]
    41cc:	683b      	ldr	r3, [r7, #0]
    41ce:	6a5b      	ldr	r3, [r3, #36]	; 0x24
    41d0:	429a      	cmp	r2, r3
    41d2:	d139      	bne.n	4248 <uart_irq_handler+0x134>
    41d4:	683b      	ldr	r3, [r7, #0]
    41d6:	69db      	ldr	r3, [r3, #28]
    41d8:	2b00      	cmp	r3, #0
    41da:	d019      	beq.n	4210 <uart_irq_handler+0xfc>
    41dc:	683b      	ldr	r3, [r7, #0]
    41de:	68db      	ldr	r3, [r3, #12]
    41e0:	627b      	str	r3, [r7, #36]	; 0x24
    41e2:	683b      	ldr	r3, [r7, #0]
    41e4:	6a5b      	ldr	r3, [r3, #36]	; 0x24
    41e6:	623b      	str	r3, [r7, #32]
    41e8:	683b      	ldr	r3, [r7, #0]
    41ea:	69da      	ldr	r2, [r3, #28]
    41ec:	683b      	ldr	r3, [r7, #0]
    41ee:	619a      	str	r2, [r3, #24]
    41f0:	683b      	ldr	r3, [r7, #0]
    41f2:	691a      	ldr	r2, [r3, #16]
    41f4:	683b      	ldr	r3, [r7, #0]
    41f6:	60da      	str	r2, [r3, #12]
    41f8:	683b      	ldr	r3, [r7, #0]
    41fa:	2200      	movs	r2, #0
    41fc:	61da      	str	r2, [r3, #28]
    41fe:	683b      	ldr	r3, [r7, #0]
    4200:	2200      	movs	r2, #0
    4202:	625a      	str	r2, [r3, #36]	; 0x24
    4204:	6a7a      	ldr	r2, [r7, #36]	; 0x24
    4206:	6a39      	ldr	r1, [r7, #32]
    4208:	6838      	ldr	r0, [r7, #0]
    420a:	f7ff ff50 	bl	40ae <rx_done_event>
    420e:	e01b      	b.n	4248 <uart_irq_handler+0x134>
    4210:	683b      	ldr	r3, [r7, #0]
    4212:	f893 3029 	ldrb.w	r3, [r3, #41]	; 0x29
    4216:	f083 0301 	eor.w	r3, r3, #1
    421a:	b2db      	uxtb	r3, r3
    421c:	2b00      	cmp	r3, #0
    421e:	d003      	beq.n	4228 <uart_irq_handler+0x114>
    4220:	2104      	movs	r1, #4
    4222:	6878      	ldr	r0, [r7, #4]
    4224:	f7ff fbf6 	bl	3a14 <nrf_uart_task_trigger>
    4228:	f44f 7101 	mov.w	r1, #516	; 0x204
    422c:	6878      	ldr	r0, [r7, #4]
    422e:	f7ff fb1b 	bl	3868 <nrf_uart_int_disable>
    4232:	683b      	ldr	r3, [r7, #0]
    4234:	2200      	movs	r2, #0
    4236:	619a      	str	r2, [r3, #24]
    4238:	683b      	ldr	r3, [r7, #0]
    423a:	6a59      	ldr	r1, [r3, #36]	; 0x24
    423c:	683b      	ldr	r3, [r7, #0]
    423e:	68db      	ldr	r3, [r3, #12]
    4240:	461a      	mov	r2, r3
    4242:	6838      	ldr	r0, [r7, #0]
    4244:	f7ff ff33 	bl	40ae <rx_done_event>
    4248:	f44f 718e 	mov.w	r1, #284	; 0x11c
    424c:	6878      	ldr	r0, [r7, #4]
    424e:	f7ff fad2 	bl	37f6 <nrf_uart_event_check>
    4252:	4603      	mov	r3, r0
    4254:	2b00      	cmp	r3, #0
    4256:	d024      	beq.n	42a2 <uart_irq_handler+0x18e>
    4258:	683b      	ldr	r3, [r7, #0]
    425a:	695b      	ldr	r3, [r3, #20]
    425c:	61fb      	str	r3, [r7, #28]
    425e:	683b      	ldr	r3, [r7, #0]
    4260:	6a1b      	ldr	r3, [r3, #32]
    4262:	69fa      	ldr	r2, [r7, #28]
    4264:	429a      	cmp	r2, r3
    4266:	d90d      	bls.n	4284 <uart_irq_handler+0x170>
    4268:	683b      	ldr	r3, [r7, #0]
    426a:	f893 3028 	ldrb.w	r3, [r3, #40]	; 0x28
    426e:	b2db      	uxtb	r3, r3
    4270:	f083 0301 	eor.w	r3, r3, #1
    4274:	b2db      	uxtb	r3, r3
    4276:	2b00      	cmp	r3, #0
    4278:	d004      	beq.n	4284 <uart_irq_handler+0x170>
    427a:	6839      	ldr	r1, [r7, #0]
    427c:	6878      	ldr	r0, [r7, #4]
    427e:	f7ff fe1b 	bl	3eb8 <tx_byte>
    4282:	e00e      	b.n	42a2 <uart_irq_handler+0x18e>
    4284:	f44f 718e 	mov.w	r1, #284	; 0x11c
    4288:	6878      	ldr	r0, [r7, #4]
    428a:	f7ff fa9d 	bl	37c8 <nrf_uart_event_clear>
    428e:	683b      	ldr	r3, [r7, #0]
    4290:	695b      	ldr	r3, [r3, #20]
    4292:	2b00      	cmp	r3, #0
    4294:	d005      	beq.n	42a2 <uart_irq_handler+0x18e>
    4296:	683b      	ldr	r3, [r7, #0]
    4298:	695b      	ldr	r3, [r3, #20]
    429a:	4619      	mov	r1, r3
    429c:	6838      	ldr	r0, [r7, #0]
    429e:	f7ff ff1e 	bl	40de <tx_done_event>
    42a2:	f44f 71a2 	mov.w	r1, #324	; 0x144
    42a6:	6878      	ldr	r0, [r7, #4]
    42a8:	f7ff faa5 	bl	37f6 <nrf_uart_event_check>
    42ac:	4603      	mov	r3, r0
    42ae:	2b00      	cmp	r3, #0
    42b0:	d01c      	beq.n	42ec <uart_irq_handler+0x1d8>
    42b2:	f44f 71a2 	mov.w	r1, #324	; 0x144
    42b6:	6878      	ldr	r0, [r7, #4]
    42b8:	f7ff fa86 	bl	37c8 <nrf_uart_event_clear>
    42bc:	683b      	ldr	r3, [r7, #0]
    42be:	f893 3029 	ldrb.w	r3, [r3, #41]	; 0x29
    42c2:	2b00      	cmp	r3, #0
    42c4:	d003      	beq.n	42ce <uart_irq_handler+0x1ba>
    42c6:	2100      	movs	r1, #0
    42c8:	6878      	ldr	r0, [r7, #4]
    42ca:	f7ff fba3 	bl	3a14 <nrf_uart_task_trigger>
    42ce:	683b      	ldr	r3, [r7, #0]
    42d0:	699b      	ldr	r3, [r3, #24]
    42d2:	2b00      	cmp	r3, #0
    42d4:	d00a      	beq.n	42ec <uart_irq_handler+0x1d8>
    42d6:	683b      	ldr	r3, [r7, #0]
    42d8:	2200      	movs	r2, #0
    42da:	619a      	str	r2, [r3, #24]
    42dc:	683b      	ldr	r3, [r7, #0]
    42de:	6a59      	ldr	r1, [r3, #36]	; 0x24
    42e0:	683b      	ldr	r3, [r7, #0]
    42e2:	68db      	ldr	r3, [r3, #12]
    42e4:	461a      	mov	r2, r3
    42e6:	6838      	ldr	r0, [r7, #0]
    42e8:	f7ff fee1 	bl	40ae <rx_done_event>
    42ec:	bf00      	nop
    42ee:	3728      	adds	r7, #40	; 0x28
    42f0:	46bd      	mov	sp, r7
    42f2:	bd80      	pop	{r7, pc}

000042f4 <nrfx_uart_0_irq_handler>:
    42f4:	b580      	push	{r7, lr}
    42f6:	af00      	add	r7, sp, #0
    42f8:	4902      	ldr	r1, [pc, #8]	; (4304 <nrfx_uart_0_irq_handler+0x10>)
    42fa:	4803      	ldr	r0, [pc, #12]	; (4308 <nrfx_uart_0_irq_handler+0x14>)
    42fc:	f7ff ff0a 	bl	4114 <uart_irq_handler>
    4300:	bf00      	nop
    4302:	bd80      	pop	{r7, pc}
    4304:	200006ac 	.word	0x200006ac
    4308:	40002000 	.word	0x40002000

0000430c <__NVIC_EnableIRQ>:
    430c:	b480      	push	{r7}
    430e:	b083      	sub	sp, #12
    4310:	af00      	add	r7, sp, #0
    4312:	4603      	mov	r3, r0
    4314:	71fb      	strb	r3, [r7, #7]
    4316:	f997 3007 	ldrsb.w	r3, [r7, #7]
    431a:	2b00      	cmp	r3, #0
    431c:	db0b      	blt.n	4336 <__NVIC_EnableIRQ+0x2a>
    431e:	79fb      	ldrb	r3, [r7, #7]
    4320:	f003 021f 	and.w	r2, r3, #31
    4324:	4907      	ldr	r1, [pc, #28]	; (4344 <__NVIC_EnableIRQ+0x38>)
    4326:	f997 3007 	ldrsb.w	r3, [r7, #7]
    432a:	095b      	lsrs	r3, r3, #5
    432c:	2001      	movs	r0, #1
    432e:	fa00 f202 	lsl.w	r2, r0, r2
    4332:	f841 2023 	str.w	r2, [r1, r3, lsl #2]
    4336:	bf00      	nop
    4338:	370c      	adds	r7, #12
    433a:	46bd      	mov	sp, r7
    433c:	f85d 7b04 	ldr.w	r7, [sp], #4
    4340:	4770      	bx	lr
    4342:	bf00      	nop
    4344:	e000e100 	.word	0xe000e100

00004348 <__NVIC_DisableIRQ>:
    4348:	b480      	push	{r7}
    434a:	b083      	sub	sp, #12
    434c:	af00      	add	r7, sp, #0
    434e:	4603      	mov	r3, r0
    4350:	71fb      	strb	r3, [r7, #7]
    4352:	f997 3007 	ldrsb.w	r3, [r7, #7]
    4356:	2b00      	cmp	r3, #0
    4358:	db12      	blt.n	4380 <__NVIC_DisableIRQ+0x38>
    435a:	79fb      	ldrb	r3, [r7, #7]
    435c:	f003 021f 	and.w	r2, r3, #31
    4360:	490a      	ldr	r1, [pc, #40]	; (438c <__NVIC_DisableIRQ+0x44>)
    4362:	f997 3007 	ldrsb.w	r3, [r7, #7]
    4366:	095b      	lsrs	r3, r3, #5
    4368:	2001      	movs	r0, #1
    436a:	fa00 f202 	lsl.w	r2, r0, r2
    436e:	3320      	adds	r3, #32
    4370:	f841 2023 	str.w	r2, [r1, r3, lsl #2]
    4374:	f3bf 8f4f 	dsb	sy
    4378:	bf00      	nop
    437a:	f3bf 8f6f 	isb	sy
    437e:	bf00      	nop
    4380:	bf00      	nop
    4382:	370c      	adds	r7, #12
    4384:	46bd      	mov	sp, r7
    4386:	f85d 7b04 	ldr.w	r7, [sp], #4
    438a:	4770      	bx	lr
    438c:	e000e100 	.word	0xe000e100

00004390 <__NVIC_SetPriority>:
    4390:	b480      	push	{r7}
    4392:	b083      	sub	sp, #12
    4394:	af00      	add	r7, sp, #0
    4396:	4603      	mov	r3, r0
    4398:	6039      	str	r1, [r7, #0]
    439a:	71fb      	strb	r3, [r7, #7]
    439c:	f997 3007 	ldrsb.w	r3, [r7, #7]
    43a0:	2b00      	cmp	r3, #0
    43a2:	db0a      	blt.n	43ba <__NVIC_SetPriority+0x2a>
    43a4:	683b      	ldr	r3, [r7, #0]
    43a6:	b2da      	uxtb	r2, r3
    43a8:	490c      	ldr	r1, [pc, #48]	; (43dc <__NVIC_SetPriority+0x4c>)
    43aa:	f997 3007 	ldrsb.w	r3, [r7, #7]
    43ae:	0152      	lsls	r2, r2, #5
    43b0:	b2d2      	uxtb	r2, r2
    43b2:	440b      	add	r3, r1
    43b4:	f883 2300 	strb.w	r2, [r3, #768]	; 0x300
    43b8:	e00a      	b.n	43d0 <__NVIC_SetPriority+0x40>
    43ba:	683b      	ldr	r3, [r7, #0]
    43bc:	b2da      	uxtb	r2, r3
    43be:	4908      	ldr	r1, [pc, #32]	; (43e0 <__NVIC_SetPriority+0x50>)
    43c0:	79fb      	ldrb	r3, [r7, #7]
    43c2:	f003 030f 	and.w	r3, r3, #15
    43c6:	3b04      	subs	r3, #4
    43c8:	0152      	lsls	r2, r2, #5
    43ca:	b2d2      	uxtb	r2, r2
    43cc:	440b      	add	r3, r1
    43ce:	761a      	strb	r2, [r3, #24]
    43d0:	bf00      	nop
    43d2:	370c      	adds	r7, #12
    43d4:	46bd      	mov	sp, r7
    43d6:	f85d 7b04 	ldr.w	r7, [sp], #4
    43da:	4770      	bx	lr
    43dc:	e000e100 	.word	0xe000e100
    43e0:	e000ed00 	.word	0xe000ed00

000043e4 <nrfx_is_in_ram>:
    43e4:	b480      	push	{r7}
    43e6:	b083      	sub	sp, #12
    43e8:	af00      	add	r7, sp, #0
    43ea:	6078      	str	r0, [r7, #4]
    43ec:	687b      	ldr	r3, [r7, #4]
    43ee:	f003 4360 	and.w	r3, r3, #3758096384	; 0xe0000000
    43f2:	f1b3 5f00 	cmp.w	r3, #536870912	; 0x20000000
    43f6:	bf0c      	ite	eq
    43f8:	2301      	moveq	r3, #1
    43fa:	2300      	movne	r3, #0
    43fc:	b2db      	uxtb	r3, r3
    43fe:	4618      	mov	r0, r3
    4400:	370c      	adds	r7, #12
    4402:	46bd      	mov	sp, r7
    4404:	f85d 7b04 	ldr.w	r7, [sp], #4
    4408:	4770      	bx	lr

0000440a <nrfx_get_irq_number>:
    440a:	b480      	push	{r7}
    440c:	b083      	sub	sp, #12
    440e:	af00      	add	r7, sp, #0
    4410:	6078      	str	r0, [r7, #4]
    4412:	687b      	ldr	r3, [r7, #4]
    4414:	0b1b      	lsrs	r3, r3, #12
    4416:	b25b      	sxtb	r3, r3
    4418:	4618      	mov	r0, r3
    441a:	370c      	adds	r7, #12
    441c:	46bd      	mov	sp, r7
    441e:	f85d 7b04 	ldr.w	r7, [sp], #4
    4422:	4770      	bx	lr

00004424 <_NRFX_IRQ_PRIORITY_SET>:
    4424:	b580      	push	{r7, lr}
    4426:	b082      	sub	sp, #8
    4428:	af00      	add	r7, sp, #0
    442a:	4603      	mov	r3, r0
    442c:	460a      	mov	r2, r1
    442e:	71fb      	strb	r3, [r7, #7]
    4430:	4613      	mov	r3, r2
    4432:	71bb      	strb	r3, [r7, #6]
    4434:	79ba      	ldrb	r2, [r7, #6]
    4436:	f997 3007 	ldrsb.w	r3, [r7, #7]
    443a:	4611      	mov	r1, r2
    443c:	4618      	mov	r0, r3
    443e:	f7ff ffa7 	bl	4390 <__NVIC_SetPriority>
    4442:	bf00      	nop
    4444:	3708      	adds	r7, #8
    4446:	46bd      	mov	sp, r7
    4448:	bd80      	pop	{r7, pc}

0000444a <_NRFX_IRQ_ENABLE>:
    444a:	b580      	push	{r7, lr}
    444c:	b082      	sub	sp, #8
    444e:	af00      	add	r7, sp, #0
    4450:	4603      	mov	r3, r0
    4452:	71fb      	strb	r3, [r7, #7]
    4454:	f997 3007 	ldrsb.w	r3, [r7, #7]
    4458:	4618      	mov	r0, r3
    445a:	f7ff ff57 	bl	430c <__NVIC_EnableIRQ>
    445e:	bf00      	nop
    4460:	3708      	adds	r7, #8
    4462:	46bd      	mov	sp, r7
    4464:	bd80      	pop	{r7, pc}

00004466 <_NRFX_IRQ_DISABLE>:
    4466:	b580      	push	{r7, lr}
    4468:	b082      	sub	sp, #8
    446a:	af00      	add	r7, sp, #0
    446c:	4603      	mov	r3, r0
    446e:	71fb      	strb	r3, [r7, #7]
    4470:	f997 3007 	ldrsb.w	r3, [r7, #7]
    4474:	4618      	mov	r0, r3
    4476:	f7ff ff67 	bl	4348 <__NVIC_DisableIRQ>
    447a:	bf00      	nop
    447c:	3708      	adds	r7, #8
    447e:	46bd      	mov	sp, r7
    4480:	bd80      	pop	{r7, pc}

00004482 <nrf_uarte_event_clear>:
    4482:	b480      	push	{r7}
    4484:	b085      	sub	sp, #20
    4486:	af00      	add	r7, sp, #0
    4488:	6078      	str	r0, [r7, #4]
    448a:	460b      	mov	r3, r1
    448c:	807b      	strh	r3, [r7, #2]
    448e:	887b      	ldrh	r3, [r7, #2]
    4490:	687a      	ldr	r2, [r7, #4]
    4492:	4413      	add	r3, r2
    4494:	2200      	movs	r2, #0
    4496:	601a      	str	r2, [r3, #0]
    4498:	887b      	ldrh	r3, [r7, #2]
    449a:	687a      	ldr	r2, [r7, #4]
    449c:	4413      	add	r3, r2
    449e:	681b      	ldr	r3, [r3, #0]
    44a0:	60fb      	str	r3, [r7, #12]
    44a2:	68fb      	ldr	r3, [r7, #12]
    44a4:	bf00      	nop
    44a6:	3714      	adds	r7, #20
    44a8:	46bd      	mov	sp, r7
    44aa:	f85d 7b04 	ldr.w	r7, [sp], #4
    44ae:	4770      	bx	lr

000044b0 <nrf_uarte_event_check>:
    44b0:	b480      	push	{r7}
    44b2:	b083      	sub	sp, #12
    44b4:	af00      	add	r7, sp, #0
    44b6:	6078      	str	r0, [r7, #4]
    44b8:	460b      	mov	r3, r1
    44ba:	807b      	strh	r3, [r7, #2]
    44bc:	887b      	ldrh	r3, [r7, #2]
    44be:	687a      	ldr	r2, [r7, #4]
    44c0:	4413      	add	r3, r2
    44c2:	681b      	ldr	r3, [r3, #0]
    44c4:	2b00      	cmp	r3, #0
    44c6:	bf14      	ite	ne
    44c8:	2301      	movne	r3, #1
    44ca:	2300      	moveq	r3, #0
    44cc:	b2db      	uxtb	r3, r3
    44ce:	4618      	mov	r0, r3
    44d0:	370c      	adds	r7, #12
    44d2:	46bd      	mov	sp, r7
    44d4:	f85d 7b04 	ldr.w	r7, [sp], #4
    44d8:	4770      	bx	lr

000044da <nrf_uarte_shorts_disable>:
    44da:	b480      	push	{r7}
    44dc:	b083      	sub	sp, #12
    44de:	af00      	add	r7, sp, #0
    44e0:	6078      	str	r0, [r7, #4]
    44e2:	6039      	str	r1, [r7, #0]
    44e4:	687b      	ldr	r3, [r7, #4]
    44e6:	f8d3 2200 	ldr.w	r2, [r3, #512]	; 0x200
    44ea:	683b      	ldr	r3, [r7, #0]
    44ec:	43db      	mvns	r3, r3
    44ee:	401a      	ands	r2, r3
    44f0:	687b      	ldr	r3, [r7, #4]
    44f2:	f8c3 2200 	str.w	r2, [r3, #512]	; 0x200
    44f6:	bf00      	nop
    44f8:	370c      	adds	r7, #12
    44fa:	46bd      	mov	sp, r7
    44fc:	f85d 7b04 	ldr.w	r7, [sp], #4
    4500:	4770      	bx	lr

00004502 <nrf_uarte_int_enable>:
    4502:	b480      	push	{r7}
    4504:	b083      	sub	sp, #12
    4506:	af00      	add	r7, sp, #0
    4508:	6078      	str	r0, [r7, #4]
    450a:	6039      	str	r1, [r7, #0]
    450c:	687b      	ldr	r3, [r7, #4]
    450e:	683a      	ldr	r2, [r7, #0]
    4510:	f8c3 2304 	str.w	r2, [r3, #772]	; 0x304
    4514:	bf00      	nop
    4516:	370c      	adds	r7, #12
    4518:	46bd      	mov	sp, r7
    451a:	f85d 7b04 	ldr.w	r7, [sp], #4
    451e:	4770      	bx	lr

00004520 <nrf_uarte_int_disable>:
    4520:	b480      	push	{r7}
    4522:	b083      	sub	sp, #12
    4524:	af00      	add	r7, sp, #0
    4526:	6078      	str	r0, [r7, #4]
    4528:	6039      	str	r1, [r7, #0]
    452a:	687b      	ldr	r3, [r7, #4]
    452c:	683a      	ldr	r2, [r7, #0]
    452e:	f8c3 2308 	str.w	r2, [r3, #776]	; 0x308
    4532:	bf00      	nop
    4534:	370c      	adds	r7, #12
    4536:	46bd      	mov	sp, r7
    4538:	f85d 7b04 	ldr.w	r7, [sp], #4
    453c:	4770      	bx	lr

0000453e <nrf_uarte_errorsrc_get_and_clear>:
    453e:	b480      	push	{r7}
    4540:	b085      	sub	sp, #20
    4542:	af00      	add	r7, sp, #0
    4544:	6078      	str	r0, [r7, #4]
    4546:	687b      	ldr	r3, [r7, #4]
    4548:	f8d3 3480 	ldr.w	r3, [r3, #1152]	; 0x480
    454c:	60fb      	str	r3, [r7, #12]
    454e:	687b      	ldr	r3, [r7, #4]
    4550:	68fa      	ldr	r2, [r7, #12]
    4552:	f8c3 2480 	str.w	r2, [r3, #1152]	; 0x480
    4556:	68fb      	ldr	r3, [r7, #12]
    4558:	4618      	mov	r0, r3
    455a:	3714      	adds	r7, #20
    455c:	46bd      	mov	sp, r7
    455e:	f85d 7b04 	ldr.w	r7, [sp], #4
    4562:	4770      	bx	lr

00004564 <nrf_uarte_enable>:
    4564:	b480      	push	{r7}
    4566:	b083      	sub	sp, #12
    4568:	af00      	add	r7, sp, #0
    456a:	6078      	str	r0, [r7, #4]
    456c:	687b      	ldr	r3, [r7, #4]
    456e:	2208      	movs	r2, #8
    4570:	f8c3 2500 	str.w	r2, [r3, #1280]	; 0x500
    4574:	bf00      	nop
    4576:	370c      	adds	r7, #12
    4578:	46bd      	mov	sp, r7
    457a:	f85d 7b04 	ldr.w	r7, [sp], #4
    457e:	4770      	bx	lr

00004580 <nrf_uarte_disable>:
    4580:	b480      	push	{r7}
    4582:	b083      	sub	sp, #12
    4584:	af00      	add	r7, sp, #0
    4586:	6078      	str	r0, [r7, #4]
    4588:	687b      	ldr	r3, [r7, #4]
    458a:	2200      	movs	r2, #0
    458c:	f8c3 2500 	str.w	r2, [r3, #1280]	; 0x500
    4590:	bf00      	nop
    4592:	370c      	adds	r7, #12
    4594:	46bd      	mov	sp, r7
    4596:	f85d 7b04 	ldr.w	r7, [sp], #4
    459a:	4770      	bx	lr

0000459c <nrf_uarte_txrx_pins_set>:
    459c:	b480      	push	{r7}
    459e:	b085      	sub	sp, #20
    45a0:	af00      	add	r7, sp, #0
    45a2:	60f8      	str	r0, [r7, #12]
    45a4:	60b9      	str	r1, [r7, #8]
    45a6:	607a      	str	r2, [r7, #4]
    45a8:	68fb      	ldr	r3, [r7, #12]
    45aa:	68ba      	ldr	r2, [r7, #8]
    45ac:	f8c3 250c 	str.w	r2, [r3, #1292]	; 0x50c
    45b0:	68fb      	ldr	r3, [r7, #12]
    45b2:	687a      	ldr	r2, [r7, #4]
    45b4:	f8c3 2514 	str.w	r2, [r3, #1300]	; 0x514
    45b8:	bf00      	nop
    45ba:	3714      	adds	r7, #20
    45bc:	46bd      	mov	sp, r7
    45be:	f85d 7b04 	ldr.w	r7, [sp], #4
    45c2:	4770      	bx	lr

000045c4 <nrf_uarte_txrx_pins_disconnect>:
    45c4:	b580      	push	{r7, lr}
    45c6:	b082      	sub	sp, #8
    45c8:	af00      	add	r7, sp, #0
    45ca:	6078      	str	r0, [r7, #4]
    45cc:	f04f 32ff 	mov.w	r2, #4294967295	; 0xffffffff
    45d0:	f04f 31ff 	mov.w	r1, #4294967295	; 0xffffffff
    45d4:	6878      	ldr	r0, [r7, #4]
    45d6:	f7ff ffe1 	bl	459c <nrf_uarte_txrx_pins_set>
    45da:	bf00      	nop
    45dc:	3708      	adds	r7, #8
    45de:	46bd      	mov	sp, r7
    45e0:	bd80      	pop	{r7, pc}

000045e2 <nrf_uarte_tx_pin_get>:
    45e2:	b480      	push	{r7}
    45e4:	b083      	sub	sp, #12
    45e6:	af00      	add	r7, sp, #0
    45e8:	6078      	str	r0, [r7, #4]
    45ea:	687b      	ldr	r3, [r7, #4]
    45ec:	f8d3 350c 	ldr.w	r3, [r3, #1292]	; 0x50c
    45f0:	4618      	mov	r0, r3
    45f2:	370c      	adds	r7, #12
    45f4:	46bd      	mov	sp, r7
    45f6:	f85d 7b04 	ldr.w	r7, [sp], #4
    45fa:	4770      	bx	lr

000045fc <nrf_uarte_rx_pin_get>:
    45fc:	b480      	push	{r7}
    45fe:	b083      	sub	sp, #12
    4600:	af00      	add	r7, sp, #0
    4602:	6078      	str	r0, [r7, #4]
    4604:	687b      	ldr	r3, [r7, #4]
    4606:	f8d3 3514 	ldr.w	r3, [r3, #1300]	; 0x514
    460a:	4618      	mov	r0, r3
    460c:	370c      	adds	r7, #12
    460e:	46bd      	mov	sp, r7
    4610:	f85d 7b04 	ldr.w	r7, [sp], #4
    4614:	4770      	bx	lr

00004616 <nrf_uarte_rts_pin_get>:
    4616:	b480      	push	{r7}
    4618:	b083      	sub	sp, #12
    461a:	af00      	add	r7, sp, #0
    461c:	6078      	str	r0, [r7, #4]
    461e:	687b      	ldr	r3, [r7, #4]
    4620:	f8d3 3508 	ldr.w	r3, [r3, #1288]	; 0x508
    4624:	4618      	mov	r0, r3
    4626:	370c      	adds	r7, #12
    4628:	46bd      	mov	sp, r7
    462a:	f85d 7b04 	ldr.w	r7, [sp], #4
    462e:	4770      	bx	lr

00004630 <nrf_uarte_cts_pin_get>:
    4630:	b480      	push	{r7}
    4632:	b083      	sub	sp, #12
    4634:	af00      	add	r7, sp, #0
    4636:	6078      	str	r0, [r7, #4]
    4638:	687b      	ldr	r3, [r7, #4]
    463a:	f8d3 3510 	ldr.w	r3, [r3, #1296]	; 0x510
    463e:	4618      	mov	r0, r3
    4640:	370c      	adds	r7, #12
    4642:	46bd      	mov	sp, r7
    4644:	f85d 7b04 	ldr.w	r7, [sp], #4
    4648:	4770      	bx	lr

0000464a <nrf_uarte_hwfc_pins_set>:
    464a:	b480      	push	{r7}
    464c:	b085      	sub	sp, #20
    464e:	af00      	add	r7, sp, #0
    4650:	60f8      	str	r0, [r7, #12]
    4652:	60b9      	str	r1, [r7, #8]
    4654:	607a      	str	r2, [r7, #4]
    4656:	68fb      	ldr	r3, [r7, #12]
    4658:	68ba      	ldr	r2, [r7, #8]
    465a:	f8c3 2508 	str.w	r2, [r3, #1288]	; 0x508
    465e:	68fb      	ldr	r3, [r7, #12]
    4660:	687a      	ldr	r2, [r7, #4]
    4662:	f8c3 2510 	str.w	r2, [r3, #1296]	; 0x510
    4666:	bf00      	nop
    4668:	3714      	adds	r7, #20
    466a:	46bd      	mov	sp, r7
    466c:	f85d 7b04 	ldr.w	r7, [sp], #4
    4670:	4770      	bx	lr

00004672 <nrf_uarte_hwfc_pins_disconnect>:
    4672:	b580      	push	{r7, lr}
    4674:	b082      	sub	sp, #8
    4676:	af00      	add	r7, sp, #0
    4678:	6078      	str	r0, [r7, #4]
    467a:	f04f 32ff 	mov.w	r2, #4294967295	; 0xffffffff
    467e:	f04f 31ff 	mov.w	r1, #4294967295	; 0xffffffff
    4682:	6878      	ldr	r0, [r7, #4]
    4684:	f7ff ffe1 	bl	464a <nrf_uarte_hwfc_pins_set>
    4688:	bf00      	nop
    468a:	3708      	adds	r7, #8
    468c:	46bd      	mov	sp, r7
    468e:	bd80      	pop	{r7, pc}

00004690 <nrf_uarte_task_trigger>:
    4690:	b480      	push	{r7}
    4692:	b083      	sub	sp, #12
    4694:	af00      	add	r7, sp, #0
    4696:	6078      	str	r0, [r7, #4]
    4698:	460b      	mov	r3, r1
    469a:	70fb      	strb	r3, [r7, #3]
    469c:	78fb      	ldrb	r3, [r7, #3]
    469e:	687a      	ldr	r2, [r7, #4]
    46a0:	4413      	add	r3, r2
    46a2:	2201      	movs	r2, #1
    46a4:	601a      	str	r2, [r3, #0]
    46a6:	bf00      	nop
    46a8:	370c      	adds	r7, #12
    46aa:	46bd      	mov	sp, r7
    46ac:	f85d 7b04 	ldr.w	r7, [sp], #4
    46b0:	4770      	bx	lr

000046b2 <nrf_uarte_configure>:
    46b2:	b480      	push	{r7}
    46b4:	b083      	sub	sp, #12
    46b6:	af00      	add	r7, sp, #0
    46b8:	6078      	str	r0, [r7, #4]
    46ba:	460b      	mov	r3, r1
    46bc:	70fb      	strb	r3, [r7, #3]
    46be:	4613      	mov	r3, r2
    46c0:	70bb      	strb	r3, [r7, #2]
    46c2:	78fa      	ldrb	r2, [r7, #3]
    46c4:	78bb      	ldrb	r3, [r7, #2]
    46c6:	4313      	orrs	r3, r2
    46c8:	b2db      	uxtb	r3, r3
    46ca:	461a      	mov	r2, r3
    46cc:	687b      	ldr	r3, [r7, #4]
    46ce:	f8c3 256c 	str.w	r2, [r3, #1388]	; 0x56c
    46d2:	bf00      	nop
    46d4:	370c      	adds	r7, #12
    46d6:	46bd      	mov	sp, r7
    46d8:	f85d 7b04 	ldr.w	r7, [sp], #4
    46dc:	4770      	bx	lr

000046de <nrf_uarte_baudrate_set>:
    46de:	b480      	push	{r7}
    46e0:	b083      	sub	sp, #12
    46e2:	af00      	add	r7, sp, #0
    46e4:	6078      	str	r0, [r7, #4]
    46e6:	6039      	str	r1, [r7, #0]
    46e8:	687b      	ldr	r3, [r7, #4]
    46ea:	683a      	ldr	r2, [r7, #0]
    46ec:	f8c3 2524 	str.w	r2, [r3, #1316]	; 0x524
    46f0:	bf00      	nop
    46f2:	370c      	adds	r7, #12
    46f4:	46bd      	mov	sp, r7
    46f6:	f85d 7b04 	ldr.w	r7, [sp], #4
    46fa:	4770      	bx	lr

000046fc <nrf_uarte_tx_buffer_set>:
    46fc:	b480      	push	{r7}
    46fe:	b085      	sub	sp, #20
    4700:	af00      	add	r7, sp, #0
    4702:	60f8      	str	r0, [r7, #12]
    4704:	60b9      	str	r1, [r7, #8]
    4706:	607a      	str	r2, [r7, #4]
    4708:	68ba      	ldr	r2, [r7, #8]
    470a:	68fb      	ldr	r3, [r7, #12]
    470c:	f8c3 2544 	str.w	r2, [r3, #1348]	; 0x544
    4710:	68fb      	ldr	r3, [r7, #12]
    4712:	687a      	ldr	r2, [r7, #4]
    4714:	f8c3 2548 	str.w	r2, [r3, #1352]	; 0x548
    4718:	bf00      	nop
    471a:	3714      	adds	r7, #20
    471c:	46bd      	mov	sp, r7
    471e:	f85d 7b04 	ldr.w	r7, [sp], #4
    4722:	4770      	bx	lr

00004724 <nrf_uarte_tx_amount_get>:
    4724:	b480      	push	{r7}
    4726:	b083      	sub	sp, #12
    4728:	af00      	add	r7, sp, #0
    472a:	6078      	str	r0, [r7, #4]
    472c:	687b      	ldr	r3, [r7, #4]
    472e:	f8d3 354c 	ldr.w	r3, [r3, #1356]	; 0x54c
    4732:	4618      	mov	r0, r3
    4734:	370c      	adds	r7, #12
    4736:	46bd      	mov	sp, r7
    4738:	f85d 7b04 	ldr.w	r7, [sp], #4
    473c:	4770      	bx	lr

0000473e <nrf_uarte_rx_amount_get>:
    473e:	b480      	push	{r7}
    4740:	b083      	sub	sp, #12
    4742:	af00      	add	r7, sp, #0
    4744:	6078      	str	r0, [r7, #4]
    4746:	687b      	ldr	r3, [r7, #4]
    4748:	f8d3 353c 	ldr.w	r3, [r3, #1340]	; 0x53c
    474c:	4618      	mov	r0, r3
    474e:	370c      	adds	r7, #12
    4750:	46bd      	mov	sp, r7
    4752:	f85d 7b04 	ldr.w	r7, [sp], #4
    4756:	4770      	bx	lr

00004758 <nrf_gpio_pin_port_decode>:
    4758:	b480      	push	{r7}
    475a:	b083      	sub	sp, #12
    475c:	af00      	add	r7, sp, #0
    475e:	6078      	str	r0, [r7, #4]
    4760:	f04f 43a0 	mov.w	r3, #1342177280	; 0x50000000
    4764:	4618      	mov	r0, r3
    4766:	370c      	adds	r7, #12
    4768:	46bd      	mov	sp, r7
    476a:	f85d 7b04 	ldr.w	r7, [sp], #4
    476e:	4770      	bx	lr

00004770 <nrf_gpio_cfg>:
    4770:	b580      	push	{r7, lr}
    4772:	b084      	sub	sp, #16
    4774:	af00      	add	r7, sp, #0
    4776:	6078      	str	r0, [r7, #4]
    4778:	4608      	mov	r0, r1
    477a:	4611      	mov	r1, r2
    477c:	461a      	mov	r2, r3
    477e:	4603      	mov	r3, r0
    4780:	70fb      	strb	r3, [r7, #3]
    4782:	460b      	mov	r3, r1
    4784:	70bb      	strb	r3, [r7, #2]
    4786:	4613      	mov	r3, r2
    4788:	707b      	strb	r3, [r7, #1]
    478a:	1d3b      	adds	r3, r7, #4
    478c:	4618      	mov	r0, r3
    478e:	f7ff ffe3 	bl	4758 <nrf_gpio_pin_port_decode>
    4792:	60f8      	str	r0, [r7, #12]
    4794:	78fa      	ldrb	r2, [r7, #3]
    4796:	78bb      	ldrb	r3, [r7, #2]
    4798:	005b      	lsls	r3, r3, #1
    479a:	431a      	orrs	r2, r3
    479c:	787b      	ldrb	r3, [r7, #1]
    479e:	009b      	lsls	r3, r3, #2
    47a0:	431a      	orrs	r2, r3
    47a2:	7e3b      	ldrb	r3, [r7, #24]
    47a4:	021b      	lsls	r3, r3, #8
    47a6:	ea42 0103 	orr.w	r1, r2, r3
    47aa:	7f3b      	ldrb	r3, [r7, #28]
    47ac:	041b      	lsls	r3, r3, #16
    47ae:	687a      	ldr	r2, [r7, #4]
    47b0:	4319      	orrs	r1, r3
    47b2:	68fb      	ldr	r3, [r7, #12]
    47b4:	f502 72e0 	add.w	r2, r2, #448	; 0x1c0
    47b8:	f843 1022 	str.w	r1, [r3, r2, lsl #2]
    47bc:	bf00      	nop
    47be:	3710      	adds	r7, #16
    47c0:	46bd      	mov	sp, r7
    47c2:	bd80      	pop	{r7, pc}

000047c4 <nrf_gpio_cfg_output>:
    47c4:	b580      	push	{r7, lr}
    47c6:	b084      	sub	sp, #16
    47c8:	af02      	add	r7, sp, #8
    47ca:	6078      	str	r0, [r7, #4]
    47cc:	2300      	movs	r3, #0
    47ce:	9301      	str	r3, [sp, #4]
    47d0:	2300      	movs	r3, #0
    47d2:	9300      	str	r3, [sp, #0]
    47d4:	2300      	movs	r3, #0
    47d6:	2201      	movs	r2, #1
    47d8:	2101      	movs	r1, #1
    47da:	6878      	ldr	r0, [r7, #4]
    47dc:	f7ff ffc8 	bl	4770 <nrf_gpio_cfg>
    47e0:	bf00      	nop
    47e2:	3708      	adds	r7, #8
    47e4:	46bd      	mov	sp, r7
    47e6:	bd80      	pop	{r7, pc}

000047e8 <nrf_gpio_cfg_input>:
    47e8:	b580      	push	{r7, lr}
    47ea:	b084      	sub	sp, #16
    47ec:	af02      	add	r7, sp, #8
    47ee:	6078      	str	r0, [r7, #4]
    47f0:	460b      	mov	r3, r1
    47f2:	70fb      	strb	r3, [r7, #3]
    47f4:	78fb      	ldrb	r3, [r7, #3]
    47f6:	2200      	movs	r2, #0
    47f8:	9201      	str	r2, [sp, #4]
    47fa:	2200      	movs	r2, #0
    47fc:	9200      	str	r2, [sp, #0]
    47fe:	2200      	movs	r2, #0
    4800:	2100      	movs	r1, #0
    4802:	6878      	ldr	r0, [r7, #4]
    4804:	f7ff ffb4 	bl	4770 <nrf_gpio_cfg>
    4808:	bf00      	nop
    480a:	3708      	adds	r7, #8
    480c:	46bd      	mov	sp, r7
    480e:	bd80      	pop	{r7, pc}

00004810 <nrf_gpio_cfg_default>:
    4810:	b580      	push	{r7, lr}
    4812:	b084      	sub	sp, #16
    4814:	af02      	add	r7, sp, #8
    4816:	6078      	str	r0, [r7, #4]
    4818:	2300      	movs	r3, #0
    481a:	9301      	str	r3, [sp, #4]
    481c:	2300      	movs	r3, #0
    481e:	9300      	str	r3, [sp, #0]
    4820:	2300      	movs	r3, #0
    4822:	2201      	movs	r2, #1
    4824:	2100      	movs	r1, #0
    4826:	6878      	ldr	r0, [r7, #4]
    4828:	f7ff ffa2 	bl	4770 <nrf_gpio_cfg>
    482c:	bf00      	nop
    482e:	3708      	adds	r7, #8
    4830:	46bd      	mov	sp, r7
    4832:	bd80      	pop	{r7, pc}

00004834 <nrf_gpio_pin_set>:
    4834:	b580      	push	{r7, lr}
    4836:	b084      	sub	sp, #16
    4838:	af00      	add	r7, sp, #0
    483a:	6078      	str	r0, [r7, #4]
    483c:	1d3b      	adds	r3, r7, #4
    483e:	4618      	mov	r0, r3
    4840:	f7ff ff8a 	bl	4758 <nrf_gpio_pin_port_decode>
    4844:	60f8      	str	r0, [r7, #12]
    4846:	687b      	ldr	r3, [r7, #4]
    4848:	2201      	movs	r2, #1
    484a:	fa02 f303 	lsl.w	r3, r2, r3
    484e:	4619      	mov	r1, r3
    4850:	68f8      	ldr	r0, [r7, #12]
    4852:	f000 f804 	bl	485e <nrf_gpio_port_out_set>
    4856:	bf00      	nop
    4858:	3710      	adds	r7, #16
    485a:	46bd      	mov	sp, r7
    485c:	bd80      	pop	{r7, pc}

0000485e <nrf_gpio_port_out_set>:
    485e:	b480      	push	{r7}
    4860:	b083      	sub	sp, #12
    4862:	af00      	add	r7, sp, #0
    4864:	6078      	str	r0, [r7, #4]
    4866:	6039      	str	r1, [r7, #0]
    4868:	687b      	ldr	r3, [r7, #4]
    486a:	683a      	ldr	r2, [r7, #0]
    486c:	f8c3 2508 	str.w	r2, [r3, #1288]	; 0x508
    4870:	bf00      	nop
    4872:	370c      	adds	r7, #12
    4874:	46bd      	mov	sp, r7
    4876:	f85d 7b04 	ldr.w	r7, [sp], #4
    487a:	4770      	bx	lr

0000487c <apply_config>:
    487c:	b580      	push	{r7, lr}
    487e:	b082      	sub	sp, #8
    4880:	af00      	add	r7, sp, #0
    4882:	6078      	str	r0, [r7, #4]
    4884:	6039      	str	r1, [r7, #0]
    4886:	683b      	ldr	r3, [r7, #0]
    4888:	681b      	ldr	r3, [r3, #0]
    488a:	f1b3 3fff 	cmp.w	r3, #4294967295	; 0xffffffff
    488e:	d009      	beq.n	48a4 <apply_config+0x28>
    4890:	683b      	ldr	r3, [r7, #0]
    4892:	681b      	ldr	r3, [r3, #0]
    4894:	4618      	mov	r0, r3
    4896:	f7ff ffcd 	bl	4834 <nrf_gpio_pin_set>
    489a:	683b      	ldr	r3, [r7, #0]
    489c:	681b      	ldr	r3, [r3, #0]
    489e:	4618      	mov	r0, r3
    48a0:	f7ff ff90 	bl	47c4 <nrf_gpio_cfg_output>
    48a4:	683b      	ldr	r3, [r7, #0]
    48a6:	685b      	ldr	r3, [r3, #4]
    48a8:	f1b3 3fff 	cmp.w	r3, #4294967295	; 0xffffffff
    48ac:	d005      	beq.n	48ba <apply_config+0x3e>
    48ae:	683b      	ldr	r3, [r7, #0]
    48b0:	685b      	ldr	r3, [r3, #4]
    48b2:	2100      	movs	r1, #0
    48b4:	4618      	mov	r0, r3
    48b6:	f7ff ff97 	bl	47e8 <nrf_gpio_cfg_input>
    48ba:	687b      	ldr	r3, [r7, #4]
    48bc:	681a      	ldr	r2, [r3, #0]
    48be:	683b      	ldr	r3, [r7, #0]
    48c0:	699b      	ldr	r3, [r3, #24]
    48c2:	4619      	mov	r1, r3
    48c4:	4610      	mov	r0, r2
    48c6:	f7ff ff0a 	bl	46de <nrf_uarte_baudrate_set>
    48ca:	687b      	ldr	r3, [r7, #4]
    48cc:	6818      	ldr	r0, [r3, #0]
    48ce:	683b      	ldr	r3, [r7, #0]
    48d0:	7d59      	ldrb	r1, [r3, #21]
    48d2:	683b      	ldr	r3, [r7, #0]
    48d4:	7d1b      	ldrb	r3, [r3, #20]
    48d6:	461a      	mov	r2, r3
    48d8:	f7ff feeb 	bl	46b2 <nrf_uarte_configure>
    48dc:	687b      	ldr	r3, [r7, #4]
    48de:	6818      	ldr	r0, [r3, #0]
    48e0:	683b      	ldr	r3, [r7, #0]
    48e2:	6819      	ldr	r1, [r3, #0]
    48e4:	683b      	ldr	r3, [r7, #0]
    48e6:	685b      	ldr	r3, [r3, #4]
    48e8:	461a      	mov	r2, r3
    48ea:	f7ff fe57 	bl	459c <nrf_uarte_txrx_pins_set>
    48ee:	683b      	ldr	r3, [r7, #0]
    48f0:	7d1b      	ldrb	r3, [r3, #20]
    48f2:	2b01      	cmp	r3, #1
    48f4:	d122      	bne.n	493c <apply_config+0xc0>
    48f6:	683b      	ldr	r3, [r7, #0]
    48f8:	689b      	ldr	r3, [r3, #8]
    48fa:	f1b3 3fff 	cmp.w	r3, #4294967295	; 0xffffffff
    48fe:	d005      	beq.n	490c <apply_config+0x90>
    4900:	683b      	ldr	r3, [r7, #0]
    4902:	689b      	ldr	r3, [r3, #8]
    4904:	2100      	movs	r1, #0
    4906:	4618      	mov	r0, r3
    4908:	f7ff ff6e 	bl	47e8 <nrf_gpio_cfg_input>
    490c:	683b      	ldr	r3, [r7, #0]
    490e:	68db      	ldr	r3, [r3, #12]
    4910:	f1b3 3fff 	cmp.w	r3, #4294967295	; 0xffffffff
    4914:	d009      	beq.n	492a <apply_config+0xae>
    4916:	683b      	ldr	r3, [r7, #0]
    4918:	68db      	ldr	r3, [r3, #12]
    491a:	4618      	mov	r0, r3
    491c:	f7ff ff8a 	bl	4834 <nrf_gpio_pin_set>
    4920:	683b      	ldr	r3, [r7, #0]
    4922:	68db      	ldr	r3, [r3, #12]
    4924:	4618      	mov	r0, r3
    4926:	f7ff ff4d 	bl	47c4 <nrf_gpio_cfg_output>
    492a:	687b      	ldr	r3, [r7, #4]
    492c:	6818      	ldr	r0, [r3, #0]
    492e:	683b      	ldr	r3, [r7, #0]
    4930:	68d9      	ldr	r1, [r3, #12]
    4932:	683b      	ldr	r3, [r7, #0]
    4934:	689b      	ldr	r3, [r3, #8]
    4936:	461a      	mov	r2, r3
    4938:	f7ff fe87 	bl	464a <nrf_uarte_hwfc_pins_set>
    493c:	bf00      	nop
    493e:	3708      	adds	r7, #8
    4940:	46bd      	mov	sp, r7
    4942:	bd80      	pop	{r7, pc}

00004944 <interrupts_enable>:
    4944:	b580      	push	{r7, lr}
    4946:	b082      	sub	sp, #8
    4948:	af00      	add	r7, sp, #0
    494a:	6078      	str	r0, [r7, #4]
    494c:	460b      	mov	r3, r1
    494e:	70fb      	strb	r3, [r7, #3]
    4950:	687b      	ldr	r3, [r7, #4]
    4952:	681b      	ldr	r3, [r3, #0]
    4954:	f44f 7188 	mov.w	r1, #272	; 0x110
    4958:	4618      	mov	r0, r3
    495a:	f7ff fd92 	bl	4482 <nrf_uarte_event_clear>
    495e:	687b      	ldr	r3, [r7, #4]
    4960:	681b      	ldr	r3, [r3, #0]
    4962:	f44f 7190 	mov.w	r1, #288	; 0x120
    4966:	4618      	mov	r0, r3
    4968:	f7ff fd8b 	bl	4482 <nrf_uarte_event_clear>
    496c:	687b      	ldr	r3, [r7, #4]
    496e:	681b      	ldr	r3, [r3, #0]
    4970:	f44f 7192 	mov.w	r1, #292	; 0x124
    4974:	4618      	mov	r0, r3
    4976:	f7ff fd84 	bl	4482 <nrf_uarte_event_clear>
    497a:	687b      	ldr	r3, [r7, #4]
    497c:	681b      	ldr	r3, [r3, #0]
    497e:	f44f 71a2 	mov.w	r1, #324	; 0x144
    4982:	4618      	mov	r0, r3
    4984:	f7ff fd7d 	bl	4482 <nrf_uarte_event_clear>
    4988:	687b      	ldr	r3, [r7, #4]
    498a:	681b      	ldr	r3, [r3, #0]
    498c:	f44f 71ac 	mov.w	r1, #344	; 0x158
    4990:	4618      	mov	r0, r3
    4992:	f7ff fd76 	bl	4482 <nrf_uarte_event_clear>
    4996:	687b      	ldr	r3, [r7, #4]
    4998:	681b      	ldr	r3, [r3, #0]
    499a:	490e      	ldr	r1, [pc, #56]	; (49d4 <interrupts_enable+0x90>)
    499c:	4618      	mov	r0, r3
    499e:	f7ff fdb0 	bl	4502 <nrf_uarte_int_enable>
    49a2:	687b      	ldr	r3, [r7, #4]
    49a4:	681b      	ldr	r3, [r3, #0]
    49a6:	4618      	mov	r0, r3
    49a8:	f7ff fd2f 	bl	440a <nrfx_get_irq_number>
    49ac:	4603      	mov	r3, r0
    49ae:	461a      	mov	r2, r3
    49b0:	78fb      	ldrb	r3, [r7, #3]
    49b2:	4619      	mov	r1, r3
    49b4:	4610      	mov	r0, r2
    49b6:	f7ff fd35 	bl	4424 <_NRFX_IRQ_PRIORITY_SET>
    49ba:	687b      	ldr	r3, [r7, #4]
    49bc:	681b      	ldr	r3, [r3, #0]
    49be:	4618      	mov	r0, r3
    49c0:	f7ff fd23 	bl	440a <nrfx_get_irq_number>
    49c4:	4603      	mov	r3, r0
    49c6:	4618      	mov	r0, r3
    49c8:	f7ff fd3f 	bl	444a <_NRFX_IRQ_ENABLE>
    49cc:	bf00      	nop
    49ce:	3708      	adds	r7, #8
    49d0:	46bd      	mov	sp, r7
    49d2:	bd80      	pop	{r7, pc}
    49d4:	00420310 	.word	0x00420310

000049d8 <interrupts_disable>:
    49d8:	b580      	push	{r7, lr}
    49da:	b082      	sub	sp, #8
    49dc:	af00      	add	r7, sp, #0
    49de:	6078      	str	r0, [r7, #4]
    49e0:	687b      	ldr	r3, [r7, #4]
    49e2:	681b      	ldr	r3, [r3, #0]
    49e4:	4908      	ldr	r1, [pc, #32]	; (4a08 <interrupts_disable+0x30>)
    49e6:	4618      	mov	r0, r3
    49e8:	f7ff fd9a 	bl	4520 <nrf_uarte_int_disable>
    49ec:	687b      	ldr	r3, [r7, #4]
    49ee:	681b      	ldr	r3, [r3, #0]
    49f0:	4618      	mov	r0, r3
    49f2:	f7ff fd0a 	bl	440a <nrfx_get_irq_number>
    49f6:	4603      	mov	r3, r0
    49f8:	4618      	mov	r0, r3
    49fa:	f7ff fd34 	bl	4466 <_NRFX_IRQ_DISABLE>
    49fe:	bf00      	nop
    4a00:	3708      	adds	r7, #8
    4a02:	46bd      	mov	sp, r7
    4a04:	bd80      	pop	{r7, pc}
    4a06:	bf00      	nop
    4a08:	00420310 	.word	0x00420310

00004a0c <pins_to_default>:
    4a0c:	b580      	push	{r7, lr}
    4a0e:	b086      	sub	sp, #24
    4a10:	af00      	add	r7, sp, #0
    4a12:	6078      	str	r0, [r7, #4]
    4a14:	687b      	ldr	r3, [r7, #4]
    4a16:	681b      	ldr	r3, [r3, #0]
    4a18:	4618      	mov	r0, r3
    4a1a:	f7ff fde2 	bl	45e2 <nrf_uarte_tx_pin_get>
    4a1e:	6178      	str	r0, [r7, #20]
    4a20:	687b      	ldr	r3, [r7, #4]
    4a22:	681b      	ldr	r3, [r3, #0]
    4a24:	4618      	mov	r0, r3
    4a26:	f7ff fde9 	bl	45fc <nrf_uarte_rx_pin_get>
    4a2a:	6138      	str	r0, [r7, #16]
    4a2c:	687b      	ldr	r3, [r7, #4]
    4a2e:	681b      	ldr	r3, [r3, #0]
    4a30:	4618      	mov	r0, r3
    4a32:	f7ff fdf0 	bl	4616 <nrf_uarte_rts_pin_get>
    4a36:	60f8      	str	r0, [r7, #12]
    4a38:	687b      	ldr	r3, [r7, #4]
    4a3a:	681b      	ldr	r3, [r3, #0]
    4a3c:	4618      	mov	r0, r3
    4a3e:	f7ff fdf7 	bl	4630 <nrf_uarte_cts_pin_get>
    4a42:	60b8      	str	r0, [r7, #8]
    4a44:	687b      	ldr	r3, [r7, #4]
    4a46:	681b      	ldr	r3, [r3, #0]
    4a48:	4618      	mov	r0, r3
    4a4a:	f7ff fdbb 	bl	45c4 <nrf_uarte_txrx_pins_disconnect>
    4a4e:	687b      	ldr	r3, [r7, #4]
    4a50:	681b      	ldr	r3, [r3, #0]
    4a52:	4618      	mov	r0, r3
    4a54:	f7ff fe0d 	bl	4672 <nrf_uarte_hwfc_pins_disconnect>
    4a58:	697b      	ldr	r3, [r7, #20]
    4a5a:	f1b3 3fff 	cmp.w	r3, #4294967295	; 0xffffffff
    4a5e:	d002      	beq.n	4a66 <pins_to_default+0x5a>
    4a60:	6978      	ldr	r0, [r7, #20]
    4a62:	f7ff fed5 	bl	4810 <nrf_gpio_cfg_default>
    4a66:	693b      	ldr	r3, [r7, #16]
    4a68:	f1b3 3fff 	cmp.w	r3, #4294967295	; 0xffffffff
    4a6c:	d002      	beq.n	4a74 <pins_to_default+0x68>
    4a6e:	6938      	ldr	r0, [r7, #16]
    4a70:	f7ff fece 	bl	4810 <nrf_gpio_cfg_default>
    4a74:	68bb      	ldr	r3, [r7, #8]
    4a76:	f1b3 3fff 	cmp.w	r3, #4294967295	; 0xffffffff
    4a7a:	d002      	beq.n	4a82 <pins_to_default+0x76>
    4a7c:	68b8      	ldr	r0, [r7, #8]
    4a7e:	f7ff fec7 	bl	4810 <nrf_gpio_cfg_default>
    4a82:	68fb      	ldr	r3, [r7, #12]
    4a84:	f1b3 3fff 	cmp.w	r3, #4294967295	; 0xffffffff
    4a88:	d002      	beq.n	4a90 <pins_to_default+0x84>
    4a8a:	68f8      	ldr	r0, [r7, #12]
    4a8c:	f7ff fec0 	bl	4810 <nrf_gpio_cfg_default>
    4a90:	bf00      	nop
    4a92:	3718      	adds	r7, #24
    4a94:	46bd      	mov	sp, r7
    4a96:	bd80      	pop	{r7, pc}

00004a98 <nrfx_uarte_init>:
    4a98:	b580      	push	{r7, lr}
    4a9a:	b086      	sub	sp, #24
    4a9c:	af00      	add	r7, sp, #0
    4a9e:	60f8      	str	r0, [r7, #12]
    4aa0:	60b9      	str	r1, [r7, #8]
    4aa2:	607a      	str	r2, [r7, #4]
    4aa4:	68fb      	ldr	r3, [r7, #12]
    4aa6:	791b      	ldrb	r3, [r3, #4]
    4aa8:	461a      	mov	r2, r3
    4aaa:	4613      	mov	r3, r2
    4aac:	00db      	lsls	r3, r3, #3
    4aae:	4413      	add	r3, r2
    4ab0:	009b      	lsls	r3, r3, #2
    4ab2:	4a26      	ldr	r2, [pc, #152]	; (4b4c <nrfx_uarte_init+0xb4>)
    4ab4:	4413      	add	r3, r2
    4ab6:	613b      	str	r3, [r7, #16]
    4ab8:	2300      	movs	r3, #0
    4aba:	617b      	str	r3, [r7, #20]
    4abc:	693b      	ldr	r3, [r7, #16]
    4abe:	f893 3020 	ldrb.w	r3, [r3, #32]
    4ac2:	2b00      	cmp	r3, #0
    4ac4:	d003      	beq.n	4ace <nrfx_uarte_init+0x36>
    4ac6:	2308      	movs	r3, #8
    4ac8:	617b      	str	r3, [r7, #20]
    4aca:	697b      	ldr	r3, [r7, #20]
    4acc:	e03a      	b.n	4b44 <nrfx_uarte_init+0xac>
    4ace:	68fb      	ldr	r3, [r7, #12]
    4ad0:	681a      	ldr	r2, [r3, #0]
    4ad2:	68fb      	ldr	r3, [r7, #12]
    4ad4:	791b      	ldrb	r3, [r3, #4]
    4ad6:	4619      	mov	r1, r3
    4ad8:	4b1d      	ldr	r3, [pc, #116]	; (4b50 <nrfx_uarte_init+0xb8>)
    4ada:	f853 3021 	ldr.w	r3, [r3, r1, lsl #2]
    4ade:	4619      	mov	r1, r3
    4ae0:	4610      	mov	r0, r2
    4ae2:	f7fd fe2b 	bl	273c <nrfx_prs_acquire>
    4ae6:	4603      	mov	r3, r0
    4ae8:	2b00      	cmp	r3, #0
    4aea:	d003      	beq.n	4af4 <nrfx_uarte_init+0x5c>
    4aec:	2311      	movs	r3, #17
    4aee:	617b      	str	r3, [r7, #20]
    4af0:	697b      	ldr	r3, [r7, #20]
    4af2:	e027      	b.n	4b44 <nrfx_uarte_init+0xac>
    4af4:	68b9      	ldr	r1, [r7, #8]
    4af6:	68f8      	ldr	r0, [r7, #12]
    4af8:	f7ff fec0 	bl	487c <apply_config>
    4afc:	693b      	ldr	r3, [r7, #16]
    4afe:	687a      	ldr	r2, [r7, #4]
    4b00:	605a      	str	r2, [r3, #4]
    4b02:	68bb      	ldr	r3, [r7, #8]
    4b04:	691a      	ldr	r2, [r3, #16]
    4b06:	693b      	ldr	r3, [r7, #16]
    4b08:	601a      	str	r2, [r3, #0]
    4b0a:	693b      	ldr	r3, [r7, #16]
    4b0c:	685b      	ldr	r3, [r3, #4]
    4b0e:	2b00      	cmp	r3, #0
    4b10:	d005      	beq.n	4b1e <nrfx_uarte_init+0x86>
    4b12:	68bb      	ldr	r3, [r7, #8]
    4b14:	7f1b      	ldrb	r3, [r3, #28]
    4b16:	4619      	mov	r1, r3
    4b18:	68f8      	ldr	r0, [r7, #12]
    4b1a:	f7ff ff13 	bl	4944 <interrupts_enable>
    4b1e:	68fb      	ldr	r3, [r7, #12]
    4b20:	681b      	ldr	r3, [r3, #0]
    4b22:	4618      	mov	r0, r3
    4b24:	f7ff fd1e 	bl	4564 <nrf_uarte_enable>
    4b28:	693b      	ldr	r3, [r7, #16]
    4b2a:	2200      	movs	r2, #0
    4b2c:	619a      	str	r2, [r3, #24]
    4b2e:	693b      	ldr	r3, [r7, #16]
    4b30:	2200      	movs	r2, #0
    4b32:	61da      	str	r2, [r3, #28]
    4b34:	693b      	ldr	r3, [r7, #16]
    4b36:	2200      	movs	r2, #0
    4b38:	615a      	str	r2, [r3, #20]
    4b3a:	693b      	ldr	r3, [r7, #16]
    4b3c:	2201      	movs	r2, #1
    4b3e:	f883 2020 	strb.w	r2, [r3, #32]
    4b42:	697b      	ldr	r3, [r7, #20]
    4b44:	4618      	mov	r0, r3
    4b46:	3718      	adds	r7, #24
    4b48:	46bd      	mov	sp, r7
    4b4a:	bd80      	pop	{r7, pc}
    4b4c:	200006d8 	.word	0x200006d8
    4b50:	00005eec 	.word	0x00005eec

00004b54 <nrfx_uarte_uninit>:
    4b54:	b580      	push	{r7, lr}
    4b56:	b084      	sub	sp, #16
    4b58:	af00      	add	r7, sp, #0
    4b5a:	6078      	str	r0, [r7, #4]
    4b5c:	687b      	ldr	r3, [r7, #4]
    4b5e:	791b      	ldrb	r3, [r3, #4]
    4b60:	461a      	mov	r2, r3
    4b62:	4613      	mov	r3, r2
    4b64:	00db      	lsls	r3, r3, #3
    4b66:	4413      	add	r3, r2
    4b68:	009b      	lsls	r3, r3, #2
    4b6a:	4a2b      	ldr	r2, [pc, #172]	; (4c18 <nrfx_uarte_uninit+0xc4>)
    4b6c:	4413      	add	r3, r2
    4b6e:	60fb      	str	r3, [r7, #12]
    4b70:	687b      	ldr	r3, [r7, #4]
    4b72:	681b      	ldr	r3, [r3, #0]
    4b74:	60bb      	str	r3, [r7, #8]
    4b76:	68fb      	ldr	r3, [r7, #12]
    4b78:	685b      	ldr	r3, [r3, #4]
    4b7a:	2b00      	cmp	r3, #0
    4b7c:	d002      	beq.n	4b84 <nrfx_uarte_uninit+0x30>
    4b7e:	6878      	ldr	r0, [r7, #4]
    4b80:	f7ff ff2a 	bl	49d8 <interrupts_disable>
    4b84:	2120      	movs	r1, #32
    4b86:	68b8      	ldr	r0, [r7, #8]
    4b88:	f7ff fca7 	bl	44da <nrf_uarte_shorts_disable>
    4b8c:	68fb      	ldr	r3, [r7, #12]
    4b8e:	699b      	ldr	r3, [r3, #24]
    4b90:	2b00      	cmp	r3, #0
    4b92:	d008      	beq.n	4ba6 <nrfx_uarte_uninit+0x52>
    4b94:	f44f 71a2 	mov.w	r1, #324	; 0x144
    4b98:	68b8      	ldr	r0, [r7, #8]
    4b9a:	f7ff fc72 	bl	4482 <nrf_uarte_event_clear>
    4b9e:	2104      	movs	r1, #4
    4ba0:	68b8      	ldr	r0, [r7, #8]
    4ba2:	f7ff fd75 	bl	4690 <nrf_uarte_task_trigger>
    4ba6:	f44f 71ac 	mov.w	r1, #344	; 0x158
    4baa:	68b8      	ldr	r0, [r7, #8]
    4bac:	f7ff fc69 	bl	4482 <nrf_uarte_event_clear>
    4bb0:	210c      	movs	r1, #12
    4bb2:	68b8      	ldr	r0, [r7, #8]
    4bb4:	f7ff fd6c 	bl	4690 <nrf_uarte_task_trigger>
    4bb8:	bf00      	nop
    4bba:	f44f 71ac 	mov.w	r1, #344	; 0x158
    4bbe:	68b8      	ldr	r0, [r7, #8]
    4bc0:	f7ff fc76 	bl	44b0 <nrf_uarte_event_check>
    4bc4:	4603      	mov	r3, r0
    4bc6:	f083 0301 	eor.w	r3, r3, #1
    4bca:	b2db      	uxtb	r3, r3
    4bcc:	2b00      	cmp	r3, #0
    4bce:	d1f4      	bne.n	4bba <nrfx_uarte_uninit+0x66>
    4bd0:	68fb      	ldr	r3, [r7, #12]
    4bd2:	699b      	ldr	r3, [r3, #24]
    4bd4:	2b00      	cmp	r3, #0
    4bd6:	d00a      	beq.n	4bee <nrfx_uarte_uninit+0x9a>
    4bd8:	f44f 71a2 	mov.w	r1, #324	; 0x144
    4bdc:	68b8      	ldr	r0, [r7, #8]
    4bde:	f7ff fc67 	bl	44b0 <nrf_uarte_event_check>
    4be2:	4603      	mov	r3, r0
    4be4:	f083 0301 	eor.w	r3, r3, #1
    4be8:	b2db      	uxtb	r3, r3
    4bea:	2b00      	cmp	r3, #0
    4bec:	d1e5      	bne.n	4bba <nrfx_uarte_uninit+0x66>
    4bee:	68b8      	ldr	r0, [r7, #8]
    4bf0:	f7ff fcc6 	bl	4580 <nrf_uarte_disable>
    4bf4:	6878      	ldr	r0, [r7, #4]
    4bf6:	f7ff ff09 	bl	4a0c <pins_to_default>
    4bfa:	68b8      	ldr	r0, [r7, #8]
    4bfc:	f7fd fdcd 	bl	279a <nrfx_prs_release>
    4c00:	68fb      	ldr	r3, [r7, #12]
    4c02:	2200      	movs	r2, #0
    4c04:	f883 2020 	strb.w	r2, [r3, #32]
    4c08:	68fb      	ldr	r3, [r7, #12]
    4c0a:	2200      	movs	r2, #0
    4c0c:	605a      	str	r2, [r3, #4]
    4c0e:	bf00      	nop
    4c10:	3710      	adds	r7, #16
    4c12:	46bd      	mov	sp, r7
    4c14:	bd80      	pop	{r7, pc}
    4c16:	bf00      	nop
    4c18:	200006d8 	.word	0x200006d8

00004c1c <nrfx_uarte_tx>:
    4c1c:	b580      	push	{r7, lr}
    4c1e:	b088      	sub	sp, #32
    4c20:	af00      	add	r7, sp, #0
    4c22:	60f8      	str	r0, [r7, #12]
    4c24:	60b9      	str	r1, [r7, #8]
    4c26:	607a      	str	r2, [r7, #4]
    4c28:	68fb      	ldr	r3, [r7, #12]
    4c2a:	791b      	ldrb	r3, [r3, #4]
    4c2c:	461a      	mov	r2, r3
    4c2e:	4613      	mov	r3, r2
    4c30:	00db      	lsls	r3, r3, #3
    4c32:	4413      	add	r3, r2
    4c34:	009b      	lsls	r3, r3, #2
    4c36:	4a41      	ldr	r2, [pc, #260]	; (4d3c <nrfx_uarte_tx+0x120>)
    4c38:	4413      	add	r3, r2
    4c3a:	617b      	str	r3, [r7, #20]
    4c3c:	68b8      	ldr	r0, [r7, #8]
    4c3e:	f7ff fbd1 	bl	43e4 <nrfx_is_in_ram>
    4c42:	4603      	mov	r3, r0
    4c44:	f083 0301 	eor.w	r3, r3, #1
    4c48:	b2db      	uxtb	r3, r3
    4c4a:	2b00      	cmp	r3, #0
    4c4c:	d003      	beq.n	4c56 <nrfx_uarte_tx+0x3a>
    4c4e:	2310      	movs	r3, #16
    4c50:	61fb      	str	r3, [r7, #28]
    4c52:	69fb      	ldr	r3, [r7, #28]
    4c54:	e06e      	b.n	4d34 <nrfx_uarte_tx+0x118>
    4c56:	68f8      	ldr	r0, [r7, #12]
    4c58:	f000 f872 	bl	4d40 <nrfx_uarte_tx_in_progress>
    4c5c:	4603      	mov	r3, r0
    4c5e:	2b00      	cmp	r3, #0
    4c60:	d003      	beq.n	4c6a <nrfx_uarte_tx+0x4e>
    4c62:	2311      	movs	r3, #17
    4c64:	61fb      	str	r3, [r7, #28]
    4c66:	69fb      	ldr	r3, [r7, #28]
    4c68:	e064      	b.n	4d34 <nrfx_uarte_tx+0x118>
    4c6a:	697b      	ldr	r3, [r7, #20]
    4c6c:	687a      	ldr	r2, [r7, #4]
    4c6e:	615a      	str	r2, [r3, #20]
    4c70:	697b      	ldr	r3, [r7, #20]
    4c72:	68ba      	ldr	r2, [r7, #8]
    4c74:	609a      	str	r2, [r3, #8]
    4c76:	2300      	movs	r3, #0
    4c78:	61fb      	str	r3, [r7, #28]
    4c7a:	68fb      	ldr	r3, [r7, #12]
    4c7c:	681b      	ldr	r3, [r3, #0]
    4c7e:	f44f 7190 	mov.w	r1, #288	; 0x120
    4c82:	4618      	mov	r0, r3
    4c84:	f7ff fbfd 	bl	4482 <nrf_uarte_event_clear>
    4c88:	68fb      	ldr	r3, [r7, #12]
    4c8a:	681b      	ldr	r3, [r3, #0]
    4c8c:	f44f 71ac 	mov.w	r1, #344	; 0x158
    4c90:	4618      	mov	r0, r3
    4c92:	f7ff fbf6 	bl	4482 <nrf_uarte_event_clear>
    4c96:	68fb      	ldr	r3, [r7, #12]
    4c98:	6818      	ldr	r0, [r3, #0]
    4c9a:	697b      	ldr	r3, [r7, #20]
    4c9c:	6899      	ldr	r1, [r3, #8]
    4c9e:	697b      	ldr	r3, [r7, #20]
    4ca0:	695b      	ldr	r3, [r3, #20]
    4ca2:	461a      	mov	r2, r3
    4ca4:	f7ff fd2a 	bl	46fc <nrf_uarte_tx_buffer_set>
    4ca8:	68fb      	ldr	r3, [r7, #12]
    4caa:	681b      	ldr	r3, [r3, #0]
    4cac:	2108      	movs	r1, #8
    4cae:	4618      	mov	r0, r3
    4cb0:	f7ff fcee 	bl	4690 <nrf_uarte_task_trigger>
    4cb4:	697b      	ldr	r3, [r7, #20]
    4cb6:	685b      	ldr	r3, [r3, #4]
    4cb8:	2b00      	cmp	r3, #0
    4cba:	d13a      	bne.n	4d32 <nrfx_uarte_tx+0x116>
    4cbc:	68fb      	ldr	r3, [r7, #12]
    4cbe:	681b      	ldr	r3, [r3, #0]
    4cc0:	f44f 7190 	mov.w	r1, #288	; 0x120
    4cc4:	4618      	mov	r0, r3
    4cc6:	f7ff fbf3 	bl	44b0 <nrf_uarte_event_check>
    4cca:	4603      	mov	r3, r0
    4ccc:	76bb      	strb	r3, [r7, #26]
    4cce:	68fb      	ldr	r3, [r7, #12]
    4cd0:	681b      	ldr	r3, [r3, #0]
    4cd2:	f44f 71ac 	mov.w	r1, #344	; 0x158
    4cd6:	4618      	mov	r0, r3
    4cd8:	f7ff fbea 	bl	44b0 <nrf_uarte_event_check>
    4cdc:	4603      	mov	r3, r0
    4cde:	76fb      	strb	r3, [r7, #27]
    4ce0:	7ebb      	ldrb	r3, [r7, #26]
    4ce2:	f083 0301 	eor.w	r3, r3, #1
    4ce6:	b2db      	uxtb	r3, r3
    4ce8:	2b00      	cmp	r3, #0
    4cea:	d005      	beq.n	4cf8 <nrfx_uarte_tx+0xdc>
    4cec:	7efb      	ldrb	r3, [r7, #27]
    4cee:	f083 0301 	eor.w	r3, r3, #1
    4cf2:	b2db      	uxtb	r3, r3
    4cf4:	2b00      	cmp	r3, #0
    4cf6:	d1e1      	bne.n	4cbc <nrfx_uarte_tx+0xa0>
    4cf8:	7efb      	ldrb	r3, [r7, #27]
    4cfa:	2b00      	cmp	r3, #0
    4cfc:	d002      	beq.n	4d04 <nrfx_uarte_tx+0xe8>
    4cfe:	230f      	movs	r3, #15
    4d00:	61fb      	str	r3, [r7, #28]
    4d02:	e013      	b.n	4d2c <nrfx_uarte_tx+0x110>
    4d04:	68fb      	ldr	r3, [r7, #12]
    4d06:	681b      	ldr	r3, [r3, #0]
    4d08:	210c      	movs	r1, #12
    4d0a:	4618      	mov	r0, r3
    4d0c:	f7ff fcc0 	bl	4690 <nrf_uarte_task_trigger>
    4d10:	bf00      	nop
    4d12:	68fb      	ldr	r3, [r7, #12]
    4d14:	681b      	ldr	r3, [r3, #0]
    4d16:	f44f 71ac 	mov.w	r1, #344	; 0x158
    4d1a:	4618      	mov	r0, r3
    4d1c:	f7ff fbc8 	bl	44b0 <nrf_uarte_event_check>
    4d20:	4603      	mov	r3, r0
    4d22:	f083 0301 	eor.w	r3, r3, #1
    4d26:	b2db      	uxtb	r3, r3
    4d28:	2b00      	cmp	r3, #0
    4d2a:	d1f2      	bne.n	4d12 <nrfx_uarte_tx+0xf6>
    4d2c:	697b      	ldr	r3, [r7, #20]
    4d2e:	2200      	movs	r2, #0
    4d30:	615a      	str	r2, [r3, #20]
    4d32:	69fb      	ldr	r3, [r7, #28]
    4d34:	4618      	mov	r0, r3
    4d36:	3720      	adds	r7, #32
    4d38:	46bd      	mov	sp, r7
    4d3a:	bd80      	pop	{r7, pc}
    4d3c:	200006d8 	.word	0x200006d8

00004d40 <nrfx_uarte_tx_in_progress>:
    4d40:	b480      	push	{r7}
    4d42:	b083      	sub	sp, #12
    4d44:	af00      	add	r7, sp, #0
    4d46:	6078      	str	r0, [r7, #4]
    4d48:	687b      	ldr	r3, [r7, #4]
    4d4a:	791b      	ldrb	r3, [r3, #4]
    4d4c:	4619      	mov	r1, r3
    4d4e:	4a09      	ldr	r2, [pc, #36]	; (4d74 <nrfx_uarte_tx_in_progress+0x34>)
    4d50:	460b      	mov	r3, r1
    4d52:	00db      	lsls	r3, r3, #3
    4d54:	440b      	add	r3, r1
    4d56:	009b      	lsls	r3, r3, #2
    4d58:	4413      	add	r3, r2
    4d5a:	3314      	adds	r3, #20
    4d5c:	681b      	ldr	r3, [r3, #0]
    4d5e:	2b00      	cmp	r3, #0
    4d60:	bf14      	ite	ne
    4d62:	2301      	movne	r3, #1
    4d64:	2300      	moveq	r3, #0
    4d66:	b2db      	uxtb	r3, r3
    4d68:	4618      	mov	r0, r3
    4d6a:	370c      	adds	r7, #12
    4d6c:	46bd      	mov	sp, r7
    4d6e:	f85d 7b04 	ldr.w	r7, [sp], #4
    4d72:	4770      	bx	lr
    4d74:	200006d8 	.word	0x200006d8

00004d78 <rx_done_event>:
    4d78:	b580      	push	{r7, lr}
    4d7a:	b088      	sub	sp, #32
    4d7c:	af00      	add	r7, sp, #0
    4d7e:	60f8      	str	r0, [r7, #12]
    4d80:	60b9      	str	r1, [r7, #8]
    4d82:	607a      	str	r2, [r7, #4]
    4d84:	2301      	movs	r3, #1
    4d86:	743b      	strb	r3, [r7, #16]
    4d88:	68bb      	ldr	r3, [r7, #8]
    4d8a:	61bb      	str	r3, [r7, #24]
    4d8c:	687b      	ldr	r3, [r7, #4]
    4d8e:	617b      	str	r3, [r7, #20]
    4d90:	68fb      	ldr	r3, [r7, #12]
    4d92:	685b      	ldr	r3, [r3, #4]
    4d94:	68fa      	ldr	r2, [r7, #12]
    4d96:	6811      	ldr	r1, [r2, #0]
    4d98:	f107 0210 	add.w	r2, r7, #16
    4d9c:	4610      	mov	r0, r2
    4d9e:	4798      	blx	r3
    4da0:	bf00      	nop
    4da2:	3720      	adds	r7, #32
    4da4:	46bd      	mov	sp, r7
    4da6:	bd80      	pop	{r7, pc}

00004da8 <tx_done_event>:
    4da8:	b580      	push	{r7, lr}
    4daa:	b086      	sub	sp, #24
    4dac:	af00      	add	r7, sp, #0
    4dae:	6078      	str	r0, [r7, #4]
    4db0:	6039      	str	r1, [r7, #0]
    4db2:	2300      	movs	r3, #0
    4db4:	723b      	strb	r3, [r7, #8]
    4db6:	683b      	ldr	r3, [r7, #0]
    4db8:	613b      	str	r3, [r7, #16]
    4dba:	687b      	ldr	r3, [r7, #4]
    4dbc:	689b      	ldr	r3, [r3, #8]
    4dbe:	60fb      	str	r3, [r7, #12]
    4dc0:	687b      	ldr	r3, [r7, #4]
    4dc2:	2200      	movs	r2, #0
    4dc4:	615a      	str	r2, [r3, #20]
    4dc6:	687b      	ldr	r3, [r7, #4]
    4dc8:	685b      	ldr	r3, [r3, #4]
    4dca:	687a      	ldr	r2, [r7, #4]
    4dcc:	6811      	ldr	r1, [r2, #0]
    4dce:	f107 0208 	add.w	r2, r7, #8
    4dd2:	4610      	mov	r0, r2
    4dd4:	4798      	blx	r3
    4dd6:	bf00      	nop
    4dd8:	3718      	adds	r7, #24
    4dda:	46bd      	mov	sp, r7
    4ddc:	bd80      	pop	{r7, pc}

00004dde <uarte_irq_handler>:
    4dde:	b580      	push	{r7, lr}
    4de0:	b088      	sub	sp, #32
    4de2:	af00      	add	r7, sp, #0
    4de4:	6078      	str	r0, [r7, #4]
    4de6:	6039      	str	r1, [r7, #0]
    4de8:	f44f 7192 	mov.w	r1, #292	; 0x124
    4dec:	6878      	ldr	r0, [r7, #4]
    4dee:	f7ff fb5f 	bl	44b0 <nrf_uarte_event_check>
    4df2:	4603      	mov	r3, r0
    4df4:	2b00      	cmp	r3, #0
    4df6:	d022      	beq.n	4e3e <uarte_irq_handler+0x60>
    4df8:	f44f 7192 	mov.w	r1, #292	; 0x124
    4dfc:	6878      	ldr	r0, [r7, #4]
    4dfe:	f7ff fb40 	bl	4482 <nrf_uarte_event_clear>
    4e02:	2302      	movs	r3, #2
    4e04:	723b      	strb	r3, [r7, #8]
    4e06:	6878      	ldr	r0, [r7, #4]
    4e08:	f7ff fb99 	bl	453e <nrf_uarte_errorsrc_get_and_clear>
    4e0c:	4603      	mov	r3, r0
    4e0e:	617b      	str	r3, [r7, #20]
    4e10:	6878      	ldr	r0, [r7, #4]
    4e12:	f7ff fc94 	bl	473e <nrf_uarte_rx_amount_get>
    4e16:	4603      	mov	r3, r0
    4e18:	613b      	str	r3, [r7, #16]
    4e1a:	683b      	ldr	r3, [r7, #0]
    4e1c:	68db      	ldr	r3, [r3, #12]
    4e1e:	60fb      	str	r3, [r7, #12]
    4e20:	683b      	ldr	r3, [r7, #0]
    4e22:	2200      	movs	r2, #0
    4e24:	619a      	str	r2, [r3, #24]
    4e26:	683b      	ldr	r3, [r7, #0]
    4e28:	2200      	movs	r2, #0
    4e2a:	61da      	str	r2, [r3, #28]
    4e2c:	683b      	ldr	r3, [r7, #0]
    4e2e:	685b      	ldr	r3, [r3, #4]
    4e30:	683a      	ldr	r2, [r7, #0]
    4e32:	6811      	ldr	r1, [r2, #0]
    4e34:	f107 0208 	add.w	r2, r7, #8
    4e38:	4610      	mov	r0, r2
    4e3a:	4798      	blx	r3
    4e3c:	e03b      	b.n	4eb6 <uarte_irq_handler+0xd8>
    4e3e:	f44f 7188 	mov.w	r1, #272	; 0x110
    4e42:	6878      	ldr	r0, [r7, #4]
    4e44:	f7ff fb34 	bl	44b0 <nrf_uarte_event_check>
    4e48:	4603      	mov	r3, r0
    4e4a:	2b00      	cmp	r3, #0
    4e4c:	d033      	beq.n	4eb6 <uarte_irq_handler+0xd8>
    4e4e:	f44f 7188 	mov.w	r1, #272	; 0x110
    4e52:	6878      	ldr	r0, [r7, #4]
    4e54:	f7ff fb15 	bl	4482 <nrf_uarte_event_clear>
    4e58:	6878      	ldr	r0, [r7, #4]
    4e5a:	f7ff fc70 	bl	473e <nrf_uarte_rx_amount_get>
    4e5e:	61f8      	str	r0, [r7, #28]
    4e60:	683b      	ldr	r3, [r7, #0]
    4e62:	699b      	ldr	r3, [r3, #24]
    4e64:	69fa      	ldr	r2, [r7, #28]
    4e66:	429a      	cmp	r2, r3
    4e68:	d125      	bne.n	4eb6 <uarte_irq_handler+0xd8>
    4e6a:	683b      	ldr	r3, [r7, #0]
    4e6c:	69db      	ldr	r3, [r3, #28]
    4e6e:	2b00      	cmp	r3, #0
    4e70:	d017      	beq.n	4ea2 <uarte_irq_handler+0xc4>
    4e72:	683b      	ldr	r3, [r7, #0]
    4e74:	68db      	ldr	r3, [r3, #12]
    4e76:	61bb      	str	r3, [r7, #24]
    4e78:	2120      	movs	r1, #32
    4e7a:	6878      	ldr	r0, [r7, #4]
    4e7c:	f7ff fb2d 	bl	44da <nrf_uarte_shorts_disable>
    4e80:	683b      	ldr	r3, [r7, #0]
    4e82:	69da      	ldr	r2, [r3, #28]
    4e84:	683b      	ldr	r3, [r7, #0]
    4e86:	619a      	str	r2, [r3, #24]
    4e88:	683b      	ldr	r3, [r7, #0]
    4e8a:	691a      	ldr	r2, [r3, #16]
    4e8c:	683b      	ldr	r3, [r7, #0]
    4e8e:	60da      	str	r2, [r3, #12]
    4e90:	683b      	ldr	r3, [r7, #0]
    4e92:	2200      	movs	r2, #0
    4e94:	61da      	str	r2, [r3, #28]
    4e96:	69ba      	ldr	r2, [r7, #24]
    4e98:	69f9      	ldr	r1, [r7, #28]
    4e9a:	6838      	ldr	r0, [r7, #0]
    4e9c:	f7ff ff6c 	bl	4d78 <rx_done_event>
    4ea0:	e009      	b.n	4eb6 <uarte_irq_handler+0xd8>
    4ea2:	683b      	ldr	r3, [r7, #0]
    4ea4:	2200      	movs	r2, #0
    4ea6:	619a      	str	r2, [r3, #24]
    4ea8:	683b      	ldr	r3, [r7, #0]
    4eaa:	68db      	ldr	r3, [r3, #12]
    4eac:	461a      	mov	r2, r3
    4eae:	69f9      	ldr	r1, [r7, #28]
    4eb0:	6838      	ldr	r0, [r7, #0]
    4eb2:	f7ff ff61 	bl	4d78 <rx_done_event>
    4eb6:	f44f 71a2 	mov.w	r1, #324	; 0x144
    4eba:	6878      	ldr	r0, [r7, #4]
    4ebc:	f7ff faf8 	bl	44b0 <nrf_uarte_event_check>
    4ec0:	4603      	mov	r3, r0
    4ec2:	2b00      	cmp	r3, #0
    4ec4:	d018      	beq.n	4ef8 <uarte_irq_handler+0x11a>
    4ec6:	f44f 71a2 	mov.w	r1, #324	; 0x144
    4eca:	6878      	ldr	r0, [r7, #4]
    4ecc:	f7ff fad9 	bl	4482 <nrf_uarte_event_clear>
    4ed0:	683b      	ldr	r3, [r7, #0]
    4ed2:	699b      	ldr	r3, [r3, #24]
    4ed4:	2b00      	cmp	r3, #0
    4ed6:	d00f      	beq.n	4ef8 <uarte_irq_handler+0x11a>
    4ed8:	683b      	ldr	r3, [r7, #0]
    4eda:	2200      	movs	r2, #0
    4edc:	619a      	str	r2, [r3, #24]
    4ede:	683b      	ldr	r3, [r7, #0]
    4ee0:	2200      	movs	r2, #0
    4ee2:	61da      	str	r2, [r3, #28]
    4ee4:	6878      	ldr	r0, [r7, #4]
    4ee6:	f7ff fc2a 	bl	473e <nrf_uarte_rx_amount_get>
    4eea:	4601      	mov	r1, r0
    4eec:	683b      	ldr	r3, [r7, #0]
    4eee:	68db      	ldr	r3, [r3, #12]
    4ef0:	461a      	mov	r2, r3
    4ef2:	6838      	ldr	r0, [r7, #0]
    4ef4:	f7ff ff40 	bl	4d78 <rx_done_event>
    4ef8:	f44f 7190 	mov.w	r1, #288	; 0x120
    4efc:	6878      	ldr	r0, [r7, #4]
    4efe:	f7ff fad7 	bl	44b0 <nrf_uarte_event_check>
    4f02:	4603      	mov	r3, r0
    4f04:	2b00      	cmp	r3, #0
    4f06:	d014      	beq.n	4f32 <uarte_irq_handler+0x154>
    4f08:	f44f 7190 	mov.w	r1, #288	; 0x120
    4f0c:	6878      	ldr	r0, [r7, #4]
    4f0e:	f7ff fab8 	bl	4482 <nrf_uarte_event_clear>
    4f12:	210c      	movs	r1, #12
    4f14:	6878      	ldr	r0, [r7, #4]
    4f16:	f7ff fbbb 	bl	4690 <nrf_uarte_task_trigger>
    4f1a:	683b      	ldr	r3, [r7, #0]
    4f1c:	695b      	ldr	r3, [r3, #20]
    4f1e:	2b00      	cmp	r3, #0
    4f20:	d007      	beq.n	4f32 <uarte_irq_handler+0x154>
    4f22:	6878      	ldr	r0, [r7, #4]
    4f24:	f7ff fbfe 	bl	4724 <nrf_uarte_tx_amount_get>
    4f28:	4603      	mov	r3, r0
    4f2a:	4619      	mov	r1, r3
    4f2c:	6838      	ldr	r0, [r7, #0]
    4f2e:	f7ff ff3b 	bl	4da8 <tx_done_event>
    4f32:	f44f 71ac 	mov.w	r1, #344	; 0x158
    4f36:	6878      	ldr	r0, [r7, #4]
    4f38:	f7ff faba 	bl	44b0 <nrf_uarte_event_check>
    4f3c:	4603      	mov	r3, r0
    4f3e:	2b00      	cmp	r3, #0
    4f40:	d010      	beq.n	4f64 <uarte_irq_handler+0x186>
    4f42:	f44f 71ac 	mov.w	r1, #344	; 0x158
    4f46:	6878      	ldr	r0, [r7, #4]
    4f48:	f7ff fa9b 	bl	4482 <nrf_uarte_event_clear>
    4f4c:	683b      	ldr	r3, [r7, #0]
    4f4e:	695b      	ldr	r3, [r3, #20]
    4f50:	2b00      	cmp	r3, #0
    4f52:	d007      	beq.n	4f64 <uarte_irq_handler+0x186>
    4f54:	6878      	ldr	r0, [r7, #4]
    4f56:	f7ff fbe5 	bl	4724 <nrf_uarte_tx_amount_get>
    4f5a:	4603      	mov	r3, r0
    4f5c:	4619      	mov	r1, r3
    4f5e:	6838      	ldr	r0, [r7, #0]
    4f60:	f7ff ff22 	bl	4da8 <tx_done_event>
    4f64:	bf00      	nop
    4f66:	3720      	adds	r7, #32
    4f68:	46bd      	mov	sp, r7
    4f6a:	bd80      	pop	{r7, pc}

00004f6c <nrfx_uarte_0_irq_handler>:
    4f6c:	b580      	push	{r7, lr}
    4f6e:	af00      	add	r7, sp, #0
    4f70:	4902      	ldr	r1, [pc, #8]	; (4f7c <nrfx_uarte_0_irq_handler+0x10>)
    4f72:	4803      	ldr	r0, [pc, #12]	; (4f80 <nrfx_uarte_0_irq_handler+0x14>)
    4f74:	f7ff ff33 	bl	4dde <uarte_irq_handler>
    4f78:	bf00      	nop
    4f7a:	bd80      	pop	{r7, pc}
    4f7c:	200006d8 	.word	0x200006d8
    4f80:	40002000 	.word	0x40002000

00004f84 <nrfx_coredep_delay_us>:
    4f84:	b580      	push	{r7, lr}
    4f86:	b084      	sub	sp, #16
    4f88:	af00      	add	r7, sp, #0
    4f8a:	6078      	str	r0, [r7, #4]
    4f8c:	687b      	ldr	r3, [r7, #4]
    4f8e:	2b00      	cmp	r3, #0
    4f90:	d00a      	beq.n	4fa8 <nrfx_coredep_delay_us+0x24>
    4f92:	4b07      	ldr	r3, [pc, #28]	; (4fb0 <nrfx_coredep_delay_us+0x2c>)
    4f94:	f043 0301 	orr.w	r3, r3, #1
    4f98:	60fb      	str	r3, [r7, #12]
    4f9a:	687b      	ldr	r3, [r7, #4]
    4f9c:	019b      	lsls	r3, r3, #6
    4f9e:	60bb      	str	r3, [r7, #8]
    4fa0:	68fb      	ldr	r3, [r7, #12]
    4fa2:	68b8      	ldr	r0, [r7, #8]
    4fa4:	4798      	blx	r3
    4fa6:	e000      	b.n	4faa <nrfx_coredep_delay_us+0x26>
    4fa8:	bf00      	nop
    4faa:	3710      	adds	r7, #16
    4fac:	46bd      	mov	sp, r7
    4fae:	bd80      	pop	{r7, pc}
    4fb0:	00005f50 	.word	0x00005f50

00004fb4 <nrf_drv_twi_enable>:
    4fb4:	b580      	push	{r7, lr}
    4fb6:	b082      	sub	sp, #8
    4fb8:	af00      	add	r7, sp, #0
    4fba:	6078      	str	r0, [r7, #4]
    4fbc:	687b      	ldr	r3, [r7, #4]
    4fbe:	3304      	adds	r3, #4
    4fc0:	4618      	mov	r0, r3
    4fc2:	f7fd ff6d 	bl	2ea0 <nrfx_twim_enable>
    4fc6:	bf00      	nop
    4fc8:	3708      	adds	r7, #8
    4fca:	46bd      	mov	sp, r7
    4fcc:	bd80      	pop	{r7, pc}

00004fce <nrf_drv_twi_tx>:
    4fce:	b580      	push	{r7, lr}
    4fd0:	b088      	sub	sp, #32
    4fd2:	af02      	add	r7, sp, #8
    4fd4:	60f8      	str	r0, [r7, #12]
    4fd6:	607a      	str	r2, [r7, #4]
    4fd8:	461a      	mov	r2, r3
    4fda:	460b      	mov	r3, r1
    4fdc:	72fb      	strb	r3, [r7, #11]
    4fde:	4613      	mov	r3, r2
    4fe0:	813b      	strh	r3, [r7, #8]
    4fe2:	2300      	movs	r3, #0
    4fe4:	617b      	str	r3, [r7, #20]
    4fe6:	68fb      	ldr	r3, [r7, #12]
    4fe8:	1d18      	adds	r0, r3, #4
    4fea:	893a      	ldrh	r2, [r7, #8]
    4fec:	7af9      	ldrb	r1, [r7, #11]
    4fee:	f897 3020 	ldrb.w	r3, [r7, #32]
    4ff2:	9300      	str	r3, [sp, #0]
    4ff4:	4613      	mov	r3, r2
    4ff6:	687a      	ldr	r2, [r7, #4]
    4ff8:	f7fe f9a6 	bl	3348 <nrfx_twim_tx>
    4ffc:	6178      	str	r0, [r7, #20]
    4ffe:	697b      	ldr	r3, [r7, #20]
    5000:	4618      	mov	r0, r3
    5002:	3718      	adds	r7, #24
    5004:	46bd      	mov	sp, r7
    5006:	bd80      	pop	{r7, pc}

00005008 <nrf_drv_twi_rx>:
    5008:	b580      	push	{r7, lr}
    500a:	b086      	sub	sp, #24
    500c:	af00      	add	r7, sp, #0
    500e:	60f8      	str	r0, [r7, #12]
    5010:	607a      	str	r2, [r7, #4]
    5012:	461a      	mov	r2, r3
    5014:	460b      	mov	r3, r1
    5016:	72fb      	strb	r3, [r7, #11]
    5018:	4613      	mov	r3, r2
    501a:	813b      	strh	r3, [r7, #8]
    501c:	2300      	movs	r3, #0
    501e:	617b      	str	r3, [r7, #20]
    5020:	68fb      	ldr	r3, [r7, #12]
    5022:	1d18      	adds	r0, r3, #4
    5024:	893b      	ldrh	r3, [r7, #8]
    5026:	7af9      	ldrb	r1, [r7, #11]
    5028:	687a      	ldr	r2, [r7, #4]
    502a:	f7fe f9b3 	bl	3394 <nrfx_twim_rx>
    502e:	6178      	str	r0, [r7, #20]
    5030:	697b      	ldr	r3, [r7, #20]
    5032:	4618      	mov	r0, r3
    5034:	3718      	adds	r7, #24
    5036:	46bd      	mov	sp, r7
    5038:	bd80      	pop	{r7, pc}

0000503a <nrf_delay_ms>:
    503a:	b580      	push	{r7, lr}
    503c:	b082      	sub	sp, #8
    503e:	af00      	add	r7, sp, #0
    5040:	6078      	str	r0, [r7, #4]
    5042:	687b      	ldr	r3, [r7, #4]
    5044:	2b00      	cmp	r3, #0
    5046:	d00a      	beq.n	505e <nrf_delay_ms+0x24>
    5048:	f44f 707a 	mov.w	r0, #1000	; 0x3e8
    504c:	f7ff ff9a 	bl	4f84 <nrfx_coredep_delay_us>
    5050:	687b      	ldr	r3, [r7, #4]
    5052:	3b01      	subs	r3, #1
    5054:	607b      	str	r3, [r7, #4]
    5056:	687b      	ldr	r3, [r7, #4]
    5058:	2b00      	cmp	r3, #0
    505a:	d1f5      	bne.n	5048 <nrf_delay_ms+0xe>
    505c:	e000      	b.n	5060 <nrf_delay_ms+0x26>
    505e:	bf00      	nop
    5060:	3708      	adds	r7, #8
    5062:	46bd      	mov	sp, r7
    5064:	bd80      	pop	{r7, pc}
	...

00005068 <LM75B_set_mode>:
    5068:	b580      	push	{r7, lr}
    506a:	b086      	sub	sp, #24
    506c:	af02      	add	r7, sp, #8
    506e:	2301      	movs	r3, #1
    5070:	803b      	strh	r3, [r7, #0]
    5072:	463a      	mov	r2, r7
    5074:	2300      	movs	r3, #0
    5076:	9300      	str	r3, [sp, #0]
    5078:	2302      	movs	r3, #2
    507a:	2148      	movs	r1, #72	; 0x48
    507c:	481c      	ldr	r0, [pc, #112]	; (50f0 <LM75B_set_mode+0x88>)
    507e:	f7ff ffa6 	bl	4fce <nrf_drv_twi_tx>
    5082:	60f8      	str	r0, [r7, #12]
    5084:	68fb      	ldr	r3, [r7, #12]
    5086:	60bb      	str	r3, [r7, #8]
    5088:	68bb      	ldr	r3, [r7, #8]
    508a:	2b00      	cmp	r3, #0
    508c:	d002      	beq.n	5094 <LM75B_set_mode+0x2c>
    508e:	68b8      	ldr	r0, [r7, #8]
    5090:	f7fc fa32 	bl	14f8 <app_error_handler_bare>
    5094:	bf00      	nop
    5096:	4b17      	ldr	r3, [pc, #92]	; (50f4 <LM75B_set_mode+0x8c>)
    5098:	781b      	ldrb	r3, [r3, #0]
    509a:	b2db      	uxtb	r3, r3
    509c:	f083 0301 	eor.w	r3, r3, #1
    50a0:	b2db      	uxtb	r3, r3
    50a2:	2b00      	cmp	r3, #0
    50a4:	d1f7      	bne.n	5096 <LM75B_set_mode+0x2e>
    50a6:	2300      	movs	r3, #0
    50a8:	703b      	strb	r3, [r7, #0]
    50aa:	4b12      	ldr	r3, [pc, #72]	; (50f4 <LM75B_set_mode+0x8c>)
    50ac:	2200      	movs	r2, #0
    50ae:	701a      	strb	r2, [r3, #0]
    50b0:	463a      	mov	r2, r7
    50b2:	2300      	movs	r3, #0
    50b4:	9300      	str	r3, [sp, #0]
    50b6:	2301      	movs	r3, #1
    50b8:	2148      	movs	r1, #72	; 0x48
    50ba:	480d      	ldr	r0, [pc, #52]	; (50f0 <LM75B_set_mode+0x88>)
    50bc:	f7ff ff87 	bl	4fce <nrf_drv_twi_tx>
    50c0:	60f8      	str	r0, [r7, #12]
    50c2:	68fb      	ldr	r3, [r7, #12]
    50c4:	607b      	str	r3, [r7, #4]
    50c6:	687b      	ldr	r3, [r7, #4]
    50c8:	2b00      	cmp	r3, #0
    50ca:	d002      	beq.n	50d2 <LM75B_set_mode+0x6a>
    50cc:	6878      	ldr	r0, [r7, #4]
    50ce:	f7fc fa13 	bl	14f8 <app_error_handler_bare>
    50d2:	bf00      	nop
    50d4:	4b07      	ldr	r3, [pc, #28]	; (50f4 <LM75B_set_mode+0x8c>)
    50d6:	781b      	ldrb	r3, [r3, #0]
    50d8:	b2db      	uxtb	r3, r3
    50da:	f083 0301 	eor.w	r3, r3, #1
    50de:	b2db      	uxtb	r3, r3
    50e0:	2b00      	cmp	r3, #0
    50e2:	d1f7      	bne.n	50d4 <LM75B_set_mode+0x6c>
    50e4:	bf00      	nop
    50e6:	bf00      	nop
    50e8:	3710      	adds	r7, #16
    50ea:	46bd      	mov	sp, r7
    50ec:	bd80      	pop	{r7, pc}
    50ee:	bf00      	nop
    50f0:	00005ef0 	.word	0x00005ef0
    50f4:	200006fc 	.word	0x200006fc

000050f8 <data_handler>:
    50f8:	b580      	push	{r7, lr}
    50fa:	b082      	sub	sp, #8
    50fc:	af00      	add	r7, sp, #0
    50fe:	4603      	mov	r3, r0
    5100:	71fb      	strb	r3, [r7, #7]
    5102:	4a08      	ldr	r2, [pc, #32]	; (5124 <data_handler+0x2c>)
    5104:	4b08      	ldr	r3, [pc, #32]	; (5128 <data_handler+0x30>)
    5106:	1ad3      	subs	r3, r2, r3
    5108:	08db      	lsrs	r3, r3, #3
    510a:	041b      	lsls	r3, r3, #16
    510c:	f043 0303 	orr.w	r3, r3, #3
    5110:	79fa      	ldrb	r2, [r7, #7]
    5112:	4906      	ldr	r1, [pc, #24]	; (512c <data_handler+0x34>)
    5114:	4618      	mov	r0, r3
    5116:	f7fb fdd2 	bl	cbe <nrf_log_frontend_std_1>
    511a:	bf00      	nop
    511c:	3708      	adds	r7, #8
    511e:	46bd      	mov	sp, r7
    5120:	bd80      	pop	{r7, pc}
    5122:	bf00      	nop
    5124:	0000607c 	.word	0x0000607c
    5128:	0000605c 	.word	0x0000605c
    512c:	00005f00 	.word	0x00005f00

00005130 <twi_handler>:
    5130:	b580      	push	{r7, lr}
    5132:	b082      	sub	sp, #8
    5134:	af00      	add	r7, sp, #0
    5136:	6078      	str	r0, [r7, #4]
    5138:	6039      	str	r1, [r7, #0]
    513a:	687b      	ldr	r3, [r7, #4]
    513c:	781b      	ldrb	r3, [r3, #0]
    513e:	2b00      	cmp	r3, #0
    5140:	d10c      	bne.n	515c <twi_handler+0x2c>
    5142:	687b      	ldr	r3, [r7, #4]
    5144:	791b      	ldrb	r3, [r3, #4]
    5146:	2b01      	cmp	r3, #1
    5148:	d104      	bne.n	5154 <twi_handler+0x24>
    514a:	4b07      	ldr	r3, [pc, #28]	; (5168 <twi_handler+0x38>)
    514c:	781b      	ldrb	r3, [r3, #0]
    514e:	4618      	mov	r0, r3
    5150:	f7ff ffd2 	bl	50f8 <data_handler>
    5154:	4b05      	ldr	r3, [pc, #20]	; (516c <twi_handler+0x3c>)
    5156:	2201      	movs	r2, #1
    5158:	701a      	strb	r2, [r3, #0]
    515a:	e000      	b.n	515e <twi_handler+0x2e>
    515c:	bf00      	nop
    515e:	bf00      	nop
    5160:	3708      	adds	r7, #8
    5162:	46bd      	mov	sp, r7
    5164:	bd80      	pop	{r7, pc}
    5166:	bf00      	nop
    5168:	200006fd 	.word	0x200006fd
    516c:	200006fc 	.word	0x200006fc

00005170 <twi_init>:
    5170:	b580      	push	{r7, lr}
    5172:	b086      	sub	sp, #24
    5174:	af00      	add	r7, sp, #0
    5176:	463b      	mov	r3, r7
    5178:	2200      	movs	r2, #0
    517a:	601a      	str	r2, [r3, #0]
    517c:	605a      	str	r2, [r3, #4]
    517e:	609a      	str	r2, [r3, #8]
    5180:	60da      	str	r2, [r3, #12]
    5182:	231b      	movs	r3, #27
    5184:	603b      	str	r3, [r7, #0]
    5186:	231a      	movs	r3, #26
    5188:	607b      	str	r3, [r7, #4]
    518a:	f04f 73cc 	mov.w	r3, #26738688	; 0x1980000
    518e:	60bb      	str	r3, [r7, #8]
    5190:	2302      	movs	r3, #2
    5192:	733b      	strb	r3, [r7, #12]
    5194:	4639      	mov	r1, r7
    5196:	2300      	movs	r3, #0
    5198:	4a09      	ldr	r2, [pc, #36]	; (51c0 <twi_init+0x50>)
    519a:	480a      	ldr	r0, [pc, #40]	; (51c4 <twi_init+0x54>)
    519c:	f7fd f9c4 	bl	2528 <nrf_drv_twi_init>
    51a0:	6178      	str	r0, [r7, #20]
    51a2:	697b      	ldr	r3, [r7, #20]
    51a4:	613b      	str	r3, [r7, #16]
    51a6:	693b      	ldr	r3, [r7, #16]
    51a8:	2b00      	cmp	r3, #0
    51aa:	d002      	beq.n	51b2 <twi_init+0x42>
    51ac:	6938      	ldr	r0, [r7, #16]
    51ae:	f7fc f9a3 	bl	14f8 <app_error_handler_bare>
    51b2:	4804      	ldr	r0, [pc, #16]	; (51c4 <twi_init+0x54>)
    51b4:	f7ff fefe 	bl	4fb4 <nrf_drv_twi_enable>
    51b8:	bf00      	nop
    51ba:	3718      	adds	r7, #24
    51bc:	46bd      	mov	sp, r7
    51be:	bd80      	pop	{r7, pc}
    51c0:	00005131 	.word	0x00005131
    51c4:	00005ef0 	.word	0x00005ef0

000051c8 <read_sensor_data>:
    51c8:	b580      	push	{r7, lr}
    51ca:	b082      	sub	sp, #8
    51cc:	af00      	add	r7, sp, #0
    51ce:	4b0b      	ldr	r3, [pc, #44]	; (51fc <read_sensor_data+0x34>)
    51d0:	2200      	movs	r2, #0
    51d2:	701a      	strb	r2, [r3, #0]
    51d4:	2301      	movs	r3, #1
    51d6:	4a0a      	ldr	r2, [pc, #40]	; (5200 <read_sensor_data+0x38>)
    51d8:	2148      	movs	r1, #72	; 0x48
    51da:	480a      	ldr	r0, [pc, #40]	; (5204 <read_sensor_data+0x3c>)
    51dc:	f7ff ff14 	bl	5008 <nrf_drv_twi_rx>
    51e0:	6078      	str	r0, [r7, #4]
    51e2:	687b      	ldr	r3, [r7, #4]
    51e4:	603b      	str	r3, [r7, #0]
    51e6:	683b      	ldr	r3, [r7, #0]
    51e8:	2b00      	cmp	r3, #0
    51ea:	d002      	beq.n	51f2 <read_sensor_data+0x2a>
    51ec:	6838      	ldr	r0, [r7, #0]
    51ee:	f7fc f983 	bl	14f8 <app_error_handler_bare>
    51f2:	bf00      	nop
    51f4:	3708      	adds	r7, #8
    51f6:	46bd      	mov	sp, r7
    51f8:	bd80      	pop	{r7, pc}
    51fa:	bf00      	nop
    51fc:	200006fc 	.word	0x200006fc
    5200:	200006fd 	.word	0x200006fd
    5204:	00005ef0 	.word	0x00005ef0

00005208 <main>:
    5208:	b580      	push	{r7, lr}
    520a:	b082      	sub	sp, #8
    520c:	af00      	add	r7, sp, #0
    520e:	2100      	movs	r1, #0
    5210:	2000      	movs	r0, #0
    5212:	f7fb faa1 	bl	758 <nrf_log_init>
    5216:	6078      	str	r0, [r7, #4]
    5218:	687b      	ldr	r3, [r7, #4]
    521a:	2b00      	cmp	r3, #0
    521c:	d002      	beq.n	5224 <main+0x1c>
    521e:	6878      	ldr	r0, [r7, #4]
    5220:	f7fc f96a 	bl	14f8 <app_error_handler_bare>
    5224:	f7fb fa20 	bl	668 <nrf_log_default_backends_init>
    5228:	4a14      	ldr	r2, [pc, #80]	; (527c <main+0x74>)
    522a:	4b15      	ldr	r3, [pc, #84]	; (5280 <main+0x78>)
    522c:	1ad3      	subs	r3, r2, r3
    522e:	08db      	lsrs	r3, r3, #3
    5230:	041b      	lsls	r3, r3, #16
    5232:	f043 0303 	orr.w	r3, r3, #3
    5236:	4913      	ldr	r1, [pc, #76]	; (5284 <main+0x7c>)
    5238:	4618      	mov	r0, r3
    523a:	f7fb fd31 	bl	ca0 <nrf_log_frontend_std_0>
    523e:	f7fb fd63 	bl	d08 <nrf_log_frontend_dequeue>
    5242:	4603      	mov	r3, r0
    5244:	2b00      	cmp	r3, #0
    5246:	d1fa      	bne.n	523e <main+0x36>
    5248:	f7ff ff92 	bl	5170 <twi_init>
    524c:	f7ff ff0c 	bl	5068 <LM75B_set_mode>
    5250:	f44f 70fa 	mov.w	r0, #500	; 0x1f4
    5254:	f7ff fef1 	bl	503a <nrf_delay_ms>
    5258:	bf20      	wfe
    525a:	4b0b      	ldr	r3, [pc, #44]	; (5288 <main+0x80>)
    525c:	781b      	ldrb	r3, [r3, #0]
    525e:	b2db      	uxtb	r3, r3
    5260:	f083 0301 	eor.w	r3, r3, #1
    5264:	b2db      	uxtb	r3, r3
    5266:	2b00      	cmp	r3, #0
    5268:	d1f6      	bne.n	5258 <main+0x50>
    526a:	f7ff ffad 	bl	51c8 <read_sensor_data>
    526e:	f7fb fd4b 	bl	d08 <nrf_log_frontend_dequeue>
    5272:	4603      	mov	r3, r0
    5274:	2b00      	cmp	r3, #0
    5276:	d1fa      	bne.n	526e <main+0x66>
    5278:	e7ea      	b.n	5250 <main+0x48>
    527a:	bf00      	nop
    527c:	0000607c 	.word	0x0000607c
    5280:	0000605c 	.word	0x0000605c
    5284:	00005f24 	.word	0x00005f24
    5288:	200006fc 	.word	0x200006fc

0000528c <__NVIC_SystemReset>:
    528c:	b480      	push	{r7}
    528e:	af00      	add	r7, sp, #0
    5290:	f3bf 8f4f 	dsb	sy
    5294:	bf00      	nop
    5296:	4b06      	ldr	r3, [pc, #24]	; (52b0 <__NVIC_SystemReset+0x24>)
    5298:	68db      	ldr	r3, [r3, #12]
    529a:	f403 62e0 	and.w	r2, r3, #1792	; 0x700
    529e:	4904      	ldr	r1, [pc, #16]	; (52b0 <__NVIC_SystemReset+0x24>)
    52a0:	4b04      	ldr	r3, [pc, #16]	; (52b4 <__NVIC_SystemReset+0x28>)
    52a2:	4313      	orrs	r3, r2
    52a4:	60cb      	str	r3, [r1, #12]
    52a6:	f3bf 8f4f 	dsb	sy
    52aa:	bf00      	nop
    52ac:	bf00      	nop
    52ae:	e7fd      	b.n	52ac <__NVIC_SystemReset+0x20>
    52b0:	e000ed00 	.word	0xe000ed00
    52b4:	05fa0004 	.word	0x05fa0004

000052b8 <nrf52_errata_12>:
    52b8:	b480      	push	{r7}
    52ba:	b083      	sub	sp, #12
    52bc:	af00      	add	r7, sp, #0
    52be:	4b1d      	ldr	r3, [pc, #116]	; (5334 <nrf52_errata_12+0x7c>)
    52c0:	681b      	ldr	r3, [r3, #0]
    52c2:	f1b3 3fff 	cmp.w	r3, #4294967295	; 0xffffffff
    52c6:	d10a      	bne.n	52de <nrf52_errata_12+0x26>
    52c8:	4b1b      	ldr	r3, [pc, #108]	; (5338 <nrf52_errata_12+0x80>)
    52ca:	681b      	ldr	r3, [r3, #0]
    52cc:	b2db      	uxtb	r3, r3
    52ce:	607b      	str	r3, [r7, #4]
    52d0:	4b1a      	ldr	r3, [pc, #104]	; (533c <nrf52_errata_12+0x84>)
    52d2:	681b      	ldr	r3, [r3, #0]
    52d4:	091b      	lsrs	r3, r3, #4
    52d6:	f003 030f 	and.w	r3, r3, #15
    52da:	603b      	str	r3, [r7, #0]
    52dc:	e005      	b.n	52ea <nrf52_errata_12+0x32>
    52de:	4b15      	ldr	r3, [pc, #84]	; (5334 <nrf52_errata_12+0x7c>)
    52e0:	681b      	ldr	r3, [r3, #0]
    52e2:	607b      	str	r3, [r7, #4]
    52e4:	4b16      	ldr	r3, [pc, #88]	; (5340 <nrf52_errata_12+0x88>)
    52e6:	681b      	ldr	r3, [r3, #0]
    52e8:	603b      	str	r3, [r7, #0]
    52ea:	687b      	ldr	r3, [r7, #4]
    52ec:	2b06      	cmp	r3, #6
    52ee:	d119      	bne.n	5324 <nrf52_errata_12+0x6c>
    52f0:	683b      	ldr	r3, [r7, #0]
    52f2:	3b03      	subs	r3, #3
    52f4:	2b03      	cmp	r3, #3
    52f6:	d813      	bhi.n	5320 <nrf52_errata_12+0x68>
    52f8:	a201      	add	r2, pc, #4	; (adr r2, 5300 <nrf52_errata_12+0x48>)
    52fa:	f852 f023 	ldr.w	pc, [r2, r3, lsl #2]
    52fe:	bf00      	nop
    5300:	00005311 	.word	0x00005311
    5304:	00005315 	.word	0x00005315
    5308:	00005319 	.word	0x00005319
    530c:	0000531d 	.word	0x0000531d
    5310:	2301      	movs	r3, #1
    5312:	e008      	b.n	5326 <nrf52_errata_12+0x6e>
    5314:	2301      	movs	r3, #1
    5316:	e006      	b.n	5326 <nrf52_errata_12+0x6e>
    5318:	2301      	movs	r3, #1
    531a:	e004      	b.n	5326 <nrf52_errata_12+0x6e>
    531c:	2301      	movs	r3, #1
    531e:	e002      	b.n	5326 <nrf52_errata_12+0x6e>
    5320:	2301      	movs	r3, #1
    5322:	e000      	b.n	5326 <nrf52_errata_12+0x6e>
    5324:	2300      	movs	r3, #0
    5326:	4618      	mov	r0, r3
    5328:	370c      	adds	r7, #12
    532a:	46bd      	mov	sp, r7
    532c:	f85d 7b04 	ldr.w	r7, [sp], #4
    5330:	4770      	bx	lr
    5332:	bf00      	nop
    5334:	10000130 	.word	0x10000130
    5338:	f0000fe0 	.word	0xf0000fe0
    533c:	f0000fe8 	.word	0xf0000fe8
    5340:	10000134 	.word	0x10000134

00005344 <nrf52_errata_16>:
    5344:	b480      	push	{r7}
    5346:	b083      	sub	sp, #12
    5348:	af00      	add	r7, sp, #0
    534a:	4b17      	ldr	r3, [pc, #92]	; (53a8 <nrf52_errata_16+0x64>)
    534c:	681b      	ldr	r3, [r3, #0]
    534e:	b2db      	uxtb	r3, r3
    5350:	607b      	str	r3, [r7, #4]
    5352:	4b16      	ldr	r3, [pc, #88]	; (53ac <nrf52_errata_16+0x68>)
    5354:	681b      	ldr	r3, [r3, #0]
    5356:	091b      	lsrs	r3, r3, #4
    5358:	f003 030f 	and.w	r3, r3, #15
    535c:	603b      	str	r3, [r7, #0]
    535e:	687b      	ldr	r3, [r7, #4]
    5360:	2b06      	cmp	r3, #6
    5362:	d119      	bne.n	5398 <nrf52_errata_16+0x54>
    5364:	683b      	ldr	r3, [r7, #0]
    5366:	3b03      	subs	r3, #3
    5368:	2b03      	cmp	r3, #3
    536a:	d813      	bhi.n	5394 <nrf52_errata_16+0x50>
    536c:	a201      	add	r2, pc, #4	; (adr r2, 5374 <nrf52_errata_16+0x30>)
    536e:	f852 f023 	ldr.w	pc, [r2, r3, lsl #2]
    5372:	bf00      	nop
    5374:	00005385 	.word	0x00005385
    5378:	00005389 	.word	0x00005389
    537c:	0000538d 	.word	0x0000538d
    5380:	00005391 	.word	0x00005391
    5384:	2301      	movs	r3, #1
    5386:	e008      	b.n	539a <nrf52_errata_16+0x56>
    5388:	2300      	movs	r3, #0
    538a:	e006      	b.n	539a <nrf52_errata_16+0x56>
    538c:	2300      	movs	r3, #0
    538e:	e004      	b.n	539a <nrf52_errata_16+0x56>
    5390:	2300      	movs	r3, #0
    5392:	e002      	b.n	539a <nrf52_errata_16+0x56>
    5394:	2300      	movs	r3, #0
    5396:	e000      	b.n	539a <nrf52_errata_16+0x56>
    5398:	2300      	movs	r3, #0
    539a:	4618      	mov	r0, r3
    539c:	370c      	adds	r7, #12
    539e:	46bd      	mov	sp, r7
    53a0:	f85d 7b04 	ldr.w	r7, [sp], #4
    53a4:	4770      	bx	lr
    53a6:	bf00      	nop
    53a8:	f0000fe0 	.word	0xf0000fe0
    53ac:	f0000fe8 	.word	0xf0000fe8

000053b0 <nrf52_errata_31>:
    53b0:	b480      	push	{r7}
    53b2:	b083      	sub	sp, #12
    53b4:	af00      	add	r7, sp, #0
    53b6:	4b1d      	ldr	r3, [pc, #116]	; (542c <nrf52_errata_31+0x7c>)
    53b8:	681b      	ldr	r3, [r3, #0]
    53ba:	f1b3 3fff 	cmp.w	r3, #4294967295	; 0xffffffff
    53be:	d10a      	bne.n	53d6 <nrf52_errata_31+0x26>
    53c0:	4b1b      	ldr	r3, [pc, #108]	; (5430 <nrf52_errata_31+0x80>)
    53c2:	681b      	ldr	r3, [r3, #0]
    53c4:	b2db      	uxtb	r3, r3
    53c6:	607b      	str	r3, [r7, #4]
    53c8:	4b1a      	ldr	r3, [pc, #104]	; (5434 <nrf52_errata_31+0x84>)
    53ca:	681b      	ldr	r3, [r3, #0]
    53cc:	091b      	lsrs	r3, r3, #4
    53ce:	f003 030f 	and.w	r3, r3, #15
    53d2:	603b      	str	r3, [r7, #0]
    53d4:	e005      	b.n	53e2 <nrf52_errata_31+0x32>
    53d6:	4b15      	ldr	r3, [pc, #84]	; (542c <nrf52_errata_31+0x7c>)
    53d8:	681b      	ldr	r3, [r3, #0]
    53da:	607b      	str	r3, [r7, #4]
    53dc:	4b16      	ldr	r3, [pc, #88]	; (5438 <nrf52_errata_31+0x88>)
    53de:	681b      	ldr	r3, [r3, #0]
    53e0:	603b      	str	r3, [r7, #0]
    53e2:	687b      	ldr	r3, [r7, #4]
    53e4:	2b06      	cmp	r3, #6
    53e6:	d119      	bne.n	541c <nrf52_errata_31+0x6c>
    53e8:	683b      	ldr	r3, [r7, #0]
    53ea:	3b03      	subs	r3, #3
    53ec:	2b03      	cmp	r3, #3
    53ee:	d813      	bhi.n	5418 <nrf52_errata_31+0x68>
    53f0:	a201      	add	r2, pc, #4	; (adr r2, 53f8 <nrf52_errata_31+0x48>)
    53f2:	f852 f023 	ldr.w	pc, [r2, r3, lsl #2]
    53f6:	bf00      	nop
    53f8:	00005409 	.word	0x00005409
    53fc:	0000540d 	.word	0x0000540d
    5400:	00005411 	.word	0x00005411
    5404:	00005415 	.word	0x00005415
    5408:	2301      	movs	r3, #1
    540a:	e008      	b.n	541e <nrf52_errata_31+0x6e>
    540c:	2301      	movs	r3, #1
    540e:	e006      	b.n	541e <nrf52_errata_31+0x6e>
    5410:	2301      	movs	r3, #1
    5412:	e004      	b.n	541e <nrf52_errata_31+0x6e>
    5414:	2301      	movs	r3, #1
    5416:	e002      	b.n	541e <nrf52_errata_31+0x6e>
    5418:	2301      	movs	r3, #1
    541a:	e000      	b.n	541e <nrf52_errata_31+0x6e>
    541c:	2300      	movs	r3, #0
    541e:	4618      	mov	r0, r3
    5420:	370c      	adds	r7, #12
    5422:	46bd      	mov	sp, r7
    5424:	f85d 7b04 	ldr.w	r7, [sp], #4
    5428:	4770      	bx	lr
    542a:	bf00      	nop
    542c:	10000130 	.word	0x10000130
    5430:	f0000fe0 	.word	0xf0000fe0
    5434:	f0000fe8 	.word	0xf0000fe8
    5438:	10000134 	.word	0x10000134

0000543c <nrf52_errata_32>:
    543c:	b480      	push	{r7}
    543e:	b083      	sub	sp, #12
    5440:	af00      	add	r7, sp, #0
    5442:	4b17      	ldr	r3, [pc, #92]	; (54a0 <nrf52_errata_32+0x64>)
    5444:	681b      	ldr	r3, [r3, #0]
    5446:	b2db      	uxtb	r3, r3
    5448:	607b      	str	r3, [r7, #4]
    544a:	4b16      	ldr	r3, [pc, #88]	; (54a4 <nrf52_errata_32+0x68>)
    544c:	681b      	ldr	r3, [r3, #0]
    544e:	091b      	lsrs	r3, r3, #4
    5450:	f003 030f 	and.w	r3, r3, #15
    5454:	603b      	str	r3, [r7, #0]
    5456:	687b      	ldr	r3, [r7, #4]
    5458:	2b06      	cmp	r3, #6
    545a:	d119      	bne.n	5490 <nrf52_errata_32+0x54>
    545c:	683b      	ldr	r3, [r7, #0]
    545e:	3b03      	subs	r3, #3
    5460:	2b03      	cmp	r3, #3
    5462:	d813      	bhi.n	548c <nrf52_errata_32+0x50>
    5464:	a201      	add	r2, pc, #4	; (adr r2, 546c <nrf52_errata_32+0x30>)
    5466:	f852 f023 	ldr.w	pc, [r2, r3, lsl #2]
    546a:	bf00      	nop
    546c:	0000547d 	.word	0x0000547d
    5470:	00005481 	.word	0x00005481
    5474:	00005485 	.word	0x00005485
    5478:	00005489 	.word	0x00005489
    547c:	2301      	movs	r3, #1
    547e:	e008      	b.n	5492 <nrf52_errata_32+0x56>
    5480:	2300      	movs	r3, #0
    5482:	e006      	b.n	5492 <nrf52_errata_32+0x56>
    5484:	2300      	movs	r3, #0
    5486:	e004      	b.n	5492 <nrf52_errata_32+0x56>
    5488:	2300      	movs	r3, #0
    548a:	e002      	b.n	5492 <nrf52_errata_32+0x56>
    548c:	2300      	movs	r3, #0
    548e:	e000      	b.n	5492 <nrf52_errata_32+0x56>
    5490:	2300      	movs	r3, #0
    5492:	4618      	mov	r0, r3
    5494:	370c      	adds	r7, #12
    5496:	46bd      	mov	sp, r7
    5498:	f85d 7b04 	ldr.w	r7, [sp], #4
    549c:	4770      	bx	lr
    549e:	bf00      	nop
    54a0:	f0000fe0 	.word	0xf0000fe0
    54a4:	f0000fe8 	.word	0xf0000fe8

000054a8 <nrf52_errata_36>:
    54a8:	b480      	push	{r7}
    54aa:	b083      	sub	sp, #12
    54ac:	af00      	add	r7, sp, #0
    54ae:	4b1d      	ldr	r3, [pc, #116]	; (5524 <nrf52_errata_36+0x7c>)
    54b0:	681b      	ldr	r3, [r3, #0]
    54b2:	f1b3 3fff 	cmp.w	r3, #4294967295	; 0xffffffff
    54b6:	d10a      	bne.n	54ce <nrf52_errata_36+0x26>
    54b8:	4b1b      	ldr	r3, [pc, #108]	; (5528 <nrf52_errata_36+0x80>)
    54ba:	681b      	ldr	r3, [r3, #0]
    54bc:	b2db      	uxtb	r3, r3
    54be:	607b      	str	r3, [r7, #4]
    54c0:	4b1a      	ldr	r3, [pc, #104]	; (552c <nrf52_errata_36+0x84>)
    54c2:	681b      	ldr	r3, [r3, #0]
    54c4:	091b      	lsrs	r3, r3, #4
    54c6:	f003 030f 	and.w	r3, r3, #15
    54ca:	603b      	str	r3, [r7, #0]
    54cc:	e005      	b.n	54da <nrf52_errata_36+0x32>
    54ce:	4b15      	ldr	r3, [pc, #84]	; (5524 <nrf52_errata_36+0x7c>)
    54d0:	681b      	ldr	r3, [r3, #0]
    54d2:	607b      	str	r3, [r7, #4]
    54d4:	4b16      	ldr	r3, [pc, #88]	; (5530 <nrf52_errata_36+0x88>)
    54d6:	681b      	ldr	r3, [r3, #0]
    54d8:	603b      	str	r3, [r7, #0]
    54da:	687b      	ldr	r3, [r7, #4]
    54dc:	2b06      	cmp	r3, #6
    54de:	d119      	bne.n	5514 <nrf52_errata_36+0x6c>
    54e0:	683b      	ldr	r3, [r7, #0]
    54e2:	3b03      	subs	r3, #3
    54e4:	2b03      	cmp	r3, #3
    54e6:	d813      	bhi.n	5510 <nrf52_errata_36+0x68>
    54e8:	a201      	add	r2, pc, #4	; (adr r2, 54f0 <nrf52_errata_36+0x48>)
    54ea:	f852 f023 	ldr.w	pc, [r2, r3, lsl #2]
    54ee:	bf00      	nop
    54f0:	00005501 	.word	0x00005501
    54f4:	00005505 	.word	0x00005505
    54f8:	00005509 	.word	0x00005509
    54fc:	0000550d 	.word	0x0000550d
    5500:	2301      	movs	r3, #1
    5502:	e008      	b.n	5516 <nrf52_errata_36+0x6e>
    5504:	2301      	movs	r3, #1
    5506:	e006      	b.n	5516 <nrf52_errata_36+0x6e>
    5508:	2301      	movs	r3, #1
    550a:	e004      	b.n	5516 <nrf52_errata_36+0x6e>
    550c:	2301      	movs	r3, #1
    550e:	e002      	b.n	5516 <nrf52_errata_36+0x6e>
    5510:	2301      	movs	r3, #1
    5512:	e000      	b.n	5516 <nrf52_errata_36+0x6e>
    5514:	2300      	movs	r3, #0
    5516:	4618      	mov	r0, r3
    5518:	370c      	adds	r7, #12
    551a:	46bd      	mov	sp, r7
    551c:	f85d 7b04 	ldr.w	r7, [sp], #4
    5520:	4770      	bx	lr
    5522:	bf00      	nop
    5524:	10000130 	.word	0x10000130
    5528:	f0000fe0 	.word	0xf0000fe0
    552c:	f0000fe8 	.word	0xf0000fe8
    5530:	10000134 	.word	0x10000134

00005534 <nrf52_errata_37>:
    5534:	b480      	push	{r7}
    5536:	b083      	sub	sp, #12
    5538:	af00      	add	r7, sp, #0
    553a:	4b17      	ldr	r3, [pc, #92]	; (5598 <nrf52_errata_37+0x64>)
    553c:	681b      	ldr	r3, [r3, #0]
    553e:	b2db      	uxtb	r3, r3
    5540:	607b      	str	r3, [r7, #4]
    5542:	4b16      	ldr	r3, [pc, #88]	; (559c <nrf52_errata_37+0x68>)
    5544:	681b      	ldr	r3, [r3, #0]
    5546:	091b      	lsrs	r3, r3, #4
    5548:	f003 030f 	and.w	r3, r3, #15
    554c:	603b      	str	r3, [r7, #0]
    554e:	687b      	ldr	r3, [r7, #4]
    5550:	2b06      	cmp	r3, #6
    5552:	d119      	bne.n	5588 <nrf52_errata_37+0x54>
    5554:	683b      	ldr	r3, [r7, #0]
    5556:	3b03      	subs	r3, #3
    5558:	2b03      	cmp	r3, #3
    555a:	d813      	bhi.n	5584 <nrf52_errata_37+0x50>
    555c:	a201      	add	r2, pc, #4	; (adr r2, 5564 <nrf52_errata_37+0x30>)
    555e:	f852 f023 	ldr.w	pc, [r2, r3, lsl #2]
    5562:	bf00      	nop
    5564:	00005575 	.word	0x00005575
    5568:	00005579 	.word	0x00005579
    556c:	0000557d 	.word	0x0000557d
    5570:	00005581 	.word	0x00005581
    5574:	2301      	movs	r3, #1
    5576:	e008      	b.n	558a <nrf52_errata_37+0x56>
    5578:	2300      	movs	r3, #0
    557a:	e006      	b.n	558a <nrf52_errata_37+0x56>
    557c:	2300      	movs	r3, #0
    557e:	e004      	b.n	558a <nrf52_errata_37+0x56>
    5580:	2300      	movs	r3, #0
    5582:	e002      	b.n	558a <nrf52_errata_37+0x56>
    5584:	2300      	movs	r3, #0
    5586:	e000      	b.n	558a <nrf52_errata_37+0x56>
    5588:	2300      	movs	r3, #0
    558a:	4618      	mov	r0, r3
    558c:	370c      	adds	r7, #12
    558e:	46bd      	mov	sp, r7
    5590:	f85d 7b04 	ldr.w	r7, [sp], #4
    5594:	4770      	bx	lr
    5596:	bf00      	nop
    5598:	f0000fe0 	.word	0xf0000fe0
    559c:	f0000fe8 	.word	0xf0000fe8

000055a0 <nrf52_errata_57>:
    55a0:	b480      	push	{r7}
    55a2:	b083      	sub	sp, #12
    55a4:	af00      	add	r7, sp, #0
    55a6:	4b17      	ldr	r3, [pc, #92]	; (5604 <nrf52_errata_57+0x64>)
    55a8:	681b      	ldr	r3, [r3, #0]
    55aa:	b2db      	uxtb	r3, r3
    55ac:	607b      	str	r3, [r7, #4]
    55ae:	4b16      	ldr	r3, [pc, #88]	; (5608 <nrf52_errata_57+0x68>)
    55b0:	681b      	ldr	r3, [r3, #0]
    55b2:	091b      	lsrs	r3, r3, #4
    55b4:	f003 030f 	and.w	r3, r3, #15
    55b8:	603b      	str	r3, [r7, #0]
    55ba:	687b      	ldr	r3, [r7, #4]
    55bc:	2b06      	cmp	r3, #6
    55be:	d119      	bne.n	55f4 <nrf52_errata_57+0x54>
    55c0:	683b      	ldr	r3, [r7, #0]
    55c2:	3b03      	subs	r3, #3
    55c4:	2b03      	cmp	r3, #3
    55c6:	d813      	bhi.n	55f0 <nrf52_errata_57+0x50>
    55c8:	a201      	add	r2, pc, #4	; (adr r2, 55d0 <nrf52_errata_57+0x30>)
    55ca:	f852 f023 	ldr.w	pc, [r2, r3, lsl #2]
    55ce:	bf00      	nop
    55d0:	000055e1 	.word	0x000055e1
    55d4:	000055e5 	.word	0x000055e5
    55d8:	000055e9 	.word	0x000055e9
    55dc:	000055ed 	.word	0x000055ed
    55e0:	2301      	movs	r3, #1
    55e2:	e008      	b.n	55f6 <nrf52_errata_57+0x56>
    55e4:	2300      	movs	r3, #0
    55e6:	e006      	b.n	55f6 <nrf52_errata_57+0x56>
    55e8:	2300      	movs	r3, #0
    55ea:	e004      	b.n	55f6 <nrf52_errata_57+0x56>
    55ec:	2300      	movs	r3, #0
    55ee:	e002      	b.n	55f6 <nrf52_errata_57+0x56>
    55f0:	2300      	movs	r3, #0
    55f2:	e000      	b.n	55f6 <nrf52_errata_57+0x56>
    55f4:	2300      	movs	r3, #0
    55f6:	4618      	mov	r0, r3
    55f8:	370c      	adds	r7, #12
    55fa:	46bd      	mov	sp, r7
    55fc:	f85d 7b04 	ldr.w	r7, [sp], #4
    5600:	4770      	bx	lr
    5602:	bf00      	nop
    5604:	f0000fe0 	.word	0xf0000fe0
    5608:	f0000fe8 	.word	0xf0000fe8

0000560c <nrf52_errata_66>:
    560c:	b480      	push	{r7}
    560e:	b083      	sub	sp, #12
    5610:	af00      	add	r7, sp, #0
    5612:	4b1d      	ldr	r3, [pc, #116]	; (5688 <nrf52_errata_66+0x7c>)
    5614:	681b      	ldr	r3, [r3, #0]
    5616:	f1b3 3fff 	cmp.w	r3, #4294967295	; 0xffffffff
    561a:	d10a      	bne.n	5632 <nrf52_errata_66+0x26>
    561c:	4b1b      	ldr	r3, [pc, #108]	; (568c <nrf52_errata_66+0x80>)
    561e:	681b      	ldr	r3, [r3, #0]
    5620:	b2db      	uxtb	r3, r3
    5622:	607b      	str	r3, [r7, #4]
    5624:	4b1a      	ldr	r3, [pc, #104]	; (5690 <nrf52_errata_66+0x84>)
    5626:	681b      	ldr	r3, [r3, #0]
    5628:	091b      	lsrs	r3, r3, #4
    562a:	f003 030f 	and.w	r3, r3, #15
    562e:	603b      	str	r3, [r7, #0]
    5630:	e005      	b.n	563e <nrf52_errata_66+0x32>
    5632:	4b15      	ldr	r3, [pc, #84]	; (5688 <nrf52_errata_66+0x7c>)
    5634:	681b      	ldr	r3, [r3, #0]
    5636:	607b      	str	r3, [r7, #4]
    5638:	4b16      	ldr	r3, [pc, #88]	; (5694 <nrf52_errata_66+0x88>)
    563a:	681b      	ldr	r3, [r3, #0]
    563c:	603b      	str	r3, [r7, #0]
    563e:	687b      	ldr	r3, [r7, #4]
    5640:	2b06      	cmp	r3, #6
    5642:	d119      	bne.n	5678 <nrf52_errata_66+0x6c>
    5644:	683b      	ldr	r3, [r7, #0]
    5646:	3b03      	subs	r3, #3
    5648:	2b03      	cmp	r3, #3
    564a:	d813      	bhi.n	5674 <nrf52_errata_66+0x68>
    564c:	a201      	add	r2, pc, #4	; (adr r2, 5654 <nrf52_errata_66+0x48>)
    564e:	f852 f023 	ldr.w	pc, [r2, r3, lsl #2]
    5652:	bf00      	nop
    5654:	00005665 	.word	0x00005665
    5658:	00005669 	.word	0x00005669
    565c:	0000566d 	.word	0x0000566d
    5660:	00005671 	.word	0x00005671
    5664:	2300      	movs	r3, #0
    5666:	e008      	b.n	567a <nrf52_errata_66+0x6e>
    5668:	2300      	movs	r3, #0
    566a:	e006      	b.n	567a <nrf52_errata_66+0x6e>
    566c:	2301      	movs	r3, #1
    566e:	e004      	b.n	567a <nrf52_errata_66+0x6e>
    5670:	2301      	movs	r3, #1
    5672:	e002      	b.n	567a <nrf52_errata_66+0x6e>
    5674:	2301      	movs	r3, #1
    5676:	e000      	b.n	567a <nrf52_errata_66+0x6e>
    5678:	2300      	movs	r3, #0
    567a:	4618      	mov	r0, r3
    567c:	370c      	adds	r7, #12
    567e:	46bd      	mov	sp, r7
    5680:	f85d 7b04 	ldr.w	r7, [sp], #4
    5684:	4770      	bx	lr
    5686:	bf00      	nop
    5688:	10000130 	.word	0x10000130
    568c:	f0000fe0 	.word	0xf0000fe0
    5690:	f0000fe8 	.word	0xf0000fe8
    5694:	10000134 	.word	0x10000134

00005698 <nrf52_errata_108>:
    5698:	b480      	push	{r7}
    569a:	b083      	sub	sp, #12
    569c:	af00      	add	r7, sp, #0
    569e:	4b1d      	ldr	r3, [pc, #116]	; (5714 <nrf52_errata_108+0x7c>)
    56a0:	681b      	ldr	r3, [r3, #0]
    56a2:	f1b3 3fff 	cmp.w	r3, #4294967295	; 0xffffffff
    56a6:	d10a      	bne.n	56be <nrf52_errata_108+0x26>
    56a8:	4b1b      	ldr	r3, [pc, #108]	; (5718 <nrf52_errata_108+0x80>)
    56aa:	681b      	ldr	r3, [r3, #0]
    56ac:	b2db      	uxtb	r3, r3
    56ae:	607b      	str	r3, [r7, #4]
    56b0:	4b1a      	ldr	r3, [pc, #104]	; (571c <nrf52_errata_108+0x84>)
    56b2:	681b      	ldr	r3, [r3, #0]
    56b4:	091b      	lsrs	r3, r3, #4
    56b6:	f003 030f 	and.w	r3, r3, #15
    56ba:	603b      	str	r3, [r7, #0]
    56bc:	e005      	b.n	56ca <nrf52_errata_108+0x32>
    56be:	4b15      	ldr	r3, [pc, #84]	; (5714 <nrf52_errata_108+0x7c>)
    56c0:	681b      	ldr	r3, [r3, #0]
    56c2:	607b      	str	r3, [r7, #4]
    56c4:	4b16      	ldr	r3, [pc, #88]	; (5720 <nrf52_errata_108+0x88>)
    56c6:	681b      	ldr	r3, [r3, #0]
    56c8:	603b      	str	r3, [r7, #0]
    56ca:	687b      	ldr	r3, [r7, #4]
    56cc:	2b06      	cmp	r3, #6
    56ce:	d119      	bne.n	5704 <nrf52_errata_108+0x6c>
    56d0:	683b      	ldr	r3, [r7, #0]
    56d2:	3b03      	subs	r3, #3
    56d4:	2b03      	cmp	r3, #3
    56d6:	d813      	bhi.n	5700 <nrf52_errata_108+0x68>
    56d8:	a201      	add	r2, pc, #4	; (adr r2, 56e0 <nrf52_errata_108+0x48>)
    56da:	f852 f023 	ldr.w	pc, [r2, r3, lsl #2]
    56de:	bf00      	nop
    56e0:	000056f1 	.word	0x000056f1
    56e4:	000056f5 	.word	0x000056f5
    56e8:	000056f9 	.word	0x000056f9
    56ec:	000056fd 	.word	0x000056fd
    56f0:	2301      	movs	r3, #1
    56f2:	e008      	b.n	5706 <nrf52_errata_108+0x6e>
    56f4:	2301      	movs	r3, #1
    56f6:	e006      	b.n	5706 <nrf52_errata_108+0x6e>
    56f8:	2301      	movs	r3, #1
    56fa:	e004      	b.n	5706 <nrf52_errata_108+0x6e>
    56fc:	2301      	movs	r3, #1
    56fe:	e002      	b.n	5706 <nrf52_errata_108+0x6e>
    5700:	2301      	movs	r3, #1
    5702:	e000      	b.n	5706 <nrf52_errata_108+0x6e>
    5704:	2300      	movs	r3, #0
    5706:	4618      	mov	r0, r3
    5708:	370c      	adds	r7, #12
    570a:	46bd      	mov	sp, r7
    570c:	f85d 7b04 	ldr.w	r7, [sp], #4
    5710:	4770      	bx	lr
    5712:	bf00      	nop
    5714:	10000130 	.word	0x10000130
    5718:	f0000fe0 	.word	0xf0000fe0
    571c:	f0000fe8 	.word	0xf0000fe8
    5720:	10000134 	.word	0x10000134

00005724 <nrf52_errata_136>:
    5724:	b480      	push	{r7}
    5726:	b083      	sub	sp, #12
    5728:	af00      	add	r7, sp, #0
    572a:	4b1d      	ldr	r3, [pc, #116]	; (57a0 <nrf52_errata_136+0x7c>)
    572c:	681b      	ldr	r3, [r3, #0]
    572e:	f1b3 3fff 	cmp.w	r3, #4294967295	; 0xffffffff
    5732:	d10a      	bne.n	574a <nrf52_errata_136+0x26>
    5734:	4b1b      	ldr	r3, [pc, #108]	; (57a4 <nrf52_errata_136+0x80>)
    5736:	681b      	ldr	r3, [r3, #0]
    5738:	b2db      	uxtb	r3, r3
    573a:	607b      	str	r3, [r7, #4]
    573c:	4b1a      	ldr	r3, [pc, #104]	; (57a8 <nrf52_errata_136+0x84>)
    573e:	681b      	ldr	r3, [r3, #0]
    5740:	091b      	lsrs	r3, r3, #4
    5742:	f003 030f 	and.w	r3, r3, #15
    5746:	603b      	str	r3, [r7, #0]
    5748:	e005      	b.n	5756 <nrf52_errata_136+0x32>
    574a:	4b15      	ldr	r3, [pc, #84]	; (57a0 <nrf52_errata_136+0x7c>)
    574c:	681b      	ldr	r3, [r3, #0]
    574e:	607b      	str	r3, [r7, #4]
    5750:	4b16      	ldr	r3, [pc, #88]	; (57ac <nrf52_errata_136+0x88>)
    5752:	681b      	ldr	r3, [r3, #0]
    5754:	603b      	str	r3, [r7, #0]
    5756:	687b      	ldr	r3, [r7, #4]
    5758:	2b06      	cmp	r3, #6
    575a:	d119      	bne.n	5790 <nrf52_errata_136+0x6c>
    575c:	683b      	ldr	r3, [r7, #0]
    575e:	3b03      	subs	r3, #3
    5760:	2b03      	cmp	r3, #3
    5762:	d813      	bhi.n	578c <nrf52_errata_136+0x68>
    5764:	a201      	add	r2, pc, #4	; (adr r2, 576c <nrf52_errata_136+0x48>)
    5766:	f852 f023 	ldr.w	pc, [r2, r3, lsl #2]
    576a:	bf00      	nop
    576c:	0000577d 	.word	0x0000577d
    5770:	00005781 	.word	0x00005781
    5774:	00005785 	.word	0x00005785
    5778:	00005789 	.word	0x00005789
    577c:	2301      	movs	r3, #1
    577e:	e008      	b.n	5792 <nrf52_errata_136+0x6e>
    5780:	2301      	movs	r3, #1
    5782:	e006      	b.n	5792 <nrf52_errata_136+0x6e>
    5784:	2301      	movs	r3, #1
    5786:	e004      	b.n	5792 <nrf52_errata_136+0x6e>
    5788:	2301      	movs	r3, #1
    578a:	e002      	b.n	5792 <nrf52_errata_136+0x6e>
    578c:	2301      	movs	r3, #1
    578e:	e000      	b.n	5792 <nrf52_errata_136+0x6e>
    5790:	2300      	movs	r3, #0
    5792:	4618      	mov	r0, r3
    5794:	370c      	adds	r7, #12
    5796:	46bd      	mov	sp, r7
    5798:	f85d 7b04 	ldr.w	r7, [sp], #4
    579c:	4770      	bx	lr
    579e:	bf00      	nop
    57a0:	10000130 	.word	0x10000130
    57a4:	f0000fe0 	.word	0xf0000fe0
    57a8:	f0000fe8 	.word	0xf0000fe8
    57ac:	10000134 	.word	0x10000134

000057b0 <nrf52_errata_182>:
    57b0:	b480      	push	{r7}
    57b2:	b083      	sub	sp, #12
    57b4:	af00      	add	r7, sp, #0
    57b6:	4b15      	ldr	r3, [pc, #84]	; (580c <nrf52_errata_182+0x5c>)
    57b8:	681b      	ldr	r3, [r3, #0]
    57ba:	607b      	str	r3, [r7, #4]
    57bc:	4b14      	ldr	r3, [pc, #80]	; (5810 <nrf52_errata_182+0x60>)
    57be:	681b      	ldr	r3, [r3, #0]
    57c0:	603b      	str	r3, [r7, #0]
    57c2:	687b      	ldr	r3, [r7, #4]
    57c4:	2b06      	cmp	r3, #6
    57c6:	d119      	bne.n	57fc <nrf52_errata_182+0x4c>
    57c8:	683b      	ldr	r3, [r7, #0]
    57ca:	3b03      	subs	r3, #3
    57cc:	2b03      	cmp	r3, #3
    57ce:	d813      	bhi.n	57f8 <nrf52_errata_182+0x48>
    57d0:	a201      	add	r2, pc, #4	; (adr r2, 57d8 <nrf52_errata_182+0x28>)
    57d2:	f852 f023 	ldr.w	pc, [r2, r3, lsl #2]
    57d6:	bf00      	nop
    57d8:	000057e9 	.word	0x000057e9
    57dc:	000057ed 	.word	0x000057ed
    57e0:	000057f1 	.word	0x000057f1
    57e4:	000057f5 	.word	0x000057f5
    57e8:	2300      	movs	r3, #0
    57ea:	e008      	b.n	57fe <nrf52_errata_182+0x4e>
    57ec:	2300      	movs	r3, #0
    57ee:	e006      	b.n	57fe <nrf52_errata_182+0x4e>
    57f0:	2300      	movs	r3, #0
    57f2:	e004      	b.n	57fe <nrf52_errata_182+0x4e>
    57f4:	2301      	movs	r3, #1
    57f6:	e002      	b.n	57fe <nrf52_errata_182+0x4e>
    57f8:	2301      	movs	r3, #1
    57fa:	e000      	b.n	57fe <nrf52_errata_182+0x4e>
    57fc:	2300      	movs	r3, #0
    57fe:	4618      	mov	r0, r3
    5800:	370c      	adds	r7, #12
    5802:	46bd      	mov	sp, r7
    5804:	f85d 7b04 	ldr.w	r7, [sp], #4
    5808:	4770      	bx	lr
    580a:	bf00      	nop
    580c:	10000130 	.word	0x10000130
    5810:	10000134 	.word	0x10000134

00005814 <SystemCoreClockUpdate>:
    5814:	b480      	push	{r7}
    5816:	af00      	add	r7, sp, #0
    5818:	4b03      	ldr	r3, [pc, #12]	; (5828 <SystemCoreClockUpdate+0x14>)
    581a:	4a04      	ldr	r2, [pc, #16]	; (582c <SystemCoreClockUpdate+0x18>)
    581c:	601a      	str	r2, [r3, #0]
    581e:	bf00      	nop
    5820:	46bd      	mov	sp, r7
    5822:	f85d 7b04 	ldr.w	r7, [sp], #4
    5826:	4770      	bx	lr
    5828:	20000058 	.word	0x20000058
    582c:	03d09000 	.word	0x03d09000

00005830 <SystemInit>:
    5830:	b580      	push	{r7, lr}
    5832:	af00      	add	r7, sp, #0
    5834:	f7ff fd40 	bl	52b8 <nrf52_errata_12>
    5838:	4603      	mov	r3, r0
    583a:	2b00      	cmp	r3, #0
    583c:	d006      	beq.n	584c <SystemInit+0x1c>
    583e:	4ba1      	ldr	r3, [pc, #644]	; (5ac4 <SystemInit+0x294>)
    5840:	681b      	ldr	r3, [r3, #0]
    5842:	0a1b      	lsrs	r3, r3, #8
    5844:	4aa0      	ldr	r2, [pc, #640]	; (5ac8 <SystemInit+0x298>)
    5846:	f003 031f 	and.w	r3, r3, #31
    584a:	6013      	str	r3, [r2, #0]
    584c:	f7ff fd7a 	bl	5344 <nrf52_errata_16>
    5850:	4603      	mov	r3, r0
    5852:	2b00      	cmp	r3, #0
    5854:	d002      	beq.n	585c <SystemInit+0x2c>
    5856:	4b9d      	ldr	r3, [pc, #628]	; (5acc <SystemInit+0x29c>)
    5858:	4a9d      	ldr	r2, [pc, #628]	; (5ad0 <SystemInit+0x2a0>)
    585a:	601a      	str	r2, [r3, #0]
    585c:	f7ff fda8 	bl	53b0 <nrf52_errata_31>
    5860:	4603      	mov	r3, r0
    5862:	2b00      	cmp	r3, #0
    5864:	d006      	beq.n	5874 <SystemInit+0x44>
    5866:	4b9b      	ldr	r3, [pc, #620]	; (5ad4 <SystemInit+0x2a4>)
    5868:	681b      	ldr	r3, [r3, #0]
    586a:	0b5b      	lsrs	r3, r3, #13
    586c:	4a9a      	ldr	r2, [pc, #616]	; (5ad8 <SystemInit+0x2a8>)
    586e:	f003 0307 	and.w	r3, r3, #7
    5872:	6013      	str	r3, [r2, #0]
    5874:	f7ff fde2 	bl	543c <nrf52_errata_32>
    5878:	4603      	mov	r3, r0
    587a:	2b00      	cmp	r3, #0
    587c:	d005      	beq.n	588a <SystemInit+0x5a>
    587e:	4b97      	ldr	r3, [pc, #604]	; (5adc <SystemInit+0x2ac>)
    5880:	68db      	ldr	r3, [r3, #12]
    5882:	4a96      	ldr	r2, [pc, #600]	; (5adc <SystemInit+0x2ac>)
    5884:	f023 7380 	bic.w	r3, r3, #16777216	; 0x1000000
    5888:	60d3      	str	r3, [r2, #12]
    588a:	f7ff fe0d 	bl	54a8 <nrf52_errata_36>
    588e:	4603      	mov	r3, r0
    5890:	2b00      	cmp	r3, #0
    5892:	d00e      	beq.n	58b2 <SystemInit+0x82>
    5894:	f04f 4380 	mov.w	r3, #1073741824	; 0x40000000
    5898:	2200      	movs	r2, #0
    589a:	f8c3 210c 	str.w	r2, [r3, #268]	; 0x10c
    589e:	f04f 4380 	mov.w	r3, #1073741824	; 0x40000000
    58a2:	2200      	movs	r2, #0
    58a4:	f8c3 2110 	str.w	r2, [r3, #272]	; 0x110
    58a8:	f04f 4380 	mov.w	r3, #1073741824	; 0x40000000
    58ac:	2200      	movs	r2, #0
    58ae:	f8c3 2538 	str.w	r2, [r3, #1336]	; 0x538
    58b2:	f7ff fe3f 	bl	5534 <nrf52_errata_37>
    58b6:	4603      	mov	r3, r0
    58b8:	2b00      	cmp	r3, #0
    58ba:	d002      	beq.n	58c2 <SystemInit+0x92>
    58bc:	4b88      	ldr	r3, [pc, #544]	; (5ae0 <SystemInit+0x2b0>)
    58be:	2203      	movs	r2, #3
    58c0:	601a      	str	r2, [r3, #0]
    58c2:	f7ff fe6d 	bl	55a0 <nrf52_errata_57>
    58c6:	4603      	mov	r3, r0
    58c8:	2b00      	cmp	r3, #0
    58ca:	d00b      	beq.n	58e4 <SystemInit+0xb4>
    58cc:	4b85      	ldr	r3, [pc, #532]	; (5ae4 <SystemInit+0x2b4>)
    58ce:	2205      	movs	r2, #5
    58d0:	601a      	str	r2, [r3, #0]
    58d2:	4b85      	ldr	r3, [pc, #532]	; (5ae8 <SystemInit+0x2b8>)
    58d4:	2201      	movs	r2, #1
    58d6:	601a      	str	r2, [r3, #0]
    58d8:	4b84      	ldr	r3, [pc, #528]	; (5aec <SystemInit+0x2bc>)
    58da:	2200      	movs	r2, #0
    58dc:	601a      	str	r2, [r3, #0]
    58de:	4b84      	ldr	r3, [pc, #528]	; (5af0 <SystemInit+0x2c0>)
    58e0:	223f      	movs	r2, #63	; 0x3f
    58e2:	601a      	str	r2, [r3, #0]
    58e4:	f7ff fe92 	bl	560c <nrf52_errata_66>
    58e8:	4603      	mov	r3, r0
    58ea:	2b00      	cmp	r3, #0
    58ec:	d076      	beq.n	59dc <SystemInit+0x1ac>
    58ee:	f04f 5380 	mov.w	r3, #268435456	; 0x10000000
    58f2:	4a80      	ldr	r2, [pc, #512]	; (5af4 <SystemInit+0x2c4>)
    58f4:	f8d3 3404 	ldr.w	r3, [r3, #1028]	; 0x404
    58f8:	f8c2 3520 	str.w	r3, [r2, #1312]	; 0x520
    58fc:	f04f 5380 	mov.w	r3, #268435456	; 0x10000000
    5900:	4a7c      	ldr	r2, [pc, #496]	; (5af4 <SystemInit+0x2c4>)
    5902:	f8d3 3408 	ldr.w	r3, [r3, #1032]	; 0x408
    5906:	f8c2 3524 	str.w	r3, [r2, #1316]	; 0x524
    590a:	f04f 5380 	mov.w	r3, #268435456	; 0x10000000
    590e:	4a79      	ldr	r2, [pc, #484]	; (5af4 <SystemInit+0x2c4>)
    5910:	f8d3 340c 	ldr.w	r3, [r3, #1036]	; 0x40c
    5914:	f8c2 3528 	str.w	r3, [r2, #1320]	; 0x528
    5918:	f04f 5380 	mov.w	r3, #268435456	; 0x10000000
    591c:	4a75      	ldr	r2, [pc, #468]	; (5af4 <SystemInit+0x2c4>)
    591e:	f8d3 3410 	ldr.w	r3, [r3, #1040]	; 0x410
    5922:	f8c2 352c 	str.w	r3, [r2, #1324]	; 0x52c
    5926:	f04f 5380 	mov.w	r3, #268435456	; 0x10000000
    592a:	4a72      	ldr	r2, [pc, #456]	; (5af4 <SystemInit+0x2c4>)
    592c:	f8d3 3414 	ldr.w	r3, [r3, #1044]	; 0x414
    5930:	f8c2 3530 	str.w	r3, [r2, #1328]	; 0x530
    5934:	f04f 5380 	mov.w	r3, #268435456	; 0x10000000
    5938:	4a6e      	ldr	r2, [pc, #440]	; (5af4 <SystemInit+0x2c4>)
    593a:	f8d3 3418 	ldr.w	r3, [r3, #1048]	; 0x418
    593e:	f8c2 3534 	str.w	r3, [r2, #1332]	; 0x534
    5942:	f04f 5380 	mov.w	r3, #268435456	; 0x10000000
    5946:	4a6b      	ldr	r2, [pc, #428]	; (5af4 <SystemInit+0x2c4>)
    5948:	f8d3 341c 	ldr.w	r3, [r3, #1052]	; 0x41c
    594c:	f8c2 3540 	str.w	r3, [r2, #1344]	; 0x540
    5950:	f04f 5380 	mov.w	r3, #268435456	; 0x10000000
    5954:	4a67      	ldr	r2, [pc, #412]	; (5af4 <SystemInit+0x2c4>)
    5956:	f8d3 3420 	ldr.w	r3, [r3, #1056]	; 0x420
    595a:	f8c2 3544 	str.w	r3, [r2, #1348]	; 0x544
    595e:	f04f 5380 	mov.w	r3, #268435456	; 0x10000000
    5962:	4a64      	ldr	r2, [pc, #400]	; (5af4 <SystemInit+0x2c4>)
    5964:	f8d3 3424 	ldr.w	r3, [r3, #1060]	; 0x424
    5968:	f8c2 3548 	str.w	r3, [r2, #1352]	; 0x548
    596c:	f04f 5380 	mov.w	r3, #268435456	; 0x10000000
    5970:	4a60      	ldr	r2, [pc, #384]	; (5af4 <SystemInit+0x2c4>)
    5972:	f8d3 3428 	ldr.w	r3, [r3, #1064]	; 0x428
    5976:	f8c2 354c 	str.w	r3, [r2, #1356]	; 0x54c
    597a:	f04f 5380 	mov.w	r3, #268435456	; 0x10000000
    597e:	4a5d      	ldr	r2, [pc, #372]	; (5af4 <SystemInit+0x2c4>)
    5980:	f8d3 342c 	ldr.w	r3, [r3, #1068]	; 0x42c
    5984:	f8c2 3550 	str.w	r3, [r2, #1360]	; 0x550
    5988:	f04f 5380 	mov.w	r3, #268435456	; 0x10000000
    598c:	4a59      	ldr	r2, [pc, #356]	; (5af4 <SystemInit+0x2c4>)
    598e:	f8d3 3430 	ldr.w	r3, [r3, #1072]	; 0x430
    5992:	f8c2 3554 	str.w	r3, [r2, #1364]	; 0x554
    5996:	f04f 5380 	mov.w	r3, #268435456	; 0x10000000
    599a:	4a56      	ldr	r2, [pc, #344]	; (5af4 <SystemInit+0x2c4>)
    599c:	f8d3 3434 	ldr.w	r3, [r3, #1076]	; 0x434
    59a0:	f8c2 3560 	str.w	r3, [r2, #1376]	; 0x560
    59a4:	f04f 5380 	mov.w	r3, #268435456	; 0x10000000
    59a8:	4a52      	ldr	r2, [pc, #328]	; (5af4 <SystemInit+0x2c4>)
    59aa:	f8d3 3438 	ldr.w	r3, [r3, #1080]	; 0x438
    59ae:	f8c2 3564 	str.w	r3, [r2, #1380]	; 0x564
    59b2:	f04f 5380 	mov.w	r3, #268435456	; 0x10000000
    59b6:	4a4f      	ldr	r2, [pc, #316]	; (5af4 <SystemInit+0x2c4>)
    59b8:	f8d3 343c 	ldr.w	r3, [r3, #1084]	; 0x43c
    59bc:	f8c2 3568 	str.w	r3, [r2, #1384]	; 0x568
    59c0:	f04f 5380 	mov.w	r3, #268435456	; 0x10000000
    59c4:	4a4b      	ldr	r2, [pc, #300]	; (5af4 <SystemInit+0x2c4>)
    59c6:	f8d3 3440 	ldr.w	r3, [r3, #1088]	; 0x440
    59ca:	f8c2 356c 	str.w	r3, [r2, #1388]	; 0x56c
    59ce:	f04f 5380 	mov.w	r3, #268435456	; 0x10000000
    59d2:	4a48      	ldr	r2, [pc, #288]	; (5af4 <SystemInit+0x2c4>)
    59d4:	f8d3 3444 	ldr.w	r3, [r3, #1092]	; 0x444
    59d8:	f8c2 3570 	str.w	r3, [r2, #1392]	; 0x570
    59dc:	f7ff fe5c 	bl	5698 <nrf52_errata_108>
    59e0:	4603      	mov	r3, r0
    59e2:	2b00      	cmp	r3, #0
    59e4:	d005      	beq.n	59f2 <SystemInit+0x1c2>
    59e6:	4b44      	ldr	r3, [pc, #272]	; (5af8 <SystemInit+0x2c8>)
    59e8:	681b      	ldr	r3, [r3, #0]
    59ea:	4a44      	ldr	r2, [pc, #272]	; (5afc <SystemInit+0x2cc>)
    59ec:	f003 034f 	and.w	r3, r3, #79	; 0x4f
    59f0:	6013      	str	r3, [r2, #0]
    59f2:	f7ff fe97 	bl	5724 <nrf52_errata_136>
    59f6:	4603      	mov	r3, r0
    59f8:	2b00      	cmp	r3, #0
    59fa:	d00d      	beq.n	5a18 <SystemInit+0x1e8>
    59fc:	f04f 4380 	mov.w	r3, #1073741824	; 0x40000000
    5a00:	f8d3 3400 	ldr.w	r3, [r3, #1024]	; 0x400
    5a04:	f003 0301 	and.w	r3, r3, #1
    5a08:	2b00      	cmp	r3, #0
    5a0a:	d005      	beq.n	5a18 <SystemInit+0x1e8>
    5a0c:	f04f 4380 	mov.w	r3, #1073741824	; 0x40000000
    5a10:	f06f 0201 	mvn.w	r2, #1
    5a14:	f8c3 2400 	str.w	r2, [r3, #1024]	; 0x400
    5a18:	f7ff feca 	bl	57b0 <nrf52_errata_182>
    5a1c:	4603      	mov	r3, r0
    5a1e:	2b00      	cmp	r3, #0
    5a20:	d005      	beq.n	5a2e <SystemInit+0x1fe>
    5a22:	4b37      	ldr	r3, [pc, #220]	; (5b00 <SystemInit+0x2d0>)
    5a24:	681b      	ldr	r3, [r3, #0]
    5a26:	4a36      	ldr	r2, [pc, #216]	; (5b00 <SystemInit+0x2d0>)
    5a28:	f443 6380 	orr.w	r3, r3, #1024	; 0x400
    5a2c:	6013      	str	r3, [r2, #0]
    5a2e:	4b35      	ldr	r3, [pc, #212]	; (5b04 <SystemInit+0x2d4>)
    5a30:	f8d3 3088 	ldr.w	r3, [r3, #136]	; 0x88
    5a34:	4a33      	ldr	r2, [pc, #204]	; (5b04 <SystemInit+0x2d4>)
    5a36:	f443 0370 	orr.w	r3, r3, #15728640	; 0xf00000
    5a3a:	f8c2 3088 	str.w	r3, [r2, #136]	; 0x88
    5a3e:	f3bf 8f4f 	dsb	sy
    5a42:	bf00      	nop
    5a44:	f3bf 8f6f 	isb	sy
    5a48:	bf00      	nop
    5a4a:	f04f 2310 	mov.w	r3, #268439552	; 0x10001000
    5a4e:	f8d3 3200 	ldr.w	r3, [r3, #512]	; 0x200
    5a52:	2b00      	cmp	r3, #0
    5a54:	db05      	blt.n	5a62 <SystemInit+0x232>
    5a56:	f04f 2310 	mov.w	r3, #268439552	; 0x10001000
    5a5a:	f8d3 3204 	ldr.w	r3, [r3, #516]	; 0x204
    5a5e:	2b00      	cmp	r3, #0
    5a60:	da2b      	bge.n	5aba <SystemInit+0x28a>
    5a62:	4b29      	ldr	r3, [pc, #164]	; (5b08 <SystemInit+0x2d8>)
    5a64:	2201      	movs	r2, #1
    5a66:	f8c3 2504 	str.w	r2, [r3, #1284]	; 0x504
    5a6a:	bf00      	nop
    5a6c:	4b26      	ldr	r3, [pc, #152]	; (5b08 <SystemInit+0x2d8>)
    5a6e:	f8d3 3400 	ldr.w	r3, [r3, #1024]	; 0x400
    5a72:	2b00      	cmp	r3, #0
    5a74:	d0fa      	beq.n	5a6c <SystemInit+0x23c>
    5a76:	f04f 2310 	mov.w	r3, #268439552	; 0x10001000
    5a7a:	2215      	movs	r2, #21
    5a7c:	f8c3 2200 	str.w	r2, [r3, #512]	; 0x200
    5a80:	bf00      	nop
    5a82:	4b21      	ldr	r3, [pc, #132]	; (5b08 <SystemInit+0x2d8>)
    5a84:	f8d3 3400 	ldr.w	r3, [r3, #1024]	; 0x400
    5a88:	2b00      	cmp	r3, #0
    5a8a:	d0fa      	beq.n	5a82 <SystemInit+0x252>
    5a8c:	f04f 2310 	mov.w	r3, #268439552	; 0x10001000
    5a90:	2215      	movs	r2, #21
    5a92:	f8c3 2204 	str.w	r2, [r3, #516]	; 0x204
    5a96:	bf00      	nop
    5a98:	4b1b      	ldr	r3, [pc, #108]	; (5b08 <SystemInit+0x2d8>)
    5a9a:	f8d3 3400 	ldr.w	r3, [r3, #1024]	; 0x400
    5a9e:	2b00      	cmp	r3, #0
    5aa0:	d0fa      	beq.n	5a98 <SystemInit+0x268>
    5aa2:	4b19      	ldr	r3, [pc, #100]	; (5b08 <SystemInit+0x2d8>)
    5aa4:	2200      	movs	r2, #0
    5aa6:	f8c3 2504 	str.w	r2, [r3, #1284]	; 0x504
    5aaa:	bf00      	nop
    5aac:	4b16      	ldr	r3, [pc, #88]	; (5b08 <SystemInit+0x2d8>)
    5aae:	f8d3 3400 	ldr.w	r3, [r3, #1024]	; 0x400
    5ab2:	2b00      	cmp	r3, #0
    5ab4:	d0fa      	beq.n	5aac <SystemInit+0x27c>
    5ab6:	f7ff fbe9 	bl	528c <__NVIC_SystemReset>
    5aba:	f7ff feab 	bl	5814 <SystemCoreClockUpdate>
    5abe:	bf00      	nop
    5ac0:	bd80      	pop	{r7, pc}
    5ac2:	bf00      	nop
    5ac4:	10000324 	.word	0x10000324
    5ac8:	40013540 	.word	0x40013540
    5acc:	4007c074 	.word	0x4007c074
    5ad0:	baadf00d 	.word	0xbaadf00d
    5ad4:	10000244 	.word	0x10000244
    5ad8:	4000053c 	.word	0x4000053c
    5adc:	e000edf0 	.word	0xe000edf0
    5ae0:	400005a0 	.word	0x400005a0
    5ae4:	40005610 	.word	0x40005610
    5ae8:	40005688 	.word	0x40005688
    5aec:	40005618 	.word	0x40005618
    5af0:	40005614 	.word	0x40005614
    5af4:	4000c000 	.word	0x4000c000
    5af8:	10000258 	.word	0x10000258
    5afc:	40000ee4 	.word	0x40000ee4
    5b00:	4000173c 	.word	0x4000173c
    5b04:	e000ed00 	.word	0xe000ed00
    5b08:	4001e000 	.word	0x4001e000

00005b0c <atexit>:
    5b0c:	2300      	movs	r3, #0
    5b0e:	4601      	mov	r1, r0
    5b10:	461a      	mov	r2, r3
    5b12:	4618      	mov	r0, r3
    5b14:	f000 b86a 	b.w	5bec <__register_exitproc>

00005b18 <exit>:
    5b18:	b508      	push	{r3, lr}
    5b1a:	4b06      	ldr	r3, [pc, #24]	; (5b34 <exit+0x1c>)
    5b1c:	4604      	mov	r4, r0
    5b1e:	b113      	cbz	r3, 5b26 <exit+0xe>
    5b20:	2100      	movs	r1, #0
    5b22:	f000 f8c1 	bl	5ca8 <__call_exitprocs>
    5b26:	4b04      	ldr	r3, [pc, #16]	; (5b38 <exit+0x20>)
    5b28:	681b      	ldr	r3, [r3, #0]
    5b2a:	b103      	cbz	r3, 5b2e <exit+0x16>
    5b2c:	4798      	blx	r3
    5b2e:	4620      	mov	r0, r4
    5b30:	f000 f916 	bl	5d60 <_exit>
    5b34:	00005ca9 	.word	0x00005ca9
    5b38:	20000700 	.word	0x20000700

00005b3c <memset>:
    5b3c:	4402      	add	r2, r0
    5b3e:	4603      	mov	r3, r0
    5b40:	4293      	cmp	r3, r2
    5b42:	d100      	bne.n	5b46 <memset+0xa>
    5b44:	4770      	bx	lr
    5b46:	f803 1b01 	strb.w	r1, [r3], #1
    5b4a:	e7f9      	b.n	5b40 <memset+0x4>

00005b4c <__libc_init_array>:
    5b4c:	b570      	push	{r4, r5, r6, lr}
    5b4e:	4d0d      	ldr	r5, [pc, #52]	; (5b84 <__libc_init_array+0x38>)
    5b50:	4c0d      	ldr	r4, [pc, #52]	; (5b88 <__libc_init_array+0x3c>)
    5b52:	1b64      	subs	r4, r4, r5
    5b54:	10a4      	asrs	r4, r4, #2
    5b56:	2600      	movs	r6, #0
    5b58:	42a6      	cmp	r6, r4
    5b5a:	d109      	bne.n	5b70 <__libc_init_array+0x24>
    5b5c:	4d0b      	ldr	r5, [pc, #44]	; (5b8c <__libc_init_array+0x40>)
    5b5e:	4c0c      	ldr	r4, [pc, #48]	; (5b90 <__libc_init_array+0x44>)
    5b60:	f000 f900 	bl	5d64 <_init>
    5b64:	1b64      	subs	r4, r4, r5
    5b66:	10a4      	asrs	r4, r4, #2
    5b68:	2600      	movs	r6, #0
    5b6a:	42a6      	cmp	r6, r4
    5b6c:	d105      	bne.n	5b7a <__libc_init_array+0x2e>
    5b6e:	bd70      	pop	{r4, r5, r6, pc}
    5b70:	f855 3b04 	ldr.w	r3, [r5], #4
    5b74:	4798      	blx	r3
    5b76:	3601      	adds	r6, #1
    5b78:	e7ee      	b.n	5b58 <__libc_init_array+0xc>
    5b7a:	f855 3b04 	ldr.w	r3, [r5], #4
    5b7e:	4798      	blx	r3
    5b80:	3601      	adds	r6, #1
    5b82:	e7f2      	b.n	5b6a <__libc_init_array+0x1e>
    5b84:	20000060 	.word	0x20000060
    5b88:	20000060 	.word	0x20000060
    5b8c:	20000060 	.word	0x20000060
    5b90:	20000064 	.word	0x20000064

00005b94 <__libc_fini_array>:
    5b94:	b538      	push	{r3, r4, r5, lr}
    5b96:	4d07      	ldr	r5, [pc, #28]	; (5bb4 <__libc_fini_array+0x20>)
    5b98:	4c07      	ldr	r4, [pc, #28]	; (5bb8 <__libc_fini_array+0x24>)
    5b9a:	1b64      	subs	r4, r4, r5
    5b9c:	10a4      	asrs	r4, r4, #2
    5b9e:	b91c      	cbnz	r4, 5ba8 <__libc_fini_array+0x14>
    5ba0:	e8bd 4038 	ldmia.w	sp!, {r3, r4, r5, lr}
    5ba4:	f000 b8e4 	b.w	5d70 <_fini>
    5ba8:	3c01      	subs	r4, #1
    5baa:	f855 3024 	ldr.w	r3, [r5, r4, lsl #2]
    5bae:	4798      	blx	r3
    5bb0:	e7f5      	b.n	5b9e <__libc_fini_array+0xa>
    5bb2:	bf00      	nop
    5bb4:	20000064 	.word	0x20000064
    5bb8:	20000068 	.word	0x20000068

00005bbc <__retarget_lock_acquire_recursive>:
    5bbc:	4770      	bx	lr

00005bbe <__retarget_lock_release_recursive>:
    5bbe:	4770      	bx	lr

00005bc0 <memcpy>:
    5bc0:	440a      	add	r2, r1
    5bc2:	4291      	cmp	r1, r2
    5bc4:	f100 33ff 	add.w	r3, r0, #4294967295	; 0xffffffff
    5bc8:	d100      	bne.n	5bcc <memcpy+0xc>
    5bca:	4770      	bx	lr
    5bcc:	b510      	push	{r4, lr}
    5bce:	f811 4b01 	ldrb.w	r4, [r1], #1
    5bd2:	f803 4f01 	strb.w	r4, [r3, #1]!
    5bd6:	4291      	cmp	r1, r2
    5bd8:	d1f9      	bne.n	5bce <memcpy+0xe>
    5bda:	bd10      	pop	{r4, pc}

00005bdc <strlen>:
    5bdc:	4603      	mov	r3, r0
    5bde:	f813 2b01 	ldrb.w	r2, [r3], #1
    5be2:	2a00      	cmp	r2, #0
    5be4:	d1fb      	bne.n	5bde <strlen+0x2>
    5be6:	1a18      	subs	r0, r3, r0
    5be8:	3801      	subs	r0, #1
    5bea:	4770      	bx	lr

00005bec <__register_exitproc>:
    5bec:	e92d 43f8 	stmdb	sp!, {r3, r4, r5, r6, r7, r8, r9, lr}
    5bf0:	f8df 80b0 	ldr.w	r8, [pc, #176]	; 5ca4 <__register_exitproc+0xb8>
    5bf4:	4606      	mov	r6, r0
    5bf6:	f8d8 0000 	ldr.w	r0, [r8]
    5bfa:	461f      	mov	r7, r3
    5bfc:	460d      	mov	r5, r1
    5bfe:	4691      	mov	r9, r2
    5c00:	f7ff ffdc 	bl	5bbc <__retarget_lock_acquire_recursive>
    5c04:	4b23      	ldr	r3, [pc, #140]	; (5c94 <__register_exitproc+0xa8>)
    5c06:	681c      	ldr	r4, [r3, #0]
    5c08:	b934      	cbnz	r4, 5c18 <__register_exitproc+0x2c>
    5c0a:	4c23      	ldr	r4, [pc, #140]	; (5c98 <__register_exitproc+0xac>)
    5c0c:	601c      	str	r4, [r3, #0]
    5c0e:	4b23      	ldr	r3, [pc, #140]	; (5c9c <__register_exitproc+0xb0>)
    5c10:	b113      	cbz	r3, 5c18 <__register_exitproc+0x2c>
    5c12:	681b      	ldr	r3, [r3, #0]
    5c14:	f8c4 3088 	str.w	r3, [r4, #136]	; 0x88
    5c18:	6863      	ldr	r3, [r4, #4]
    5c1a:	2b1f      	cmp	r3, #31
    5c1c:	dd07      	ble.n	5c2e <__register_exitproc+0x42>
    5c1e:	f8d8 0000 	ldr.w	r0, [r8]
    5c22:	f7ff ffcc 	bl	5bbe <__retarget_lock_release_recursive>
    5c26:	f04f 30ff 	mov.w	r0, #4294967295	; 0xffffffff
    5c2a:	e8bd 83f8 	ldmia.w	sp!, {r3, r4, r5, r6, r7, r8, r9, pc}
    5c2e:	b32e      	cbz	r6, 5c7c <__register_exitproc+0x90>
    5c30:	f8d4 0088 	ldr.w	r0, [r4, #136]	; 0x88
    5c34:	b968      	cbnz	r0, 5c52 <__register_exitproc+0x66>
    5c36:	4b1a      	ldr	r3, [pc, #104]	; (5ca0 <__register_exitproc+0xb4>)
    5c38:	2b00      	cmp	r3, #0
    5c3a:	d0f0      	beq.n	5c1e <__register_exitproc+0x32>
    5c3c:	f44f 7084 	mov.w	r0, #264	; 0x108
    5c40:	f3af 8000 	nop.w
    5c44:	2800      	cmp	r0, #0
    5c46:	d0ea      	beq.n	5c1e <__register_exitproc+0x32>
    5c48:	2300      	movs	r3, #0
    5c4a:	e9c0 3340 	strd	r3, r3, [r0, #256]	; 0x100
    5c4e:	f8c4 0088 	str.w	r0, [r4, #136]	; 0x88
    5c52:	6863      	ldr	r3, [r4, #4]
    5c54:	f840 9023 	str.w	r9, [r0, r3, lsl #2]
    5c58:	2201      	movs	r2, #1
    5c5a:	409a      	lsls	r2, r3
    5c5c:	eb00 0183 	add.w	r1, r0, r3, lsl #2
    5c60:	f8d0 3100 	ldr.w	r3, [r0, #256]	; 0x100
    5c64:	4313      	orrs	r3, r2
    5c66:	f8c0 3100 	str.w	r3, [r0, #256]	; 0x100
    5c6a:	2e02      	cmp	r6, #2
    5c6c:	f8c1 7080 	str.w	r7, [r1, #128]	; 0x80
    5c70:	bf02      	ittt	eq
    5c72:	f8d0 3104 	ldreq.w	r3, [r0, #260]	; 0x104
    5c76:	4313      	orreq	r3, r2
    5c78:	f8c0 3104 	streq.w	r3, [r0, #260]	; 0x104
    5c7c:	6863      	ldr	r3, [r4, #4]
    5c7e:	f8d8 0000 	ldr.w	r0, [r8]
    5c82:	1c5a      	adds	r2, r3, #1
    5c84:	3302      	adds	r3, #2
    5c86:	6062      	str	r2, [r4, #4]
    5c88:	f844 5023 	str.w	r5, [r4, r3, lsl #2]
    5c8c:	f7ff ff97 	bl	5bbe <__retarget_lock_release_recursive>
    5c90:	2000      	movs	r0, #0
    5c92:	e7ca      	b.n	5c2a <__register_exitproc+0x3e>
    5c94:	20000794 	.word	0x20000794
    5c98:	20000708 	.word	0x20000708
	...
    5ca4:	2000005c 	.word	0x2000005c

00005ca8 <__call_exitprocs>:
    5ca8:	e92d 4ff7 	stmdb	sp!, {r0, r1, r2, r4, r5, r6, r7, r8, r9, sl, fp, lr}
    5cac:	f8df 90a8 	ldr.w	r9, [pc, #168]	; 5d58 <__call_exitprocs+0xb0>
    5cb0:	9100      	str	r1, [sp, #0]
    5cb2:	4680      	mov	r8, r0
    5cb4:	f8d9 0000 	ldr.w	r0, [r9]
    5cb8:	f8df a0a0 	ldr.w	sl, [pc, #160]	; 5d5c <__call_exitprocs+0xb4>
    5cbc:	f7ff ff7e 	bl	5bbc <__retarget_lock_acquire_recursive>
    5cc0:	f8da 4000 	ldr.w	r4, [sl]
    5cc4:	b934      	cbnz	r4, 5cd4 <__call_exitprocs+0x2c>
    5cc6:	f8d9 0000 	ldr.w	r0, [r9]
    5cca:	b003      	add	sp, #12
    5ccc:	e8bd 4ff0 	ldmia.w	sp!, {r4, r5, r6, r7, r8, r9, sl, fp, lr}
    5cd0:	f7ff bf75 	b.w	5bbe <__retarget_lock_release_recursive>
    5cd4:	6865      	ldr	r5, [r4, #4]
    5cd6:	f8d4 7088 	ldr.w	r7, [r4, #136]	; 0x88
    5cda:	1e6e      	subs	r6, r5, #1
    5cdc:	3501      	adds	r5, #1
    5cde:	eb04 0585 	add.w	r5, r4, r5, lsl #2
    5ce2:	f107 0b80 	add.w	fp, r7, #128	; 0x80
    5ce6:	2e00      	cmp	r6, #0
    5ce8:	dbed      	blt.n	5cc6 <__call_exitprocs+0x1e>
    5cea:	9b00      	ldr	r3, [sp, #0]
    5cec:	b143      	cbz	r3, 5d00 <__call_exitprocs+0x58>
    5cee:	b917      	cbnz	r7, 5cf6 <__call_exitprocs+0x4e>
    5cf0:	3e01      	subs	r6, #1
    5cf2:	3d04      	subs	r5, #4
    5cf4:	e7f7      	b.n	5ce6 <__call_exitprocs+0x3e>
    5cf6:	f85b 2026 	ldr.w	r2, [fp, r6, lsl #2]
    5cfa:	9b00      	ldr	r3, [sp, #0]
    5cfc:	429a      	cmp	r2, r3
    5cfe:	d1f7      	bne.n	5cf0 <__call_exitprocs+0x48>
    5d00:	6861      	ldr	r1, [r4, #4]
    5d02:	682a      	ldr	r2, [r5, #0]
    5d04:	3901      	subs	r1, #1
    5d06:	42b1      	cmp	r1, r6
    5d08:	bf16      	itet	ne
    5d0a:	2300      	movne	r3, #0
    5d0c:	6066      	streq	r6, [r4, #4]
    5d0e:	602b      	strne	r3, [r5, #0]
    5d10:	2a00      	cmp	r2, #0
    5d12:	d0ed      	beq.n	5cf0 <__call_exitprocs+0x48>
    5d14:	6863      	ldr	r3, [r4, #4]
    5d16:	9301      	str	r3, [sp, #4]
    5d18:	b13f      	cbz	r7, 5d2a <__call_exitprocs+0x82>
    5d1a:	f8d7 1100 	ldr.w	r1, [r7, #256]	; 0x100
    5d1e:	2301      	movs	r3, #1
    5d20:	fa03 fc06 	lsl.w	ip, r3, r6
    5d24:	ea1c 0f01 	tst.w	ip, r1
    5d28:	d109      	bne.n	5d3e <__call_exitprocs+0x96>
    5d2a:	4790      	blx	r2
    5d2c:	6861      	ldr	r1, [r4, #4]
    5d2e:	9b01      	ldr	r3, [sp, #4]
    5d30:	f8da 2000 	ldr.w	r2, [sl]
    5d34:	4299      	cmp	r1, r3
    5d36:	d1c3      	bne.n	5cc0 <__call_exitprocs+0x18>
    5d38:	4294      	cmp	r4, r2
    5d3a:	d0d9      	beq.n	5cf0 <__call_exitprocs+0x48>
    5d3c:	e7c0      	b.n	5cc0 <__call_exitprocs+0x18>
    5d3e:	f8d7 0104 	ldr.w	r0, [r7, #260]	; 0x104
    5d42:	f857 1026 	ldr.w	r1, [r7, r6, lsl #2]
    5d46:	ea1c 0f00 	tst.w	ip, r0
    5d4a:	d102      	bne.n	5d52 <__call_exitprocs+0xaa>
    5d4c:	4640      	mov	r0, r8
    5d4e:	4790      	blx	r2
    5d50:	e7ec      	b.n	5d2c <__call_exitprocs+0x84>
    5d52:	4608      	mov	r0, r1
    5d54:	4790      	blx	r2
    5d56:	e7e9      	b.n	5d2c <__call_exitprocs+0x84>
    5d58:	2000005c 	.word	0x2000005c
    5d5c:	20000794 	.word	0x20000794

00005d60 <_exit>:
    5d60:	e7fe      	b.n	5d60 <_exit>
    5d62:	bf00      	nop

00005d64 <_init>:
    5d64:	b5f8      	push	{r3, r4, r5, r6, r7, lr}
    5d66:	bf00      	nop
    5d68:	bcf8      	pop	{r3, r4, r5, r6, r7}
    5d6a:	bc08      	pop	{r3}
    5d6c:	469e      	mov	lr, r3
    5d6e:	4770      	bx	lr

00005d70 <_fini>:
    5d70:	b5f8      	push	{r3, r4, r5, r6, r7, lr}
    5d72:	bf00      	nop
    5d74:	bcf8      	pop	{r3, r4, r5, r6, r7}
    5d76:	bc08      	pop	{r3}
    5d78:	469e      	mov	lr, r3
    5d7a:	4770      	bx	lr
    5d7c:	ffffffff 	.word	0xffffffff
    5d80:	ffffffff 	.word	0xffffffff
    5d84:	ffffffff 	.word	0xffffffff
    5d88:	ffffffff 	.word	0xffffffff
	...
    5d94:	01d60000 	.word	0x01d60000
    5d98:	00000106 	.word	0x00000106

00005d9c <nrf_log_backend_uart_api>:
    5d9c:	000005ed 0000062d 00000619 74726175     ....-.......uart
    5dac:	676f6c5f 6361625f 646e656b 00000000     _log_backend....

00005dbc <m_log_push_ringbuf>:
    5dbc:	20000198 0000007f 20000218 00707061     ... ....... app.
    5dcc:	6b636142 73646e65 756c6620 64656873     Backends flushed
    5ddc:	00000000 6f727265 00000072 6e726177     ....error...warn
    5dec:	00676e69 6f666e69 00000000 75626564     ing.info....debu
    5dfc:	00000067 6d305b1b 00000000 3b315b1b     g....[0m.....[1;
    5e0c:	006d3033 3b315b1b 006d3133 3b315b1b     30m..[1;31m..[1;
    5e1c:	006d3233 3b315b1b 006d3333 3b315b1b     32m..[1;33m..[1;
    5e2c:	006d3433 3b315b1b 006d3533 3b315b1b     34m..[1;35m..[1;
    5e3c:	006d3633 3b315b1b 006d3733 6f4c7325     36m..[1;37m.%sLo
    5e4c:	64207367 70706f72 28206465 25296425     gs dropped (%d)%
    5e5c:	000a0d73 00007325 3e73253c 3a732520     s...%s..<%s> %s:
    5e6c:	00000020 00000a0d 32302520 00000078      ....... %02x...
    5e7c:	00202020 0000007c 00006325 00000020        .|...%c.. ...
    5e8c:	61746146 7265206c 00726f72 74737953     Fatal error.Syst
    5e9c:	72206d65 74657365 00000000              em reset....

00005ea8 <_aV2C.0>:
    5ea8:	33323130 37363534 42413938 46454443     0123456789ABCDEF
	...

00005ec0 <delay_machine_code.0>:
    5ec0:	d8fd3803 00004770 00535250 4d495754     .8..pG..PRS.TWIM
    5ed0:	00000000                                ....

00005ed4 <irq_handlers.0>:
    5ed4:	00003661 54524155 00000000              a6..UART....

00005ee0 <irq_handlers.0>:
    5ee0:	000042f5 54524155 00000045              .B..UARTE...

00005eec <irq_handlers.0>:
    5eec:	00004f6d                                mO..

00005ef0 <m_twi>:
    5ef0:	00000000 40003000 00000000 00000001     .....0.@........
    5f00:	706d6554 74617265 3a657275 20642520     Temperature: %d 
    5f10:	736c6543 20737569 72676564 2e736565     Celsius degrees.
    5f20:	00000000 57540a0d 65732049 726f736e     ......TWI sensor
    5f30:	61786520 656c706d 61747320 64657472      example started
    5f40:	0000002e 00000000 00000000 00000000     ................

00005f50 <delay_machine_code.0>:
    5f50:	d8fd3803                                 .8..pG

00005f56 <_ctype_>:
    5f56:	20202000 20202020 28282020 20282828     .         ((((( 
    5f66:	20202020 20202020 20202020 20202020                     
    5f76:	10108820 10101010 10101010 10101010      ...............
    5f86:	04040410 04040404 10040404 10101010     ................
    5f96:	41411010 41414141 01010101 01010101     ..AAAAAA........
    5fa6:	01010101 01010101 01010101 10101010     ................
    5fb6:	42421010 42424242 02020202 02020202     ..BBBBBB........
    5fc6:	02020202 02020202 02020202 10101010     ................
    5fd6:	00000020 00000000 00000000 00000000      ...............
	...

00006058 <__EH_FRAME_BEGIN__>:
    6058:	00000000                                ....
