
twi_sensor-o3.elf:     file format elf32-littlearm


Disassembly of section .text:

00000000 <__isr_vector>:
       0:	20010000 	.word	0x20010000
       4:	000002b1 	.word	0x000002b1
       8:	000002d9 	.word	0x000002d9
       c:	000002db 	.word	0x000002db
      10:	000002dd 	.word	0x000002dd
      14:	000002df 	.word	0x000002df
      18:	000002e1 	.word	0x000002e1
	...
      2c:	000002e3 	.word	0x000002e3
      30:	000002e5 	.word	0x000002e5
      34:	00000000 	.word	0x00000000
      38:	000002e7 	.word	0x000002e7
      3c:	000002e9 	.word	0x000002e9
      40:	000002eb 	.word	0x000002eb
      44:	000002eb 	.word	0x000002eb
      48:	00001a25 	.word	0x00001a25
      4c:	00001af5 	.word	0x00001af5
      50:	000002eb 	.word	0x000002eb
      54:	000002eb 	.word	0x000002eb
      58:	000002eb 	.word	0x000002eb
      5c:	000002eb 	.word	0x000002eb
      60:	000002eb 	.word	0x000002eb
      64:	000002eb 	.word	0x000002eb
      68:	000002eb 	.word	0x000002eb
      6c:	000002eb 	.word	0x000002eb
      70:	000002eb 	.word	0x000002eb
      74:	000002eb 	.word	0x000002eb
      78:	000002eb 	.word	0x000002eb
      7c:	000002eb 	.word	0x000002eb
      80:	000002eb 	.word	0x000002eb
      84:	000002eb 	.word	0x000002eb
      88:	000002eb 	.word	0x000002eb
      8c:	000002eb 	.word	0x000002eb
      90:	000002eb 	.word	0x000002eb
      94:	000002eb 	.word	0x000002eb
      98:	000002eb 	.word	0x000002eb
      9c:	000002eb 	.word	0x000002eb
      a0:	000002eb 	.word	0x000002eb
      a4:	000002eb 	.word	0x000002eb
      a8:	000002eb 	.word	0x000002eb
      ac:	000002eb 	.word	0x000002eb
      b0:	000002eb 	.word	0x000002eb
      b4:	000002eb 	.word	0x000002eb
	...
      c0:	000002eb 	.word	0x000002eb
      c4:	000002eb 	.word	0x000002eb
      c8:	000002eb 	.word	0x000002eb
      cc:	000002eb 	.word	0x000002eb
      d0:	000002eb 	.word	0x000002eb
      d4:	000002eb 	.word	0x000002eb
      d8:	000002eb 	.word	0x000002eb
	...

00000200 <__do_global_dtors_aux>:
     200:	b510      	push	{r4, lr}
     202:	4c05      	ldr	r4, [pc, #20]	; (218 <__do_global_dtors_aux+0x18>)
     204:	7823      	ldrb	r3, [r4, #0]
     206:	b933      	cbnz	r3, 216 <__do_global_dtors_aux+0x16>
     208:	4b04      	ldr	r3, [pc, #16]	; (21c <__do_global_dtors_aux+0x1c>)
     20a:	b113      	cbz	r3, 212 <__do_global_dtors_aux+0x12>
     20c:	4804      	ldr	r0, [pc, #16]	; (220 <__do_global_dtors_aux+0x20>)
     20e:	f3af 8000 	nop.w
     212:	2301      	movs	r3, #1
     214:	7023      	strb	r3, [r4, #0]
     216:	bd10      	pop	{r4, pc}
     218:	20000030 	.word	0x20000030
     21c:	00000000 	.word	0x00000000
     220:	000036d8 	.word	0x000036d8

00000224 <frame_dummy>:
     224:	b508      	push	{r3, lr}
     226:	4b03      	ldr	r3, [pc, #12]	; (234 <frame_dummy+0x10>)
     228:	b11b      	cbz	r3, 232 <frame_dummy+0xe>
     22a:	4903      	ldr	r1, [pc, #12]	; (238 <frame_dummy+0x14>)
     22c:	4803      	ldr	r0, [pc, #12]	; (23c <frame_dummy+0x18>)
     22e:	f3af 8000 	nop.w
     232:	bd08      	pop	{r3, pc}
     234:	00000000 	.word	0x00000000
     238:	20000034 	.word	0x20000034
     23c:	000036d8 	.word	0x000036d8

00000240 <_stack_init>:
     240:	f5a3 3a80 	sub.w	sl, r3, #65536	; 0x10000
     244:	4770      	bx	lr
     246:	bf00      	nop

00000248 <_mainCRTStartup>:
     248:	4b15      	ldr	r3, [pc, #84]	; (2a0 <_mainCRTStartup+0x58>)
     24a:	2b00      	cmp	r3, #0
     24c:	bf08      	it	eq
     24e:	4b11      	ldreq	r3, [pc, #68]	; (294 <_mainCRTStartup+0x4c>)
     250:	469d      	mov	sp, r3
     252:	f7ff fff5 	bl	240 <_stack_init>
     256:	2100      	movs	r1, #0
     258:	468b      	mov	fp, r1
     25a:	460f      	mov	r7, r1
     25c:	4811      	ldr	r0, [pc, #68]	; (2a4 <_mainCRTStartup+0x5c>)
     25e:	4a12      	ldr	r2, [pc, #72]	; (2a8 <_mainCRTStartup+0x60>)
     260:	1a12      	subs	r2, r2, r0
     262:	f002 ff91 	bl	3188 <memset>
     266:	4b0c      	ldr	r3, [pc, #48]	; (298 <_mainCRTStartup+0x50>)
     268:	2b00      	cmp	r3, #0
     26a:	d000      	beq.n	26e <_mainCRTStartup+0x26>
     26c:	4798      	blx	r3
     26e:	4b0b      	ldr	r3, [pc, #44]	; (29c <_mainCRTStartup+0x54>)
     270:	2b00      	cmp	r3, #0
     272:	d000      	beq.n	276 <_mainCRTStartup+0x2e>
     274:	4798      	blx	r3
     276:	2000      	movs	r0, #0
     278:	2100      	movs	r1, #0
     27a:	0004      	movs	r4, r0
     27c:	000d      	movs	r5, r1
     27e:	480b      	ldr	r0, [pc, #44]	; (2ac <_mainCRTStartup+0x64>)
     280:	f002 ff6a 	bl	3158 <atexit>
     284:	f002 ff88 	bl	3198 <__libc_init_array>
     288:	0020      	movs	r0, r4
     28a:	0029      	movs	r1, r5
     28c:	f002 fd4e 	bl	2d2c <main>
     290:	f002 ff68 	bl	3164 <exit>
     294:	00080000 	.word	0x00080000
	...
     2a0:	20010000 	.word	0x20010000
     2a4:	20000030 	.word	0x20000030
     2a8:	20000768 	.word	0x20000768
     2ac:	000031e1 	.word	0x000031e1

000002b0 <Reset_Handler>:
     2b0:	4906      	ldr	r1, [pc, #24]	; (2cc <Reset_Handler+0x1c>)
     2b2:	4a07      	ldr	r2, [pc, #28]	; (2d0 <Reset_Handler+0x20>)
     2b4:	4b07      	ldr	r3, [pc, #28]	; (2d4 <Reset_Handler+0x24>)
     2b6:	1a9b      	subs	r3, r3, r2
     2b8:	dd03      	ble.n	2c2 <Reset_Handler+0x12>
     2ba:	3b04      	subs	r3, #4
     2bc:	58c8      	ldr	r0, [r1, r3]
     2be:	50d0      	str	r0, [r2, r3]
     2c0:	dcfb      	bgt.n	2ba <Reset_Handler+0xa>
     2c2:	f002 fd83 	bl	2dcc <SystemInit>
     2c6:	f7ff ffbf 	bl	248 <_mainCRTStartup>
     2ca:	0000      	.short	0x0000
     2cc:	00003730 	.word	0x00003730
     2d0:	20000000 	.word	0x20000000
     2d4:	20000030 	.word	0x20000030

000002d8 <NMI_Handler>:
     2d8:	e7fe      	b.n	2d8 <NMI_Handler>

000002da <HardFault_Handler>:
     2da:	e7fe      	b.n	2da <HardFault_Handler>

000002dc <MemoryManagement_Handler>:
     2dc:	e7fe      	b.n	2dc <MemoryManagement_Handler>

000002de <BusFault_Handler>:
     2de:	e7fe      	b.n	2de <BusFault_Handler>

000002e0 <UsageFault_Handler>:
     2e0:	e7fe      	b.n	2e0 <UsageFault_Handler>

000002e2 <SVC_Handler>:
     2e2:	e7fe      	b.n	2e2 <SVC_Handler>

000002e4 <DebugMon_Handler>:
     2e4:	e7fe      	b.n	2e4 <DebugMon_Handler>

000002e6 <PendSV_Handler>:
     2e6:	e7fe      	b.n	2e6 <PendSV_Handler>

000002e8 <SysTick_Handler>:
     2e8:	e7fe      	b.n	2e8 <SysTick_Handler>

000002ea <Default_Handler>:
     2ea:	e7fe      	b.n	2ea <Default_Handler>

000002ec <nrf_log_backend_serial_put>:
     2ec:	b5f0      	push	{r4, r5, r6, r7, lr}
     2ee:	b095      	sub	sp, #84	; 0x54
     2f0:	4608      	mov	r0, r1
     2f2:	2400      	movs	r4, #0
     2f4:	460e      	mov	r6, r1
     2f6:	4617      	mov	r7, r2
     2f8:	461d      	mov	r5, r3
     2fa:	f001 f9d3 	bl	16a4 <nrf_memobj_get>
     2fe:	9a1a      	ldr	r2, [sp, #104]	; 0x68
     300:	920d      	str	r2, [sp, #52]	; 0x34
     302:	4623      	mov	r3, r4
     304:	2208      	movs	r2, #8
     306:	a905      	add	r1, sp, #20
     308:	4630      	mov	r0, r6
     30a:	e9cd 5409 	strd	r5, r4, [sp, #36]	; 0x24
     30e:	9708      	str	r7, [sp, #32]
     310:	f88d 402c 	strb.w	r4, [sp, #44]	; 0x2c
     314:	940c      	str	r4, [sp, #48]	; 0x30
     316:	f001 fa29 	bl	176c <nrf_memobj_read>
     31a:	e9dd 2106 	ldrd	r2, r1, [sp, #24]
     31e:	f89d 3014 	ldrb.w	r3, [sp, #20]
     322:	f88d 4011 	strb.w	r4, [sp, #17]
     326:	e9cd 1202 	strd	r1, r2, [sp, #8]
     32a:	f003 0203 	and.w	r2, r3, #3
     32e:	2a01      	cmp	r2, #1
     330:	d028      	beq.n	384 <nrf_log_backend_serial_put+0x98>
     332:	2a02      	cmp	r2, #2
     334:	d004      	beq.n	340 <nrf_log_backend_serial_put+0x54>
     336:	4630      	mov	r0, r6
     338:	f001 f9b8 	bl	16ac <nrf_memobj_put>
     33c:	b015      	add	sp, #84	; 0x54
     33e:	bdf0      	pop	{r4, r5, r6, r7, pc}
     340:	f8bd 5016 	ldrh.w	r5, [sp, #22]
     344:	f3c3 03c2 	ubfx	r3, r3, #3, #3
     348:	f3c5 1589 	ubfx	r5, r5, #6, #10
     34c:	f88d 3010 	strb.w	r3, [sp, #16]
     350:	2708      	movs	r7, #8
     352:	2d08      	cmp	r5, #8
     354:	462c      	mov	r4, r5
     356:	bf28      	it	cs
     358:	2408      	movcs	r4, #8
     35a:	463b      	mov	r3, r7
     35c:	4622      	mov	r2, r4
     35e:	a90e      	add	r1, sp, #56	; 0x38
     360:	4630      	mov	r0, r6
     362:	f001 fa03 	bl	176c <nrf_memobj_read>
     366:	1b2d      	subs	r5, r5, r4
     368:	ab08      	add	r3, sp, #32
     36a:	aa02      	add	r2, sp, #8
     36c:	4621      	mov	r1, r4
     36e:	a80e      	add	r0, sp, #56	; 0x38
     370:	4427      	add	r7, r4
     372:	f000 fc61 	bl	c38 <nrf_log_hexdump_entry_process>
     376:	2d00      	cmp	r5, #0
     378:	d1eb      	bne.n	352 <nrf_log_backend_serial_put+0x66>
     37a:	4630      	mov	r0, r6
     37c:	f001 f996 	bl	16ac <nrf_memobj_put>
     380:	b015      	add	sp, #84	; 0x54
     382:	bdf0      	pop	{r4, r5, r6, r7, pc}
     384:	f8bd 1014 	ldrh.w	r1, [sp, #20]
     388:	9805      	ldr	r0, [sp, #20]
     38a:	f3c1 1283 	ubfx	r2, r1, #6, #4
     38e:	f3c3 03c2 	ubfx	r3, r3, #3, #3
     392:	f3c0 2595 	ubfx	r5, r0, #10, #22
     396:	f3c1 1483 	ubfx	r4, r1, #6, #4
     39a:	f88d 3010 	strb.w	r3, [sp, #16]
     39e:	a90e      	add	r1, sp, #56	; 0x38
     3a0:	4630      	mov	r0, r6
     3a2:	0092      	lsls	r2, r2, #2
     3a4:	2308      	movs	r3, #8
     3a6:	f001 f9e1 	bl	176c <nrf_memobj_read>
     3aa:	ab08      	add	r3, sp, #32
     3ac:	9300      	str	r3, [sp, #0]
     3ae:	4622      	mov	r2, r4
     3b0:	ab02      	add	r3, sp, #8
     3b2:	a90e      	add	r1, sp, #56	; 0x38
     3b4:	4628      	mov	r0, r5
     3b6:	f000 fbc9 	bl	b4c <nrf_log_std_entry_process>
     3ba:	4630      	mov	r0, r6
     3bc:	f001 f976 	bl	16ac <nrf_memobj_put>
     3c0:	b015      	add	sp, #84	; 0x54
     3c2:	bdf0      	pop	{r4, r5, r6, r7, pc}

000003c4 <uart_evt_handler>:
     3c4:	4b01      	ldr	r3, [pc, #4]	; (3cc <uart_evt_handler+0x8>)
     3c6:	2201      	movs	r2, #1
     3c8:	701a      	strb	r2, [r3, #0]
     3ca:	4770      	bx	lr
     3cc:	20000090 	.word	0x20000090

000003d0 <nrf_log_backend_uart_flush>:
     3d0:	4770      	bx	lr
     3d2:	bf00      	nop

000003d4 <nrf_log_backend_uart_put>:
     3d4:	b500      	push	{lr}
     3d6:	b083      	sub	sp, #12
     3d8:	4b04      	ldr	r3, [pc, #16]	; (3ec <nrf_log_backend_uart_put+0x18>)
     3da:	9300      	str	r3, [sp, #0]
     3dc:	4a04      	ldr	r2, [pc, #16]	; (3f0 <nrf_log_backend_uart_put+0x1c>)
     3de:	2340      	movs	r3, #64	; 0x40
     3e0:	f7ff ff84 	bl	2ec <nrf_log_backend_serial_put>
     3e4:	b003      	add	sp, #12
     3e6:	f85d fb04 	ldr.w	pc, [sp], #4
     3ea:	bf00      	nop
     3ec:	000003f5 	.word	0x000003f5
     3f0:	20000050 	.word	0x20000050

000003f4 <serial_tx>:
     3f4:	b538      	push	{r3, r4, r5, lr}
     3f6:	480f      	ldr	r0, [pc, #60]	; (434 <serial_tx+0x40>)
     3f8:	4d0f      	ldr	r5, [pc, #60]	; (438 <serial_tx+0x44>)
     3fa:	7803      	ldrb	r3, [r0, #0]
     3fc:	4c0f      	ldr	r4, [pc, #60]	; (43c <serial_tx+0x48>)
     3fe:	5ceb      	ldrb	r3, [r5, r3]
     400:	f04f 0c00 	mov.w	ip, #0
     404:	f884 c000 	strb.w	ip, [r4]
     408:	b2d2      	uxtb	r2, r2
     40a:	b153      	cbz	r3, 422 <serial_tx+0x2e>
     40c:	3004      	adds	r0, #4
     40e:	f002 fbb7 	bl	2b80 <nrfx_uarte_tx>
     412:	b958      	cbnz	r0, 42c <serial_tx+0x38>
     414:	4b0a      	ldr	r3, [pc, #40]	; (440 <serial_tx+0x4c>)
     416:	781b      	ldrb	r3, [r3, #0]
     418:	b113      	cbz	r3, 420 <serial_tx+0x2c>
     41a:	7823      	ldrb	r3, [r4, #0]
     41c:	2b00      	cmp	r3, #0
     41e:	d0fc      	beq.n	41a <serial_tx+0x26>
     420:	bd38      	pop	{r3, r4, r5, pc}
     422:	300c      	adds	r0, #12
     424:	f002 f8fc 	bl	2620 <nrfx_uart_tx>
     428:	2800      	cmp	r0, #0
     42a:	d0f3      	beq.n	414 <serial_tx+0x20>
     42c:	f000 fc86 	bl	d3c <app_error_handler_bare>
     430:	e7f0      	b.n	414 <serial_tx+0x20>
     432:	bf00      	nop
     434:	20000000 	.word	0x20000000
     438:	20000638 	.word	0x20000638
     43c:	20000090 	.word	0x20000090
     440:	2000004c 	.word	0x2000004c

00000444 <nrf_log_backend_uart_panic_set>:
     444:	b510      	push	{r4, lr}
     446:	4815      	ldr	r0, [pc, #84]	; (49c <nrf_log_backend_uart_panic_set+0x58>)
     448:	4a15      	ldr	r2, [pc, #84]	; (4a0 <nrf_log_backend_uart_panic_set+0x5c>)
     44a:	7803      	ldrb	r3, [r0, #0]
     44c:	5cd3      	ldrb	r3, [r2, r3]
     44e:	b088      	sub	sp, #32
     450:	b1c3      	cbz	r3, 484 <nrf_log_backend_uart_panic_set+0x40>
     452:	3004      	adds	r0, #4
     454:	f002 faf4 	bl	2a40 <nrfx_uarte_uninit>
     458:	4c12      	ldr	r4, [pc, #72]	; (4a4 <nrf_log_backend_uart_panic_set+0x60>)
     45a:	cc0f      	ldmia	r4!, {r0, r1, r2, r3}
     45c:	46ec      	mov	ip, sp
     45e:	e8ac 000f 	stmia.w	ip!, {r0, r1, r2, r3}
     462:	e894 000f 	ldmia.w	r4, {r0, r1, r2, r3}
     466:	e88c 000f 	stmia.w	ip, {r0, r1, r2, r3}
     46a:	2306      	movs	r3, #6
     46c:	480b      	ldr	r0, [pc, #44]	; (49c <nrf_log_backend_uart_panic_set+0x58>)
     46e:	9300      	str	r3, [sp, #0]
     470:	2200      	movs	r2, #0
     472:	4669      	mov	r1, sp
     474:	f001 fa9c 	bl	19b0 <nrf_drv_uart_init>
     478:	b940      	cbnz	r0, 48c <nrf_log_backend_uart_panic_set+0x48>
     47a:	4b0b      	ldr	r3, [pc, #44]	; (4a8 <nrf_log_backend_uart_panic_set+0x64>)
     47c:	2200      	movs	r2, #0
     47e:	701a      	strb	r2, [r3, #0]
     480:	b008      	add	sp, #32
     482:	bd10      	pop	{r4, pc}
     484:	300c      	adds	r0, #12
     486:	f002 f85d 	bl	2544 <nrfx_uart_uninit>
     48a:	e7e5      	b.n	458 <nrf_log_backend_uart_panic_set+0x14>
     48c:	f000 fc56 	bl	d3c <app_error_handler_bare>
     490:	4b05      	ldr	r3, [pc, #20]	; (4a8 <nrf_log_backend_uart_panic_set+0x64>)
     492:	2200      	movs	r2, #0
     494:	701a      	strb	r2, [r3, #0]
     496:	b008      	add	sp, #32
     498:	bd10      	pop	{r4, pc}
     49a:	bf00      	nop
     49c:	20000000 	.word	0x20000000
     4a0:	20000638 	.word	0x20000638
     4a4:	000033c8 	.word	0x000033c8
     4a8:	2000004c 	.word	0x2000004c

000004ac <nrf_log_backend_uart_init>:
     4ac:	b510      	push	{r4, lr}
     4ae:	4c0f      	ldr	r4, [pc, #60]	; (4ec <nrf_log_backend_uart_init+0x40>)
     4b0:	cc0f      	ldmia	r4!, {r0, r1, r2, r3}
     4b2:	b088      	sub	sp, #32
     4b4:	46ec      	mov	ip, sp
     4b6:	e8ac 000f 	stmia.w	ip!, {r0, r1, r2, r3}
     4ba:	e894 000f 	ldmia.w	r4, {r0, r1, r2, r3}
     4be:	e88c 000f 	stmia.w	ip, {r0, r1, r2, r3}
     4c2:	2306      	movs	r3, #6
     4c4:	4a0a      	ldr	r2, [pc, #40]	; (4f0 <nrf_log_backend_uart_init+0x44>)
     4c6:	480b      	ldr	r0, [pc, #44]	; (4f4 <nrf_log_backend_uart_init+0x48>)
     4c8:	9300      	str	r3, [sp, #0]
     4ca:	4669      	mov	r1, sp
     4cc:	f001 fa70 	bl	19b0 <nrf_drv_uart_init>
     4d0:	b920      	cbnz	r0, 4dc <nrf_log_backend_uart_init+0x30>
     4d2:	4b09      	ldr	r3, [pc, #36]	; (4f8 <nrf_log_backend_uart_init+0x4c>)
     4d4:	2201      	movs	r2, #1
     4d6:	701a      	strb	r2, [r3, #0]
     4d8:	b008      	add	sp, #32
     4da:	bd10      	pop	{r4, pc}
     4dc:	f000 fc2e 	bl	d3c <app_error_handler_bare>
     4e0:	4b05      	ldr	r3, [pc, #20]	; (4f8 <nrf_log_backend_uart_init+0x4c>)
     4e2:	2201      	movs	r2, #1
     4e4:	701a      	strb	r2, [r3, #0]
     4e6:	b008      	add	sp, #32
     4e8:	bd10      	pop	{r4, pc}
     4ea:	bf00      	nop
     4ec:	000033c8 	.word	0x000033c8
     4f0:	000003c5 	.word	0x000003c5
     4f4:	20000000 	.word	0x20000000
     4f8:	2000004c 	.word	0x2000004c

000004fc <nrf_log_default_backends_init>:
     4fc:	b508      	push	{r3, lr}
     4fe:	f7ff ffd5 	bl	4ac <nrf_log_backend_uart_init>
     502:	4804      	ldr	r0, [pc, #16]	; (514 <nrf_log_default_backends_init+0x18>)
     504:	2104      	movs	r1, #4
     506:	f000 fa9b 	bl	a40 <nrf_log_backend_add>
     50a:	4b03      	ldr	r3, [pc, #12]	; (518 <nrf_log_default_backends_init+0x1c>)
     50c:	2201      	movs	r2, #1
     50e:	715a      	strb	r2, [r3, #5]
     510:	bd08      	pop	{r3, pc}
     512:	bf00      	nop
     514:	00003704 	.word	0x00003704
     518:	20000014 	.word	0x20000014

0000051c <log_skip>:
     51c:	b570      	push	{r4, r5, r6, lr}
     51e:	4d30      	ldr	r5, [pc, #192]	; (5e0 <log_skip+0xc4>)
     520:	b084      	sub	sp, #16
     522:	f505 6083 	add.w	r0, r5, #1048	; 0x418
     526:	f000 fc83 	bl	e30 <nrf_atomic_flag_set>
     52a:	f205 4014 	addw	r0, r5, #1044	; 0x414
     52e:	f000 fc7f 	bl	e30 <nrf_atomic_flag_set>
     532:	68ab      	ldr	r3, [r5, #8]
     534:	b2da      	uxtb	r2, r3
     536:	1cd1      	adds	r1, r2, #3
     538:	eb05 0081 	add.w	r0, r5, r1, lsl #2
     53c:	f815 1021 	ldrb.w	r1, [r5, r1, lsl #2]
     540:	074c      	lsls	r4, r1, #29
     542:	d510      	bpl.n	566 <log_skip+0x4a>
     544:	f001 0404 	and.w	r4, r1, #4
     548:	7801      	ldrb	r1, [r0, #0]
     54a:	f001 0103 	and.w	r1, r1, #3
     54e:	2901      	cmp	r1, #1
     550:	d038      	beq.n	5c4 <log_skip+0xa8>
     552:	2902      	cmp	r1, #2
     554:	f103 0602 	add.w	r6, r3, #2
     558:	f102 0103 	add.w	r1, r2, #3
     55c:	d026      	beq.n	5ac <log_skip+0x90>
     55e:	eb05 0081 	add.w	r0, r5, r1, lsl #2
     562:	2c00      	cmp	r4, #0
     564:	d1f0      	bne.n	548 <log_skip+0x2c>
     566:	eb05 0182 	add.w	r1, r5, r2, lsl #2
     56a:	1c5a      	adds	r2, r3, #1
     56c:	68c8      	ldr	r0, [r1, #12]
     56e:	9001      	str	r0, [sp, #4]
     570:	b2d2      	uxtb	r2, r2
     572:	eb05 0282 	add.w	r2, r5, r2, lsl #2
     576:	f000 0103 	and.w	r1, r0, #3
     57a:	2901      	cmp	r1, #1
     57c:	68d6      	ldr	r6, [r2, #12]
     57e:	f103 0402 	add.w	r4, r3, #2
     582:	d025      	beq.n	5d0 <log_skip+0xb4>
     584:	2902      	cmp	r1, #2
     586:	d10f      	bne.n	5a8 <log_skip+0x8c>
     588:	f8bd 3006 	ldrh.w	r3, [sp, #6]
     58c:	f3c3 1389 	ubfx	r3, r3, #6, #10
     590:	3303      	adds	r3, #3
     592:	0c36      	lsrs	r6, r6, #16
     594:	eb04 0493 	add.w	r4, r4, r3, lsr #2
     598:	4812      	ldr	r0, [pc, #72]	; (5e4 <log_skip+0xc8>)
     59a:	f000 fc55 	bl	e48 <nrf_atomic_flag_clear_fetch>
     59e:	b100      	cbz	r0, 5a2 <log_skip+0x86>
     5a0:	60ac      	str	r4, [r5, #8]
     5a2:	4630      	mov	r0, r6
     5a4:	b004      	add	sp, #16
     5a6:	bd70      	pop	{r4, r5, r6, pc}
     5a8:	2600      	movs	r6, #0
     5aa:	e7f5      	b.n	598 <log_skip+0x7c>
     5ac:	8843      	ldrh	r3, [r0, #2]
     5ae:	eb06 1393 	add.w	r3, r6, r3, lsr #6
     5b2:	b2da      	uxtb	r2, r3
     5b4:	1cd1      	adds	r1, r2, #3
     5b6:	eb05 0081 	add.w	r0, r5, r1, lsl #2
     5ba:	f815 1021 	ldrb.w	r1, [r5, r1, lsl #2]
     5be:	f001 0404 	and.w	r4, r1, #4
     5c2:	e7ce      	b.n	562 <log_skip+0x46>
     5c4:	8802      	ldrh	r2, [r0, #0]
     5c6:	3302      	adds	r3, #2
     5c8:	f3c2 1283 	ubfx	r2, r2, #6, #4
     5cc:	4413      	add	r3, r2
     5ce:	e7f0      	b.n	5b2 <log_skip+0x96>
     5d0:	f8bd 3004 	ldrh.w	r3, [sp, #4]
     5d4:	f3c3 1383 	ubfx	r3, r3, #6, #4
     5d8:	0c36      	lsrs	r6, r6, #16
     5da:	441c      	add	r4, r3
     5dc:	e7dc      	b.n	598 <log_skip+0x7c>
     5de:	bf00      	nop
     5e0:	20000164 	.word	0x20000164
     5e4:	20000578 	.word	0x20000578

000005e8 <nrf_log_init>:
     5e8:	4b06      	ldr	r3, [pc, #24]	; (604 <nrf_log_init+0x1c>)
     5ea:	4807      	ldr	r0, [pc, #28]	; (608 <nrf_log_init+0x20>)
     5ec:	b510      	push	{r4, lr}
     5ee:	2200      	movs	r2, #0
     5f0:	701a      	strb	r2, [r3, #0]
     5f2:	f001 f80b 	bl	160c <nrf_memobj_pool_init>
     5f6:	4604      	mov	r4, r0
     5f8:	b910      	cbnz	r0, 600 <nrf_log_init+0x18>
     5fa:	4804      	ldr	r0, [pc, #16]	; (60c <nrf_log_init+0x24>)
     5fc:	f001 f8ea 	bl	17d4 <nrf_ringbuf_init>
     600:	4620      	mov	r0, r4
     602:	bd10      	pop	{r4, pc}
     604:	20000164 	.word	0x20000164
     608:	00003714 	.word	0x00003714
     60c:	00003420 	.word	0x00003420

00000610 <nrf_log_module_name_get>:
     610:	b430      	push	{r4, r5}
     612:	b199      	cbz	r1, 63c <nrf_log_module_name_get+0x2c>
     614:	490d      	ldr	r1, [pc, #52]	; (64c <nrf_log_module_name_get+0x3c>)
     616:	4d0e      	ldr	r5, [pc, #56]	; (650 <nrf_log_module_name_get+0x40>)
     618:	1b49      	subs	r1, r1, r5
     61a:	08c9      	lsrs	r1, r1, #3
     61c:	d013      	beq.n	646 <nrf_log_module_name_get+0x36>
     61e:	4c0d      	ldr	r4, [pc, #52]	; (654 <nrf_log_module_name_get+0x44>)
     620:	2300      	movs	r3, #0
     622:	e002      	b.n	62a <nrf_log_module_name_get+0x1a>
     624:	3301      	adds	r3, #1
     626:	4299      	cmp	r1, r3
     628:	d00a      	beq.n	640 <nrf_log_module_name_get+0x30>
     62a:	f834 2023 	ldrh.w	r2, [r4, r3, lsl #2]
     62e:	4282      	cmp	r2, r0
     630:	d1f8      	bne.n	624 <nrf_log_module_name_get+0x14>
     632:	4618      	mov	r0, r3
     634:	f855 0030 	ldr.w	r0, [r5, r0, lsl #3]
     638:	bc30      	pop	{r4, r5}
     63a:	4770      	bx	lr
     63c:	4d04      	ldr	r5, [pc, #16]	; (650 <nrf_log_module_name_get+0x40>)
     63e:	e7f9      	b.n	634 <nrf_log_module_name_get+0x24>
     640:	2000      	movs	r0, #0
     642:	bc30      	pop	{r4, r5}
     644:	4770      	bx	lr
     646:	4608      	mov	r0, r1
     648:	e7f6      	b.n	638 <nrf_log_module_name_get+0x28>
     64a:	bf00      	nop
     64c:	00003704 	.word	0x00003704
     650:	000036dc 	.word	0x000036dc
     654:	2000002c 	.word	0x2000002c

00000658 <nrf_log_color_id_get>:
     658:	4b09      	ldr	r3, [pc, #36]	; (680 <nrf_log_color_id_get+0x28>)
     65a:	3901      	subs	r1, #1
     65c:	eb03 00c0 	add.w	r0, r3, r0, lsl #3
     660:	2903      	cmp	r1, #3
     662:	d80b      	bhi.n	67c <nrf_log_color_id_get+0x24>
     664:	e8df f001 	tbb	[pc, r1]
     668:	06080204 	.word	0x06080204
     66c:	2004      	movs	r0, #4
     66e:	4770      	bx	lr
     670:	2002      	movs	r0, #2
     672:	4770      	bx	lr
     674:	7940      	ldrb	r0, [r0, #5]
     676:	4770      	bx	lr
     678:	7900      	ldrb	r0, [r0, #4]
     67a:	4770      	bx	lr
     67c:	2000      	movs	r0, #0
     67e:	4770      	bx	lr
     680:	000036dc 	.word	0x000036dc

00000684 <nrf_log_frontend_dequeue>:
     684:	e92d 43f0 	stmdb	sp!, {r4, r5, r6, r7, r8, r9, lr}
     688:	4c8a      	ldr	r4, [pc, #552]	; (8b4 <nrf_log_frontend_dequeue+0x230>)
     68a:	e9d4 2301 	ldrd	r2, r3, [r4, #4]
     68e:	429a      	cmp	r2, r3
     690:	b085      	sub	sp, #20
     692:	d060      	beq.n	756 <nrf_log_frontend_dequeue+0xd2>
     694:	2300      	movs	r3, #0
     696:	f8c4 3418 	str.w	r3, [r4, #1048]	; 0x418
     69a:	f3bf 8f4f 	dsb	sy
     69e:	68a5      	ldr	r5, [r4, #8]
     6a0:	b2ea      	uxtb	r2, r5
     6a2:	1cd3      	adds	r3, r2, #3
     6a4:	eb04 0183 	add.w	r1, r4, r3, lsl #2
     6a8:	f814 3023 	ldrb.w	r3, [r4, r3, lsl #2]
     6ac:	0758      	lsls	r0, r3, #29
     6ae:	d518      	bpl.n	6e2 <nrf_log_frontend_dequeue+0x5e>
     6b0:	6866      	ldr	r6, [r4, #4]
     6b2:	780b      	ldrb	r3, [r1, #0]
     6b4:	f003 0303 	and.w	r3, r3, #3
     6b8:	2b01      	cmp	r3, #1
     6ba:	d042      	beq.n	742 <nrf_log_frontend_dequeue+0xbe>
     6bc:	2b02      	cmp	r3, #2
     6be:	d103      	bne.n	6c8 <nrf_log_frontend_dequeue+0x44>
     6c0:	884b      	ldrh	r3, [r1, #2]
     6c2:	3502      	adds	r5, #2
     6c4:	eb05 1593 	add.w	r5, r5, r3, lsr #6
     6c8:	b2ea      	uxtb	r2, r5
     6ca:	f8d4 0418 	ldr.w	r0, [r4, #1048]	; 0x418
     6ce:	1cd3      	adds	r3, r2, #3
     6d0:	eb04 0183 	add.w	r1, r4, r3, lsl #2
     6d4:	b928      	cbnz	r0, 6e2 <nrf_log_frontend_dequeue+0x5e>
     6d6:	42ae      	cmp	r6, r5
     6d8:	d939      	bls.n	74e <nrf_log_frontend_dequeue+0xca>
     6da:	f814 3023 	ldrb.w	r3, [r4, r3, lsl #2]
     6de:	075b      	lsls	r3, r3, #29
     6e0:	d4e7      	bmi.n	6b2 <nrf_log_frontend_dequeue+0x2e>
     6e2:	eb04 0282 	add.w	r2, r4, r2, lsl #2
     6e6:	1c6b      	adds	r3, r5, #1
     6e8:	b2db      	uxtb	r3, r3
     6ea:	68d2      	ldr	r2, [r2, #12]
     6ec:	eb04 0383 	add.w	r3, r4, r3, lsl #2
     6f0:	f002 0103 	and.w	r1, r2, #3
     6f4:	68db      	ldr	r3, [r3, #12]
     6f6:	2902      	cmp	r1, #2
     6f8:	e9cd 2301 	strd	r2, r3, [sp, #4]
     6fc:	f105 0602 	add.w	r6, r5, #2
     700:	d02d      	beq.n	75e <nrf_log_frontend_dequeue+0xda>
     702:	2901      	cmp	r1, #1
     704:	f000 8088 	beq.w	818 <nrf_log_frontend_dequeue+0x194>
     708:	f8d4 5410 	ldr.w	r5, [r4, #1040]	; 0x410
     70c:	b13d      	cbz	r5, 71e <nrf_log_frontend_dequeue+0x9a>
     70e:	682b      	ldr	r3, [r5, #0]
     710:	4628      	mov	r0, r5
     712:	689b      	ldr	r3, [r3, #8]
     714:	4798      	blx	r3
     716:	68eb      	ldr	r3, [r5, #12]
     718:	681d      	ldr	r5, [r3, #0]
     71a:	2d00      	cmp	r5, #0
     71c:	d1f7      	bne.n	70e <nrf_log_frontend_dequeue+0x8a>
     71e:	4866      	ldr	r0, [pc, #408]	; (8b8 <nrf_log_frontend_dequeue+0x234>)
     720:	4b66      	ldr	r3, [pc, #408]	; (8bc <nrf_log_frontend_dequeue+0x238>)
     722:	4967      	ldr	r1, [pc, #412]	; (8c0 <nrf_log_frontend_dequeue+0x23c>)
     724:	1ac0      	subs	r0, r0, r3
     726:	08c0      	lsrs	r0, r0, #3
     728:	0400      	lsls	r0, r0, #16
     72a:	f040 0002 	orr.w	r0, r0, #2
     72e:	f000 f8cd 	bl	8cc <nrf_log_frontend_std_0>
     732:	e9d4 3001 	ldrd	r3, r0, [r4, #4]
     736:	1ac0      	subs	r0, r0, r3
     738:	bf18      	it	ne
     73a:	2001      	movne	r0, #1
     73c:	b005      	add	sp, #20
     73e:	e8bd 83f0 	ldmia.w	sp!, {r4, r5, r6, r7, r8, r9, pc}
     742:	880b      	ldrh	r3, [r1, #0]
     744:	3502      	adds	r5, #2
     746:	f3c3 1383 	ubfx	r3, r3, #6, #4
     74a:	441d      	add	r5, r3
     74c:	e7bc      	b.n	6c8 <nrf_log_frontend_dequeue+0x44>
     74e:	60a6      	str	r6, [r4, #8]
     750:	b005      	add	sp, #20
     752:	e8bd 83f0 	ldmia.w	sp!, {r4, r5, r6, r7, r8, r9, pc}
     756:	2000      	movs	r0, #0
     758:	b005      	add	sp, #20
     75a:	e8bd 83f0 	ldmia.w	sp!, {r4, r5, r6, r7, r8, r9, pc}
     75e:	f8bd 3006 	ldrh.w	r3, [sp, #6]
     762:	4858      	ldr	r0, [pc, #352]	; (8c4 <nrf_log_frontend_dequeue+0x240>)
     764:	f3c3 1889 	ubfx	r8, r3, #6, #10
     768:	4645      	mov	r5, r8
     76a:	2d50      	cmp	r5, #80	; 0x50
     76c:	bf28      	it	cs
     76e:	2550      	movcs	r5, #80	; 0x50
     770:	f365 138f 	bfi	r3, r5, #6, #10
     774:	f105 0108 	add.w	r1, r5, #8
     778:	f8ad 3006 	strh.w	r3, [sp, #6]
     77c:	f000 ff48 	bl	1610 <nrf_memobj_alloc>
     780:	4607      	mov	r7, r0
     782:	2800      	cmp	r0, #0
     784:	d0c0      	beq.n	708 <nrf_log_frontend_dequeue+0x84>
     786:	f000 ff8d 	bl	16a4 <nrf_memobj_get>
     78a:	2300      	movs	r3, #0
     78c:	2208      	movs	r2, #8
     78e:	a901      	add	r1, sp, #4
     790:	4638      	mov	r0, r7
     792:	f000 ffb7 	bl	1704 <nrf_memobj_write>
     796:	43f3      	mvns	r3, r6
     798:	b2db      	uxtb	r3, r3
     79a:	3301      	adds	r3, #1
     79c:	ebb5 0f83 	cmp.w	r5, r3, lsl #2
     7a0:	ea4f 0983 	mov.w	r9, r3, lsl #2
     7a4:	d97a      	bls.n	89c <nrf_log_frontend_dequeue+0x218>
     7a6:	b2f1      	uxtb	r1, r6
     7a8:	eba5 0509 	sub.w	r5, r5, r9
     7ac:	3103      	adds	r1, #3
     7ae:	eb04 0181 	add.w	r1, r4, r1, lsl #2
     7b2:	464a      	mov	r2, r9
     7b4:	4638      	mov	r0, r7
     7b6:	2308      	movs	r3, #8
     7b8:	b2ed      	uxtb	r5, r5
     7ba:	f000 ffa3 	bl	1704 <nrf_memobj_write>
     7be:	4942      	ldr	r1, [pc, #264]	; (8c8 <nrf_log_frontend_dequeue+0x244>)
     7c0:	f109 0308 	add.w	r3, r9, #8
     7c4:	462a      	mov	r2, r5
     7c6:	4638      	mov	r0, r7
     7c8:	f000 ff9c 	bl	1704 <nrf_memobj_write>
     7cc:	f108 0803 	add.w	r8, r8, #3
     7d0:	eb06 0698 	add.w	r6, r6, r8, lsr #2
     7d4:	f8d4 3418 	ldr.w	r3, [r4, #1048]	; 0x418
     7d8:	f8d4 5410 	ldr.w	r5, [r4, #1040]	; 0x410
     7dc:	2b00      	cmp	r3, #0
     7de:	d159      	bne.n	894 <nrf_log_frontend_dequeue+0x210>
     7e0:	b165      	cbz	r5, 7fc <nrf_log_frontend_dequeue+0x178>
     7e2:	68eb      	ldr	r3, [r5, #12]
     7e4:	795a      	ldrb	r2, [r3, #5]
     7e6:	4628      	mov	r0, r5
     7e8:	4639      	mov	r1, r7
     7ea:	2a00      	cmp	r2, #0
     7ec:	d060      	beq.n	8b0 <nrf_log_frontend_dequeue+0x22c>
     7ee:	682b      	ldr	r3, [r5, #0]
     7f0:	681b      	ldr	r3, [r3, #0]
     7f2:	4798      	blx	r3
     7f4:	68eb      	ldr	r3, [r5, #12]
     7f6:	681d      	ldr	r5, [r3, #0]
     7f8:	2d00      	cmp	r5, #0
     7fa:	d1f2      	bne.n	7e2 <nrf_log_frontend_dequeue+0x15e>
     7fc:	4638      	mov	r0, r7
     7fe:	f000 ff55 	bl	16ac <nrf_memobj_put>
     802:	2000      	movs	r0, #0
     804:	f000 fae0 	bl	dc8 <app_util_critical_region_enter>
     808:	f8d4 3418 	ldr.w	r3, [r4, #1048]	; 0x418
     80c:	b903      	cbnz	r3, 810 <nrf_log_frontend_dequeue+0x18c>
     80e:	60a6      	str	r6, [r4, #8]
     810:	2000      	movs	r0, #0
     812:	f000 fae1 	bl	dd8 <app_util_critical_region_exit>
     816:	e78c      	b.n	732 <nrf_log_frontend_dequeue+0xae>
     818:	f8bd 2004 	ldrh.w	r2, [sp, #4]
     81c:	4829      	ldr	r0, [pc, #164]	; (8c4 <nrf_log_frontend_dequeue+0x240>)
     81e:	f3c2 1383 	ubfx	r3, r2, #6, #4
     822:	2b06      	cmp	r3, #6
     824:	bf28      	it	cs
     826:	2306      	movcs	r3, #6
     828:	f363 1289 	bfi	r2, r3, #6, #4
     82c:	3302      	adds	r3, #2
     82e:	f003 010f 	and.w	r1, r3, #15
     832:	0089      	lsls	r1, r1, #2
     834:	f8ad 2004 	strh.w	r2, [sp, #4]
     838:	f000 feea 	bl	1610 <nrf_memobj_alloc>
     83c:	4607      	mov	r7, r0
     83e:	2800      	cmp	r0, #0
     840:	f43f af62 	beq.w	708 <nrf_log_frontend_dequeue+0x84>
     844:	f000 ff2e 	bl	16a4 <nrf_memobj_get>
     848:	2300      	movs	r3, #0
     84a:	2208      	movs	r2, #8
     84c:	a901      	add	r1, sp, #4
     84e:	4638      	mov	r0, r7
     850:	f000 ff58 	bl	1704 <nrf_memobj_write>
     854:	f8bd 3004 	ldrh.w	r3, [sp, #4]
     858:	f413 7f70 	tst.w	r3, #960	; 0x3c0
     85c:	d0ba      	beq.n	7d4 <nrf_log_frontend_dequeue+0x150>
     85e:	f06f 0901 	mvn.w	r9, #1
     862:	f04f 0808 	mov.w	r8, #8
     866:	eba9 0905 	sub.w	r9, r9, r5
     86a:	b2f1      	uxtb	r1, r6
     86c:	3103      	adds	r1, #3
     86e:	4643      	mov	r3, r8
     870:	2204      	movs	r2, #4
     872:	eb04 0181 	add.w	r1, r4, r1, lsl #2
     876:	4638      	mov	r0, r7
     878:	f000 ff44 	bl	1704 <nrf_memobj_write>
     87c:	f8bd 3004 	ldrh.w	r3, [sp, #4]
     880:	3601      	adds	r6, #1
     882:	f3c3 1383 	ubfx	r3, r3, #6, #4
     886:	eb09 0206 	add.w	r2, r9, r6
     88a:	4293      	cmp	r3, r2
     88c:	f108 0804 	add.w	r8, r8, #4
     890:	d8eb      	bhi.n	86a <nrf_log_frontend_dequeue+0x1e6>
     892:	e79f      	b.n	7d4 <nrf_log_frontend_dequeue+0x150>
     894:	4638      	mov	r0, r7
     896:	f000 ff09 	bl	16ac <nrf_memobj_put>
     89a:	e74a      	b.n	732 <nrf_log_frontend_dequeue+0xae>
     89c:	b2f1      	uxtb	r1, r6
     89e:	3103      	adds	r1, #3
     8a0:	462a      	mov	r2, r5
     8a2:	eb04 0181 	add.w	r1, r4, r1, lsl #2
     8a6:	2308      	movs	r3, #8
     8a8:	4638      	mov	r0, r7
     8aa:	f000 ff2b 	bl	1704 <nrf_memobj_write>
     8ae:	e78d      	b.n	7cc <nrf_log_frontend_dequeue+0x148>
     8b0:	681d      	ldr	r5, [r3, #0]
     8b2:	e795      	b.n	7e0 <nrf_log_frontend_dequeue+0x15c>
     8b4:	20000164 	.word	0x20000164
     8b8:	000036fc 	.word	0x000036fc
     8bc:	000036dc 	.word	0x000036dc
     8c0:	00003408 	.word	0x00003408
     8c4:	00003714 	.word	0x00003714
     8c8:	20000170 	.word	0x20000170

000008cc <nrf_log_frontend_std_0>:
     8cc:	e92d 41f0 	stmdb	sp!, {r4, r5, r6, r7, r8, lr}
     8d0:	4c28      	ldr	r4, [pc, #160]	; (974 <nrf_log_frontend_std_0+0xa8>)
     8d2:	4606      	mov	r6, r0
     8d4:	2000      	movs	r0, #0
     8d6:	4688      	mov	r8, r1
     8d8:	f000 fa76 	bl	dc8 <app_util_critical_region_enter>
     8dc:	e9d4 7301 	ldrd	r7, r3, [r4, #4]
     8e0:	f503 7380 	add.w	r3, r3, #256	; 0x100
     8e4:	1bdb      	subs	r3, r3, r7
     8e6:	2b01      	cmp	r3, #1
     8e8:	d842      	bhi.n	970 <nrf_log_frontend_std_0+0xa4>
     8ea:	f204 451c 	addw	r5, r4, #1052	; 0x41c
     8ee:	2101      	movs	r1, #1
     8f0:	4628      	mov	r0, r5
     8f2:	f000 fa85 	bl	e00 <nrf_atomic_u32_add>
     8f6:	f7ff fe11 	bl	51c <log_skip>
     8fa:	4601      	mov	r1, r0
     8fc:	4628      	mov	r0, r5
     8fe:	f000 fa7f 	bl	e00 <nrf_atomic_u32_add>
     902:	e9d4 2301 	ldrd	r2, r3, [r4, #4]
     906:	f503 7380 	add.w	r3, r3, #256	; 0x100
     90a:	1a9b      	subs	r3, r3, r2
     90c:	2b01      	cmp	r3, #1
     90e:	d9ee      	bls.n	8ee <nrf_log_frontend_std_0+0x22>
     910:	b2d3      	uxtb	r3, r2
     912:	3303      	adds	r3, #3
     914:	3202      	adds	r2, #2
     916:	2105      	movs	r1, #5
     918:	2000      	movs	r0, #0
     91a:	f844 1023 	str.w	r1, [r4, r3, lsl #2]
     91e:	6062      	str	r2, [r4, #4]
     920:	f000 fa5a 	bl	dd8 <app_util_critical_region_exit>
     924:	2100      	movs	r1, #0
     926:	4814      	ldr	r0, [pc, #80]	; (978 <nrf_log_frontend_std_0+0xac>)
     928:	f000 fa60 	bl	dec <nrf_atomic_u32_fetch_store>
     92c:	f380 0210 	usat	r2, #16, r0
     930:	1c79      	adds	r1, r7, #1
     932:	00f3      	lsls	r3, r6, #3
     934:	f003 0338 	and.w	r3, r3, #56	; 0x38
     938:	b2c9      	uxtb	r1, r1
     93a:	b2ff      	uxtb	r7, r7
     93c:	0412      	lsls	r2, r2, #16
     93e:	f043 0301 	orr.w	r3, r3, #1
     942:	eb04 0181 	add.w	r1, r4, r1, lsl #2
     946:	3703      	adds	r7, #3
     948:	ea43 2388 	orr.w	r3, r3, r8, lsl #10
     94c:	ea42 4216 	orr.w	r2, r2, r6, lsr #16
     950:	60ca      	str	r2, [r1, #12]
     952:	f844 3027 	str.w	r3, [r4, r7, lsl #2]
     956:	7823      	ldrb	r3, [r4, #0]
     958:	b90b      	cbnz	r3, 95e <nrf_log_frontend_std_0+0x92>
     95a:	e8bd 81f0 	ldmia.w	sp!, {r4, r5, r6, r7, r8, pc}
     95e:	f7ff fe91 	bl	684 <nrf_log_frontend_dequeue>
     962:	2800      	cmp	r0, #0
     964:	d0f9      	beq.n	95a <nrf_log_frontend_std_0+0x8e>
     966:	f7ff fe8d 	bl	684 <nrf_log_frontend_dequeue>
     96a:	2800      	cmp	r0, #0
     96c:	d1f7      	bne.n	95e <nrf_log_frontend_std_0+0x92>
     96e:	e7f4      	b.n	95a <nrf_log_frontend_std_0+0x8e>
     970:	463a      	mov	r2, r7
     972:	e7cd      	b.n	910 <nrf_log_frontend_std_0+0x44>
     974:	20000164 	.word	0x20000164
     978:	20000580 	.word	0x20000580

0000097c <nrf_log_frontend_std_1>:
     97c:	e92d 43f8 	stmdb	sp!, {r3, r4, r5, r6, r7, r8, r9, lr}
     980:	f8df 90b8 	ldr.w	r9, [pc, #184]	; a3c <nrf_log_frontend_std_1+0xc0>
     984:	4605      	mov	r5, r0
     986:	2000      	movs	r0, #0
     988:	460f      	mov	r7, r1
     98a:	4690      	mov	r8, r2
     98c:	f000 fa1c 	bl	dc8 <app_util_critical_region_enter>
     990:	e9d9 6301 	ldrd	r6, r3, [r9, #4]
     994:	f503 7380 	add.w	r3, r3, #256	; 0x100
     998:	1b9b      	subs	r3, r3, r6
     99a:	2b02      	cmp	r3, #2
     99c:	d84a      	bhi.n	a34 <nrf_log_frontend_std_1+0xb8>
     99e:	f209 441c 	addw	r4, r9, #1052	; 0x41c
     9a2:	2101      	movs	r1, #1
     9a4:	4620      	mov	r0, r4
     9a6:	f000 fa2b 	bl	e00 <nrf_atomic_u32_add>
     9aa:	f7ff fdb7 	bl	51c <log_skip>
     9ae:	4601      	mov	r1, r0
     9b0:	4620      	mov	r0, r4
     9b2:	f000 fa25 	bl	e00 <nrf_atomic_u32_add>
     9b6:	e9d9 2301 	ldrd	r2, r3, [r9, #4]
     9ba:	f503 7380 	add.w	r3, r3, #256	; 0x100
     9be:	1a9b      	subs	r3, r3, r2
     9c0:	2b02      	cmp	r3, #2
     9c2:	d9ee      	bls.n	9a2 <nrf_log_frontend_std_1+0x26>
     9c4:	b2d3      	uxtb	r3, r2
     9c6:	3303      	adds	r3, #3
     9c8:	3203      	adds	r2, #3
     9ca:	2145      	movs	r1, #69	; 0x45
     9cc:	2000      	movs	r0, #0
     9ce:	f849 1023 	str.w	r1, [r9, r3, lsl #2]
     9d2:	f8c9 2004 	str.w	r2, [r9, #4]
     9d6:	f000 f9ff 	bl	dd8 <app_util_critical_region_exit>
     9da:	1cb3      	adds	r3, r6, #2
     9dc:	b2db      	uxtb	r3, r3
     9de:	eb09 0383 	add.w	r3, r9, r3, lsl #2
     9e2:	2100      	movs	r1, #0
     9e4:	f8c3 800c 	str.w	r8, [r3, #12]
     9e8:	4813      	ldr	r0, [pc, #76]	; (a38 <nrf_log_frontend_std_1+0xbc>)
     9ea:	f000 f9ff 	bl	dec <nrf_atomic_u32_fetch_store>
     9ee:	f380 0210 	usat	r2, #16, r0
     9f2:	1c71      	adds	r1, r6, #1
     9f4:	00eb      	lsls	r3, r5, #3
     9f6:	f003 0338 	and.w	r3, r3, #56	; 0x38
     9fa:	b2c9      	uxtb	r1, r1
     9fc:	b2f6      	uxtb	r6, r6
     9fe:	0412      	lsls	r2, r2, #16
     a00:	f043 0341 	orr.w	r3, r3, #65	; 0x41
     a04:	eb09 0181 	add.w	r1, r9, r1, lsl #2
     a08:	3603      	adds	r6, #3
     a0a:	ea43 2387 	orr.w	r3, r3, r7, lsl #10
     a0e:	ea42 4215 	orr.w	r2, r2, r5, lsr #16
     a12:	60ca      	str	r2, [r1, #12]
     a14:	f849 3026 	str.w	r3, [r9, r6, lsl #2]
     a18:	f899 3000 	ldrb.w	r3, [r9]
     a1c:	b90b      	cbnz	r3, a22 <nrf_log_frontend_std_1+0xa6>
     a1e:	e8bd 83f8 	ldmia.w	sp!, {r3, r4, r5, r6, r7, r8, r9, pc}
     a22:	f7ff fe2f 	bl	684 <nrf_log_frontend_dequeue>
     a26:	2800      	cmp	r0, #0
     a28:	d0f9      	beq.n	a1e <nrf_log_frontend_std_1+0xa2>
     a2a:	f7ff fe2b 	bl	684 <nrf_log_frontend_dequeue>
     a2e:	2800      	cmp	r0, #0
     a30:	d1f7      	bne.n	a22 <nrf_log_frontend_std_1+0xa6>
     a32:	e7f4      	b.n	a1e <nrf_log_frontend_std_1+0xa2>
     a34:	4632      	mov	r2, r6
     a36:	e7c5      	b.n	9c4 <nrf_log_frontend_std_1+0x48>
     a38:	20000580 	.word	0x20000580
     a3c:	20000164 	.word	0x20000164

00000a40 <nrf_log_backend_add>:
     a40:	b430      	push	{r4, r5}
     a42:	4d16      	ldr	r5, [pc, #88]	; (a9c <nrf_log_backend_add+0x5c>)
     a44:	f8d5 4410 	ldr.w	r4, [r5, #1040]	; 0x410
     a48:	2100      	movs	r1, #0
     a4a:	b17c      	cbz	r4, a6c <nrf_log_backend_add+0x2c>
     a4c:	4623      	mov	r3, r4
     a4e:	e001      	b.n	a54 <nrf_log_backend_add+0x14>
     a50:	681b      	ldr	r3, [r3, #0]
     a52:	b15b      	cbz	r3, a6c <nrf_log_backend_add+0x2c>
     a54:	68db      	ldr	r3, [r3, #12]
     a56:	791a      	ldrb	r2, [r3, #4]
     a58:	428a      	cmp	r2, r1
     a5a:	d1f9      	bne.n	a50 <nrf_log_backend_add+0x10>
     a5c:	3101      	adds	r1, #1
     a5e:	290a      	cmp	r1, #10
     a60:	d1f3      	bne.n	a4a <nrf_log_backend_add+0xa>
     a62:	f04f 31ff 	mov.w	r1, #4294967295	; 0xffffffff
     a66:	4608      	mov	r0, r1
     a68:	bc30      	pop	{r4, r5}
     a6a:	4770      	bx	lr
     a6c:	68c3      	ldr	r3, [r0, #12]
     a6e:	7119      	strb	r1, [r3, #4]
     a70:	f8d5 3410 	ldr.w	r3, [r5, #1040]	; 0x410
     a74:	b153      	cbz	r3, a8c <nrf_log_backend_add+0x4c>
     a76:	68da      	ldr	r2, [r3, #12]
     a78:	68c3      	ldr	r3, [r0, #12]
     a7a:	6812      	ldr	r2, [r2, #0]
     a7c:	601a      	str	r2, [r3, #0]
     a7e:	f8d5 3410 	ldr.w	r3, [r5, #1040]	; 0x410
     a82:	68db      	ldr	r3, [r3, #12]
     a84:	6018      	str	r0, [r3, #0]
     a86:	bc30      	pop	{r4, r5}
     a88:	4608      	mov	r0, r1
     a8a:	4770      	bx	lr
     a8c:	f8c5 0410 	str.w	r0, [r5, #1040]	; 0x410
     a90:	68c2      	ldr	r2, [r0, #12]
     a92:	6013      	str	r3, [r2, #0]
     a94:	4608      	mov	r0, r1
     a96:	bc30      	pop	{r4, r5}
     a98:	4770      	bx	lr
     a9a:	bf00      	nop
     a9c:	20000164 	.word	0x20000164

00000aa0 <nrf_log_panic>:
     aa0:	b538      	push	{r3, r4, r5, lr}
     aa2:	4b08      	ldr	r3, [pc, #32]	; (ac4 <nrf_log_panic+0x24>)
     aa4:	f8d3 4410 	ldr.w	r4, [r3, #1040]	; 0x410
     aa8:	2501      	movs	r5, #1
     aaa:	701d      	strb	r5, [r3, #0]
     aac:	b14c      	cbz	r4, ac2 <nrf_log_panic+0x22>
     aae:	68e3      	ldr	r3, [r4, #12]
     ab0:	715d      	strb	r5, [r3, #5]
     ab2:	6823      	ldr	r3, [r4, #0]
     ab4:	4620      	mov	r0, r4
     ab6:	685b      	ldr	r3, [r3, #4]
     ab8:	4798      	blx	r3
     aba:	68e3      	ldr	r3, [r4, #12]
     abc:	681c      	ldr	r4, [r3, #0]
     abe:	2c00      	cmp	r4, #0
     ac0:	d1f5      	bne.n	aae <nrf_log_panic+0xe>
     ac2:	bd38      	pop	{r3, r4, r5, pc}
     ac4:	20000164 	.word	0x20000164

00000ac8 <prefix_process.constprop.0>:
     ac8:	b530      	push	{r4, r5, lr}
     aca:	88c3      	ldrh	r3, [r0, #6]
     acc:	b085      	sub	sp, #20
     ace:	4604      	mov	r4, r0
     ad0:	460d      	mov	r5, r1
     ad2:	bb23      	cbnz	r3, b1e <prefix_process.constprop.0+0x56>
     ad4:	7a23      	ldrb	r3, [r4, #8]
     ad6:	2b05      	cmp	r3, #5
     ad8:	d01f      	beq.n	b1a <prefix_process.constprop.0+0x52>
     ada:	7a62      	ldrb	r2, [r4, #9]
     adc:	b982      	cbnz	r2, b00 <prefix_process.constprop.0+0x38>
     ade:	4a14      	ldr	r2, [pc, #80]	; (b30 <prefix_process.constprop.0+0x68>)
     ae0:	88a0      	ldrh	r0, [r4, #4]
     ae2:	f852 2023 	ldr.w	r2, [r2, r3, lsl #2]
     ae6:	9203      	str	r2, [sp, #12]
     ae8:	2100      	movs	r1, #0
     aea:	f7ff fd91 	bl	610 <nrf_log_module_name_get>
     aee:	9a03      	ldr	r2, [sp, #12]
     af0:	4910      	ldr	r1, [pc, #64]	; (b34 <prefix_process.constprop.0+0x6c>)
     af2:	4603      	mov	r3, r0
     af4:	4628      	mov	r0, r5
     af6:	b005      	add	sp, #20
     af8:	e8bd 4030 	ldmia.w	sp!, {r4, r5, lr}
     afc:	f000 ba16 	b.w	f2c <nrf_fprintf>
     b00:	4619      	mov	r1, r3
     b02:	88a0      	ldrh	r0, [r4, #4]
     b04:	f7ff fda8 	bl	658 <nrf_log_color_id_get>
     b08:	4b0b      	ldr	r3, [pc, #44]	; (b38 <prefix_process.constprop.0+0x70>)
     b0a:	490c      	ldr	r1, [pc, #48]	; (b3c <prefix_process.constprop.0+0x74>)
     b0c:	f853 2020 	ldr.w	r2, [r3, r0, lsl #2]
     b10:	4628      	mov	r0, r5
     b12:	f000 fa0b 	bl	f2c <nrf_fprintf>
     b16:	7a23      	ldrb	r3, [r4, #8]
     b18:	e7e1      	b.n	ade <prefix_process.constprop.0+0x16>
     b1a:	b005      	add	sp, #20
     b1c:	bd30      	pop	{r4, r5, pc}
     b1e:	4908      	ldr	r1, [pc, #32]	; (b40 <prefix_process.constprop.0+0x78>)
     b20:	9100      	str	r1, [sp, #0]
     b22:	4a08      	ldr	r2, [pc, #32]	; (b44 <prefix_process.constprop.0+0x7c>)
     b24:	4908      	ldr	r1, [pc, #32]	; (b48 <prefix_process.constprop.0+0x80>)
     b26:	4628      	mov	r0, r5
     b28:	f000 fa00 	bl	f2c <nrf_fprintf>
     b2c:	e7d2      	b.n	ad4 <prefix_process.constprop.0+0xc>
     b2e:	bf00      	nop
     b30:	000034f8 	.word	0x000034f8
     b34:	00003458 	.word	0x00003458
     b38:	000034d4 	.word	0x000034d4
     b3c:	00003454 	.word	0x00003454
     b40:	0000344c 	.word	0x0000344c
     b44:	0000342c 	.word	0x0000342c
     b48:	00003434 	.word	0x00003434

00000b4c <nrf_log_std_entry_process>:
     b4c:	e92d 43f0 	stmdb	sp!, {r4, r5, r6, r7, r8, r9, lr}
     b50:	b085      	sub	sp, #20
     b52:	461d      	mov	r5, r3
     b54:	9c0c      	ldr	r4, [sp, #48]	; 0x30
     b56:	2300      	movs	r3, #0
     b58:	f894 900c 	ldrb.w	r9, [r4, #12]
     b5c:	7323      	strb	r3, [r4, #12]
     b5e:	4680      	mov	r8, r0
     b60:	460e      	mov	r6, r1
     b62:	4617      	mov	r7, r2
     b64:	4621      	mov	r1, r4
     b66:	4628      	mov	r0, r5
     b68:	f7ff ffae 	bl	ac8 <prefix_process.constprop.0>
     b6c:	2f06      	cmp	r7, #6
     b6e:	d809      	bhi.n	b84 <nrf_log_std_entry_process+0x38>
     b70:	e8df f007 	tbb	[pc, r7]
     b74:	3b342e04 	.word	0x3b342e04
     b78:	4f44      	.short	0x4f44
     b7a:	1f          	.byte	0x1f
     b7b:	00          	.byte	0x00
     b7c:	4641      	mov	r1, r8
     b7e:	4620      	mov	r0, r4
     b80:	f000 f9d4 	bl	f2c <nrf_fprintf>
     b84:	7a2b      	ldrb	r3, [r5, #8]
     b86:	2b05      	cmp	r3, #5
     b88:	d005      	beq.n	b96 <nrf_log_std_entry_process+0x4a>
     b8a:	7a6b      	ldrb	r3, [r5, #9]
     b8c:	b95b      	cbnz	r3, ba6 <nrf_log_std_entry_process+0x5a>
     b8e:	4927      	ldr	r1, [pc, #156]	; (c2c <nrf_log_std_entry_process+0xe0>)
     b90:	4620      	mov	r0, r4
     b92:	f000 f9cb 	bl	f2c <nrf_fprintf>
     b96:	4620      	mov	r0, r4
     b98:	f000 f9bc 	bl	f14 <nrf_fprintf_buffer_flush>
     b9c:	f884 900c 	strb.w	r9, [r4, #12]
     ba0:	b005      	add	sp, #20
     ba2:	e8bd 83f0 	ldmia.w	sp!, {r4, r5, r6, r7, r8, r9, pc}
     ba6:	4a22      	ldr	r2, [pc, #136]	; (c30 <nrf_log_std_entry_process+0xe4>)
     ba8:	4922      	ldr	r1, [pc, #136]	; (c34 <nrf_log_std_entry_process+0xe8>)
     baa:	4620      	mov	r0, r4
     bac:	f000 f9be 	bl	f2c <nrf_fprintf>
     bb0:	e7ed      	b.n	b8e <nrf_log_std_entry_process+0x42>
     bb2:	6973      	ldr	r3, [r6, #20]
     bb4:	9303      	str	r3, [sp, #12]
     bb6:	6933      	ldr	r3, [r6, #16]
     bb8:	9302      	str	r3, [sp, #8]
     bba:	68f3      	ldr	r3, [r6, #12]
     bbc:	9301      	str	r3, [sp, #4]
     bbe:	68b3      	ldr	r3, [r6, #8]
     bc0:	9300      	str	r3, [sp, #0]
     bc2:	e9d6 2300 	ldrd	r2, r3, [r6]
     bc6:	4641      	mov	r1, r8
     bc8:	4620      	mov	r0, r4
     bca:	f000 f9af 	bl	f2c <nrf_fprintf>
     bce:	e7d9      	b.n	b84 <nrf_log_std_entry_process+0x38>
     bd0:	6832      	ldr	r2, [r6, #0]
     bd2:	4641      	mov	r1, r8
     bd4:	4620      	mov	r0, r4
     bd6:	f000 f9a9 	bl	f2c <nrf_fprintf>
     bda:	e7d3      	b.n	b84 <nrf_log_std_entry_process+0x38>
     bdc:	e9d6 2300 	ldrd	r2, r3, [r6]
     be0:	4641      	mov	r1, r8
     be2:	4620      	mov	r0, r4
     be4:	f000 f9a2 	bl	f2c <nrf_fprintf>
     be8:	e7cc      	b.n	b84 <nrf_log_std_entry_process+0x38>
     bea:	68b3      	ldr	r3, [r6, #8]
     bec:	9300      	str	r3, [sp, #0]
     bee:	e9d6 2300 	ldrd	r2, r3, [r6]
     bf2:	4641      	mov	r1, r8
     bf4:	4620      	mov	r0, r4
     bf6:	f000 f999 	bl	f2c <nrf_fprintf>
     bfa:	e7c3      	b.n	b84 <nrf_log_std_entry_process+0x38>
     bfc:	68f3      	ldr	r3, [r6, #12]
     bfe:	9301      	str	r3, [sp, #4]
     c00:	68b3      	ldr	r3, [r6, #8]
     c02:	9300      	str	r3, [sp, #0]
     c04:	e9d6 2300 	ldrd	r2, r3, [r6]
     c08:	4641      	mov	r1, r8
     c0a:	4620      	mov	r0, r4
     c0c:	f000 f98e 	bl	f2c <nrf_fprintf>
     c10:	e7b8      	b.n	b84 <nrf_log_std_entry_process+0x38>
     c12:	6933      	ldr	r3, [r6, #16]
     c14:	9302      	str	r3, [sp, #8]
     c16:	68f3      	ldr	r3, [r6, #12]
     c18:	9301      	str	r3, [sp, #4]
     c1a:	68b3      	ldr	r3, [r6, #8]
     c1c:	9300      	str	r3, [sp, #0]
     c1e:	e9d6 2300 	ldrd	r2, r3, [r6]
     c22:	4641      	mov	r1, r8
     c24:	4620      	mov	r0, r4
     c26:	f000 f981 	bl	f2c <nrf_fprintf>
     c2a:	e7ab      	b.n	b84 <nrf_log_std_entry_process+0x38>
     c2c:	00003464 	.word	0x00003464
     c30:	0000344c 	.word	0x0000344c
     c34:	00003454 	.word	0x00003454

00000c38 <nrf_log_hexdump_entry_process>:
     c38:	2908      	cmp	r1, #8
     c3a:	d900      	bls.n	c3e <nrf_log_hexdump_entry_process+0x6>
     c3c:	4770      	bx	lr
     c3e:	e92d 4ff0 	stmdb	sp!, {r4, r5, r6, r7, r8, r9, sl, fp, lr}
     c42:	461d      	mov	r5, r3
     c44:	b083      	sub	sp, #12
     c46:	2400      	movs	r4, #0
     c48:	7b1b      	ldrb	r3, [r3, #12]
     c4a:	732c      	strb	r4, [r5, #12]
     c4c:	460e      	mov	r6, r1
     c4e:	4607      	mov	r7, r0
     c50:	4629      	mov	r1, r5
     c52:	4610      	mov	r0, r2
     c54:	4690      	mov	r8, r2
     c56:	9301      	str	r3, [sp, #4]
     c58:	f8df b0d0 	ldr.w	fp, [pc, #208]	; d2c <nrf_log_hexdump_entry_process+0xf4>
     c5c:	f8df a0d0 	ldr.w	sl, [pc, #208]	; d30 <nrf_log_hexdump_entry_process+0xf8>
     c60:	f7ff ff32 	bl	ac8 <prefix_process.constprop.0>
     c64:	e005      	b.n	c72 <nrf_log_hexdump_entry_process+0x3a>
     c66:	5d3a      	ldrb	r2, [r7, r4]
     c68:	3401      	adds	r4, #1
     c6a:	f000 f95f 	bl	f2c <nrf_fprintf>
     c6e:	2c08      	cmp	r4, #8
     c70:	d009      	beq.n	c86 <nrf_log_hexdump_entry_process+0x4e>
     c72:	42a6      	cmp	r6, r4
     c74:	4651      	mov	r1, sl
     c76:	4628      	mov	r0, r5
     c78:	d8f5      	bhi.n	c66 <nrf_log_hexdump_entry_process+0x2e>
     c7a:	4659      	mov	r1, fp
     c7c:	3401      	adds	r4, #1
     c7e:	f000 f955 	bl	f2c <nrf_fprintf>
     c82:	2c08      	cmp	r4, #8
     c84:	d1f5      	bne.n	c72 <nrf_log_hexdump_entry_process+0x3a>
     c86:	4924      	ldr	r1, [pc, #144]	; (d18 <nrf_log_hexdump_entry_process+0xe0>)
     c88:	f8df b0a8 	ldr.w	fp, [pc, #168]	; d34 <nrf_log_hexdump_entry_process+0xfc>
     c8c:	4c23      	ldr	r4, [pc, #140]	; (d1c <nrf_log_hexdump_entry_process+0xe4>)
     c8e:	f8df a0a8 	ldr.w	sl, [pc, #168]	; d38 <nrf_log_hexdump_entry_process+0x100>
     c92:	4628      	mov	r0, r5
     c94:	f000 f94a 	bl	f2c <nrf_fprintf>
     c98:	f04f 0900 	mov.w	r9, #0
     c9c:	e017      	b.n	cce <nrf_log_hexdump_entry_process+0x96>
     c9e:	f817 1009 	ldrb.w	r1, [r7, r9]
     ca2:	1c48      	adds	r0, r1, #1
     ca4:	297e      	cmp	r1, #126	; 0x7e
     ca6:	f04f 022e 	mov.w	r2, #46	; 0x2e
     caa:	b2c0      	uxtb	r0, r0
     cac:	d806      	bhi.n	cbc <nrf_log_hexdump_entry_process+0x84>
     cae:	f81a 2000 	ldrb.w	r2, [sl, r0]
     cb2:	f012 0f97 	tst.w	r2, #151	; 0x97
     cb6:	bf14      	ite	ne
     cb8:	460a      	movne	r2, r1
     cba:	222e      	moveq	r2, #46	; 0x2e
     cbc:	4621      	mov	r1, r4
     cbe:	4628      	mov	r0, r5
     cc0:	f109 0901 	add.w	r9, r9, #1
     cc4:	f000 f932 	bl	f2c <nrf_fprintf>
     cc8:	f1b9 0f08 	cmp.w	r9, #8
     ccc:	d00a      	beq.n	ce4 <nrf_log_hexdump_entry_process+0xac>
     cce:	454e      	cmp	r6, r9
     cd0:	d8e5      	bhi.n	c9e <nrf_log_hexdump_entry_process+0x66>
     cd2:	4659      	mov	r1, fp
     cd4:	4628      	mov	r0, r5
     cd6:	f109 0901 	add.w	r9, r9, #1
     cda:	f000 f927 	bl	f2c <nrf_fprintf>
     cde:	f1b9 0f08 	cmp.w	r9, #8
     ce2:	d1f4      	bne.n	cce <nrf_log_hexdump_entry_process+0x96>
     ce4:	f898 3008 	ldrb.w	r3, [r8, #8]
     ce8:	2b05      	cmp	r3, #5
     cea:	d002      	beq.n	cf2 <nrf_log_hexdump_entry_process+0xba>
     cec:	f898 3009 	ldrb.w	r3, [r8, #9]
     cf0:	b95b      	cbnz	r3, d0a <nrf_log_hexdump_entry_process+0xd2>
     cf2:	490b      	ldr	r1, [pc, #44]	; (d20 <nrf_log_hexdump_entry_process+0xe8>)
     cf4:	4628      	mov	r0, r5
     cf6:	f000 f919 	bl	f2c <nrf_fprintf>
     cfa:	4628      	mov	r0, r5
     cfc:	f000 f90a 	bl	f14 <nrf_fprintf_buffer_flush>
     d00:	9b01      	ldr	r3, [sp, #4]
     d02:	732b      	strb	r3, [r5, #12]
     d04:	b003      	add	sp, #12
     d06:	e8bd 8ff0 	ldmia.w	sp!, {r4, r5, r6, r7, r8, r9, sl, fp, pc}
     d0a:	4a06      	ldr	r2, [pc, #24]	; (d24 <nrf_log_hexdump_entry_process+0xec>)
     d0c:	4906      	ldr	r1, [pc, #24]	; (d28 <nrf_log_hexdump_entry_process+0xf0>)
     d0e:	4628      	mov	r0, r5
     d10:	f000 f90c 	bl	f2c <nrf_fprintf>
     d14:	e7ed      	b.n	cf2 <nrf_log_hexdump_entry_process+0xba>
     d16:	bf00      	nop
     d18:	00003474 	.word	0x00003474
     d1c:	00003478 	.word	0x00003478
     d20:	00003464 	.word	0x00003464
     d24:	0000344c 	.word	0x0000344c
     d28:	00003454 	.word	0x00003454
     d2c:	00003470 	.word	0x00003470
     d30:	00003468 	.word	0x00003468
     d34:	00003460 	.word	0x00003460
     d38:	000035d4 	.word	0x000035d4

00000d3c <app_error_handler_bare>:
     d3c:	b500      	push	{lr}
     d3e:	b085      	sub	sp, #20
     d40:	4603      	mov	r3, r0
     d42:	2100      	movs	r1, #0
     d44:	aa01      	add	r2, sp, #4
     d46:	f244 0001 	movw	r0, #16385	; 0x4001
     d4a:	e9cd 1101 	strd	r1, r1, [sp, #4]
     d4e:	9303      	str	r3, [sp, #12]
     d50:	f000 f804 	bl	d5c <app_error_fault_handler>
     d54:	b005      	add	sp, #20
     d56:	f85d fb04 	ldr.w	pc, [sp], #4
     d5a:	bf00      	nop

00000d5c <app_error_fault_handler>:
     d5c:	b510      	push	{r4, lr}
     d5e:	b672      	cpsid	i
     d60:	f7ff fe9e 	bl	aa0 <nrf_log_panic>
     d64:	f7ff fc8e 	bl	684 <nrf_log_frontend_dequeue>
     d68:	2800      	cmp	r0, #0
     d6a:	d1fb      	bne.n	d64 <app_error_fault_handler+0x8>
     d6c:	4b10      	ldr	r3, [pc, #64]	; (db0 <app_error_fault_handler+0x54>)
     d6e:	4c11      	ldr	r4, [pc, #68]	; (db4 <app_error_fault_handler+0x58>)
     d70:	4911      	ldr	r1, [pc, #68]	; (db8 <app_error_fault_handler+0x5c>)
     d72:	1ae4      	subs	r4, r4, r3
     d74:	08e4      	lsrs	r4, r4, #3
     d76:	0424      	lsls	r4, r4, #16
     d78:	f044 0001 	orr.w	r0, r4, #1
     d7c:	f7ff fda6 	bl	8cc <nrf_log_frontend_std_0>
     d80:	4b0e      	ldr	r3, [pc, #56]	; (dbc <app_error_fault_handler+0x60>)
     d82:	f8d3 30f0 	ldr.w	r3, [r3, #240]	; 0xf0
     d86:	07db      	lsls	r3, r3, #31
     d88:	d500      	bpl.n	d8c <app_error_fault_handler+0x30>
     d8a:	be00      	bkpt	0x0000
     d8c:	490c      	ldr	r1, [pc, #48]	; (dc0 <app_error_fault_handler+0x64>)
     d8e:	f044 0002 	orr.w	r0, r4, #2
     d92:	f7ff fd9b 	bl	8cc <nrf_log_frontend_std_0>
     d96:	f3bf 8f4f 	dsb	sy
     d9a:	4908      	ldr	r1, [pc, #32]	; (dbc <app_error_fault_handler+0x60>)
     d9c:	4b09      	ldr	r3, [pc, #36]	; (dc4 <app_error_fault_handler+0x68>)
     d9e:	68ca      	ldr	r2, [r1, #12]
     da0:	f402 62e0 	and.w	r2, r2, #1792	; 0x700
     da4:	4313      	orrs	r3, r2
     da6:	60cb      	str	r3, [r1, #12]
     da8:	f3bf 8f4f 	dsb	sy
     dac:	bf00      	nop
     dae:	e7fd      	b.n	dac <app_error_fault_handler+0x50>
     db0:	000036dc 	.word	0x000036dc
     db4:	000036fc 	.word	0x000036fc
     db8:	0000350c 	.word	0x0000350c
     dbc:	e000ed00 	.word	0xe000ed00
     dc0:	00003518 	.word	0x00003518
     dc4:	05fa0004 	.word	0x05fa0004

00000dc8 <app_util_critical_region_enter>:
     dc8:	b672      	cpsid	i
     dca:	4a02      	ldr	r2, [pc, #8]	; (dd4 <app_util_critical_region_enter+0xc>)
     dcc:	6813      	ldr	r3, [r2, #0]
     dce:	3301      	adds	r3, #1
     dd0:	6013      	str	r3, [r2, #0]
     dd2:	4770      	bx	lr
     dd4:	2000061c 	.word	0x2000061c

00000dd8 <app_util_critical_region_exit>:
     dd8:	4a03      	ldr	r2, [pc, #12]	; (de8 <app_util_critical_region_exit+0x10>)
     dda:	6813      	ldr	r3, [r2, #0]
     ddc:	3b01      	subs	r3, #1
     dde:	6013      	str	r3, [r2, #0]
     de0:	b903      	cbnz	r3, de4 <app_util_critical_region_exit+0xc>
     de2:	b662      	cpsie	i
     de4:	4770      	bx	lr
     de6:	bf00      	nop
     de8:	2000061c 	.word	0x2000061c

00000dec <nrf_atomic_u32_fetch_store>:
     dec:	4603      	mov	r3, r0
     dee:	e853 0f00 	ldrex	r0, [r3]
     df2:	460a      	mov	r2, r1
     df4:	e843 2c00 	strex	ip, r2, [r3]
     df8:	f09c 0f00 	teq	ip, #0
     dfc:	d1f7      	bne.n	dee <nrf_atomic_u32_fetch_store+0x2>
     dfe:	4770      	bx	lr

00000e00 <nrf_atomic_u32_add>:
     e00:	4603      	mov	r3, r0
     e02:	e853 2f00 	ldrex	r2, [r3]
     e06:	eb02 0001 	add.w	r0, r2, r1
     e0a:	e843 0c00 	strex	ip, r0, [r3]
     e0e:	f09c 0f00 	teq	ip, #0
     e12:	d1f6      	bne.n	e02 <nrf_atomic_u32_add+0x2>
     e14:	4770      	bx	lr
     e16:	bf00      	nop

00000e18 <nrf_atomic_u32_sub>:
     e18:	4603      	mov	r3, r0
     e1a:	e853 2f00 	ldrex	r2, [r3]
     e1e:	eba2 0001 	sub.w	r0, r2, r1
     e22:	e843 0c00 	strex	ip, r0, [r3]
     e26:	f09c 0f00 	teq	ip, #0
     e2a:	d1f6      	bne.n	e1a <nrf_atomic_u32_sub+0x2>
     e2c:	4770      	bx	lr
     e2e:	bf00      	nop

00000e30 <nrf_atomic_flag_set>:
     e30:	4603      	mov	r3, r0
     e32:	2201      	movs	r2, #1
     e34:	e853 1f00 	ldrex	r1, [r3]
     e38:	ea41 0002 	orr.w	r0, r1, r2
     e3c:	e843 0c00 	strex	ip, r0, [r3]
     e40:	f09c 0f00 	teq	ip, #0
     e44:	d1f6      	bne.n	e34 <nrf_atomic_flag_set+0x4>
     e46:	4770      	bx	lr

00000e48 <nrf_atomic_flag_clear_fetch>:
     e48:	4603      	mov	r3, r0
     e4a:	2200      	movs	r2, #0
     e4c:	e853 0f00 	ldrex	r0, [r3]
     e50:	ea00 0102 	and.w	r1, r0, r2
     e54:	e843 1c00 	strex	ip, r1, [r3]
     e58:	f09c 0f00 	teq	ip, #0
     e5c:	d1f6      	bne.n	e4c <nrf_atomic_flag_clear_fetch+0x4>
     e5e:	4770      	bx	lr

00000e60 <nrf_balloc_init>:
     e60:	b1d0      	cbz	r0, e98 <nrf_balloc_init+0x38>
     e62:	b410      	push	{r4}
     e64:	e9d0 1201 	ldrd	r1, r2, [r0, #4]
     e68:	1a52      	subs	r2, r2, r1
     e6a:	6804      	ldr	r4, [r0, #0]
     e6c:	b2d2      	uxtb	r2, r2
     e6e:	1e53      	subs	r3, r2, #1
     e70:	6021      	str	r1, [r4, #0]
     e72:	b2db      	uxtb	r3, r3
     e74:	b152      	cbz	r2, e8c <nrf_balloc_init+0x2c>
     e76:	6801      	ldr	r1, [r0, #0]
     e78:	680a      	ldr	r2, [r1, #0]
     e7a:	f103 3cff 	add.w	ip, r3, #4294967295	; 0xffffffff
     e7e:	1c54      	adds	r4, r2, #1
     e80:	600c      	str	r4, [r1, #0]
     e82:	7013      	strb	r3, [r2, #0]
     e84:	fa5f f38c 	uxtb.w	r3, ip
     e88:	2bff      	cmp	r3, #255	; 0xff
     e8a:	d1f4      	bne.n	e76 <nrf_balloc_init+0x16>
     e8c:	6803      	ldr	r3, [r0, #0]
     e8e:	2000      	movs	r0, #0
     e90:	7118      	strb	r0, [r3, #4]
     e92:	f85d 4b04 	ldr.w	r4, [sp], #4
     e96:	4770      	bx	lr
     e98:	200e      	movs	r0, #14
     e9a:	4770      	bx	lr

00000e9c <nrf_balloc_alloc>:
     e9c:	b538      	push	{r3, r4, r5, lr}
     e9e:	4604      	mov	r4, r0
     ea0:	2000      	movs	r0, #0
     ea2:	f7ff ff91 	bl	dc8 <app_util_critical_region_enter>
     ea6:	e9d4 3100 	ldrd	r3, r1, [r4]
     eaa:	681a      	ldr	r2, [r3, #0]
     eac:	428a      	cmp	r2, r1
     eae:	d915      	bls.n	edc <nrf_balloc_alloc+0x40>
     eb0:	1e51      	subs	r1, r2, #1
     eb2:	6019      	str	r1, [r3, #0]
     eb4:	6821      	ldr	r1, [r4, #0]
     eb6:	68a3      	ldr	r3, [r4, #8]
     eb8:	f812 2c01 	ldrb.w	r2, [r2, #-1]
     ebc:	8a20      	ldrh	r0, [r4, #16]
     ebe:	680d      	ldr	r5, [r1, #0]
     ec0:	68e4      	ldr	r4, [r4, #12]
     ec2:	1b5b      	subs	r3, r3, r5
     ec4:	fb00 4402 	mla	r4, r0, r2, r4
     ec8:	790a      	ldrb	r2, [r1, #4]
     eca:	b2db      	uxtb	r3, r3
     ecc:	429a      	cmp	r2, r3
     ece:	d200      	bcs.n	ed2 <nrf_balloc_alloc+0x36>
     ed0:	710b      	strb	r3, [r1, #4]
     ed2:	2000      	movs	r0, #0
     ed4:	f7ff ff80 	bl	dd8 <app_util_critical_region_exit>
     ed8:	4620      	mov	r0, r4
     eda:	bd38      	pop	{r3, r4, r5, pc}
     edc:	2400      	movs	r4, #0
     ede:	2000      	movs	r0, #0
     ee0:	f7ff ff7a 	bl	dd8 <app_util_critical_region_exit>
     ee4:	4620      	mov	r0, r4
     ee6:	bd38      	pop	{r3, r4, r5, pc}

00000ee8 <nrf_balloc_free>:
     ee8:	b538      	push	{r3, r4, r5, lr}
     eea:	4605      	mov	r5, r0
     eec:	2000      	movs	r0, #0
     eee:	460c      	mov	r4, r1
     ef0:	f7ff ff6a 	bl	dc8 <app_util_critical_region_enter>
     ef4:	682a      	ldr	r2, [r5, #0]
     ef6:	6813      	ldr	r3, [r2, #0]
     ef8:	1c59      	adds	r1, r3, #1
     efa:	6011      	str	r1, [r2, #0]
     efc:	68e9      	ldr	r1, [r5, #12]
     efe:	8a2a      	ldrh	r2, [r5, #16]
     f00:	1a64      	subs	r4, r4, r1
     f02:	fbb4 f4f2 	udiv	r4, r4, r2
     f06:	701c      	strb	r4, [r3, #0]
     f08:	e8bd 4038 	ldmia.w	sp!, {r3, r4, r5, lr}
     f0c:	2000      	movs	r0, #0
     f0e:	f7ff bf63 	b.w	dd8 <app_util_critical_region_exit>
     f12:	bf00      	nop

00000f14 <nrf_fprintf_buffer_flush>:
     f14:	6882      	ldr	r2, [r0, #8]
     f16:	b142      	cbz	r2, f2a <nrf_fprintf_buffer_flush+0x16>
     f18:	b510      	push	{r4, lr}
     f1a:	4604      	mov	r4, r0
     f1c:	6943      	ldr	r3, [r0, #20]
     f1e:	6801      	ldr	r1, [r0, #0]
     f20:	6900      	ldr	r0, [r0, #16]
     f22:	4798      	blx	r3
     f24:	2300      	movs	r3, #0
     f26:	60a3      	str	r3, [r4, #8]
     f28:	bd10      	pop	{r4, pc}
     f2a:	4770      	bx	lr

00000f2c <nrf_fprintf>:
     f2c:	b40e      	push	{r1, r2, r3}
     f2e:	b500      	push	{lr}
     f30:	b082      	sub	sp, #8
     f32:	9903      	ldr	r1, [sp, #12]
     f34:	b121      	cbz	r1, f40 <nrf_fprintf+0x14>
     f36:	ab04      	add	r3, sp, #16
     f38:	aa01      	add	r2, sp, #4
     f3a:	9301      	str	r3, [sp, #4]
     f3c:	f000 f8b6 	bl	10ac <nrf_fprintf_fmt>
     f40:	b002      	add	sp, #8
     f42:	f85d eb04 	ldr.w	lr, [sp], #4
     f46:	b003      	add	sp, #12
     f48:	4770      	bx	lr
     f4a:	bf00      	nop

00000f4c <unsigned_print>:
     f4c:	e92d 4ff0 	stmdb	sp!, {r4, r5, r6, r7, r8, r9, sl, fp, lr}
     f50:	4615      	mov	r5, r2
     f52:	b083      	sub	sp, #12
     f54:	42a9      	cmp	r1, r5
     f56:	f8dd 9030 	ldr.w	r9, [sp, #48]	; 0x30
     f5a:	9a0d      	ldr	r2, [sp, #52]	; 0x34
     f5c:	460f      	mov	r7, r1
     f5e:	4606      	mov	r6, r0
     f60:	469a      	mov	sl, r3
     f62:	f0c0 809e 	bcc.w	10a2 <unsigned_print+0x156>
     f66:	460b      	mov	r3, r1
     f68:	f04f 0801 	mov.w	r8, #1
     f6c:	fbb3 f3f5 	udiv	r3, r3, r5
     f70:	429d      	cmp	r5, r3
     f72:	f108 0801 	add.w	r8, r8, #1
     f76:	d9f9      	bls.n	f6c <unsigned_print+0x20>
     f78:	45d0      	cmp	r8, sl
     f7a:	bf38      	it	cc
     f7c:	46d0      	movcc	r8, sl
     f7e:	f012 0301 	ands.w	r3, r2, #1
     f82:	9301      	str	r3, [sp, #4]
     f84:	d102      	bne.n	f8c <unsigned_print+0x40>
     f86:	f1b9 0f00 	cmp.w	r9, #0
     f8a:	d167      	bne.n	105c <unsigned_print+0x110>
     f8c:	68b2      	ldr	r2, [r6, #8]
     f8e:	f1ba 0f01 	cmp.w	sl, #1
     f92:	f04f 0401 	mov.w	r4, #1
     f96:	d906      	bls.n	fa6 <unsigned_print+0x5a>
     f98:	f10a 3aff 	add.w	sl, sl, #4294967295	; 0xffffffff
     f9c:	f1ba 0f01 	cmp.w	sl, #1
     fa0:	fb05 f404 	mul.w	r4, r5, r4
     fa4:	d8f8      	bhi.n	f98 <unsigned_print+0x4c>
     fa6:	fbb7 f3f4 	udiv	r3, r7, r4
     faa:	429d      	cmp	r5, r3
     fac:	d805      	bhi.n	fba <unsigned_print+0x6e>
     fae:	fb05 f404 	mul.w	r4, r5, r4
     fb2:	fbb7 f3f4 	udiv	r3, r7, r4
     fb6:	429d      	cmp	r5, r3
     fb8:	d9f9      	bls.n	fae <unsigned_print+0x62>
     fba:	f8df a0ec 	ldr.w	sl, [pc, #236]	; 10a8 <unsigned_print+0x15c>
     fbe:	e007      	b.n	fd0 <unsigned_print+0x84>
     fc0:	42ac      	cmp	r4, r5
     fc2:	fbb4 f3f5 	udiv	r3, r4, r5
     fc6:	d31a      	bcc.n	ffe <unsigned_print+0xb2>
     fc8:	68b2      	ldr	r2, [r6, #8]
     fca:	461c      	mov	r4, r3
     fcc:	fbb7 f3f3 	udiv	r3, r7, r3
     fd0:	f81a b003 	ldrb.w	fp, [sl, r3]
     fd4:	f1bb 0f0a 	cmp.w	fp, #10
     fd8:	fb04 7713 	mls	r7, r4, r3, r7
     fdc:	d028      	beq.n	1030 <unsigned_print+0xe4>
     fde:	6833      	ldr	r3, [r6, #0]
     fe0:	1c51      	adds	r1, r2, #1
     fe2:	60b1      	str	r1, [r6, #8]
     fe4:	f803 b002 	strb.w	fp, [r3, r2]
     fe8:	e9d6 3201 	ldrd	r3, r2, [r6, #4]
     fec:	429a      	cmp	r2, r3
     fee:	d3e7      	bcc.n	fc0 <unsigned_print+0x74>
     ff0:	4630      	mov	r0, r6
     ff2:	f7ff ff8f 	bl	f14 <nrf_fprintf_buffer_flush>
     ff6:	fbb4 f3f5 	udiv	r3, r4, r5
     ffa:	42ac      	cmp	r4, r5
     ffc:	d2e4      	bcs.n	fc8 <unsigned_print+0x7c>
     ffe:	9b01      	ldr	r3, [sp, #4]
    1000:	b19b      	cbz	r3, 102a <unsigned_print+0xde>
    1002:	f1b9 0f00 	cmp.w	r9, #0
    1006:	d010      	beq.n	102a <unsigned_print+0xde>
    1008:	2420      	movs	r4, #32
    100a:	45c8      	cmp	r8, r9
    100c:	f109 39ff 	add.w	r9, r9, #4294967295	; 0xffffffff
    1010:	d20b      	bcs.n	102a <unsigned_print+0xde>
    1012:	68b3      	ldr	r3, [r6, #8]
    1014:	6832      	ldr	r2, [r6, #0]
    1016:	1c59      	adds	r1, r3, #1
    1018:	60b1      	str	r1, [r6, #8]
    101a:	54d4      	strb	r4, [r2, r3]
    101c:	e9d6 3201 	ldrd	r3, r2, [r6, #4]
    1020:	429a      	cmp	r2, r3
    1022:	d214      	bcs.n	104e <unsigned_print+0x102>
    1024:	f1b9 0f00 	cmp.w	r9, #0
    1028:	d1ef      	bne.n	100a <unsigned_print+0xbe>
    102a:	b003      	add	sp, #12
    102c:	e8bd 8ff0 	ldmia.w	sp!, {r4, r5, r6, r7, r8, r9, sl, fp, pc}
    1030:	1c51      	adds	r1, r2, #1
    1032:	6833      	ldr	r3, [r6, #0]
    1034:	60b1      	str	r1, [r6, #8]
    1036:	f04f 010d 	mov.w	r1, #13
    103a:	5499      	strb	r1, [r3, r2]
    103c:	e9d6 3201 	ldrd	r3, r2, [r6, #4]
    1040:	429a      	cmp	r2, r3
    1042:	d3cc      	bcc.n	fde <unsigned_print+0x92>
    1044:	4630      	mov	r0, r6
    1046:	f7ff ff65 	bl	f14 <nrf_fprintf_buffer_flush>
    104a:	68b2      	ldr	r2, [r6, #8]
    104c:	e7c7      	b.n	fde <unsigned_print+0x92>
    104e:	4630      	mov	r0, r6
    1050:	f7ff ff60 	bl	f14 <nrf_fprintf_buffer_flush>
    1054:	f1b9 0f00 	cmp.w	r9, #0
    1058:	d1d7      	bne.n	100a <unsigned_print+0xbe>
    105a:	e7e6      	b.n	102a <unsigned_print+0xde>
    105c:	0793      	lsls	r3, r2, #30
    105e:	d41a      	bmi.n	1096 <unsigned_print+0x14a>
    1060:	2420      	movs	r4, #32
    1062:	68b2      	ldr	r2, [r6, #8]
    1064:	45c8      	cmp	r8, r9
    1066:	f102 0101 	add.w	r1, r2, #1
    106a:	d290      	bcs.n	f8e <unsigned_print+0x42>
    106c:	6833      	ldr	r3, [r6, #0]
    106e:	60b1      	str	r1, [r6, #8]
    1070:	549c      	strb	r4, [r3, r2]
    1072:	e9d6 3201 	ldrd	r3, r2, [r6, #4]
    1076:	429a      	cmp	r2, r3
    1078:	f109 39ff 	add.w	r9, r9, #4294967295	; 0xffffffff
    107c:	d203      	bcs.n	1086 <unsigned_print+0x13a>
    107e:	f1b9 0f00 	cmp.w	r9, #0
    1082:	d1ef      	bne.n	1064 <unsigned_print+0x118>
    1084:	e783      	b.n	f8e <unsigned_print+0x42>
    1086:	4630      	mov	r0, r6
    1088:	f7ff ff44 	bl	f14 <nrf_fprintf_buffer_flush>
    108c:	68b2      	ldr	r2, [r6, #8]
    108e:	f1b9 0f00 	cmp.w	r9, #0
    1092:	d1e7      	bne.n	1064 <unsigned_print+0x118>
    1094:	e77b      	b.n	f8e <unsigned_print+0x42>
    1096:	f1ba 0f00 	cmp.w	sl, #0
    109a:	bf0c      	ite	eq
    109c:	2430      	moveq	r4, #48	; 0x30
    109e:	2420      	movne	r4, #32
    10a0:	e7df      	b.n	1062 <unsigned_print+0x116>
    10a2:	f04f 0801 	mov.w	r8, #1
    10a6:	e767      	b.n	f78 <unsigned_print+0x2c>
    10a8:	00003528 	.word	0x00003528

000010ac <nrf_fprintf_fmt>:
    10ac:	2900      	cmp	r1, #0
    10ae:	f000 825f 	beq.w	1570 <nrf_fprintf_fmt+0x4c4>
    10b2:	e92d 4ff0 	stmdb	sp!, {r4, r5, r6, r7, r8, r9, sl, fp, lr}
    10b6:	f8df 954c 	ldr.w	r9, [pc, #1356]	; 1604 <nrf_fprintf_fmt+0x558>
    10ba:	780d      	ldrb	r5, [r1, #0]
    10bc:	b085      	sub	sp, #20
    10be:	4606      	mov	r6, r0
    10c0:	4690      	mov	r8, r2
    10c2:	460c      	mov	r4, r1
    10c4:	f04f 0a0d 	mov.w	sl, #13
    10c8:	e00f      	b.n	10ea <nrf_fprintf_fmt+0x3e>
    10ca:	2d0a      	cmp	r5, #10
    10cc:	68b3      	ldr	r3, [r6, #8]
    10ce:	f000 8090 	beq.w	11f2 <nrf_fprintf_fmt+0x146>
    10d2:	6832      	ldr	r2, [r6, #0]
    10d4:	1c59      	adds	r1, r3, #1
    10d6:	60b1      	str	r1, [r6, #8]
    10d8:	54d5      	strb	r5, [r2, r3]
    10da:	e9d6 3201 	ldrd	r3, r2, [r6, #4]
    10de:	429a      	cmp	r2, r3
    10e0:	f080 8083 	bcs.w	11ea <nrf_fprintf_fmt+0x13e>
    10e4:	7825      	ldrb	r5, [r4, #0]
    10e6:	2d00      	cmp	r5, #0
    10e8:	d06a      	beq.n	11c0 <nrf_fprintf_fmt+0x114>
    10ea:	3401      	adds	r4, #1
    10ec:	2d00      	cmp	r5, #0
    10ee:	d067      	beq.n	11c0 <nrf_fprintf_fmt+0x114>
    10f0:	2d25      	cmp	r5, #37	; 0x25
    10f2:	d1ea      	bne.n	10ca <nrf_fprintf_fmt+0x1e>
    10f4:	4621      	mov	r1, r4
    10f6:	2700      	movs	r7, #0
    10f8:	780a      	ldrb	r2, [r1, #0]
    10fa:	2a2d      	cmp	r2, #45	; 0x2d
    10fc:	460d      	mov	r5, r1
    10fe:	f101 0101 	add.w	r1, r1, #1
    1102:	d06c      	beq.n	11de <nrf_fprintf_fmt+0x132>
    1104:	2a30      	cmp	r2, #48	; 0x30
    1106:	d06d      	beq.n	11e4 <nrf_fprintf_fmt+0x138>
    1108:	2a2b      	cmp	r2, #43	; 0x2b
    110a:	d060      	beq.n	11ce <nrf_fprintf_fmt+0x122>
    110c:	2a2a      	cmp	r2, #42	; 0x2a
    110e:	d07f      	beq.n	1210 <nrf_fprintf_fmt+0x164>
    1110:	f1a2 0330 	sub.w	r3, r2, #48	; 0x30
    1114:	2b09      	cmp	r3, #9
    1116:	f04f 0400 	mov.w	r4, #0
    111a:	d80b      	bhi.n	1134 <nrf_fprintf_fmt+0x88>
    111c:	eb04 0484 	add.w	r4, r4, r4, lsl #2
    1120:	eb02 0444 	add.w	r4, r2, r4, lsl #1
    1124:	f815 2f01 	ldrb.w	r2, [r5, #1]!
    1128:	f1a2 0330 	sub.w	r3, r2, #48	; 0x30
    112c:	2b09      	cmp	r3, #9
    112e:	f1a4 0430 	sub.w	r4, r4, #48	; 0x30
    1132:	d9f3      	bls.n	111c <nrf_fprintf_fmt+0x70>
    1134:	2a2e      	cmp	r2, #46	; 0x2e
    1136:	d075      	beq.n	1224 <nrf_fprintf_fmt+0x178>
    1138:	2300      	movs	r3, #0
    113a:	e001      	b.n	1140 <nrf_fprintf_fmt+0x94>
    113c:	f815 2f01 	ldrb.w	r2, [r5, #1]!
    1140:	f002 01fb 	and.w	r1, r2, #251	; 0xfb
    1144:	2968      	cmp	r1, #104	; 0x68
    1146:	d0f9      	beq.n	113c <nrf_fprintf_fmt+0x90>
    1148:	2a25      	cmp	r2, #37	; 0x25
    114a:	f000 8197 	beq.w	147c <nrf_fprintf_fmt+0x3d0>
    114e:	3a58      	subs	r2, #88	; 0x58
    1150:	b2d1      	uxtb	r1, r2
    1152:	2920      	cmp	r1, #32
    1154:	d830      	bhi.n	11b8 <nrf_fprintf_fmt+0x10c>
    1156:	2a20      	cmp	r2, #32
    1158:	d82e      	bhi.n	11b8 <nrf_fprintf_fmt+0x10c>
    115a:	e8df f012 	tbh	[pc, r2, lsl #1]
    115e:	0021      	.short	0x0021
    1160:	002d002d 	.word	0x002d002d
    1164:	002d002d 	.word	0x002d002d
    1168:	002d002d 	.word	0x002d002d
    116c:	002d002d 	.word	0x002d002d
    1170:	002d002d 	.word	0x002d002d
    1174:	0079010f 	.word	0x0079010f
    1178:	002d002d 	.word	0x002d002d
    117c:	002d002d 	.word	0x002d002d
    1180:	002d0079 	.word	0x002d0079
    1184:	002d002d 	.word	0x002d002d
    1188:	002d002d 	.word	0x002d002d
    118c:	00ce002d 	.word	0x00ce002d
    1190:	002d002d 	.word	0x002d002d
    1194:	002d012b 	.word	0x002d012b
    1198:	002d0127 	.word	0x002d0127
    119c:	0021002d 	.word	0x0021002d
    11a0:	f8d8 1000 	ldr.w	r1, [r8]
    11a4:	2210      	movs	r2, #16
    11a6:	1d08      	adds	r0, r1, #4
    11a8:	f8c8 0000 	str.w	r0, [r8]
    11ac:	6809      	ldr	r1, [r1, #0]
    11ae:	4630      	mov	r0, r6
    11b0:	e9cd 4700 	strd	r4, r7, [sp]
    11b4:	f7ff feca 	bl	f4c <unsigned_print>
    11b8:	1c6c      	adds	r4, r5, #1
    11ba:	7825      	ldrb	r5, [r4, #0]
    11bc:	2d00      	cmp	r5, #0
    11be:	d194      	bne.n	10ea <nrf_fprintf_fmt+0x3e>
    11c0:	7b33      	ldrb	r3, [r6, #12]
    11c2:	2b00      	cmp	r3, #0
    11c4:	f040 8154 	bne.w	1470 <nrf_fprintf_fmt+0x3c4>
    11c8:	b005      	add	sp, #20
    11ca:	e8bd 8ff0 	ldmia.w	sp!, {r4, r5, r6, r7, r8, r9, sl, fp, pc}
    11ce:	780a      	ldrb	r2, [r1, #0]
    11d0:	2a2d      	cmp	r2, #45	; 0x2d
    11d2:	460d      	mov	r5, r1
    11d4:	f047 0704 	orr.w	r7, r7, #4
    11d8:	f101 0101 	add.w	r1, r1, #1
    11dc:	d192      	bne.n	1104 <nrf_fprintf_fmt+0x58>
    11de:	f047 0701 	orr.w	r7, r7, #1
    11e2:	e789      	b.n	10f8 <nrf_fprintf_fmt+0x4c>
    11e4:	f047 0702 	orr.w	r7, r7, #2
    11e8:	e786      	b.n	10f8 <nrf_fprintf_fmt+0x4c>
    11ea:	4630      	mov	r0, r6
    11ec:	f7ff fe92 	bl	f14 <nrf_fprintf_buffer_flush>
    11f0:	e778      	b.n	10e4 <nrf_fprintf_fmt+0x38>
    11f2:	6832      	ldr	r2, [r6, #0]
    11f4:	1c59      	adds	r1, r3, #1
    11f6:	60b1      	str	r1, [r6, #8]
    11f8:	f802 a003 	strb.w	sl, [r2, r3]
    11fc:	e9d6 2301 	ldrd	r2, r3, [r6, #4]
    1200:	4293      	cmp	r3, r2
    1202:	f4ff af66 	bcc.w	10d2 <nrf_fprintf_fmt+0x26>
    1206:	4630      	mov	r0, r6
    1208:	f7ff fe84 	bl	f14 <nrf_fprintf_buffer_flush>
    120c:	68b3      	ldr	r3, [r6, #8]
    120e:	e760      	b.n	10d2 <nrf_fprintf_fmt+0x26>
    1210:	f8d8 3000 	ldr.w	r3, [r8]
    1214:	1d1a      	adds	r2, r3, #4
    1216:	f8c8 2000 	str.w	r2, [r8]
    121a:	786a      	ldrb	r2, [r5, #1]
    121c:	681c      	ldr	r4, [r3, #0]
    121e:	2a2e      	cmp	r2, #46	; 0x2e
    1220:	460d      	mov	r5, r1
    1222:	d189      	bne.n	1138 <nrf_fprintf_fmt+0x8c>
    1224:	786a      	ldrb	r2, [r5, #1]
    1226:	f1a2 0330 	sub.w	r3, r2, #48	; 0x30
    122a:	2b09      	cmp	r3, #9
    122c:	f105 0501 	add.w	r5, r5, #1
    1230:	f04f 0300 	mov.w	r3, #0
    1234:	d884      	bhi.n	1140 <nrf_fprintf_fmt+0x94>
    1236:	eb03 0383 	add.w	r3, r3, r3, lsl #2
    123a:	eb02 0343 	add.w	r3, r2, r3, lsl #1
    123e:	f815 2f01 	ldrb.w	r2, [r5, #1]!
    1242:	f1a2 0130 	sub.w	r1, r2, #48	; 0x30
    1246:	2909      	cmp	r1, #9
    1248:	f1a3 0330 	sub.w	r3, r3, #48	; 0x30
    124c:	d9f3      	bls.n	1236 <nrf_fprintf_fmt+0x18a>
    124e:	e777      	b.n	1140 <nrf_fprintf_fmt+0x94>
    1250:	f8d8 2000 	ldr.w	r2, [r8]
    1254:	1d11      	adds	r1, r2, #4
    1256:	f8c8 1000 	str.w	r1, [r8]
    125a:	f8d2 b000 	ldr.w	fp, [r2]
    125e:	ea8b 72eb 	eor.w	r2, fp, fp, asr #31
    1262:	eba2 72eb 	sub.w	r2, r2, fp, asr #31
    1266:	2a09      	cmp	r2, #9
    1268:	f340 81c7 	ble.w	15fa <nrf_fprintf_fmt+0x54e>
    126c:	f8df c398 	ldr.w	ip, [pc, #920]	; 1608 <nrf_fprintf_fmt+0x55c>
    1270:	2001      	movs	r0, #1
    1272:	4611      	mov	r1, r2
    1274:	2963      	cmp	r1, #99	; 0x63
    1276:	fbac e202 	umull	lr, r2, ip, r2
    127a:	f100 0001 	add.w	r0, r0, #1
    127e:	ea4f 02d2 	mov.w	r2, r2, lsr #3
    1282:	dcf6      	bgt.n	1272 <nrf_fprintf_fmt+0x1c6>
    1284:	4298      	cmp	r0, r3
    1286:	4602      	mov	r2, r0
    1288:	bf38      	it	cc
    128a:	461a      	movcc	r2, r3
    128c:	9202      	str	r2, [sp, #8]
    128e:	b1fc      	cbz	r4, 12d0 <nrf_fprintf_fmt+0x224>
    1290:	f1bb 0f00 	cmp.w	fp, #0
    1294:	f2c0 814a 	blt.w	152c <nrf_fprintf_fmt+0x480>
    1298:	077a      	lsls	r2, r7, #29
    129a:	f100 8147 	bmi.w	152c <nrf_fprintf_fmt+0x480>
    129e:	07b8      	lsls	r0, r7, #30
    12a0:	d500      	bpl.n	12a4 <nrf_fprintf_fmt+0x1f8>
    12a2:	b1ab      	cbz	r3, 12d0 <nrf_fprintf_fmt+0x224>
    12a4:	07f9      	lsls	r1, r7, #31
    12a6:	d413      	bmi.n	12d0 <nrf_fprintf_fmt+0x224>
    12a8:	b18c      	cbz	r4, 12ce <nrf_fprintf_fmt+0x222>
    12aa:	2220      	movs	r2, #32
    12ac:	9902      	ldr	r1, [sp, #8]
    12ae:	42a1      	cmp	r1, r4
    12b0:	d20e      	bcs.n	12d0 <nrf_fprintf_fmt+0x224>
    12b2:	68b1      	ldr	r1, [r6, #8]
    12b4:	1c48      	adds	r0, r1, #1
    12b6:	60b0      	str	r0, [r6, #8]
    12b8:	6830      	ldr	r0, [r6, #0]
    12ba:	5442      	strb	r2, [r0, r1]
    12bc:	e9d6 0101 	ldrd	r0, r1, [r6, #4]
    12c0:	4281      	cmp	r1, r0
    12c2:	f104 34ff 	add.w	r4, r4, #4294967295	; 0xffffffff
    12c6:	f080 818a 	bcs.w	15de <nrf_fprintf_fmt+0x532>
    12ca:	2c00      	cmp	r4, #0
    12cc:	d1ee      	bne.n	12ac <nrf_fprintf_fmt+0x200>
    12ce:	2400      	movs	r4, #0
    12d0:	f1bb 0f00 	cmp.w	fp, #0
    12d4:	f2c0 8117 	blt.w	1506 <nrf_fprintf_fmt+0x45a>
    12d8:	077a      	lsls	r2, r7, #29
    12da:	f100 816b 	bmi.w	15b4 <nrf_fprintf_fmt+0x508>
    12de:	f007 0203 	and.w	r2, r7, #3
    12e2:	2a02      	cmp	r2, #2
    12e4:	f000 814e 	beq.w	1584 <nrf_fprintf_fmt+0x4d8>
    12e8:	e9cd 4700 	strd	r4, r7, [sp]
    12ec:	4659      	mov	r1, fp
    12ee:	220a      	movs	r2, #10
    12f0:	4630      	mov	r0, r6
    12f2:	f7ff fe2b 	bl	f4c <unsigned_print>
    12f6:	1c6c      	adds	r4, r5, #1
    12f8:	e75f      	b.n	11ba <nrf_fprintf_fmt+0x10e>
    12fa:	f8d8 3000 	ldr.w	r3, [r8]
    12fe:	1d1a      	adds	r2, r3, #4
    1300:	f8c8 2000 	str.w	r2, [r8]
    1304:	681f      	ldr	r7, [r3, #0]
    1306:	68b3      	ldr	r3, [r6, #8]
    1308:	6832      	ldr	r2, [r6, #0]
    130a:	1c58      	adds	r0, r3, #1
    130c:	2130      	movs	r1, #48	; 0x30
    130e:	60b0      	str	r0, [r6, #8]
    1310:	54d1      	strb	r1, [r2, r3]
    1312:	e9d6 2301 	ldrd	r2, r3, [r6, #4]
    1316:	4293      	cmp	r3, r2
    1318:	f080 80f0 	bcs.w	14fc <nrf_fprintf_fmt+0x450>
    131c:	1c59      	adds	r1, r3, #1
    131e:	6832      	ldr	r2, [r6, #0]
    1320:	60b1      	str	r1, [r6, #8]
    1322:	2178      	movs	r1, #120	; 0x78
    1324:	54d1      	strb	r1, [r2, r3]
    1326:	e9d6 3201 	ldrd	r3, r2, [r6, #4]
    132a:	429a      	cmp	r2, r3
    132c:	f080 80e1 	bcs.w	14f2 <nrf_fprintf_fmt+0x446>
    1330:	2f0f      	cmp	r7, #15
    1332:	d903      	bls.n	133c <nrf_fprintf_fmt+0x290>
    1334:	463b      	mov	r3, r7
    1336:	091b      	lsrs	r3, r3, #4
    1338:	2b0f      	cmp	r3, #15
    133a:	d8fc      	bhi.n	1336 <nrf_fprintf_fmt+0x28a>
    133c:	f04f 5480 	mov.w	r4, #268435456	; 0x10000000
    1340:	e006      	b.n	1350 <nrf_fprintf_fmt+0x2a4>
    1342:	2c0f      	cmp	r4, #15
    1344:	ea4f 1314 	mov.w	r3, r4, lsr #4
    1348:	f67f af36 	bls.w	11b8 <nrf_fprintf_fmt+0x10c>
    134c:	68b2      	ldr	r2, [r6, #8]
    134e:	461c      	mov	r4, r3
    1350:	fbb7 f3f4 	udiv	r3, r7, r4
    1354:	f819 b003 	ldrb.w	fp, [r9, r3]
    1358:	f1bb 0f0a 	cmp.w	fp, #10
    135c:	fb04 7713 	mls	r7, r4, r3, r7
    1360:	d077      	beq.n	1452 <nrf_fprintf_fmt+0x3a6>
    1362:	6833      	ldr	r3, [r6, #0]
    1364:	1c51      	adds	r1, r2, #1
    1366:	60b1      	str	r1, [r6, #8]
    1368:	f803 b002 	strb.w	fp, [r3, r2]
    136c:	e9d6 3201 	ldrd	r3, r2, [r6, #4]
    1370:	429a      	cmp	r2, r3
    1372:	d3e6      	bcc.n	1342 <nrf_fprintf_fmt+0x296>
    1374:	4630      	mov	r0, r6
    1376:	f7ff fdcd 	bl	f14 <nrf_fprintf_buffer_flush>
    137a:	e7e2      	b.n	1342 <nrf_fprintf_fmt+0x296>
    137c:	f8d8 3000 	ldr.w	r3, [r8]
    1380:	1d1a      	adds	r2, r3, #4
    1382:	f8c8 2000 	str.w	r2, [r8]
    1386:	781c      	ldrb	r4, [r3, #0]
    1388:	68b3      	ldr	r3, [r6, #8]
    138a:	2c0a      	cmp	r4, #10
    138c:	f000 8118 	beq.w	15c0 <nrf_fprintf_fmt+0x514>
    1390:	6832      	ldr	r2, [r6, #0]
    1392:	1c59      	adds	r1, r3, #1
    1394:	60b1      	str	r1, [r6, #8]
    1396:	54d4      	strb	r4, [r2, r3]
    1398:	e9d6 3201 	ldrd	r3, r2, [r6, #4]
    139c:	429a      	cmp	r2, r3
    139e:	f4ff af0b 	bcc.w	11b8 <nrf_fprintf_fmt+0x10c>
    13a2:	4630      	mov	r0, r6
    13a4:	f7ff fdb6 	bl	f14 <nrf_fprintf_buffer_flush>
    13a8:	1c6c      	adds	r4, r5, #1
    13aa:	e706      	b.n	11ba <nrf_fprintf_fmt+0x10e>
    13ac:	f8d8 1000 	ldr.w	r1, [r8]
    13b0:	220a      	movs	r2, #10
    13b2:	e6f8      	b.n	11a6 <nrf_fprintf_fmt+0xfa>
    13b4:	f8d8 3000 	ldr.w	r3, [r8]
    13b8:	1d1a      	adds	r2, r3, #4
    13ba:	f8c8 2000 	str.w	r2, [r8]
    13be:	f017 0701 	ands.w	r7, r7, #1
    13c2:	f8d3 b000 	ldr.w	fp, [r3]
    13c6:	d164      	bne.n	1492 <nrf_fprintf_fmt+0x3e6>
    13c8:	f1bb 0f00 	cmp.w	fp, #0
    13cc:	d003      	beq.n	13d6 <nrf_fprintf_fmt+0x32a>
    13ce:	4658      	mov	r0, fp
    13d0:	f001 ff2a 	bl	3228 <strlen>
    13d4:	4607      	mov	r7, r0
    13d6:	42bc      	cmp	r4, r7
    13d8:	d915      	bls.n	1406 <nrf_fprintf_fmt+0x35a>
    13da:	2220      	movs	r2, #32
    13dc:	e001      	b.n	13e2 <nrf_fprintf_fmt+0x336>
    13de:	42bc      	cmp	r4, r7
    13e0:	d011      	beq.n	1406 <nrf_fprintf_fmt+0x35a>
    13e2:	68b1      	ldr	r1, [r6, #8]
    13e4:	6833      	ldr	r3, [r6, #0]
    13e6:	1c48      	adds	r0, r1, #1
    13e8:	60b0      	str	r0, [r6, #8]
    13ea:	545a      	strb	r2, [r3, r1]
    13ec:	e9d6 3001 	ldrd	r3, r0, [r6, #4]
    13f0:	4298      	cmp	r0, r3
    13f2:	f104 34ff 	add.w	r4, r4, #4294967295	; 0xffffffff
    13f6:	d3f2      	bcc.n	13de <nrf_fprintf_fmt+0x332>
    13f8:	4630      	mov	r0, r6
    13fa:	f7ff fd8b 	bl	f14 <nrf_fprintf_buffer_flush>
    13fe:	42bc      	cmp	r4, r7
    1400:	f04f 0220 	mov.w	r2, #32
    1404:	d1ed      	bne.n	13e2 <nrf_fprintf_fmt+0x336>
    1406:	f89b 4000 	ldrb.w	r4, [fp]
    140a:	2c00      	cmp	r4, #0
    140c:	f43f aed4 	beq.w	11b8 <nrf_fprintf_fmt+0x10c>
    1410:	2c0a      	cmp	r4, #10
    1412:	68b0      	ldr	r0, [r6, #8]
    1414:	d00f      	beq.n	1436 <nrf_fprintf_fmt+0x38a>
    1416:	6833      	ldr	r3, [r6, #0]
    1418:	1c42      	adds	r2, r0, #1
    141a:	60b2      	str	r2, [r6, #8]
    141c:	541c      	strb	r4, [r3, r0]
    141e:	e9d6 3001 	ldrd	r3, r0, [r6, #4]
    1422:	4298      	cmp	r0, r3
    1424:	f080 80a5 	bcs.w	1572 <nrf_fprintf_fmt+0x4c6>
    1428:	f81b 4f01 	ldrb.w	r4, [fp, #1]!
    142c:	2c00      	cmp	r4, #0
    142e:	f43f aec3 	beq.w	11b8 <nrf_fprintf_fmt+0x10c>
    1432:	2c0a      	cmp	r4, #10
    1434:	d1ef      	bne.n	1416 <nrf_fprintf_fmt+0x36a>
    1436:	6833      	ldr	r3, [r6, #0]
    1438:	1c42      	adds	r2, r0, #1
    143a:	60b2      	str	r2, [r6, #8]
    143c:	f803 a000 	strb.w	sl, [r3, r0]
    1440:	e9d6 3001 	ldrd	r3, r0, [r6, #4]
    1444:	4298      	cmp	r0, r3
    1446:	d3e6      	bcc.n	1416 <nrf_fprintf_fmt+0x36a>
    1448:	4630      	mov	r0, r6
    144a:	f7ff fd63 	bl	f14 <nrf_fprintf_buffer_flush>
    144e:	68b0      	ldr	r0, [r6, #8]
    1450:	e7e1      	b.n	1416 <nrf_fprintf_fmt+0x36a>
    1452:	6833      	ldr	r3, [r6, #0]
    1454:	1c51      	adds	r1, r2, #1
    1456:	60b1      	str	r1, [r6, #8]
    1458:	f803 a002 	strb.w	sl, [r3, r2]
    145c:	e9d6 3201 	ldrd	r3, r2, [r6, #4]
    1460:	429a      	cmp	r2, r3
    1462:	f4ff af7e 	bcc.w	1362 <nrf_fprintf_fmt+0x2b6>
    1466:	4630      	mov	r0, r6
    1468:	f7ff fd54 	bl	f14 <nrf_fprintf_buffer_flush>
    146c:	68b2      	ldr	r2, [r6, #8]
    146e:	e778      	b.n	1362 <nrf_fprintf_fmt+0x2b6>
    1470:	4630      	mov	r0, r6
    1472:	b005      	add	sp, #20
    1474:	e8bd 4ff0 	ldmia.w	sp!, {r4, r5, r6, r7, r8, r9, sl, fp, lr}
    1478:	f7ff bd4c 	b.w	f14 <nrf_fprintf_buffer_flush>
    147c:	68b3      	ldr	r3, [r6, #8]
    147e:	6831      	ldr	r1, [r6, #0]
    1480:	1c58      	adds	r0, r3, #1
    1482:	60b0      	str	r0, [r6, #8]
    1484:	54ca      	strb	r2, [r1, r3]
    1486:	e9d6 3201 	ldrd	r3, r2, [r6, #4]
    148a:	429a      	cmp	r2, r3
    148c:	d289      	bcs.n	13a2 <nrf_fprintf_fmt+0x2f6>
    148e:	1c6c      	adds	r4, r5, #1
    1490:	e693      	b.n	11ba <nrf_fprintf_fmt+0x10e>
    1492:	f89b 3000 	ldrb.w	r3, [fp]
    1496:	2b00      	cmp	r3, #0
    1498:	f000 80b1 	beq.w	15fe <nrf_fprintf_fmt+0x552>
    149c:	68b0      	ldr	r0, [r6, #8]
    149e:	465f      	mov	r7, fp
    14a0:	f1cb 0201 	rsb	r2, fp, #1
    14a4:	2b0a      	cmp	r3, #10
    14a6:	eb02 0b07 	add.w	fp, r2, r7
    14aa:	d04f      	beq.n	154c <nrf_fprintf_fmt+0x4a0>
    14ac:	1c41      	adds	r1, r0, #1
    14ae:	60b1      	str	r1, [r6, #8]
    14b0:	6831      	ldr	r1, [r6, #0]
    14b2:	540b      	strb	r3, [r1, r0]
    14b4:	e9d6 3001 	ldrd	r3, r0, [r6, #4]
    14b8:	4298      	cmp	r0, r3
    14ba:	d239      	bcs.n	1530 <nrf_fprintf_fmt+0x484>
    14bc:	f817 3f01 	ldrb.w	r3, [r7, #1]!
    14c0:	2b00      	cmp	r3, #0
    14c2:	d1ef      	bne.n	14a4 <nrf_fprintf_fmt+0x3f8>
    14c4:	455c      	cmp	r4, fp
    14c6:	f67f ae77 	bls.w	11b8 <nrf_fprintf_fmt+0x10c>
    14ca:	2720      	movs	r7, #32
    14cc:	e002      	b.n	14d4 <nrf_fprintf_fmt+0x428>
    14ce:	455c      	cmp	r4, fp
    14d0:	f43f ae72 	beq.w	11b8 <nrf_fprintf_fmt+0x10c>
    14d4:	68b2      	ldr	r2, [r6, #8]
    14d6:	6833      	ldr	r3, [r6, #0]
    14d8:	1c51      	adds	r1, r2, #1
    14da:	60b1      	str	r1, [r6, #8]
    14dc:	549f      	strb	r7, [r3, r2]
    14de:	e9d6 3201 	ldrd	r3, r2, [r6, #4]
    14e2:	429a      	cmp	r2, r3
    14e4:	f104 34ff 	add.w	r4, r4, #4294967295	; 0xffffffff
    14e8:	d3f1      	bcc.n	14ce <nrf_fprintf_fmt+0x422>
    14ea:	4630      	mov	r0, r6
    14ec:	f7ff fd12 	bl	f14 <nrf_fprintf_buffer_flush>
    14f0:	e7ed      	b.n	14ce <nrf_fprintf_fmt+0x422>
    14f2:	4630      	mov	r0, r6
    14f4:	f7ff fd0e 	bl	f14 <nrf_fprintf_buffer_flush>
    14f8:	68b2      	ldr	r2, [r6, #8]
    14fa:	e719      	b.n	1330 <nrf_fprintf_fmt+0x284>
    14fc:	4630      	mov	r0, r6
    14fe:	f7ff fd09 	bl	f14 <nrf_fprintf_buffer_flush>
    1502:	68b3      	ldr	r3, [r6, #8]
    1504:	e70a      	b.n	131c <nrf_fprintf_fmt+0x270>
    1506:	68b1      	ldr	r1, [r6, #8]
    1508:	6832      	ldr	r2, [r6, #0]
    150a:	1c48      	adds	r0, r1, #1
    150c:	60b0      	str	r0, [r6, #8]
    150e:	f1cb 0b00 	rsb	fp, fp, #0
    1512:	202d      	movs	r0, #45	; 0x2d
    1514:	5450      	strb	r0, [r2, r1]
    1516:	e9d6 2101 	ldrd	r2, r1, [r6, #4]
    151a:	4291      	cmp	r1, r2
    151c:	f4ff aedf 	bcc.w	12de <nrf_fprintf_fmt+0x232>
    1520:	4630      	mov	r0, r6
    1522:	9303      	str	r3, [sp, #12]
    1524:	f7ff fcf6 	bl	f14 <nrf_fprintf_buffer_flush>
    1528:	9b03      	ldr	r3, [sp, #12]
    152a:	e6d8      	b.n	12de <nrf_fprintf_fmt+0x232>
    152c:	3c01      	subs	r4, #1
    152e:	e6b6      	b.n	129e <nrf_fprintf_fmt+0x1f2>
    1530:	4630      	mov	r0, r6
    1532:	9202      	str	r2, [sp, #8]
    1534:	f7ff fcee 	bl	f14 <nrf_fprintf_buffer_flush>
    1538:	f817 3f01 	ldrb.w	r3, [r7, #1]!
    153c:	2b00      	cmp	r3, #0
    153e:	d0c1      	beq.n	14c4 <nrf_fprintf_fmt+0x418>
    1540:	9a02      	ldr	r2, [sp, #8]
    1542:	68b0      	ldr	r0, [r6, #8]
    1544:	2b0a      	cmp	r3, #10
    1546:	eb02 0b07 	add.w	fp, r2, r7
    154a:	d1af      	bne.n	14ac <nrf_fprintf_fmt+0x400>
    154c:	1c41      	adds	r1, r0, #1
    154e:	60b1      	str	r1, [r6, #8]
    1550:	6831      	ldr	r1, [r6, #0]
    1552:	f801 a000 	strb.w	sl, [r1, r0]
    1556:	e9d6 1001 	ldrd	r1, r0, [r6, #4]
    155a:	4288      	cmp	r0, r1
    155c:	d3a6      	bcc.n	14ac <nrf_fprintf_fmt+0x400>
    155e:	4630      	mov	r0, r6
    1560:	e9cd 3202 	strd	r3, r2, [sp, #8]
    1564:	f7ff fcd6 	bl	f14 <nrf_fprintf_buffer_flush>
    1568:	e9dd 3202 	ldrd	r3, r2, [sp, #8]
    156c:	68b0      	ldr	r0, [r6, #8]
    156e:	e79d      	b.n	14ac <nrf_fprintf_fmt+0x400>
    1570:	4770      	bx	lr
    1572:	4630      	mov	r0, r6
    1574:	f7ff fcce 	bl	f14 <nrf_fprintf_buffer_flush>
    1578:	f81b 4f01 	ldrb.w	r4, [fp, #1]!
    157c:	2c00      	cmp	r4, #0
    157e:	f47f af47 	bne.w	1410 <nrf_fprintf_fmt+0x364>
    1582:	e619      	b.n	11b8 <nrf_fprintf_fmt+0x10c>
    1584:	2b00      	cmp	r3, #0
    1586:	f47f aeaf 	bne.w	12e8 <nrf_fprintf_fmt+0x23c>
    158a:	b18c      	cbz	r4, 15b0 <nrf_fprintf_fmt+0x504>
    158c:	2230      	movs	r2, #48	; 0x30
    158e:	9902      	ldr	r1, [sp, #8]
    1590:	42a1      	cmp	r1, r4
    1592:	f4bf aea9 	bcs.w	12e8 <nrf_fprintf_fmt+0x23c>
    1596:	68b1      	ldr	r1, [r6, #8]
    1598:	1c48      	adds	r0, r1, #1
    159a:	60b0      	str	r0, [r6, #8]
    159c:	6830      	ldr	r0, [r6, #0]
    159e:	5442      	strb	r2, [r0, r1]
    15a0:	e9d6 0101 	ldrd	r0, r1, [r6, #4]
    15a4:	4281      	cmp	r1, r0
    15a6:	f104 34ff 	add.w	r4, r4, #4294967295	; 0xffffffff
    15aa:	d21f      	bcs.n	15ec <nrf_fprintf_fmt+0x540>
    15ac:	2c00      	cmp	r4, #0
    15ae:	d1ee      	bne.n	158e <nrf_fprintf_fmt+0x4e2>
    15b0:	2400      	movs	r4, #0
    15b2:	e699      	b.n	12e8 <nrf_fprintf_fmt+0x23c>
    15b4:	68b1      	ldr	r1, [r6, #8]
    15b6:	6832      	ldr	r2, [r6, #0]
    15b8:	1c48      	adds	r0, r1, #1
    15ba:	60b0      	str	r0, [r6, #8]
    15bc:	202b      	movs	r0, #43	; 0x2b
    15be:	e7a9      	b.n	1514 <nrf_fprintf_fmt+0x468>
    15c0:	6832      	ldr	r2, [r6, #0]
    15c2:	1c59      	adds	r1, r3, #1
    15c4:	60b1      	str	r1, [r6, #8]
    15c6:	f802 a003 	strb.w	sl, [r2, r3]
    15ca:	e9d6 2301 	ldrd	r2, r3, [r6, #4]
    15ce:	4293      	cmp	r3, r2
    15d0:	f4ff aede 	bcc.w	1390 <nrf_fprintf_fmt+0x2e4>
    15d4:	4630      	mov	r0, r6
    15d6:	f7ff fc9d 	bl	f14 <nrf_fprintf_buffer_flush>
    15da:	68b3      	ldr	r3, [r6, #8]
    15dc:	e6d8      	b.n	1390 <nrf_fprintf_fmt+0x2e4>
    15de:	4630      	mov	r0, r6
    15e0:	9303      	str	r3, [sp, #12]
    15e2:	f7ff fc97 	bl	f14 <nrf_fprintf_buffer_flush>
    15e6:	9b03      	ldr	r3, [sp, #12]
    15e8:	2220      	movs	r2, #32
    15ea:	e66e      	b.n	12ca <nrf_fprintf_fmt+0x21e>
    15ec:	4630      	mov	r0, r6
    15ee:	9303      	str	r3, [sp, #12]
    15f0:	f7ff fc90 	bl	f14 <nrf_fprintf_buffer_flush>
    15f4:	9b03      	ldr	r3, [sp, #12]
    15f6:	2230      	movs	r2, #48	; 0x30
    15f8:	e7d8      	b.n	15ac <nrf_fprintf_fmt+0x500>
    15fa:	2001      	movs	r0, #1
    15fc:	e642      	b.n	1284 <nrf_fprintf_fmt+0x1d8>
    15fe:	469b      	mov	fp, r3
    1600:	e760      	b.n	14c4 <nrf_fprintf_fmt+0x418>
    1602:	bf00      	nop
    1604:	00003528 	.word	0x00003528
    1608:	cccccccd 	.word	0xcccccccd

0000160c <nrf_memobj_pool_init>:
    160c:	f7ff bc28 	b.w	e60 <nrf_balloc_init>

00001610 <nrf_memobj_alloc>:
    1610:	e92d 41f0 	stmdb	sp!, {r4, r5, r6, r7, r8, lr}
    1614:	8a05      	ldrh	r5, [r0, #16]
    1616:	3103      	adds	r1, #3
    1618:	3d04      	subs	r5, #4
    161a:	194e      	adds	r6, r1, r5
    161c:	4680      	mov	r8, r0
    161e:	fbb6 f6f5 	udiv	r6, r6, r5
    1622:	f7ff fc3b 	bl	e9c <nrf_balloc_alloc>
    1626:	b3a0      	cbz	r0, 1692 <nrf_memobj_alloc+0x82>
    1628:	b2f6      	uxtb	r6, r6
    162a:	f44f 7380 	mov.w	r3, #256	; 0x100
    162e:	3e01      	subs	r6, #1
    1630:	4604      	mov	r4, r0
    1632:	8083      	strh	r3, [r0, #4]
    1634:	80c5      	strh	r5, [r0, #6]
    1636:	f8c0 8000 	str.w	r8, [r0]
    163a:	d02b      	beq.n	1694 <nrf_memobj_alloc+0x84>
    163c:	4603      	mov	r3, r0
    163e:	2500      	movs	r5, #0
    1640:	e008      	b.n	1654 <nrf_memobj_alloc+0x44>
    1642:	7962      	ldrb	r2, [r4, #5]
    1644:	42ae      	cmp	r6, r5
    1646:	f102 0201 	add.w	r2, r2, #1
    164a:	7162      	strb	r2, [r4, #5]
    164c:	6038      	str	r0, [r7, #0]
    164e:	f8c0 8000 	str.w	r8, [r0]
    1652:	d01f      	beq.n	1694 <nrf_memobj_alloc+0x84>
    1654:	4640      	mov	r0, r8
    1656:	461f      	mov	r7, r3
    1658:	f7ff fc20 	bl	e9c <nrf_balloc_alloc>
    165c:	3501      	adds	r5, #1
    165e:	4603      	mov	r3, r0
    1660:	2800      	cmp	r0, #0
    1662:	d1ee      	bne.n	1642 <nrf_memobj_alloc+0x32>
    1664:	7967      	ldrb	r7, [r4, #5]
    1666:	1e79      	subs	r1, r7, #1
    1668:	d017      	beq.n	169a <nrf_memobj_alloc+0x8a>
    166a:	4622      	mov	r2, r4
    166c:	3301      	adds	r3, #1
    166e:	4299      	cmp	r1, r3
    1670:	6812      	ldr	r2, [r2, #0]
    1672:	d1fb      	bne.n	166c <nrf_memobj_alloc+0x5c>
    1674:	f8d2 8000 	ldr.w	r8, [r2]
    1678:	b15f      	cbz	r7, 1692 <nrf_memobj_alloc+0x82>
    167a:	6826      	ldr	r6, [r4, #0]
    167c:	2500      	movs	r5, #0
    167e:	e001      	b.n	1684 <nrf_memobj_alloc+0x74>
    1680:	4634      	mov	r4, r6
    1682:	6836      	ldr	r6, [r6, #0]
    1684:	4621      	mov	r1, r4
    1686:	4640      	mov	r0, r8
    1688:	3501      	adds	r5, #1
    168a:	f7ff fc2d 	bl	ee8 <nrf_balloc_free>
    168e:	42af      	cmp	r7, r5
    1690:	d8f6      	bhi.n	1680 <nrf_memobj_alloc+0x70>
    1692:	2400      	movs	r4, #0
    1694:	4620      	mov	r0, r4
    1696:	e8bd 81f0 	ldmia.w	sp!, {r4, r5, r6, r7, r8, pc}
    169a:	6820      	ldr	r0, [r4, #0]
    169c:	4621      	mov	r1, r4
    169e:	f7ff fc23 	bl	ee8 <nrf_balloc_free>
    16a2:	e7f6      	b.n	1692 <nrf_memobj_alloc+0x82>

000016a4 <nrf_memobj_get>:
    16a4:	2101      	movs	r1, #1
    16a6:	3004      	adds	r0, #4
    16a8:	f7ff bbaa 	b.w	e00 <nrf_atomic_u32_add>

000016ac <nrf_memobj_put>:
    16ac:	e92d 41f0 	stmdb	sp!, {r4, r5, r6, r7, r8, lr}
    16b0:	2101      	movs	r1, #1
    16b2:	4604      	mov	r4, r0
    16b4:	3004      	adds	r0, #4
    16b6:	f7ff fbaf 	bl	e18 <nrf_atomic_u32_sub>
    16ba:	f010 03ff 	ands.w	r3, r0, #255	; 0xff
    16be:	d001      	beq.n	16c4 <nrf_memobj_put+0x18>
    16c0:	e8bd 81f0 	ldmia.w	sp!, {r4, r5, r6, r7, r8, pc}
    16c4:	7967      	ldrb	r7, [r4, #5]
    16c6:	1e79      	subs	r1, r7, #1
    16c8:	d016      	beq.n	16f8 <nrf_memobj_put+0x4c>
    16ca:	4622      	mov	r2, r4
    16cc:	3301      	adds	r3, #1
    16ce:	4299      	cmp	r1, r3
    16d0:	6812      	ldr	r2, [r2, #0]
    16d2:	d1fb      	bne.n	16cc <nrf_memobj_put+0x20>
    16d4:	f8d2 8000 	ldr.w	r8, [r2]
    16d8:	2f00      	cmp	r7, #0
    16da:	d0f1      	beq.n	16c0 <nrf_memobj_put+0x14>
    16dc:	6826      	ldr	r6, [r4, #0]
    16de:	2500      	movs	r5, #0
    16e0:	e001      	b.n	16e6 <nrf_memobj_put+0x3a>
    16e2:	4634      	mov	r4, r6
    16e4:	6836      	ldr	r6, [r6, #0]
    16e6:	4621      	mov	r1, r4
    16e8:	4640      	mov	r0, r8
    16ea:	3501      	adds	r5, #1
    16ec:	f7ff fbfc 	bl	ee8 <nrf_balloc_free>
    16f0:	42af      	cmp	r7, r5
    16f2:	d8f6      	bhi.n	16e2 <nrf_memobj_put+0x36>
    16f4:	e8bd 81f0 	ldmia.w	sp!, {r4, r5, r6, r7, r8, pc}
    16f8:	6820      	ldr	r0, [r4, #0]
    16fa:	4621      	mov	r1, r4
    16fc:	e8bd 41f0 	ldmia.w	sp!, {r4, r5, r6, r7, r8, lr}
    1700:	f7ff bbf2 	b.w	ee8 <nrf_balloc_free>

00001704 <nrf_memobj_write>:
    1704:	e92d 43f8 	stmdb	sp!, {r3, r4, r5, r6, r7, r8, r9, lr}
    1708:	4688      	mov	r8, r1
    170a:	88c7      	ldrh	r7, [r0, #6]
    170c:	7941      	ldrb	r1, [r0, #5]
    170e:	fb07 f101 	mul.w	r1, r7, r1
    1712:	3904      	subs	r1, #4
    1714:	eb02 0c03 	add.w	ip, r2, r3
    1718:	1d1e      	adds	r6, r3, #4
    171a:	4561      	cmp	r1, ip
    171c:	4615      	mov	r5, r2
    171e:	bf38      	it	cc
    1720:	1acd      	subcc	r5, r1, r3
    1722:	42b7      	cmp	r7, r6
    1724:	4604      	mov	r4, r0
    1726:	fbb6 f2f7 	udiv	r2, r6, r7
    172a:	fb07 6012 	mls	r0, r7, r2, r6
    172e:	d802      	bhi.n	1736 <nrf_memobj_write+0x32>
    1730:	3a01      	subs	r2, #1
    1732:	6824      	ldr	r4, [r4, #0]
    1734:	d1fc      	bne.n	1730 <nrf_memobj_write+0x2c>
    1736:	1a3e      	subs	r6, r7, r0
    1738:	42ae      	cmp	r6, r5
    173a:	bf28      	it	cs
    173c:	462e      	movcs	r6, r5
    173e:	b19d      	cbz	r5, 1768 <nrf_memobj_write+0x64>
    1740:	f04f 0900 	mov.w	r9, #0
    1744:	3004      	adds	r0, #4
    1746:	1bad      	subs	r5, r5, r6
    1748:	4632      	mov	r2, r6
    174a:	eb08 0109 	add.w	r1, r8, r9
    174e:	4420      	add	r0, r4
    1750:	f001 fd5c 	bl	320c <memcpy>
    1754:	42af      	cmp	r7, r5
    1756:	44b1      	add	r9, r6
    1758:	6824      	ldr	r4, [r4, #0]
    175a:	463e      	mov	r6, r7
    175c:	f04f 0000 	mov.w	r0, #0
    1760:	bf28      	it	cs
    1762:	462e      	movcs	r6, r5
    1764:	2d00      	cmp	r5, #0
    1766:	d1ed      	bne.n	1744 <nrf_memobj_write+0x40>
    1768:	e8bd 83f8 	ldmia.w	sp!, {r3, r4, r5, r6, r7, r8, r9, pc}

0000176c <nrf_memobj_read>:
    176c:	e92d 43f8 	stmdb	sp!, {r3, r4, r5, r6, r7, r8, r9, lr}
    1770:	4604      	mov	r4, r0
    1772:	88c7      	ldrh	r7, [r0, #6]
    1774:	7940      	ldrb	r0, [r0, #5]
    1776:	fb07 f000 	mul.w	r0, r7, r0
    177a:	3804      	subs	r0, #4
    177c:	eb02 0c03 	add.w	ip, r2, r3
    1780:	1d1e      	adds	r6, r3, #4
    1782:	4560      	cmp	r0, ip
    1784:	4615      	mov	r5, r2
    1786:	bf38      	it	cc
    1788:	1ac5      	subcc	r5, r0, r3
    178a:	42b7      	cmp	r7, r6
    178c:	4688      	mov	r8, r1
    178e:	fbb6 f1f7 	udiv	r1, r6, r7
    1792:	fb07 6211 	mls	r2, r7, r1, r6
    1796:	d802      	bhi.n	179e <nrf_memobj_read+0x32>
    1798:	3901      	subs	r1, #1
    179a:	6824      	ldr	r4, [r4, #0]
    179c:	d1fc      	bne.n	1798 <nrf_memobj_read+0x2c>
    179e:	1abe      	subs	r6, r7, r2
    17a0:	42ae      	cmp	r6, r5
    17a2:	bf28      	it	cs
    17a4:	462e      	movcs	r6, r5
    17a6:	b19d      	cbz	r5, 17d0 <nrf_memobj_read+0x64>
    17a8:	f04f 0900 	mov.w	r9, #0
    17ac:	1d11      	adds	r1, r2, #4
    17ae:	1bad      	subs	r5, r5, r6
    17b0:	4632      	mov	r2, r6
    17b2:	4421      	add	r1, r4
    17b4:	eb08 0009 	add.w	r0, r8, r9
    17b8:	f001 fd28 	bl	320c <memcpy>
    17bc:	42af      	cmp	r7, r5
    17be:	44b1      	add	r9, r6
    17c0:	6824      	ldr	r4, [r4, #0]
    17c2:	463e      	mov	r6, r7
    17c4:	f04f 0200 	mov.w	r2, #0
    17c8:	bf28      	it	cs
    17ca:	462e      	movcs	r6, r5
    17cc:	2d00      	cmp	r5, #0
    17ce:	d1ed      	bne.n	17ac <nrf_memobj_read+0x40>
    17d0:	e8bd 83f8 	ldmia.w	sp!, {r3, r4, r5, r6, r7, r8, r9, pc}

000017d4 <nrf_ringbuf_init>:
    17d4:	6882      	ldr	r2, [r0, #8]
    17d6:	2300      	movs	r3, #0
    17d8:	6093      	str	r3, [r2, #8]
    17da:	6882      	ldr	r2, [r0, #8]
    17dc:	6113      	str	r3, [r2, #16]
    17de:	6882      	ldr	r2, [r0, #8]
    17e0:	6153      	str	r3, [r2, #20]
    17e2:	6882      	ldr	r2, [r0, #8]
    17e4:	60d3      	str	r3, [r2, #12]
    17e6:	6882      	ldr	r2, [r0, #8]
    17e8:	6053      	str	r3, [r2, #4]
    17ea:	6882      	ldr	r2, [r0, #8]
    17ec:	6013      	str	r3, [r2, #0]
    17ee:	4770      	bx	lr

000017f0 <twim_evt_handler>:
    17f0:	b500      	push	{lr}
    17f2:	f890 c004 	ldrb.w	ip, [r0, #4]
    17f6:	7942      	ldrb	r2, [r0, #5]
    17f8:	2300      	movs	r3, #0
    17fa:	f36c 0307 	bfi	r3, ip, #0, #8
    17fe:	f362 230f 	bfi	r3, r2, #8, #8
    1802:	460a      	mov	r2, r1
    1804:	6881      	ldr	r1, [r0, #8]
    1806:	f890 c000 	ldrb.w	ip, [r0]
    180a:	f361 4317 	bfi	r3, r1, #16, #8
    180e:	68c1      	ldr	r1, [r0, #12]
    1810:	b085      	sub	sp, #20
    1812:	f361 631f 	bfi	r3, r1, #24, #8
    1816:	6941      	ldr	r1, [r0, #20]
    1818:	9103      	str	r1, [sp, #12]
    181a:	9301      	str	r3, [sp, #4]
    181c:	4907      	ldr	r1, [pc, #28]	; (183c <twim_evt_handler+0x4c>)
    181e:	4b08      	ldr	r3, [pc, #32]	; (1840 <twim_evt_handler+0x50>)
    1820:	6900      	ldr	r0, [r0, #16]
    1822:	9002      	str	r0, [sp, #8]
    1824:	f851 1022 	ldr.w	r1, [r1, r2, lsl #2]
    1828:	f853 3022 	ldr.w	r3, [r3, r2, lsl #2]
    182c:	f88d c000 	strb.w	ip, [sp]
    1830:	4668      	mov	r0, sp
    1832:	4798      	blx	r3
    1834:	b005      	add	sp, #20
    1836:	f85d fb04 	ldr.w	pc, [sp], #4
    183a:	bf00      	nop
    183c:	20000620 	.word	0x20000620
    1840:	20000628 	.word	0x20000628

00001844 <nrf_drv_twi_init>:
    1844:	e92d 4ff0 	stmdb	sp!, {r4, r5, r6, r7, r8, r9, sl, fp, lr}
    1848:	4616      	mov	r6, r2
    184a:	f890 a000 	ldrb.w	sl, [r0]
    184e:	4a3a      	ldr	r2, [pc, #232]	; (1938 <nrf_drv_twi_init+0xf4>)
    1850:	f842 602a 	str.w	r6, [r2, sl, lsl #2]
    1854:	4a39      	ldr	r2, [pc, #228]	; (193c <nrf_drv_twi_init+0xf8>)
    1856:	f842 302a 	str.w	r3, [r2, sl, lsl #2]
    185a:	7b4b      	ldrb	r3, [r1, #13]
    185c:	b081      	sub	sp, #4
    185e:	4680      	mov	r8, r0
    1860:	460c      	mov	r4, r1
    1862:	b963      	cbnz	r3, 187e <nrf_drv_twi_init+0x3a>
    1864:	4a36      	ldr	r2, [pc, #216]	; (1940 <nrf_drv_twi_init+0xfc>)
    1866:	2e00      	cmp	r6, #0
    1868:	4653      	mov	r3, sl
    186a:	bf08      	it	eq
    186c:	4632      	moveq	r2, r6
    186e:	4621      	mov	r1, r4
    1870:	f108 0004 	add.w	r0, r8, #4
    1874:	b001      	add	sp, #4
    1876:	e8bd 4ff0 	ldmia.w	sp!, {r4, r5, r6, r7, r8, r9, sl, fp, lr}
    187a:	f000 ba43 	b.w	1d04 <nrfx_twim_init>
    187e:	680b      	ldr	r3, [r1, #0]
    1880:	4f30      	ldr	r7, [pc, #192]	; (1944 <nrf_drv_twi_init+0x100>)
    1882:	f04f 45a0 	mov.w	r5, #1342177280	; 0x50000000
    1886:	f503 73e0 	add.w	r3, r3, #448	; 0x1c0
    188a:	f240 620c 	movw	r2, #1548	; 0x60c
    188e:	f845 2023 	str.w	r2, [r5, r3, lsl #2]
    1892:	684b      	ldr	r3, [r1, #4]
    1894:	f503 73e0 	add.w	r3, r3, #448	; 0x1c0
    1898:	f04f 0901 	mov.w	r9, #1
    189c:	f845 2023 	str.w	r2, [r5, r3, lsl #2]
    18a0:	680b      	ldr	r3, [r1, #0]
    18a2:	fa09 f303 	lsl.w	r3, r9, r3
    18a6:	f8c5 3508 	str.w	r3, [r5, #1288]	; 0x508
    18aa:	684b      	ldr	r3, [r1, #4]
    18ac:	fa09 f303 	lsl.w	r3, r9, r3
    18b0:	f8c5 3508 	str.w	r3, [r5, #1288]	; 0x508
    18b4:	680b      	ldr	r3, [r1, #0]
    18b6:	f503 73e0 	add.w	r3, r3, #448	; 0x1c0
    18ba:	f240 620d 	movw	r2, #1549	; 0x60d
    18be:	f845 2023 	str.w	r2, [r5, r3, lsl #2]
    18c2:	684b      	ldr	r3, [r1, #4]
    18c4:	f503 73e0 	add.w	r3, r3, #448	; 0x1c0
    18c8:	ea47 0709 	orr.w	r7, r7, r9
    18cc:	f845 2023 	str.w	r2, [r5, r3, lsl #2]
    18d0:	f44f 7080 	mov.w	r0, #256	; 0x100
    18d4:	47b8      	blx	r7
    18d6:	f04f 0b00 	mov.w	fp, #0
    18da:	f8d5 3510 	ldr.w	r3, [r5, #1296]	; 0x510
    18de:	6862      	ldr	r2, [r4, #4]
    18e0:	40d3      	lsrs	r3, r2
    18e2:	07db      	lsls	r3, r3, #31
    18e4:	f44f 7080 	mov.w	r0, #256	; 0x100
    18e8:	d422      	bmi.n	1930 <nrf_drv_twi_init+0xec>
    18ea:	6823      	ldr	r3, [r4, #0]
    18ec:	fa09 f303 	lsl.w	r3, r9, r3
    18f0:	f8c5 350c 	str.w	r3, [r5, #1292]	; 0x50c
    18f4:	47b8      	blx	r7
    18f6:	6823      	ldr	r3, [r4, #0]
    18f8:	fa09 f303 	lsl.w	r3, r9, r3
    18fc:	f10b 0b01 	add.w	fp, fp, #1
    1900:	f44f 7080 	mov.w	r0, #256	; 0x100
    1904:	f8c5 3508 	str.w	r3, [r5, #1288]	; 0x508
    1908:	47b8      	blx	r7
    190a:	f1bb 0f09 	cmp.w	fp, #9
    190e:	d1e4      	bne.n	18da <nrf_drv_twi_init+0x96>
    1910:	6862      	ldr	r2, [r4, #4]
    1912:	2501      	movs	r5, #1
    1914:	f04f 49a0 	mov.w	r9, #1342177280	; 0x50000000
    1918:	fa05 f202 	lsl.w	r2, r5, r2
    191c:	f8c9 250c 	str.w	r2, [r9, #1292]	; 0x50c
    1920:	f44f 7080 	mov.w	r0, #256	; 0x100
    1924:	47b8      	blx	r7
    1926:	6863      	ldr	r3, [r4, #4]
    1928:	409d      	lsls	r5, r3
    192a:	f8c9 5508 	str.w	r5, [r9, #1288]	; 0x508
    192e:	e799      	b.n	1864 <nrf_drv_twi_init+0x20>
    1930:	f1bb 0f00 	cmp.w	fp, #0
    1934:	d1ed      	bne.n	1912 <nrf_drv_twi_init+0xce>
    1936:	e795      	b.n	1864 <nrf_drv_twi_init+0x20>
    1938:	20000628 	.word	0x20000628
    193c:	20000620 	.word	0x20000620
    1940:	000017f1 	.word	0x000017f1
    1944:	00003540 	.word	0x00003540

00001948 <uarte_evt_handler>:
    1948:	b530      	push	{r4, r5, lr}
    194a:	4b0a      	ldr	r3, [pc, #40]	; (1974 <uarte_evt_handler+0x2c>)
    194c:	4c0a      	ldr	r4, [pc, #40]	; (1978 <uarte_evt_handler+0x30>)
    194e:	f853 3021 	ldr.w	r3, [r3, r1, lsl #2]
    1952:	f854 1021 	ldr.w	r1, [r4, r1, lsl #2]
    1956:	7802      	ldrb	r2, [r0, #0]
    1958:	b085      	sub	sp, #20
    195a:	e9d0 5401 	ldrd	r5, r4, [r0, #4]
    195e:	f88d 2000 	strb.w	r2, [sp]
    1962:	68c2      	ldr	r2, [r0, #12]
    1964:	9501      	str	r5, [sp, #4]
    1966:	f88d 4008 	strb.w	r4, [sp, #8]
    196a:	9203      	str	r2, [sp, #12]
    196c:	4668      	mov	r0, sp
    196e:	4798      	blx	r3
    1970:	b005      	add	sp, #20
    1972:	bd30      	pop	{r4, r5, pc}
    1974:	20000634 	.word	0x20000634
    1978:	20000630 	.word	0x20000630

0000197c <uart_evt_handler>:
    197c:	b530      	push	{r4, r5, lr}
    197e:	4b0a      	ldr	r3, [pc, #40]	; (19a8 <uart_evt_handler+0x2c>)
    1980:	4c0a      	ldr	r4, [pc, #40]	; (19ac <uart_evt_handler+0x30>)
    1982:	f853 3021 	ldr.w	r3, [r3, r1, lsl #2]
    1986:	f854 1021 	ldr.w	r1, [r4, r1, lsl #2]
    198a:	7802      	ldrb	r2, [r0, #0]
    198c:	b085      	sub	sp, #20
    198e:	e9d0 5401 	ldrd	r5, r4, [r0, #4]
    1992:	f88d 2000 	strb.w	r2, [sp]
    1996:	68c2      	ldr	r2, [r0, #12]
    1998:	9501      	str	r5, [sp, #4]
    199a:	f88d 4008 	strb.w	r4, [sp, #8]
    199e:	9203      	str	r2, [sp, #12]
    19a0:	4668      	mov	r0, sp
    19a2:	4798      	blx	r3
    19a4:	b005      	add	sp, #20
    19a6:	bd30      	pop	{r4, r5, pc}
    19a8:	20000634 	.word	0x20000634
    19ac:	20000630 	.word	0x20000630

000019b0 <nrf_drv_uart_init>:
    19b0:	b5f0      	push	{r4, r5, r6, r7, lr}
    19b2:	4b17      	ldr	r3, [pc, #92]	; (1a10 <nrf_drv_uart_init+0x60>)
    19b4:	7806      	ldrb	r6, [r0, #0]
    19b6:	7f4f      	ldrb	r7, [r1, #29]
    19b8:	f843 2026 	str.w	r2, [r3, r6, lsl #2]
    19bc:	4614      	mov	r4, r2
    19be:	4b15      	ldr	r3, [pc, #84]	; (1a14 <nrf_drv_uart_init+0x64>)
    19c0:	4a15      	ldr	r2, [pc, #84]	; (1a18 <nrf_drv_uart_init+0x68>)
    19c2:	559f      	strb	r7, [r3, r6]
    19c4:	4605      	mov	r5, r0
    19c6:	6908      	ldr	r0, [r1, #16]
    19c8:	f842 0026 	str.w	r0, [r2, r6, lsl #2]
    19cc:	468c      	mov	ip, r1
    19ce:	e8bc 000f 	ldmia.w	ip!, {r0, r1, r2, r3}
    19d2:	b089      	sub	sp, #36	; 0x24
    19d4:	46ee      	mov	lr, sp
    19d6:	e8ae 000f 	stmia.w	lr!, {r0, r1, r2, r3}
    19da:	e89c 000f 	ldmia.w	ip, {r0, r1, r2, r3}
    19de:	e88e 000f 	stmia.w	lr, {r0, r1, r2, r3}
    19e2:	9604      	str	r6, [sp, #16]
    19e4:	b14f      	cbz	r7, 19fa <nrf_drv_uart_init+0x4a>
    19e6:	2c00      	cmp	r4, #0
    19e8:	4a0c      	ldr	r2, [pc, #48]	; (1a1c <nrf_drv_uart_init+0x6c>)
    19ea:	4669      	mov	r1, sp
    19ec:	bf08      	it	eq
    19ee:	4622      	moveq	r2, r4
    19f0:	1d28      	adds	r0, r5, #4
    19f2:	f000 ff3d 	bl	2870 <nrfx_uarte_init>
    19f6:	b009      	add	sp, #36	; 0x24
    19f8:	bdf0      	pop	{r4, r5, r6, r7, pc}
    19fa:	2c00      	cmp	r4, #0
    19fc:	4a08      	ldr	r2, [pc, #32]	; (1a20 <nrf_drv_uart_init+0x70>)
    19fe:	4669      	mov	r1, sp
    1a00:	bf08      	it	eq
    1a02:	4622      	moveq	r2, r4
    1a04:	f105 000c 	add.w	r0, r5, #12
    1a08:	f000 fcce 	bl	23a8 <nrfx_uart_init>
    1a0c:	b009      	add	sp, #36	; 0x24
    1a0e:	bdf0      	pop	{r4, r5, r6, r7, pc}
    1a10:	20000634 	.word	0x20000634
    1a14:	20000638 	.word	0x20000638
    1a18:	20000630 	.word	0x20000630
    1a1c:	00001949 	.word	0x00001949
    1a20:	0000197d 	.word	0x0000197d

00001a24 <UARTE0_UART0_IRQHandler>:
    1a24:	4b01      	ldr	r3, [pc, #4]	; (1a2c <UARTE0_UART0_IRQHandler+0x8>)
    1a26:	681b      	ldr	r3, [r3, #0]
    1a28:	4718      	bx	r3
    1a2a:	bf00      	nop
    1a2c:	2000063c 	.word	0x2000063c

00001a30 <nrfx_prs_acquire>:
    1a30:	b538      	push	{r3, r4, r5, lr}
    1a32:	4b0c      	ldr	r3, [pc, #48]	; (1a64 <nrfx_prs_acquire+0x34>)
    1a34:	4298      	cmp	r0, r3
    1a36:	d113      	bne.n	1a60 <nrfx_prs_acquire+0x30>
    1a38:	2000      	movs	r0, #0
    1a3a:	460d      	mov	r5, r1
    1a3c:	f7ff f9c4 	bl	dc8 <app_util_critical_region_enter>
    1a40:	4b09      	ldr	r3, [pc, #36]	; (1a68 <nrfx_prs_acquire+0x38>)
    1a42:	791c      	ldrb	r4, [r3, #4]
    1a44:	b124      	cbz	r4, 1a50 <nrfx_prs_acquire+0x20>
    1a46:	2000      	movs	r0, #0
    1a48:	f7ff f9c6 	bl	dd8 <app_util_critical_region_exit>
    1a4c:	2011      	movs	r0, #17
    1a4e:	bd38      	pop	{r3, r4, r5, pc}
    1a50:	2201      	movs	r2, #1
    1a52:	4620      	mov	r0, r4
    1a54:	601d      	str	r5, [r3, #0]
    1a56:	711a      	strb	r2, [r3, #4]
    1a58:	f7ff f9be 	bl	dd8 <app_util_critical_region_exit>
    1a5c:	4620      	mov	r0, r4
    1a5e:	bd38      	pop	{r3, r4, r5, pc}
    1a60:	2000      	movs	r0, #0
    1a62:	bd38      	pop	{r3, r4, r5, pc}
    1a64:	40002000 	.word	0x40002000
    1a68:	2000063c 	.word	0x2000063c

00001a6c <nrfx_prs_release>:
    1a6c:	4b03      	ldr	r3, [pc, #12]	; (1a7c <nrfx_prs_release+0x10>)
    1a6e:	4298      	cmp	r0, r3
    1a70:	d103      	bne.n	1a7a <nrfx_prs_release+0xe>
    1a72:	4b03      	ldr	r3, [pc, #12]	; (1a80 <nrfx_prs_release+0x14>)
    1a74:	2200      	movs	r2, #0
    1a76:	601a      	str	r2, [r3, #0]
    1a78:	711a      	strb	r2, [r3, #4]
    1a7a:	4770      	bx	lr
    1a7c:	40002000 	.word	0x40002000
    1a80:	2000063c 	.word	0x2000063c

00001a84 <xfer_completeness_check>:
    1a84:	7b0b      	ldrb	r3, [r1, #12]
    1a86:	4602      	mov	r2, r0
    1a88:	2b03      	cmp	r3, #3
    1a8a:	d81f      	bhi.n	1acc <xfer_completeness_check+0x48>
    1a8c:	e8df f003 	tbb	[pc, r3]
    1a90:	02142026 	.word	0x02142026
    1a94:	688b      	ldr	r3, [r1, #8]
    1a96:	0358      	lsls	r0, r3, #13
    1a98:	d426      	bmi.n	1ae8 <xfer_completeness_check+0x64>
    1a9a:	688b      	ldr	r3, [r1, #8]
    1a9c:	035b      	lsls	r3, r3, #13
    1a9e:	d415      	bmi.n	1acc <xfer_completeness_check+0x48>
    1aa0:	f8d2 354c 	ldr.w	r3, [r2, #1356]	; 0x54c
    1aa4:	6949      	ldr	r1, [r1, #20]
    1aa6:	4299      	cmp	r1, r3
    1aa8:	d010      	beq.n	1acc <xfer_completeness_check+0x48>
    1aaa:	2000      	movs	r0, #0
    1aac:	2106      	movs	r1, #6
    1aae:	f8c2 0500 	str.w	r0, [r2, #1280]	; 0x500
    1ab2:	f8c2 1500 	str.w	r1, [r2, #1280]	; 0x500
    1ab6:	4770      	bx	lr
    1ab8:	f8d2 354c 	ldr.w	r3, [r2, #1356]	; 0x54c
    1abc:	6908      	ldr	r0, [r1, #16]
    1abe:	4298      	cmp	r0, r3
    1ac0:	d1f3      	bne.n	1aaa <xfer_completeness_check+0x26>
    1ac2:	f8d2 353c 	ldr.w	r3, [r2, #1340]	; 0x53c
    1ac6:	6949      	ldr	r1, [r1, #20]
    1ac8:	4299      	cmp	r1, r3
    1aca:	d1ee      	bne.n	1aaa <xfer_completeness_check+0x26>
    1acc:	2001      	movs	r0, #1
    1ace:	4770      	bx	lr
    1ad0:	f8d2 353c 	ldr.w	r3, [r2, #1340]	; 0x53c
    1ad4:	6909      	ldr	r1, [r1, #16]
    1ad6:	4299      	cmp	r1, r3
    1ad8:	d1e7      	bne.n	1aaa <xfer_completeness_check+0x26>
    1ada:	e7f7      	b.n	1acc <xfer_completeness_check+0x48>
    1adc:	f8d2 354c 	ldr.w	r3, [r2, #1356]	; 0x54c
    1ae0:	6909      	ldr	r1, [r1, #16]
    1ae2:	4299      	cmp	r1, r3
    1ae4:	d1e1      	bne.n	1aaa <xfer_completeness_check+0x26>
    1ae6:	e7f1      	b.n	1acc <xfer_completeness_check+0x48>
    1ae8:	f8d2 354c 	ldr.w	r3, [r2, #1356]	; 0x54c
    1aec:	6908      	ldr	r0, [r1, #16]
    1aee:	4298      	cmp	r0, r3
    1af0:	d1db      	bne.n	1aaa <xfer_completeness_check+0x26>
    1af2:	e7d2      	b.n	1a9a <xfer_completeness_check+0x16>

00001af4 <SPIM0_SPIS0_TWIM0_TWIS0_SPI0_TWI0_IRQHandler>:
    1af4:	b5f0      	push	{r4, r5, r6, r7, lr}
    1af6:	4b7e      	ldr	r3, [pc, #504]	; (1cf0 <SPIM0_SPIS0_TWIM0_TWIS0_SPI0_TWI0_IRQHandler+0x1fc>)
    1af8:	f8d3 2124 	ldr.w	r2, [r3, #292]	; 0x124
    1afc:	b08d      	sub	sp, #52	; 0x34
    1afe:	b15a      	cbz	r2, 1b18 <SPIM0_SPIS0_TWIM0_TWIS0_SPI0_TWI0_IRQHandler+0x24>
    1b00:	2200      	movs	r2, #0
    1b02:	f8c3 2124 	str.w	r2, [r3, #292]	; 0x124
    1b06:	f8d3 2124 	ldr.w	r2, [r3, #292]	; 0x124
    1b0a:	9205      	str	r2, [sp, #20]
    1b0c:	9a05      	ldr	r2, [sp, #20]
    1b0e:	f8d3 2104 	ldr.w	r2, [r3, #260]	; 0x104
    1b12:	2a00      	cmp	r2, #0
    1b14:	f000 8085 	beq.w	1c22 <SPIM0_SPIS0_TWIM0_TWIS0_SPI0_TWI0_IRQHandler+0x12e>
    1b18:	4d75      	ldr	r5, [pc, #468]	; (1cf0 <SPIM0_SPIS0_TWIM0_TWIS0_SPI0_TWI0_IRQHandler+0x1fc>)
    1b1a:	4c76      	ldr	r4, [pc, #472]	; (1cf4 <SPIM0_SPIS0_TWIM0_TWIS0_SPI0_TWI0_IRQHandler+0x200>)
    1b1c:	f8d5 3104 	ldr.w	r3, [r5, #260]	; 0x104
    1b20:	2b00      	cmp	r3, #0
    1b22:	d037      	beq.n	1b94 <SPIM0_SPIS0_TWIM0_TWIS0_SPI0_TWI0_IRQHandler+0xa0>
    1b24:	2300      	movs	r3, #0
    1b26:	f8c5 3104 	str.w	r3, [r5, #260]	; 0x104
    1b2a:	6a26      	ldr	r6, [r4, #32]
    1b2c:	f8d5 3104 	ldr.w	r3, [r5, #260]	; 0x104
    1b30:	9304      	str	r3, [sp, #16]
    1b32:	0677      	lsls	r7, r6, #25
    1b34:	9b04      	ldr	r3, [sp, #16]
    1b36:	d404      	bmi.n	1b42 <SPIM0_SPIS0_TWIM0_TWIS0_SPI0_TWI0_IRQHandler+0x4e>
    1b38:	f894 302e 	ldrb.w	r3, [r4, #46]	; 0x2e
    1b3c:	2b00      	cmp	r3, #0
    1b3e:	f000 80a5 	beq.w	1c8c <SPIM0_SPIS0_TWIM0_TWIS0_SPI0_TWI0_IRQHandler+0x198>
    1b42:	f016 0504 	ands.w	r5, r6, #4
    1b46:	d156      	bne.n	1bf6 <SPIM0_SPIS0_TWIM0_TWIS0_SPI0_TWI0_IRQHandler+0x102>
    1b48:	4f6b      	ldr	r7, [pc, #428]	; (1cf8 <SPIM0_SPIS0_TWIM0_TWIS0_SPI0_TWI0_IRQHandler+0x204>)
    1b4a:	f8df c1a4 	ldr.w	ip, [pc, #420]	; 1cf0 <SPIM0_SPIS0_TWIM0_TWIS0_SPI0_TWI0_IRQHandler+0x1fc>
    1b4e:	cf0f      	ldmia	r7!, {r0, r1, r2, r3}
    1b50:	ae07      	add	r6, sp, #28
    1b52:	c60f      	stmia	r6!, {r0, r1, r2, r3}
    1b54:	683b      	ldr	r3, [r7, #0]
    1b56:	6033      	str	r3, [r6, #0]
    1b58:	f8cc 5160 	str.w	r5, [ip, #352]	; 0x160
    1b5c:	f8dc 3160 	ldr.w	r3, [ip, #352]	; 0x160
    1b60:	9302      	str	r3, [sp, #8]
    1b62:	9b02      	ldr	r3, [sp, #8]
    1b64:	f8cc 515c 	str.w	r5, [ip, #348]	; 0x15c
    1b68:	f8dc 315c 	ldr.w	r3, [ip, #348]	; 0x15c
    1b6c:	f894 6030 	ldrb.w	r6, [r4, #48]	; 0x30
    1b70:	9303      	str	r3, [sp, #12]
    1b72:	9b03      	ldr	r3, [sp, #12]
    1b74:	2e00      	cmp	r6, #0
    1b76:	f040 8084 	bne.w	1c82 <SPIM0_SPIS0_TWIM0_TWIS0_SPI0_TWI0_IRQHandler+0x18e>
    1b7a:	4b5d      	ldr	r3, [pc, #372]	; (1cf0 <SPIM0_SPIS0_TWIM0_TWIS0_SPI0_TWI0_IRQHandler+0x1fc>)
    1b7c:	2200      	movs	r2, #0
    1b7e:	f8c3 2200 	str.w	r2, [r3, #512]	; 0x200
    1b82:	60a2      	str	r2, [r4, #8]
    1b84:	4a5d      	ldr	r2, [pc, #372]	; (1cfc <SPIM0_SPIS0_TWIM0_TWIS0_SPI0_TWI0_IRQHandler+0x208>)
    1b86:	f8c3 2308 	str.w	r2, [r3, #776]	; 0x308
    1b8a:	4b5d      	ldr	r3, [pc, #372]	; (1d00 <SPIM0_SPIS0_TWIM0_TWIS0_SPI0_TWI0_IRQHandler+0x20c>)
    1b8c:	2208      	movs	r2, #8
    1b8e:	f8c3 2180 	str.w	r2, [r3, #384]	; 0x180
    1b92:	e032      	b.n	1bfa <SPIM0_SPIS0_TWIM0_TWIS0_SPI0_TWI0_IRQHandler+0x106>
    1b94:	f8c5 3148 	str.w	r3, [r5, #328]	; 0x148
    1b98:	f8d5 2148 	ldr.w	r2, [r5, #328]	; 0x148
    1b9c:	7b23      	ldrb	r3, [r4, #12]
    1b9e:	9201      	str	r2, [sp, #4]
    1ba0:	9a01      	ldr	r2, [sp, #4]
    1ba2:	2b00      	cmp	r3, #0
    1ba4:	f040 8085 	bne.w	1cb2 <SPIM0_SPIS0_TWIM0_TWIS0_SPI0_TWI0_IRQHandler+0x1be>
    1ba8:	f104 0e0c 	add.w	lr, r4, #12
    1bac:	e8be 000f 	ldmia.w	lr!, {r0, r1, r2, r3}
    1bb0:	f10d 0c1c 	add.w	ip, sp, #28
    1bb4:	e8ac 000f 	stmia.w	ip!, {r0, r1, r2, r3}
    1bb8:	f894 6030 	ldrb.w	r6, [r4, #48]	; 0x30
    1bbc:	f8de 3000 	ldr.w	r3, [lr]
    1bc0:	f8cc 3000 	str.w	r3, [ip]
    1bc4:	2e00      	cmp	r6, #0
    1bc6:	d045      	beq.n	1c54 <SPIM0_SPIS0_TWIM0_TWIS0_SPI0_TWI0_IRQHandler+0x160>
    1bc8:	6a25      	ldr	r5, [r4, #32]
    1bca:	f005 0504 	and.w	r5, r5, #4
    1bce:	4a48      	ldr	r2, [pc, #288]	; (1cf0 <SPIM0_SPIS0_TWIM0_TWIS0_SPI0_TWI0_IRQHandler+0x1fc>)
    1bd0:	f8d2 34c4 	ldr.w	r3, [r2, #1220]	; 0x4c4
    1bd4:	f8c2 34c4 	str.w	r3, [r2, #1220]	; 0x4c4
    1bd8:	0798      	lsls	r0, r3, #30
    1bda:	d560      	bpl.n	1c9e <SPIM0_SPIS0_TWIM0_TWIS0_SPI0_TWI0_IRQHandler+0x1aa>
    1bdc:	2301      	movs	r3, #1
    1bde:	f88d 3018 	strb.w	r3, [sp, #24]
    1be2:	b115      	cbz	r5, 1bea <SPIM0_SPIS0_TWIM0_TWIS0_SPI0_TWI0_IRQHandler+0xf6>
    1be4:	f894 302e 	ldrb.w	r3, [r4, #46]	; 0x2e
    1be8:	b11b      	cbz	r3, 1bf2 <SPIM0_SPIS0_TWIM0_TWIS0_SPI0_TWI0_IRQHandler+0xfe>
    1bea:	e9d4 3100 	ldrd	r3, r1, [r4]
    1bee:	a806      	add	r0, sp, #24
    1bf0:	4798      	blx	r3
    1bf2:	b00d      	add	sp, #52	; 0x34
    1bf4:	bdf0      	pop	{r4, r5, r6, r7, pc}
    1bf6:	f894 6030 	ldrb.w	r6, [r4, #48]	; 0x30
    1bfa:	4a3d      	ldr	r2, [pc, #244]	; (1cf0 <SPIM0_SPIS0_TWIM0_TWIS0_SPI0_TWI0_IRQHandler+0x1fc>)
    1bfc:	f8d2 34c4 	ldr.w	r3, [r2, #1220]	; 0x4c4
    1c00:	f8c2 34c4 	str.w	r3, [r2, #1220]	; 0x4c4
    1c04:	0799      	lsls	r1, r3, #30
    1c06:	d40a      	bmi.n	1c1e <SPIM0_SPIS0_TWIM0_TWIS0_SPI0_TWI0_IRQHandler+0x12a>
    1c08:	075a      	lsls	r2, r3, #29
    1c0a:	d54b      	bpl.n	1ca4 <SPIM0_SPIS0_TWIM0_TWIS0_SPI0_TWI0_IRQHandler+0x1b0>
    1c0c:	2302      	movs	r3, #2
    1c0e:	f88d 3018 	strb.w	r3, [sp, #24]
    1c12:	2e00      	cmp	r6, #0
    1c14:	d1e5      	bne.n	1be2 <SPIM0_SPIS0_TWIM0_TWIS0_SPI0_TWI0_IRQHandler+0xee>
    1c16:	2300      	movs	r3, #0
    1c18:	f884 302f 	strb.w	r3, [r4, #47]	; 0x2f
    1c1c:	e7e1      	b.n	1be2 <SPIM0_SPIS0_TWIM0_TWIS0_SPI0_TWI0_IRQHandler+0xee>
    1c1e:	2301      	movs	r3, #1
    1c20:	e7f5      	b.n	1c0e <SPIM0_SPIS0_TWIM0_TWIS0_SPI0_TWI0_IRQHandler+0x11a>
    1c22:	4c34      	ldr	r4, [pc, #208]	; (1cf4 <SPIM0_SPIS0_TWIM0_TWIS0_SPI0_TWI0_IRQHandler+0x200>)
    1c24:	2202      	movs	r2, #2
    1c26:	68a1      	ldr	r1, [r4, #8]
    1c28:	f8c3 1308 	str.w	r1, [r3, #776]	; 0x308
    1c2c:	60a2      	str	r2, [r4, #8]
    1c2e:	68a2      	ldr	r2, [r4, #8]
    1c30:	f8c3 2304 	str.w	r2, [r3, #772]	; 0x304
    1c34:	f8d3 2160 	ldr.w	r2, [r3, #352]	; 0x160
    1c38:	b11a      	cbz	r2, 1c42 <SPIM0_SPIS0_TWIM0_TWIS0_SPI0_TWI0_IRQHandler+0x14e>
    1c3a:	f8d3 3200 	ldr.w	r3, [r3, #512]	; 0x200
    1c3e:	059b      	lsls	r3, r3, #22
    1c40:	d403      	bmi.n	1c4a <SPIM0_SPIS0_TWIM0_TWIS0_SPI0_TWI0_IRQHandler+0x156>
    1c42:	4b2b      	ldr	r3, [pc, #172]	; (1cf0 <SPIM0_SPIS0_TWIM0_TWIS0_SPI0_TWI0_IRQHandler+0x1fc>)
    1c44:	2201      	movs	r2, #1
    1c46:	621a      	str	r2, [r3, #32]
    1c48:	615a      	str	r2, [r3, #20]
    1c4a:	2301      	movs	r3, #1
    1c4c:	f884 302e 	strb.w	r3, [r4, #46]	; 0x2e
    1c50:	b00d      	add	sp, #52	; 0x34
    1c52:	bdf0      	pop	{r4, r5, r6, r7, pc}
    1c54:	4b2a      	ldr	r3, [pc, #168]	; (1d00 <SPIM0_SPIS0_TWIM0_TWIS0_SPI0_TWI0_IRQHandler+0x20c>)
    1c56:	4a29      	ldr	r2, [pc, #164]	; (1cfc <SPIM0_SPIS0_TWIM0_TWIS0_SPI0_TWI0_IRQHandler+0x208>)
    1c58:	f8c5 6200 	str.w	r6, [r5, #512]	; 0x200
    1c5c:	60a6      	str	r6, [r4, #8]
    1c5e:	f8c5 2308 	str.w	r2, [r5, #776]	; 0x308
    1c62:	2208      	movs	r2, #8
    1c64:	f8c3 2180 	str.w	r2, [r3, #384]	; 0x180
    1c68:	f8d5 34c4 	ldr.w	r3, [r5, #1220]	; 0x4c4
    1c6c:	6a22      	ldr	r2, [r4, #32]
    1c6e:	f8c5 34c4 	str.w	r3, [r5, #1220]	; 0x4c4
    1c72:	0798      	lsls	r0, r3, #30
    1c74:	f002 0504 	and.w	r5, r2, #4
    1c78:	d52f      	bpl.n	1cda <SPIM0_SPIS0_TWIM0_TWIS0_SPI0_TWI0_IRQHandler+0x1e6>
    1c7a:	2301      	movs	r3, #1
    1c7c:	f88d 3018 	strb.w	r3, [sp, #24]
    1c80:	e7c9      	b.n	1c16 <SPIM0_SPIS0_TWIM0_TWIS0_SPI0_TWI0_IRQHandler+0x122>
    1c82:	f894 302e 	ldrb.w	r3, [r4, #46]	; 0x2e
    1c86:	2b00      	cmp	r3, #0
    1c88:	d0a1      	beq.n	1bce <SPIM0_SPIS0_TWIM0_TWIS0_SPI0_TWI0_IRQHandler+0xda>
    1c8a:	e776      	b.n	1b7a <SPIM0_SPIS0_TWIM0_TWIS0_SPI0_TWI0_IRQHandler+0x86>
    1c8c:	4621      	mov	r1, r4
    1c8e:	4628      	mov	r0, r5
    1c90:	f7ff fef8 	bl	1a84 <xfer_completeness_check>
    1c94:	f080 0001 	eor.w	r0, r0, #1
    1c98:	f884 002e 	strb.w	r0, [r4, #46]	; 0x2e
    1c9c:	e751      	b.n	1b42 <SPIM0_SPIS0_TWIM0_TWIS0_SPI0_TWI0_IRQHandler+0x4e>
    1c9e:	075a      	lsls	r2, r3, #29
    1ca0:	d421      	bmi.n	1ce6 <SPIM0_SPIS0_TWIM0_TWIS0_SPI0_TWI0_IRQHandler+0x1f2>
    1ca2:	2601      	movs	r6, #1
    1ca4:	07df      	lsls	r7, r3, #31
    1ca6:	d416      	bmi.n	1cd6 <SPIM0_SPIS0_TWIM0_TWIS0_SPI0_TWI0_IRQHandler+0x1e2>
    1ca8:	f894 302e 	ldrb.w	r3, [r4, #46]	; 0x2e
    1cac:	009b      	lsls	r3, r3, #2
    1cae:	b2db      	uxtb	r3, r3
    1cb0:	e7ad      	b.n	1c0e <SPIM0_SPIS0_TWIM0_TWIS0_SPI0_TWI0_IRQHandler+0x11a>
    1cb2:	4b12      	ldr	r3, [pc, #72]	; (1cfc <SPIM0_SPIS0_TWIM0_TWIS0_SPI0_TWI0_IRQHandler+0x208>)
    1cb4:	f44f 7100 	mov.w	r1, #512	; 0x200
    1cb8:	f240 2202 	movw	r2, #514	; 0x202
    1cbc:	f8c5 1200 	str.w	r1, [r5, #512]	; 0x200
    1cc0:	60a2      	str	r2, [r4, #8]
    1cc2:	f8c5 3308 	str.w	r3, [r5, #776]	; 0x308
    1cc6:	68a2      	ldr	r2, [r4, #8]
    1cc8:	f8c5 2304 	str.w	r2, [r5, #772]	; 0x304
    1ccc:	2301      	movs	r3, #1
    1cce:	60ab      	str	r3, [r5, #8]
    1cd0:	622b      	str	r3, [r5, #32]
    1cd2:	b00d      	add	sp, #52	; 0x34
    1cd4:	bdf0      	pop	{r4, r5, r6, r7, pc}
    1cd6:	2303      	movs	r3, #3
    1cd8:	e799      	b.n	1c0e <SPIM0_SPIS0_TWIM0_TWIS0_SPI0_TWI0_IRQHandler+0x11a>
    1cda:	0759      	lsls	r1, r3, #29
    1cdc:	d5e2      	bpl.n	1ca4 <SPIM0_SPIS0_TWIM0_TWIS0_SPI0_TWI0_IRQHandler+0x1b0>
    1cde:	2302      	movs	r3, #2
    1ce0:	f88d 3018 	strb.w	r3, [sp, #24]
    1ce4:	e797      	b.n	1c16 <SPIM0_SPIS0_TWIM0_TWIS0_SPI0_TWI0_IRQHandler+0x122>
    1ce6:	2302      	movs	r3, #2
    1ce8:	f88d 3018 	strb.w	r3, [sp, #24]
    1cec:	e779      	b.n	1be2 <SPIM0_SPIS0_TWIM0_TWIS0_SPI0_TWI0_IRQHandler+0xee>
    1cee:	bf00      	nop
    1cf0:	40003000 	.word	0x40003000
    1cf4:	20000644 	.word	0x20000644
    1cf8:	20000650 	.word	0x20000650
    1cfc:	019c0202 	.word	0x019c0202
    1d00:	e000e100 	.word	0xe000e100

00001d04 <nrfx_twim_init>:
    1d04:	e92d 4ff8 	stmdb	sp!, {r3, r4, r5, r6, r7, r8, r9, sl, fp, lr}
    1d08:	f890 a004 	ldrb.w	sl, [r0, #4]
    1d0c:	f8df 80e8 	ldr.w	r8, [pc, #232]	; 1df8 <nrfx_twim_init+0xf4>
    1d10:	2734      	movs	r7, #52	; 0x34
    1d12:	fb07 f70a 	mul.w	r7, r7, sl
    1d16:	eb08 0607 	add.w	r6, r8, r7
    1d1a:	469b      	mov	fp, r3
    1d1c:	f896 302d 	ldrb.w	r3, [r6, #45]	; 0x2d
    1d20:	2b00      	cmp	r3, #0
    1d22:	d156      	bne.n	1dd2 <nrfx_twim_init+0xce>
    1d24:	4605      	mov	r5, r0
    1d26:	460c      	mov	r4, r1
    1d28:	6800      	ldr	r0, [r0, #0]
    1d2a:	4930      	ldr	r1, [pc, #192]	; (1dec <nrfx_twim_init+0xe8>)
    1d2c:	4691      	mov	r9, r2
    1d2e:	f7ff fe7f 	bl	1a30 <nrfx_prs_acquire>
    1d32:	2800      	cmp	r0, #0
    1d34:	d157      	bne.n	1de6 <nrfx_twim_init+0xe2>
    1d36:	f848 9007 	str.w	r9, [r8, r7]
    1d3a:	60b0      	str	r0, [r6, #8]
    1d3c:	f8c6 b004 	str.w	fp, [r6, #4]
    1d40:	f886 002f 	strb.w	r0, [r6, #47]	; 0x2f
    1d44:	f886 0030 	strb.w	r0, [r6, #48]	; 0x30
    1d48:	7b63      	ldrb	r3, [r4, #13]
    1d4a:	f886 3032 	strb.w	r3, [r6, #50]	; 0x32
    1d4e:	6823      	ldr	r3, [r4, #0]
    1d50:	f04f 42a0 	mov.w	r2, #1342177280	; 0x50000000
    1d54:	f503 73e0 	add.w	r3, r3, #448	; 0x1c0
    1d58:	f240 610c 	movw	r1, #1548	; 0x60c
    1d5c:	f842 1023 	str.w	r1, [r2, r3, lsl #2]
    1d60:	6863      	ldr	r3, [r4, #4]
    1d62:	f503 73e0 	add.w	r3, r3, #448	; 0x1c0
    1d66:	f842 1023 	str.w	r1, [r2, r3, lsl #2]
    1d6a:	e9d4 2100 	ldrd	r2, r1, [r4]
    1d6e:	682b      	ldr	r3, [r5, #0]
    1d70:	f8c3 2508 	str.w	r2, [r3, #1288]	; 0x508
    1d74:	f8c3 150c 	str.w	r1, [r3, #1292]	; 0x50c
    1d78:	68a2      	ldr	r2, [r4, #8]
    1d7a:	f8c3 2524 	str.w	r2, [r3, #1316]	; 0x524
    1d7e:	f1b9 0f00 	cmp.w	r9, #0
    1d82:	d01e      	beq.n	1dc2 <nrfx_twim_init+0xbe>
    1d84:	682a      	ldr	r2, [r5, #0]
    1d86:	7b23      	ldrb	r3, [r4, #12]
    1d88:	f342 3107 	sbfx	r1, r2, #12, #8
    1d8c:	2900      	cmp	r1, #0
    1d8e:	ea4f 3212 	mov.w	r2, r2, lsr #12
    1d92:	db21      	blt.n	1dd8 <nrfx_twim_init+0xd4>
    1d94:	f101 4160 	add.w	r1, r1, #3758096384	; 0xe0000000
    1d98:	015b      	lsls	r3, r3, #5
    1d9a:	f501 4161 	add.w	r1, r1, #57600	; 0xe100
    1d9e:	b2db      	uxtb	r3, r3
    1da0:	f881 3300 	strb.w	r3, [r1, #768]	; 0x300
    1da4:	682b      	ldr	r3, [r5, #0]
    1da6:	0b1a      	lsrs	r2, r3, #12
    1da8:	f343 3307 	sbfx	r3, r3, #12, #8
    1dac:	2b00      	cmp	r3, #0
    1dae:	db08      	blt.n	1dc2 <nrfx_twim_init+0xbe>
    1db0:	4c0f      	ldr	r4, [pc, #60]	; (1df0 <nrfx_twim_init+0xec>)
    1db2:	095b      	lsrs	r3, r3, #5
    1db4:	2101      	movs	r1, #1
    1db6:	f002 021f 	and.w	r2, r2, #31
    1dba:	fa01 f202 	lsl.w	r2, r1, r2
    1dbe:	f844 2023 	str.w	r2, [r4, r3, lsl #2]
    1dc2:	2334      	movs	r3, #52	; 0x34
    1dc4:	fb03 880a 	mla	r8, r3, sl, r8
    1dc8:	2301      	movs	r3, #1
    1dca:	f888 302d 	strb.w	r3, [r8, #45]	; 0x2d
    1dce:	e8bd 8ff8 	ldmia.w	sp!, {r3, r4, r5, r6, r7, r8, r9, sl, fp, pc}
    1dd2:	2008      	movs	r0, #8
    1dd4:	e8bd 8ff8 	ldmia.w	sp!, {r3, r4, r5, r6, r7, r8, r9, sl, fp, pc}
    1dd8:	4906      	ldr	r1, [pc, #24]	; (1df4 <nrfx_twim_init+0xf0>)
    1dda:	f002 020f 	and.w	r2, r2, #15
    1dde:	015b      	lsls	r3, r3, #5
    1de0:	b2db      	uxtb	r3, r3
    1de2:	548b      	strb	r3, [r1, r2]
    1de4:	e7de      	b.n	1da4 <nrfx_twim_init+0xa0>
    1de6:	2011      	movs	r0, #17
    1de8:	e8bd 8ff8 	ldmia.w	sp!, {r3, r4, r5, r6, r7, r8, r9, sl, fp, pc}
    1dec:	00001af5 	.word	0x00001af5
    1df0:	e000e100 	.word	0xe000e100
    1df4:	e000ed14 	.word	0xe000ed14
    1df8:	20000644 	.word	0x20000644

00001dfc <nrfx_twim_enable>:
    1dfc:	7902      	ldrb	r2, [r0, #4]
    1dfe:	4b06      	ldr	r3, [pc, #24]	; (1e18 <nrfx_twim_enable+0x1c>)
    1e00:	6801      	ldr	r1, [r0, #0]
    1e02:	f04f 0c34 	mov.w	ip, #52	; 0x34
    1e06:	fb0c 3302 	mla	r3, ip, r2, r3
    1e0a:	2006      	movs	r0, #6
    1e0c:	2202      	movs	r2, #2
    1e0e:	f8c1 0500 	str.w	r0, [r1, #1280]	; 0x500
    1e12:	f883 202d 	strb.w	r2, [r3, #45]	; 0x2d
    1e16:	4770      	bx	lr
    1e18:	20000644 	.word	0x20000644

00001e1c <nrfx_twim_tx>:
    1e1c:	e92d 43f0 	stmdb	sp!, {r4, r5, r6, r7, r8, r9, lr}
    1e20:	4e75      	ldr	r6, [pc, #468]	; (1ff8 <nrfx_twim_tx+0x1dc>)
    1e22:	f890 c004 	ldrb.w	ip, [r0, #4]
    1e26:	6804      	ldr	r4, [r0, #0]
    1e28:	2034      	movs	r0, #52	; 0x34
    1e2a:	fb00 600c 	mla	r0, r0, ip, r6
    1e2e:	2500      	movs	r5, #0
    1e30:	b089      	sub	sp, #36	; 0x24
    1e32:	f880 502e 	strb.w	r5, [r0, #46]	; 0x2e
    1e36:	f002 4560 	and.w	r5, r2, #3758096384	; 0xe0000000
    1e3a:	f1b5 5f00 	cmp.w	r5, #536870912	; 0x20000000
    1e3e:	f89d e040 	ldrb.w	lr, [sp, #64]	; 0x40
    1e42:	d163      	bne.n	1f0c <nrfx_twim_tx+0xf0>
    1e44:	4d6d      	ldr	r5, [pc, #436]	; (1ffc <nrfx_twim_tx+0x1e0>)
    1e46:	f8c4 5308 	str.w	r5, [r4, #776]	; 0x308
    1e4a:	f890 702f 	ldrb.w	r7, [r0, #47]	; 0x2f
    1e4e:	f007 05ff 	and.w	r5, r7, #255	; 0xff
    1e52:	2f00      	cmp	r7, #0
    1e54:	f040 80b4 	bne.w	1fc0 <nrfx_twim_tx+0x1a4>
    1e58:	ea4f 174e 	mov.w	r7, lr, lsl #5
    1e5c:	eb0c 0e4c 	add.w	lr, ip, ip, lsl #1
    1e60:	eb0c 0e8e 	add.w	lr, ip, lr, lsl #2
    1e64:	eb06 088e 	add.w	r8, r6, lr, lsl #2
    1e68:	f04f 0901 	mov.w	r9, #1
    1e6c:	f880 902f 	strb.w	r9, [r0, #47]	; 0x2f
    1e70:	f888 500c 	strb.w	r5, [r8, #12]
    1e74:	f8c4 1588 	str.w	r1, [r4, #1416]	; 0x588
    1e78:	f8c4 5104 	str.w	r5, [r4, #260]	; 0x104
    1e7c:	7341      	strb	r1, [r0, #13]
    1e7e:	f8d4 1104 	ldr.w	r1, [r4, #260]	; 0x104
    1e82:	9101      	str	r1, [sp, #4]
    1e84:	9901      	ldr	r1, [sp, #4]
    1e86:	f8c4 5124 	str.w	r5, [r4, #292]	; 0x124
    1e8a:	f8d4 1124 	ldr.w	r1, [r4, #292]	; 0x124
    1e8e:	9102      	str	r1, [sp, #8]
    1e90:	9902      	ldr	r1, [sp, #8]
    1e92:	f8c4 5160 	str.w	r5, [r4, #352]	; 0x160
    1e96:	f8d4 1160 	ldr.w	r1, [r4, #352]	; 0x160
    1e9a:	9103      	str	r1, [sp, #12]
    1e9c:	9903      	ldr	r1, [sp, #12]
    1e9e:	f8c4 5148 	str.w	r5, [r4, #328]	; 0x148
    1ea2:	f8d4 1148 	ldr.w	r1, [r4, #328]	; 0x148
    1ea6:	9104      	str	r1, [sp, #16]
    1ea8:	9904      	ldr	r1, [sp, #16]
    1eaa:	f880 5030 	strb.w	r5, [r0, #48]	; 0x30
    1eae:	f8c4 5550 	str.w	r5, [r4, #1360]	; 0x550
    1eb2:	e9c0 3504 	strd	r3, r5, [r0, #16]
    1eb6:	f8c4 5540 	str.w	r5, [r4, #1344]	; 0x540
    1eba:	e9c0 2506 	strd	r2, r5, [r0, #24]
    1ebe:	f8c4 2544 	str.w	r2, [r4, #1348]	; 0x544
    1ec2:	ea4f 0e8e 	mov.w	lr, lr, lsl #2
    1ec6:	6207      	str	r7, [r0, #32]
    1ec8:	f8c4 3548 	str.w	r3, [r4, #1352]	; 0x548
    1ecc:	2f00      	cmp	r7, #0
    1ece:	d154      	bne.n	1f7a <nrfx_twim_tx+0x15e>
    1ed0:	f44f 7300 	mov.w	r3, #512	; 0x200
    1ed4:	f8c4 3200 	str.w	r3, [r4, #512]	; 0x200
    1ed8:	2302      	movs	r3, #2
    1eda:	6083      	str	r3, [r0, #8]
    1edc:	2334      	movs	r3, #52	; 0x34
    1ede:	2101      	movs	r1, #1
    1ee0:	fb03 f30c 	mul.w	r3, r3, ip
    1ee4:	6221      	str	r1, [r4, #32]
    1ee6:	60a1      	str	r1, [r4, #8]
    1ee8:	58f2      	ldr	r2, [r6, r3]
    1eea:	18f5      	adds	r5, r6, r3
    1eec:	b1e2      	cbz	r2, 1f28 <nrfx_twim_tx+0x10c>
    1eee:	68ab      	ldr	r3, [r5, #8]
    1ef0:	f043 0302 	orr.w	r3, r3, #2
    1ef4:	60ab      	str	r3, [r5, #8]
    1ef6:	68ab      	ldr	r3, [r5, #8]
    1ef8:	f443 7300 	orr.w	r3, r3, #512	; 0x200
    1efc:	60ab      	str	r3, [r5, #8]
    1efe:	68ab      	ldr	r3, [r5, #8]
    1f00:	f8c4 3304 	str.w	r3, [r4, #772]	; 0x304
    1f04:	2000      	movs	r0, #0
    1f06:	b009      	add	sp, #36	; 0x24
    1f08:	e8bd 83f0 	ldmia.w	sp!, {r4, r5, r6, r7, r8, r9, pc}
    1f0c:	2010      	movs	r0, #16
    1f0e:	b009      	add	sp, #36	; 0x24
    1f10:	e8bd 83f0 	ldmia.w	sp!, {r4, r5, r6, r7, r8, r9, pc}
    1f14:	05c3      	lsls	r3, r0, #23
    1f16:	6221      	str	r1, [r4, #32]
    1f18:	6161      	str	r1, [r4, #20]
    1f1a:	d505      	bpl.n	1f28 <nrfx_twim_tx+0x10c>
    1f1c:	f8c4 2148 	str.w	r2, [r4, #328]	; 0x148
    1f20:	f8d4 3148 	ldr.w	r3, [r4, #328]	; 0x148
    1f24:	9306      	str	r3, [sp, #24]
    1f26:	9b06      	ldr	r3, [sp, #24]
    1f28:	f8d4 3148 	ldr.w	r3, [r4, #328]	; 0x148
    1f2c:	b9bb      	cbnz	r3, 1f5e <nrfx_twim_tx+0x142>
    1f2e:	f8d4 3104 	ldr.w	r3, [r4, #260]	; 0x104
    1f32:	b9bb      	cbnz	r3, 1f64 <nrfx_twim_tx+0x148>
    1f34:	f8d4 0124 	ldr.w	r0, [r4, #292]	; 0x124
    1f38:	2800      	cmp	r0, #0
    1f3a:	d0f5      	beq.n	1f28 <nrfx_twim_tx+0x10c>
    1f3c:	f8c4 2124 	str.w	r2, [r4, #292]	; 0x124
    1f40:	f8d4 0124 	ldr.w	r0, [r4, #292]	; 0x124
    1f44:	9007      	str	r0, [sp, #28]
    1f46:	9807      	ldr	r0, [sp, #28]
    1f48:	f8d4 5160 	ldr.w	r5, [r4, #352]	; 0x160
    1f4c:	f8d4 0200 	ldr.w	r0, [r4, #512]	; 0x200
    1f50:	b9dd      	cbnz	r5, 1f8a <nrfx_twim_tx+0x16e>
    1f52:	6221      	str	r1, [r4, #32]
    1f54:	6161      	str	r1, [r4, #20]
    1f56:	f8d4 3148 	ldr.w	r3, [r4, #328]	; 0x148
    1f5a:	2b00      	cmp	r3, #0
    1f5c:	d0e7      	beq.n	1f2e <nrfx_twim_tx+0x112>
    1f5e:	f8d4 3104 	ldr.w	r3, [r4, #260]	; 0x104
    1f62:	b12b      	cbz	r3, 1f70 <nrfx_twim_tx+0x154>
    1f64:	f8c4 2104 	str.w	r2, [r4, #260]	; 0x104
    1f68:	f8d4 3104 	ldr.w	r3, [r4, #260]	; 0x104
    1f6c:	9305      	str	r3, [sp, #20]
    1f6e:	9b05      	ldr	r3, [sp, #20]
    1f70:	f8d4 3124 	ldr.w	r3, [r4, #292]	; 0x124
    1f74:	b17b      	cbz	r3, 1f96 <nrfx_twim_tx+0x17a>
    1f76:	2301      	movs	r3, #1
    1f78:	e7e0      	b.n	1f3c <nrfx_twim_tx+0x120>
    1f7a:	f44f 7380 	mov.w	r3, #256	; 0x100
    1f7e:	f8c4 3200 	str.w	r3, [r4, #512]	; 0x200
    1f82:	f44f 2380 	mov.w	r3, #262144	; 0x40000
    1f86:	6083      	str	r3, [r0, #8]
    1f88:	e7a8      	b.n	1edc <nrfx_twim_tx+0xc0>
    1f8a:	0587      	lsls	r7, r0, #22
    1f8c:	d5c2      	bpl.n	1f14 <nrfx_twim_tx+0xf8>
    1f8e:	05c5      	lsls	r5, r0, #23
    1f90:	d4c4      	bmi.n	1f1c <nrfx_twim_tx+0x100>
    1f92:	2b00      	cmp	r3, #0
    1f94:	d0c8      	beq.n	1f28 <nrfx_twim_tx+0x10c>
    1f96:	2334      	movs	r3, #52	; 0x34
    1f98:	f8d4 24c4 	ldr.w	r2, [r4, #1220]	; 0x4c4
    1f9c:	f8c4 24c4 	str.w	r2, [r4, #1220]	; 0x4c4
    1fa0:	fb03 630c 	mla	r3, r3, ip, r6
    1fa4:	2100      	movs	r1, #0
    1fa6:	f883 102f 	strb.w	r1, [r3, #47]	; 0x2f
    1faa:	b982      	cbnz	r2, 1fce <nrfx_twim_tx+0x1b2>
    1fac:	eb06 010e 	add.w	r1, r6, lr
    1fb0:	4620      	mov	r0, r4
    1fb2:	f7ff fd67 	bl	1a84 <xfer_completeness_check>
    1fb6:	2800      	cmp	r0, #0
    1fb8:	bf14      	ite	ne
    1fba:	2000      	movne	r0, #0
    1fbc:	2003      	moveq	r0, #3
    1fbe:	e7a6      	b.n	1f0e <nrfx_twim_tx+0xf2>
    1fc0:	6883      	ldr	r3, [r0, #8]
    1fc2:	f8c4 3304 	str.w	r3, [r4, #772]	; 0x304
    1fc6:	2011      	movs	r0, #17
    1fc8:	b009      	add	sp, #36	; 0x24
    1fca:	e8bd 83f0 	ldmia.w	sp!, {r4, r5, r6, r7, r8, r9, pc}
    1fce:	f012 0f01 	tst.w	r2, #1
    1fd2:	bf18      	it	ne
    1fd4:	f44f 4002 	movne.w	r0, #33280	; 0x8200
    1fd8:	f248 2301 	movw	r3, #33281	; 0x8201
    1fdc:	bf08      	it	eq
    1fde:	2003      	moveq	r0, #3
    1fe0:	f012 0f02 	tst.w	r2, #2
    1fe4:	bf18      	it	ne
    1fe6:	4618      	movne	r0, r3
    1fe8:	f248 2302 	movw	r3, #33282	; 0x8202
    1fec:	f012 0f04 	tst.w	r2, #4
    1ff0:	bf18      	it	ne
    1ff2:	4618      	movne	r0, r3
    1ff4:	e78b      	b.n	1f0e <nrfx_twim_tx+0xf2>
    1ff6:	bf00      	nop
    1ff8:	20000644 	.word	0x20000644
    1ffc:	019c0202 	.word	0x019c0202

00002000 <nrfx_twim_rx>:
    2000:	e92d 43f0 	stmdb	sp!, {r4, r5, r6, r7, r8, r9, lr}
    2004:	7905      	ldrb	r5, [r0, #4]
    2006:	4f71      	ldr	r7, [pc, #452]	; (21cc <nrfx_twim_rx+0x1cc>)
    2008:	6804      	ldr	r4, [r0, #0]
    200a:	f04f 0e34 	mov.w	lr, #52	; 0x34
    200e:	fb0e fe05 	mul.w	lr, lr, r5
    2012:	eb07 0c0e 	add.w	ip, r7, lr
    2016:	2000      	movs	r0, #0
    2018:	f88c 002e 	strb.w	r0, [ip, #46]	; 0x2e
    201c:	f002 4060 	and.w	r0, r2, #3758096384	; 0xe0000000
    2020:	f1b0 5f00 	cmp.w	r0, #536870912	; 0x20000000
    2024:	b089      	sub	sp, #36	; 0x24
    2026:	f040 80ba 	bne.w	219e <nrfx_twim_rx+0x19e>
    202a:	4869      	ldr	r0, [pc, #420]	; (21d0 <nrfx_twim_rx+0x1d0>)
    202c:	f8c4 0308 	str.w	r0, [r4, #776]	; 0x308
    2030:	f89c 602f 	ldrb.w	r6, [ip, #47]	; 0x2f
    2034:	f006 00ff 	and.w	r0, r6, #255	; 0xff
    2038:	2e00      	cmp	r6, #0
    203a:	f040 80b4 	bne.w	21a6 <nrfx_twim_rx+0x1a6>
    203e:	eb05 0645 	add.w	r6, r5, r5, lsl #1
    2042:	eb05 0686 	add.w	r6, r5, r6, lsl #2
    2046:	eb07 0986 	add.w	r9, r7, r6, lsl #2
    204a:	ea4f 0886 	mov.w	r8, r6, lsl #2
    204e:	2601      	movs	r6, #1
    2050:	f88c 602f 	strb.w	r6, [ip, #47]	; 0x2f
    2054:	f889 600c 	strb.w	r6, [r9, #12]
    2058:	f8c4 1588 	str.w	r1, [r4, #1416]	; 0x588
    205c:	f8c4 0104 	str.w	r0, [r4, #260]	; 0x104
    2060:	f88c 100d 	strb.w	r1, [ip, #13]
    2064:	f8d4 1104 	ldr.w	r1, [r4, #260]	; 0x104
    2068:	9101      	str	r1, [sp, #4]
    206a:	9901      	ldr	r1, [sp, #4]
    206c:	f8c4 0124 	str.w	r0, [r4, #292]	; 0x124
    2070:	f8d4 1124 	ldr.w	r1, [r4, #292]	; 0x124
    2074:	9102      	str	r1, [sp, #8]
    2076:	9902      	ldr	r1, [sp, #8]
    2078:	f8c4 0160 	str.w	r0, [r4, #352]	; 0x160
    207c:	f8d4 1160 	ldr.w	r1, [r4, #352]	; 0x160
    2080:	9103      	str	r1, [sp, #12]
    2082:	9903      	ldr	r1, [sp, #12]
    2084:	f8c4 0148 	str.w	r0, [r4, #328]	; 0x148
    2088:	f8d4 1148 	ldr.w	r1, [r4, #328]	; 0x148
    208c:	9104      	str	r1, [sp, #16]
    208e:	9904      	ldr	r1, [sp, #16]
    2090:	f8c4 0550 	str.w	r0, [r4, #1360]	; 0x550
    2094:	e9cc 3004 	strd	r3, r0, [ip, #16]
    2098:	f8c4 0540 	str.w	r0, [r4, #1344]	; 0x540
    209c:	f8c4 2534 	str.w	r2, [r4, #1332]	; 0x534
    20a0:	f8c4 3538 	str.w	r3, [r4, #1336]	; 0x538
    20a4:	f44f 5380 	mov.w	r3, #4096	; 0x1000
    20a8:	f8c4 3200 	str.w	r3, [r4, #512]	; 0x200
    20ac:	2302      	movs	r3, #2
    20ae:	e9cc 2006 	strd	r2, r0, [ip, #24]
    20b2:	f88c 0030 	strb.w	r0, [ip, #48]	; 0x30
    20b6:	f8cc 0020 	str.w	r0, [ip, #32]
    20ba:	f8cc 3008 	str.w	r3, [ip, #8]
    20be:	6226      	str	r6, [r4, #32]
    20c0:	6026      	str	r6, [r4, #0]
    20c2:	f857 200e 	ldr.w	r2, [r7, lr]
    20c6:	b362      	cbz	r2, 2122 <nrfx_twim_rx+0x122>
    20c8:	f8dc 3008 	ldr.w	r3, [ip, #8]
    20cc:	f043 0302 	orr.w	r3, r3, #2
    20d0:	f8cc 3008 	str.w	r3, [ip, #8]
    20d4:	f8dc 3008 	ldr.w	r3, [ip, #8]
    20d8:	f443 7300 	orr.w	r3, r3, #512	; 0x200
    20dc:	f8cc 3008 	str.w	r3, [ip, #8]
    20e0:	f8dc 3008 	ldr.w	r3, [ip, #8]
    20e4:	f8c4 3304 	str.w	r3, [r4, #772]	; 0x304
    20e8:	b009      	add	sp, #36	; 0x24
    20ea:	e8bd 83f0 	ldmia.w	sp!, {r4, r5, r6, r7, r8, r9, pc}
    20ee:	f8d4 3104 	ldr.w	r3, [r4, #260]	; 0x104
    20f2:	b12b      	cbz	r3, 2100 <nrfx_twim_rx+0x100>
    20f4:	f8c4 2104 	str.w	r2, [r4, #260]	; 0x104
    20f8:	f8d4 3104 	ldr.w	r3, [r4, #260]	; 0x104
    20fc:	9305      	str	r3, [sp, #20]
    20fe:	9b05      	ldr	r3, [sp, #20]
    2100:	f8d4 3124 	ldr.w	r3, [r4, #292]	; 0x124
    2104:	b30b      	cbz	r3, 214a <nrfx_twim_rx+0x14a>
    2106:	2301      	movs	r3, #1
    2108:	f8c4 2124 	str.w	r2, [r4, #292]	; 0x124
    210c:	f8d4 1124 	ldr.w	r1, [r4, #292]	; 0x124
    2110:	9107      	str	r1, [sp, #28]
    2112:	9907      	ldr	r1, [sp, #28]
    2114:	f8d4 0160 	ldr.w	r0, [r4, #352]	; 0x160
    2118:	f8d4 1200 	ldr.w	r1, [r4, #512]	; 0x200
    211c:	b970      	cbnz	r0, 213c <nrfx_twim_rx+0x13c>
    211e:	6226      	str	r6, [r4, #32]
    2120:	6166      	str	r6, [r4, #20]
    2122:	f8d4 3148 	ldr.w	r3, [r4, #328]	; 0x148
    2126:	2b00      	cmp	r3, #0
    2128:	d1e1      	bne.n	20ee <nrfx_twim_rx+0xee>
    212a:	f8d4 3104 	ldr.w	r3, [r4, #260]	; 0x104
    212e:	2b00      	cmp	r3, #0
    2130:	d1e0      	bne.n	20f4 <nrfx_twim_rx+0xf4>
    2132:	f8d4 1124 	ldr.w	r1, [r4, #292]	; 0x124
    2136:	2900      	cmp	r1, #0
    2138:	d1e6      	bne.n	2108 <nrfx_twim_rx+0x108>
    213a:	e7f2      	b.n	2122 <nrfx_twim_rx+0x122>
    213c:	f411 7f00 	tst.w	r1, #512	; 0x200
    2140:	d022      	beq.n	2188 <nrfx_twim_rx+0x188>
    2142:	05c9      	lsls	r1, r1, #23
    2144:	d424      	bmi.n	2190 <nrfx_twim_rx+0x190>
    2146:	2b00      	cmp	r3, #0
    2148:	d0eb      	beq.n	2122 <nrfx_twim_rx+0x122>
    214a:	2334      	movs	r3, #52	; 0x34
    214c:	f8d4 24c4 	ldr.w	r2, [r4, #1220]	; 0x4c4
    2150:	f8c4 24c4 	str.w	r2, [r4, #1220]	; 0x4c4
    2154:	fb03 7305 	mla	r3, r3, r5, r7
    2158:	2100      	movs	r1, #0
    215a:	f883 102f 	strb.w	r1, [r3, #47]	; 0x2f
    215e:	b352      	cbz	r2, 21b6 <nrfx_twim_rx+0x1b6>
    2160:	f012 0f01 	tst.w	r2, #1
    2164:	bf18      	it	ne
    2166:	f44f 4002 	movne.w	r0, #33280	; 0x8200
    216a:	f248 2301 	movw	r3, #33281	; 0x8201
    216e:	bf08      	it	eq
    2170:	2003      	moveq	r0, #3
    2172:	f012 0f02 	tst.w	r2, #2
    2176:	bf18      	it	ne
    2178:	4618      	movne	r0, r3
    217a:	f248 2302 	movw	r3, #33282	; 0x8202
    217e:	f012 0f04 	tst.w	r2, #4
    2182:	bf18      	it	ne
    2184:	4618      	movne	r0, r3
    2186:	e7af      	b.n	20e8 <nrfx_twim_rx+0xe8>
    2188:	05cb      	lsls	r3, r1, #23
    218a:	6226      	str	r6, [r4, #32]
    218c:	6166      	str	r6, [r4, #20]
    218e:	d5c8      	bpl.n	2122 <nrfx_twim_rx+0x122>
    2190:	f8c4 2148 	str.w	r2, [r4, #328]	; 0x148
    2194:	f8d4 3148 	ldr.w	r3, [r4, #328]	; 0x148
    2198:	9306      	str	r3, [sp, #24]
    219a:	9b06      	ldr	r3, [sp, #24]
    219c:	e7c1      	b.n	2122 <nrfx_twim_rx+0x122>
    219e:	2010      	movs	r0, #16
    21a0:	b009      	add	sp, #36	; 0x24
    21a2:	e8bd 83f0 	ldmia.w	sp!, {r4, r5, r6, r7, r8, r9, pc}
    21a6:	f8dc 3008 	ldr.w	r3, [ip, #8]
    21aa:	f8c4 3304 	str.w	r3, [r4, #772]	; 0x304
    21ae:	2011      	movs	r0, #17
    21b0:	b009      	add	sp, #36	; 0x24
    21b2:	e8bd 83f0 	ldmia.w	sp!, {r4, r5, r6, r7, r8, r9, pc}
    21b6:	eb07 0108 	add.w	r1, r7, r8
    21ba:	4620      	mov	r0, r4
    21bc:	f7ff fc62 	bl	1a84 <xfer_completeness_check>
    21c0:	2800      	cmp	r0, #0
    21c2:	bf14      	ite	ne
    21c4:	2000      	movne	r0, #0
    21c6:	2003      	moveq	r0, #3
    21c8:	e78e      	b.n	20e8 <nrfx_twim_rx+0xe8>
    21ca:	bf00      	nop
    21cc:	20000644 	.word	0x20000644
    21d0:	019c0202 	.word	0x019c0202
    21d4:	00000000 	.word	0x00000000

000021d8 <nrfx_uart_0_irq_handler>:
    21d8:	b510      	push	{r4, lr}
    21da:	4a71      	ldr	r2, [pc, #452]	; (23a0 <nrfx_uart_0_irq_handler+0x1c8>)
    21dc:	f8d2 3304 	ldr.w	r3, [r2, #772]	; 0x304
    21e0:	0599      	lsls	r1, r3, #22
    21e2:	b08a      	sub	sp, #40	; 0x28
    21e4:	d568      	bpl.n	22b8 <nrfx_uart_0_irq_handler+0xe0>
    21e6:	f8d2 3124 	ldr.w	r3, [r2, #292]	; 0x124
    21ea:	2b00      	cmp	r3, #0
    21ec:	d064      	beq.n	22b8 <nrfx_uart_0_irq_handler+0xe0>
    21ee:	2300      	movs	r3, #0
    21f0:	f8c2 3124 	str.w	r3, [r2, #292]	; 0x124
    21f4:	f8d2 3124 	ldr.w	r3, [r2, #292]	; 0x124
    21f8:	9301      	str	r3, [sp, #4]
    21fa:	f44f 7101 	mov.w	r1, #516	; 0x204
    21fe:	4b69      	ldr	r3, [pc, #420]	; (23a4 <nrfx_uart_0_irq_handler+0x1cc>)
    2200:	9801      	ldr	r0, [sp, #4]
    2202:	f8c2 1308 	str.w	r1, [r2, #776]	; 0x308
    2206:	f893 1029 	ldrb.w	r1, [r3, #41]	; 0x29
    220a:	b909      	cbnz	r1, 2210 <nrfx_uart_0_irq_handler+0x38>
    220c:	2101      	movs	r1, #1
    220e:	6051      	str	r1, [r2, #4]
    2210:	4963      	ldr	r1, [pc, #396]	; (23a0 <nrfx_uart_0_irq_handler+0x1c8>)
    2212:	2202      	movs	r2, #2
    2214:	f88d 2018 	strb.w	r2, [sp, #24]
    2218:	f8d1 2480 	ldr.w	r2, [r1, #1152]	; 0x480
    221c:	f8c1 2480 	str.w	r2, [r1, #1152]	; 0x480
    2220:	ed9f 7b5d 	vldr	d7, [pc, #372]	; 2398 <nrfx_uart_0_irq_handler+0x1c0>
    2224:	6999      	ldr	r1, [r3, #24]
    2226:	68d8      	ldr	r0, [r3, #12]
    2228:	e9cd 1208 	strd	r1, r2, [sp, #32]
    222c:	ed83 7b06 	vstr	d7, [r3, #24]
    2230:	e9d3 1200 	ldrd	r1, r2, [r3]
    2234:	9007      	str	r0, [sp, #28]
    2236:	a806      	add	r0, sp, #24
    2238:	4790      	blx	r2
    223a:	4a59      	ldr	r2, [pc, #356]	; (23a0 <nrfx_uart_0_irq_handler+0x1c8>)
    223c:	f8d2 311c 	ldr.w	r3, [r2, #284]	; 0x11c
    2240:	b1c3      	cbz	r3, 2274 <nrfx_uart_0_irq_handler+0x9c>
    2242:	4b58      	ldr	r3, [pc, #352]	; (23a4 <nrfx_uart_0_irq_handler+0x1cc>)
    2244:	6958      	ldr	r0, [r3, #20]
    2246:	6a19      	ldr	r1, [r3, #32]
    2248:	4288      	cmp	r0, r1
    224a:	d96a      	bls.n	2322 <nrfx_uart_0_irq_handler+0x14a>
    224c:	f893 1028 	ldrb.w	r1, [r3, #40]	; 0x28
    2250:	f001 00ff 	and.w	r0, r1, #255	; 0xff
    2254:	2900      	cmp	r1, #0
    2256:	d164      	bne.n	2322 <nrfx_uart_0_irq_handler+0x14a>
    2258:	f8c2 011c 	str.w	r0, [r2, #284]	; 0x11c
    225c:	f8d2 111c 	ldr.w	r1, [r2, #284]	; 0x11c
    2260:	9103      	str	r1, [sp, #12]
    2262:	9903      	ldr	r1, [sp, #12]
    2264:	689c      	ldr	r4, [r3, #8]
    2266:	6a18      	ldr	r0, [r3, #32]
    2268:	6a19      	ldr	r1, [r3, #32]
    226a:	5c20      	ldrb	r0, [r4, r0]
    226c:	3101      	adds	r1, #1
    226e:	6219      	str	r1, [r3, #32]
    2270:	f8c2 051c 	str.w	r0, [r2, #1308]	; 0x51c
    2274:	4a4a      	ldr	r2, [pc, #296]	; (23a0 <nrfx_uart_0_irq_handler+0x1c8>)
    2276:	f8d2 3144 	ldr.w	r3, [r2, #324]	; 0x144
    227a:	b1db      	cbz	r3, 22b4 <nrfx_uart_0_irq_handler+0xdc>
    227c:	2100      	movs	r1, #0
    227e:	4b49      	ldr	r3, [pc, #292]	; (23a4 <nrfx_uart_0_irq_handler+0x1cc>)
    2280:	f8c2 1144 	str.w	r1, [r2, #324]	; 0x144
    2284:	f8d2 0144 	ldr.w	r0, [r2, #324]	; 0x144
    2288:	f893 1029 	ldrb.w	r1, [r3, #41]	; 0x29
    228c:	9000      	str	r0, [sp, #0]
    228e:	9800      	ldr	r0, [sp, #0]
    2290:	b109      	cbz	r1, 2296 <nrfx_uart_0_irq_handler+0xbe>
    2292:	2101      	movs	r1, #1
    2294:	6011      	str	r1, [r2, #0]
    2296:	699a      	ldr	r2, [r3, #24]
    2298:	b162      	cbz	r2, 22b4 <nrfx_uart_0_irq_handler+0xdc>
    229a:	68d8      	ldr	r0, [r3, #12]
    229c:	6a5c      	ldr	r4, [r3, #36]	; 0x24
    229e:	2100      	movs	r1, #0
    22a0:	2201      	movs	r2, #1
    22a2:	e9cd 0407 	strd	r0, r4, [sp, #28]
    22a6:	6199      	str	r1, [r3, #24]
    22a8:	f88d 2018 	strb.w	r2, [sp, #24]
    22ac:	a806      	add	r0, sp, #24
    22ae:	e9d3 1200 	ldrd	r1, r2, [r3]
    22b2:	4790      	blx	r2
    22b4:	b00a      	add	sp, #40	; 0x28
    22b6:	bd10      	pop	{r4, pc}
    22b8:	4a39      	ldr	r2, [pc, #228]	; (23a0 <nrfx_uart_0_irq_handler+0x1c8>)
    22ba:	f8d2 3304 	ldr.w	r3, [r2, #772]	; 0x304
    22be:	075b      	lsls	r3, r3, #29
    22c0:	d5bb      	bpl.n	223a <nrfx_uart_0_irq_handler+0x62>
    22c2:	f8d2 3108 	ldr.w	r3, [r2, #264]	; 0x108
    22c6:	2b00      	cmp	r3, #0
    22c8:	d0b7      	beq.n	223a <nrfx_uart_0_irq_handler+0x62>
    22ca:	4b36      	ldr	r3, [pc, #216]	; (23a4 <nrfx_uart_0_irq_handler+0x1cc>)
    22cc:	6999      	ldr	r1, [r3, #24]
    22ce:	2900      	cmp	r1, #0
    22d0:	d03e      	beq.n	2350 <nrfx_uart_0_irq_handler+0x178>
    22d2:	2100      	movs	r1, #0
    22d4:	f8c2 1108 	str.w	r1, [r2, #264]	; 0x108
    22d8:	f8d2 1108 	ldr.w	r1, [r2, #264]	; 0x108
    22dc:	9104      	str	r1, [sp, #16]
    22de:	9904      	ldr	r1, [sp, #16]
    22e0:	68d8      	ldr	r0, [r3, #12]
    22e2:	6a59      	ldr	r1, [r3, #36]	; 0x24
    22e4:	f8d2 2518 	ldr.w	r2, [r2, #1304]	; 0x518
    22e8:	5442      	strb	r2, [r0, r1]
    22ea:	6a5a      	ldr	r2, [r3, #36]	; 0x24
    22ec:	6999      	ldr	r1, [r3, #24]
    22ee:	3201      	adds	r2, #1
    22f0:	625a      	str	r2, [r3, #36]	; 0x24
    22f2:	6a5a      	ldr	r2, [r3, #36]	; 0x24
    22f4:	428a      	cmp	r2, r1
    22f6:	d1a0      	bne.n	223a <nrfx_uart_0_irq_handler+0x62>
    22f8:	69da      	ldr	r2, [r3, #28]
    22fa:	2a00      	cmp	r2, #0
    22fc:	d031      	beq.n	2362 <nrfx_uart_0_irq_handler+0x18a>
    22fe:	619a      	str	r2, [r3, #24]
    2300:	691a      	ldr	r2, [r3, #16]
    2302:	68d8      	ldr	r0, [r3, #12]
    2304:	6a5c      	ldr	r4, [r3, #36]	; 0x24
    2306:	60da      	str	r2, [r3, #12]
    2308:	2100      	movs	r1, #0
    230a:	2201      	movs	r2, #1
    230c:	9408      	str	r4, [sp, #32]
    230e:	61d9      	str	r1, [r3, #28]
    2310:	6259      	str	r1, [r3, #36]	; 0x24
    2312:	9007      	str	r0, [sp, #28]
    2314:	685c      	ldr	r4, [r3, #4]
    2316:	6819      	ldr	r1, [r3, #0]
    2318:	f88d 2018 	strb.w	r2, [sp, #24]
    231c:	a806      	add	r0, sp, #24
    231e:	47a0      	blx	r4
    2320:	e78b      	b.n	223a <nrfx_uart_0_irq_handler+0x62>
    2322:	4a1f      	ldr	r2, [pc, #124]	; (23a0 <nrfx_uart_0_irq_handler+0x1c8>)
    2324:	2000      	movs	r0, #0
    2326:	f8c2 011c 	str.w	r0, [r2, #284]	; 0x11c
    232a:	f8d2 211c 	ldr.w	r2, [r2, #284]	; 0x11c
    232e:	9202      	str	r2, [sp, #8]
    2330:	9a02      	ldr	r2, [sp, #8]
    2332:	695a      	ldr	r2, [r3, #20]
    2334:	2a00      	cmp	r2, #0
    2336:	d09d      	beq.n	2274 <nrfx_uart_0_irq_handler+0x9c>
    2338:	e9d3 2101 	ldrd	r2, r1, [r3, #4]
    233c:	695c      	ldr	r4, [r3, #20]
    233e:	f88d 0018 	strb.w	r0, [sp, #24]
    2342:	e9cd 1407 	strd	r1, r4, [sp, #28]
    2346:	6158      	str	r0, [r3, #20]
    2348:	6819      	ldr	r1, [r3, #0]
    234a:	a806      	add	r0, sp, #24
    234c:	4790      	blx	r2
    234e:	e791      	b.n	2274 <nrfx_uart_0_irq_handler+0x9c>
    2350:	f8c2 1108 	str.w	r1, [r2, #264]	; 0x108
    2354:	f8d2 0108 	ldr.w	r0, [r2, #264]	; 0x108
    2358:	9005      	str	r0, [sp, #20]
    235a:	9805      	ldr	r0, [sp, #20]
    235c:	f8d2 2518 	ldr.w	r2, [r2, #1304]	; 0x518
    2360:	e7c7      	b.n	22f2 <nrfx_uart_0_irq_handler+0x11a>
    2362:	f893 2029 	ldrb.w	r2, [r3, #41]	; 0x29
    2366:	b912      	cbnz	r2, 236e <nrfx_uart_0_irq_handler+0x196>
    2368:	4a0d      	ldr	r2, [pc, #52]	; (23a0 <nrfx_uart_0_irq_handler+0x1c8>)
    236a:	2101      	movs	r1, #1
    236c:	6051      	str	r1, [r2, #4]
    236e:	4a0c      	ldr	r2, [pc, #48]	; (23a0 <nrfx_uart_0_irq_handler+0x1c8>)
    2370:	f44f 7101 	mov.w	r1, #516	; 0x204
    2374:	f8c2 1308 	str.w	r1, [r2, #776]	; 0x308
    2378:	68d8      	ldr	r0, [r3, #12]
    237a:	6a5c      	ldr	r4, [r3, #36]	; 0x24
    237c:	2100      	movs	r1, #0
    237e:	2201      	movs	r2, #1
    2380:	6199      	str	r1, [r3, #24]
    2382:	f88d 2018 	strb.w	r2, [sp, #24]
    2386:	e9d3 1200 	ldrd	r1, r2, [r3]
    238a:	e9cd 0407 	strd	r0, r4, [sp, #28]
    238e:	a806      	add	r0, sp, #24
    2390:	4790      	blx	r2
    2392:	e752      	b.n	223a <nrfx_uart_0_irq_handler+0x62>
    2394:	f3af 8000 	nop.w
	...
    23a0:	40002000 	.word	0x40002000
    23a4:	20000678 	.word	0x20000678

000023a8 <nrfx_uart_init>:
    23a8:	e92d 41f0 	stmdb	sp!, {r4, r5, r6, r7, r8, lr}
    23ac:	4e60      	ldr	r6, [pc, #384]	; (2530 <nrfx_uart_init+0x188>)
    23ae:	f890 8004 	ldrb.w	r8, [r0, #4]
    23b2:	232c      	movs	r3, #44	; 0x2c
    23b4:	fb03 6308 	mla	r3, r3, r8, r6
    23b8:	b082      	sub	sp, #8
    23ba:	f893 302a 	ldrb.w	r3, [r3, #42]	; 0x2a
    23be:	2b00      	cmp	r3, #0
    23c0:	f040 8088 	bne.w	24d4 <nrfx_uart_init+0x12c>
    23c4:	4605      	mov	r5, r0
    23c6:	460c      	mov	r4, r1
    23c8:	6800      	ldr	r0, [r0, #0]
    23ca:	495a      	ldr	r1, [pc, #360]	; (2534 <nrfx_uart_init+0x18c>)
    23cc:	4617      	mov	r7, r2
    23ce:	f7ff fb2f 	bl	1a30 <nrfx_prs_acquire>
    23d2:	2800      	cmp	r0, #0
    23d4:	d17a      	bne.n	24cc <nrfx_uart_init+0x124>
    23d6:	6823      	ldr	r3, [r4, #0]
    23d8:	1c59      	adds	r1, r3, #1
    23da:	d00c      	beq.n	23f6 <nrfx_uart_init+0x4e>
    23dc:	f04f 41a0 	mov.w	r1, #1342177280	; 0x50000000
    23e0:	2201      	movs	r2, #1
    23e2:	fa02 f303 	lsl.w	r3, r2, r3
    23e6:	f8c1 3508 	str.w	r3, [r1, #1288]	; 0x508
    23ea:	6823      	ldr	r3, [r4, #0]
    23ec:	f503 73e0 	add.w	r3, r3, #448	; 0x1c0
    23f0:	2203      	movs	r2, #3
    23f2:	f841 2023 	str.w	r2, [r1, r3, lsl #2]
    23f6:	6863      	ldr	r3, [r4, #4]
    23f8:	1c5a      	adds	r2, r3, #1
    23fa:	d006      	beq.n	240a <nrfx_uart_init+0x62>
    23fc:	f503 73e0 	add.w	r3, r3, #448	; 0x1c0
    2400:	f04f 42a0 	mov.w	r2, #1342177280	; 0x50000000
    2404:	2100      	movs	r1, #0
    2406:	f842 1023 	str.w	r1, [r2, r3, lsl #2]
    240a:	682b      	ldr	r3, [r5, #0]
    240c:	69a2      	ldr	r2, [r4, #24]
    240e:	f8c3 2524 	str.w	r2, [r3, #1316]	; 0x524
    2412:	7d22      	ldrb	r2, [r4, #20]
    2414:	7d63      	ldrb	r3, [r4, #21]
    2416:	4313      	orrs	r3, r2
    2418:	682a      	ldr	r2, [r5, #0]
    241a:	f8c2 356c 	str.w	r3, [r2, #1388]	; 0x56c
    241e:	e9d4 1200 	ldrd	r1, r2, [r4]
    2422:	682b      	ldr	r3, [r5, #0]
    2424:	f8c3 2514 	str.w	r2, [r3, #1300]	; 0x514
    2428:	f8c3 150c 	str.w	r1, [r3, #1292]	; 0x50c
    242c:	7d23      	ldrb	r3, [r4, #20]
    242e:	2b01      	cmp	r3, #1
    2430:	d05b      	beq.n	24ea <nrfx_uart_init+0x142>
    2432:	232c      	movs	r3, #44	; 0x2c
    2434:	fb03 f308 	mul.w	r3, r3, r8
    2438:	18f2      	adds	r2, r6, r3
    243a:	6057      	str	r7, [r2, #4]
    243c:	6922      	ldr	r2, [r4, #16]
    243e:	50f2      	str	r2, [r6, r3]
    2440:	b38f      	cbz	r7, 24a6 <nrfx_uart_init+0xfe>
    2442:	682a      	ldr	r2, [r5, #0]
    2444:	7f23      	ldrb	r3, [r4, #28]
    2446:	2100      	movs	r1, #0
    2448:	f8c2 111c 	str.w	r1, [r2, #284]	; 0x11c
    244c:	f8d2 211c 	ldr.w	r2, [r2, #284]	; 0x11c
    2450:	9200      	str	r2, [sp, #0]
    2452:	9a00      	ldr	r2, [sp, #0]
    2454:	682a      	ldr	r2, [r5, #0]
    2456:	f8c2 1144 	str.w	r1, [r2, #324]	; 0x144
    245a:	f8d2 2144 	ldr.w	r2, [r2, #324]	; 0x144
    245e:	9201      	str	r2, [sp, #4]
    2460:	9a01      	ldr	r2, [sp, #4]
    2462:	682a      	ldr	r2, [r5, #0]
    2464:	4934      	ldr	r1, [pc, #208]	; (2538 <nrfx_uart_init+0x190>)
    2466:	f8c2 1304 	str.w	r1, [r2, #772]	; 0x304
    246a:	682a      	ldr	r2, [r5, #0]
    246c:	f342 3107 	sbfx	r1, r2, #12, #8
    2470:	2900      	cmp	r1, #0
    2472:	ea4f 3212 	mov.w	r2, r2, lsr #12
    2476:	db31      	blt.n	24dc <nrfx_uart_init+0x134>
    2478:	f101 4160 	add.w	r1, r1, #3758096384	; 0xe0000000
    247c:	015b      	lsls	r3, r3, #5
    247e:	f501 4161 	add.w	r1, r1, #57600	; 0xe100
    2482:	b2db      	uxtb	r3, r3
    2484:	f881 3300 	strb.w	r3, [r1, #768]	; 0x300
    2488:	682b      	ldr	r3, [r5, #0]
    248a:	f343 3207 	sbfx	r2, r3, #12, #8
    248e:	2a00      	cmp	r2, #0
    2490:	ea4f 3113 	mov.w	r1, r3, lsr #12
    2494:	db08      	blt.n	24a8 <nrfx_uart_init+0x100>
    2496:	4c29      	ldr	r4, [pc, #164]	; (253c <nrfx_uart_init+0x194>)
    2498:	0952      	lsrs	r2, r2, #5
    249a:	f001 011f 	and.w	r1, r1, #31
    249e:	2301      	movs	r3, #1
    24a0:	408b      	lsls	r3, r1
    24a2:	f844 3022 	str.w	r3, [r4, r2, lsl #2]
    24a6:	682b      	ldr	r3, [r5, #0]
    24a8:	2204      	movs	r2, #4
    24aa:	f8c3 2500 	str.w	r2, [r3, #1280]	; 0x500
    24ae:	232c      	movs	r3, #44	; 0x2c
    24b0:	fb03 6608 	mla	r6, r3, r8, r6
    24b4:	2201      	movs	r2, #1
    24b6:	2300      	movs	r3, #0
    24b8:	e9c6 3306 	strd	r3, r3, [r6, #24]
    24bc:	f886 3029 	strb.w	r3, [r6, #41]	; 0x29
    24c0:	6173      	str	r3, [r6, #20]
    24c2:	f886 202a 	strb.w	r2, [r6, #42]	; 0x2a
    24c6:	b002      	add	sp, #8
    24c8:	e8bd 81f0 	ldmia.w	sp!, {r4, r5, r6, r7, r8, pc}
    24cc:	2011      	movs	r0, #17
    24ce:	b002      	add	sp, #8
    24d0:	e8bd 81f0 	ldmia.w	sp!, {r4, r5, r6, r7, r8, pc}
    24d4:	2008      	movs	r0, #8
    24d6:	b002      	add	sp, #8
    24d8:	e8bd 81f0 	ldmia.w	sp!, {r4, r5, r6, r7, r8, pc}
    24dc:	4918      	ldr	r1, [pc, #96]	; (2540 <nrfx_uart_init+0x198>)
    24de:	f002 020f 	and.w	r2, r2, #15
    24e2:	015b      	lsls	r3, r3, #5
    24e4:	b2db      	uxtb	r3, r3
    24e6:	548b      	strb	r3, [r1, r2]
    24e8:	e7ce      	b.n	2488 <nrfx_uart_init+0xe0>
    24ea:	68a3      	ldr	r3, [r4, #8]
    24ec:	1c59      	adds	r1, r3, #1
    24ee:	d006      	beq.n	24fe <nrfx_uart_init+0x156>
    24f0:	f503 73e0 	add.w	r3, r3, #448	; 0x1c0
    24f4:	f04f 42a0 	mov.w	r2, #1342177280	; 0x50000000
    24f8:	2100      	movs	r1, #0
    24fa:	f842 1023 	str.w	r1, [r2, r3, lsl #2]
    24fe:	68e3      	ldr	r3, [r4, #12]
    2500:	1c5a      	adds	r2, r3, #1
    2502:	d00d      	beq.n	2520 <nrfx_uart_init+0x178>
    2504:	f04f 41a0 	mov.w	r1, #1342177280	; 0x50000000
    2508:	2201      	movs	r2, #1
    250a:	fa02 f303 	lsl.w	r3, r2, r3
    250e:	f8c1 3508 	str.w	r3, [r1, #1288]	; 0x508
    2512:	68e3      	ldr	r3, [r4, #12]
    2514:	f503 73e0 	add.w	r3, r3, #448	; 0x1c0
    2518:	2203      	movs	r2, #3
    251a:	f841 2023 	str.w	r2, [r1, r3, lsl #2]
    251e:	68e3      	ldr	r3, [r4, #12]
    2520:	682a      	ldr	r2, [r5, #0]
    2522:	68a1      	ldr	r1, [r4, #8]
    2524:	f8c2 3508 	str.w	r3, [r2, #1288]	; 0x508
    2528:	f8c2 1510 	str.w	r1, [r2, #1296]	; 0x510
    252c:	e781      	b.n	2432 <nrfx_uart_init+0x8a>
    252e:	bf00      	nop
    2530:	20000678 	.word	0x20000678
    2534:	000021d9 	.word	0x000021d9
    2538:	00020080 	.word	0x00020080
    253c:	e000e100 	.word	0xe000e100
    2540:	e000ed14 	.word	0xe000ed14

00002544 <nrfx_uart_uninit>:
    2544:	b5f8      	push	{r3, r4, r5, r6, r7, lr}
    2546:	6803      	ldr	r3, [r0, #0]
    2548:	7906      	ldrb	r6, [r0, #4]
    254a:	4c32      	ldr	r4, [pc, #200]	; (2614 <nrfx_uart_uninit+0xd0>)
    254c:	2200      	movs	r2, #0
    254e:	f8c3 2500 	str.w	r2, [r3, #1280]	; 0x500
    2552:	232c      	movs	r3, #44	; 0x2c
    2554:	fb03 4306 	mla	r3, r3, r6, r4
    2558:	685b      	ldr	r3, [r3, #4]
    255a:	b1bb      	cbz	r3, 258c <nrfx_uart_uninit+0x48>
    255c:	6803      	ldr	r3, [r0, #0]
    255e:	4a2e      	ldr	r2, [pc, #184]	; (2618 <nrfx_uart_uninit+0xd4>)
    2560:	f8c3 2308 	str.w	r2, [r3, #776]	; 0x308
    2564:	6803      	ldr	r3, [r0, #0]
    2566:	f343 3207 	sbfx	r2, r3, #12, #8
    256a:	2a00      	cmp	r2, #0
    256c:	ea4f 3113 	mov.w	r1, r3, lsr #12
    2570:	db0d      	blt.n	258e <nrfx_uart_uninit+0x4a>
    2572:	0952      	lsrs	r2, r2, #5
    2574:	4d29      	ldr	r5, [pc, #164]	; (261c <nrfx_uart_uninit+0xd8>)
    2576:	f001 011f 	and.w	r1, r1, #31
    257a:	3220      	adds	r2, #32
    257c:	2301      	movs	r3, #1
    257e:	408b      	lsls	r3, r1
    2580:	f845 3022 	str.w	r3, [r5, r2, lsl #2]
    2584:	f3bf 8f4f 	dsb	sy
    2588:	f3bf 8f6f 	isb	sy
    258c:	6803      	ldr	r3, [r0, #0]
    258e:	f8d3 c50c 	ldr.w	ip, [r3, #1292]	; 0x50c
    2592:	f8d3 7514 	ldr.w	r7, [r3, #1300]	; 0x514
    2596:	f8d3 1508 	ldr.w	r1, [r3, #1288]	; 0x508
    259a:	f8d3 5510 	ldr.w	r5, [r3, #1296]	; 0x510
    259e:	f04f 32ff 	mov.w	r2, #4294967295	; 0xffffffff
    25a2:	f8c3 2514 	str.w	r2, [r3, #1300]	; 0x514
    25a6:	f8c3 250c 	str.w	r2, [r3, #1292]	; 0x50c
    25aa:	6803      	ldr	r3, [r0, #0]
    25ac:	4594      	cmp	ip, r2
    25ae:	f8c3 2508 	str.w	r2, [r3, #1288]	; 0x508
    25b2:	f8c3 2510 	str.w	r2, [r3, #1296]	; 0x510
    25b6:	d006      	beq.n	25c6 <nrfx_uart_uninit+0x82>
    25b8:	f50c 7ce0 	add.w	ip, ip, #448	; 0x1c0
    25bc:	f04f 43a0 	mov.w	r3, #1342177280	; 0x50000000
    25c0:	2202      	movs	r2, #2
    25c2:	f843 202c 	str.w	r2, [r3, ip, lsl #2]
    25c6:	1c7b      	adds	r3, r7, #1
    25c8:	d006      	beq.n	25d8 <nrfx_uart_uninit+0x94>
    25ca:	f507 77e0 	add.w	r7, r7, #448	; 0x1c0
    25ce:	f04f 43a0 	mov.w	r3, #1342177280	; 0x50000000
    25d2:	2202      	movs	r2, #2
    25d4:	f843 2027 	str.w	r2, [r3, r7, lsl #2]
    25d8:	1c6a      	adds	r2, r5, #1
    25da:	d006      	beq.n	25ea <nrfx_uart_uninit+0xa6>
    25dc:	f505 75e0 	add.w	r5, r5, #448	; 0x1c0
    25e0:	f04f 43a0 	mov.w	r3, #1342177280	; 0x50000000
    25e4:	2202      	movs	r2, #2
    25e6:	f843 2025 	str.w	r2, [r3, r5, lsl #2]
    25ea:	1c4b      	adds	r3, r1, #1
    25ec:	d006      	beq.n	25fc <nrfx_uart_uninit+0xb8>
    25ee:	f04f 43a0 	mov.w	r3, #1342177280	; 0x50000000
    25f2:	f501 71e0 	add.w	r1, r1, #448	; 0x1c0
    25f6:	2202      	movs	r2, #2
    25f8:	f843 2021 	str.w	r2, [r3, r1, lsl #2]
    25fc:	6800      	ldr	r0, [r0, #0]
    25fe:	f7ff fa35 	bl	1a6c <nrfx_prs_release>
    2602:	232c      	movs	r3, #44	; 0x2c
    2604:	fb03 4406 	mla	r4, r3, r6, r4
    2608:	2300      	movs	r3, #0
    260a:	f884 302a 	strb.w	r3, [r4, #42]	; 0x2a
    260e:	6063      	str	r3, [r4, #4]
    2610:	bdf8      	pop	{r3, r4, r5, r6, r7, pc}
    2612:	bf00      	nop
    2614:	20000678 	.word	0x20000678
    2618:	00020284 	.word	0x00020284
    261c:	e000e100 	.word	0xe000e100

00002620 <nrfx_uart_tx>:
    2620:	e92d 41f0 	stmdb	sp!, {r4, r5, r6, r7, r8, lr}
    2624:	4c33      	ldr	r4, [pc, #204]	; (26f4 <nrfx_uart_tx+0xd4>)
    2626:	f890 e004 	ldrb.w	lr, [r0, #4]
    262a:	232c      	movs	r3, #44	; 0x2c
    262c:	fb03 430e 	mla	r3, r3, lr, r4
    2630:	4684      	mov	ip, r0
    2632:	6958      	ldr	r0, [r3, #20]
    2634:	b084      	sub	sp, #16
    2636:	2800      	cmp	r0, #0
    2638:	d14e      	bne.n	26d8 <nrfx_uart_tx+0xb8>
    263a:	615a      	str	r2, [r3, #20]
    263c:	6099      	str	r1, [r3, #8]
    263e:	6218      	str	r0, [r3, #32]
    2640:	f883 0028 	strb.w	r0, [r3, #40]	; 0x28
    2644:	f8dc 2000 	ldr.w	r2, [ip]
    2648:	f8c2 011c 	str.w	r0, [r2, #284]	; 0x11c
    264c:	f8d2 211c 	ldr.w	r2, [r2, #284]	; 0x11c
    2650:	9202      	str	r2, [sp, #8]
    2652:	9a02      	ldr	r2, [sp, #8]
    2654:	f8dc 2000 	ldr.w	r2, [ip]
    2658:	2101      	movs	r1, #1
    265a:	6091      	str	r1, [r2, #8]
    265c:	f8dc 2000 	ldr.w	r2, [ip]
    2660:	689d      	ldr	r5, [r3, #8]
    2662:	f8c2 011c 	str.w	r0, [r2, #284]	; 0x11c
    2666:	f8d2 111c 	ldr.w	r1, [r2, #284]	; 0x11c
    266a:	9101      	str	r1, [sp, #4]
    266c:	9901      	ldr	r1, [sp, #4]
    266e:	6a19      	ldr	r1, [r3, #32]
    2670:	5c6e      	ldrb	r6, [r5, r1]
    2672:	6a19      	ldr	r1, [r3, #32]
    2674:	3101      	adds	r1, #1
    2676:	6219      	str	r1, [r3, #32]
    2678:	f8c2 651c 	str.w	r6, [r2, #1308]	; 0x51c
    267c:	685a      	ldr	r2, [r3, #4]
    267e:	b112      	cbz	r2, 2686 <nrfx_uart_tx+0x66>
    2680:	b004      	add	sp, #16
    2682:	e8bd 81f0 	ldmia.w	sp!, {r4, r5, r6, r7, r8, pc}
    2686:	695e      	ldr	r6, [r3, #20]
    2688:	6a1a      	ldr	r2, [r3, #32]
    268a:	f8dc 1000 	ldr.w	r1, [ip]
    268e:	4296      	cmp	r6, r2
    2690:	d91b      	bls.n	26ca <nrfx_uart_tx+0xaa>
    2692:	4607      	mov	r7, r0
    2694:	e002      	b.n	269c <nrfx_uart_tx+0x7c>
    2696:	f893 2028 	ldrb.w	r2, [r3, #40]	; 0x28
    269a:	bb0a      	cbnz	r2, 26e0 <nrfx_uart_tx+0xc0>
    269c:	f8d1 211c 	ldr.w	r2, [r1, #284]	; 0x11c
    26a0:	2a00      	cmp	r2, #0
    26a2:	d0f8      	beq.n	2696 <nrfx_uart_tx+0x76>
    26a4:	f8c1 711c 	str.w	r7, [r1, #284]	; 0x11c
    26a8:	f8d1 211c 	ldr.w	r2, [r1, #284]	; 0x11c
    26ac:	9203      	str	r2, [sp, #12]
    26ae:	9a03      	ldr	r2, [sp, #12]
    26b0:	6a1a      	ldr	r2, [r3, #32]
    26b2:	f815 8002 	ldrb.w	r8, [r5, r2]
    26b6:	6a1a      	ldr	r2, [r3, #32]
    26b8:	3201      	adds	r2, #1
    26ba:	621a      	str	r2, [r3, #32]
    26bc:	f8c1 851c 	str.w	r8, [r1, #1308]	; 0x51c
    26c0:	6a1a      	ldr	r2, [r3, #32]
    26c2:	4296      	cmp	r6, r2
    26c4:	d8ea      	bhi.n	269c <nrfx_uart_tx+0x7c>
    26c6:	f8dc 1000 	ldr.w	r1, [ip]
    26ca:	f8d1 311c 	ldr.w	r3, [r1, #284]	; 0x11c
    26ce:	2b00      	cmp	r3, #0
    26d0:	d0fb      	beq.n	26ca <nrfx_uart_tx+0xaa>
    26d2:	2301      	movs	r3, #1
    26d4:	60cb      	str	r3, [r1, #12]
    26d6:	e004      	b.n	26e2 <nrfx_uart_tx+0xc2>
    26d8:	2011      	movs	r0, #17
    26da:	b004      	add	sp, #16
    26dc:	e8bd 81f0 	ldmia.w	sp!, {r4, r5, r6, r7, r8, pc}
    26e0:	200f      	movs	r0, #15
    26e2:	232c      	movs	r3, #44	; 0x2c
    26e4:	fb03 440e 	mla	r4, r3, lr, r4
    26e8:	2300      	movs	r3, #0
    26ea:	6163      	str	r3, [r4, #20]
    26ec:	b004      	add	sp, #16
    26ee:	e8bd 81f0 	ldmia.w	sp!, {r4, r5, r6, r7, r8, pc}
    26f2:	bf00      	nop
    26f4:	20000678 	.word	0x20000678

000026f8 <nrfx_uarte_0_irq_handler>:
    26f8:	b510      	push	{r4, lr}
    26fa:	4b5b      	ldr	r3, [pc, #364]	; (2868 <nrfx_uarte_0_irq_handler+0x170>)
    26fc:	f8d3 2124 	ldr.w	r2, [r3, #292]	; 0x124
    2700:	b08a      	sub	sp, #40	; 0x28
    2702:	2a00      	cmp	r2, #0
    2704:	d058      	beq.n	27b8 <nrfx_uarte_0_irq_handler+0xc0>
    2706:	2200      	movs	r2, #0
    2708:	f8c3 2124 	str.w	r2, [r3, #292]	; 0x124
    270c:	f8d3 1124 	ldr.w	r1, [r3, #292]	; 0x124
    2710:	9104      	str	r1, [sp, #16]
    2712:	2202      	movs	r2, #2
    2714:	f88d 2018 	strb.w	r2, [sp, #24]
    2718:	9904      	ldr	r1, [sp, #16]
    271a:	4a54      	ldr	r2, [pc, #336]	; (286c <nrfx_uarte_0_irq_handler+0x174>)
    271c:	f8d3 1480 	ldr.w	r1, [r3, #1152]	; 0x480
    2720:	f8c3 1480 	str.w	r1, [r3, #1152]	; 0x480
    2724:	ed9f 7b4e 	vldr	d7, [pc, #312]	; 2860 <nrfx_uarte_0_irq_handler+0x168>
    2728:	9109      	str	r1, [sp, #36]	; 0x24
    272a:	f8d3 453c 	ldr.w	r4, [r3, #1340]	; 0x53c
    272e:	68d0      	ldr	r0, [r2, #12]
    2730:	ed82 7b06 	vstr	d7, [r2, #24]
    2734:	e9cd 0407 	strd	r0, r4, [sp, #28]
    2738:	e9d2 1300 	ldrd	r1, r3, [r2]
    273c:	a806      	add	r0, sp, #24
    273e:	4798      	blx	r3
    2740:	4b49      	ldr	r3, [pc, #292]	; (2868 <nrfx_uarte_0_irq_handler+0x170>)
    2742:	f8d3 2144 	ldr.w	r2, [r3, #324]	; 0x144
    2746:	b152      	cbz	r2, 275e <nrfx_uarte_0_irq_handler+0x66>
    2748:	2100      	movs	r1, #0
    274a:	4a48      	ldr	r2, [pc, #288]	; (286c <nrfx_uarte_0_irq_handler+0x174>)
    274c:	f8c3 1144 	str.w	r1, [r3, #324]	; 0x144
    2750:	f8d3 0144 	ldr.w	r0, [r3, #324]	; 0x144
    2754:	6991      	ldr	r1, [r2, #24]
    2756:	9003      	str	r0, [sp, #12]
    2758:	9803      	ldr	r0, [sp, #12]
    275a:	2900      	cmp	r1, #0
    275c:	d161      	bne.n	2822 <nrfx_uarte_0_irq_handler+0x12a>
    275e:	4b42      	ldr	r3, [pc, #264]	; (2868 <nrfx_uarte_0_irq_handler+0x170>)
    2760:	f8d3 2120 	ldr.w	r2, [r3, #288]	; 0x120
    2764:	b162      	cbz	r2, 2780 <nrfx_uarte_0_irq_handler+0x88>
    2766:	2000      	movs	r0, #0
    2768:	f8c3 0120 	str.w	r0, [r3, #288]	; 0x120
    276c:	f8d3 2120 	ldr.w	r2, [r3, #288]	; 0x120
    2770:	9202      	str	r2, [sp, #8]
    2772:	2101      	movs	r1, #1
    2774:	4a3d      	ldr	r2, [pc, #244]	; (286c <nrfx_uarte_0_irq_handler+0x174>)
    2776:	9c02      	ldr	r4, [sp, #8]
    2778:	60d9      	str	r1, [r3, #12]
    277a:	6951      	ldr	r1, [r2, #20]
    277c:	2900      	cmp	r1, #0
    277e:	d143      	bne.n	2808 <nrfx_uarte_0_irq_handler+0x110>
    2780:	4b39      	ldr	r3, [pc, #228]	; (2868 <nrfx_uarte_0_irq_handler+0x170>)
    2782:	f8d3 2158 	ldr.w	r2, [r3, #344]	; 0x158
    2786:	b1aa      	cbz	r2, 27b4 <nrfx_uarte_0_irq_handler+0xbc>
    2788:	2000      	movs	r0, #0
    278a:	f8c3 0158 	str.w	r0, [r3, #344]	; 0x158
    278e:	f8d3 1158 	ldr.w	r1, [r3, #344]	; 0x158
    2792:	4a36      	ldr	r2, [pc, #216]	; (286c <nrfx_uarte_0_irq_handler+0x174>)
    2794:	9101      	str	r1, [sp, #4]
    2796:	9901      	ldr	r1, [sp, #4]
    2798:	6951      	ldr	r1, [r2, #20]
    279a:	b159      	cbz	r1, 27b4 <nrfx_uarte_0_irq_handler+0xbc>
    279c:	f8d3 454c 	ldr.w	r4, [r3, #1356]	; 0x54c
    27a0:	f88d 0018 	strb.w	r0, [sp, #24]
    27a4:	e9d2 3101 	ldrd	r3, r1, [r2, #4]
    27a8:	6150      	str	r0, [r2, #20]
    27aa:	e9cd 1407 	strd	r1, r4, [sp, #28]
    27ae:	a806      	add	r0, sp, #24
    27b0:	6811      	ldr	r1, [r2, #0]
    27b2:	4798      	blx	r3
    27b4:	b00a      	add	sp, #40	; 0x28
    27b6:	bd10      	pop	{r4, pc}
    27b8:	f8d3 1110 	ldr.w	r1, [r3, #272]	; 0x110
    27bc:	2900      	cmp	r1, #0
    27be:	d0bf      	beq.n	2740 <nrfx_uarte_0_irq_handler+0x48>
    27c0:	f8c3 2110 	str.w	r2, [r3, #272]	; 0x110
    27c4:	f8d3 1110 	ldr.w	r1, [r3, #272]	; 0x110
    27c8:	4c28      	ldr	r4, [pc, #160]	; (286c <nrfx_uarte_0_irq_handler+0x174>)
    27ca:	9105      	str	r1, [sp, #20]
    27cc:	9905      	ldr	r1, [sp, #20]
    27ce:	69a1      	ldr	r1, [r4, #24]
    27d0:	f8d3 053c 	ldr.w	r0, [r3, #1340]	; 0x53c
    27d4:	4288      	cmp	r0, r1
    27d6:	d1b3      	bne.n	2740 <nrfx_uarte_0_irq_handler+0x48>
    27d8:	69e1      	ldr	r1, [r4, #28]
    27da:	2900      	cmp	r1, #0
    27dc:	d033      	beq.n	2846 <nrfx_uarte_0_irq_handler+0x14e>
    27de:	e9c4 1206 	strd	r1, r2, [r4, #24]
    27e2:	f8d3 2200 	ldr.w	r2, [r3, #512]	; 0x200
    27e6:	f022 0220 	bic.w	r2, r2, #32
    27ea:	f8c3 2200 	str.w	r2, [r3, #512]	; 0x200
    27ee:	68e2      	ldr	r2, [r4, #12]
    27f0:	9207      	str	r2, [sp, #28]
    27f2:	2101      	movs	r1, #1
    27f4:	6922      	ldr	r2, [r4, #16]
    27f6:	f88d 1018 	strb.w	r1, [sp, #24]
    27fa:	9008      	str	r0, [sp, #32]
    27fc:	6863      	ldr	r3, [r4, #4]
    27fe:	6821      	ldr	r1, [r4, #0]
    2800:	60e2      	str	r2, [r4, #12]
    2802:	a806      	add	r0, sp, #24
    2804:	4798      	blx	r3
    2806:	e79b      	b.n	2740 <nrfx_uarte_0_irq_handler+0x48>
    2808:	f8d3 454c 	ldr.w	r4, [r3, #1356]	; 0x54c
    280c:	f88d 0018 	strb.w	r0, [sp, #24]
    2810:	e9d2 3101 	ldrd	r3, r1, [r2, #4]
    2814:	6150      	str	r0, [r2, #20]
    2816:	e9cd 1407 	strd	r1, r4, [sp, #28]
    281a:	a806      	add	r0, sp, #24
    281c:	6811      	ldr	r1, [r2, #0]
    281e:	4798      	blx	r3
    2820:	e7ae      	b.n	2780 <nrfx_uarte_0_irq_handler+0x88>
    2822:	ed9f 7b0f 	vldr	d7, [pc, #60]	; 2860 <nrfx_uarte_0_irq_handler+0x168>
    2826:	f8d3 453c 	ldr.w	r4, [r3, #1340]	; 0x53c
    282a:	68d0      	ldr	r0, [r2, #12]
    282c:	f04f 0c01 	mov.w	ip, #1
    2830:	e9cd 0407 	strd	r0, r4, [sp, #28]
    2834:	ed82 7b06 	vstr	d7, [r2, #24]
    2838:	e9d2 1300 	ldrd	r1, r3, [r2]
    283c:	f88d c018 	strb.w	ip, [sp, #24]
    2840:	a806      	add	r0, sp, #24
    2842:	4798      	blx	r3
    2844:	e78b      	b.n	275e <nrfx_uarte_0_irq_handler+0x66>
    2846:	68e2      	ldr	r2, [r4, #12]
    2848:	61a1      	str	r1, [r4, #24]
    284a:	2301      	movs	r3, #1
    284c:	e9cd 2007 	strd	r2, r0, [sp, #28]
    2850:	f88d 3018 	strb.w	r3, [sp, #24]
    2854:	a806      	add	r0, sp, #24
    2856:	e9d4 1300 	ldrd	r1, r3, [r4]
    285a:	4798      	blx	r3
    285c:	e770      	b.n	2740 <nrfx_uarte_0_irq_handler+0x48>
    285e:	bf00      	nop
	...
    2868:	40002000 	.word	0x40002000
    286c:	200006a8 	.word	0x200006a8

00002870 <nrfx_uarte_init>:
    2870:	e92d 43f0 	stmdb	sp!, {r4, r5, r6, r7, r8, r9, lr}
    2874:	7907      	ldrb	r7, [r0, #4]
    2876:	4e6d      	ldr	r6, [pc, #436]	; (2a2c <nrfx_uarte_init+0x1bc>)
    2878:	eb07 03c7 	add.w	r3, r7, r7, lsl #3
    287c:	eb06 0383 	add.w	r3, r6, r3, lsl #2
    2880:	b087      	sub	sp, #28
    2882:	f893 3020 	ldrb.w	r3, [r3, #32]
    2886:	2b00      	cmp	r3, #0
    2888:	f040 80a2 	bne.w	29d0 <nrfx_uarte_init+0x160>
    288c:	4604      	mov	r4, r0
    288e:	460d      	mov	r5, r1
    2890:	6800      	ldr	r0, [r0, #0]
    2892:	4967      	ldr	r1, [pc, #412]	; (2a30 <nrfx_uarte_init+0x1c0>)
    2894:	4690      	mov	r8, r2
    2896:	f7ff f8cb 	bl	1a30 <nrfx_prs_acquire>
    289a:	2800      	cmp	r0, #0
    289c:	f040 8094 	bne.w	29c8 <nrfx_uarte_init+0x158>
    28a0:	682b      	ldr	r3, [r5, #0]
    28a2:	1c59      	adds	r1, r3, #1
    28a4:	ea4f 09c7 	mov.w	r9, r7, lsl #3
    28a8:	d00c      	beq.n	28c4 <nrfx_uarte_init+0x54>
    28aa:	f04f 41a0 	mov.w	r1, #1342177280	; 0x50000000
    28ae:	2201      	movs	r2, #1
    28b0:	fa02 f303 	lsl.w	r3, r2, r3
    28b4:	f8c1 3508 	str.w	r3, [r1, #1288]	; 0x508
    28b8:	682b      	ldr	r3, [r5, #0]
    28ba:	f503 73e0 	add.w	r3, r3, #448	; 0x1c0
    28be:	2203      	movs	r2, #3
    28c0:	f841 2023 	str.w	r2, [r1, r3, lsl #2]
    28c4:	686b      	ldr	r3, [r5, #4]
    28c6:	1c5a      	adds	r2, r3, #1
    28c8:	d006      	beq.n	28d8 <nrfx_uarte_init+0x68>
    28ca:	f503 73e0 	add.w	r3, r3, #448	; 0x1c0
    28ce:	f04f 42a0 	mov.w	r2, #1342177280	; 0x50000000
    28d2:	2100      	movs	r1, #0
    28d4:	f842 1023 	str.w	r1, [r2, r3, lsl #2]
    28d8:	6823      	ldr	r3, [r4, #0]
    28da:	69aa      	ldr	r2, [r5, #24]
    28dc:	f8c3 2524 	str.w	r2, [r3, #1316]	; 0x524
    28e0:	7d2b      	ldrb	r3, [r5, #20]
    28e2:	7d6a      	ldrb	r2, [r5, #21]
    28e4:	431a      	orrs	r2, r3
    28e6:	6823      	ldr	r3, [r4, #0]
    28e8:	f8c3 256c 	str.w	r2, [r3, #1388]	; 0x56c
    28ec:	e9d5 3100 	ldrd	r3, r1, [r5]
    28f0:	6822      	ldr	r2, [r4, #0]
    28f2:	f8c2 350c 	str.w	r3, [r2, #1292]	; 0x50c
    28f6:	f8c2 1514 	str.w	r1, [r2, #1300]	; 0x514
    28fa:	7d2b      	ldrb	r3, [r5, #20]
    28fc:	2b01      	cmp	r3, #1
    28fe:	d072      	beq.n	29e6 <nrfx_uarte_init+0x176>
    2900:	eb09 0207 	add.w	r2, r9, r7
    2904:	eb06 0382 	add.w	r3, r6, r2, lsl #2
    2908:	f8c3 8004 	str.w	r8, [r3, #4]
    290c:	692b      	ldr	r3, [r5, #16]
    290e:	f846 3022 	str.w	r3, [r6, r2, lsl #2]
    2912:	f1b8 0f00 	cmp.w	r8, #0
    2916:	d046      	beq.n	29a6 <nrfx_uarte_init+0x136>
    2918:	6821      	ldr	r1, [r4, #0]
    291a:	7f2b      	ldrb	r3, [r5, #28]
    291c:	2200      	movs	r2, #0
    291e:	f8c1 2110 	str.w	r2, [r1, #272]	; 0x110
    2922:	f8d1 1110 	ldr.w	r1, [r1, #272]	; 0x110
    2926:	9101      	str	r1, [sp, #4]
    2928:	9901      	ldr	r1, [sp, #4]
    292a:	6821      	ldr	r1, [r4, #0]
    292c:	f8c1 2120 	str.w	r2, [r1, #288]	; 0x120
    2930:	f8d1 1120 	ldr.w	r1, [r1, #288]	; 0x120
    2934:	9102      	str	r1, [sp, #8]
    2936:	9902      	ldr	r1, [sp, #8]
    2938:	6821      	ldr	r1, [r4, #0]
    293a:	f8c1 2124 	str.w	r2, [r1, #292]	; 0x124
    293e:	f8d1 1124 	ldr.w	r1, [r1, #292]	; 0x124
    2942:	9103      	str	r1, [sp, #12]
    2944:	9903      	ldr	r1, [sp, #12]
    2946:	6821      	ldr	r1, [r4, #0]
    2948:	f8c1 2144 	str.w	r2, [r1, #324]	; 0x144
    294c:	f8d1 1144 	ldr.w	r1, [r1, #324]	; 0x144
    2950:	9104      	str	r1, [sp, #16]
    2952:	9904      	ldr	r1, [sp, #16]
    2954:	6821      	ldr	r1, [r4, #0]
    2956:	f8c1 2158 	str.w	r2, [r1, #344]	; 0x158
    295a:	f8d1 2158 	ldr.w	r2, [r1, #344]	; 0x158
    295e:	9205      	str	r2, [sp, #20]
    2960:	9a05      	ldr	r2, [sp, #20]
    2962:	6822      	ldr	r2, [r4, #0]
    2964:	4933      	ldr	r1, [pc, #204]	; (2a34 <nrfx_uarte_init+0x1c4>)
    2966:	f8c2 1304 	str.w	r1, [r2, #772]	; 0x304
    296a:	6822      	ldr	r2, [r4, #0]
    296c:	f342 3107 	sbfx	r1, r2, #12, #8
    2970:	2900      	cmp	r1, #0
    2972:	ea4f 3212 	mov.w	r2, r2, lsr #12
    2976:	db2f      	blt.n	29d8 <nrfx_uarte_init+0x168>
    2978:	f101 4160 	add.w	r1, r1, #3758096384	; 0xe0000000
    297c:	015b      	lsls	r3, r3, #5
    297e:	f501 4161 	add.w	r1, r1, #57600	; 0xe100
    2982:	b2db      	uxtb	r3, r3
    2984:	f881 3300 	strb.w	r3, [r1, #768]	; 0x300
    2988:	6822      	ldr	r2, [r4, #0]
    298a:	f342 3307 	sbfx	r3, r2, #12, #8
    298e:	2b00      	cmp	r3, #0
    2990:	ea4f 3112 	mov.w	r1, r2, lsr #12
    2994:	db08      	blt.n	29a8 <nrfx_uarte_init+0x138>
    2996:	4d28      	ldr	r5, [pc, #160]	; (2a38 <nrfx_uarte_init+0x1c8>)
    2998:	095b      	lsrs	r3, r3, #5
    299a:	f001 011f 	and.w	r1, r1, #31
    299e:	2201      	movs	r2, #1
    29a0:	408a      	lsls	r2, r1
    29a2:	f845 2023 	str.w	r2, [r5, r3, lsl #2]
    29a6:	6822      	ldr	r2, [r4, #0]
    29a8:	44b9      	add	r9, r7
    29aa:	eb06 0689 	add.w	r6, r6, r9, lsl #2
    29ae:	2101      	movs	r1, #1
    29b0:	2300      	movs	r3, #0
    29b2:	f886 1020 	strb.w	r1, [r6, #32]
    29b6:	2108      	movs	r1, #8
    29b8:	f8c2 1500 	str.w	r1, [r2, #1280]	; 0x500
    29bc:	e9c6 3306 	strd	r3, r3, [r6, #24]
    29c0:	6173      	str	r3, [r6, #20]
    29c2:	b007      	add	sp, #28
    29c4:	e8bd 83f0 	ldmia.w	sp!, {r4, r5, r6, r7, r8, r9, pc}
    29c8:	2011      	movs	r0, #17
    29ca:	b007      	add	sp, #28
    29cc:	e8bd 83f0 	ldmia.w	sp!, {r4, r5, r6, r7, r8, r9, pc}
    29d0:	2008      	movs	r0, #8
    29d2:	b007      	add	sp, #28
    29d4:	e8bd 83f0 	ldmia.w	sp!, {r4, r5, r6, r7, r8, r9, pc}
    29d8:	4918      	ldr	r1, [pc, #96]	; (2a3c <nrfx_uarte_init+0x1cc>)
    29da:	f002 020f 	and.w	r2, r2, #15
    29de:	015b      	lsls	r3, r3, #5
    29e0:	b2db      	uxtb	r3, r3
    29e2:	548b      	strb	r3, [r1, r2]
    29e4:	e7d0      	b.n	2988 <nrfx_uarte_init+0x118>
    29e6:	68ab      	ldr	r3, [r5, #8]
    29e8:	1c59      	adds	r1, r3, #1
    29ea:	d006      	beq.n	29fa <nrfx_uarte_init+0x18a>
    29ec:	f503 73e0 	add.w	r3, r3, #448	; 0x1c0
    29f0:	f04f 42a0 	mov.w	r2, #1342177280	; 0x50000000
    29f4:	2100      	movs	r1, #0
    29f6:	f842 1023 	str.w	r1, [r2, r3, lsl #2]
    29fa:	68eb      	ldr	r3, [r5, #12]
    29fc:	1c5a      	adds	r2, r3, #1
    29fe:	d00d      	beq.n	2a1c <nrfx_uarte_init+0x1ac>
    2a00:	f04f 41a0 	mov.w	r1, #1342177280	; 0x50000000
    2a04:	2201      	movs	r2, #1
    2a06:	fa02 f303 	lsl.w	r3, r2, r3
    2a0a:	f8c1 3508 	str.w	r3, [r1, #1288]	; 0x508
    2a0e:	68eb      	ldr	r3, [r5, #12]
    2a10:	f503 73e0 	add.w	r3, r3, #448	; 0x1c0
    2a14:	2203      	movs	r2, #3
    2a16:	f841 2023 	str.w	r2, [r1, r3, lsl #2]
    2a1a:	68eb      	ldr	r3, [r5, #12]
    2a1c:	6822      	ldr	r2, [r4, #0]
    2a1e:	68a9      	ldr	r1, [r5, #8]
    2a20:	f8c2 3508 	str.w	r3, [r2, #1288]	; 0x508
    2a24:	f8c2 1510 	str.w	r1, [r2, #1296]	; 0x510
    2a28:	e76a      	b.n	2900 <nrfx_uarte_init+0x90>
    2a2a:	bf00      	nop
    2a2c:	200006a8 	.word	0x200006a8
    2a30:	000026f9 	.word	0x000026f9
    2a34:	00420310 	.word	0x00420310
    2a38:	e000e100 	.word	0xe000e100
    2a3c:	e000ed14 	.word	0xe000ed14

00002a40 <nrfx_uarte_uninit>:
    2a40:	e92d 41f0 	stmdb	sp!, {r4, r5, r6, r7, r8, lr}
    2a44:	7905      	ldrb	r5, [r0, #4]
    2a46:	4c4b      	ldr	r4, [pc, #300]	; (2b74 <nrfx_uarte_uninit+0x134>)
    2a48:	eb05 03c5 	add.w	r3, r5, r5, lsl #3
    2a4c:	eb04 0383 	add.w	r3, r4, r3, lsl #2
    2a50:	4601      	mov	r1, r0
    2a52:	685b      	ldr	r3, [r3, #4]
    2a54:	6800      	ldr	r0, [r0, #0]
    2a56:	b082      	sub	sp, #8
    2a58:	00ee      	lsls	r6, r5, #3
    2a5a:	b1c3      	cbz	r3, 2a8e <nrfx_uarte_uninit+0x4e>
    2a5c:	4b46      	ldr	r3, [pc, #280]	; (2b78 <nrfx_uarte_uninit+0x138>)
    2a5e:	f8c0 3308 	str.w	r3, [r0, #776]	; 0x308
    2a62:	680b      	ldr	r3, [r1, #0]
    2a64:	f343 3207 	sbfx	r2, r3, #12, #8
    2a68:	2a00      	cmp	r2, #0
    2a6a:	ea4f 3313 	mov.w	r3, r3, lsr #12
    2a6e:	db0e      	blt.n	2a8e <nrfx_uarte_uninit+0x4e>
    2a70:	0952      	lsrs	r2, r2, #5
    2a72:	f8df c108 	ldr.w	ip, [pc, #264]	; 2b7c <nrfx_uarte_uninit+0x13c>
    2a76:	3220      	adds	r2, #32
    2a78:	2701      	movs	r7, #1
    2a7a:	f003 031f 	and.w	r3, r3, #31
    2a7e:	fa07 f303 	lsl.w	r3, r7, r3
    2a82:	f84c 3022 	str.w	r3, [ip, r2, lsl #2]
    2a86:	f3bf 8f4f 	dsb	sy
    2a8a:	f3bf 8f6f 	isb	sy
    2a8e:	1973      	adds	r3, r6, r5
    2a90:	eb04 0383 	add.w	r3, r4, r3, lsl #2
    2a94:	699a      	ldr	r2, [r3, #24]
    2a96:	f8d0 3200 	ldr.w	r3, [r0, #512]	; 0x200
    2a9a:	f023 0320 	bic.w	r3, r3, #32
    2a9e:	f8c0 3200 	str.w	r3, [r0, #512]	; 0x200
    2aa2:	b142      	cbz	r2, 2ab6 <nrfx_uarte_uninit+0x76>
    2aa4:	2300      	movs	r3, #0
    2aa6:	f8c0 3144 	str.w	r3, [r0, #324]	; 0x144
    2aaa:	f8d0 3144 	ldr.w	r3, [r0, #324]	; 0x144
    2aae:	9300      	str	r3, [sp, #0]
    2ab0:	9b00      	ldr	r3, [sp, #0]
    2ab2:	2301      	movs	r3, #1
    2ab4:	6043      	str	r3, [r0, #4]
    2ab6:	2300      	movs	r3, #0
    2ab8:	f8c0 3158 	str.w	r3, [r0, #344]	; 0x158
    2abc:	f8d0 3158 	ldr.w	r3, [r0, #344]	; 0x158
    2ac0:	9301      	str	r3, [sp, #4]
    2ac2:	9b01      	ldr	r3, [sp, #4]
    2ac4:	1973      	adds	r3, r6, r5
    2ac6:	2201      	movs	r2, #1
    2ac8:	eb04 0383 	add.w	r3, r4, r3, lsl #2
    2acc:	60c2      	str	r2, [r0, #12]
    2ace:	699a      	ldr	r2, [r3, #24]
    2ad0:	f8d0 3158 	ldr.w	r3, [r0, #344]	; 0x158
    2ad4:	2b00      	cmp	r3, #0
    2ad6:	d0fb      	beq.n	2ad0 <nrfx_uarte_uninit+0x90>
    2ad8:	b11a      	cbz	r2, 2ae2 <nrfx_uarte_uninit+0xa2>
    2ada:	f8d0 3144 	ldr.w	r3, [r0, #324]	; 0x144
    2ade:	2b00      	cmp	r3, #0
    2ae0:	d0f6      	beq.n	2ad0 <nrfx_uarte_uninit+0x90>
    2ae2:	2300      	movs	r3, #0
    2ae4:	f8c0 3500 	str.w	r3, [r0, #1280]	; 0x500
    2ae8:	680b      	ldr	r3, [r1, #0]
    2aea:	f04f 32ff 	mov.w	r2, #4294967295	; 0xffffffff
    2aee:	f8d3 850c 	ldr.w	r8, [r3, #1292]	; 0x50c
    2af2:	f8d3 e514 	ldr.w	lr, [r3, #1300]	; 0x514
    2af6:	f8d3 7508 	ldr.w	r7, [r3, #1288]	; 0x508
    2afa:	f8d3 c510 	ldr.w	ip, [r3, #1296]	; 0x510
    2afe:	f8c3 250c 	str.w	r2, [r3, #1292]	; 0x50c
    2b02:	f8c3 2514 	str.w	r2, [r3, #1300]	; 0x514
    2b06:	680b      	ldr	r3, [r1, #0]
    2b08:	4590      	cmp	r8, r2
    2b0a:	f8c3 2508 	str.w	r2, [r3, #1288]	; 0x508
    2b0e:	f8c3 2510 	str.w	r2, [r3, #1296]	; 0x510
    2b12:	d006      	beq.n	2b22 <nrfx_uarte_uninit+0xe2>
    2b14:	f508 78e0 	add.w	r8, r8, #448	; 0x1c0
    2b18:	f04f 43a0 	mov.w	r3, #1342177280	; 0x50000000
    2b1c:	2202      	movs	r2, #2
    2b1e:	f843 2028 	str.w	r2, [r3, r8, lsl #2]
    2b22:	f1be 3fff 	cmp.w	lr, #4294967295	; 0xffffffff
    2b26:	d006      	beq.n	2b36 <nrfx_uarte_uninit+0xf6>
    2b28:	f50e 7ee0 	add.w	lr, lr, #448	; 0x1c0
    2b2c:	f04f 43a0 	mov.w	r3, #1342177280	; 0x50000000
    2b30:	2202      	movs	r2, #2
    2b32:	f843 202e 	str.w	r2, [r3, lr, lsl #2]
    2b36:	f1bc 3fff 	cmp.w	ip, #4294967295	; 0xffffffff
    2b3a:	d006      	beq.n	2b4a <nrfx_uarte_uninit+0x10a>
    2b3c:	f50c 7ce0 	add.w	ip, ip, #448	; 0x1c0
    2b40:	f04f 43a0 	mov.w	r3, #1342177280	; 0x50000000
    2b44:	2202      	movs	r2, #2
    2b46:	f843 202c 	str.w	r2, [r3, ip, lsl #2]
    2b4a:	1c7b      	adds	r3, r7, #1
    2b4c:	d006      	beq.n	2b5c <nrfx_uarte_uninit+0x11c>
    2b4e:	f507 77e0 	add.w	r7, r7, #448	; 0x1c0
    2b52:	f04f 43a0 	mov.w	r3, #1342177280	; 0x50000000
    2b56:	2202      	movs	r2, #2
    2b58:	f843 2027 	str.w	r2, [r3, r7, lsl #2]
    2b5c:	f7fe ff86 	bl	1a6c <nrfx_prs_release>
    2b60:	442e      	add	r6, r5
    2b62:	eb04 0486 	add.w	r4, r4, r6, lsl #2
    2b66:	2300      	movs	r3, #0
    2b68:	f884 3020 	strb.w	r3, [r4, #32]
    2b6c:	6063      	str	r3, [r4, #4]
    2b6e:	b002      	add	sp, #8
    2b70:	e8bd 81f0 	ldmia.w	sp!, {r4, r5, r6, r7, r8, pc}
    2b74:	200006a8 	.word	0x200006a8
    2b78:	00420310 	.word	0x00420310
    2b7c:	e000e100 	.word	0xe000e100

00002b80 <nrfx_uarte_tx>:
    2b80:	f001 4c60 	and.w	ip, r1, #3758096384	; 0xe0000000
    2b84:	f1bc 5f00 	cmp.w	ip, #536870912	; 0x20000000
    2b88:	d130      	bne.n	2bec <nrfx_uarte_tx+0x6c>
    2b8a:	b570      	push	{r4, r5, r6, lr}
    2b8c:	f890 e004 	ldrb.w	lr, [r0, #4]
    2b90:	4c26      	ldr	r4, [pc, #152]	; (2c2c <nrfx_uarte_tx+0xac>)
    2b92:	eb0e 0cce 	add.w	ip, lr, lr, lsl #3
    2b96:	eb04 0c8c 	add.w	ip, r4, ip, lsl #2
    2b9a:	4603      	mov	r3, r0
    2b9c:	f8dc 0014 	ldr.w	r0, [ip, #20]
    2ba0:	b082      	sub	sp, #8
    2ba2:	ea4f 05ce 	mov.w	r5, lr, lsl #3
    2ba6:	2800      	cmp	r0, #0
    2ba8:	d13a      	bne.n	2c20 <nrfx_uarte_tx+0xa0>
    2baa:	f8cc 2014 	str.w	r2, [ip, #20]
    2bae:	f8cc 1008 	str.w	r1, [ip, #8]
    2bb2:	681a      	ldr	r2, [r3, #0]
    2bb4:	f8c2 0120 	str.w	r0, [r2, #288]	; 0x120
    2bb8:	f8d2 2120 	ldr.w	r2, [r2, #288]	; 0x120
    2bbc:	9201      	str	r2, [sp, #4]
    2bbe:	9a01      	ldr	r2, [sp, #4]
    2bc0:	681a      	ldr	r2, [r3, #0]
    2bc2:	f8c2 0158 	str.w	r0, [r2, #344]	; 0x158
    2bc6:	f8d2 2158 	ldr.w	r2, [r2, #344]	; 0x158
    2bca:	9200      	str	r2, [sp, #0]
    2bcc:	9a00      	ldr	r2, [sp, #0]
    2bce:	681a      	ldr	r2, [r3, #0]
    2bd0:	f8dc 6014 	ldr.w	r6, [ip, #20]
    2bd4:	f8c2 1544 	str.w	r1, [r2, #1348]	; 0x544
    2bd8:	f8c2 6548 	str.w	r6, [r2, #1352]	; 0x548
    2bdc:	681a      	ldr	r2, [r3, #0]
    2bde:	2101      	movs	r1, #1
    2be0:	6091      	str	r1, [r2, #8]
    2be2:	f8dc 2004 	ldr.w	r2, [ip, #4]
    2be6:	b11a      	cbz	r2, 2bf0 <nrfx_uarte_tx+0x70>
    2be8:	b002      	add	sp, #8
    2bea:	bd70      	pop	{r4, r5, r6, pc}
    2bec:	2010      	movs	r0, #16
    2bee:	4770      	bx	lr
    2bf0:	681a      	ldr	r2, [r3, #0]
    2bf2:	e000      	b.n	2bf6 <nrfx_uarte_tx+0x76>
    2bf4:	b9b8      	cbnz	r0, 2c26 <nrfx_uarte_tx+0xa6>
    2bf6:	f8d2 1120 	ldr.w	r1, [r2, #288]	; 0x120
    2bfa:	f8d2 0158 	ldr.w	r0, [r2, #344]	; 0x158
    2bfe:	2900      	cmp	r1, #0
    2c00:	d0f8      	beq.n	2bf4 <nrfx_uarte_tx+0x74>
    2c02:	b980      	cbnz	r0, 2c26 <nrfx_uarte_tx+0xa6>
    2c04:	2101      	movs	r1, #1
    2c06:	60d1      	str	r1, [r2, #12]
    2c08:	681b      	ldr	r3, [r3, #0]
    2c0a:	f8d3 2158 	ldr.w	r2, [r3, #344]	; 0x158
    2c0e:	2a00      	cmp	r2, #0
    2c10:	d0fb      	beq.n	2c0a <nrfx_uarte_tx+0x8a>
    2c12:	4475      	add	r5, lr
    2c14:	eb04 0385 	add.w	r3, r4, r5, lsl #2
    2c18:	2200      	movs	r2, #0
    2c1a:	615a      	str	r2, [r3, #20]
    2c1c:	b002      	add	sp, #8
    2c1e:	bd70      	pop	{r4, r5, r6, pc}
    2c20:	2011      	movs	r0, #17
    2c22:	b002      	add	sp, #8
    2c24:	bd70      	pop	{r4, r5, r6, pc}
    2c26:	200f      	movs	r0, #15
    2c28:	e7f3      	b.n	2c12 <nrfx_uarte_tx+0x92>
    2c2a:	bf00      	nop
    2c2c:	200006a8 	.word	0x200006a8

00002c30 <twi_handler>:
    2c30:	b508      	push	{r3, lr}
    2c32:	7803      	ldrb	r3, [r0, #0]
    2c34:	b92b      	cbnz	r3, 2c42 <twi_handler+0x12>
    2c36:	7903      	ldrb	r3, [r0, #4]
    2c38:	2b01      	cmp	r3, #1
    2c3a:	d003      	beq.n	2c44 <twi_handler+0x14>
    2c3c:	4b09      	ldr	r3, [pc, #36]	; (2c64 <twi_handler+0x34>)
    2c3e:	2201      	movs	r2, #1
    2c40:	701a      	strb	r2, [r3, #0]
    2c42:	bd08      	pop	{r3, pc}
    2c44:	4a08      	ldr	r2, [pc, #32]	; (2c68 <twi_handler+0x38>)
    2c46:	4809      	ldr	r0, [pc, #36]	; (2c6c <twi_handler+0x3c>)
    2c48:	4b09      	ldr	r3, [pc, #36]	; (2c70 <twi_handler+0x40>)
    2c4a:	490a      	ldr	r1, [pc, #40]	; (2c74 <twi_handler+0x44>)
    2c4c:	1a80      	subs	r0, r0, r2
    2c4e:	08c0      	lsrs	r0, r0, #3
    2c50:	0400      	lsls	r0, r0, #16
    2c52:	781a      	ldrb	r2, [r3, #0]
    2c54:	f040 0003 	orr.w	r0, r0, #3
    2c58:	f7fd fe90 	bl	97c <nrf_log_frontend_std_1>
    2c5c:	4b01      	ldr	r3, [pc, #4]	; (2c64 <twi_handler+0x34>)
    2c5e:	2201      	movs	r2, #1
    2c60:	701a      	strb	r2, [r3, #0]
    2c62:	e7ee      	b.n	2c42 <twi_handler+0x12>
    2c64:	200006cd 	.word	0x200006cd
    2c68:	000036dc 	.word	0x000036dc
    2c6c:	000036fc 	.word	0x000036fc
    2c70:	200006cc 	.word	0x200006cc
    2c74:	00003564 	.word	0x00003564

00002c78 <LM75B_set_mode>:
    2c78:	b510      	push	{r4, lr}
    2c7a:	b084      	sub	sp, #16
    2c7c:	2300      	movs	r3, #0
    2c7e:	2101      	movs	r1, #1
    2c80:	9300      	str	r3, [sp, #0]
    2c82:	f8ad 100c 	strh.w	r1, [sp, #12]
    2c86:	4811      	ldr	r0, [pc, #68]	; (2ccc <LM75B_set_mode+0x54>)
    2c88:	2302      	movs	r3, #2
    2c8a:	aa03      	add	r2, sp, #12
    2c8c:	2148      	movs	r1, #72	; 0x48
    2c8e:	f7ff f8c5 	bl	1e1c <nrfx_twim_tx>
    2c92:	b9a0      	cbnz	r0, 2cbe <LM75B_set_mode+0x46>
    2c94:	4c0e      	ldr	r4, [pc, #56]	; (2cd0 <LM75B_set_mode+0x58>)
    2c96:	7823      	ldrb	r3, [r4, #0]
    2c98:	2b00      	cmp	r3, #0
    2c9a:	d0fc      	beq.n	2c96 <LM75B_set_mode+0x1e>
    2c9c:	2000      	movs	r0, #0
    2c9e:	9000      	str	r0, [sp, #0]
    2ca0:	f88d 000c 	strb.w	r0, [sp, #12]
    2ca4:	7020      	strb	r0, [r4, #0]
    2ca6:	2301      	movs	r3, #1
    2ca8:	4808      	ldr	r0, [pc, #32]	; (2ccc <LM75B_set_mode+0x54>)
    2caa:	aa03      	add	r2, sp, #12
    2cac:	2148      	movs	r1, #72	; 0x48
    2cae:	f7ff f8b5 	bl	1e1c <nrfx_twim_tx>
    2cb2:	b938      	cbnz	r0, 2cc4 <LM75B_set_mode+0x4c>
    2cb4:	7823      	ldrb	r3, [r4, #0]
    2cb6:	2b00      	cmp	r3, #0
    2cb8:	d0fc      	beq.n	2cb4 <LM75B_set_mode+0x3c>
    2cba:	b004      	add	sp, #16
    2cbc:	bd10      	pop	{r4, pc}
    2cbe:	f7fe f83d 	bl	d3c <app_error_handler_bare>
    2cc2:	e7e7      	b.n	2c94 <LM75B_set_mode+0x1c>
    2cc4:	f7fe f83a 	bl	d3c <app_error_handler_bare>
    2cc8:	e7f4      	b.n	2cb4 <LM75B_set_mode+0x3c>
    2cca:	bf00      	nop
    2ccc:	000035bc 	.word	0x000035bc
    2cd0:	200006cd 	.word	0x200006cd
    2cd4:	00000000 	.word	0x00000000

00002cd8 <twi_init>:
    2cd8:	b510      	push	{r4, lr}
    2cda:	ed9f 7b0f 	vldr	d7, [pc, #60]	; 2d18 <twi_init+0x40>
    2cde:	b084      	sub	sp, #16
    2ce0:	2102      	movs	r1, #2
    2ce2:	f04f 74cc 	mov.w	r4, #26738688	; 0x1980000
    2ce6:	e9cd 4102 	strd	r4, r1, [sp, #8]
    2cea:	4a0d      	ldr	r2, [pc, #52]	; (2d20 <twi_init+0x48>)
    2cec:	480d      	ldr	r0, [pc, #52]	; (2d24 <twi_init+0x4c>)
    2cee:	2300      	movs	r3, #0
    2cf0:	4669      	mov	r1, sp
    2cf2:	ed8d 7b00 	vstr	d7, [sp]
    2cf6:	f7fe fda5 	bl	1844 <nrf_drv_twi_init>
    2cfa:	b920      	cbnz	r0, 2d06 <twi_init+0x2e>
    2cfc:	480a      	ldr	r0, [pc, #40]	; (2d28 <twi_init+0x50>)
    2cfe:	f7ff f87d 	bl	1dfc <nrfx_twim_enable>
    2d02:	b004      	add	sp, #16
    2d04:	bd10      	pop	{r4, pc}
    2d06:	f7fe f819 	bl	d3c <app_error_handler_bare>
    2d0a:	4807      	ldr	r0, [pc, #28]	; (2d28 <twi_init+0x50>)
    2d0c:	f7ff f876 	bl	1dfc <nrfx_twim_enable>
    2d10:	b004      	add	sp, #16
    2d12:	bd10      	pop	{r4, pc}
    2d14:	f3af 8000 	nop.w
    2d18:	0000001b 	.word	0x0000001b
    2d1c:	0000001a 	.word	0x0000001a
    2d20:	00002c31 	.word	0x00002c31
    2d24:	000035b8 	.word	0x000035b8
    2d28:	000035bc 	.word	0x000035bc

00002d2c <main>:
    2d2c:	2100      	movs	r1, #0
    2d2e:	e92d 41f0 	stmdb	sp!, {r4, r5, r6, r7, r8, lr}
    2d32:	4608      	mov	r0, r1
    2d34:	f7fd fc58 	bl	5e8 <nrf_log_init>
    2d38:	2800      	cmp	r0, #0
    2d3a:	d136      	bne.n	2daa <main+0x7e>
    2d3c:	f7fd fbde 	bl	4fc <nrf_log_default_backends_init>
    2d40:	481b      	ldr	r0, [pc, #108]	; (2db0 <main+0x84>)
    2d42:	4b1c      	ldr	r3, [pc, #112]	; (2db4 <main+0x88>)
    2d44:	491c      	ldr	r1, [pc, #112]	; (2db8 <main+0x8c>)
    2d46:	1ac0      	subs	r0, r0, r3
    2d48:	08c0      	lsrs	r0, r0, #3
    2d4a:	0400      	lsls	r0, r0, #16
    2d4c:	f040 0003 	orr.w	r0, r0, #3
    2d50:	f7fd fdbc 	bl	8cc <nrf_log_frontend_std_0>
    2d54:	f7fd fc96 	bl	684 <nrf_log_frontend_dequeue>
    2d58:	2800      	cmp	r0, #0
    2d5a:	d1fb      	bne.n	2d54 <main+0x28>
    2d5c:	f7ff ffbc 	bl	2cd8 <twi_init>
    2d60:	4e16      	ldr	r6, [pc, #88]	; (2dbc <main+0x90>)
    2d62:	4d17      	ldr	r5, [pc, #92]	; (2dc0 <main+0x94>)
    2d64:	f8df 8060 	ldr.w	r8, [pc, #96]	; 2dc8 <main+0x9c>
    2d68:	4f16      	ldr	r7, [pc, #88]	; (2dc4 <main+0x98>)
    2d6a:	f7ff ff85 	bl	2c78 <LM75B_set_mode>
    2d6e:	f046 0601 	orr.w	r6, r6, #1
    2d72:	f44f 74fa 	mov.w	r4, #500	; 0x1f4
    2d76:	f44f 407a 	mov.w	r0, #64000	; 0xfa00
    2d7a:	47b0      	blx	r6
    2d7c:	3c01      	subs	r4, #1
    2d7e:	d1fa      	bne.n	2d76 <main+0x4a>
    2d80:	bf20      	wfe
    2d82:	782b      	ldrb	r3, [r5, #0]
    2d84:	2b00      	cmp	r3, #0
    2d86:	d0fb      	beq.n	2d80 <main+0x54>
    2d88:	2400      	movs	r4, #0
    2d8a:	2301      	movs	r3, #1
    2d8c:	4642      	mov	r2, r8
    2d8e:	2148      	movs	r1, #72	; 0x48
    2d90:	4638      	mov	r0, r7
    2d92:	702c      	strb	r4, [r5, #0]
    2d94:	f7ff f934 	bl	2000 <nrfx_twim_rx>
    2d98:	b920      	cbnz	r0, 2da4 <main+0x78>
    2d9a:	f7fd fc73 	bl	684 <nrf_log_frontend_dequeue>
    2d9e:	2800      	cmp	r0, #0
    2da0:	d1fb      	bne.n	2d9a <main+0x6e>
    2da2:	e7e6      	b.n	2d72 <main+0x46>
    2da4:	f7fd ffca 	bl	d3c <app_error_handler_bare>
    2da8:	e7f7      	b.n	2d9a <main+0x6e>
    2daa:	f7fd ffc7 	bl	d3c <app_error_handler_bare>
    2dae:	e7c5      	b.n	2d3c <main+0x10>
    2db0:	000036fc 	.word	0x000036fc
    2db4:	000036dc 	.word	0x000036dc
    2db8:	00003588 	.word	0x00003588
    2dbc:	000035b0 	.word	0x000035b0
    2dc0:	200006cd 	.word	0x200006cd
    2dc4:	000035bc 	.word	0x000035bc
    2dc8:	200006cc 	.word	0x200006cc

00002dcc <SystemInit>:
    2dcc:	b410      	push	{r4}
    2dce:	f04f 5380 	mov.w	r3, #268435456	; 0x10000000
    2dd2:	f8d3 3130 	ldr.w	r3, [r3, #304]	; 0x130
    2dd6:	1c5a      	adds	r2, r3, #1
    2dd8:	bf04      	itt	eq
    2dda:	f04f 4370 	moveq.w	r3, #4026531840	; 0xf0000000
    2dde:	f893 3fe0 	ldrbeq.w	r3, [r3, #4064]	; 0xfe0
    2de2:	2b06      	cmp	r3, #6
    2de4:	d108      	bne.n	2df8 <SystemInit+0x2c>
    2de6:	f04f 5380 	mov.w	r3, #268435456	; 0x10000000
    2dea:	4aca      	ldr	r2, [pc, #808]	; (3114 <SystemInit+0x348>)
    2dec:	f8d3 3324 	ldr.w	r3, [r3, #804]	; 0x324
    2df0:	f3c3 2304 	ubfx	r3, r3, #8, #5
    2df4:	f8c2 3540 	str.w	r3, [r2, #1344]	; 0x540
    2df8:	f04f 4370 	mov.w	r3, #4026531840	; 0xf0000000
    2dfc:	f893 2fe0 	ldrb.w	r2, [r3, #4064]	; 0xfe0
    2e00:	2a06      	cmp	r2, #6
    2e02:	f000 8129 	beq.w	3058 <SystemInit+0x28c>
    2e06:	f04f 5380 	mov.w	r3, #268435456	; 0x10000000
    2e0a:	f8d3 3130 	ldr.w	r3, [r3, #304]	; 0x130
    2e0e:	1c5c      	adds	r4, r3, #1
    2e10:	bf04      	itt	eq
    2e12:	f04f 4370 	moveq.w	r3, #4026531840	; 0xf0000000
    2e16:	f893 3fe0 	ldrbeq.w	r3, [r3, #4064]	; 0xfe0
    2e1a:	2b06      	cmp	r3, #6
    2e1c:	d109      	bne.n	2e32 <SystemInit+0x66>
    2e1e:	f04f 5380 	mov.w	r3, #268435456	; 0x10000000
    2e22:	f04f 4280 	mov.w	r2, #1073741824	; 0x40000000
    2e26:	f8d3 3244 	ldr.w	r3, [r3, #580]	; 0x244
    2e2a:	f3c3 3342 	ubfx	r3, r3, #13, #3
    2e2e:	f8c2 353c 	str.w	r3, [r2, #1340]	; 0x53c
    2e32:	f04f 4370 	mov.w	r3, #4026531840	; 0xf0000000
    2e36:	f893 2fe0 	ldrb.w	r2, [r3, #4064]	; 0xfe0
    2e3a:	2a06      	cmp	r2, #6
    2e3c:	f000 80f7 	beq.w	302e <SystemInit+0x262>
    2e40:	f04f 5380 	mov.w	r3, #268435456	; 0x10000000
    2e44:	f8d3 3130 	ldr.w	r3, [r3, #304]	; 0x130
    2e48:	1c58      	adds	r0, r3, #1
    2e4a:	bf04      	itt	eq
    2e4c:	f04f 4370 	moveq.w	r3, #4026531840	; 0xf0000000
    2e50:	f893 3fe0 	ldrbeq.w	r3, [r3, #4064]	; 0xfe0
    2e54:	2b06      	cmp	r3, #6
    2e56:	d108      	bne.n	2e6a <SystemInit+0x9e>
    2e58:	f04f 4380 	mov.w	r3, #1073741824	; 0x40000000
    2e5c:	2200      	movs	r2, #0
    2e5e:	f8c3 210c 	str.w	r2, [r3, #268]	; 0x10c
    2e62:	f8c3 2110 	str.w	r2, [r3, #272]	; 0x110
    2e66:	f8c3 2538 	str.w	r2, [r3, #1336]	; 0x538
    2e6a:	f04f 4370 	mov.w	r3, #4026531840	; 0xf0000000
    2e6e:	f893 2fe0 	ldrb.w	r2, [r3, #4064]	; 0xfe0
    2e72:	f8d3 3fe8 	ldr.w	r3, [r3, #4072]	; 0xfe8
    2e76:	2a06      	cmp	r2, #6
    2e78:	f000 80b8 	beq.w	2fec <SystemInit+0x220>
    2e7c:	f04f 5280 	mov.w	r2, #268435456	; 0x10000000
    2e80:	f8d2 3130 	ldr.w	r3, [r2, #304]	; 0x130
    2e84:	1c59      	adds	r1, r3, #1
    2e86:	f000 809d 	beq.w	2fc4 <SystemInit+0x1f8>
    2e8a:	2b06      	cmp	r3, #6
    2e8c:	d01c      	beq.n	2ec8 <SystemInit+0xfc>
    2e8e:	4aa2      	ldr	r2, [pc, #648]	; (3118 <SystemInit+0x34c>)
    2e90:	f8d2 3088 	ldr.w	r3, [r2, #136]	; 0x88
    2e94:	f443 0370 	orr.w	r3, r3, #15728640	; 0xf00000
    2e98:	f8c2 3088 	str.w	r3, [r2, #136]	; 0x88
    2e9c:	f3bf 8f4f 	dsb	sy
    2ea0:	f3bf 8f6f 	isb	sy
    2ea4:	f04f 2310 	mov.w	r3, #268439552	; 0x10001000
    2ea8:	f8d3 2200 	ldr.w	r2, [r3, #512]	; 0x200
    2eac:	2a00      	cmp	r2, #0
    2eae:	f2c0 8100 	blt.w	30b2 <SystemInit+0x2e6>
    2eb2:	f8d3 3204 	ldr.w	r3, [r3, #516]	; 0x204
    2eb6:	2b00      	cmp	r3, #0
    2eb8:	f2c0 80fb 	blt.w	30b2 <SystemInit+0x2e6>
    2ebc:	4b97      	ldr	r3, [pc, #604]	; (311c <SystemInit+0x350>)
    2ebe:	4a98      	ldr	r2, [pc, #608]	; (3120 <SystemInit+0x354>)
    2ec0:	601a      	str	r2, [r3, #0]
    2ec2:	f85d 4b04 	ldr.w	r4, [sp], #4
    2ec6:	4770      	bx	lr
    2ec8:	f8d2 2134 	ldr.w	r2, [r2, #308]	; 0x134
    2ecc:	3a03      	subs	r2, #3
    2ece:	2a03      	cmp	r2, #3
    2ed0:	f240 8087 	bls.w	2fe2 <SystemInit+0x216>
    2ed4:	f04f 5380 	mov.w	r3, #268435456	; 0x10000000
    2ed8:	4a92      	ldr	r2, [pc, #584]	; (3124 <SystemInit+0x358>)
    2eda:	f8d3 1404 	ldr.w	r1, [r3, #1028]	; 0x404
    2ede:	f8c2 1520 	str.w	r1, [r2, #1312]	; 0x520
    2ee2:	f8d3 1408 	ldr.w	r1, [r3, #1032]	; 0x408
    2ee6:	f8c2 1524 	str.w	r1, [r2, #1316]	; 0x524
    2eea:	f8d3 140c 	ldr.w	r1, [r3, #1036]	; 0x40c
    2eee:	f8c2 1528 	str.w	r1, [r2, #1320]	; 0x528
    2ef2:	f8d3 1410 	ldr.w	r1, [r3, #1040]	; 0x410
    2ef6:	f8c2 152c 	str.w	r1, [r2, #1324]	; 0x52c
    2efa:	f8d3 1414 	ldr.w	r1, [r3, #1044]	; 0x414
    2efe:	f8c2 1530 	str.w	r1, [r2, #1328]	; 0x530
    2f02:	f8d3 1418 	ldr.w	r1, [r3, #1048]	; 0x418
    2f06:	f8c2 1534 	str.w	r1, [r2, #1332]	; 0x534
    2f0a:	f8d3 141c 	ldr.w	r1, [r3, #1052]	; 0x41c
    2f0e:	f8c2 1540 	str.w	r1, [r2, #1344]	; 0x540
    2f12:	f8d3 1420 	ldr.w	r1, [r3, #1056]	; 0x420
    2f16:	f8c2 1544 	str.w	r1, [r2, #1348]	; 0x544
    2f1a:	f8d3 1424 	ldr.w	r1, [r3, #1060]	; 0x424
    2f1e:	f8c2 1548 	str.w	r1, [r2, #1352]	; 0x548
    2f22:	f8d3 1428 	ldr.w	r1, [r3, #1064]	; 0x428
    2f26:	f8c2 154c 	str.w	r1, [r2, #1356]	; 0x54c
    2f2a:	f8d3 142c 	ldr.w	r1, [r3, #1068]	; 0x42c
    2f2e:	f8c2 1550 	str.w	r1, [r2, #1360]	; 0x550
    2f32:	f8d3 1430 	ldr.w	r1, [r3, #1072]	; 0x430
    2f36:	f8c2 1554 	str.w	r1, [r2, #1364]	; 0x554
    2f3a:	f8d3 1434 	ldr.w	r1, [r3, #1076]	; 0x434
    2f3e:	f8c2 1560 	str.w	r1, [r2, #1376]	; 0x560
    2f42:	f8d3 1438 	ldr.w	r1, [r3, #1080]	; 0x438
    2f46:	f8c2 1564 	str.w	r1, [r2, #1380]	; 0x564
    2f4a:	f8d3 143c 	ldr.w	r1, [r3, #1084]	; 0x43c
    2f4e:	f8c2 1568 	str.w	r1, [r2, #1384]	; 0x568
    2f52:	f8d3 1440 	ldr.w	r1, [r3, #1088]	; 0x440
    2f56:	f8c2 156c 	str.w	r1, [r2, #1388]	; 0x56c
    2f5a:	f8d3 1444 	ldr.w	r1, [r3, #1092]	; 0x444
    2f5e:	f8d3 3130 	ldr.w	r3, [r3, #304]	; 0x130
    2f62:	f8c2 1570 	str.w	r1, [r2, #1392]	; 0x570
    2f66:	1c5a      	adds	r2, r3, #1
    2f68:	bf04      	itt	eq
    2f6a:	f04f 4370 	moveq.w	r3, #4026531840	; 0xf0000000
    2f6e:	f893 3fe0 	ldrbeq.w	r3, [r3, #4064]	; 0xfe0
    2f72:	2b06      	cmp	r3, #6
    2f74:	d18b      	bne.n	2e8e <SystemInit+0xc2>
    2f76:	f04f 5280 	mov.w	r2, #268435456	; 0x10000000
    2f7a:	f04f 4180 	mov.w	r1, #1073741824	; 0x40000000
    2f7e:	f8d2 3258 	ldr.w	r3, [r2, #600]	; 0x258
    2f82:	f8d2 0130 	ldr.w	r0, [r2, #304]	; 0x130
    2f86:	f003 034f 	and.w	r3, r3, #79	; 0x4f
    2f8a:	1c44      	adds	r4, r0, #1
    2f8c:	f8c1 3ee4 	str.w	r3, [r1, #3812]	; 0xee4
    2f90:	d073      	beq.n	307a <SystemInit+0x2ae>
    2f92:	2806      	cmp	r0, #6
    2f94:	f47f af7b 	bne.w	2e8e <SystemInit+0xc2>
    2f98:	f8d1 3400 	ldr.w	r3, [r1, #1024]	; 0x400
    2f9c:	07d9      	lsls	r1, r3, #31
    2f9e:	d478      	bmi.n	3092 <SystemInit+0x2c6>
    2fa0:	f8d2 3134 	ldr.w	r3, [r2, #308]	; 0x134
    2fa4:	3b03      	subs	r3, #3
    2fa6:	2b03      	cmp	r3, #3
    2fa8:	d804      	bhi.n	2fb4 <SystemInit+0x1e8>
    2faa:	4a5f      	ldr	r2, [pc, #380]	; (3128 <SystemInit+0x35c>)
    2fac:	5cd3      	ldrb	r3, [r2, r3]
    2fae:	2b00      	cmp	r3, #0
    2fb0:	f43f af6d 	beq.w	2e8e <SystemInit+0xc2>
    2fb4:	4a5d      	ldr	r2, [pc, #372]	; (312c <SystemInit+0x360>)
    2fb6:	f8d2 373c 	ldr.w	r3, [r2, #1852]	; 0x73c
    2fba:	f443 6380 	orr.w	r3, r3, #1024	; 0x400
    2fbe:	f8c2 373c 	str.w	r3, [r2, #1852]	; 0x73c
    2fc2:	e764      	b.n	2e8e <SystemInit+0xc2>
    2fc4:	f04f 4270 	mov.w	r2, #4026531840	; 0xf0000000
    2fc8:	f892 1fe0 	ldrb.w	r1, [r2, #4064]	; 0xfe0
    2fcc:	f8d2 2fe8 	ldr.w	r2, [r2, #4072]	; 0xfe8
    2fd0:	2906      	cmp	r1, #6
    2fd2:	f47f af5c 	bne.w	2e8e <SystemInit+0xc2>
    2fd6:	f3c2 1203 	ubfx	r2, r2, #4, #4
    2fda:	3a03      	subs	r2, #3
    2fdc:	2a03      	cmp	r2, #3
    2fde:	f63f af79 	bhi.w	2ed4 <SystemInit+0x108>
    2fe2:	4953      	ldr	r1, [pc, #332]	; (3130 <SystemInit+0x364>)
    2fe4:	5c8a      	ldrb	r2, [r1, r2]
    2fe6:	2a00      	cmp	r2, #0
    2fe8:	d0bd      	beq.n	2f66 <SystemInit+0x19a>
    2fea:	e773      	b.n	2ed4 <SystemInit+0x108>
    2fec:	f3c3 1303 	ubfx	r3, r3, #4, #4
    2ff0:	3b03      	subs	r3, #3
    2ff2:	2b03      	cmp	r3, #3
    2ff4:	f63f af42 	bhi.w	2e7c <SystemInit+0xb0>
    2ff8:	4a4e      	ldr	r2, [pc, #312]	; (3134 <SystemInit+0x368>)
    2ffa:	5cd2      	ldrb	r2, [r2, r3]
    2ffc:	b122      	cbz	r2, 3008 <SystemInit+0x23c>
    2ffe:	f04f 4280 	mov.w	r2, #1073741824	; 0x40000000
    3002:	2103      	movs	r1, #3
    3004:	f8c2 15a0 	str.w	r1, [r2, #1440]	; 0x5a0
    3008:	4a4b      	ldr	r2, [pc, #300]	; (3138 <SystemInit+0x36c>)
    300a:	5cd3      	ldrb	r3, [r2, r3]
    300c:	2b00      	cmp	r3, #0
    300e:	f43f af35 	beq.w	2e7c <SystemInit+0xb0>
    3012:	4b4a      	ldr	r3, [pc, #296]	; (313c <SystemInit+0x370>)
    3014:	2405      	movs	r4, #5
    3016:	2001      	movs	r0, #1
    3018:	2100      	movs	r1, #0
    301a:	223f      	movs	r2, #63	; 0x3f
    301c:	f8c3 4610 	str.w	r4, [r3, #1552]	; 0x610
    3020:	f8c3 0688 	str.w	r0, [r3, #1672]	; 0x688
    3024:	f8c3 1618 	str.w	r1, [r3, #1560]	; 0x618
    3028:	f8c3 2614 	str.w	r2, [r3, #1556]	; 0x614
    302c:	e726      	b.n	2e7c <SystemInit+0xb0>
    302e:	f8d3 3fe8 	ldr.w	r3, [r3, #4072]	; 0xfe8
    3032:	f3c3 1303 	ubfx	r3, r3, #4, #4
    3036:	3b03      	subs	r3, #3
    3038:	2b03      	cmp	r3, #3
    303a:	f63f af01 	bhi.w	2e40 <SystemInit+0x74>
    303e:	4a40      	ldr	r2, [pc, #256]	; (3140 <SystemInit+0x374>)
    3040:	5cd3      	ldrb	r3, [r2, r3]
    3042:	2b00      	cmp	r3, #0
    3044:	f43f aefc 	beq.w	2e40 <SystemInit+0x74>
    3048:	4a33      	ldr	r2, [pc, #204]	; (3118 <SystemInit+0x34c>)
    304a:	f8d2 30fc 	ldr.w	r3, [r2, #252]	; 0xfc
    304e:	f023 7380 	bic.w	r3, r3, #16777216	; 0x1000000
    3052:	f8c2 30fc 	str.w	r3, [r2, #252]	; 0xfc
    3056:	e6f3      	b.n	2e40 <SystemInit+0x74>
    3058:	f8d3 3fe8 	ldr.w	r3, [r3, #4072]	; 0xfe8
    305c:	f3c3 1303 	ubfx	r3, r3, #4, #4
    3060:	3b03      	subs	r3, #3
    3062:	2b03      	cmp	r3, #3
    3064:	f63f aecf 	bhi.w	2e06 <SystemInit+0x3a>
    3068:	4a36      	ldr	r2, [pc, #216]	; (3144 <SystemInit+0x378>)
    306a:	5cd3      	ldrb	r3, [r2, r3]
    306c:	2b00      	cmp	r3, #0
    306e:	f43f aeca 	beq.w	2e06 <SystemInit+0x3a>
    3072:	4b35      	ldr	r3, [pc, #212]	; (3148 <SystemInit+0x37c>)
    3074:	4a35      	ldr	r2, [pc, #212]	; (314c <SystemInit+0x380>)
    3076:	675a      	str	r2, [r3, #116]	; 0x74
    3078:	e6c5      	b.n	2e06 <SystemInit+0x3a>
    307a:	f04f 4370 	mov.w	r3, #4026531840	; 0xf0000000
    307e:	f893 3fe0 	ldrb.w	r3, [r3, #4064]	; 0xfe0
    3082:	2b06      	cmp	r3, #6
    3084:	f47f af03 	bne.w	2e8e <SystemInit+0xc2>
    3088:	f8d1 3400 	ldr.w	r3, [r1, #1024]	; 0x400
    308c:	07db      	lsls	r3, r3, #31
    308e:	f57f aefe 	bpl.w	2e8e <SystemInit+0xc2>
    3092:	f04f 5380 	mov.w	r3, #268435456	; 0x10000000
    3096:	f04f 4180 	mov.w	r1, #1073741824	; 0x40000000
    309a:	f8d3 2130 	ldr.w	r2, [r3, #304]	; 0x130
    309e:	f06f 0001 	mvn.w	r0, #1
    30a2:	f8c1 0400 	str.w	r0, [r1, #1024]	; 0x400
    30a6:	2a06      	cmp	r2, #6
    30a8:	f8d3 3134 	ldr.w	r3, [r3, #308]	; 0x134
    30ac:	f43f af7a 	beq.w	2fa4 <SystemInit+0x1d8>
    30b0:	e6ed      	b.n	2e8e <SystemInit+0xc2>
    30b2:	4a27      	ldr	r2, [pc, #156]	; (3150 <SystemInit+0x384>)
    30b4:	2301      	movs	r3, #1
    30b6:	f8c2 3504 	str.w	r3, [r2, #1284]	; 0x504
    30ba:	f8d2 3400 	ldr.w	r3, [r2, #1024]	; 0x400
    30be:	2b00      	cmp	r3, #0
    30c0:	d0fb      	beq.n	30ba <SystemInit+0x2ee>
    30c2:	f04f 2310 	mov.w	r3, #268439552	; 0x10001000
    30c6:	2115      	movs	r1, #21
    30c8:	4a21      	ldr	r2, [pc, #132]	; (3150 <SystemInit+0x384>)
    30ca:	f8c3 1200 	str.w	r1, [r3, #512]	; 0x200
    30ce:	f8d2 3400 	ldr.w	r3, [r2, #1024]	; 0x400
    30d2:	2b00      	cmp	r3, #0
    30d4:	d0fb      	beq.n	30ce <SystemInit+0x302>
    30d6:	f04f 2310 	mov.w	r3, #268439552	; 0x10001000
    30da:	2115      	movs	r1, #21
    30dc:	4a1c      	ldr	r2, [pc, #112]	; (3150 <SystemInit+0x384>)
    30de:	f8c3 1204 	str.w	r1, [r3, #516]	; 0x204
    30e2:	f8d2 3400 	ldr.w	r3, [r2, #1024]	; 0x400
    30e6:	2b00      	cmp	r3, #0
    30e8:	d0fb      	beq.n	30e2 <SystemInit+0x316>
    30ea:	2300      	movs	r3, #0
    30ec:	4918      	ldr	r1, [pc, #96]	; (3150 <SystemInit+0x384>)
    30ee:	f8c2 3504 	str.w	r3, [r2, #1284]	; 0x504
    30f2:	f8d1 3400 	ldr.w	r3, [r1, #1024]	; 0x400
    30f6:	2b00      	cmp	r3, #0
    30f8:	d0fb      	beq.n	30f2 <SystemInit+0x326>
    30fa:	f3bf 8f4f 	dsb	sy
    30fe:	4906      	ldr	r1, [pc, #24]	; (3118 <SystemInit+0x34c>)
    3100:	4b14      	ldr	r3, [pc, #80]	; (3154 <SystemInit+0x388>)
    3102:	68ca      	ldr	r2, [r1, #12]
    3104:	f402 62e0 	and.w	r2, r2, #1792	; 0x700
    3108:	4313      	orrs	r3, r2
    310a:	60cb      	str	r3, [r1, #12]
    310c:	f3bf 8f4f 	dsb	sy
    3110:	bf00      	nop
    3112:	e7fd      	b.n	3110 <SystemInit+0x344>
    3114:	40013000 	.word	0x40013000
    3118:	e000ed00 	.word	0xe000ed00
    311c:	2000001c 	.word	0x2000001c
    3120:	03d09000 	.word	0x03d09000
    3124:	4000c000 	.word	0x4000c000
    3128:	000035cc 	.word	0x000035cc
    312c:	40001000 	.word	0x40001000
    3130:	000035c8 	.word	0x000035c8
    3134:	000035d0 	.word	0x000035d0
    3138:	000035d0 	.word	0x000035d0
    313c:	40005000 	.word	0x40005000
    3140:	000035d0 	.word	0x000035d0
    3144:	000035d0 	.word	0x000035d0
    3148:	4007c000 	.word	0x4007c000
    314c:	baadf00d 	.word	0xbaadf00d
    3150:	4001e000 	.word	0x4001e000
    3154:	05fa0004 	.word	0x05fa0004

00003158 <atexit>:
    3158:	2300      	movs	r3, #0
    315a:	4601      	mov	r1, r0
    315c:	461a      	mov	r2, r3
    315e:	4618      	mov	r0, r3
    3160:	f000 b86a 	b.w	3238 <__register_exitproc>

00003164 <exit>:
    3164:	b508      	push	{r3, lr}
    3166:	4b06      	ldr	r3, [pc, #24]	; (3180 <exit+0x1c>)
    3168:	4604      	mov	r4, r0
    316a:	b113      	cbz	r3, 3172 <exit+0xe>
    316c:	2100      	movs	r1, #0
    316e:	f000 f8c1 	bl	32f4 <__call_exitprocs>
    3172:	4b04      	ldr	r3, [pc, #16]	; (3184 <exit+0x20>)
    3174:	681b      	ldr	r3, [r3, #0]
    3176:	b103      	cbz	r3, 317a <exit+0x16>
    3178:	4798      	blx	r3
    317a:	4620      	mov	r0, r4
    317c:	f000 f916 	bl	33ac <_exit>
    3180:	000032f5 	.word	0x000032f5
    3184:	200006d0 	.word	0x200006d0

00003188 <memset>:
    3188:	4402      	add	r2, r0
    318a:	4603      	mov	r3, r0
    318c:	4293      	cmp	r3, r2
    318e:	d100      	bne.n	3192 <memset+0xa>
    3190:	4770      	bx	lr
    3192:	f803 1b01 	strb.w	r1, [r3], #1
    3196:	e7f9      	b.n	318c <memset+0x4>

00003198 <__libc_init_array>:
    3198:	b570      	push	{r4, r5, r6, lr}
    319a:	4d0d      	ldr	r5, [pc, #52]	; (31d0 <__libc_init_array+0x38>)
    319c:	4c0d      	ldr	r4, [pc, #52]	; (31d4 <__libc_init_array+0x3c>)
    319e:	1b64      	subs	r4, r4, r5
    31a0:	10a4      	asrs	r4, r4, #2
    31a2:	2600      	movs	r6, #0
    31a4:	42a6      	cmp	r6, r4
    31a6:	d109      	bne.n	31bc <__libc_init_array+0x24>
    31a8:	4d0b      	ldr	r5, [pc, #44]	; (31d8 <__libc_init_array+0x40>)
    31aa:	4c0c      	ldr	r4, [pc, #48]	; (31dc <__libc_init_array+0x44>)
    31ac:	f000 f900 	bl	33b0 <_init>
    31b0:	1b64      	subs	r4, r4, r5
    31b2:	10a4      	asrs	r4, r4, #2
    31b4:	2600      	movs	r6, #0
    31b6:	42a6      	cmp	r6, r4
    31b8:	d105      	bne.n	31c6 <__libc_init_array+0x2e>
    31ba:	bd70      	pop	{r4, r5, r6, pc}
    31bc:	f855 3b04 	ldr.w	r3, [r5], #4
    31c0:	4798      	blx	r3
    31c2:	3601      	adds	r6, #1
    31c4:	e7ee      	b.n	31a4 <__libc_init_array+0xc>
    31c6:	f855 3b04 	ldr.w	r3, [r5], #4
    31ca:	4798      	blx	r3
    31cc:	3601      	adds	r6, #1
    31ce:	e7f2      	b.n	31b6 <__libc_init_array+0x1e>
    31d0:	20000024 	.word	0x20000024
    31d4:	20000024 	.word	0x20000024
    31d8:	20000024 	.word	0x20000024
    31dc:	20000028 	.word	0x20000028

000031e0 <__libc_fini_array>:
    31e0:	b538      	push	{r3, r4, r5, lr}
    31e2:	4d07      	ldr	r5, [pc, #28]	; (3200 <__libc_fini_array+0x20>)
    31e4:	4c07      	ldr	r4, [pc, #28]	; (3204 <__libc_fini_array+0x24>)
    31e6:	1b64      	subs	r4, r4, r5
    31e8:	10a4      	asrs	r4, r4, #2
    31ea:	b91c      	cbnz	r4, 31f4 <__libc_fini_array+0x14>
    31ec:	e8bd 4038 	ldmia.w	sp!, {r3, r4, r5, lr}
    31f0:	f000 b8e4 	b.w	33bc <_fini>
    31f4:	3c01      	subs	r4, #1
    31f6:	f855 3024 	ldr.w	r3, [r5, r4, lsl #2]
    31fa:	4798      	blx	r3
    31fc:	e7f5      	b.n	31ea <__libc_fini_array+0xa>
    31fe:	bf00      	nop
    3200:	20000028 	.word	0x20000028
    3204:	2000002c 	.word	0x2000002c

00003208 <__retarget_lock_acquire_recursive>:
    3208:	4770      	bx	lr

0000320a <__retarget_lock_release_recursive>:
    320a:	4770      	bx	lr

0000320c <memcpy>:
    320c:	440a      	add	r2, r1
    320e:	4291      	cmp	r1, r2
    3210:	f100 33ff 	add.w	r3, r0, #4294967295	; 0xffffffff
    3214:	d100      	bne.n	3218 <memcpy+0xc>
    3216:	4770      	bx	lr
    3218:	b510      	push	{r4, lr}
    321a:	f811 4b01 	ldrb.w	r4, [r1], #1
    321e:	f803 4f01 	strb.w	r4, [r3, #1]!
    3222:	4291      	cmp	r1, r2
    3224:	d1f9      	bne.n	321a <memcpy+0xe>
    3226:	bd10      	pop	{r4, pc}

00003228 <strlen>:
    3228:	4603      	mov	r3, r0
    322a:	f813 2b01 	ldrb.w	r2, [r3], #1
    322e:	2a00      	cmp	r2, #0
    3230:	d1fb      	bne.n	322a <strlen+0x2>
    3232:	1a18      	subs	r0, r3, r0
    3234:	3801      	subs	r0, #1
    3236:	4770      	bx	lr

00003238 <__register_exitproc>:
    3238:	e92d 43f8 	stmdb	sp!, {r3, r4, r5, r6, r7, r8, r9, lr}
    323c:	f8df 80b0 	ldr.w	r8, [pc, #176]	; 32f0 <__register_exitproc+0xb8>
    3240:	4606      	mov	r6, r0
    3242:	f8d8 0000 	ldr.w	r0, [r8]
    3246:	461f      	mov	r7, r3
    3248:	460d      	mov	r5, r1
    324a:	4691      	mov	r9, r2
    324c:	f7ff ffdc 	bl	3208 <__retarget_lock_acquire_recursive>
    3250:	4b23      	ldr	r3, [pc, #140]	; (32e0 <__register_exitproc+0xa8>)
    3252:	681c      	ldr	r4, [r3, #0]
    3254:	b934      	cbnz	r4, 3264 <__register_exitproc+0x2c>
    3256:	4c23      	ldr	r4, [pc, #140]	; (32e4 <__register_exitproc+0xac>)
    3258:	601c      	str	r4, [r3, #0]
    325a:	4b23      	ldr	r3, [pc, #140]	; (32e8 <__register_exitproc+0xb0>)
    325c:	b113      	cbz	r3, 3264 <__register_exitproc+0x2c>
    325e:	681b      	ldr	r3, [r3, #0]
    3260:	f8c4 3088 	str.w	r3, [r4, #136]	; 0x88
    3264:	6863      	ldr	r3, [r4, #4]
    3266:	2b1f      	cmp	r3, #31
    3268:	dd07      	ble.n	327a <__register_exitproc+0x42>
    326a:	f8d8 0000 	ldr.w	r0, [r8]
    326e:	f7ff ffcc 	bl	320a <__retarget_lock_release_recursive>
    3272:	f04f 30ff 	mov.w	r0, #4294967295	; 0xffffffff
    3276:	e8bd 83f8 	ldmia.w	sp!, {r3, r4, r5, r6, r7, r8, r9, pc}
    327a:	b32e      	cbz	r6, 32c8 <__register_exitproc+0x90>
    327c:	f8d4 0088 	ldr.w	r0, [r4, #136]	; 0x88
    3280:	b968      	cbnz	r0, 329e <__register_exitproc+0x66>
    3282:	4b1a      	ldr	r3, [pc, #104]	; (32ec <__register_exitproc+0xb4>)
    3284:	2b00      	cmp	r3, #0
    3286:	d0f0      	beq.n	326a <__register_exitproc+0x32>
    3288:	f44f 7084 	mov.w	r0, #264	; 0x108
    328c:	f3af 8000 	nop.w
    3290:	2800      	cmp	r0, #0
    3292:	d0ea      	beq.n	326a <__register_exitproc+0x32>
    3294:	2300      	movs	r3, #0
    3296:	e9c0 3340 	strd	r3, r3, [r0, #256]	; 0x100
    329a:	f8c4 0088 	str.w	r0, [r4, #136]	; 0x88
    329e:	6863      	ldr	r3, [r4, #4]
    32a0:	f840 9023 	str.w	r9, [r0, r3, lsl #2]
    32a4:	2201      	movs	r2, #1
    32a6:	409a      	lsls	r2, r3
    32a8:	eb00 0183 	add.w	r1, r0, r3, lsl #2
    32ac:	f8d0 3100 	ldr.w	r3, [r0, #256]	; 0x100
    32b0:	4313      	orrs	r3, r2
    32b2:	f8c0 3100 	str.w	r3, [r0, #256]	; 0x100
    32b6:	2e02      	cmp	r6, #2
    32b8:	f8c1 7080 	str.w	r7, [r1, #128]	; 0x80
    32bc:	bf02      	ittt	eq
    32be:	f8d0 3104 	ldreq.w	r3, [r0, #260]	; 0x104
    32c2:	4313      	orreq	r3, r2
    32c4:	f8c0 3104 	streq.w	r3, [r0, #260]	; 0x104
    32c8:	6863      	ldr	r3, [r4, #4]
    32ca:	f8d8 0000 	ldr.w	r0, [r8]
    32ce:	1c5a      	adds	r2, r3, #1
    32d0:	3302      	adds	r3, #2
    32d2:	6062      	str	r2, [r4, #4]
    32d4:	f844 5023 	str.w	r5, [r4, r3, lsl #2]
    32d8:	f7ff ff97 	bl	320a <__retarget_lock_release_recursive>
    32dc:	2000      	movs	r0, #0
    32de:	e7ca      	b.n	3276 <__register_exitproc+0x3e>
    32e0:	20000764 	.word	0x20000764
    32e4:	200006d8 	.word	0x200006d8
	...
    32f0:	20000020 	.word	0x20000020

000032f4 <__call_exitprocs>:
    32f4:	e92d 4ff7 	stmdb	sp!, {r0, r1, r2, r4, r5, r6, r7, r8, r9, sl, fp, lr}
    32f8:	f8df 90a8 	ldr.w	r9, [pc, #168]	; 33a4 <__call_exitprocs+0xb0>
    32fc:	9100      	str	r1, [sp, #0]
    32fe:	4680      	mov	r8, r0
    3300:	f8d9 0000 	ldr.w	r0, [r9]
    3304:	f8df a0a0 	ldr.w	sl, [pc, #160]	; 33a8 <__call_exitprocs+0xb4>
    3308:	f7ff ff7e 	bl	3208 <__retarget_lock_acquire_recursive>
    330c:	f8da 4000 	ldr.w	r4, [sl]
    3310:	b934      	cbnz	r4, 3320 <__call_exitprocs+0x2c>
    3312:	f8d9 0000 	ldr.w	r0, [r9]
    3316:	b003      	add	sp, #12
    3318:	e8bd 4ff0 	ldmia.w	sp!, {r4, r5, r6, r7, r8, r9, sl, fp, lr}
    331c:	f7ff bf75 	b.w	320a <__retarget_lock_release_recursive>
    3320:	6865      	ldr	r5, [r4, #4]
    3322:	f8d4 7088 	ldr.w	r7, [r4, #136]	; 0x88
    3326:	1e6e      	subs	r6, r5, #1
    3328:	3501      	adds	r5, #1
    332a:	eb04 0585 	add.w	r5, r4, r5, lsl #2
    332e:	f107 0b80 	add.w	fp, r7, #128	; 0x80
    3332:	2e00      	cmp	r6, #0
    3334:	dbed      	blt.n	3312 <__call_exitprocs+0x1e>
    3336:	9b00      	ldr	r3, [sp, #0]
    3338:	b143      	cbz	r3, 334c <__call_exitprocs+0x58>
    333a:	b917      	cbnz	r7, 3342 <__call_exitprocs+0x4e>
    333c:	3e01      	subs	r6, #1
    333e:	3d04      	subs	r5, #4
    3340:	e7f7      	b.n	3332 <__call_exitprocs+0x3e>
    3342:	f85b 2026 	ldr.w	r2, [fp, r6, lsl #2]
    3346:	9b00      	ldr	r3, [sp, #0]
    3348:	429a      	cmp	r2, r3
    334a:	d1f7      	bne.n	333c <__call_exitprocs+0x48>
    334c:	6861      	ldr	r1, [r4, #4]
    334e:	682a      	ldr	r2, [r5, #0]
    3350:	3901      	subs	r1, #1
    3352:	42b1      	cmp	r1, r6
    3354:	bf16      	itet	ne
    3356:	2300      	movne	r3, #0
    3358:	6066      	streq	r6, [r4, #4]
    335a:	602b      	strne	r3, [r5, #0]
    335c:	2a00      	cmp	r2, #0
    335e:	d0ed      	beq.n	333c <__call_exitprocs+0x48>
    3360:	6863      	ldr	r3, [r4, #4]
    3362:	9301      	str	r3, [sp, #4]
    3364:	b13f      	cbz	r7, 3376 <__call_exitprocs+0x82>
    3366:	f8d7 1100 	ldr.w	r1, [r7, #256]	; 0x100
    336a:	2301      	movs	r3, #1
    336c:	fa03 fc06 	lsl.w	ip, r3, r6
    3370:	ea1c 0f01 	tst.w	ip, r1
    3374:	d109      	bne.n	338a <__call_exitprocs+0x96>
    3376:	4790      	blx	r2
    3378:	6861      	ldr	r1, [r4, #4]
    337a:	9b01      	ldr	r3, [sp, #4]
    337c:	f8da 2000 	ldr.w	r2, [sl]
    3380:	4299      	cmp	r1, r3
    3382:	d1c3      	bne.n	330c <__call_exitprocs+0x18>
    3384:	4294      	cmp	r4, r2
    3386:	d0d9      	beq.n	333c <__call_exitprocs+0x48>
    3388:	e7c0      	b.n	330c <__call_exitprocs+0x18>
    338a:	f8d7 0104 	ldr.w	r0, [r7, #260]	; 0x104
    338e:	f857 1026 	ldr.w	r1, [r7, r6, lsl #2]
    3392:	ea1c 0f00 	tst.w	ip, r0
    3396:	d102      	bne.n	339e <__call_exitprocs+0xaa>
    3398:	4640      	mov	r0, r8
    339a:	4790      	blx	r2
    339c:	e7ec      	b.n	3378 <__call_exitprocs+0x84>
    339e:	4608      	mov	r0, r1
    33a0:	4790      	blx	r2
    33a2:	e7e9      	b.n	3378 <__call_exitprocs+0x84>
    33a4:	20000020 	.word	0x20000020
    33a8:	20000764 	.word	0x20000764

000033ac <_exit>:
    33ac:	e7fe      	b.n	33ac <_exit>
    33ae:	bf00      	nop

000033b0 <_init>:
    33b0:	b5f8      	push	{r3, r4, r5, r6, r7, lr}
    33b2:	bf00      	nop
    33b4:	bcf8      	pop	{r3, r4, r5, r6, r7}
    33b6:	bc08      	pop	{r3}
    33b8:	469e      	mov	lr, r3
    33ba:	4770      	bx	lr

000033bc <_fini>:
    33bc:	b5f8      	push	{r3, r4, r5, r6, r7, lr}
    33be:	bf00      	nop
    33c0:	bcf8      	pop	{r3, r4, r5, r6, r7}
    33c2:	bc08      	pop	{r3}
    33c4:	469e      	mov	lr, r3
    33c6:	4770      	bx	lr
    33c8:	ffffffff 	.word	0xffffffff
    33cc:	ffffffff 	.word	0xffffffff
    33d0:	ffffffff 	.word	0xffffffff
    33d4:	ffffffff 	.word	0xffffffff
	...
    33e0:	01d60000 	.word	0x01d60000
    33e4:	00000106 	.word	0x00000106

000033e8 <nrf_log_backend_uart_api>:
    33e8:	000003d5 00000445 000003d1 74726175     ....E.......uart
    33f8:	676f6c5f 6361625f 646e656b 00000000     _log_backend....
    3408:	6b636142 73646e65 756c6620 64656873     Backends flushed
    3418:	00000000 00707061                       ....app.

00003420 <m_log_push_ringbuf>:
    3420:	20000584 0000007f 20000604 3b315b1b     ... ....... .[1;
    3430:	006d3133 6f4c7325 64207367 70706f72     31m.%sLogs dropp
    3440:	28206465 25296425 000a0d73 6d305b1b     ed (%d)%s....[0m
    3450:	00000000 00007325 3e73253c 3a732520     ....%s..<%s> %s:
    3460:	00000020 00000a0d 32302520 00000078      ....... %02x...
    3470:	00202020 0000007c 00006325 3b315b1b        .|...%c...[1;
    3480:	006d3033 3b315b1b 006d3233 3b315b1b     30m..[1;32m..[1;
    3490:	006d3333 3b315b1b 006d3433 3b315b1b     33m..[1;34m..[1;
    34a0:	006d3533 3b315b1b 006d3633 3b315b1b     35m..[1;36m..[1;
    34b0:	006d3733 6f727265 00000072 6e726177     37m.error...warn
    34c0:	00676e69 6f666e69 00000000 75626564     ing.info....debu
    34d0:	00000067                                g...

000034d4 <m_colors>:
    34d4:	0000344c 0000347c 0000342c 00003484     L4..|4..,4...4..
    34e4:	0000348c 00003494 0000349c 000034a4     .4...4...4...4..
    34f4:	000034ac                                .4..

000034f8 <severity_names>:
    34f8:	00000000 000034b4 000034bc 000034c4     .....4...4...4..
    3508:	000034cc 61746146 7265206c 00726f72     .4..Fatal error.
    3518:	74737953 72206d65 74657365 00000000     System reset....

00003528 <_aV2C.0>:
    3528:	33323130 37363534 42413938 46454443     0123456789ABCDEF
	...

00003540 <delay_machine_code.0>:
    3540:	d8fd3803 00004770 00535250 4d495754     .8..pG..PRS.TWIM
    3550:	00000000 54524155 00000000 54524155     ....UART....UART
    3560:	00000045 706d6554 74617265 3a657275     E...Temperature:
    3570:	20642520 736c6543 20737569 72676564      %d Celsius degr
    3580:	2e736565 00000000 57540a0d 65732049     ees.......TWI se
    3590:	726f736e 61786520 656c706d 61747320     nsor example sta
    35a0:	64657472 0000002e 00000000 00000000     rted............

000035b0 <delay_machine_code.0>:
    35b0:	d8fd3803 00004770                       .8..pG..

000035b8 <m_twi>:
    35b8:	00000000 40003000 00000000 00000001     .....0.@........

000035c8 <CSWTCH.15>:
    35c8:	01010000                                ....

000035cc <CSWTCH.19>:
    35cc:	01000000                                ....

000035d0 <CSWTCH.11>:
    35d0:	00000001                                ....

000035d4 <_ctype_>:
    35d4:	20202000 20202020 28282020 20282828     .         ((((( 
    35e4:	20202020 20202020 20202020 20202020                     
    35f4:	10108820 10101010 10101010 10101010      ...............
    3604:	04040410 04040404 10040404 10101010     ................
    3614:	41411010 41414141 01010101 01010101     ..AAAAAA........
    3624:	01010101 01010101 01010101 10101010     ................
    3634:	42421010 42424242 02020202 02020202     ..BBBBBB........
    3644:	02020202 02020202 02020202 10101010     ................
    3654:	00000020 00000000 00000000 00000000      ...............
	...

000036d8 <__EH_FRAME_BEGIN__>:
    36d8:	00000000                                ....
