
twi_sensor-o0.elf:     file format elf32-littlearm


Disassembly of section .text:

00000000 <__isr_vector>:
       0:	20010000 	.word	0x20010000
       4:	000002b1 	.word	0x000002b1
       8:	000002d9 	.word	0x000002d9
       c:	000002db 	.word	0x000002db
      10:	000002dd 	.word	0x000002dd
      14:	000002df 	.word	0x000002df
      18:	000002e1 	.word	0x000002e1
	...
      2c:	000002e3 	.word	0x000002e3
      30:	000002e5 	.word	0x000002e5
      34:	00000000 	.word	0x00000000
      38:	000002e7 	.word	0x000002e7
      3c:	000002e9 	.word	0x000002e9
      40:	000002eb 	.word	0x000002eb
      44:	000002eb 	.word	0x000002eb
      48:	00002701 	.word	0x00002701
      4c:	00003661 	.word	0x00003661
      50:	000002eb 	.word	0x000002eb
      54:	000002eb 	.word	0x000002eb
      58:	000002eb 	.word	0x000002eb
      5c:	000002eb 	.word	0x000002eb
      60:	000002eb 	.word	0x000002eb
      64:	000002eb 	.word	0x000002eb
      68:	000002eb 	.word	0x000002eb
      6c:	000002eb 	.word	0x000002eb
      70:	000002eb 	.word	0x000002eb
      74:	000002eb 	.word	0x000002eb
      78:	000002eb 	.word	0x000002eb
      7c:	000002eb 	.word	0x000002eb
      80:	000002eb 	.word	0x000002eb
      84:	000002eb 	.word	0x000002eb
      88:	000002eb 	.word	0x000002eb
      8c:	000002eb 	.word	0x000002eb
      90:	000002eb 	.word	0x000002eb
      94:	000002eb 	.word	0x000002eb
      98:	000002eb 	.word	0x000002eb
      9c:	000002eb 	.word	0x000002eb
      a0:	000002eb 	.word	0x000002eb
      a4:	000002eb 	.word	0x000002eb
      a8:	000002eb 	.word	0x000002eb
      ac:	000002eb 	.word	0x000002eb
      b0:	000002eb 	.word	0x000002eb
      b4:	000002eb 	.word	0x000002eb
	...
      c0:	000002eb 	.word	0x000002eb
      c4:	000002eb 	.word	0x000002eb
      c8:	000002eb 	.word	0x000002eb
      cc:	000002eb 	.word	0x000002eb
      d0:	000002eb 	.word	0x000002eb
      d4:	000002eb 	.word	0x000002eb
      d8:	000002eb 	.word	0x000002eb
	...

00000200 <__do_global_dtors_aux>:
     200:	b510      	push	{r4, lr}
     202:	4c05      	ldr	r4, [pc, #20]	; (218 <__do_global_dtors_aux+0x18>)
     204:	7823      	ldrb	r3, [r4, #0]
     206:	b933      	cbnz	r3, 216 <__do_global_dtors_aux+0x16>
     208:	4b04      	ldr	r3, [pc, #16]	; (21c <__do_global_dtors_aux+0x1c>)
     20a:	b113      	cbz	r3, 212 <__do_global_dtors_aux+0x12>
     20c:	4804      	ldr	r0, [pc, #16]	; (220 <__do_global_dtors_aux+0x20>)
     20e:	f3af 8000 	nop.w
     212:	2301      	movs	r3, #1
     214:	7023      	strb	r3, [r4, #0]
     216:	bd10      	pop	{r4, pc}
     218:	20000068 	.word	0x20000068
     21c:	00000000 	.word	0x00000000
     220:	00006058 	.word	0x00006058

00000224 <frame_dummy>:
     224:	b508      	push	{r3, lr}
     226:	4b03      	ldr	r3, [pc, #12]	; (234 <frame_dummy+0x10>)
     228:	b11b      	cbz	r3, 232 <frame_dummy+0xe>
     22a:	4903      	ldr	r1, [pc, #12]	; (238 <frame_dummy+0x14>)
     22c:	4803      	ldr	r0, [pc, #12]	; (23c <frame_dummy+0x18>)
     22e:	f3af 8000 	nop.w
     232:	bd08      	pop	{r3, pc}
     234:	00000000 	.word	0x00000000
     238:	2000006c 	.word	0x2000006c
     23c:	00006058 	.word	0x00006058

00000240 <_stack_init>:
     240:	f5a3 3a80 	sub.w	sl, r3, #65536	; 0x10000
     244:	4770      	bx	lr
     246:	bf00      	nop

00000248 <_mainCRTStartup>:
     248:	4b15      	ldr	r3, [pc, #84]	; (2a0 <_mainCRTStartup+0x58>)
     24a:	2b00      	cmp	r3, #0
     24c:	bf08      	it	eq
     24e:	4b11      	ldreq	r3, [pc, #68]	; (294 <_mainCRTStartup+0x4c>)
     250:	469d      	mov	sp, r3
     252:	f7ff fff5 	bl	240 <_stack_init>
     256:	2100      	movs	r1, #0
     258:	468b      	mov	fp, r1
     25a:	460f      	mov	r7, r1
     25c:	4811      	ldr	r0, [pc, #68]	; (2a4 <_mainCRTStartup+0x5c>)
     25e:	4a12      	ldr	r2, [pc, #72]	; (2a8 <_mainCRTStartup+0x60>)
     260:	1a12      	subs	r2, r2, r0
     262:	f005 fc6b 	bl	5b3c <memset>
     266:	4b0c      	ldr	r3, [pc, #48]	; (298 <_mainCRTStartup+0x50>)
     268:	2b00      	cmp	r3, #0
     26a:	d000      	beq.n	26e <_mainCRTStartup+0x26>
     26c:	4798      	blx	r3
     26e:	4b0b      	ldr	r3, [pc, #44]	; (29c <_mainCRTStartup+0x54>)
     270:	2b00      	cmp	r3, #0
     272:	d000      	beq.n	276 <_mainCRTStartup+0x2e>
     274:	4798      	blx	r3
     276:	2000      	movs	r0, #0
     278:	2100      	movs	r1, #0
     27a:	0004      	movs	r4, r0
     27c:	000d      	movs	r5, r1
     27e:	480b      	ldr	r0, [pc, #44]	; (2ac <_mainCRTStartup+0x64>)
     280:	f005 fc44 	bl	5b0c <atexit>
     284:	f005 fc62 	bl	5b4c <__libc_init_array>
     288:	0020      	movs	r0, r4
     28a:	0029      	movs	r1, r5
     28c:	f004 ffbc 	bl	5208 <main>
     290:	f005 fc42 	bl	5b18 <exit>
     294:	00080000 	.word	0x00080000
	...
     2a0:	20010000 	.word	0x20010000
     2a4:	20000068 	.word	0x20000068
     2a8:	20000798 	.word	0x20000798
     2ac:	00005b95 	.word	0x00005b95

000002b0 <Reset_Handler>:
     2b0:	4906      	ldr	r1, [pc, #24]	; (2cc <Reset_Handler+0x1c>)
     2b2:	4a07      	ldr	r2, [pc, #28]	; (2d0 <Reset_Handler+0x20>)
     2b4:	4b07      	ldr	r3, [pc, #28]	; (2d4 <Reset_Handler+0x24>)
     2b6:	1a9b      	subs	r3, r3, r2
     2b8:	dd03      	ble.n	2c2 <Reset_Handler+0x12>
     2ba:	3b04      	subs	r3, #4
     2bc:	58c8      	ldr	r0, [r1, r3]
     2be:	50d0      	str	r0, [r2, r3]
     2c0:	dcfb      	bgt.n	2ba <Reset_Handler+0xa>
     2c2:	f005 fab5 	bl	5830 <SystemInit>
     2c6:	f7ff ffbf 	bl	248 <_mainCRTStartup>
     2ca:	0000      	.short	0x0000
     2cc:	000060b0 	.word	0x000060b0
     2d0:	20000000 	.word	0x20000000
     2d4:	20000068 	.word	0x20000068

000002d8 <NMI_Handler>:
     2d8:	e7fe      	b.n	2d8 <NMI_Handler>

000002da <HardFault_Handler>:
     2da:	e7fe      	b.n	2da <HardFault_Handler>

000002dc <MemoryManagement_Handler>:
     2dc:	e7fe      	b.n	2dc <MemoryManagement_Handler>

000002de <BusFault_Handler>:
     2de:	e7fe      	b.n	2de <BusFault_Handler>

000002e0 <UsageFault_Handler>:
     2e0:	e7fe      	b.n	2e0 <UsageFault_Handler>

000002e2 <SVC_Handler>:
     2e2:	e7fe      	b.n	2e2 <SVC_Handler>

000002e4 <DebugMon_Handler>:
     2e4:	e7fe      	b.n	2e4 <DebugMon_Handler>

000002e6 <PendSV_Handler>:
     2e6:	e7fe      	b.n	2e6 <PendSV_Handler>

000002e8 <SysTick_Handler>:
     2e8:	e7fe      	b.n	2e8 <SysTick_Handler>

000002ea <Default_Handler>:
     2ea:	e7fe      	b.n	2ea <Default_Handler>

000002ec <nrf_log_backend_serial_put>:
     2ec:	b580      	push	{r7, lr}
     2ee:	b0a0      	sub	sp, #128	; 0x80
     2f0:	af02      	add	r7, sp, #8
     2f2:	60f8      	str	r0, [r7, #12]
     2f4:	60b9      	str	r1, [r7, #8]
     2f6:	607a      	str	r2, [r7, #4]
     2f8:	603b      	str	r3, [r7, #0]
     2fa:	68b8      	ldr	r0, [r7, #8]
     2fc:	f001 fee6 	bl	20cc <nrf_memobj_get>
     300:	687b      	ldr	r3, [r7, #4]
     302:	64fb      	str	r3, [r7, #76]	; 0x4c
     304:	683b      	ldr	r3, [r7, #0]
     306:	653b      	str	r3, [r7, #80]	; 0x50
     308:	2300      	movs	r3, #0
     30a:	657b      	str	r3, [r7, #84]	; 0x54
     30c:	2300      	movs	r3, #0
     30e:	f887 3058 	strb.w	r3, [r7, #88]	; 0x58
     312:	2300      	movs	r3, #0
     314:	65fb      	str	r3, [r7, #92]	; 0x5c
     316:	f8d7 3080 	ldr.w	r3, [r7, #128]	; 0x80
     31a:	663b      	str	r3, [r7, #96]	; 0x60
     31c:	2300      	movs	r3, #0
     31e:	677b      	str	r3, [r7, #116]	; 0x74
     320:	f107 0134 	add.w	r1, r7, #52	; 0x34
     324:	6f7b      	ldr	r3, [r7, #116]	; 0x74
     326:	2208      	movs	r2, #8
     328:	68b8      	ldr	r0, [r7, #8]
     32a:	f001 ff93 	bl	2254 <nrf_memobj_read>
     32e:	2308      	movs	r3, #8
     330:	677b      	str	r3, [r7, #116]	; 0x74
     332:	6bfb      	ldr	r3, [r7, #60]	; 0x3c
     334:	643b      	str	r3, [r7, #64]	; 0x40
     336:	8f3b      	ldrh	r3, [r7, #56]	; 0x38
     338:	f8a7 3044 	strh.w	r3, [r7, #68]	; 0x44
     33c:	8f7b      	ldrh	r3, [r7, #58]	; 0x3a
     33e:	f8a7 3046 	strh.w	r3, [r7, #70]	; 0x46
     342:	2300      	movs	r3, #0
     344:	f887 3049 	strb.w	r3, [r7, #73]	; 0x49
     348:	f897 3034 	ldrb.w	r3, [r7, #52]	; 0x34
     34c:	f003 0303 	and.w	r3, r3, #3
     350:	b2db      	uxtb	r3, r3
     352:	2b01      	cmp	r3, #1
     354:	d129      	bne.n	3aa <nrf_log_backend_serial_put+0xbe>
     356:	6b7b      	ldr	r3, [r7, #52]	; 0x34
     358:	f3c3 2395 	ubfx	r3, r3, #10, #22
     35c:	66bb      	str	r3, [r7, #104]	; 0x68
     35e:	f897 3034 	ldrb.w	r3, [r7, #52]	; 0x34
     362:	f3c3 03c2 	ubfx	r3, r3, #3, #3
     366:	b2db      	uxtb	r3, r3
     368:	f887 3048 	strb.w	r3, [r7, #72]	; 0x48
     36c:	8ebb      	ldrh	r3, [r7, #52]	; 0x34
     36e:	f3c3 1383 	ubfx	r3, r3, #6, #4
     372:	b2db      	uxtb	r3, r3
     374:	667b      	str	r3, [r7, #100]	; 0x64
     376:	6e7b      	ldr	r3, [r7, #100]	; 0x64
     378:	009a      	lsls	r2, r3, #2
     37a:	f107 011c 	add.w	r1, r7, #28
     37e:	6f7b      	ldr	r3, [r7, #116]	; 0x74
     380:	68b8      	ldr	r0, [r7, #8]
     382:	f001 ff67 	bl	2254 <nrf_memobj_read>
     386:	6e7b      	ldr	r3, [r7, #100]	; 0x64
     388:	009b      	lsls	r3, r3, #2
     38a:	6f7a      	ldr	r2, [r7, #116]	; 0x74
     38c:	4413      	add	r3, r2
     38e:	677b      	str	r3, [r7, #116]	; 0x74
     390:	f107 0240 	add.w	r2, r7, #64	; 0x40
     394:	f107 011c 	add.w	r1, r7, #28
     398:	f107 034c 	add.w	r3, r7, #76	; 0x4c
     39c:	9300      	str	r3, [sp, #0]
     39e:	4613      	mov	r3, r2
     3a0:	6e7a      	ldr	r2, [r7, #100]	; 0x64
     3a2:	6eb8      	ldr	r0, [r7, #104]	; 0x68
     3a4:	f000 ff8e 	bl	12c4 <nrf_log_std_entry_process>
     3a8:	e032      	b.n	410 <nrf_log_backend_serial_put+0x124>
     3aa:	f897 3034 	ldrb.w	r3, [r7, #52]	; 0x34
     3ae:	f003 0303 	and.w	r3, r3, #3
     3b2:	b2db      	uxtb	r3, r3
     3b4:	2b02      	cmp	r3, #2
     3b6:	d12b      	bne.n	410 <nrf_log_backend_serial_put+0x124>
     3b8:	8efb      	ldrh	r3, [r7, #54]	; 0x36
     3ba:	f3c3 1389 	ubfx	r3, r3, #6, #10
     3be:	b29b      	uxth	r3, r3
     3c0:	673b      	str	r3, [r7, #112]	; 0x70
     3c2:	f897 3034 	ldrb.w	r3, [r7, #52]	; 0x34
     3c6:	f3c3 03c2 	ubfx	r3, r3, #3, #3
     3ca:	b2db      	uxtb	r3, r3
     3cc:	f887 3048 	strb.w	r3, [r7, #72]	; 0x48
     3d0:	6f3b      	ldr	r3, [r7, #112]	; 0x70
     3d2:	2b08      	cmp	r3, #8
     3d4:	bf28      	it	cs
     3d6:	2308      	movcs	r3, #8
     3d8:	66fb      	str	r3, [r7, #108]	; 0x6c
     3da:	f107 0114 	add.w	r1, r7, #20
     3de:	6f7b      	ldr	r3, [r7, #116]	; 0x74
     3e0:	6efa      	ldr	r2, [r7, #108]	; 0x6c
     3e2:	68b8      	ldr	r0, [r7, #8]
     3e4:	f001 ff36 	bl	2254 <nrf_memobj_read>
     3e8:	6f7a      	ldr	r2, [r7, #116]	; 0x74
     3ea:	6efb      	ldr	r3, [r7, #108]	; 0x6c
     3ec:	4413      	add	r3, r2
     3ee:	677b      	str	r3, [r7, #116]	; 0x74
     3f0:	6f3a      	ldr	r2, [r7, #112]	; 0x70
     3f2:	6efb      	ldr	r3, [r7, #108]	; 0x6c
     3f4:	1ad3      	subs	r3, r2, r3
     3f6:	673b      	str	r3, [r7, #112]	; 0x70
     3f8:	f107 034c 	add.w	r3, r7, #76	; 0x4c
     3fc:	f107 0240 	add.w	r2, r7, #64	; 0x40
     400:	f107 0014 	add.w	r0, r7, #20
     404:	6ef9      	ldr	r1, [r7, #108]	; 0x6c
     406:	f000 ffff 	bl	1408 <nrf_log_hexdump_entry_process>
     40a:	6f3b      	ldr	r3, [r7, #112]	; 0x70
     40c:	2b00      	cmp	r3, #0
     40e:	d1df      	bne.n	3d0 <nrf_log_backend_serial_put+0xe4>
     410:	68b8      	ldr	r0, [r7, #8]
     412:	f001 fe6b 	bl	20ec <nrf_memobj_put>
     416:	bf00      	nop
     418:	3778      	adds	r7, #120	; 0x78
     41a:	46bd      	mov	sp, r7
     41c:	bd80      	pop	{r7, pc}
	...

00000420 <nrf_drv_uart_uninit>:
     420:	b580      	push	{r7, lr}
     422:	b082      	sub	sp, #8
     424:	af00      	add	r7, sp, #0
     426:	6078      	str	r0, [r7, #4]
     428:	687b      	ldr	r3, [r7, #4]
     42a:	781b      	ldrb	r3, [r3, #0]
     42c:	461a      	mov	r2, r3
     42e:	4b0d      	ldr	r3, [pc, #52]	; (464 <nrf_drv_uart_uninit+0x44>)
     430:	5c9b      	ldrb	r3, [r3, r2]
     432:	2b00      	cmp	r3, #0
     434:	d005      	beq.n	442 <nrf_drv_uart_uninit+0x22>
     436:	687b      	ldr	r3, [r7, #4]
     438:	3304      	adds	r3, #4
     43a:	4618      	mov	r0, r3
     43c:	f004 fb8a 	bl	4b54 <nrfx_uarte_uninit>
     440:	e00b      	b.n	45a <nrf_drv_uart_uninit+0x3a>
     442:	687b      	ldr	r3, [r7, #4]
     444:	781b      	ldrb	r3, [r3, #0]
     446:	461a      	mov	r2, r3
     448:	4b06      	ldr	r3, [pc, #24]	; (464 <nrf_drv_uart_uninit+0x44>)
     44a:	5c9b      	ldrb	r3, [r3, r2]
     44c:	2b00      	cmp	r3, #0
     44e:	d104      	bne.n	45a <nrf_drv_uart_uninit+0x3a>
     450:	687b      	ldr	r3, [r7, #4]
     452:	330c      	adds	r3, #12
     454:	4618      	mov	r0, r3
     456:	f003 fd01 	bl	3e5c <nrfx_uart_uninit>
     45a:	bf00      	nop
     45c:	3708      	adds	r7, #8
     45e:	46bd      	mov	sp, r7
     460:	bd80      	pop	{r7, pc}
     462:	bf00      	nop
     464:	2000066c 	.word	0x2000066c

00000468 <nrf_drv_uart_tx>:
     468:	b580      	push	{r7, lr}
     46a:	b086      	sub	sp, #24
     46c:	af00      	add	r7, sp, #0
     46e:	60f8      	str	r0, [r7, #12]
     470:	60b9      	str	r1, [r7, #8]
     472:	4613      	mov	r3, r2
     474:	71fb      	strb	r3, [r7, #7]
     476:	2300      	movs	r3, #0
     478:	617b      	str	r3, [r7, #20]
     47a:	68fb      	ldr	r3, [r7, #12]
     47c:	781b      	ldrb	r3, [r3, #0]
     47e:	461a      	mov	r2, r3
     480:	4b10      	ldr	r3, [pc, #64]	; (4c4 <nrf_drv_uart_tx+0x5c>)
     482:	5c9b      	ldrb	r3, [r3, r2]
     484:	2b00      	cmp	r3, #0
     486:	d008      	beq.n	49a <nrf_drv_uart_tx+0x32>
     488:	68fb      	ldr	r3, [r7, #12]
     48a:	3304      	adds	r3, #4
     48c:	79fa      	ldrb	r2, [r7, #7]
     48e:	68b9      	ldr	r1, [r7, #8]
     490:	4618      	mov	r0, r3
     492:	f004 fbc3 	bl	4c1c <nrfx_uarte_tx>
     496:	6178      	str	r0, [r7, #20]
     498:	e00e      	b.n	4b8 <nrf_drv_uart_tx+0x50>
     49a:	68fb      	ldr	r3, [r7, #12]
     49c:	781b      	ldrb	r3, [r3, #0]
     49e:	461a      	mov	r2, r3
     4a0:	4b08      	ldr	r3, [pc, #32]	; (4c4 <nrf_drv_uart_tx+0x5c>)
     4a2:	5c9b      	ldrb	r3, [r3, r2]
     4a4:	2b00      	cmp	r3, #0
     4a6:	d107      	bne.n	4b8 <nrf_drv_uart_tx+0x50>
     4a8:	68fb      	ldr	r3, [r7, #12]
     4aa:	330c      	adds	r3, #12
     4ac:	79fa      	ldrb	r2, [r7, #7]
     4ae:	68b9      	ldr	r1, [r7, #8]
     4b0:	4618      	mov	r0, r3
     4b2:	f003 fd4b 	bl	3f4c <nrfx_uart_tx>
     4b6:	6178      	str	r0, [r7, #20]
     4b8:	697b      	ldr	r3, [r7, #20]
     4ba:	4618      	mov	r0, r3
     4bc:	3718      	adds	r7, #24
     4be:	46bd      	mov	sp, r7
     4c0:	bd80      	pop	{r7, pc}
     4c2:	bf00      	nop
     4c4:	2000066c 	.word	0x2000066c

000004c8 <uart_evt_handler>:
     4c8:	b480      	push	{r7}
     4ca:	b083      	sub	sp, #12
     4cc:	af00      	add	r7, sp, #0
     4ce:	6078      	str	r0, [r7, #4]
     4d0:	6039      	str	r1, [r7, #0]
     4d2:	4b04      	ldr	r3, [pc, #16]	; (4e4 <uart_evt_handler+0x1c>)
     4d4:	2201      	movs	r2, #1
     4d6:	701a      	strb	r2, [r3, #0]
     4d8:	bf00      	nop
     4da:	370c      	adds	r7, #12
     4dc:	46bd      	mov	sp, r7
     4de:	f85d 7b04 	ldr.w	r7, [sp], #4
     4e2:	4770      	bx	lr
     4e4:	200000c4 	.word	0x200000c4

000004e8 <uart_init>:
     4e8:	b5b0      	push	{r4, r5, r7, lr}
     4ea:	b08c      	sub	sp, #48	; 0x30
     4ec:	af00      	add	r7, sp, #0
     4ee:	4603      	mov	r3, r0
     4f0:	71fb      	strb	r3, [r7, #7]
     4f2:	4b1a      	ldr	r3, [pc, #104]	; (55c <uart_init+0x74>)
     4f4:	f107 0408 	add.w	r4, r7, #8
     4f8:	461d      	mov	r5, r3
     4fa:	cd0f      	ldmia	r5!, {r0, r1, r2, r3}
     4fc:	c40f      	stmia	r4!, {r0, r1, r2, r3}
     4fe:	e895 000f 	ldmia.w	r5, {r0, r1, r2, r3}
     502:	e884 000f 	stmia.w	r4, {r0, r1, r2, r3}
     506:	2306      	movs	r3, #6
     508:	60bb      	str	r3, [r7, #8]
     50a:	f04f 33ff 	mov.w	r3, #4294967295	; 0xffffffff
     50e:	60fb      	str	r3, [r7, #12]
     510:	f04f 33ff 	mov.w	r3, #4294967295	; 0xffffffff
     514:	613b      	str	r3, [r7, #16]
     516:	f04f 33ff 	mov.w	r3, #4294967295	; 0xffffffff
     51a:	617b      	str	r3, [r7, #20]
     51c:	f04f 73eb 	mov.w	r3, #30801920	; 0x1d60000
     520:	623b      	str	r3, [r7, #32]
     522:	79fb      	ldrb	r3, [r7, #7]
     524:	2b00      	cmp	r3, #0
     526:	d001      	beq.n	52c <uart_init+0x44>
     528:	4a0d      	ldr	r2, [pc, #52]	; (560 <uart_init+0x78>)
     52a:	e000      	b.n	52e <uart_init+0x46>
     52c:	2200      	movs	r2, #0
     52e:	f107 0308 	add.w	r3, r7, #8
     532:	4619      	mov	r1, r3
     534:	480b      	ldr	r0, [pc, #44]	; (564 <uart_init+0x7c>)
     536:	f002 f87d 	bl	2634 <nrf_drv_uart_init>
     53a:	62f8      	str	r0, [r7, #44]	; 0x2c
     53c:	6afb      	ldr	r3, [r7, #44]	; 0x2c
     53e:	62bb      	str	r3, [r7, #40]	; 0x28
     540:	6abb      	ldr	r3, [r7, #40]	; 0x28
     542:	2b00      	cmp	r3, #0
     544:	d002      	beq.n	54c <uart_init+0x64>
     546:	6ab8      	ldr	r0, [r7, #40]	; 0x28
     548:	f000 ffd6 	bl	14f8 <app_error_handler_bare>
     54c:	4a06      	ldr	r2, [pc, #24]	; (568 <uart_init+0x80>)
     54e:	79fb      	ldrb	r3, [r7, #7]
     550:	7013      	strb	r3, [r2, #0]
     552:	bf00      	nop
     554:	3730      	adds	r7, #48	; 0x30
     556:	46bd      	mov	sp, r7
     558:	bdb0      	pop	{r4, r5, r7, pc}
     55a:	bf00      	nop
     55c:	00005d7c 	.word	0x00005d7c
     560:	000004c9 	.word	0x000004c9
     564:	20000000 	.word	0x20000000
     568:	200000c5 	.word	0x200000c5

0000056c <nrf_log_backend_uart_init>:
     56c:	b580      	push	{r7, lr}
     56e:	b082      	sub	sp, #8
     570:	af00      	add	r7, sp, #0
     572:	2301      	movs	r3, #1
     574:	71fb      	strb	r3, [r7, #7]
     576:	79fb      	ldrb	r3, [r7, #7]
     578:	4618      	mov	r0, r3
     57a:	f7ff ffb5 	bl	4e8 <uart_init>
     57e:	bf00      	nop
     580:	3708      	adds	r7, #8
     582:	46bd      	mov	sp, r7
     584:	bd80      	pop	{r7, pc}
	...

00000588 <serial_tx>:
     588:	b580      	push	{r7, lr}
     58a:	b088      	sub	sp, #32
     58c:	af00      	add	r7, sp, #0
     58e:	60f8      	str	r0, [r7, #12]
     590:	60b9      	str	r1, [r7, #8]
     592:	607a      	str	r2, [r7, #4]
     594:	687b      	ldr	r3, [r7, #4]
     596:	77fb      	strb	r3, [r7, #31]
     598:	4b11      	ldr	r3, [pc, #68]	; (5e0 <serial_tx+0x58>)
     59a:	2200      	movs	r2, #0
     59c:	701a      	strb	r2, [r3, #0]
     59e:	7ffb      	ldrb	r3, [r7, #31]
     5a0:	461a      	mov	r2, r3
     5a2:	68b9      	ldr	r1, [r7, #8]
     5a4:	480f      	ldr	r0, [pc, #60]	; (5e4 <serial_tx+0x5c>)
     5a6:	f7ff ff5f 	bl	468 <nrf_drv_uart_tx>
     5aa:	61b8      	str	r0, [r7, #24]
     5ac:	69bb      	ldr	r3, [r7, #24]
     5ae:	617b      	str	r3, [r7, #20]
     5b0:	697b      	ldr	r3, [r7, #20]
     5b2:	2b00      	cmp	r3, #0
     5b4:	d002      	beq.n	5bc <serial_tx+0x34>
     5b6:	6978      	ldr	r0, [r7, #20]
     5b8:	f000 ff9e 	bl	14f8 <app_error_handler_bare>
     5bc:	bf00      	nop
     5be:	4b0a      	ldr	r3, [pc, #40]	; (5e8 <serial_tx+0x60>)
     5c0:	781b      	ldrb	r3, [r3, #0]
     5c2:	2b00      	cmp	r3, #0
     5c4:	d007      	beq.n	5d6 <serial_tx+0x4e>
     5c6:	4b06      	ldr	r3, [pc, #24]	; (5e0 <serial_tx+0x58>)
     5c8:	781b      	ldrb	r3, [r3, #0]
     5ca:	b2db      	uxtb	r3, r3
     5cc:	f083 0301 	eor.w	r3, r3, #1
     5d0:	b2db      	uxtb	r3, r3
     5d2:	2b00      	cmp	r3, #0
     5d4:	d1f3      	bne.n	5be <serial_tx+0x36>
     5d6:	bf00      	nop
     5d8:	3720      	adds	r7, #32
     5da:	46bd      	mov	sp, r7
     5dc:	bd80      	pop	{r7, pc}
     5de:	bf00      	nop
     5e0:	200000c4 	.word	0x200000c4
     5e4:	20000000 	.word	0x20000000
     5e8:	200000c5 	.word	0x200000c5

000005ec <nrf_log_backend_uart_put>:
     5ec:	b580      	push	{r7, lr}
     5ee:	b084      	sub	sp, #16
     5f0:	af02      	add	r7, sp, #8
     5f2:	6078      	str	r0, [r7, #4]
     5f4:	6039      	str	r1, [r7, #0]
     5f6:	4b06      	ldr	r3, [pc, #24]	; (610 <nrf_log_backend_uart_put+0x24>)
     5f8:	9300      	str	r3, [sp, #0]
     5fa:	2340      	movs	r3, #64	; 0x40
     5fc:	4a05      	ldr	r2, [pc, #20]	; (614 <nrf_log_backend_uart_put+0x28>)
     5fe:	6839      	ldr	r1, [r7, #0]
     600:	6878      	ldr	r0, [r7, #4]
     602:	f7ff fe73 	bl	2ec <nrf_log_backend_serial_put>
     606:	bf00      	nop
     608:	3708      	adds	r7, #8
     60a:	46bd      	mov	sp, r7
     60c:	bd80      	pop	{r7, pc}
     60e:	bf00      	nop
     610:	00000589 	.word	0x00000589
     614:	20000084 	.word	0x20000084

00000618 <nrf_log_backend_uart_flush>:
     618:	b480      	push	{r7}
     61a:	b083      	sub	sp, #12
     61c:	af00      	add	r7, sp, #0
     61e:	6078      	str	r0, [r7, #4]
     620:	bf00      	nop
     622:	370c      	adds	r7, #12
     624:	46bd      	mov	sp, r7
     626:	f85d 7b04 	ldr.w	r7, [sp], #4
     62a:	4770      	bx	lr

0000062c <nrf_log_backend_uart_panic_set>:
     62c:	b580      	push	{r7, lr}
     62e:	b082      	sub	sp, #8
     630:	af00      	add	r7, sp, #0
     632:	6078      	str	r0, [r7, #4]
     634:	4804      	ldr	r0, [pc, #16]	; (648 <nrf_log_backend_uart_panic_set+0x1c>)
     636:	f7ff fef3 	bl	420 <nrf_drv_uart_uninit>
     63a:	2000      	movs	r0, #0
     63c:	f7ff ff54 	bl	4e8 <uart_init>
     640:	bf00      	nop
     642:	3708      	adds	r7, #8
     644:	46bd      	mov	sp, r7
     646:	bd80      	pop	{r7, pc}
     648:	20000000 	.word	0x20000000

0000064c <nrf_log_backend_enable>:
     64c:	b480      	push	{r7}
     64e:	b083      	sub	sp, #12
     650:	af00      	add	r7, sp, #0
     652:	6078      	str	r0, [r7, #4]
     654:	687b      	ldr	r3, [r7, #4]
     656:	68db      	ldr	r3, [r3, #12]
     658:	2201      	movs	r2, #1
     65a:	715a      	strb	r2, [r3, #5]
     65c:	bf00      	nop
     65e:	370c      	adds	r7, #12
     660:	46bd      	mov	sp, r7
     662:	f85d 7b04 	ldr.w	r7, [sp], #4
     666:	4770      	bx	lr

00000668 <nrf_log_default_backends_init>:
     668:	b580      	push	{r7, lr}
     66a:	b082      	sub	sp, #8
     66c:	af00      	add	r7, sp, #0
     66e:	f04f 33ff 	mov.w	r3, #4294967295	; 0xffffffff
     672:	607b      	str	r3, [r7, #4]
     674:	f7ff ff7a 	bl	56c <nrf_log_backend_uart_init>
     678:	2104      	movs	r1, #4
     67a:	4805      	ldr	r0, [pc, #20]	; (690 <nrf_log_default_backends_init+0x28>)
     67c:	f000 fd34 	bl	10e8 <nrf_log_backend_add>
     680:	6078      	str	r0, [r7, #4]
     682:	4803      	ldr	r0, [pc, #12]	; (690 <nrf_log_default_backends_init+0x28>)
     684:	f7ff ffe2 	bl	64c <nrf_log_backend_enable>
     688:	bf00      	nop
     68a:	3708      	adds	r7, #8
     68c:	46bd      	mov	sp, r7
     68e:	bd80      	pop	{r7, pc}
     690:	00006084 	.word	0x00006084

00000694 <nrf_log_backend_put>:
     694:	b580      	push	{r7, lr}
     696:	b082      	sub	sp, #8
     698:	af00      	add	r7, sp, #0
     69a:	6078      	str	r0, [r7, #4]
     69c:	6039      	str	r1, [r7, #0]
     69e:	687b      	ldr	r3, [r7, #4]
     6a0:	681b      	ldr	r3, [r3, #0]
     6a2:	681b      	ldr	r3, [r3, #0]
     6a4:	6839      	ldr	r1, [r7, #0]
     6a6:	6878      	ldr	r0, [r7, #4]
     6a8:	4798      	blx	r3
     6aa:	bf00      	nop
     6ac:	3708      	adds	r7, #8
     6ae:	46bd      	mov	sp, r7
     6b0:	bd80      	pop	{r7, pc}

000006b2 <nrf_log_backend_panic_set>:
     6b2:	b580      	push	{r7, lr}
     6b4:	b082      	sub	sp, #8
     6b6:	af00      	add	r7, sp, #0
     6b8:	6078      	str	r0, [r7, #4]
     6ba:	687b      	ldr	r3, [r7, #4]
     6bc:	681b      	ldr	r3, [r3, #0]
     6be:	685b      	ldr	r3, [r3, #4]
     6c0:	6878      	ldr	r0, [r7, #4]
     6c2:	4798      	blx	r3
     6c4:	bf00      	nop
     6c6:	3708      	adds	r7, #8
     6c8:	46bd      	mov	sp, r7
     6ca:	bd80      	pop	{r7, pc}

000006cc <nrf_log_backend_flush>:
     6cc:	b580      	push	{r7, lr}
     6ce:	b082      	sub	sp, #8
     6d0:	af00      	add	r7, sp, #0
     6d2:	6078      	str	r0, [r7, #4]
     6d4:	687b      	ldr	r3, [r7, #4]
     6d6:	681b      	ldr	r3, [r3, #0]
     6d8:	689b      	ldr	r3, [r3, #8]
     6da:	6878      	ldr	r0, [r7, #4]
     6dc:	4798      	blx	r3
     6de:	bf00      	nop
     6e0:	3708      	adds	r7, #8
     6e2:	46bd      	mov	sp, r7
     6e4:	bd80      	pop	{r7, pc}

000006e6 <nrf_log_backend_id_set>:
     6e6:	b480      	push	{r7}
     6e8:	b083      	sub	sp, #12
     6ea:	af00      	add	r7, sp, #0
     6ec:	6078      	str	r0, [r7, #4]
     6ee:	460b      	mov	r3, r1
     6f0:	70fb      	strb	r3, [r7, #3]
     6f2:	687b      	ldr	r3, [r7, #4]
     6f4:	68db      	ldr	r3, [r3, #12]
     6f6:	78fa      	ldrb	r2, [r7, #3]
     6f8:	711a      	strb	r2, [r3, #4]
     6fa:	bf00      	nop
     6fc:	370c      	adds	r7, #12
     6fe:	46bd      	mov	sp, r7
     700:	f85d 7b04 	ldr.w	r7, [sp], #4
     704:	4770      	bx	lr

00000706 <nrf_log_backend_id_get>:
     706:	b480      	push	{r7}
     708:	b083      	sub	sp, #12
     70a:	af00      	add	r7, sp, #0
     70c:	6078      	str	r0, [r7, #4]
     70e:	687b      	ldr	r3, [r7, #4]
     710:	68db      	ldr	r3, [r3, #12]
     712:	791b      	ldrb	r3, [r3, #4]
     714:	4618      	mov	r0, r3
     716:	370c      	adds	r7, #12
     718:	46bd      	mov	sp, r7
     71a:	f85d 7b04 	ldr.w	r7, [sp], #4
     71e:	4770      	bx	lr

00000720 <nrf_log_backend_enable>:
     720:	b480      	push	{r7}
     722:	b083      	sub	sp, #12
     724:	af00      	add	r7, sp, #0
     726:	6078      	str	r0, [r7, #4]
     728:	687b      	ldr	r3, [r7, #4]
     72a:	68db      	ldr	r3, [r3, #12]
     72c:	2201      	movs	r2, #1
     72e:	715a      	strb	r2, [r3, #5]
     730:	bf00      	nop
     732:	370c      	adds	r7, #12
     734:	46bd      	mov	sp, r7
     736:	f85d 7b04 	ldr.w	r7, [sp], #4
     73a:	4770      	bx	lr

0000073c <nrf_log_backend_is_enabled>:
     73c:	b480      	push	{r7}
     73e:	b083      	sub	sp, #12
     740:	af00      	add	r7, sp, #0
     742:	6078      	str	r0, [r7, #4]
     744:	687b      	ldr	r3, [r7, #4]
     746:	68db      	ldr	r3, [r3, #12]
     748:	795b      	ldrb	r3, [r3, #5]
     74a:	4618      	mov	r0, r3
     74c:	370c      	adds	r7, #12
     74e:	46bd      	mov	sp, r7
     750:	f85d 7b04 	ldr.w	r7, [sp], #4
     754:	4770      	bx	lr
	...

00000758 <nrf_log_init>:
     758:	b580      	push	{r7, lr}
     75a:	b084      	sub	sp, #16
     75c:	af00      	add	r7, sp, #0
     75e:	6078      	str	r0, [r7, #4]
     760:	6039      	str	r1, [r7, #0]
     762:	4b0c      	ldr	r3, [pc, #48]	; (794 <nrf_log_init+0x3c>)
     764:	2200      	movs	r2, #0
     766:	701a      	strb	r2, [r3, #0]
     768:	480b      	ldr	r0, [pc, #44]	; (798 <nrf_log_init+0x40>)
     76a:	f001 fc15 	bl	1f98 <nrf_memobj_pool_init>
     76e:	60f8      	str	r0, [r7, #12]
     770:	68fb      	ldr	r3, [r7, #12]
     772:	2b00      	cmp	r3, #0
     774:	d001      	beq.n	77a <nrf_log_init+0x22>
     776:	68fb      	ldr	r3, [r7, #12]
     778:	e008      	b.n	78c <nrf_log_init+0x34>
     77a:	4808      	ldr	r0, [pc, #32]	; (79c <nrf_log_init+0x44>)
     77c:	f001 fd80 	bl	2280 <nrf_ringbuf_init>
     780:	4a07      	ldr	r2, [pc, #28]	; (7a0 <nrf_log_init+0x48>)
     782:	4b08      	ldr	r3, [pc, #32]	; (7a4 <nrf_log_init+0x4c>)
     784:	1ad3      	subs	r3, r2, r3
     786:	08db      	lsrs	r3, r3, #3
     788:	60bb      	str	r3, [r7, #8]
     78a:	2300      	movs	r3, #0
     78c:	4618      	mov	r0, r3
     78e:	3710      	adds	r7, #16
     790:	46bd      	mov	sp, r7
     792:	bd80      	pop	{r7, pc}
     794:	20000230 	.word	0x20000230
     798:	00006094 	.word	0x00006094
     79c:	00005dbc 	.word	0x00005dbc
     7a0:	00006084 	.word	0x00006084
     7a4:	0000605c 	.word	0x0000605c

000007a8 <nrf_log_module_cnt_get>:
     7a8:	b480      	push	{r7}
     7aa:	af00      	add	r7, sp, #0
     7ac:	4a04      	ldr	r2, [pc, #16]	; (7c0 <nrf_log_module_cnt_get+0x18>)
     7ae:	4b05      	ldr	r3, [pc, #20]	; (7c4 <nrf_log_module_cnt_get+0x1c>)
     7b0:	1ad3      	subs	r3, r2, r3
     7b2:	08db      	lsrs	r3, r3, #3
     7b4:	4618      	mov	r0, r3
     7b6:	46bd      	mov	sp, r7
     7b8:	f85d 7b04 	ldr.w	r7, [sp], #4
     7bc:	4770      	bx	lr
     7be:	bf00      	nop
     7c0:	00006084 	.word	0x00006084
     7c4:	0000605c 	.word	0x0000605c

000007c8 <module_idx_get>:
     7c8:	b580      	push	{r7, lr}
     7ca:	b086      	sub	sp, #24
     7cc:	af00      	add	r7, sp, #0
     7ce:	6078      	str	r0, [r7, #4]
     7d0:	460b      	mov	r3, r1
     7d2:	70fb      	strb	r3, [r7, #3]
     7d4:	78fb      	ldrb	r3, [r7, #3]
     7d6:	2b00      	cmp	r3, #0
     7d8:	d01f      	beq.n	81a <module_idx_get+0x52>
     7da:	f7ff ffe5 	bl	7a8 <nrf_log_module_cnt_get>
     7de:	6138      	str	r0, [r7, #16]
     7e0:	2300      	movs	r3, #0
     7e2:	617b      	str	r3, [r7, #20]
     7e4:	e013      	b.n	80e <module_idx_get+0x46>
     7e6:	697b      	ldr	r3, [r7, #20]
     7e8:	009b      	lsls	r3, r3, #2
     7ea:	4a0e      	ldr	r2, [pc, #56]	; (824 <module_idx_get+0x5c>)
     7ec:	4413      	add	r3, r2
     7ee:	60fb      	str	r3, [r7, #12]
     7f0:	68fb      	ldr	r3, [r7, #12]
     7f2:	881b      	ldrh	r3, [r3, #0]
     7f4:	461a      	mov	r2, r3
     7f6:	687b      	ldr	r3, [r7, #4]
     7f8:	681b      	ldr	r3, [r3, #0]
     7fa:	429a      	cmp	r2, r3
     7fc:	d104      	bne.n	808 <module_idx_get+0x40>
     7fe:	687b      	ldr	r3, [r7, #4]
     800:	697a      	ldr	r2, [r7, #20]
     802:	601a      	str	r2, [r3, #0]
     804:	2300      	movs	r3, #0
     806:	e009      	b.n	81c <module_idx_get+0x54>
     808:	697b      	ldr	r3, [r7, #20]
     80a:	3301      	adds	r3, #1
     80c:	617b      	str	r3, [r7, #20]
     80e:	697a      	ldr	r2, [r7, #20]
     810:	693b      	ldr	r3, [r7, #16]
     812:	429a      	cmp	r2, r3
     814:	d3e7      	bcc.n	7e6 <module_idx_get+0x1e>
     816:	2305      	movs	r3, #5
     818:	e000      	b.n	81c <module_idx_get+0x54>
     81a:	2300      	movs	r3, #0
     81c:	4618      	mov	r0, r3
     81e:	3718      	adds	r7, #24
     820:	46bd      	mov	sp, r7
     822:	bd80      	pop	{r7, pc}
     824:	20000068 	.word	0x20000068

00000828 <nrf_log_module_name_get>:
     828:	b580      	push	{r7, lr}
     82a:	b084      	sub	sp, #16
     82c:	af00      	add	r7, sp, #0
     82e:	6078      	str	r0, [r7, #4]
     830:	460b      	mov	r3, r1
     832:	70fb      	strb	r3, [r7, #3]
     834:	78fa      	ldrb	r2, [r7, #3]
     836:	1d3b      	adds	r3, r7, #4
     838:	4611      	mov	r1, r2
     83a:	4618      	mov	r0, r3
     83c:	f7ff ffc4 	bl	7c8 <module_idx_get>
     840:	4603      	mov	r3, r0
     842:	2b00      	cmp	r3, #0
     844:	d107      	bne.n	856 <nrf_log_module_name_get+0x2e>
     846:	687b      	ldr	r3, [r7, #4]
     848:	00db      	lsls	r3, r3, #3
     84a:	4a05      	ldr	r2, [pc, #20]	; (860 <nrf_log_module_name_get+0x38>)
     84c:	4413      	add	r3, r2
     84e:	60fb      	str	r3, [r7, #12]
     850:	68fb      	ldr	r3, [r7, #12]
     852:	681b      	ldr	r3, [r3, #0]
     854:	e000      	b.n	858 <nrf_log_module_name_get+0x30>
     856:	2300      	movs	r3, #0
     858:	4618      	mov	r0, r3
     85a:	3710      	adds	r7, #16
     85c:	46bd      	mov	sp, r7
     85e:	bd80      	pop	{r7, pc}
     860:	0000605c 	.word	0x0000605c

00000864 <nrf_log_color_id_get>:
     864:	b480      	push	{r7}
     866:	b085      	sub	sp, #20
     868:	af00      	add	r7, sp, #0
     86a:	6078      	str	r0, [r7, #4]
     86c:	460b      	mov	r3, r1
     86e:	70fb      	strb	r3, [r7, #3]
     870:	687b      	ldr	r3, [r7, #4]
     872:	00db      	lsls	r3, r3, #3
     874:	4a14      	ldr	r2, [pc, #80]	; (8c8 <nrf_log_color_id_get+0x64>)
     876:	4413      	add	r3, r2
     878:	60bb      	str	r3, [r7, #8]
     87a:	78fb      	ldrb	r3, [r7, #3]
     87c:	3b01      	subs	r3, #1
     87e:	2b03      	cmp	r3, #3
     880:	d818      	bhi.n	8b4 <nrf_log_color_id_get+0x50>
     882:	a201      	add	r2, pc, #4	; (adr r2, 888 <nrf_log_color_id_get+0x24>)
     884:	f852 f023 	ldr.w	pc, [r2, r3, lsl #2]
     888:	00000899 	.word	0x00000899
     88c:	0000089f 	.word	0x0000089f
     890:	000008a5 	.word	0x000008a5
     894:	000008ad 	.word	0x000008ad
     898:	2302      	movs	r3, #2
     89a:	73fb      	strb	r3, [r7, #15]
     89c:	e00d      	b.n	8ba <nrf_log_color_id_get+0x56>
     89e:	2304      	movs	r3, #4
     8a0:	73fb      	strb	r3, [r7, #15]
     8a2:	e00a      	b.n	8ba <nrf_log_color_id_get+0x56>
     8a4:	68bb      	ldr	r3, [r7, #8]
     8a6:	791b      	ldrb	r3, [r3, #4]
     8a8:	73fb      	strb	r3, [r7, #15]
     8aa:	e006      	b.n	8ba <nrf_log_color_id_get+0x56>
     8ac:	68bb      	ldr	r3, [r7, #8]
     8ae:	795b      	ldrb	r3, [r3, #5]
     8b0:	73fb      	strb	r3, [r7, #15]
     8b2:	e002      	b.n	8ba <nrf_log_color_id_get+0x56>
     8b4:	2300      	movs	r3, #0
     8b6:	73fb      	strb	r3, [r7, #15]
     8b8:	bf00      	nop
     8ba:	7bfb      	ldrb	r3, [r7, #15]
     8bc:	4618      	mov	r0, r3
     8be:	3714      	adds	r7, #20
     8c0:	46bd      	mov	sp, r7
     8c2:	f85d 7b04 	ldr.w	r7, [sp], #4
     8c6:	4770      	bx	lr
     8c8:	0000605c 	.word	0x0000605c

000008cc <invalid_packets_omit>:
     8cc:	b480      	push	{r7}
     8ce:	b085      	sub	sp, #20
     8d0:	af00      	add	r7, sp, #0
     8d2:	6078      	str	r0, [r7, #4]
     8d4:	6039      	str	r1, [r7, #0]
     8d6:	2300      	movs	r3, #0
     8d8:	73fb      	strb	r3, [r7, #15]
     8da:	687b      	ldr	r3, [r7, #4]
     8dc:	781b      	ldrb	r3, [r3, #0]
     8de:	f003 0304 	and.w	r3, r3, #4
     8e2:	b2db      	uxtb	r3, r3
     8e4:	2b00      	cmp	r3, #0
     8e6:	d023      	beq.n	930 <invalid_packets_omit+0x64>
     8e8:	687b      	ldr	r3, [r7, #4]
     8ea:	781b      	ldrb	r3, [r3, #0]
     8ec:	f3c3 0301 	ubfx	r3, r3, #0, #2
     8f0:	b2db      	uxtb	r3, r3
     8f2:	2b01      	cmp	r3, #1
     8f4:	d002      	beq.n	8fc <invalid_packets_omit+0x30>
     8f6:	2b02      	cmp	r3, #2
     8f8:	d00c      	beq.n	914 <invalid_packets_omit+0x48>
     8fa:	e017      	b.n	92c <invalid_packets_omit+0x60>
     8fc:	683b      	ldr	r3, [r7, #0]
     8fe:	681b      	ldr	r3, [r3, #0]
     900:	687a      	ldr	r2, [r7, #4]
     902:	8812      	ldrh	r2, [r2, #0]
     904:	f3c2 1283 	ubfx	r2, r2, #6, #4
     908:	b2d2      	uxtb	r2, r2
     90a:	4413      	add	r3, r2
     90c:	1c9a      	adds	r2, r3, #2
     90e:	683b      	ldr	r3, [r7, #0]
     910:	601a      	str	r2, [r3, #0]
     912:	e00b      	b.n	92c <invalid_packets_omit+0x60>
     914:	683b      	ldr	r3, [r7, #0]
     916:	681b      	ldr	r3, [r3, #0]
     918:	687a      	ldr	r2, [r7, #4]
     91a:	8852      	ldrh	r2, [r2, #2]
     91c:	f3c2 1289 	ubfx	r2, r2, #6, #10
     920:	b292      	uxth	r2, r2
     922:	4413      	add	r3, r2
     924:	1c9a      	adds	r2, r3, #2
     926:	683b      	ldr	r3, [r7, #0]
     928:	601a      	str	r2, [r3, #0]
     92a:	bf00      	nop
     92c:	2301      	movs	r3, #1
     92e:	73fb      	strb	r3, [r7, #15]
     930:	7bfb      	ldrb	r3, [r7, #15]
     932:	4618      	mov	r0, r3
     934:	3714      	adds	r7, #20
     936:	46bd      	mov	sp, r7
     938:	f85d 7b04 	ldr.w	r7, [sp], #4
     93c:	4770      	bx	lr
	...

00000940 <log_skip>:
     940:	b580      	push	{r7, lr}
     942:	b08a      	sub	sp, #40	; 0x28
     944:	af00      	add	r7, sp, #0
     946:	2300      	movs	r3, #0
     948:	84fb      	strh	r3, [r7, #38]	; 0x26
     94a:	4838      	ldr	r0, [pc, #224]	; (a2c <log_skip+0xec>)
     94c:	f000 feed 	bl	172a <nrf_atomic_flag_set>
     950:	4837      	ldr	r0, [pc, #220]	; (a30 <log_skip+0xf0>)
     952:	f000 feea 	bl	172a <nrf_atomic_flag_set>
     956:	4b37      	ldr	r3, [pc, #220]	; (a34 <log_skip+0xf4>)
     958:	689b      	ldr	r3, [r3, #8]
     95a:	613b      	str	r3, [r7, #16]
     95c:	4b36      	ldr	r3, [pc, #216]	; (a38 <log_skip+0xf8>)
     95e:	681b      	ldr	r3, [r3, #0]
     960:	61bb      	str	r3, [r7, #24]
     962:	693a      	ldr	r2, [r7, #16]
     964:	69bb      	ldr	r3, [r7, #24]
     966:	4013      	ands	r3, r2
     968:	3302      	adds	r3, #2
     96a:	009b      	lsls	r3, r3, #2
     96c:	4a31      	ldr	r2, [pc, #196]	; (a34 <log_skip+0xf4>)
     96e:	4413      	add	r3, r2
     970:	3304      	adds	r3, #4
     972:	623b      	str	r3, [r7, #32]
     974:	f107 0310 	add.w	r3, r7, #16
     978:	4619      	mov	r1, r3
     97a:	6a38      	ldr	r0, [r7, #32]
     97c:	f7ff ffa6 	bl	8cc <invalid_packets_omit>
     980:	4603      	mov	r3, r0
     982:	2b00      	cmp	r3, #0
     984:	d009      	beq.n	99a <log_skip+0x5a>
     986:	693a      	ldr	r2, [r7, #16]
     988:	69bb      	ldr	r3, [r7, #24]
     98a:	4013      	ands	r3, r2
     98c:	3302      	adds	r3, #2
     98e:	009b      	lsls	r3, r3, #2
     990:	4a28      	ldr	r2, [pc, #160]	; (a34 <log_skip+0xf4>)
     992:	4413      	add	r3, r2
     994:	3304      	adds	r3, #4
     996:	623b      	str	r3, [r7, #32]
     998:	e7ec      	b.n	974 <log_skip+0x34>
     99a:	bf00      	nop
     99c:	2300      	movs	r3, #0
     99e:	61fb      	str	r3, [r7, #28]
     9a0:	e011      	b.n	9c6 <log_skip+0x86>
     9a2:	693b      	ldr	r3, [r7, #16]
     9a4:	1c5a      	adds	r2, r3, #1
     9a6:	613a      	str	r2, [r7, #16]
     9a8:	69ba      	ldr	r2, [r7, #24]
     9aa:	4013      	ands	r3, r2
     9ac:	69fa      	ldr	r2, [r7, #28]
     9ae:	0092      	lsls	r2, r2, #2
     9b0:	1d39      	adds	r1, r7, #4
     9b2:	440a      	add	r2, r1
     9b4:	491f      	ldr	r1, [pc, #124]	; (a34 <log_skip+0xf4>)
     9b6:	3302      	adds	r3, #2
     9b8:	009b      	lsls	r3, r3, #2
     9ba:	440b      	add	r3, r1
     9bc:	685b      	ldr	r3, [r3, #4]
     9be:	6013      	str	r3, [r2, #0]
     9c0:	69fb      	ldr	r3, [r7, #28]
     9c2:	3301      	adds	r3, #1
     9c4:	61fb      	str	r3, [r7, #28]
     9c6:	69fb      	ldr	r3, [r7, #28]
     9c8:	2b01      	cmp	r3, #1
     9ca:	d9ea      	bls.n	9a2 <log_skip+0x62>
     9cc:	793b      	ldrb	r3, [r7, #4]
     9ce:	f3c3 0301 	ubfx	r3, r3, #0, #2
     9d2:	b2db      	uxtb	r3, r3
     9d4:	2b01      	cmp	r3, #1
     9d6:	d00d      	beq.n	9f4 <log_skip+0xb4>
     9d8:	2b02      	cmp	r3, #2
     9da:	d116      	bne.n	a0a <log_skip+0xca>
     9dc:	897b      	ldrh	r3, [r7, #10]
     9de:	84fb      	strh	r3, [r7, #38]	; 0x26
     9e0:	88fb      	ldrh	r3, [r7, #6]
     9e2:	f3c3 1389 	ubfx	r3, r3, #6, #10
     9e6:	b29b      	uxth	r3, r3
     9e8:	3303      	adds	r3, #3
     9ea:	089a      	lsrs	r2, r3, #2
     9ec:	693b      	ldr	r3, [r7, #16]
     9ee:	4413      	add	r3, r2
     9f0:	613b      	str	r3, [r7, #16]
     9f2:	e00b      	b.n	a0c <log_skip+0xcc>
     9f4:	897b      	ldrh	r3, [r7, #10]
     9f6:	84fb      	strh	r3, [r7, #38]	; 0x26
     9f8:	88bb      	ldrh	r3, [r7, #4]
     9fa:	f3c3 1383 	ubfx	r3, r3, #6, #4
     9fe:	b2db      	uxtb	r3, r3
     a00:	461a      	mov	r2, r3
     a02:	693b      	ldr	r3, [r7, #16]
     a04:	4413      	add	r3, r2
     a06:	613b      	str	r3, [r7, #16]
     a08:	e000      	b.n	a0c <log_skip+0xcc>
     a0a:	bf00      	nop
     a0c:	4808      	ldr	r0, [pc, #32]	; (a30 <log_skip+0xf0>)
     a0e:	f000 fe99 	bl	1744 <nrf_atomic_flag_clear_fetch>
     a12:	6178      	str	r0, [r7, #20]
     a14:	697b      	ldr	r3, [r7, #20]
     a16:	2b00      	cmp	r3, #0
     a18:	d002      	beq.n	a20 <log_skip+0xe0>
     a1a:	693b      	ldr	r3, [r7, #16]
     a1c:	4a05      	ldr	r2, [pc, #20]	; (a34 <log_skip+0xf4>)
     a1e:	6093      	str	r3, [r2, #8]
     a20:	8cfb      	ldrh	r3, [r7, #38]	; 0x26
     a22:	4618      	mov	r0, r3
     a24:	3728      	adds	r7, #40	; 0x28
     a26:	46bd      	mov	sp, r7
     a28:	bd80      	pop	{r7, pc}
     a2a:	bf00      	nop
     a2c:	20000648 	.word	0x20000648
     a30:	20000644 	.word	0x20000644
     a34:	20000230 	.word	0x20000230
     a38:	2000001c 	.word	0x2000001c

00000a3c <dropped_sat16_get>:
     a3c:	b580      	push	{r7, lr}
     a3e:	b084      	sub	sp, #16
     a40:	af00      	add	r7, sp, #0
     a42:	2100      	movs	r1, #0
     a44:	4807      	ldr	r0, [pc, #28]	; (a64 <dropped_sat16_get+0x28>)
     a46:	f000 fdf4 	bl	1632 <nrf_atomic_u32_fetch_store>
     a4a:	60f8      	str	r0, [r7, #12]
     a4c:	68fb      	ldr	r3, [r7, #12]
     a4e:	60bb      	str	r3, [r7, #8]
     a50:	68bb      	ldr	r3, [r7, #8]
     a52:	f383 0310 	usat	r3, #16, r3
     a56:	607b      	str	r3, [r7, #4]
     a58:	687b      	ldr	r3, [r7, #4]
     a5a:	4618      	mov	r0, r3
     a5c:	3710      	adds	r7, #16
     a5e:	46bd      	mov	sp, r7
     a60:	bd80      	pop	{r7, pc}
     a62:	bf00      	nop
     a64:	2000064c 	.word	0x2000064c

00000a68 <std_header_set>:
     a68:	b580      	push	{r7, lr}
     a6a:	b088      	sub	sp, #32
     a6c:	af00      	add	r7, sp, #0
     a6e:	60f8      	str	r0, [r7, #12]
     a70:	60b9      	str	r1, [r7, #8]
     a72:	607a      	str	r2, [r7, #4]
     a74:	603b      	str	r3, [r7, #0]
     a76:	68fb      	ldr	r3, [r7, #12]
     a78:	0c1b      	lsrs	r3, r3, #16
     a7a:	61bb      	str	r3, [r7, #24]
     a7c:	f7ff ffde 	bl	a3c <dropped_sat16_get>
     a80:	61f8      	str	r0, [r7, #28]
     a82:	69fb      	ldr	r3, [r7, #28]
     a84:	0419      	lsls	r1, r3, #16
     a86:	683b      	ldr	r3, [r7, #0]
     a88:	1c5a      	adds	r2, r3, #1
     a8a:	6abb      	ldr	r3, [r7, #40]	; 0x28
     a8c:	4013      	ands	r3, r2
     a8e:	69ba      	ldr	r2, [r7, #24]
     a90:	430a      	orrs	r2, r1
     a92:	491b      	ldr	r1, [pc, #108]	; (b00 <std_header_set+0x98>)
     a94:	3302      	adds	r3, #2
     a96:	009b      	lsls	r3, r3, #2
     a98:	440b      	add	r3, r1
     a9a:	605a      	str	r2, [r3, #4]
     a9c:	683a      	ldr	r2, [r7, #0]
     a9e:	6abb      	ldr	r3, [r7, #40]	; 0x28
     aa0:	4013      	ands	r3, r2
     aa2:	3302      	adds	r3, #2
     aa4:	009b      	lsls	r3, r3, #2
     aa6:	4a16      	ldr	r2, [pc, #88]	; (b00 <std_header_set+0x98>)
     aa8:	4413      	add	r3, r2
     aaa:	3304      	adds	r3, #4
     aac:	617b      	str	r3, [r7, #20]
     aae:	68fb      	ldr	r3, [r7, #12]
     ab0:	f003 0307 	and.w	r3, r3, #7
     ab4:	b2d9      	uxtb	r1, r3
     ab6:	697a      	ldr	r2, [r7, #20]
     ab8:	7813      	ldrb	r3, [r2, #0]
     aba:	f361 03c5 	bfi	r3, r1, #3, #3
     abe:	7013      	strb	r3, [r2, #0]
     ac0:	687b      	ldr	r3, [r7, #4]
     ac2:	f003 030f 	and.w	r3, r3, #15
     ac6:	b2d9      	uxtb	r1, r3
     ac8:	697a      	ldr	r2, [r7, #20]
     aca:	8813      	ldrh	r3, [r2, #0]
     acc:	f361 1389 	bfi	r3, r1, #6, #4
     ad0:	8013      	strh	r3, [r2, #0]
     ad2:	68bb      	ldr	r3, [r7, #8]
     ad4:	f3c3 0115 	ubfx	r1, r3, #0, #22
     ad8:	697a      	ldr	r2, [r7, #20]
     ada:	6813      	ldr	r3, [r2, #0]
     adc:	f361 239f 	bfi	r3, r1, #10, #22
     ae0:	6013      	str	r3, [r2, #0]
     ae2:	697a      	ldr	r2, [r7, #20]
     ae4:	7813      	ldrb	r3, [r2, #0]
     ae6:	2101      	movs	r1, #1
     ae8:	f361 0301 	bfi	r3, r1, #0, #2
     aec:	7013      	strb	r3, [r2, #0]
     aee:	697a      	ldr	r2, [r7, #20]
     af0:	7813      	ldrb	r3, [r2, #0]
     af2:	f36f 0382 	bfc	r3, #2, #1
     af6:	7013      	strb	r3, [r2, #0]
     af8:	bf00      	nop
     afa:	3720      	adds	r7, #32
     afc:	46bd      	mov	sp, r7
     afe:	bd80      	pop	{r7, pc}
     b00:	20000230 	.word	0x20000230

00000b04 <buf_prealloc>:
     b04:	b580      	push	{r7, lr}
     b06:	b08a      	sub	sp, #40	; 0x28
     b08:	af00      	add	r7, sp, #0
     b0a:	60f8      	str	r0, [r7, #12]
     b0c:	60b9      	str	r1, [r7, #8]
     b0e:	4613      	mov	r3, r2
     b10:	71fb      	strb	r3, [r7, #7]
     b12:	68fb      	ldr	r3, [r7, #12]
     b14:	3302      	adds	r3, #2
     b16:	623b      	str	r3, [r7, #32]
     b18:	2301      	movs	r3, #1
     b1a:	77fb      	strb	r3, [r7, #31]
     b1c:	2000      	movs	r0, #0
     b1e:	f000 fd73 	bl	1608 <app_util_critical_region_enter>
     b22:	4b37      	ldr	r3, [pc, #220]	; (c00 <buf_prealloc+0xfc>)
     b24:	685a      	ldr	r2, [r3, #4]
     b26:	68bb      	ldr	r3, [r7, #8]
     b28:	601a      	str	r2, [r3, #0]
     b2a:	4b36      	ldr	r3, [pc, #216]	; (c04 <buf_prealloc+0x100>)
     b2c:	681a      	ldr	r2, [r3, #0]
     b2e:	4b34      	ldr	r3, [pc, #208]	; (c00 <buf_prealloc+0xfc>)
     b30:	6899      	ldr	r1, [r3, #8]
     b32:	4b33      	ldr	r3, [pc, #204]	; (c00 <buf_prealloc+0xfc>)
     b34:	685b      	ldr	r3, [r3, #4]
     b36:	1acb      	subs	r3, r1, r3
     b38:	4413      	add	r3, r2
     b3a:	3301      	adds	r3, #1
     b3c:	627b      	str	r3, [r7, #36]	; 0x24
     b3e:	e014      	b.n	b6a <buf_prealloc+0x66>
     b40:	2101      	movs	r1, #1
     b42:	4831      	ldr	r0, [pc, #196]	; (c08 <buf_prealloc+0x104>)
     b44:	f000 fdbf 	bl	16c6 <nrf_atomic_u32_add>
     b48:	f7ff fefa 	bl	940 <log_skip>
     b4c:	6178      	str	r0, [r7, #20]
     b4e:	6979      	ldr	r1, [r7, #20]
     b50:	482d      	ldr	r0, [pc, #180]	; (c08 <buf_prealloc+0x104>)
     b52:	f000 fdb8 	bl	16c6 <nrf_atomic_u32_add>
     b56:	4b2b      	ldr	r3, [pc, #172]	; (c04 <buf_prealloc+0x100>)
     b58:	681a      	ldr	r2, [r3, #0]
     b5a:	4b29      	ldr	r3, [pc, #164]	; (c00 <buf_prealloc+0xfc>)
     b5c:	6899      	ldr	r1, [r3, #8]
     b5e:	4b28      	ldr	r3, [pc, #160]	; (c00 <buf_prealloc+0xfc>)
     b60:	685b      	ldr	r3, [r3, #4]
     b62:	1acb      	subs	r3, r1, r3
     b64:	4413      	add	r3, r2
     b66:	3301      	adds	r3, #1
     b68:	627b      	str	r3, [r7, #36]	; 0x24
     b6a:	6a3a      	ldr	r2, [r7, #32]
     b6c:	6a7b      	ldr	r3, [r7, #36]	; 0x24
     b6e:	429a      	cmp	r2, r3
     b70:	d8e6      	bhi.n	b40 <buf_prealloc+0x3c>
     b72:	7ffb      	ldrb	r3, [r7, #31]
     b74:	2b00      	cmp	r3, #0
     b76:	d03b      	beq.n	bf0 <buf_prealloc+0xec>
     b78:	2300      	movs	r3, #0
     b7a:	613b      	str	r3, [r7, #16]
     b7c:	79fb      	ldrb	r3, [r7, #7]
     b7e:	2b00      	cmp	r3, #0
     b80:	d011      	beq.n	ba6 <buf_prealloc+0xa2>
     b82:	7c3b      	ldrb	r3, [r7, #16]
     b84:	2201      	movs	r2, #1
     b86:	f362 0301 	bfi	r3, r2, #0, #2
     b8a:	743b      	strb	r3, [r7, #16]
     b8c:	7c3b      	ldrb	r3, [r7, #16]
     b8e:	f043 0304 	orr.w	r3, r3, #4
     b92:	743b      	strb	r3, [r7, #16]
     b94:	68fb      	ldr	r3, [r7, #12]
     b96:	f003 030f 	and.w	r3, r3, #15
     b9a:	b2da      	uxtb	r2, r3
     b9c:	8a3b      	ldrh	r3, [r7, #16]
     b9e:	f362 1389 	bfi	r3, r2, #6, #4
     ba2:	823b      	strh	r3, [r7, #16]
     ba4:	e010      	b.n	bc8 <buf_prealloc+0xc4>
     ba6:	7c3b      	ldrb	r3, [r7, #16]
     ba8:	2202      	movs	r2, #2
     baa:	f362 0301 	bfi	r3, r2, #0, #2
     bae:	743b      	strb	r3, [r7, #16]
     bb0:	7c3b      	ldrb	r3, [r7, #16]
     bb2:	f043 0304 	orr.w	r3, r3, #4
     bb6:	743b      	strb	r3, [r7, #16]
     bb8:	68fb      	ldr	r3, [r7, #12]
     bba:	f3c3 0309 	ubfx	r3, r3, #0, #10
     bbe:	b29a      	uxth	r2, r3
     bc0:	8a7b      	ldrh	r3, [r7, #18]
     bc2:	f362 138f 	bfi	r3, r2, #6, #10
     bc6:	827b      	strh	r3, [r7, #18]
     bc8:	4b0d      	ldr	r3, [pc, #52]	; (c00 <buf_prealloc+0xfc>)
     bca:	685a      	ldr	r2, [r3, #4]
     bcc:	4b0d      	ldr	r3, [pc, #52]	; (c04 <buf_prealloc+0x100>)
     bce:	681b      	ldr	r3, [r3, #0]
     bd0:	4013      	ands	r3, r2
     bd2:	3302      	adds	r3, #2
     bd4:	009b      	lsls	r3, r3, #2
     bd6:	4a0a      	ldr	r2, [pc, #40]	; (c00 <buf_prealloc+0xfc>)
     bd8:	4413      	add	r3, r2
     bda:	3304      	adds	r3, #4
     bdc:	61bb      	str	r3, [r7, #24]
     bde:	693a      	ldr	r2, [r7, #16]
     be0:	69bb      	ldr	r3, [r7, #24]
     be2:	601a      	str	r2, [r3, #0]
     be4:	4b06      	ldr	r3, [pc, #24]	; (c00 <buf_prealloc+0xfc>)
     be6:	685a      	ldr	r2, [r3, #4]
     be8:	6a3b      	ldr	r3, [r7, #32]
     bea:	4413      	add	r3, r2
     bec:	4a04      	ldr	r2, [pc, #16]	; (c00 <buf_prealloc+0xfc>)
     bee:	6053      	str	r3, [r2, #4]
     bf0:	2000      	movs	r0, #0
     bf2:	f000 fd13 	bl	161c <app_util_critical_region_exit>
     bf6:	7ffb      	ldrb	r3, [r7, #31]
     bf8:	4618      	mov	r0, r3
     bfa:	3728      	adds	r7, #40	; 0x28
     bfc:	46bd      	mov	sp, r7
     bfe:	bd80      	pop	{r7, pc}
     c00:	20000230 	.word	0x20000230
     c04:	2000001c 	.word	0x2000001c
     c08:	2000064c 	.word	0x2000064c

00000c0c <std_n>:
     c0c:	b580      	push	{r7, lr}
     c0e:	b08a      	sub	sp, #40	; 0x28
     c10:	af02      	add	r7, sp, #8
     c12:	60f8      	str	r0, [r7, #12]
     c14:	60b9      	str	r1, [r7, #8]
     c16:	607a      	str	r2, [r7, #4]
     c18:	603b      	str	r3, [r7, #0]
     c1a:	4b1f      	ldr	r3, [pc, #124]	; (c98 <std_n+0x8c>)
     c1c:	681b      	ldr	r3, [r3, #0]
     c1e:	617b      	str	r3, [r7, #20]
     c20:	f107 0310 	add.w	r3, r7, #16
     c24:	2201      	movs	r2, #1
     c26:	4619      	mov	r1, r3
     c28:	6838      	ldr	r0, [r7, #0]
     c2a:	f7ff ff6b 	bl	b04 <buf_prealloc>
     c2e:	4603      	mov	r3, r0
     c30:	2b00      	cmp	r3, #0
     c32:	d024      	beq.n	c7e <std_n+0x72>
     c34:	693b      	ldr	r3, [r7, #16]
     c36:	3302      	adds	r3, #2
     c38:	61fb      	str	r3, [r7, #28]
     c3a:	2300      	movs	r3, #0
     c3c:	61bb      	str	r3, [r7, #24]
     c3e:	e011      	b.n	c64 <std_n+0x58>
     c40:	69bb      	ldr	r3, [r7, #24]
     c42:	009b      	lsls	r3, r3, #2
     c44:	687a      	ldr	r2, [r7, #4]
     c46:	441a      	add	r2, r3
     c48:	69fb      	ldr	r3, [r7, #28]
     c4a:	1c59      	adds	r1, r3, #1
     c4c:	61f9      	str	r1, [r7, #28]
     c4e:	6979      	ldr	r1, [r7, #20]
     c50:	400b      	ands	r3, r1
     c52:	6812      	ldr	r2, [r2, #0]
     c54:	4911      	ldr	r1, [pc, #68]	; (c9c <std_n+0x90>)
     c56:	3302      	adds	r3, #2
     c58:	009b      	lsls	r3, r3, #2
     c5a:	440b      	add	r3, r1
     c5c:	605a      	str	r2, [r3, #4]
     c5e:	69bb      	ldr	r3, [r7, #24]
     c60:	3301      	adds	r3, #1
     c62:	61bb      	str	r3, [r7, #24]
     c64:	69ba      	ldr	r2, [r7, #24]
     c66:	683b      	ldr	r3, [r7, #0]
     c68:	429a      	cmp	r2, r3
     c6a:	d3e9      	bcc.n	c40 <std_n+0x34>
     c6c:	693a      	ldr	r2, [r7, #16]
     c6e:	697b      	ldr	r3, [r7, #20]
     c70:	9300      	str	r3, [sp, #0]
     c72:	4613      	mov	r3, r2
     c74:	683a      	ldr	r2, [r7, #0]
     c76:	68b9      	ldr	r1, [r7, #8]
     c78:	68f8      	ldr	r0, [r7, #12]
     c7a:	f7ff fef5 	bl	a68 <std_header_set>
     c7e:	4b07      	ldr	r3, [pc, #28]	; (c9c <std_n+0x90>)
     c80:	781b      	ldrb	r3, [r3, #0]
     c82:	2b00      	cmp	r3, #0
     c84:	d004      	beq.n	c90 <std_n+0x84>
     c86:	f000 f83f 	bl	d08 <nrf_log_frontend_dequeue>
     c8a:	4603      	mov	r3, r0
     c8c:	2b00      	cmp	r3, #0
     c8e:	d1fa      	bne.n	c86 <std_n+0x7a>
     c90:	bf00      	nop
     c92:	3720      	adds	r7, #32
     c94:	46bd      	mov	sp, r7
     c96:	bd80      	pop	{r7, pc}
     c98:	2000001c 	.word	0x2000001c
     c9c:	20000230 	.word	0x20000230

00000ca0 <nrf_log_frontend_std_0>:
     ca0:	b580      	push	{r7, lr}
     ca2:	b082      	sub	sp, #8
     ca4:	af00      	add	r7, sp, #0
     ca6:	6078      	str	r0, [r7, #4]
     ca8:	6039      	str	r1, [r7, #0]
     caa:	2300      	movs	r3, #0
     cac:	2200      	movs	r2, #0
     cae:	6839      	ldr	r1, [r7, #0]
     cb0:	6878      	ldr	r0, [r7, #4]
     cb2:	f7ff ffab 	bl	c0c <std_n>
     cb6:	bf00      	nop
     cb8:	3708      	adds	r7, #8
     cba:	46bd      	mov	sp, r7
     cbc:	bd80      	pop	{r7, pc}

00000cbe <nrf_log_frontend_std_1>:
     cbe:	b580      	push	{r7, lr}
     cc0:	b086      	sub	sp, #24
     cc2:	af00      	add	r7, sp, #0
     cc4:	60f8      	str	r0, [r7, #12]
     cc6:	60b9      	str	r1, [r7, #8]
     cc8:	607a      	str	r2, [r7, #4]
     cca:	687b      	ldr	r3, [r7, #4]
     ccc:	617b      	str	r3, [r7, #20]
     cce:	f107 0214 	add.w	r2, r7, #20
     cd2:	2301      	movs	r3, #1
     cd4:	68b9      	ldr	r1, [r7, #8]
     cd6:	68f8      	ldr	r0, [r7, #12]
     cd8:	f7ff ff98 	bl	c0c <std_n>
     cdc:	bf00      	nop
     cde:	3718      	adds	r7, #24
     ce0:	46bd      	mov	sp, r7
     ce2:	bd80      	pop	{r7, pc}

00000ce4 <buffer_is_empty>:
     ce4:	b480      	push	{r7}
     ce6:	af00      	add	r7, sp, #0
     ce8:	4b06      	ldr	r3, [pc, #24]	; (d04 <buffer_is_empty+0x20>)
     cea:	689a      	ldr	r2, [r3, #8]
     cec:	4b05      	ldr	r3, [pc, #20]	; (d04 <buffer_is_empty+0x20>)
     cee:	685b      	ldr	r3, [r3, #4]
     cf0:	429a      	cmp	r2, r3
     cf2:	bf0c      	ite	eq
     cf4:	2301      	moveq	r3, #1
     cf6:	2300      	movne	r3, #0
     cf8:	b2db      	uxtb	r3, r3
     cfa:	4618      	mov	r0, r3
     cfc:	46bd      	mov	sp, r7
     cfe:	f85d 7b04 	ldr.w	r7, [sp], #4
     d02:	4770      	bx	lr
     d04:	20000230 	.word	0x20000230

00000d08 <nrf_log_frontend_dequeue>:
     d08:	b580      	push	{r7, lr}
     d0a:	b098      	sub	sp, #96	; 0x60
     d0c:	af00      	add	r7, sp, #0
     d0e:	f7ff ffe9 	bl	ce4 <buffer_is_empty>
     d12:	4603      	mov	r3, r0
     d14:	2b00      	cmp	r3, #0
     d16:	d001      	beq.n	d1c <nrf_log_frontend_dequeue+0x14>
     d18:	2300      	movs	r3, #0
     d1a:	e1a7      	b.n	106c <nrf_log_frontend_dequeue+0x364>
     d1c:	4b92      	ldr	r3, [pc, #584]	; (f68 <nrf_log_frontend_dequeue+0x260>)
     d1e:	2200      	movs	r2, #0
     d20:	f8c3 2418 	str.w	r2, [r3, #1048]	; 0x418
     d24:	f3bf 8f4f 	dsb	sy
     d28:	bf00      	nop
     d2a:	4b8f      	ldr	r3, [pc, #572]	; (f68 <nrf_log_frontend_dequeue+0x260>)
     d2c:	689b      	ldr	r3, [r3, #8]
     d2e:	613b      	str	r3, [r7, #16]
     d30:	4b8e      	ldr	r3, [pc, #568]	; (f6c <nrf_log_frontend_dequeue+0x264>)
     d32:	681b      	ldr	r3, [r3, #0]
     d34:	643b      	str	r3, [r7, #64]	; 0x40
     d36:	693a      	ldr	r2, [r7, #16]
     d38:	6c3b      	ldr	r3, [r7, #64]	; 0x40
     d3a:	4013      	ands	r3, r2
     d3c:	3302      	adds	r3, #2
     d3e:	009b      	lsls	r3, r3, #2
     d40:	4a89      	ldr	r2, [pc, #548]	; (f68 <nrf_log_frontend_dequeue+0x260>)
     d42:	4413      	add	r3, r2
     d44:	3304      	adds	r3, #4
     d46:	647b      	str	r3, [r7, #68]	; 0x44
     d48:	2300      	movs	r3, #0
     d4a:	65fb      	str	r3, [r7, #92]	; 0x5c
     d4c:	2300      	movs	r3, #0
     d4e:	65bb      	str	r3, [r7, #88]	; 0x58
     d50:	2300      	movs	r3, #0
     d52:	63fb      	str	r3, [r7, #60]	; 0x3c
     d54:	f107 0310 	add.w	r3, r7, #16
     d58:	4619      	mov	r1, r3
     d5a:	6c78      	ldr	r0, [r7, #68]	; 0x44
     d5c:	f7ff fdb6 	bl	8cc <invalid_packets_omit>
     d60:	4603      	mov	r3, r0
     d62:	2b00      	cmp	r3, #0
     d64:	d019      	beq.n	d9a <nrf_log_frontend_dequeue+0x92>
     d66:	4b80      	ldr	r3, [pc, #512]	; (f68 <nrf_log_frontend_dequeue+0x260>)
     d68:	f8d3 3418 	ldr.w	r3, [r3, #1048]	; 0x418
     d6c:	2b00      	cmp	r3, #0
     d6e:	d114      	bne.n	d9a <nrf_log_frontend_dequeue+0x92>
     d70:	4b7d      	ldr	r3, [pc, #500]	; (f68 <nrf_log_frontend_dequeue+0x260>)
     d72:	685a      	ldr	r2, [r3, #4]
     d74:	693b      	ldr	r3, [r7, #16]
     d76:	429a      	cmp	r2, r3
     d78:	d805      	bhi.n	d86 <nrf_log_frontend_dequeue+0x7e>
     d7a:	4b7b      	ldr	r3, [pc, #492]	; (f68 <nrf_log_frontend_dequeue+0x260>)
     d7c:	685b      	ldr	r3, [r3, #4]
     d7e:	4a7a      	ldr	r2, [pc, #488]	; (f68 <nrf_log_frontend_dequeue+0x260>)
     d80:	6093      	str	r3, [r2, #8]
     d82:	2300      	movs	r3, #0
     d84:	e172      	b.n	106c <nrf_log_frontend_dequeue+0x364>
     d86:	693a      	ldr	r2, [r7, #16]
     d88:	6c3b      	ldr	r3, [r7, #64]	; 0x40
     d8a:	4013      	ands	r3, r2
     d8c:	3302      	adds	r3, #2
     d8e:	009b      	lsls	r3, r3, #2
     d90:	4a75      	ldr	r2, [pc, #468]	; (f68 <nrf_log_frontend_dequeue+0x260>)
     d92:	4413      	add	r3, r2
     d94:	3304      	adds	r3, #4
     d96:	647b      	str	r3, [r7, #68]	; 0x44
     d98:	e7dc      	b.n	d54 <nrf_log_frontend_dequeue+0x4c>
     d9a:	2300      	movs	r3, #0
     d9c:	657b      	str	r3, [r7, #84]	; 0x54
     d9e:	e011      	b.n	dc4 <nrf_log_frontend_dequeue+0xbc>
     da0:	693b      	ldr	r3, [r7, #16]
     da2:	1c5a      	adds	r2, r3, #1
     da4:	613a      	str	r2, [r7, #16]
     da6:	6c3a      	ldr	r2, [r7, #64]	; 0x40
     da8:	4013      	ands	r3, r2
     daa:	6d7a      	ldr	r2, [r7, #84]	; 0x54
     dac:	0092      	lsls	r2, r2, #2
     dae:	1d39      	adds	r1, r7, #4
     db0:	440a      	add	r2, r1
     db2:	496d      	ldr	r1, [pc, #436]	; (f68 <nrf_log_frontend_dequeue+0x260>)
     db4:	3302      	adds	r3, #2
     db6:	009b      	lsls	r3, r3, #2
     db8:	440b      	add	r3, r1
     dba:	685b      	ldr	r3, [r3, #4]
     dbc:	6013      	str	r3, [r2, #0]
     dbe:	6d7b      	ldr	r3, [r7, #84]	; 0x54
     dc0:	3301      	adds	r3, #1
     dc2:	657b      	str	r3, [r7, #84]	; 0x54
     dc4:	6d7b      	ldr	r3, [r7, #84]	; 0x54
     dc6:	2b01      	cmp	r3, #1
     dc8:	d9ea      	bls.n	da0 <nrf_log_frontend_dequeue+0x98>
     dca:	793b      	ldrb	r3, [r7, #4]
     dcc:	f003 0303 	and.w	r3, r3, #3
     dd0:	b2db      	uxtb	r3, r3
     dd2:	2b02      	cmp	r3, #2
     dd4:	f040 8092 	bne.w	efc <nrf_log_frontend_dequeue+0x1f4>
     dd8:	88fb      	ldrh	r3, [r7, #6]
     dda:	f3c3 1389 	ubfx	r3, r3, #6, #10
     dde:	b29b      	uxth	r3, r3
     de0:	637b      	str	r3, [r7, #52]	; 0x34
     de2:	88fb      	ldrh	r3, [r7, #6]
     de4:	f3c3 1389 	ubfx	r3, r3, #6, #10
     de8:	b29b      	uxth	r3, r3
     dea:	2b50      	cmp	r3, #80	; 0x50
     dec:	bf28      	it	cs
     dee:	2350      	movcs	r3, #80	; 0x50
     df0:	b29b      	uxth	r3, r3
     df2:	633b      	str	r3, [r7, #48]	; 0x30
     df4:	6b3b      	ldr	r3, [r7, #48]	; 0x30
     df6:	f3c3 0309 	ubfx	r3, r3, #0, #10
     dfa:	b29a      	uxth	r2, r3
     dfc:	88fb      	ldrh	r3, [r7, #6]
     dfe:	f362 138f 	bfi	r3, r2, #6, #10
     e02:	80fb      	strh	r3, [r7, #6]
     e04:	6b3b      	ldr	r3, [r7, #48]	; 0x30
     e06:	3308      	adds	r3, #8
     e08:	62fb      	str	r3, [r7, #44]	; 0x2c
     e0a:	793b      	ldrb	r3, [r7, #4]
     e0c:	f3c3 03c2 	ubfx	r3, r3, #3, #3
     e10:	b2db      	uxtb	r3, r3
     e12:	63fb      	str	r3, [r7, #60]	; 0x3c
     e14:	6af9      	ldr	r1, [r7, #44]	; 0x2c
     e16:	4856      	ldr	r0, [pc, #344]	; (f70 <nrf_log_frontend_dequeue+0x268>)
     e18:	f001 f8ca 	bl	1fb0 <nrf_memobj_alloc>
     e1c:	65f8      	str	r0, [r7, #92]	; 0x5c
     e1e:	6dfb      	ldr	r3, [r7, #92]	; 0x5c
     e20:	2b00      	cmp	r3, #0
     e22:	f000 80c6 	beq.w	fb2 <nrf_log_frontend_dequeue+0x2aa>
     e26:	6df8      	ldr	r0, [r7, #92]	; 0x5c
     e28:	f001 f950 	bl	20cc <nrf_memobj_get>
     e2c:	1d39      	adds	r1, r7, #4
     e2e:	6dbb      	ldr	r3, [r7, #88]	; 0x58
     e30:	2208      	movs	r2, #8
     e32:	6df8      	ldr	r0, [r7, #92]	; 0x5c
     e34:	f001 f9f8 	bl	2228 <nrf_memobj_write>
     e38:	6dbb      	ldr	r3, [r7, #88]	; 0x58
     e3a:	3308      	adds	r3, #8
     e3c:	65bb      	str	r3, [r7, #88]	; 0x58
     e3e:	693b      	ldr	r3, [r7, #16]
     e40:	43da      	mvns	r2, r3
     e42:	6c3b      	ldr	r3, [r7, #64]	; 0x40
     e44:	4013      	ands	r3, r2
     e46:	3301      	adds	r3, #1
     e48:	009b      	lsls	r3, r3, #2
     e4a:	62bb      	str	r3, [r7, #40]	; 0x28
     e4c:	6b3a      	ldr	r2, [r7, #48]	; 0x30
     e4e:	6abb      	ldr	r3, [r7, #40]	; 0x28
     e50:	429a      	cmp	r2, r3
     e52:	d93d      	bls.n	ed0 <nrf_log_frontend_dequeue+0x1c8>
     e54:	6abb      	ldr	r3, [r7, #40]	; 0x28
     e56:	2b00      	cmp	r3, #0
     e58:	d008      	beq.n	e6c <nrf_log_frontend_dequeue+0x164>
     e5a:	693a      	ldr	r2, [r7, #16]
     e5c:	6c3b      	ldr	r3, [r7, #64]	; 0x40
     e5e:	4013      	ands	r3, r2
     e60:	3302      	adds	r3, #2
     e62:	009b      	lsls	r3, r3, #2
     e64:	4a40      	ldr	r2, [pc, #256]	; (f68 <nrf_log_frontend_dequeue+0x260>)
     e66:	4413      	add	r3, r2
     e68:	3304      	adds	r3, #4
     e6a:	e000      	b.n	e6e <nrf_log_frontend_dequeue+0x166>
     e6c:	4b41      	ldr	r3, [pc, #260]	; (f74 <nrf_log_frontend_dequeue+0x26c>)
     e6e:	623b      	str	r3, [r7, #32]
     e70:	6abb      	ldr	r3, [r7, #40]	; 0x28
     e72:	2b00      	cmp	r3, #0
     e74:	d002      	beq.n	e7c <nrf_log_frontend_dequeue+0x174>
     e76:	6abb      	ldr	r3, [r7, #40]	; 0x28
     e78:	b2db      	uxtb	r3, r3
     e7a:	e001      	b.n	e80 <nrf_log_frontend_dequeue+0x178>
     e7c:	6b3b      	ldr	r3, [r7, #48]	; 0x30
     e7e:	b2db      	uxtb	r3, r3
     e80:	77fb      	strb	r3, [r7, #31]
     e82:	6abb      	ldr	r3, [r7, #40]	; 0x28
     e84:	2b00      	cmp	r3, #0
     e86:	d001      	beq.n	e8c <nrf_log_frontend_dequeue+0x184>
     e88:	4b3a      	ldr	r3, [pc, #232]	; (f74 <nrf_log_frontend_dequeue+0x26c>)
     e8a:	e000      	b.n	e8e <nrf_log_frontend_dequeue+0x186>
     e8c:	2300      	movs	r3, #0
     e8e:	61bb      	str	r3, [r7, #24]
     e90:	6abb      	ldr	r3, [r7, #40]	; 0x28
     e92:	2b00      	cmp	r3, #0
     e94:	d006      	beq.n	ea4 <nrf_log_frontend_dequeue+0x19c>
     e96:	6b3b      	ldr	r3, [r7, #48]	; 0x30
     e98:	b2da      	uxtb	r2, r3
     e9a:	6abb      	ldr	r3, [r7, #40]	; 0x28
     e9c:	b2db      	uxtb	r3, r3
     e9e:	1ad3      	subs	r3, r2, r3
     ea0:	b2db      	uxtb	r3, r3
     ea2:	e000      	b.n	ea6 <nrf_log_frontend_dequeue+0x19e>
     ea4:	2300      	movs	r3, #0
     ea6:	75fb      	strb	r3, [r7, #23]
     ea8:	7ffa      	ldrb	r2, [r7, #31]
     eaa:	6dbb      	ldr	r3, [r7, #88]	; 0x58
     eac:	6a39      	ldr	r1, [r7, #32]
     eae:	6df8      	ldr	r0, [r7, #92]	; 0x5c
     eb0:	f001 f9ba 	bl	2228 <nrf_memobj_write>
     eb4:	7ffb      	ldrb	r3, [r7, #31]
     eb6:	6dba      	ldr	r2, [r7, #88]	; 0x58
     eb8:	4413      	add	r3, r2
     eba:	65bb      	str	r3, [r7, #88]	; 0x58
     ebc:	69bb      	ldr	r3, [r7, #24]
     ebe:	2b00      	cmp	r3, #0
     ec0:	d015      	beq.n	eee <nrf_log_frontend_dequeue+0x1e6>
     ec2:	7dfa      	ldrb	r2, [r7, #23]
     ec4:	6dbb      	ldr	r3, [r7, #88]	; 0x58
     ec6:	69b9      	ldr	r1, [r7, #24]
     ec8:	6df8      	ldr	r0, [r7, #92]	; 0x5c
     eca:	f001 f9ad 	bl	2228 <nrf_memobj_write>
     ece:	e00e      	b.n	eee <nrf_log_frontend_dequeue+0x1e6>
     ed0:	693a      	ldr	r2, [r7, #16]
     ed2:	6c3b      	ldr	r3, [r7, #64]	; 0x40
     ed4:	4013      	ands	r3, r2
     ed6:	3302      	adds	r3, #2
     ed8:	009b      	lsls	r3, r3, #2
     eda:	4a23      	ldr	r2, [pc, #140]	; (f68 <nrf_log_frontend_dequeue+0x260>)
     edc:	4413      	add	r3, r2
     ede:	3304      	adds	r3, #4
     ee0:	627b      	str	r3, [r7, #36]	; 0x24
     ee2:	6dbb      	ldr	r3, [r7, #88]	; 0x58
     ee4:	6b3a      	ldr	r2, [r7, #48]	; 0x30
     ee6:	6a79      	ldr	r1, [r7, #36]	; 0x24
     ee8:	6df8      	ldr	r0, [r7, #92]	; 0x5c
     eea:	f001 f99d 	bl	2228 <nrf_memobj_write>
     eee:	6b7b      	ldr	r3, [r7, #52]	; 0x34
     ef0:	3303      	adds	r3, #3
     ef2:	089a      	lsrs	r2, r3, #2
     ef4:	693b      	ldr	r3, [r7, #16]
     ef6:	4413      	add	r3, r2
     ef8:	613b      	str	r3, [r7, #16]
     efa:	e05a      	b.n	fb2 <nrf_log_frontend_dequeue+0x2aa>
     efc:	793b      	ldrb	r3, [r7, #4]
     efe:	f003 0303 	and.w	r3, r3, #3
     f02:	b2db      	uxtb	r3, r3
     f04:	2b01      	cmp	r3, #1
     f06:	d154      	bne.n	fb2 <nrf_log_frontend_dequeue+0x2aa>
     f08:	88bb      	ldrh	r3, [r7, #4]
     f0a:	f3c3 1383 	ubfx	r3, r3, #6, #4
     f0e:	b2db      	uxtb	r3, r3
     f10:	2b06      	cmp	r3, #6
     f12:	bf28      	it	cs
     f14:	2306      	movcs	r3, #6
     f16:	b2da      	uxtb	r2, r3
     f18:	88bb      	ldrh	r3, [r7, #4]
     f1a:	f362 1389 	bfi	r3, r2, #6, #4
     f1e:	80bb      	strh	r3, [r7, #4]
     f20:	88bb      	ldrh	r3, [r7, #4]
     f22:	f3c3 1383 	ubfx	r3, r3, #6, #4
     f26:	b2db      	uxtb	r3, r3
     f28:	3302      	adds	r3, #2
     f2a:	63bb      	str	r3, [r7, #56]	; 0x38
     f2c:	793b      	ldrb	r3, [r7, #4]
     f2e:	f3c3 03c2 	ubfx	r3, r3, #3, #3
     f32:	b2db      	uxtb	r3, r3
     f34:	63fb      	str	r3, [r7, #60]	; 0x3c
     f36:	6bbb      	ldr	r3, [r7, #56]	; 0x38
     f38:	009b      	lsls	r3, r3, #2
     f3a:	4619      	mov	r1, r3
     f3c:	480c      	ldr	r0, [pc, #48]	; (f70 <nrf_log_frontend_dequeue+0x268>)
     f3e:	f001 f837 	bl	1fb0 <nrf_memobj_alloc>
     f42:	65f8      	str	r0, [r7, #92]	; 0x5c
     f44:	6dfb      	ldr	r3, [r7, #92]	; 0x5c
     f46:	2b00      	cmp	r3, #0
     f48:	d033      	beq.n	fb2 <nrf_log_frontend_dequeue+0x2aa>
     f4a:	6df8      	ldr	r0, [r7, #92]	; 0x5c
     f4c:	f001 f8be 	bl	20cc <nrf_memobj_get>
     f50:	1d39      	adds	r1, r7, #4
     f52:	6dbb      	ldr	r3, [r7, #88]	; 0x58
     f54:	2208      	movs	r2, #8
     f56:	6df8      	ldr	r0, [r7, #92]	; 0x5c
     f58:	f001 f966 	bl	2228 <nrf_memobj_write>
     f5c:	6dbb      	ldr	r3, [r7, #88]	; 0x58
     f5e:	3308      	adds	r3, #8
     f60:	65bb      	str	r3, [r7, #88]	; 0x58
     f62:	2300      	movs	r3, #0
     f64:	657b      	str	r3, [r7, #84]	; 0x54
     f66:	e01c      	b.n	fa2 <nrf_log_frontend_dequeue+0x29a>
     f68:	20000230 	.word	0x20000230
     f6c:	2000001c 	.word	0x2000001c
     f70:	00006094 	.word	0x00006094
     f74:	2000023c 	.word	0x2000023c
     f78:	693b      	ldr	r3, [r7, #16]
     f7a:	1c5a      	adds	r2, r3, #1
     f7c:	613a      	str	r2, [r7, #16]
     f7e:	6c3a      	ldr	r2, [r7, #64]	; 0x40
     f80:	4013      	ands	r3, r2
     f82:	3302      	adds	r3, #2
     f84:	009b      	lsls	r3, r3, #2
     f86:	4a3b      	ldr	r2, [pc, #236]	; (1074 <nrf_log_frontend_dequeue+0x36c>)
     f88:	4413      	add	r3, r2
     f8a:	1d19      	adds	r1, r3, #4
     f8c:	6dbb      	ldr	r3, [r7, #88]	; 0x58
     f8e:	2204      	movs	r2, #4
     f90:	6df8      	ldr	r0, [r7, #92]	; 0x5c
     f92:	f001 f949 	bl	2228 <nrf_memobj_write>
     f96:	6dbb      	ldr	r3, [r7, #88]	; 0x58
     f98:	3304      	adds	r3, #4
     f9a:	65bb      	str	r3, [r7, #88]	; 0x58
     f9c:	6d7b      	ldr	r3, [r7, #84]	; 0x54
     f9e:	3301      	adds	r3, #1
     fa0:	657b      	str	r3, [r7, #84]	; 0x54
     fa2:	88bb      	ldrh	r3, [r7, #4]
     fa4:	f3c3 1383 	ubfx	r3, r3, #6, #4
     fa8:	b2db      	uxtb	r3, r3
     faa:	461a      	mov	r2, r3
     fac:	6d7b      	ldr	r3, [r7, #84]	; 0x54
     fae:	4293      	cmp	r3, r2
     fb0:	d3e2      	bcc.n	f78 <nrf_log_frontend_dequeue+0x270>
     fb2:	6dfb      	ldr	r3, [r7, #92]	; 0x5c
     fb4:	2b00      	cmp	r3, #0
     fb6:	d039      	beq.n	102c <nrf_log_frontend_dequeue+0x324>
     fb8:	4b2e      	ldr	r3, [pc, #184]	; (1074 <nrf_log_frontend_dequeue+0x36c>)
     fba:	f8d3 3410 	ldr.w	r3, [r3, #1040]	; 0x410
     fbe:	653b      	str	r3, [r7, #80]	; 0x50
     fc0:	4b2c      	ldr	r3, [pc, #176]	; (1074 <nrf_log_frontend_dequeue+0x36c>)
     fc2:	f8d3 3418 	ldr.w	r3, [r3, #1048]	; 0x418
     fc6:	2b00      	cmp	r3, #0
     fc8:	d01b      	beq.n	1002 <nrf_log_frontend_dequeue+0x2fa>
     fca:	6df8      	ldr	r0, [r7, #92]	; 0x5c
     fcc:	f001 f88e 	bl	20ec <nrf_memobj_put>
     fd0:	e046      	b.n	1060 <nrf_log_frontend_dequeue+0x358>
     fd2:	2300      	movs	r3, #0
     fd4:	f887 304f 	strb.w	r3, [r7, #79]	; 0x4f
     fd8:	6d38      	ldr	r0, [r7, #80]	; 0x50
     fda:	f7ff fbaf 	bl	73c <nrf_log_backend_is_enabled>
     fde:	4603      	mov	r3, r0
     fe0:	2b00      	cmp	r3, #0
     fe2:	d002      	beq.n	fea <nrf_log_frontend_dequeue+0x2e2>
     fe4:	2301      	movs	r3, #1
     fe6:	f887 304f 	strb.w	r3, [r7, #79]	; 0x4f
     fea:	f897 304f 	ldrb.w	r3, [r7, #79]	; 0x4f
     fee:	2b00      	cmp	r3, #0
     ff0:	d003      	beq.n	ffa <nrf_log_frontend_dequeue+0x2f2>
     ff2:	6df9      	ldr	r1, [r7, #92]	; 0x5c
     ff4:	6d38      	ldr	r0, [r7, #80]	; 0x50
     ff6:	f7ff fb4d 	bl	694 <nrf_log_backend_put>
     ffa:	6d3b      	ldr	r3, [r7, #80]	; 0x50
     ffc:	68db      	ldr	r3, [r3, #12]
     ffe:	681b      	ldr	r3, [r3, #0]
    1000:	653b      	str	r3, [r7, #80]	; 0x50
    1002:	6d3b      	ldr	r3, [r7, #80]	; 0x50
    1004:	2b00      	cmp	r3, #0
    1006:	d1e4      	bne.n	fd2 <nrf_log_frontend_dequeue+0x2ca>
    1008:	6df8      	ldr	r0, [r7, #92]	; 0x5c
    100a:	f001 f86f 	bl	20ec <nrf_memobj_put>
    100e:	2000      	movs	r0, #0
    1010:	f000 fafa 	bl	1608 <app_util_critical_region_enter>
    1014:	4b17      	ldr	r3, [pc, #92]	; (1074 <nrf_log_frontend_dequeue+0x36c>)
    1016:	f8d3 3418 	ldr.w	r3, [r3, #1048]	; 0x418
    101a:	2b00      	cmp	r3, #0
    101c:	d102      	bne.n	1024 <nrf_log_frontend_dequeue+0x31c>
    101e:	693b      	ldr	r3, [r7, #16]
    1020:	4a14      	ldr	r2, [pc, #80]	; (1074 <nrf_log_frontend_dequeue+0x36c>)
    1022:	6093      	str	r3, [r2, #8]
    1024:	2000      	movs	r0, #0
    1026:	f000 faf9 	bl	161c <app_util_critical_region_exit>
    102a:	e019      	b.n	1060 <nrf_log_frontend_dequeue+0x358>
    102c:	4b11      	ldr	r3, [pc, #68]	; (1074 <nrf_log_frontend_dequeue+0x36c>)
    102e:	f8d3 3410 	ldr.w	r3, [r3, #1040]	; 0x410
    1032:	64bb      	str	r3, [r7, #72]	; 0x48
    1034:	e006      	b.n	1044 <nrf_log_frontend_dequeue+0x33c>
    1036:	6cb8      	ldr	r0, [r7, #72]	; 0x48
    1038:	f7ff fb48 	bl	6cc <nrf_log_backend_flush>
    103c:	6cbb      	ldr	r3, [r7, #72]	; 0x48
    103e:	68db      	ldr	r3, [r3, #12]
    1040:	681b      	ldr	r3, [r3, #0]
    1042:	64bb      	str	r3, [r7, #72]	; 0x48
    1044:	6cbb      	ldr	r3, [r7, #72]	; 0x48
    1046:	2b00      	cmp	r3, #0
    1048:	d1f5      	bne.n	1036 <nrf_log_frontend_dequeue+0x32e>
    104a:	4a0b      	ldr	r2, [pc, #44]	; (1078 <nrf_log_frontend_dequeue+0x370>)
    104c:	4b0b      	ldr	r3, [pc, #44]	; (107c <nrf_log_frontend_dequeue+0x374>)
    104e:	1ad3      	subs	r3, r2, r3
    1050:	08db      	lsrs	r3, r3, #3
    1052:	041b      	lsls	r3, r3, #16
    1054:	f043 0302 	orr.w	r3, r3, #2
    1058:	4909      	ldr	r1, [pc, #36]	; (1080 <nrf_log_frontend_dequeue+0x378>)
    105a:	4618      	mov	r0, r3
    105c:	f7ff fe20 	bl	ca0 <nrf_log_frontend_std_0>
    1060:	f7ff fe40 	bl	ce4 <buffer_is_empty>
    1064:	4603      	mov	r3, r0
    1066:	f083 0301 	eor.w	r3, r3, #1
    106a:	b2db      	uxtb	r3, r3
    106c:	4618      	mov	r0, r3
    106e:	3760      	adds	r7, #96	; 0x60
    1070:	46bd      	mov	sp, r7
    1072:	bd80      	pop	{r7, pc}
    1074:	20000230 	.word	0x20000230
    1078:	0000607c 	.word	0x0000607c
    107c:	0000605c 	.word	0x0000605c
    1080:	00005dcc 	.word	0x00005dcc

00001084 <backend_id_assign>:
    1084:	b580      	push	{r7, lr}
    1086:	b084      	sub	sp, #16
    1088:	af00      	add	r7, sp, #0
    108a:	2300      	movs	r3, #0
    108c:	60fb      	str	r3, [r7, #12]
    108e:	e020      	b.n	10d2 <backend_id_assign+0x4e>
    1090:	4b14      	ldr	r3, [pc, #80]	; (10e4 <backend_id_assign+0x60>)
    1092:	f8d3 3410 	ldr.w	r3, [r3, #1040]	; 0x410
    1096:	60bb      	str	r3, [r7, #8]
    1098:	2301      	movs	r3, #1
    109a:	71fb      	strb	r3, [r7, #7]
    109c:	e00e      	b.n	10bc <backend_id_assign+0x38>
    109e:	68b8      	ldr	r0, [r7, #8]
    10a0:	f7ff fb31 	bl	706 <nrf_log_backend_id_get>
    10a4:	4603      	mov	r3, r0
    10a6:	461a      	mov	r2, r3
    10a8:	68fb      	ldr	r3, [r7, #12]
    10aa:	4293      	cmp	r3, r2
    10ac:	d102      	bne.n	10b4 <backend_id_assign+0x30>
    10ae:	2300      	movs	r3, #0
    10b0:	71fb      	strb	r3, [r7, #7]
    10b2:	e006      	b.n	10c2 <backend_id_assign+0x3e>
    10b4:	68bb      	ldr	r3, [r7, #8]
    10b6:	68db      	ldr	r3, [r3, #12]
    10b8:	681b      	ldr	r3, [r3, #0]
    10ba:	60bb      	str	r3, [r7, #8]
    10bc:	68bb      	ldr	r3, [r7, #8]
    10be:	2b00      	cmp	r3, #0
    10c0:	d1ed      	bne.n	109e <backend_id_assign+0x1a>
    10c2:	79fb      	ldrb	r3, [r7, #7]
    10c4:	2b00      	cmp	r3, #0
    10c6:	d001      	beq.n	10cc <backend_id_assign+0x48>
    10c8:	68fb      	ldr	r3, [r7, #12]
    10ca:	e007      	b.n	10dc <backend_id_assign+0x58>
    10cc:	68fb      	ldr	r3, [r7, #12]
    10ce:	3301      	adds	r3, #1
    10d0:	60fb      	str	r3, [r7, #12]
    10d2:	68fb      	ldr	r3, [r7, #12]
    10d4:	2b09      	cmp	r3, #9
    10d6:	dddb      	ble.n	1090 <backend_id_assign+0xc>
    10d8:	f04f 33ff 	mov.w	r3, #4294967295	; 0xffffffff
    10dc:	4618      	mov	r0, r3
    10de:	3710      	adds	r7, #16
    10e0:	46bd      	mov	sp, r7
    10e2:	bd80      	pop	{r7, pc}
    10e4:	20000230 	.word	0x20000230

000010e8 <nrf_log_backend_add>:
    10e8:	b580      	push	{r7, lr}
    10ea:	b084      	sub	sp, #16
    10ec:	af00      	add	r7, sp, #0
    10ee:	6078      	str	r0, [r7, #4]
    10f0:	460b      	mov	r3, r1
    10f2:	70fb      	strb	r3, [r7, #3]
    10f4:	f7ff ffc6 	bl	1084 <backend_id_assign>
    10f8:	60f8      	str	r0, [r7, #12]
    10fa:	68fb      	ldr	r3, [r7, #12]
    10fc:	f1b3 3fff 	cmp.w	r3, #4294967295	; 0xffffffff
    1100:	d101      	bne.n	1106 <nrf_log_backend_add+0x1e>
    1102:	68fb      	ldr	r3, [r7, #12]
    1104:	e022      	b.n	114c <nrf_log_backend_add+0x64>
    1106:	68fb      	ldr	r3, [r7, #12]
    1108:	b2db      	uxtb	r3, r3
    110a:	4619      	mov	r1, r3
    110c:	6878      	ldr	r0, [r7, #4]
    110e:	f7ff faea 	bl	6e6 <nrf_log_backend_id_set>
    1112:	4b10      	ldr	r3, [pc, #64]	; (1154 <nrf_log_backend_add+0x6c>)
    1114:	f8d3 3410 	ldr.w	r3, [r3, #1040]	; 0x410
    1118:	2b00      	cmp	r3, #0
    111a:	d108      	bne.n	112e <nrf_log_backend_add+0x46>
    111c:	4a0d      	ldr	r2, [pc, #52]	; (1154 <nrf_log_backend_add+0x6c>)
    111e:	687b      	ldr	r3, [r7, #4]
    1120:	f8c2 3410 	str.w	r3, [r2, #1040]	; 0x410
    1124:	687b      	ldr	r3, [r7, #4]
    1126:	68db      	ldr	r3, [r3, #12]
    1128:	2200      	movs	r2, #0
    112a:	601a      	str	r2, [r3, #0]
    112c:	e00d      	b.n	114a <nrf_log_backend_add+0x62>
    112e:	4b09      	ldr	r3, [pc, #36]	; (1154 <nrf_log_backend_add+0x6c>)
    1130:	f8d3 3410 	ldr.w	r3, [r3, #1040]	; 0x410
    1134:	68da      	ldr	r2, [r3, #12]
    1136:	687b      	ldr	r3, [r7, #4]
    1138:	68db      	ldr	r3, [r3, #12]
    113a:	6812      	ldr	r2, [r2, #0]
    113c:	601a      	str	r2, [r3, #0]
    113e:	4b05      	ldr	r3, [pc, #20]	; (1154 <nrf_log_backend_add+0x6c>)
    1140:	f8d3 3410 	ldr.w	r3, [r3, #1040]	; 0x410
    1144:	68db      	ldr	r3, [r3, #12]
    1146:	687a      	ldr	r2, [r7, #4]
    1148:	601a      	str	r2, [r3, #0]
    114a:	68fb      	ldr	r3, [r7, #12]
    114c:	4618      	mov	r0, r3
    114e:	3710      	adds	r7, #16
    1150:	46bd      	mov	sp, r7
    1152:	bd80      	pop	{r7, pc}
    1154:	20000230 	.word	0x20000230

00001158 <nrf_log_panic>:
    1158:	b580      	push	{r7, lr}
    115a:	b082      	sub	sp, #8
    115c:	af00      	add	r7, sp, #0
    115e:	4b0d      	ldr	r3, [pc, #52]	; (1194 <nrf_log_panic+0x3c>)
    1160:	f8d3 3410 	ldr.w	r3, [r3, #1040]	; 0x410
    1164:	607b      	str	r3, [r7, #4]
    1166:	4b0b      	ldr	r3, [pc, #44]	; (1194 <nrf_log_panic+0x3c>)
    1168:	2201      	movs	r2, #1
    116a:	701a      	strb	r2, [r3, #0]
    116c:	e009      	b.n	1182 <nrf_log_panic+0x2a>
    116e:	6878      	ldr	r0, [r7, #4]
    1170:	f7ff fad6 	bl	720 <nrf_log_backend_enable>
    1174:	6878      	ldr	r0, [r7, #4]
    1176:	f7ff fa9c 	bl	6b2 <nrf_log_backend_panic_set>
    117a:	687b      	ldr	r3, [r7, #4]
    117c:	68db      	ldr	r3, [r3, #12]
    117e:	681b      	ldr	r3, [r3, #0]
    1180:	607b      	str	r3, [r7, #4]
    1182:	687b      	ldr	r3, [r7, #4]
    1184:	2b00      	cmp	r3, #0
    1186:	d1f2      	bne.n	116e <nrf_log_panic+0x16>
    1188:	bf00      	nop
    118a:	bf00      	nop
    118c:	3708      	adds	r7, #8
    118e:	46bd      	mov	sp, r7
    1190:	bd80      	pop	{r7, pc}
    1192:	bf00      	nop
    1194:	20000230 	.word	0x20000230

00001198 <timestamp_print>:
    1198:	b480      	push	{r7}
    119a:	b083      	sub	sp, #12
    119c:	af00      	add	r7, sp, #0
    119e:	6078      	str	r0, [r7, #4]
    11a0:	6039      	str	r1, [r7, #0]
    11a2:	bf00      	nop
    11a4:	370c      	adds	r7, #12
    11a6:	46bd      	mov	sp, r7
    11a8:	f85d 7b04 	ldr.w	r7, [sp], #4
    11ac:	4770      	bx	lr
	...

000011b0 <prefix_process>:
    11b0:	b590      	push	{r4, r7, lr}
    11b2:	b085      	sub	sp, #20
    11b4:	af02      	add	r7, sp, #8
    11b6:	6078      	str	r0, [r7, #4]
    11b8:	6039      	str	r1, [r7, #0]
    11ba:	687b      	ldr	r3, [r7, #4]
    11bc:	88db      	ldrh	r3, [r3, #6]
    11be:	2b00      	cmp	r3, #0
    11c0:	d00a      	beq.n	11d8 <prefix_process+0x28>
    11c2:	687b      	ldr	r3, [r7, #4]
    11c4:	88db      	ldrh	r3, [r3, #6]
    11c6:	461a      	mov	r2, r3
    11c8:	4b1f      	ldr	r3, [pc, #124]	; (1248 <prefix_process+0x98>)
    11ca:	9300      	str	r3, [sp, #0]
    11cc:	4613      	mov	r3, r2
    11ce:	4a1f      	ldr	r2, [pc, #124]	; (124c <prefix_process+0x9c>)
    11d0:	491f      	ldr	r1, [pc, #124]	; (1250 <prefix_process+0xa0>)
    11d2:	6838      	ldr	r0, [r7, #0]
    11d4:	f000 fb81 	bl	18da <nrf_fprintf>
    11d8:	687b      	ldr	r3, [r7, #4]
    11da:	7a1b      	ldrb	r3, [r3, #8]
    11dc:	2b05      	cmp	r3, #5
    11de:	d02e      	beq.n	123e <prefix_process+0x8e>
    11e0:	687b      	ldr	r3, [r7, #4]
    11e2:	7a5b      	ldrb	r3, [r3, #9]
    11e4:	2b00      	cmp	r3, #0
    11e6:	d012      	beq.n	120e <prefix_process+0x5e>
    11e8:	687b      	ldr	r3, [r7, #4]
    11ea:	889b      	ldrh	r3, [r3, #4]
    11ec:	461a      	mov	r2, r3
    11ee:	687b      	ldr	r3, [r7, #4]
    11f0:	7a1b      	ldrb	r3, [r3, #8]
    11f2:	4619      	mov	r1, r3
    11f4:	4610      	mov	r0, r2
    11f6:	f7ff fb35 	bl	864 <nrf_log_color_id_get>
    11fa:	4603      	mov	r3, r0
    11fc:	461a      	mov	r2, r3
    11fe:	4b15      	ldr	r3, [pc, #84]	; (1254 <prefix_process+0xa4>)
    1200:	f853 3022 	ldr.w	r3, [r3, r2, lsl #2]
    1204:	461a      	mov	r2, r3
    1206:	4914      	ldr	r1, [pc, #80]	; (1258 <prefix_process+0xa8>)
    1208:	6838      	ldr	r0, [r7, #0]
    120a:	f000 fb66 	bl	18da <nrf_fprintf>
    120e:	687b      	ldr	r3, [r7, #4]
    1210:	681b      	ldr	r3, [r3, #0]
    1212:	4619      	mov	r1, r3
    1214:	6838      	ldr	r0, [r7, #0]
    1216:	f7ff ffbf 	bl	1198 <timestamp_print>
    121a:	687b      	ldr	r3, [r7, #4]
    121c:	7a1b      	ldrb	r3, [r3, #8]
    121e:	461a      	mov	r2, r3
    1220:	4b0e      	ldr	r3, [pc, #56]	; (125c <prefix_process+0xac>)
    1222:	f853 4022 	ldr.w	r4, [r3, r2, lsl #2]
    1226:	687b      	ldr	r3, [r7, #4]
    1228:	889b      	ldrh	r3, [r3, #4]
    122a:	2100      	movs	r1, #0
    122c:	4618      	mov	r0, r3
    122e:	f7ff fafb 	bl	828 <nrf_log_module_name_get>
    1232:	4603      	mov	r3, r0
    1234:	4622      	mov	r2, r4
    1236:	490a      	ldr	r1, [pc, #40]	; (1260 <prefix_process+0xb0>)
    1238:	6838      	ldr	r0, [r7, #0]
    123a:	f000 fb4e 	bl	18da <nrf_fprintf>
    123e:	bf00      	nop
    1240:	370c      	adds	r7, #12
    1242:	46bd      	mov	sp, r7
    1244:	bd90      	pop	{r4, r7, pc}
    1246:	bf00      	nop
    1248:	00005e00 	.word	0x00005e00
    124c:	00005e10 	.word	0x00005e10
    1250:	00005e48 	.word	0x00005e48
    1254:	20000034 	.word	0x20000034
    1258:	00005e60 	.word	0x00005e60
    125c:	20000020 	.word	0x20000020
    1260:	00005e64 	.word	0x00005e64

00001264 <postfix_process>:
    1264:	b580      	push	{r7, lr}
    1266:	b084      	sub	sp, #16
    1268:	af00      	add	r7, sp, #0
    126a:	60f8      	str	r0, [r7, #12]
    126c:	60b9      	str	r1, [r7, #8]
    126e:	4613      	mov	r3, r2
    1270:	71fb      	strb	r3, [r7, #7]
    1272:	68fb      	ldr	r3, [r7, #12]
    1274:	7a1b      	ldrb	r3, [r3, #8]
    1276:	2b05      	cmp	r3, #5
    1278:	d00f      	beq.n	129a <postfix_process+0x36>
    127a:	68fb      	ldr	r3, [r7, #12]
    127c:	7a5b      	ldrb	r3, [r3, #9]
    127e:	2b00      	cmp	r3, #0
    1280:	d006      	beq.n	1290 <postfix_process+0x2c>
    1282:	4b0d      	ldr	r3, [pc, #52]	; (12b8 <postfix_process+0x54>)
    1284:	681b      	ldr	r3, [r3, #0]
    1286:	461a      	mov	r2, r3
    1288:	490c      	ldr	r1, [pc, #48]	; (12bc <postfix_process+0x58>)
    128a:	68b8      	ldr	r0, [r7, #8]
    128c:	f000 fb25 	bl	18da <nrf_fprintf>
    1290:	490b      	ldr	r1, [pc, #44]	; (12c0 <postfix_process+0x5c>)
    1292:	68b8      	ldr	r0, [r7, #8]
    1294:	f000 fb21 	bl	18da <nrf_fprintf>
    1298:	e006      	b.n	12a8 <postfix_process+0x44>
    129a:	79fb      	ldrb	r3, [r7, #7]
    129c:	2b00      	cmp	r3, #0
    129e:	d003      	beq.n	12a8 <postfix_process+0x44>
    12a0:	4907      	ldr	r1, [pc, #28]	; (12c0 <postfix_process+0x5c>)
    12a2:	68b8      	ldr	r0, [r7, #8]
    12a4:	f000 fb19 	bl	18da <nrf_fprintf>
    12a8:	68b8      	ldr	r0, [r7, #8]
    12aa:	f000 fafd 	bl	18a8 <nrf_fprintf_buffer_flush>
    12ae:	bf00      	nop
    12b0:	3710      	adds	r7, #16
    12b2:	46bd      	mov	sp, r7
    12b4:	bd80      	pop	{r7, pc}
    12b6:	bf00      	nop
    12b8:	20000034 	.word	0x20000034
    12bc:	00005e60 	.word	0x00005e60
    12c0:	00005e70 	.word	0x00005e70

000012c4 <nrf_log_std_entry_process>:
    12c4:	b5b0      	push	{r4, r5, r7, lr}
    12c6:	b08a      	sub	sp, #40	; 0x28
    12c8:	af04      	add	r7, sp, #16
    12ca:	60f8      	str	r0, [r7, #12]
    12cc:	60b9      	str	r1, [r7, #8]
    12ce:	607a      	str	r2, [r7, #4]
    12d0:	603b      	str	r3, [r7, #0]
    12d2:	6abb      	ldr	r3, [r7, #40]	; 0x28
    12d4:	7b1b      	ldrb	r3, [r3, #12]
    12d6:	75fb      	strb	r3, [r7, #23]
    12d8:	6abb      	ldr	r3, [r7, #40]	; 0x28
    12da:	2200      	movs	r2, #0
    12dc:	731a      	strb	r2, [r3, #12]
    12de:	6ab9      	ldr	r1, [r7, #40]	; 0x28
    12e0:	6838      	ldr	r0, [r7, #0]
    12e2:	f7ff ff65 	bl	11b0 <prefix_process>
    12e6:	687b      	ldr	r3, [r7, #4]
    12e8:	2b06      	cmp	r3, #6
    12ea:	d87f      	bhi.n	13ec <nrf_log_std_entry_process+0x128>
    12ec:	a201      	add	r2, pc, #4	; (adr r2, 12f4 <nrf_log_std_entry_process+0x30>)
    12ee:	f852 f023 	ldr.w	pc, [r2, r3, lsl #2]
    12f2:	bf00      	nop
    12f4:	00001311 	.word	0x00001311
    12f8:	0000131b 	.word	0x0000131b
    12fc:	0000132b 	.word	0x0000132b
    1300:	0000133f 	.word	0x0000133f
    1304:	0000135d 	.word	0x0000135d
    1308:	00001385 	.word	0x00001385
    130c:	000013b5 	.word	0x000013b5
    1310:	68f9      	ldr	r1, [r7, #12]
    1312:	6ab8      	ldr	r0, [r7, #40]	; 0x28
    1314:	f000 fae1 	bl	18da <nrf_fprintf>
    1318:	e069      	b.n	13ee <nrf_log_std_entry_process+0x12a>
    131a:	68bb      	ldr	r3, [r7, #8]
    131c:	681b      	ldr	r3, [r3, #0]
    131e:	461a      	mov	r2, r3
    1320:	68f9      	ldr	r1, [r7, #12]
    1322:	6ab8      	ldr	r0, [r7, #40]	; 0x28
    1324:	f000 fad9 	bl	18da <nrf_fprintf>
    1328:	e061      	b.n	13ee <nrf_log_std_entry_process+0x12a>
    132a:	68bb      	ldr	r3, [r7, #8]
    132c:	681a      	ldr	r2, [r3, #0]
    132e:	68bb      	ldr	r3, [r7, #8]
    1330:	3304      	adds	r3, #4
    1332:	681b      	ldr	r3, [r3, #0]
    1334:	68f9      	ldr	r1, [r7, #12]
    1336:	6ab8      	ldr	r0, [r7, #40]	; 0x28
    1338:	f000 facf 	bl	18da <nrf_fprintf>
    133c:	e057      	b.n	13ee <nrf_log_std_entry_process+0x12a>
    133e:	68bb      	ldr	r3, [r7, #8]
    1340:	681a      	ldr	r2, [r3, #0]
    1342:	68bb      	ldr	r3, [r7, #8]
    1344:	3304      	adds	r3, #4
    1346:	6819      	ldr	r1, [r3, #0]
    1348:	68bb      	ldr	r3, [r7, #8]
    134a:	3308      	adds	r3, #8
    134c:	681b      	ldr	r3, [r3, #0]
    134e:	9300      	str	r3, [sp, #0]
    1350:	460b      	mov	r3, r1
    1352:	68f9      	ldr	r1, [r7, #12]
    1354:	6ab8      	ldr	r0, [r7, #40]	; 0x28
    1356:	f000 fac0 	bl	18da <nrf_fprintf>
    135a:	e048      	b.n	13ee <nrf_log_std_entry_process+0x12a>
    135c:	68bb      	ldr	r3, [r7, #8]
    135e:	6819      	ldr	r1, [r3, #0]
    1360:	68bb      	ldr	r3, [r7, #8]
    1362:	3304      	adds	r3, #4
    1364:	6818      	ldr	r0, [r3, #0]
    1366:	68bb      	ldr	r3, [r7, #8]
    1368:	3308      	adds	r3, #8
    136a:	681b      	ldr	r3, [r3, #0]
    136c:	68ba      	ldr	r2, [r7, #8]
    136e:	320c      	adds	r2, #12
    1370:	6812      	ldr	r2, [r2, #0]
    1372:	9201      	str	r2, [sp, #4]
    1374:	9300      	str	r3, [sp, #0]
    1376:	4603      	mov	r3, r0
    1378:	460a      	mov	r2, r1
    137a:	68f9      	ldr	r1, [r7, #12]
    137c:	6ab8      	ldr	r0, [r7, #40]	; 0x28
    137e:	f000 faac 	bl	18da <nrf_fprintf>
    1382:	e034      	b.n	13ee <nrf_log_std_entry_process+0x12a>
    1384:	68bb      	ldr	r3, [r7, #8]
    1386:	6818      	ldr	r0, [r3, #0]
    1388:	68bb      	ldr	r3, [r7, #8]
    138a:	3304      	adds	r3, #4
    138c:	681c      	ldr	r4, [r3, #0]
    138e:	68bb      	ldr	r3, [r7, #8]
    1390:	3308      	adds	r3, #8
    1392:	681b      	ldr	r3, [r3, #0]
    1394:	68ba      	ldr	r2, [r7, #8]
    1396:	320c      	adds	r2, #12
    1398:	6812      	ldr	r2, [r2, #0]
    139a:	68b9      	ldr	r1, [r7, #8]
    139c:	3110      	adds	r1, #16
    139e:	6809      	ldr	r1, [r1, #0]
    13a0:	9102      	str	r1, [sp, #8]
    13a2:	9201      	str	r2, [sp, #4]
    13a4:	9300      	str	r3, [sp, #0]
    13a6:	4623      	mov	r3, r4
    13a8:	4602      	mov	r2, r0
    13aa:	68f9      	ldr	r1, [r7, #12]
    13ac:	6ab8      	ldr	r0, [r7, #40]	; 0x28
    13ae:	f000 fa94 	bl	18da <nrf_fprintf>
    13b2:	e01c      	b.n	13ee <nrf_log_std_entry_process+0x12a>
    13b4:	68bb      	ldr	r3, [r7, #8]
    13b6:	681c      	ldr	r4, [r3, #0]
    13b8:	68bb      	ldr	r3, [r7, #8]
    13ba:	3304      	adds	r3, #4
    13bc:	681d      	ldr	r5, [r3, #0]
    13be:	68bb      	ldr	r3, [r7, #8]
    13c0:	3308      	adds	r3, #8
    13c2:	681b      	ldr	r3, [r3, #0]
    13c4:	68ba      	ldr	r2, [r7, #8]
    13c6:	320c      	adds	r2, #12
    13c8:	6812      	ldr	r2, [r2, #0]
    13ca:	68b9      	ldr	r1, [r7, #8]
    13cc:	3110      	adds	r1, #16
    13ce:	6809      	ldr	r1, [r1, #0]
    13d0:	68b8      	ldr	r0, [r7, #8]
    13d2:	3014      	adds	r0, #20
    13d4:	6800      	ldr	r0, [r0, #0]
    13d6:	9003      	str	r0, [sp, #12]
    13d8:	9102      	str	r1, [sp, #8]
    13da:	9201      	str	r2, [sp, #4]
    13dc:	9300      	str	r3, [sp, #0]
    13de:	462b      	mov	r3, r5
    13e0:	4622      	mov	r2, r4
    13e2:	68f9      	ldr	r1, [r7, #12]
    13e4:	6ab8      	ldr	r0, [r7, #40]	; 0x28
    13e6:	f000 fa78 	bl	18da <nrf_fprintf>
    13ea:	e000      	b.n	13ee <nrf_log_std_entry_process+0x12a>
    13ec:	bf00      	nop
    13ee:	2200      	movs	r2, #0
    13f0:	6ab9      	ldr	r1, [r7, #40]	; 0x28
    13f2:	6838      	ldr	r0, [r7, #0]
    13f4:	f7ff ff36 	bl	1264 <postfix_process>
    13f8:	6abb      	ldr	r3, [r7, #40]	; 0x28
    13fa:	7dfa      	ldrb	r2, [r7, #23]
    13fc:	731a      	strb	r2, [r3, #12]
    13fe:	bf00      	nop
    1400:	3718      	adds	r7, #24
    1402:	46bd      	mov	sp, r7
    1404:	bdb0      	pop	{r4, r5, r7, pc}
    1406:	bf00      	nop

00001408 <nrf_log_hexdump_entry_process>:
    1408:	b580      	push	{r7, lr}
    140a:	b086      	sub	sp, #24
    140c:	af00      	add	r7, sp, #0
    140e:	60f8      	str	r0, [r7, #12]
    1410:	60b9      	str	r1, [r7, #8]
    1412:	607a      	str	r2, [r7, #4]
    1414:	603b      	str	r3, [r7, #0]
    1416:	68bb      	ldr	r3, [r7, #8]
    1418:	2b08      	cmp	r3, #8
    141a:	d85c      	bhi.n	14d6 <nrf_log_hexdump_entry_process+0xce>
    141c:	683b      	ldr	r3, [r7, #0]
    141e:	7b1b      	ldrb	r3, [r3, #12]
    1420:	74fb      	strb	r3, [r7, #19]
    1422:	683b      	ldr	r3, [r7, #0]
    1424:	2200      	movs	r2, #0
    1426:	731a      	strb	r2, [r3, #12]
    1428:	6839      	ldr	r1, [r7, #0]
    142a:	6878      	ldr	r0, [r7, #4]
    142c:	f7ff fec0 	bl	11b0 <prefix_process>
    1430:	2300      	movs	r3, #0
    1432:	617b      	str	r3, [r7, #20]
    1434:	e014      	b.n	1460 <nrf_log_hexdump_entry_process+0x58>
    1436:	697a      	ldr	r2, [r7, #20]
    1438:	68bb      	ldr	r3, [r7, #8]
    143a:	429a      	cmp	r2, r3
    143c:	d209      	bcs.n	1452 <nrf_log_hexdump_entry_process+0x4a>
    143e:	68fa      	ldr	r2, [r7, #12]
    1440:	697b      	ldr	r3, [r7, #20]
    1442:	4413      	add	r3, r2
    1444:	781b      	ldrb	r3, [r3, #0]
    1446:	461a      	mov	r2, r3
    1448:	4925      	ldr	r1, [pc, #148]	; (14e0 <nrf_log_hexdump_entry_process+0xd8>)
    144a:	6838      	ldr	r0, [r7, #0]
    144c:	f000 fa45 	bl	18da <nrf_fprintf>
    1450:	e003      	b.n	145a <nrf_log_hexdump_entry_process+0x52>
    1452:	4924      	ldr	r1, [pc, #144]	; (14e4 <nrf_log_hexdump_entry_process+0xdc>)
    1454:	6838      	ldr	r0, [r7, #0]
    1456:	f000 fa40 	bl	18da <nrf_fprintf>
    145a:	697b      	ldr	r3, [r7, #20]
    145c:	3301      	adds	r3, #1
    145e:	617b      	str	r3, [r7, #20]
    1460:	697b      	ldr	r3, [r7, #20]
    1462:	2b07      	cmp	r3, #7
    1464:	d9e7      	bls.n	1436 <nrf_log_hexdump_entry_process+0x2e>
    1466:	4920      	ldr	r1, [pc, #128]	; (14e8 <nrf_log_hexdump_entry_process+0xe0>)
    1468:	6838      	ldr	r0, [r7, #0]
    146a:	f000 fa36 	bl	18da <nrf_fprintf>
    146e:	2300      	movs	r3, #0
    1470:	617b      	str	r3, [r7, #20]
    1472:	e024      	b.n	14be <nrf_log_hexdump_entry_process+0xb6>
    1474:	697a      	ldr	r2, [r7, #20]
    1476:	68bb      	ldr	r3, [r7, #8]
    1478:	429a      	cmp	r2, r3
    147a:	d219      	bcs.n	14b0 <nrf_log_hexdump_entry_process+0xa8>
    147c:	68fa      	ldr	r2, [r7, #12]
    147e:	697b      	ldr	r3, [r7, #20]
    1480:	4413      	add	r3, r2
    1482:	781b      	ldrb	r3, [r3, #0]
    1484:	74bb      	strb	r3, [r7, #18]
    1486:	7cbb      	ldrb	r3, [r7, #18]
    1488:	2b7e      	cmp	r3, #126	; 0x7e
    148a:	d80a      	bhi.n	14a2 <nrf_log_hexdump_entry_process+0x9a>
    148c:	7cbb      	ldrb	r3, [r7, #18]
    148e:	3301      	adds	r3, #1
    1490:	4a16      	ldr	r2, [pc, #88]	; (14ec <nrf_log_hexdump_entry_process+0xe4>)
    1492:	4413      	add	r3, r2
    1494:	781b      	ldrb	r3, [r3, #0]
    1496:	f003 0397 	and.w	r3, r3, #151	; 0x97
    149a:	2b00      	cmp	r3, #0
    149c:	d001      	beq.n	14a2 <nrf_log_hexdump_entry_process+0x9a>
    149e:	7cbb      	ldrb	r3, [r7, #18]
    14a0:	e000      	b.n	14a4 <nrf_log_hexdump_entry_process+0x9c>
    14a2:	232e      	movs	r3, #46	; 0x2e
    14a4:	461a      	mov	r2, r3
    14a6:	4912      	ldr	r1, [pc, #72]	; (14f0 <nrf_log_hexdump_entry_process+0xe8>)
    14a8:	6838      	ldr	r0, [r7, #0]
    14aa:	f000 fa16 	bl	18da <nrf_fprintf>
    14ae:	e003      	b.n	14b8 <nrf_log_hexdump_entry_process+0xb0>
    14b0:	4910      	ldr	r1, [pc, #64]	; (14f4 <nrf_log_hexdump_entry_process+0xec>)
    14b2:	6838      	ldr	r0, [r7, #0]
    14b4:	f000 fa11 	bl	18da <nrf_fprintf>
    14b8:	697b      	ldr	r3, [r7, #20]
    14ba:	3301      	adds	r3, #1
    14bc:	617b      	str	r3, [r7, #20]
    14be:	697b      	ldr	r3, [r7, #20]
    14c0:	2b07      	cmp	r3, #7
    14c2:	d9d7      	bls.n	1474 <nrf_log_hexdump_entry_process+0x6c>
    14c4:	2201      	movs	r2, #1
    14c6:	6839      	ldr	r1, [r7, #0]
    14c8:	6878      	ldr	r0, [r7, #4]
    14ca:	f7ff fecb 	bl	1264 <postfix_process>
    14ce:	683b      	ldr	r3, [r7, #0]
    14d0:	7cfa      	ldrb	r2, [r7, #19]
    14d2:	731a      	strb	r2, [r3, #12]
    14d4:	e000      	b.n	14d8 <nrf_log_hexdump_entry_process+0xd0>
    14d6:	bf00      	nop
    14d8:	3718      	adds	r7, #24
    14da:	46bd      	mov	sp, r7
    14dc:	bd80      	pop	{r7, pc}
    14de:	bf00      	nop
    14e0:	00005e74 	.word	0x00005e74
    14e4:	00005e7c 	.word	0x00005e7c
    14e8:	00005e80 	.word	0x00005e80
    14ec:	00005f56 	.word	0x00005f56
    14f0:	00005e84 	.word	0x00005e84
    14f4:	00005e88 	.word	0x00005e88

000014f8 <app_error_handler_bare>:
    14f8:	b580      	push	{r7, lr}
    14fa:	b086      	sub	sp, #24
    14fc:	af00      	add	r7, sp, #0
    14fe:	6078      	str	r0, [r7, #4]
    1500:	2300      	movs	r3, #0
    1502:	60fb      	str	r3, [r7, #12]
    1504:	2300      	movs	r3, #0
    1506:	613b      	str	r3, [r7, #16]
    1508:	687b      	ldr	r3, [r7, #4]
    150a:	617b      	str	r3, [r7, #20]
    150c:	f107 030c 	add.w	r3, r7, #12
    1510:	461a      	mov	r2, r3
    1512:	2100      	movs	r1, #0
    1514:	f244 0001 	movw	r0, #16385	; 0x4001
    1518:	f000 f81a 	bl	1550 <app_error_fault_handler>
    151c:	bf00      	nop
    151e:	3718      	adds	r7, #24
    1520:	46bd      	mov	sp, r7
    1522:	bd80      	pop	{r7, pc}

00001524 <__NVIC_SystemReset>:
    1524:	b480      	push	{r7}
    1526:	af00      	add	r7, sp, #0
    1528:	f3bf 8f4f 	dsb	sy
    152c:	bf00      	nop
    152e:	4b06      	ldr	r3, [pc, #24]	; (1548 <__NVIC_SystemReset+0x24>)
    1530:	68db      	ldr	r3, [r3, #12]
    1532:	f403 62e0 	and.w	r2, r3, #1792	; 0x700
    1536:	4904      	ldr	r1, [pc, #16]	; (1548 <__NVIC_SystemReset+0x24>)
    1538:	4b04      	ldr	r3, [pc, #16]	; (154c <__NVIC_SystemReset+0x28>)
    153a:	4313      	orrs	r3, r2
    153c:	60cb      	str	r3, [r1, #12]
    153e:	f3bf 8f4f 	dsb	sy
    1542:	bf00      	nop
    1544:	bf00      	nop
    1546:	e7fd      	b.n	1544 <__NVIC_SystemReset+0x20>
    1548:	e000ed00 	.word	0xe000ed00
    154c:	05fa0004 	.word	0x05fa0004

00001550 <app_error_fault_handler>:
    1550:	b580      	push	{r7, lr}
    1552:	b084      	sub	sp, #16
    1554:	af00      	add	r7, sp, #0
    1556:	60f8      	str	r0, [r7, #12]
    1558:	60b9      	str	r1, [r7, #8]
    155a:	607a      	str	r2, [r7, #4]
    155c:	b672      	cpsid	i
    155e:	bf00      	nop
    1560:	f7ff fdfa 	bl	1158 <nrf_log_panic>
    1564:	f7ff fbd0 	bl	d08 <nrf_log_frontend_dequeue>
    1568:	4603      	mov	r3, r0
    156a:	2b00      	cmp	r3, #0
    156c:	d1fa      	bne.n	1564 <app_error_fault_handler+0x14>
    156e:	4a0f      	ldr	r2, [pc, #60]	; (15ac <app_error_fault_handler+0x5c>)
    1570:	4b0f      	ldr	r3, [pc, #60]	; (15b0 <app_error_fault_handler+0x60>)
    1572:	1ad3      	subs	r3, r2, r3
    1574:	08db      	lsrs	r3, r3, #3
    1576:	041b      	lsls	r3, r3, #16
    1578:	f043 0301 	orr.w	r3, r3, #1
    157c:	490d      	ldr	r1, [pc, #52]	; (15b4 <app_error_fault_handler+0x64>)
    157e:	4618      	mov	r0, r3
    1580:	f7ff fb8e 	bl	ca0 <nrf_log_frontend_std_0>
    1584:	4b0c      	ldr	r3, [pc, #48]	; (15b8 <app_error_fault_handler+0x68>)
    1586:	681b      	ldr	r3, [r3, #0]
    1588:	f003 0301 	and.w	r3, r3, #1
    158c:	2b00      	cmp	r3, #0
    158e:	d000      	beq.n	1592 <app_error_fault_handler+0x42>
    1590:	be00      	bkpt	0x0000
    1592:	4a06      	ldr	r2, [pc, #24]	; (15ac <app_error_fault_handler+0x5c>)
    1594:	4b06      	ldr	r3, [pc, #24]	; (15b0 <app_error_fault_handler+0x60>)
    1596:	1ad3      	subs	r3, r2, r3
    1598:	08db      	lsrs	r3, r3, #3
    159a:	041b      	lsls	r3, r3, #16
    159c:	f043 0302 	orr.w	r3, r3, #2
    15a0:	4906      	ldr	r1, [pc, #24]	; (15bc <app_error_fault_handler+0x6c>)
    15a2:	4618      	mov	r0, r3
    15a4:	f7ff fb7c 	bl	ca0 <nrf_log_frontend_std_0>
    15a8:	f7ff ffbc 	bl	1524 <__NVIC_SystemReset>
    15ac:	0000607c 	.word	0x0000607c
    15b0:	0000605c 	.word	0x0000605c
    15b4:	00005e8c 	.word	0x00005e8c
    15b8:	e000edf0 	.word	0xe000edf0
    15bc:	00005e98 	.word	0x00005e98

000015c0 <app_util_disable_irq>:
    15c0:	b480      	push	{r7}
    15c2:	af00      	add	r7, sp, #0
    15c4:	b672      	cpsid	i
    15c6:	bf00      	nop
    15c8:	4b04      	ldr	r3, [pc, #16]	; (15dc <app_util_disable_irq+0x1c>)
    15ca:	681b      	ldr	r3, [r3, #0]
    15cc:	3301      	adds	r3, #1
    15ce:	4a03      	ldr	r2, [pc, #12]	; (15dc <app_util_disable_irq+0x1c>)
    15d0:	6013      	str	r3, [r2, #0]
    15d2:	bf00      	nop
    15d4:	46bd      	mov	sp, r7
    15d6:	f85d 7b04 	ldr.w	r7, [sp], #4
    15da:	4770      	bx	lr
    15dc:	20000650 	.word	0x20000650

000015e0 <app_util_enable_irq>:
    15e0:	b480      	push	{r7}
    15e2:	af00      	add	r7, sp, #0
    15e4:	4b07      	ldr	r3, [pc, #28]	; (1604 <app_util_enable_irq+0x24>)
    15e6:	681b      	ldr	r3, [r3, #0]
    15e8:	3b01      	subs	r3, #1
    15ea:	4a06      	ldr	r2, [pc, #24]	; (1604 <app_util_enable_irq+0x24>)
    15ec:	6013      	str	r3, [r2, #0]
    15ee:	4b05      	ldr	r3, [pc, #20]	; (1604 <app_util_enable_irq+0x24>)
    15f0:	681b      	ldr	r3, [r3, #0]
    15f2:	2b00      	cmp	r3, #0
    15f4:	d101      	bne.n	15fa <app_util_enable_irq+0x1a>
    15f6:	b662      	cpsie	i
    15f8:	bf00      	nop
    15fa:	bf00      	nop
    15fc:	46bd      	mov	sp, r7
    15fe:	f85d 7b04 	ldr.w	r7, [sp], #4
    1602:	4770      	bx	lr
    1604:	20000650 	.word	0x20000650

00001608 <app_util_critical_region_enter>:
    1608:	b580      	push	{r7, lr}
    160a:	b082      	sub	sp, #8
    160c:	af00      	add	r7, sp, #0
    160e:	6078      	str	r0, [r7, #4]
    1610:	f7ff ffd6 	bl	15c0 <app_util_disable_irq>
    1614:	bf00      	nop
    1616:	3708      	adds	r7, #8
    1618:	46bd      	mov	sp, r7
    161a:	bd80      	pop	{r7, pc}

0000161c <app_util_critical_region_exit>:
    161c:	b580      	push	{r7, lr}
    161e:	b082      	sub	sp, #8
    1620:	af00      	add	r7, sp, #0
    1622:	4603      	mov	r3, r0
    1624:	71fb      	strb	r3, [r7, #7]
    1626:	f7ff ffdb 	bl	15e0 <app_util_enable_irq>
    162a:	bf00      	nop
    162c:	3708      	adds	r7, #8
    162e:	46bd      	mov	sp, r7
    1630:	bd80      	pop	{r7, pc}

00001632 <nrf_atomic_u32_fetch_store>:
    1632:	b490      	push	{r4, r7}
    1634:	b086      	sub	sp, #24
    1636:	af00      	add	r7, sp, #0
    1638:	6078      	str	r0, [r7, #4]
    163a:	6039      	str	r1, [r7, #0]
    163c:	687b      	ldr	r3, [r7, #4]
    163e:	683a      	ldr	r2, [r7, #0]
    1640:	e853 4f00 	ldrex	r4, [r3]
    1644:	4610      	mov	r0, r2
    1646:	e843 0100 	strex	r1, r0, [r3]
    164a:	f091 0f00 	teq	r1, #0
    164e:	d1f7      	bne.n	1640 <nrf_atomic_u32_fetch_store+0xe>
    1650:	617c      	str	r4, [r7, #20]
    1652:	6138      	str	r0, [r7, #16]
    1654:	60f9      	str	r1, [r7, #12]
    1656:	697b      	ldr	r3, [r7, #20]
    1658:	4618      	mov	r0, r3
    165a:	3718      	adds	r7, #24
    165c:	46bd      	mov	sp, r7
    165e:	bc90      	pop	{r4, r7}
    1660:	4770      	bx	lr

00001662 <nrf_atomic_u32_or>:
    1662:	b490      	push	{r4, r7}
    1664:	b086      	sub	sp, #24
    1666:	af00      	add	r7, sp, #0
    1668:	6078      	str	r0, [r7, #4]
    166a:	6039      	str	r1, [r7, #0]
    166c:	687b      	ldr	r3, [r7, #4]
    166e:	683a      	ldr	r2, [r7, #0]
    1670:	e853 4f00 	ldrex	r4, [r3]
    1674:	ea44 0002 	orr.w	r0, r4, r2
    1678:	e843 0100 	strex	r1, r0, [r3]
    167c:	f091 0f00 	teq	r1, #0
    1680:	d1f6      	bne.n	1670 <nrf_atomic_u32_or+0xe>
    1682:	617c      	str	r4, [r7, #20]
    1684:	6138      	str	r0, [r7, #16]
    1686:	60f9      	str	r1, [r7, #12]
    1688:	693b      	ldr	r3, [r7, #16]
    168a:	4618      	mov	r0, r3
    168c:	3718      	adds	r7, #24
    168e:	46bd      	mov	sp, r7
    1690:	bc90      	pop	{r4, r7}
    1692:	4770      	bx	lr

00001694 <nrf_atomic_u32_fetch_and>:
    1694:	b490      	push	{r4, r7}
    1696:	b086      	sub	sp, #24
    1698:	af00      	add	r7, sp, #0
    169a:	6078      	str	r0, [r7, #4]
    169c:	6039      	str	r1, [r7, #0]
    169e:	687b      	ldr	r3, [r7, #4]
    16a0:	683a      	ldr	r2, [r7, #0]
    16a2:	e853 4f00 	ldrex	r4, [r3]
    16a6:	ea04 0002 	and.w	r0, r4, r2
    16aa:	e843 0100 	strex	r1, r0, [r3]
    16ae:	f091 0f00 	teq	r1, #0
    16b2:	d1f6      	bne.n	16a2 <nrf_atomic_u32_fetch_and+0xe>
    16b4:	617c      	str	r4, [r7, #20]
    16b6:	6138      	str	r0, [r7, #16]
    16b8:	60f9      	str	r1, [r7, #12]
    16ba:	697b      	ldr	r3, [r7, #20]
    16bc:	4618      	mov	r0, r3
    16be:	3718      	adds	r7, #24
    16c0:	46bd      	mov	sp, r7
    16c2:	bc90      	pop	{r4, r7}
    16c4:	4770      	bx	lr

000016c6 <nrf_atomic_u32_add>:
    16c6:	b490      	push	{r4, r7}
    16c8:	b086      	sub	sp, #24
    16ca:	af00      	add	r7, sp, #0
    16cc:	6078      	str	r0, [r7, #4]
    16ce:	6039      	str	r1, [r7, #0]
    16d0:	687b      	ldr	r3, [r7, #4]
    16d2:	683a      	ldr	r2, [r7, #0]
    16d4:	e853 4f00 	ldrex	r4, [r3]
    16d8:	eb04 0002 	add.w	r0, r4, r2
    16dc:	e843 0100 	strex	r1, r0, [r3]
    16e0:	f091 0f00 	teq	r1, #0
    16e4:	d1f6      	bne.n	16d4 <nrf_atomic_u32_add+0xe>
    16e6:	617c      	str	r4, [r7, #20]
    16e8:	6138      	str	r0, [r7, #16]
    16ea:	60f9      	str	r1, [r7, #12]
    16ec:	693b      	ldr	r3, [r7, #16]
    16ee:	4618      	mov	r0, r3
    16f0:	3718      	adds	r7, #24
    16f2:	46bd      	mov	sp, r7
    16f4:	bc90      	pop	{r4, r7}
    16f6:	4770      	bx	lr

000016f8 <nrf_atomic_u32_sub>:
    16f8:	b490      	push	{r4, r7}
    16fa:	b086      	sub	sp, #24
    16fc:	af00      	add	r7, sp, #0
    16fe:	6078      	str	r0, [r7, #4]
    1700:	6039      	str	r1, [r7, #0]
    1702:	687b      	ldr	r3, [r7, #4]
    1704:	683a      	ldr	r2, [r7, #0]
    1706:	e853 4f00 	ldrex	r4, [r3]
    170a:	eba4 0002 	sub.w	r0, r4, r2
    170e:	e843 0100 	strex	r1, r0, [r3]
    1712:	f091 0f00 	teq	r1, #0
    1716:	d1f6      	bne.n	1706 <nrf_atomic_u32_sub+0xe>
    1718:	617c      	str	r4, [r7, #20]
    171a:	6138      	str	r0, [r7, #16]
    171c:	60f9      	str	r1, [r7, #12]
    171e:	693b      	ldr	r3, [r7, #16]
    1720:	4618      	mov	r0, r3
    1722:	3718      	adds	r7, #24
    1724:	46bd      	mov	sp, r7
    1726:	bc90      	pop	{r4, r7}
    1728:	4770      	bx	lr

0000172a <nrf_atomic_flag_set>:
    172a:	b580      	push	{r7, lr}
    172c:	b082      	sub	sp, #8
    172e:	af00      	add	r7, sp, #0
    1730:	6078      	str	r0, [r7, #4]
    1732:	2101      	movs	r1, #1
    1734:	6878      	ldr	r0, [r7, #4]
    1736:	f7ff ff94 	bl	1662 <nrf_atomic_u32_or>
    173a:	4603      	mov	r3, r0
    173c:	4618      	mov	r0, r3
    173e:	3708      	adds	r7, #8
    1740:	46bd      	mov	sp, r7
    1742:	bd80      	pop	{r7, pc}

00001744 <nrf_atomic_flag_clear_fetch>:
    1744:	b580      	push	{r7, lr}
    1746:	b082      	sub	sp, #8
    1748:	af00      	add	r7, sp, #0
    174a:	6078      	str	r0, [r7, #4]
    174c:	2100      	movs	r1, #0
    174e:	6878      	ldr	r0, [r7, #4]
    1750:	f7ff ffa0 	bl	1694 <nrf_atomic_u32_fetch_and>
    1754:	4603      	mov	r3, r0
    1756:	4618      	mov	r0, r3
    1758:	3708      	adds	r7, #8
    175a:	46bd      	mov	sp, r7
    175c:	bd80      	pop	{r7, pc}

0000175e <nrf_balloc_idx2block>:
    175e:	b480      	push	{r7}
    1760:	b083      	sub	sp, #12
    1762:	af00      	add	r7, sp, #0
    1764:	6078      	str	r0, [r7, #4]
    1766:	460b      	mov	r3, r1
    1768:	70fb      	strb	r3, [r7, #3]
    176a:	687b      	ldr	r3, [r7, #4]
    176c:	68da      	ldr	r2, [r3, #12]
    176e:	78fb      	ldrb	r3, [r7, #3]
    1770:	6879      	ldr	r1, [r7, #4]
    1772:	8a09      	ldrh	r1, [r1, #16]
    1774:	fb01 f303 	mul.w	r3, r1, r3
    1778:	4413      	add	r3, r2
    177a:	4618      	mov	r0, r3
    177c:	370c      	adds	r7, #12
    177e:	46bd      	mov	sp, r7
    1780:	f85d 7b04 	ldr.w	r7, [sp], #4
    1784:	4770      	bx	lr

00001786 <nrf_balloc_block2idx>:
    1786:	b480      	push	{r7}
    1788:	b083      	sub	sp, #12
    178a:	af00      	add	r7, sp, #0
    178c:	6078      	str	r0, [r7, #4]
    178e:	6039      	str	r1, [r7, #0]
    1790:	683b      	ldr	r3, [r7, #0]
    1792:	687a      	ldr	r2, [r7, #4]
    1794:	68d2      	ldr	r2, [r2, #12]
    1796:	1a9b      	subs	r3, r3, r2
    1798:	687a      	ldr	r2, [r7, #4]
    179a:	8a12      	ldrh	r2, [r2, #16]
    179c:	fbb3 f3f2 	udiv	r3, r3, r2
    17a0:	b2db      	uxtb	r3, r3
    17a2:	4618      	mov	r0, r3
    17a4:	370c      	adds	r7, #12
    17a6:	46bd      	mov	sp, r7
    17a8:	f85d 7b04 	ldr.w	r7, [sp], #4
    17ac:	4770      	bx	lr

000017ae <nrf_balloc_init>:
    17ae:	b480      	push	{r7}
    17b0:	b085      	sub	sp, #20
    17b2:	af00      	add	r7, sp, #0
    17b4:	6078      	str	r0, [r7, #4]
    17b6:	687b      	ldr	r3, [r7, #4]
    17b8:	2b00      	cmp	r3, #0
    17ba:	d101      	bne.n	17c0 <nrf_balloc_init+0x12>
    17bc:	230e      	movs	r3, #14
    17be:	e01c      	b.n	17fa <nrf_balloc_init+0x4c>
    17c0:	687b      	ldr	r3, [r7, #4]
    17c2:	689a      	ldr	r2, [r3, #8]
    17c4:	687b      	ldr	r3, [r7, #4]
    17c6:	685b      	ldr	r3, [r3, #4]
    17c8:	1ad3      	subs	r3, r2, r3
    17ca:	73fb      	strb	r3, [r7, #15]
    17cc:	687b      	ldr	r3, [r7, #4]
    17ce:	681b      	ldr	r3, [r3, #0]
    17d0:	687a      	ldr	r2, [r7, #4]
    17d2:	6852      	ldr	r2, [r2, #4]
    17d4:	601a      	str	r2, [r3, #0]
    17d6:	e006      	b.n	17e6 <nrf_balloc_init+0x38>
    17d8:	687b      	ldr	r3, [r7, #4]
    17da:	681a      	ldr	r2, [r3, #0]
    17dc:	6813      	ldr	r3, [r2, #0]
    17de:	1c59      	adds	r1, r3, #1
    17e0:	6011      	str	r1, [r2, #0]
    17e2:	7bfa      	ldrb	r2, [r7, #15]
    17e4:	701a      	strb	r2, [r3, #0]
    17e6:	7bfb      	ldrb	r3, [r7, #15]
    17e8:	1e5a      	subs	r2, r3, #1
    17ea:	73fa      	strb	r2, [r7, #15]
    17ec:	2b00      	cmp	r3, #0
    17ee:	d1f3      	bne.n	17d8 <nrf_balloc_init+0x2a>
    17f0:	687b      	ldr	r3, [r7, #4]
    17f2:	681b      	ldr	r3, [r3, #0]
    17f4:	2200      	movs	r2, #0
    17f6:	711a      	strb	r2, [r3, #4]
    17f8:	2300      	movs	r3, #0
    17fa:	4618      	mov	r0, r3
    17fc:	3714      	adds	r7, #20
    17fe:	46bd      	mov	sp, r7
    1800:	f85d 7b04 	ldr.w	r7, [sp], #4
    1804:	4770      	bx	lr

00001806 <nrf_balloc_alloc>:
    1806:	b580      	push	{r7, lr}
    1808:	b084      	sub	sp, #16
    180a:	af00      	add	r7, sp, #0
    180c:	6078      	str	r0, [r7, #4]
    180e:	2300      	movs	r3, #0
    1810:	60fb      	str	r3, [r7, #12]
    1812:	2000      	movs	r0, #0
    1814:	f7ff fef8 	bl	1608 <app_util_critical_region_enter>
    1818:	687b      	ldr	r3, [r7, #4]
    181a:	681b      	ldr	r3, [r3, #0]
    181c:	681a      	ldr	r2, [r3, #0]
    181e:	687b      	ldr	r3, [r7, #4]
    1820:	685b      	ldr	r3, [r3, #4]
    1822:	429a      	cmp	r2, r3
    1824:	d91c      	bls.n	1860 <nrf_balloc_alloc+0x5a>
    1826:	687b      	ldr	r3, [r7, #4]
    1828:	681b      	ldr	r3, [r3, #0]
    182a:	681a      	ldr	r2, [r3, #0]
    182c:	3a01      	subs	r2, #1
    182e:	601a      	str	r2, [r3, #0]
    1830:	681b      	ldr	r3, [r3, #0]
    1832:	781b      	ldrb	r3, [r3, #0]
    1834:	4619      	mov	r1, r3
    1836:	6878      	ldr	r0, [r7, #4]
    1838:	f7ff ff91 	bl	175e <nrf_balloc_idx2block>
    183c:	60f8      	str	r0, [r7, #12]
    183e:	687b      	ldr	r3, [r7, #4]
    1840:	689a      	ldr	r2, [r3, #8]
    1842:	687b      	ldr	r3, [r7, #4]
    1844:	681b      	ldr	r3, [r3, #0]
    1846:	681b      	ldr	r3, [r3, #0]
    1848:	1ad3      	subs	r3, r2, r3
    184a:	72fb      	strb	r3, [r7, #11]
    184c:	687b      	ldr	r3, [r7, #4]
    184e:	681b      	ldr	r3, [r3, #0]
    1850:	791b      	ldrb	r3, [r3, #4]
    1852:	7afa      	ldrb	r2, [r7, #11]
    1854:	429a      	cmp	r2, r3
    1856:	d903      	bls.n	1860 <nrf_balloc_alloc+0x5a>
    1858:	687b      	ldr	r3, [r7, #4]
    185a:	681b      	ldr	r3, [r3, #0]
    185c:	7afa      	ldrb	r2, [r7, #11]
    185e:	711a      	strb	r2, [r3, #4]
    1860:	2000      	movs	r0, #0
    1862:	f7ff fedb 	bl	161c <app_util_critical_region_exit>
    1866:	68fb      	ldr	r3, [r7, #12]
    1868:	4618      	mov	r0, r3
    186a:	3710      	adds	r7, #16
    186c:	46bd      	mov	sp, r7
    186e:	bd80      	pop	{r7, pc}

00001870 <nrf_balloc_free>:
    1870:	b590      	push	{r4, r7, lr}
    1872:	b085      	sub	sp, #20
    1874:	af00      	add	r7, sp, #0
    1876:	6078      	str	r0, [r7, #4]
    1878:	6039      	str	r1, [r7, #0]
    187a:	683b      	ldr	r3, [r7, #0]
    187c:	60fb      	str	r3, [r7, #12]
    187e:	2000      	movs	r0, #0
    1880:	f7ff fec2 	bl	1608 <app_util_critical_region_enter>
    1884:	687b      	ldr	r3, [r7, #4]
    1886:	681b      	ldr	r3, [r3, #0]
    1888:	681c      	ldr	r4, [r3, #0]
    188a:	1c62      	adds	r2, r4, #1
    188c:	601a      	str	r2, [r3, #0]
    188e:	68f9      	ldr	r1, [r7, #12]
    1890:	6878      	ldr	r0, [r7, #4]
    1892:	f7ff ff78 	bl	1786 <nrf_balloc_block2idx>
    1896:	4603      	mov	r3, r0
    1898:	7023      	strb	r3, [r4, #0]
    189a:	2000      	movs	r0, #0
    189c:	f7ff febe 	bl	161c <app_util_critical_region_exit>
    18a0:	bf00      	nop
    18a2:	3714      	adds	r7, #20
    18a4:	46bd      	mov	sp, r7
    18a6:	bd90      	pop	{r4, r7, pc}

000018a8 <nrf_fprintf_buffer_flush>:
    18a8:	b580      	push	{r7, lr}
    18aa:	b082      	sub	sp, #8
    18ac:	af00      	add	r7, sp, #0
    18ae:	6078      	str	r0, [r7, #4]
    18b0:	687b      	ldr	r3, [r7, #4]
    18b2:	689b      	ldr	r3, [r3, #8]
    18b4:	2b00      	cmp	r3, #0
    18b6:	d00c      	beq.n	18d2 <nrf_fprintf_buffer_flush+0x2a>
    18b8:	687b      	ldr	r3, [r7, #4]
    18ba:	695b      	ldr	r3, [r3, #20]
    18bc:	687a      	ldr	r2, [r7, #4]
    18be:	6910      	ldr	r0, [r2, #16]
    18c0:	687a      	ldr	r2, [r7, #4]
    18c2:	6811      	ldr	r1, [r2, #0]
    18c4:	687a      	ldr	r2, [r7, #4]
    18c6:	6892      	ldr	r2, [r2, #8]
    18c8:	4798      	blx	r3
    18ca:	687b      	ldr	r3, [r7, #4]
    18cc:	2200      	movs	r2, #0
    18ce:	609a      	str	r2, [r3, #8]
    18d0:	e000      	b.n	18d4 <nrf_fprintf_buffer_flush+0x2c>
    18d2:	bf00      	nop
    18d4:	3708      	adds	r7, #8
    18d6:	46bd      	mov	sp, r7
    18d8:	bd80      	pop	{r7, pc}

000018da <nrf_fprintf>:
    18da:	b40e      	push	{r1, r2, r3}
    18dc:	b580      	push	{r7, lr}
    18de:	b085      	sub	sp, #20
    18e0:	af00      	add	r7, sp, #0
    18e2:	6078      	str	r0, [r7, #4]
    18e4:	69fb      	ldr	r3, [r7, #28]
    18e6:	2b00      	cmp	r3, #0
    18e8:	d00c      	beq.n	1904 <nrf_fprintf+0x2a>
    18ea:	2300      	movs	r3, #0
    18ec:	60fb      	str	r3, [r7, #12]
    18ee:	f107 0320 	add.w	r3, r7, #32
    18f2:	60fb      	str	r3, [r7, #12]
    18f4:	f107 030c 	add.w	r3, r7, #12
    18f8:	461a      	mov	r2, r3
    18fa:	69f9      	ldr	r1, [r7, #28]
    18fc:	6878      	ldr	r0, [r7, #4]
    18fe:	f000 f9af 	bl	1c60 <nrf_fprintf_fmt>
    1902:	e000      	b.n	1906 <nrf_fprintf+0x2c>
    1904:	bf00      	nop
    1906:	3714      	adds	r7, #20
    1908:	46bd      	mov	sp, r7
    190a:	e8bd 4080 	ldmia.w	sp!, {r7, lr}
    190e:	b003      	add	sp, #12
    1910:	4770      	bx	lr

00001912 <buffer_add>:
    1912:	b580      	push	{r7, lr}
    1914:	b082      	sub	sp, #8
    1916:	af00      	add	r7, sp, #0
    1918:	6078      	str	r0, [r7, #4]
    191a:	460b      	mov	r3, r1
    191c:	70fb      	strb	r3, [r7, #3]
    191e:	78fb      	ldrb	r3, [r7, #3]
    1920:	2b0a      	cmp	r3, #10
    1922:	d103      	bne.n	192c <buffer_add+0x1a>
    1924:	210d      	movs	r1, #13
    1926:	6878      	ldr	r0, [r7, #4]
    1928:	f7ff fff3 	bl	1912 <buffer_add>
    192c:	687b      	ldr	r3, [r7, #4]
    192e:	681a      	ldr	r2, [r3, #0]
    1930:	687b      	ldr	r3, [r7, #4]
    1932:	689b      	ldr	r3, [r3, #8]
    1934:	1c58      	adds	r0, r3, #1
    1936:	6879      	ldr	r1, [r7, #4]
    1938:	6088      	str	r0, [r1, #8]
    193a:	4413      	add	r3, r2
    193c:	78fa      	ldrb	r2, [r7, #3]
    193e:	701a      	strb	r2, [r3, #0]
    1940:	687b      	ldr	r3, [r7, #4]
    1942:	689a      	ldr	r2, [r3, #8]
    1944:	687b      	ldr	r3, [r7, #4]
    1946:	685b      	ldr	r3, [r3, #4]
    1948:	429a      	cmp	r2, r3
    194a:	d302      	bcc.n	1952 <buffer_add+0x40>
    194c:	6878      	ldr	r0, [r7, #4]
    194e:	f7ff ffab 	bl	18a8 <nrf_fprintf_buffer_flush>
    1952:	bf00      	nop
    1954:	3708      	adds	r7, #8
    1956:	46bd      	mov	sp, r7
    1958:	bd80      	pop	{r7, pc}

0000195a <string_print>:
    195a:	b580      	push	{r7, lr}
    195c:	b086      	sub	sp, #24
    195e:	af00      	add	r7, sp, #0
    1960:	60f8      	str	r0, [r7, #12]
    1962:	60b9      	str	r1, [r7, #8]
    1964:	607a      	str	r2, [r7, #4]
    1966:	603b      	str	r3, [r7, #0]
    1968:	2300      	movs	r3, #0
    196a:	617b      	str	r3, [r7, #20]
    196c:	683b      	ldr	r3, [r7, #0]
    196e:	f003 0301 	and.w	r3, r3, #1
    1972:	2b00      	cmp	r3, #0
    1974:	d021      	beq.n	19ba <string_print+0x60>
    1976:	e00a      	b.n	198e <string_print+0x34>
    1978:	68bb      	ldr	r3, [r7, #8]
    197a:	3301      	adds	r3, #1
    197c:	60bb      	str	r3, [r7, #8]
    197e:	697b      	ldr	r3, [r7, #20]
    1980:	3301      	adds	r3, #1
    1982:	617b      	str	r3, [r7, #20]
    1984:	7cfb      	ldrb	r3, [r7, #19]
    1986:	4619      	mov	r1, r3
    1988:	68f8      	ldr	r0, [r7, #12]
    198a:	f7ff ffc2 	bl	1912 <buffer_add>
    198e:	68bb      	ldr	r3, [r7, #8]
    1990:	781b      	ldrb	r3, [r3, #0]
    1992:	74fb      	strb	r3, [r7, #19]
    1994:	7cfb      	ldrb	r3, [r7, #19]
    1996:	2b00      	cmp	r3, #0
    1998:	d1ee      	bne.n	1978 <string_print+0x1e>
    199a:	e006      	b.n	19aa <string_print+0x50>
    199c:	687b      	ldr	r3, [r7, #4]
    199e:	3b01      	subs	r3, #1
    19a0:	607b      	str	r3, [r7, #4]
    19a2:	2120      	movs	r1, #32
    19a4:	68f8      	ldr	r0, [r7, #12]
    19a6:	f7ff ffb4 	bl	1912 <buffer_add>
    19aa:	687a      	ldr	r2, [r7, #4]
    19ac:	697b      	ldr	r3, [r7, #20]
    19ae:	429a      	cmp	r2, r3
    19b0:	d92b      	bls.n	1a0a <string_print+0xb0>
    19b2:	687b      	ldr	r3, [r7, #4]
    19b4:	2b00      	cmp	r3, #0
    19b6:	d1f1      	bne.n	199c <string_print+0x42>
    19b8:	e027      	b.n	1a0a <string_print+0xb0>
    19ba:	68bb      	ldr	r3, [r7, #8]
    19bc:	2b00      	cmp	r3, #0
    19be:	d00b      	beq.n	19d8 <string_print+0x7e>
    19c0:	68b8      	ldr	r0, [r7, #8]
    19c2:	f004 f90b 	bl	5bdc <strlen>
    19c6:	6178      	str	r0, [r7, #20]
    19c8:	e006      	b.n	19d8 <string_print+0x7e>
    19ca:	687b      	ldr	r3, [r7, #4]
    19cc:	3b01      	subs	r3, #1
    19ce:	607b      	str	r3, [r7, #4]
    19d0:	2120      	movs	r1, #32
    19d2:	68f8      	ldr	r0, [r7, #12]
    19d4:	f7ff ff9d 	bl	1912 <buffer_add>
    19d8:	687a      	ldr	r2, [r7, #4]
    19da:	697b      	ldr	r3, [r7, #20]
    19dc:	429a      	cmp	r2, r3
    19de:	d90e      	bls.n	19fe <string_print+0xa4>
    19e0:	687b      	ldr	r3, [r7, #4]
    19e2:	2b00      	cmp	r3, #0
    19e4:	d1f1      	bne.n	19ca <string_print+0x70>
    19e6:	e00a      	b.n	19fe <string_print+0xa4>
    19e8:	68bb      	ldr	r3, [r7, #8]
    19ea:	3301      	adds	r3, #1
    19ec:	60bb      	str	r3, [r7, #8]
    19ee:	697b      	ldr	r3, [r7, #20]
    19f0:	3301      	adds	r3, #1
    19f2:	617b      	str	r3, [r7, #20]
    19f4:	7cfb      	ldrb	r3, [r7, #19]
    19f6:	4619      	mov	r1, r3
    19f8:	68f8      	ldr	r0, [r7, #12]
    19fa:	f7ff ff8a 	bl	1912 <buffer_add>
    19fe:	68bb      	ldr	r3, [r7, #8]
    1a00:	781b      	ldrb	r3, [r3, #0]
    1a02:	74fb      	strb	r3, [r7, #19]
    1a04:	7cfb      	ldrb	r3, [r7, #19]
    1a06:	2b00      	cmp	r3, #0
    1a08:	d1ee      	bne.n	19e8 <string_print+0x8e>
    1a0a:	bf00      	nop
    1a0c:	3718      	adds	r7, #24
    1a0e:	46bd      	mov	sp, r7
    1a10:	bd80      	pop	{r7, pc}
	...

00001a14 <unsigned_print>:
    1a14:	b580      	push	{r7, lr}
    1a16:	b088      	sub	sp, #32
    1a18:	af00      	add	r7, sp, #0
    1a1a:	60f8      	str	r0, [r7, #12]
    1a1c:	60b9      	str	r1, [r7, #8]
    1a1e:	607a      	str	r2, [r7, #4]
    1a20:	603b      	str	r3, [r7, #0]
    1a22:	68bb      	ldr	r3, [r7, #8]
    1a24:	61fb      	str	r3, [r7, #28]
    1a26:	2301      	movs	r3, #1
    1a28:	61bb      	str	r3, [r7, #24]
    1a2a:	e007      	b.n	1a3c <unsigned_print+0x28>
    1a2c:	69fa      	ldr	r2, [r7, #28]
    1a2e:	687b      	ldr	r3, [r7, #4]
    1a30:	fbb2 f3f3 	udiv	r3, r2, r3
    1a34:	61fb      	str	r3, [r7, #28]
    1a36:	69bb      	ldr	r3, [r7, #24]
    1a38:	3301      	adds	r3, #1
    1a3a:	61bb      	str	r3, [r7, #24]
    1a3c:	69fa      	ldr	r2, [r7, #28]
    1a3e:	687b      	ldr	r3, [r7, #4]
    1a40:	429a      	cmp	r2, r3
    1a42:	d2f3      	bcs.n	1a2c <unsigned_print+0x18>
    1a44:	683a      	ldr	r2, [r7, #0]
    1a46:	69bb      	ldr	r3, [r7, #24]
    1a48:	429a      	cmp	r2, r3
    1a4a:	d901      	bls.n	1a50 <unsigned_print+0x3c>
    1a4c:	683b      	ldr	r3, [r7, #0]
    1a4e:	61bb      	str	r3, [r7, #24]
    1a50:	6afb      	ldr	r3, [r7, #44]	; 0x2c
    1a52:	f003 0301 	and.w	r3, r3, #1
    1a56:	2b00      	cmp	r3, #0
    1a58:	d11f      	bne.n	1a9a <unsigned_print+0x86>
    1a5a:	6abb      	ldr	r3, [r7, #40]	; 0x28
    1a5c:	2b00      	cmp	r3, #0
    1a5e:	d01c      	beq.n	1a9a <unsigned_print+0x86>
    1a60:	6afb      	ldr	r3, [r7, #44]	; 0x2c
    1a62:	f003 0302 	and.w	r3, r3, #2
    1a66:	2b00      	cmp	r3, #0
    1a68:	d005      	beq.n	1a76 <unsigned_print+0x62>
    1a6a:	683b      	ldr	r3, [r7, #0]
    1a6c:	2b00      	cmp	r3, #0
    1a6e:	d102      	bne.n	1a76 <unsigned_print+0x62>
    1a70:	2330      	movs	r3, #48	; 0x30
    1a72:	75fb      	strb	r3, [r7, #23]
    1a74:	e001      	b.n	1a7a <unsigned_print+0x66>
    1a76:	2320      	movs	r3, #32
    1a78:	75fb      	strb	r3, [r7, #23]
    1a7a:	e007      	b.n	1a8c <unsigned_print+0x78>
    1a7c:	6abb      	ldr	r3, [r7, #40]	; 0x28
    1a7e:	3b01      	subs	r3, #1
    1a80:	62bb      	str	r3, [r7, #40]	; 0x28
    1a82:	7dfb      	ldrb	r3, [r7, #23]
    1a84:	4619      	mov	r1, r3
    1a86:	68f8      	ldr	r0, [r7, #12]
    1a88:	f7ff ff43 	bl	1912 <buffer_add>
    1a8c:	6abb      	ldr	r3, [r7, #40]	; 0x28
    1a8e:	2b00      	cmp	r3, #0
    1a90:	d003      	beq.n	1a9a <unsigned_print+0x86>
    1a92:	69ba      	ldr	r2, [r7, #24]
    1a94:	6abb      	ldr	r3, [r7, #40]	; 0x28
    1a96:	429a      	cmp	r2, r3
    1a98:	d3f0      	bcc.n	1a7c <unsigned_print+0x68>
    1a9a:	2301      	movs	r3, #1
    1a9c:	61fb      	str	r3, [r7, #28]
    1a9e:	683b      	ldr	r3, [r7, #0]
    1aa0:	2b01      	cmp	r3, #1
    1aa2:	d903      	bls.n	1aac <unsigned_print+0x98>
    1aa4:	683b      	ldr	r3, [r7, #0]
    1aa6:	3b01      	subs	r3, #1
    1aa8:	603b      	str	r3, [r7, #0]
    1aaa:	e009      	b.n	1ac0 <unsigned_print+0xac>
    1aac:	68ba      	ldr	r2, [r7, #8]
    1aae:	69fb      	ldr	r3, [r7, #28]
    1ab0:	fbb2 f3f3 	udiv	r3, r2, r3
    1ab4:	613b      	str	r3, [r7, #16]
    1ab6:	693a      	ldr	r2, [r7, #16]
    1ab8:	687b      	ldr	r3, [r7, #4]
    1aba:	429a      	cmp	r2, r3
    1abc:	d200      	bcs.n	1ac0 <unsigned_print+0xac>
    1abe:	e005      	b.n	1acc <unsigned_print+0xb8>
    1ac0:	69fb      	ldr	r3, [r7, #28]
    1ac2:	687a      	ldr	r2, [r7, #4]
    1ac4:	fb02 f303 	mul.w	r3, r2, r3
    1ac8:	61fb      	str	r3, [r7, #28]
    1aca:	e7e8      	b.n	1a9e <unsigned_print+0x8a>
    1acc:	68ba      	ldr	r2, [r7, #8]
    1ace:	69fb      	ldr	r3, [r7, #28]
    1ad0:	fbb2 f3f3 	udiv	r3, r2, r3
    1ad4:	613b      	str	r3, [r7, #16]
    1ad6:	693b      	ldr	r3, [r7, #16]
    1ad8:	69fa      	ldr	r2, [r7, #28]
    1ada:	fb02 f303 	mul.w	r3, r2, r3
    1ade:	68ba      	ldr	r2, [r7, #8]
    1ae0:	1ad3      	subs	r3, r2, r3
    1ae2:	60bb      	str	r3, [r7, #8]
    1ae4:	4a15      	ldr	r2, [pc, #84]	; (1b3c <unsigned_print+0x128>)
    1ae6:	693b      	ldr	r3, [r7, #16]
    1ae8:	4413      	add	r3, r2
    1aea:	781b      	ldrb	r3, [r3, #0]
    1aec:	4619      	mov	r1, r3
    1aee:	68f8      	ldr	r0, [r7, #12]
    1af0:	f7ff ff0f 	bl	1912 <buffer_add>
    1af4:	69fa      	ldr	r2, [r7, #28]
    1af6:	687b      	ldr	r3, [r7, #4]
    1af8:	fbb2 f3f3 	udiv	r3, r2, r3
    1afc:	61fb      	str	r3, [r7, #28]
    1afe:	69fb      	ldr	r3, [r7, #28]
    1b00:	2b00      	cmp	r3, #0
    1b02:	d1e3      	bne.n	1acc <unsigned_print+0xb8>
    1b04:	6afb      	ldr	r3, [r7, #44]	; 0x2c
    1b06:	f003 0301 	and.w	r3, r3, #1
    1b0a:	2b00      	cmp	r3, #0
    1b0c:	d011      	beq.n	1b32 <unsigned_print+0x11e>
    1b0e:	6abb      	ldr	r3, [r7, #40]	; 0x28
    1b10:	2b00      	cmp	r3, #0
    1b12:	d00e      	beq.n	1b32 <unsigned_print+0x11e>
    1b14:	e006      	b.n	1b24 <unsigned_print+0x110>
    1b16:	6abb      	ldr	r3, [r7, #40]	; 0x28
    1b18:	3b01      	subs	r3, #1
    1b1a:	62bb      	str	r3, [r7, #40]	; 0x28
    1b1c:	2120      	movs	r1, #32
    1b1e:	68f8      	ldr	r0, [r7, #12]
    1b20:	f7ff fef7 	bl	1912 <buffer_add>
    1b24:	6abb      	ldr	r3, [r7, #40]	; 0x28
    1b26:	2b00      	cmp	r3, #0
    1b28:	d003      	beq.n	1b32 <unsigned_print+0x11e>
    1b2a:	69ba      	ldr	r2, [r7, #24]
    1b2c:	6abb      	ldr	r3, [r7, #40]	; 0x28
    1b2e:	429a      	cmp	r2, r3
    1b30:	d3f1      	bcc.n	1b16 <unsigned_print+0x102>
    1b32:	bf00      	nop
    1b34:	3720      	adds	r7, #32
    1b36:	46bd      	mov	sp, r7
    1b38:	bd80      	pop	{r7, pc}
    1b3a:	bf00      	nop
    1b3c:	00005ea8 	.word	0x00005ea8

00001b40 <int_print>:
    1b40:	b580      	push	{r7, lr}
    1b42:	b088      	sub	sp, #32
    1b44:	af02      	add	r7, sp, #8
    1b46:	60f8      	str	r0, [r7, #12]
    1b48:	60b9      	str	r1, [r7, #8]
    1b4a:	607a      	str	r2, [r7, #4]
    1b4c:	603b      	str	r3, [r7, #0]
    1b4e:	68bb      	ldr	r3, [r7, #8]
    1b50:	2b00      	cmp	r3, #0
    1b52:	bfb8      	it	lt
    1b54:	425b      	neglt	r3, r3
    1b56:	613b      	str	r3, [r7, #16]
    1b58:	2301      	movs	r3, #1
    1b5a:	617b      	str	r3, [r7, #20]
    1b5c:	e007      	b.n	1b6e <int_print+0x2e>
    1b5e:	687b      	ldr	r3, [r7, #4]
    1b60:	693a      	ldr	r2, [r7, #16]
    1b62:	fb92 f3f3 	sdiv	r3, r2, r3
    1b66:	613b      	str	r3, [r7, #16]
    1b68:	697b      	ldr	r3, [r7, #20]
    1b6a:	3301      	adds	r3, #1
    1b6c:	617b      	str	r3, [r7, #20]
    1b6e:	687b      	ldr	r3, [r7, #4]
    1b70:	693a      	ldr	r2, [r7, #16]
    1b72:	429a      	cmp	r2, r3
    1b74:	daf3      	bge.n	1b5e <int_print+0x1e>
    1b76:	683a      	ldr	r2, [r7, #0]
    1b78:	697b      	ldr	r3, [r7, #20]
    1b7a:	429a      	cmp	r2, r3
    1b7c:	d901      	bls.n	1b82 <int_print+0x42>
    1b7e:	683b      	ldr	r3, [r7, #0]
    1b80:	617b      	str	r3, [r7, #20]
    1b82:	6a3b      	ldr	r3, [r7, #32]
    1b84:	2b00      	cmp	r3, #0
    1b86:	d00a      	beq.n	1b9e <int_print+0x5e>
    1b88:	68bb      	ldr	r3, [r7, #8]
    1b8a:	2b00      	cmp	r3, #0
    1b8c:	db04      	blt.n	1b98 <int_print+0x58>
    1b8e:	6a7b      	ldr	r3, [r7, #36]	; 0x24
    1b90:	f003 0304 	and.w	r3, r3, #4
    1b94:	2b00      	cmp	r3, #0
    1b96:	d002      	beq.n	1b9e <int_print+0x5e>
    1b98:	6a3b      	ldr	r3, [r7, #32]
    1b9a:	3b01      	subs	r3, #1
    1b9c:	623b      	str	r3, [r7, #32]
    1b9e:	6a7b      	ldr	r3, [r7, #36]	; 0x24
    1ba0:	f003 0302 	and.w	r3, r3, #2
    1ba4:	2b00      	cmp	r3, #0
    1ba6:	d002      	beq.n	1bae <int_print+0x6e>
    1ba8:	683b      	ldr	r3, [r7, #0]
    1baa:	2b00      	cmp	r3, #0
    1bac:	d016      	beq.n	1bdc <int_print+0x9c>
    1bae:	6a7b      	ldr	r3, [r7, #36]	; 0x24
    1bb0:	f003 0301 	and.w	r3, r3, #1
    1bb4:	2b00      	cmp	r3, #0
    1bb6:	d111      	bne.n	1bdc <int_print+0x9c>
    1bb8:	6a3b      	ldr	r3, [r7, #32]
    1bba:	2b00      	cmp	r3, #0
    1bbc:	d00e      	beq.n	1bdc <int_print+0x9c>
    1bbe:	e006      	b.n	1bce <int_print+0x8e>
    1bc0:	6a3b      	ldr	r3, [r7, #32]
    1bc2:	3b01      	subs	r3, #1
    1bc4:	623b      	str	r3, [r7, #32]
    1bc6:	2120      	movs	r1, #32
    1bc8:	68f8      	ldr	r0, [r7, #12]
    1bca:	f7ff fea2 	bl	1912 <buffer_add>
    1bce:	6a3b      	ldr	r3, [r7, #32]
    1bd0:	2b00      	cmp	r3, #0
    1bd2:	d003      	beq.n	1bdc <int_print+0x9c>
    1bd4:	697a      	ldr	r2, [r7, #20]
    1bd6:	6a3b      	ldr	r3, [r7, #32]
    1bd8:	429a      	cmp	r2, r3
    1bda:	d3f1      	bcc.n	1bc0 <int_print+0x80>
    1bdc:	68bb      	ldr	r3, [r7, #8]
    1bde:	2b00      	cmp	r3, #0
    1be0:	da07      	bge.n	1bf2 <int_print+0xb2>
    1be2:	68bb      	ldr	r3, [r7, #8]
    1be4:	425b      	negs	r3, r3
    1be6:	60bb      	str	r3, [r7, #8]
    1be8:	212d      	movs	r1, #45	; 0x2d
    1bea:	68f8      	ldr	r0, [r7, #12]
    1bec:	f7ff fe91 	bl	1912 <buffer_add>
    1bf0:	e008      	b.n	1c04 <int_print+0xc4>
    1bf2:	6a7b      	ldr	r3, [r7, #36]	; 0x24
    1bf4:	f003 0304 	and.w	r3, r3, #4
    1bf8:	2b00      	cmp	r3, #0
    1bfa:	d003      	beq.n	1c04 <int_print+0xc4>
    1bfc:	212b      	movs	r1, #43	; 0x2b
    1bfe:	68f8      	ldr	r0, [r7, #12]
    1c00:	f7ff fe87 	bl	1912 <buffer_add>
    1c04:	6a7b      	ldr	r3, [r7, #36]	; 0x24
    1c06:	f003 0302 	and.w	r3, r3, #2
    1c0a:	2b00      	cmp	r3, #0
    1c0c:	d019      	beq.n	1c42 <int_print+0x102>
    1c0e:	6a7b      	ldr	r3, [r7, #36]	; 0x24
    1c10:	f003 0301 	and.w	r3, r3, #1
    1c14:	2b00      	cmp	r3, #0
    1c16:	d114      	bne.n	1c42 <int_print+0x102>
    1c18:	683b      	ldr	r3, [r7, #0]
    1c1a:	2b00      	cmp	r3, #0
    1c1c:	d111      	bne.n	1c42 <int_print+0x102>
    1c1e:	6a3b      	ldr	r3, [r7, #32]
    1c20:	2b00      	cmp	r3, #0
    1c22:	d00e      	beq.n	1c42 <int_print+0x102>
    1c24:	e006      	b.n	1c34 <int_print+0xf4>
    1c26:	6a3b      	ldr	r3, [r7, #32]
    1c28:	3b01      	subs	r3, #1
    1c2a:	623b      	str	r3, [r7, #32]
    1c2c:	2130      	movs	r1, #48	; 0x30
    1c2e:	68f8      	ldr	r0, [r7, #12]
    1c30:	f7ff fe6f 	bl	1912 <buffer_add>
    1c34:	6a3b      	ldr	r3, [r7, #32]
    1c36:	2b00      	cmp	r3, #0
    1c38:	d003      	beq.n	1c42 <int_print+0x102>
    1c3a:	697a      	ldr	r2, [r7, #20]
    1c3c:	6a3b      	ldr	r3, [r7, #32]
    1c3e:	429a      	cmp	r2, r3
    1c40:	d3f1      	bcc.n	1c26 <int_print+0xe6>
    1c42:	68b9      	ldr	r1, [r7, #8]
    1c44:	6a7b      	ldr	r3, [r7, #36]	; 0x24
    1c46:	9301      	str	r3, [sp, #4]
    1c48:	6a3b      	ldr	r3, [r7, #32]
    1c4a:	9300      	str	r3, [sp, #0]
    1c4c:	683b      	ldr	r3, [r7, #0]
    1c4e:	687a      	ldr	r2, [r7, #4]
    1c50:	68f8      	ldr	r0, [r7, #12]
    1c52:	f7ff fedf 	bl	1a14 <unsigned_print>
    1c56:	bf00      	nop
    1c58:	3718      	adds	r7, #24
    1c5a:	46bd      	mov	sp, r7
    1c5c:	bd80      	pop	{r7, pc}
	...

00001c60 <nrf_fprintf_fmt>:
    1c60:	b580      	push	{r7, lr}
    1c62:	b08e      	sub	sp, #56	; 0x38
    1c64:	af02      	add	r7, sp, #8
    1c66:	60f8      	str	r0, [r7, #12]
    1c68:	60b9      	str	r1, [r7, #8]
    1c6a:	607a      	str	r2, [r7, #4]
    1c6c:	68bb      	ldr	r3, [r7, #8]
    1c6e:	2b00      	cmp	r3, #0
    1c70:	f000 818e 	beq.w	1f90 <nrf_fprintf_fmt+0x330>
    1c74:	68bb      	ldr	r3, [r7, #8]
    1c76:	781b      	ldrb	r3, [r3, #0]
    1c78:	f887 302f 	strb.w	r3, [r7, #47]	; 0x2f
    1c7c:	68bb      	ldr	r3, [r7, #8]
    1c7e:	3301      	adds	r3, #1
    1c80:	60bb      	str	r3, [r7, #8]
    1c82:	f897 302f 	ldrb.w	r3, [r7, #47]	; 0x2f
    1c86:	2b00      	cmp	r3, #0
    1c88:	f000 8179 	beq.w	1f7e <nrf_fprintf_fmt+0x31e>
    1c8c:	f897 302f 	ldrb.w	r3, [r7, #47]	; 0x2f
    1c90:	2b25      	cmp	r3, #37	; 0x25
    1c92:	f040 8168 	bne.w	1f66 <nrf_fprintf_fmt+0x306>
    1c96:	2300      	movs	r3, #0
    1c98:	623b      	str	r3, [r7, #32]
    1c9a:	2301      	movs	r3, #1
    1c9c:	62bb      	str	r3, [r7, #40]	; 0x28
    1c9e:	68bb      	ldr	r3, [r7, #8]
    1ca0:	781b      	ldrb	r3, [r3, #0]
    1ca2:	f887 302f 	strb.w	r3, [r7, #47]	; 0x2f
    1ca6:	f897 302f 	ldrb.w	r3, [r7, #47]	; 0x2f
    1caa:	2b30      	cmp	r3, #48	; 0x30
    1cac:	d00d      	beq.n	1cca <nrf_fprintf_fmt+0x6a>
    1cae:	2b30      	cmp	r3, #48	; 0x30
    1cb0:	dc1b      	bgt.n	1cea <nrf_fprintf_fmt+0x8a>
    1cb2:	2b2b      	cmp	r3, #43	; 0x2b
    1cb4:	d011      	beq.n	1cda <nrf_fprintf_fmt+0x7a>
    1cb6:	2b2d      	cmp	r3, #45	; 0x2d
    1cb8:	d117      	bne.n	1cea <nrf_fprintf_fmt+0x8a>
    1cba:	6a3b      	ldr	r3, [r7, #32]
    1cbc:	f043 0301 	orr.w	r3, r3, #1
    1cc0:	623b      	str	r3, [r7, #32]
    1cc2:	68bb      	ldr	r3, [r7, #8]
    1cc4:	3301      	adds	r3, #1
    1cc6:	60bb      	str	r3, [r7, #8]
    1cc8:	e012      	b.n	1cf0 <nrf_fprintf_fmt+0x90>
    1cca:	6a3b      	ldr	r3, [r7, #32]
    1ccc:	f043 0302 	orr.w	r3, r3, #2
    1cd0:	623b      	str	r3, [r7, #32]
    1cd2:	68bb      	ldr	r3, [r7, #8]
    1cd4:	3301      	adds	r3, #1
    1cd6:	60bb      	str	r3, [r7, #8]
    1cd8:	e00a      	b.n	1cf0 <nrf_fprintf_fmt+0x90>
    1cda:	6a3b      	ldr	r3, [r7, #32]
    1cdc:	f043 0304 	orr.w	r3, r3, #4
    1ce0:	623b      	str	r3, [r7, #32]
    1ce2:	68bb      	ldr	r3, [r7, #8]
    1ce4:	3301      	adds	r3, #1
    1ce6:	60bb      	str	r3, [r7, #8]
    1ce8:	e002      	b.n	1cf0 <nrf_fprintf_fmt+0x90>
    1cea:	2300      	movs	r3, #0
    1cec:	62bb      	str	r3, [r7, #40]	; 0x28
    1cee:	bf00      	nop
    1cf0:	6abb      	ldr	r3, [r7, #40]	; 0x28
    1cf2:	2b00      	cmp	r3, #0
    1cf4:	d1d3      	bne.n	1c9e <nrf_fprintf_fmt+0x3e>
    1cf6:	2300      	movs	r3, #0
    1cf8:	61fb      	str	r3, [r7, #28]
    1cfa:	f897 302f 	ldrb.w	r3, [r7, #47]	; 0x2f
    1cfe:	2b2a      	cmp	r3, #42	; 0x2a
    1d00:	d10c      	bne.n	1d1c <nrf_fprintf_fmt+0xbc>
    1d02:	687b      	ldr	r3, [r7, #4]
    1d04:	681b      	ldr	r3, [r3, #0]
    1d06:	1d19      	adds	r1, r3, #4
    1d08:	687a      	ldr	r2, [r7, #4]
    1d0a:	6011      	str	r1, [r2, #0]
    1d0c:	681b      	ldr	r3, [r3, #0]
    1d0e:	69fa      	ldr	r2, [r7, #28]
    1d10:	4413      	add	r3, r2
    1d12:	61fb      	str	r3, [r7, #28]
    1d14:	68bb      	ldr	r3, [r7, #8]
    1d16:	3301      	adds	r3, #1
    1d18:	60bb      	str	r3, [r7, #8]
    1d1a:	e01a      	b.n	1d52 <nrf_fprintf_fmt+0xf2>
    1d1c:	68bb      	ldr	r3, [r7, #8]
    1d1e:	781b      	ldrb	r3, [r3, #0]
    1d20:	f887 302f 	strb.w	r3, [r7, #47]	; 0x2f
    1d24:	f897 302f 	ldrb.w	r3, [r7, #47]	; 0x2f
    1d28:	2b2f      	cmp	r3, #47	; 0x2f
    1d2a:	d912      	bls.n	1d52 <nrf_fprintf_fmt+0xf2>
    1d2c:	f897 302f 	ldrb.w	r3, [r7, #47]	; 0x2f
    1d30:	2b39      	cmp	r3, #57	; 0x39
    1d32:	d80e      	bhi.n	1d52 <nrf_fprintf_fmt+0xf2>
    1d34:	68bb      	ldr	r3, [r7, #8]
    1d36:	3301      	adds	r3, #1
    1d38:	60bb      	str	r3, [r7, #8]
    1d3a:	69fa      	ldr	r2, [r7, #28]
    1d3c:	4613      	mov	r3, r2
    1d3e:	009b      	lsls	r3, r3, #2
    1d40:	4413      	add	r3, r2
    1d42:	005b      	lsls	r3, r3, #1
    1d44:	461a      	mov	r2, r3
    1d46:	f897 302f 	ldrb.w	r3, [r7, #47]	; 0x2f
    1d4a:	4413      	add	r3, r2
    1d4c:	3b30      	subs	r3, #48	; 0x30
    1d4e:	61fb      	str	r3, [r7, #28]
    1d50:	e7d3      	b.n	1cfa <nrf_fprintf_fmt+0x9a>
    1d52:	2300      	movs	r3, #0
    1d54:	627b      	str	r3, [r7, #36]	; 0x24
    1d56:	68bb      	ldr	r3, [r7, #8]
    1d58:	781b      	ldrb	r3, [r3, #0]
    1d5a:	f887 302f 	strb.w	r3, [r7, #47]	; 0x2f
    1d5e:	f897 302f 	ldrb.w	r3, [r7, #47]	; 0x2f
    1d62:	2b2e      	cmp	r3, #46	; 0x2e
    1d64:	d11d      	bne.n	1da2 <nrf_fprintf_fmt+0x142>
    1d66:	68bb      	ldr	r3, [r7, #8]
    1d68:	3301      	adds	r3, #1
    1d6a:	60bb      	str	r3, [r7, #8]
    1d6c:	68bb      	ldr	r3, [r7, #8]
    1d6e:	781b      	ldrb	r3, [r3, #0]
    1d70:	f887 302f 	strb.w	r3, [r7, #47]	; 0x2f
    1d74:	f897 302f 	ldrb.w	r3, [r7, #47]	; 0x2f
    1d78:	2b2f      	cmp	r3, #47	; 0x2f
    1d7a:	d912      	bls.n	1da2 <nrf_fprintf_fmt+0x142>
    1d7c:	f897 302f 	ldrb.w	r3, [r7, #47]	; 0x2f
    1d80:	2b39      	cmp	r3, #57	; 0x39
    1d82:	d80e      	bhi.n	1da2 <nrf_fprintf_fmt+0x142>
    1d84:	68bb      	ldr	r3, [r7, #8]
    1d86:	3301      	adds	r3, #1
    1d88:	60bb      	str	r3, [r7, #8]
    1d8a:	6a7a      	ldr	r2, [r7, #36]	; 0x24
    1d8c:	4613      	mov	r3, r2
    1d8e:	009b      	lsls	r3, r3, #2
    1d90:	4413      	add	r3, r2
    1d92:	005b      	lsls	r3, r3, #1
    1d94:	461a      	mov	r2, r3
    1d96:	f897 302f 	ldrb.w	r3, [r7, #47]	; 0x2f
    1d9a:	4413      	add	r3, r2
    1d9c:	3b30      	subs	r3, #48	; 0x30
    1d9e:	627b      	str	r3, [r7, #36]	; 0x24
    1da0:	e7e4      	b.n	1d6c <nrf_fprintf_fmt+0x10c>
    1da2:	68bb      	ldr	r3, [r7, #8]
    1da4:	781b      	ldrb	r3, [r3, #0]
    1da6:	f887 302f 	strb.w	r3, [r7, #47]	; 0x2f
    1daa:	f897 302f 	ldrb.w	r3, [r7, #47]	; 0x2f
    1dae:	2b6c      	cmp	r3, #108	; 0x6c
    1db0:	d003      	beq.n	1dba <nrf_fprintf_fmt+0x15a>
    1db2:	f897 302f 	ldrb.w	r3, [r7, #47]	; 0x2f
    1db6:	2b68      	cmp	r3, #104	; 0x68
    1db8:	d107      	bne.n	1dca <nrf_fprintf_fmt+0x16a>
    1dba:	68bb      	ldr	r3, [r7, #8]
    1dbc:	3301      	adds	r3, #1
    1dbe:	60bb      	str	r3, [r7, #8]
    1dc0:	68bb      	ldr	r3, [r7, #8]
    1dc2:	781b      	ldrb	r3, [r3, #0]
    1dc4:	f887 302f 	strb.w	r3, [r7, #47]	; 0x2f
    1dc8:	e7ef      	b.n	1daa <nrf_fprintf_fmt+0x14a>
    1dca:	f897 302f 	ldrb.w	r3, [r7, #47]	; 0x2f
    1dce:	2b25      	cmp	r3, #37	; 0x25
    1dd0:	f000 80bf 	beq.w	1f52 <nrf_fprintf_fmt+0x2f2>
    1dd4:	2b25      	cmp	r3, #37	; 0x25
    1dd6:	f2c0 80c1 	blt.w	1f5c <nrf_fprintf_fmt+0x2fc>
    1dda:	2b78      	cmp	r3, #120	; 0x78
    1ddc:	f300 80be 	bgt.w	1f5c <nrf_fprintf_fmt+0x2fc>
    1de0:	2b58      	cmp	r3, #88	; 0x58
    1de2:	f2c0 80bb 	blt.w	1f5c <nrf_fprintf_fmt+0x2fc>
    1de6:	3b58      	subs	r3, #88	; 0x58
    1de8:	2b20      	cmp	r3, #32
    1dea:	f200 80b7 	bhi.w	1f5c <nrf_fprintf_fmt+0x2fc>
    1dee:	a201      	add	r2, pc, #4	; (adr r2, 1df4 <nrf_fprintf_fmt+0x194>)
    1df0:	f852 f023 	ldr.w	pc, [r2, r3, lsl #2]
    1df4:	00001edf 	.word	0x00001edf
    1df8:	00001f5d 	.word	0x00001f5d
    1dfc:	00001f5d 	.word	0x00001f5d
    1e00:	00001f5d 	.word	0x00001f5d
    1e04:	00001f5d 	.word	0x00001f5d
    1e08:	00001f5d 	.word	0x00001f5d
    1e0c:	00001f5d 	.word	0x00001f5d
    1e10:	00001f5d 	.word	0x00001f5d
    1e14:	00001f5d 	.word	0x00001f5d
    1e18:	00001f5d 	.word	0x00001f5d
    1e1c:	00001f5d 	.word	0x00001f5d
    1e20:	00001e79 	.word	0x00001e79
    1e24:	00001e97 	.word	0x00001e97
    1e28:	00001f5d 	.word	0x00001f5d
    1e2c:	00001f5d 	.word	0x00001f5d
    1e30:	00001f5d 	.word	0x00001f5d
    1e34:	00001f5d 	.word	0x00001f5d
    1e38:	00001e97 	.word	0x00001e97
    1e3c:	00001f5d 	.word	0x00001f5d
    1e40:	00001f5d 	.word	0x00001f5d
    1e44:	00001f5d 	.word	0x00001f5d
    1e48:	00001f5d 	.word	0x00001f5d
    1e4c:	00001f5d 	.word	0x00001f5d
    1e50:	00001f5d 	.word	0x00001f5d
    1e54:	00001f1f 	.word	0x00001f1f
    1e58:	00001f5d 	.word	0x00001f5d
    1e5c:	00001f5d 	.word	0x00001f5d
    1e60:	00001f03 	.word	0x00001f03
    1e64:	00001f5d 	.word	0x00001f5d
    1e68:	00001ebb 	.word	0x00001ebb
    1e6c:	00001f5d 	.word	0x00001f5d
    1e70:	00001f5d 	.word	0x00001f5d
    1e74:	00001edf 	.word	0x00001edf
    1e78:	687b      	ldr	r3, [r7, #4]
    1e7a:	681b      	ldr	r3, [r3, #0]
    1e7c:	1d19      	adds	r1, r3, #4
    1e7e:	687a      	ldr	r2, [r7, #4]
    1e80:	6011      	str	r1, [r2, #0]
    1e82:	681b      	ldr	r3, [r3, #0]
    1e84:	62bb      	str	r3, [r7, #40]	; 0x28
    1e86:	6abb      	ldr	r3, [r7, #40]	; 0x28
    1e88:	75fb      	strb	r3, [r7, #23]
    1e8a:	7dfb      	ldrb	r3, [r7, #23]
    1e8c:	4619      	mov	r1, r3
    1e8e:	68f8      	ldr	r0, [r7, #12]
    1e90:	f7ff fd3f 	bl	1912 <buffer_add>
    1e94:	e063      	b.n	1f5e <nrf_fprintf_fmt+0x2fe>
    1e96:	687b      	ldr	r3, [r7, #4]
    1e98:	681b      	ldr	r3, [r3, #0]
    1e9a:	1d19      	adds	r1, r3, #4
    1e9c:	687a      	ldr	r2, [r7, #4]
    1e9e:	6011      	str	r1, [r2, #0]
    1ea0:	681b      	ldr	r3, [r3, #0]
    1ea2:	62bb      	str	r3, [r7, #40]	; 0x28
    1ea4:	6a3b      	ldr	r3, [r7, #32]
    1ea6:	9301      	str	r3, [sp, #4]
    1ea8:	69fb      	ldr	r3, [r7, #28]
    1eaa:	9300      	str	r3, [sp, #0]
    1eac:	6a7b      	ldr	r3, [r7, #36]	; 0x24
    1eae:	220a      	movs	r2, #10
    1eb0:	6ab9      	ldr	r1, [r7, #40]	; 0x28
    1eb2:	68f8      	ldr	r0, [r7, #12]
    1eb4:	f7ff fe44 	bl	1b40 <int_print>
    1eb8:	e051      	b.n	1f5e <nrf_fprintf_fmt+0x2fe>
    1eba:	687b      	ldr	r3, [r7, #4]
    1ebc:	681b      	ldr	r3, [r3, #0]
    1ebe:	1d19      	adds	r1, r3, #4
    1ec0:	687a      	ldr	r2, [r7, #4]
    1ec2:	6011      	str	r1, [r2, #0]
    1ec4:	681b      	ldr	r3, [r3, #0]
    1ec6:	62bb      	str	r3, [r7, #40]	; 0x28
    1ec8:	6ab9      	ldr	r1, [r7, #40]	; 0x28
    1eca:	6a3b      	ldr	r3, [r7, #32]
    1ecc:	9301      	str	r3, [sp, #4]
    1ece:	69fb      	ldr	r3, [r7, #28]
    1ed0:	9300      	str	r3, [sp, #0]
    1ed2:	6a7b      	ldr	r3, [r7, #36]	; 0x24
    1ed4:	220a      	movs	r2, #10
    1ed6:	68f8      	ldr	r0, [r7, #12]
    1ed8:	f7ff fd9c 	bl	1a14 <unsigned_print>
    1edc:	e03f      	b.n	1f5e <nrf_fprintf_fmt+0x2fe>
    1ede:	687b      	ldr	r3, [r7, #4]
    1ee0:	681b      	ldr	r3, [r3, #0]
    1ee2:	1d19      	adds	r1, r3, #4
    1ee4:	687a      	ldr	r2, [r7, #4]
    1ee6:	6011      	str	r1, [r2, #0]
    1ee8:	681b      	ldr	r3, [r3, #0]
    1eea:	62bb      	str	r3, [r7, #40]	; 0x28
    1eec:	6ab9      	ldr	r1, [r7, #40]	; 0x28
    1eee:	6a3b      	ldr	r3, [r7, #32]
    1ef0:	9301      	str	r3, [sp, #4]
    1ef2:	69fb      	ldr	r3, [r7, #28]
    1ef4:	9300      	str	r3, [sp, #0]
    1ef6:	6a7b      	ldr	r3, [r7, #36]	; 0x24
    1ef8:	2210      	movs	r2, #16
    1efa:	68f8      	ldr	r0, [r7, #12]
    1efc:	f7ff fd8a 	bl	1a14 <unsigned_print>
    1f00:	e02d      	b.n	1f5e <nrf_fprintf_fmt+0x2fe>
    1f02:	687b      	ldr	r3, [r7, #4]
    1f04:	681b      	ldr	r3, [r3, #0]
    1f06:	1d19      	adds	r1, r3, #4
    1f08:	687a      	ldr	r2, [r7, #4]
    1f0a:	6011      	str	r1, [r2, #0]
    1f0c:	681b      	ldr	r3, [r3, #0]
    1f0e:	61bb      	str	r3, [r7, #24]
    1f10:	6a3b      	ldr	r3, [r7, #32]
    1f12:	69fa      	ldr	r2, [r7, #28]
    1f14:	69b9      	ldr	r1, [r7, #24]
    1f16:	68f8      	ldr	r0, [r7, #12]
    1f18:	f7ff fd1f 	bl	195a <string_print>
    1f1c:	e01f      	b.n	1f5e <nrf_fprintf_fmt+0x2fe>
    1f1e:	687b      	ldr	r3, [r7, #4]
    1f20:	681b      	ldr	r3, [r3, #0]
    1f22:	1d19      	adds	r1, r3, #4
    1f24:	687a      	ldr	r2, [r7, #4]
    1f26:	6011      	str	r1, [r2, #0]
    1f28:	681b      	ldr	r3, [r3, #0]
    1f2a:	62bb      	str	r3, [r7, #40]	; 0x28
    1f2c:	2130      	movs	r1, #48	; 0x30
    1f2e:	68f8      	ldr	r0, [r7, #12]
    1f30:	f7ff fcef 	bl	1912 <buffer_add>
    1f34:	2178      	movs	r1, #120	; 0x78
    1f36:	68f8      	ldr	r0, [r7, #12]
    1f38:	f7ff fceb 	bl	1912 <buffer_add>
    1f3c:	6ab9      	ldr	r1, [r7, #40]	; 0x28
    1f3e:	2300      	movs	r3, #0
    1f40:	9301      	str	r3, [sp, #4]
    1f42:	2308      	movs	r3, #8
    1f44:	9300      	str	r3, [sp, #0]
    1f46:	2308      	movs	r3, #8
    1f48:	2210      	movs	r2, #16
    1f4a:	68f8      	ldr	r0, [r7, #12]
    1f4c:	f7ff fd62 	bl	1a14 <unsigned_print>
    1f50:	e005      	b.n	1f5e <nrf_fprintf_fmt+0x2fe>
    1f52:	2125      	movs	r1, #37	; 0x25
    1f54:	68f8      	ldr	r0, [r7, #12]
    1f56:	f7ff fcdc 	bl	1912 <buffer_add>
    1f5a:	e000      	b.n	1f5e <nrf_fprintf_fmt+0x2fe>
    1f5c:	bf00      	nop
    1f5e:	68bb      	ldr	r3, [r7, #8]
    1f60:	3301      	adds	r3, #1
    1f62:	60bb      	str	r3, [r7, #8]
    1f64:	e005      	b.n	1f72 <nrf_fprintf_fmt+0x312>
    1f66:	f897 302f 	ldrb.w	r3, [r7, #47]	; 0x2f
    1f6a:	4619      	mov	r1, r3
    1f6c:	68f8      	ldr	r0, [r7, #12]
    1f6e:	f7ff fcd0 	bl	1912 <buffer_add>
    1f72:	68bb      	ldr	r3, [r7, #8]
    1f74:	781b      	ldrb	r3, [r3, #0]
    1f76:	2b00      	cmp	r3, #0
    1f78:	f47f ae7c 	bne.w	1c74 <nrf_fprintf_fmt+0x14>
    1f7c:	e000      	b.n	1f80 <nrf_fprintf_fmt+0x320>
    1f7e:	bf00      	nop
    1f80:	68fb      	ldr	r3, [r7, #12]
    1f82:	7b1b      	ldrb	r3, [r3, #12]
    1f84:	2b00      	cmp	r3, #0
    1f86:	d004      	beq.n	1f92 <nrf_fprintf_fmt+0x332>
    1f88:	68f8      	ldr	r0, [r7, #12]
    1f8a:	f7ff fc8d 	bl	18a8 <nrf_fprintf_buffer_flush>
    1f8e:	e000      	b.n	1f92 <nrf_fprintf_fmt+0x332>
    1f90:	bf00      	nop
    1f92:	3730      	adds	r7, #48	; 0x30
    1f94:	46bd      	mov	sp, r7
    1f96:	bd80      	pop	{r7, pc}

00001f98 <nrf_memobj_pool_init>:
    1f98:	b580      	push	{r7, lr}
    1f9a:	b082      	sub	sp, #8
    1f9c:	af00      	add	r7, sp, #0
    1f9e:	6078      	str	r0, [r7, #4]
    1fa0:	6878      	ldr	r0, [r7, #4]
    1fa2:	f7ff fc04 	bl	17ae <nrf_balloc_init>
    1fa6:	4603      	mov	r3, r0
    1fa8:	4618      	mov	r0, r3
    1faa:	3708      	adds	r7, #8
    1fac:	46bd      	mov	sp, r7
    1fae:	bd80      	pop	{r7, pc}

00001fb0 <nrf_memobj_alloc>:
    1fb0:	b580      	push	{r7, lr}
    1fb2:	b08a      	sub	sp, #40	; 0x28
    1fb4:	af00      	add	r7, sp, #0
    1fb6:	6078      	str	r0, [r7, #4]
    1fb8:	6039      	str	r1, [r7, #0]
    1fba:	687b      	ldr	r3, [r7, #4]
    1fbc:	8a1b      	ldrh	r3, [r3, #16]
    1fbe:	3b04      	subs	r3, #4
    1fc0:	61fb      	str	r3, [r7, #28]
    1fc2:	683a      	ldr	r2, [r7, #0]
    1fc4:	69fb      	ldr	r3, [r7, #28]
    1fc6:	4413      	add	r3, r2
    1fc8:	1cda      	adds	r2, r3, #3
    1fca:	69fb      	ldr	r3, [r7, #28]
    1fcc:	fbb2 f3f3 	udiv	r3, r2, r3
    1fd0:	76fb      	strb	r3, [r7, #27]
    1fd2:	6878      	ldr	r0, [r7, #4]
    1fd4:	f7ff fc17 	bl	1806 <nrf_balloc_alloc>
    1fd8:	6178      	str	r0, [r7, #20]
    1fda:	697b      	ldr	r3, [r7, #20]
    1fdc:	2b00      	cmp	r3, #0
    1fde:	d101      	bne.n	1fe4 <nrf_memobj_alloc+0x34>
    1fe0:	2300      	movs	r3, #0
    1fe2:	e037      	b.n	2054 <Heap_Size+0x54>
    1fe4:	697b      	ldr	r3, [r7, #20]
    1fe6:	2200      	movs	r2, #0
    1fe8:	711a      	strb	r2, [r3, #4]
    1fea:	697b      	ldr	r3, [r7, #20]
    1fec:	2201      	movs	r2, #1
    1fee:	715a      	strb	r2, [r3, #5]
    1ff0:	69fb      	ldr	r3, [r7, #28]
    1ff2:	b29a      	uxth	r2, r3
    1ff4:	697b      	ldr	r3, [r7, #20]
    1ff6:	80da      	strh	r2, [r3, #6]
    1ff8:	697b      	ldr	r3, [r7, #20]
    1ffa:	627b      	str	r3, [r7, #36]	; 0x24
    1ffc:	7efb      	ldrb	r3, [r7, #27]
    1ffe:	3b01      	subs	r3, #1
    2000:	613b      	str	r3, [r7, #16]
    2002:	6a7b      	ldr	r3, [r7, #36]	; 0x24
    2004:	687a      	ldr	r2, [r7, #4]
    2006:	601a      	str	r2, [r3, #0]
    2008:	2300      	movs	r3, #0
    200a:	623b      	str	r3, [r7, #32]
    200c:	e01d      	b.n	204a <Heap_Size+0x4a>
    200e:	6878      	ldr	r0, [r7, #4]
    2010:	f7ff fbf9 	bl	1806 <nrf_balloc_alloc>
    2014:	60f8      	str	r0, [r7, #12]
    2016:	68fb      	ldr	r3, [r7, #12]
    2018:	2b00      	cmp	r3, #0
    201a:	d00e      	beq.n	203a <Heap_Size+0x3a>
    201c:	697b      	ldr	r3, [r7, #20]
    201e:	795b      	ldrb	r3, [r3, #5]
    2020:	3301      	adds	r3, #1
    2022:	b2da      	uxtb	r2, r3
    2024:	697b      	ldr	r3, [r7, #20]
    2026:	715a      	strb	r2, [r3, #5]
    2028:	6a7b      	ldr	r3, [r7, #36]	; 0x24
    202a:	68fa      	ldr	r2, [r7, #12]
    202c:	601a      	str	r2, [r3, #0]
    202e:	68fb      	ldr	r3, [r7, #12]
    2030:	687a      	ldr	r2, [r7, #4]
    2032:	601a      	str	r2, [r3, #0]
    2034:	68fb      	ldr	r3, [r7, #12]
    2036:	627b      	str	r3, [r7, #36]	; 0x24
    2038:	e004      	b.n	2044 <Heap_Size+0x44>
    203a:	6978      	ldr	r0, [r7, #20]
    203c:	f000 f80e 	bl	205c <nrf_memobj_free>
    2040:	2300      	movs	r3, #0
    2042:	e007      	b.n	2054 <Heap_Size+0x54>
    2044:	6a3b      	ldr	r3, [r7, #32]
    2046:	3301      	adds	r3, #1
    2048:	623b      	str	r3, [r7, #32]
    204a:	6a3a      	ldr	r2, [r7, #32]
    204c:	693b      	ldr	r3, [r7, #16]
    204e:	429a      	cmp	r2, r3
    2050:	d3dd      	bcc.n	200e <Heap_Size+0xe>
    2052:	697b      	ldr	r3, [r7, #20]
    2054:	4618      	mov	r0, r3
    2056:	3728      	adds	r7, #40	; 0x28
    2058:	46bd      	mov	sp, r7
    205a:	bd80      	pop	{r7, pc}

0000205c <nrf_memobj_free>:
    205c:	b580      	push	{r7, lr}
    205e:	b08a      	sub	sp, #40	; 0x28
    2060:	af00      	add	r7, sp, #0
    2062:	6078      	str	r0, [r7, #4]
    2064:	687b      	ldr	r3, [r7, #4]
    2066:	61fb      	str	r3, [r7, #28]
    2068:	69fb      	ldr	r3, [r7, #28]
    206a:	795b      	ldrb	r3, [r3, #5]
    206c:	76fb      	strb	r3, [r7, #27]
    206e:	687b      	ldr	r3, [r7, #4]
    2070:	623b      	str	r3, [r7, #32]
    2072:	7efb      	ldrb	r3, [r7, #27]
    2074:	3b01      	subs	r3, #1
    2076:	617b      	str	r3, [r7, #20]
    2078:	2300      	movs	r3, #0
    207a:	627b      	str	r3, [r7, #36]	; 0x24
    207c:	e005      	b.n	208a <nrf_memobj_free+0x2e>
    207e:	6a3b      	ldr	r3, [r7, #32]
    2080:	681b      	ldr	r3, [r3, #0]
    2082:	623b      	str	r3, [r7, #32]
    2084:	6a7b      	ldr	r3, [r7, #36]	; 0x24
    2086:	3301      	adds	r3, #1
    2088:	627b      	str	r3, [r7, #36]	; 0x24
    208a:	6a7a      	ldr	r2, [r7, #36]	; 0x24
    208c:	697b      	ldr	r3, [r7, #20]
    208e:	429a      	cmp	r2, r3
    2090:	d3f5      	bcc.n	207e <nrf_memobj_free+0x22>
    2092:	6a3b      	ldr	r3, [r7, #32]
    2094:	681b      	ldr	r3, [r3, #0]
    2096:	613b      	str	r3, [r7, #16]
    2098:	687b      	ldr	r3, [r7, #4]
    209a:	623b      	str	r3, [r7, #32]
    209c:	2300      	movs	r3, #0
    209e:	627b      	str	r3, [r7, #36]	; 0x24
    20a0:	e00b      	b.n	20ba <nrf_memobj_free+0x5e>
    20a2:	6a3b      	ldr	r3, [r7, #32]
    20a4:	681b      	ldr	r3, [r3, #0]
    20a6:	60fb      	str	r3, [r7, #12]
    20a8:	6a39      	ldr	r1, [r7, #32]
    20aa:	6938      	ldr	r0, [r7, #16]
    20ac:	f7ff fbe0 	bl	1870 <nrf_balloc_free>
    20b0:	68fb      	ldr	r3, [r7, #12]
    20b2:	623b      	str	r3, [r7, #32]
    20b4:	6a7b      	ldr	r3, [r7, #36]	; 0x24
    20b6:	3301      	adds	r3, #1
    20b8:	627b      	str	r3, [r7, #36]	; 0x24
    20ba:	7efb      	ldrb	r3, [r7, #27]
    20bc:	6a7a      	ldr	r2, [r7, #36]	; 0x24
    20be:	429a      	cmp	r2, r3
    20c0:	d3ef      	bcc.n	20a2 <nrf_memobj_free+0x46>
    20c2:	bf00      	nop
    20c4:	bf00      	nop
    20c6:	3728      	adds	r7, #40	; 0x28
    20c8:	46bd      	mov	sp, r7
    20ca:	bd80      	pop	{r7, pc}

000020cc <nrf_memobj_get>:
    20cc:	b580      	push	{r7, lr}
    20ce:	b084      	sub	sp, #16
    20d0:	af00      	add	r7, sp, #0
    20d2:	6078      	str	r0, [r7, #4]
    20d4:	687b      	ldr	r3, [r7, #4]
    20d6:	60fb      	str	r3, [r7, #12]
    20d8:	68fb      	ldr	r3, [r7, #12]
    20da:	3304      	adds	r3, #4
    20dc:	2101      	movs	r1, #1
    20de:	4618      	mov	r0, r3
    20e0:	f7ff faf1 	bl	16c6 <nrf_atomic_u32_add>
    20e4:	bf00      	nop
    20e6:	3710      	adds	r7, #16
    20e8:	46bd      	mov	sp, r7
    20ea:	bd80      	pop	{r7, pc}

000020ec <nrf_memobj_put>:
    20ec:	b580      	push	{r7, lr}
    20ee:	b086      	sub	sp, #24
    20f0:	af00      	add	r7, sp, #0
    20f2:	6078      	str	r0, [r7, #4]
    20f4:	687b      	ldr	r3, [r7, #4]
    20f6:	617b      	str	r3, [r7, #20]
    20f8:	697b      	ldr	r3, [r7, #20]
    20fa:	3304      	adds	r3, #4
    20fc:	2101      	movs	r1, #1
    20fe:	4618      	mov	r0, r3
    2100:	f7ff fafa 	bl	16f8 <nrf_atomic_u32_sub>
    2104:	4603      	mov	r3, r0
    2106:	60fb      	str	r3, [r7, #12]
    2108:	f107 030c 	add.w	r3, r7, #12
    210c:	613b      	str	r3, [r7, #16]
    210e:	693b      	ldr	r3, [r7, #16]
    2110:	781b      	ldrb	r3, [r3, #0]
    2112:	2b00      	cmp	r3, #0
    2114:	d102      	bne.n	211c <nrf_memobj_put+0x30>
    2116:	6878      	ldr	r0, [r7, #4]
    2118:	f7ff ffa0 	bl	205c <nrf_memobj_free>
    211c:	bf00      	nop
    211e:	3718      	adds	r7, #24
    2120:	46bd      	mov	sp, r7
    2122:	bd80      	pop	{r7, pc}

00002124 <memobj_op>:
    2124:	b580      	push	{r7, lr}
    2126:	b090      	sub	sp, #64	; 0x40
    2128:	af00      	add	r7, sp, #0
    212a:	60f8      	str	r0, [r7, #12]
    212c:	60b9      	str	r1, [r7, #8]
    212e:	607a      	str	r2, [r7, #4]
    2130:	603b      	str	r3, [r7, #0]
    2132:	68fb      	ldr	r3, [r7, #12]
    2134:	627b      	str	r3, [r7, #36]	; 0x24
    2136:	68fb      	ldr	r3, [r7, #12]
    2138:	63fb      	str	r3, [r7, #60]	; 0x3c
    213a:	6a7b      	ldr	r3, [r7, #36]	; 0x24
    213c:	88db      	ldrh	r3, [r3, #6]
    213e:	461a      	mov	r2, r3
    2140:	6a7b      	ldr	r3, [r7, #36]	; 0x24
    2142:	795b      	ldrb	r3, [r3, #5]
    2144:	fb02 f303 	mul.w	r3, r2, r3
    2148:	3b04      	subs	r3, #4
    214a:	623b      	str	r3, [r7, #32]
    214c:	6a7b      	ldr	r3, [r7, #36]	; 0x24
    214e:	88db      	ldrh	r3, [r3, #6]
    2150:	61fb      	str	r3, [r7, #28]
    2152:	683b      	ldr	r3, [r7, #0]
    2154:	1d1a      	adds	r2, r3, #4
    2156:	69fb      	ldr	r3, [r7, #28]
    2158:	fbb2 f3f3 	udiv	r3, r2, r3
    215c:	63bb      	str	r3, [r7, #56]	; 0x38
    215e:	683b      	ldr	r3, [r7, #0]
    2160:	3304      	adds	r3, #4
    2162:	69fa      	ldr	r2, [r7, #28]
    2164:	fbb3 f2f2 	udiv	r2, r3, r2
    2168:	69f9      	ldr	r1, [r7, #28]
    216a:	fb01 f202 	mul.w	r2, r1, r2
    216e:	1a9b      	subs	r3, r3, r2
    2170:	637b      	str	r3, [r7, #52]	; 0x34
    2172:	687b      	ldr	r3, [r7, #4]
    2174:	681a      	ldr	r2, [r3, #0]
    2176:	683b      	ldr	r3, [r7, #0]
    2178:	4413      	add	r3, r2
    217a:	6a3a      	ldr	r2, [r7, #32]
    217c:	429a      	cmp	r2, r3
    217e:	d203      	bcs.n	2188 <memobj_op+0x64>
    2180:	6a3a      	ldr	r2, [r7, #32]
    2182:	683b      	ldr	r3, [r7, #0]
    2184:	1ad3      	subs	r3, r2, r3
    2186:	e001      	b.n	218c <memobj_op+0x68>
    2188:	687b      	ldr	r3, [r7, #4]
    218a:	681b      	ldr	r3, [r3, #0]
    218c:	633b      	str	r3, [r7, #48]	; 0x30
    218e:	687b      	ldr	r3, [r7, #4]
    2190:	6b3a      	ldr	r2, [r7, #48]	; 0x30
    2192:	601a      	str	r2, [r3, #0]
    2194:	e005      	b.n	21a2 <memobj_op+0x7e>
    2196:	6bfb      	ldr	r3, [r7, #60]	; 0x3c
    2198:	681b      	ldr	r3, [r3, #0]
    219a:	63fb      	str	r3, [r7, #60]	; 0x3c
    219c:	6bbb      	ldr	r3, [r7, #56]	; 0x38
    219e:	3b01      	subs	r3, #1
    21a0:	63bb      	str	r3, [r7, #56]	; 0x38
    21a2:	6bbb      	ldr	r3, [r7, #56]	; 0x38
    21a4:	2b00      	cmp	r3, #0
    21a6:	d1f6      	bne.n	2196 <memobj_op+0x72>
    21a8:	2300      	movs	r3, #0
    21aa:	62fb      	str	r3, [r7, #44]	; 0x2c
    21ac:	69fa      	ldr	r2, [r7, #28]
    21ae:	6b7b      	ldr	r3, [r7, #52]	; 0x34
    21b0:	1ad3      	subs	r3, r2, r3
    21b2:	62bb      	str	r3, [r7, #40]	; 0x28
    21b4:	6aba      	ldr	r2, [r7, #40]	; 0x28
    21b6:	6b3b      	ldr	r3, [r7, #48]	; 0x30
    21b8:	4293      	cmp	r3, r2
    21ba:	bf28      	it	cs
    21bc:	4613      	movcs	r3, r2
    21be:	62bb      	str	r3, [r7, #40]	; 0x28
    21c0:	e02a      	b.n	2218 <memobj_op+0xf4>
    21c2:	68ba      	ldr	r2, [r7, #8]
    21c4:	6afb      	ldr	r3, [r7, #44]	; 0x2c
    21c6:	4413      	add	r3, r2
    21c8:	61bb      	str	r3, [r7, #24]
    21ca:	6bfa      	ldr	r2, [r7, #60]	; 0x3c
    21cc:	6b7b      	ldr	r3, [r7, #52]	; 0x34
    21ce:	4413      	add	r3, r2
    21d0:	3304      	adds	r3, #4
    21d2:	617b      	str	r3, [r7, #20]
    21d4:	f897 3048 	ldrb.w	r3, [r7, #72]	; 0x48
    21d8:	2b00      	cmp	r3, #0
    21da:	d005      	beq.n	21e8 <memobj_op+0xc4>
    21dc:	6aba      	ldr	r2, [r7, #40]	; 0x28
    21de:	6979      	ldr	r1, [r7, #20]
    21e0:	69b8      	ldr	r0, [r7, #24]
    21e2:	f003 fced 	bl	5bc0 <memcpy>
    21e6:	e004      	b.n	21f2 <memobj_op+0xce>
    21e8:	6aba      	ldr	r2, [r7, #40]	; 0x28
    21ea:	69b9      	ldr	r1, [r7, #24]
    21ec:	6978      	ldr	r0, [r7, #20]
    21ee:	f003 fce7 	bl	5bc0 <memcpy>
    21f2:	2300      	movs	r3, #0
    21f4:	637b      	str	r3, [r7, #52]	; 0x34
    21f6:	6bfb      	ldr	r3, [r7, #60]	; 0x3c
    21f8:	681b      	ldr	r3, [r3, #0]
    21fa:	63fb      	str	r3, [r7, #60]	; 0x3c
    21fc:	6b3a      	ldr	r2, [r7, #48]	; 0x30
    21fe:	6abb      	ldr	r3, [r7, #40]	; 0x28
    2200:	1ad3      	subs	r3, r2, r3
    2202:	633b      	str	r3, [r7, #48]	; 0x30
    2204:	6afa      	ldr	r2, [r7, #44]	; 0x2c
    2206:	6abb      	ldr	r3, [r7, #40]	; 0x28
    2208:	4413      	add	r3, r2
    220a:	62fb      	str	r3, [r7, #44]	; 0x2c
    220c:	69fa      	ldr	r2, [r7, #28]
    220e:	6b3b      	ldr	r3, [r7, #48]	; 0x30
    2210:	4293      	cmp	r3, r2
    2212:	bf28      	it	cs
    2214:	4613      	movcs	r3, r2
    2216:	62bb      	str	r3, [r7, #40]	; 0x28
    2218:	6b3b      	ldr	r3, [r7, #48]	; 0x30
    221a:	2b00      	cmp	r3, #0
    221c:	d1d1      	bne.n	21c2 <memobj_op+0x9e>
    221e:	bf00      	nop
    2220:	bf00      	nop
    2222:	3740      	adds	r7, #64	; 0x40
    2224:	46bd      	mov	sp, r7
    2226:	bd80      	pop	{r7, pc}

00002228 <nrf_memobj_write>:
    2228:	b580      	push	{r7, lr}
    222a:	b088      	sub	sp, #32
    222c:	af02      	add	r7, sp, #8
    222e:	60f8      	str	r0, [r7, #12]
    2230:	60b9      	str	r1, [r7, #8]
    2232:	607a      	str	r2, [r7, #4]
    2234:	603b      	str	r3, [r7, #0]
    2236:	687b      	ldr	r3, [r7, #4]
    2238:	617b      	str	r3, [r7, #20]
    223a:	f107 0214 	add.w	r2, r7, #20
    223e:	2300      	movs	r3, #0
    2240:	9300      	str	r3, [sp, #0]
    2242:	683b      	ldr	r3, [r7, #0]
    2244:	68b9      	ldr	r1, [r7, #8]
    2246:	68f8      	ldr	r0, [r7, #12]
    2248:	f7ff ff6c 	bl	2124 <memobj_op>
    224c:	bf00      	nop
    224e:	3718      	adds	r7, #24
    2250:	46bd      	mov	sp, r7
    2252:	bd80      	pop	{r7, pc}

00002254 <nrf_memobj_read>:
    2254:	b580      	push	{r7, lr}
    2256:	b088      	sub	sp, #32
    2258:	af02      	add	r7, sp, #8
    225a:	60f8      	str	r0, [r7, #12]
    225c:	60b9      	str	r1, [r7, #8]
    225e:	607a      	str	r2, [r7, #4]
    2260:	603b      	str	r3, [r7, #0]
    2262:	687b      	ldr	r3, [r7, #4]
    2264:	617b      	str	r3, [r7, #20]
    2266:	f107 0214 	add.w	r2, r7, #20
    226a:	2301      	movs	r3, #1
    226c:	9300      	str	r3, [sp, #0]
    226e:	683b      	ldr	r3, [r7, #0]
    2270:	68b9      	ldr	r1, [r7, #8]
    2272:	68f8      	ldr	r0, [r7, #12]
    2274:	f7ff ff56 	bl	2124 <memobj_op>
    2278:	bf00      	nop
    227a:	3718      	adds	r7, #24
    227c:	46bd      	mov	sp, r7
    227e:	bd80      	pop	{r7, pc}

00002280 <nrf_ringbuf_init>:
    2280:	b480      	push	{r7}
    2282:	b083      	sub	sp, #12
    2284:	af00      	add	r7, sp, #0
    2286:	6078      	str	r0, [r7, #4]
    2288:	687b      	ldr	r3, [r7, #4]
    228a:	689b      	ldr	r3, [r3, #8]
    228c:	2200      	movs	r2, #0
    228e:	609a      	str	r2, [r3, #8]
    2290:	687b      	ldr	r3, [r7, #4]
    2292:	689b      	ldr	r3, [r3, #8]
    2294:	2200      	movs	r2, #0
    2296:	611a      	str	r2, [r3, #16]
    2298:	687b      	ldr	r3, [r7, #4]
    229a:	689b      	ldr	r3, [r3, #8]
    229c:	2200      	movs	r2, #0
    229e:	615a      	str	r2, [r3, #20]
    22a0:	687b      	ldr	r3, [r7, #4]
    22a2:	689b      	ldr	r3, [r3, #8]
    22a4:	2200      	movs	r2, #0
    22a6:	60da      	str	r2, [r3, #12]
    22a8:	687b      	ldr	r3, [r7, #4]
    22aa:	689b      	ldr	r3, [r3, #8]
    22ac:	2200      	movs	r2, #0
    22ae:	605a      	str	r2, [r3, #4]
    22b0:	687b      	ldr	r3, [r7, #4]
    22b2:	689b      	ldr	r3, [r3, #8]
    22b4:	2200      	movs	r2, #0
    22b6:	601a      	str	r2, [r3, #0]
    22b8:	bf00      	nop
    22ba:	370c      	adds	r7, #12
    22bc:	46bd      	mov	sp, r7
    22be:	f85d 7b04 	ldr.w	r7, [sp], #4
    22c2:	4770      	bx	lr

000022c4 <nrfx_coredep_delay_us>:
    22c4:	b580      	push	{r7, lr}
    22c6:	b084      	sub	sp, #16
    22c8:	af00      	add	r7, sp, #0
    22ca:	6078      	str	r0, [r7, #4]
    22cc:	687b      	ldr	r3, [r7, #4]
    22ce:	2b00      	cmp	r3, #0
    22d0:	d00a      	beq.n	22e8 <nrfx_coredep_delay_us+0x24>
    22d2:	4b07      	ldr	r3, [pc, #28]	; (22f0 <nrfx_coredep_delay_us+0x2c>)
    22d4:	f043 0301 	orr.w	r3, r3, #1
    22d8:	60fb      	str	r3, [r7, #12]
    22da:	687b      	ldr	r3, [r7, #4]
    22dc:	019b      	lsls	r3, r3, #6
    22de:	60bb      	str	r3, [r7, #8]
    22e0:	68fb      	ldr	r3, [r7, #12]
    22e2:	68b8      	ldr	r0, [r7, #8]
    22e4:	4798      	blx	r3
    22e6:	e000      	b.n	22ea <nrfx_coredep_delay_us+0x26>
    22e8:	bf00      	nop
    22ea:	3710      	adds	r7, #16
    22ec:	46bd      	mov	sp, r7
    22ee:	bd80      	pop	{r7, pc}
    22f0:	00005ec0 	.word	0x00005ec0

000022f4 <nrf_gpio_pin_port_decode>:
    22f4:	b480      	push	{r7}
    22f6:	b083      	sub	sp, #12
    22f8:	af00      	add	r7, sp, #0
    22fa:	6078      	str	r0, [r7, #4]
    22fc:	f04f 43a0 	mov.w	r3, #1342177280	; 0x50000000
    2300:	4618      	mov	r0, r3
    2302:	370c      	adds	r7, #12
    2304:	46bd      	mov	sp, r7
    2306:	f85d 7b04 	ldr.w	r7, [sp], #4
    230a:	4770      	bx	lr

0000230c <nrf_gpio_pin_set>:
    230c:	b580      	push	{r7, lr}
    230e:	b084      	sub	sp, #16
    2310:	af00      	add	r7, sp, #0
    2312:	6078      	str	r0, [r7, #4]
    2314:	1d3b      	adds	r3, r7, #4
    2316:	4618      	mov	r0, r3
    2318:	f7ff ffec 	bl	22f4 <nrf_gpio_pin_port_decode>
    231c:	60f8      	str	r0, [r7, #12]
    231e:	687b      	ldr	r3, [r7, #4]
    2320:	2201      	movs	r2, #1
    2322:	fa02 f303 	lsl.w	r3, r2, r3
    2326:	4619      	mov	r1, r3
    2328:	68f8      	ldr	r0, [r7, #12]
    232a:	f000 f83c 	bl	23a6 <nrf_gpio_port_out_set>
    232e:	bf00      	nop
    2330:	3710      	adds	r7, #16
    2332:	46bd      	mov	sp, r7
    2334:	bd80      	pop	{r7, pc}

00002336 <nrf_gpio_pin_clear>:
    2336:	b580      	push	{r7, lr}
    2338:	b084      	sub	sp, #16
    233a:	af00      	add	r7, sp, #0
    233c:	6078      	str	r0, [r7, #4]
    233e:	1d3b      	adds	r3, r7, #4
    2340:	4618      	mov	r0, r3
    2342:	f7ff ffd7 	bl	22f4 <nrf_gpio_pin_port_decode>
    2346:	60f8      	str	r0, [r7, #12]
    2348:	687b      	ldr	r3, [r7, #4]
    234a:	2201      	movs	r2, #1
    234c:	fa02 f303 	lsl.w	r3, r2, r3
    2350:	4619      	mov	r1, r3
    2352:	68f8      	ldr	r0, [r7, #12]
    2354:	f000 f836 	bl	23c4 <nrf_gpio_port_out_clear>
    2358:	bf00      	nop
    235a:	3710      	adds	r7, #16
    235c:	46bd      	mov	sp, r7
    235e:	bd80      	pop	{r7, pc}

00002360 <nrf_gpio_pin_read>:
    2360:	b580      	push	{r7, lr}
    2362:	b084      	sub	sp, #16
    2364:	af00      	add	r7, sp, #0
    2366:	6078      	str	r0, [r7, #4]
    2368:	1d3b      	adds	r3, r7, #4
    236a:	4618      	mov	r0, r3
    236c:	f7ff ffc2 	bl	22f4 <nrf_gpio_pin_port_decode>
    2370:	60f8      	str	r0, [r7, #12]
    2372:	68f8      	ldr	r0, [r7, #12]
    2374:	f000 f80a 	bl	238c <nrf_gpio_port_in_read>
    2378:	4602      	mov	r2, r0
    237a:	687b      	ldr	r3, [r7, #4]
    237c:	fa22 f303 	lsr.w	r3, r2, r3
    2380:	f003 0301 	and.w	r3, r3, #1
    2384:	4618      	mov	r0, r3
    2386:	3710      	adds	r7, #16
    2388:	46bd      	mov	sp, r7
    238a:	bd80      	pop	{r7, pc}

0000238c <nrf_gpio_port_in_read>:
    238c:	b480      	push	{r7}
    238e:	b083      	sub	sp, #12
    2390:	af00      	add	r7, sp, #0
    2392:	6078      	str	r0, [r7, #4]
    2394:	687b      	ldr	r3, [r7, #4]
    2396:	f8d3 3510 	ldr.w	r3, [r3, #1296]	; 0x510
    239a:	4618      	mov	r0, r3
    239c:	370c      	adds	r7, #12
    239e:	46bd      	mov	sp, r7
    23a0:	f85d 7b04 	ldr.w	r7, [sp], #4
    23a4:	4770      	bx	lr

000023a6 <nrf_gpio_port_out_set>:
    23a6:	b480      	push	{r7}
    23a8:	b083      	sub	sp, #12
    23aa:	af00      	add	r7, sp, #0
    23ac:	6078      	str	r0, [r7, #4]
    23ae:	6039      	str	r1, [r7, #0]
    23b0:	687b      	ldr	r3, [r7, #4]
    23b2:	683a      	ldr	r2, [r7, #0]
    23b4:	f8c3 2508 	str.w	r2, [r3, #1288]	; 0x508
    23b8:	bf00      	nop
    23ba:	370c      	adds	r7, #12
    23bc:	46bd      	mov	sp, r7
    23be:	f85d 7b04 	ldr.w	r7, [sp], #4
    23c2:	4770      	bx	lr

000023c4 <nrf_gpio_port_out_clear>:
    23c4:	b480      	push	{r7}
    23c6:	b083      	sub	sp, #12
    23c8:	af00      	add	r7, sp, #0
    23ca:	6078      	str	r0, [r7, #4]
    23cc:	6039      	str	r1, [r7, #0]
    23ce:	687b      	ldr	r3, [r7, #4]
    23d0:	683a      	ldr	r2, [r7, #0]
    23d2:	f8c3 250c 	str.w	r2, [r3, #1292]	; 0x50c
    23d6:	bf00      	nop
    23d8:	370c      	adds	r7, #12
    23da:	46bd      	mov	sp, r7
    23dc:	f85d 7b04 	ldr.w	r7, [sp], #4
    23e0:	4770      	bx	lr

000023e2 <twi_clear_bus>:
    23e2:	b580      	push	{r7, lr}
    23e4:	b084      	sub	sp, #16
    23e6:	af00      	add	r7, sp, #0
    23e8:	6078      	str	r0, [r7, #4]
    23ea:	f04f 42a0 	mov.w	r2, #1342177280	; 0x50000000
    23ee:	687b      	ldr	r3, [r7, #4]
    23f0:	681b      	ldr	r3, [r3, #0]
    23f2:	f503 73e0 	add.w	r3, r3, #448	; 0x1c0
    23f6:	f240 610c 	movw	r1, #1548	; 0x60c
    23fa:	f842 1023 	str.w	r1, [r2, r3, lsl #2]
    23fe:	f04f 42a0 	mov.w	r2, #1342177280	; 0x50000000
    2402:	687b      	ldr	r3, [r7, #4]
    2404:	685b      	ldr	r3, [r3, #4]
    2406:	f503 73e0 	add.w	r3, r3, #448	; 0x1c0
    240a:	f240 610c 	movw	r1, #1548	; 0x60c
    240e:	f842 1023 	str.w	r1, [r2, r3, lsl #2]
    2412:	687b      	ldr	r3, [r7, #4]
    2414:	681b      	ldr	r3, [r3, #0]
    2416:	4618      	mov	r0, r3
    2418:	f7ff ff78 	bl	230c <nrf_gpio_pin_set>
    241c:	687b      	ldr	r3, [r7, #4]
    241e:	685b      	ldr	r3, [r3, #4]
    2420:	4618      	mov	r0, r3
    2422:	f7ff ff73 	bl	230c <nrf_gpio_pin_set>
    2426:	f04f 42a0 	mov.w	r2, #1342177280	; 0x50000000
    242a:	687b      	ldr	r3, [r7, #4]
    242c:	681b      	ldr	r3, [r3, #0]
    242e:	f503 73e0 	add.w	r3, r3, #448	; 0x1c0
    2432:	f240 610d 	movw	r1, #1549	; 0x60d
    2436:	f842 1023 	str.w	r1, [r2, r3, lsl #2]
    243a:	f04f 42a0 	mov.w	r2, #1342177280	; 0x50000000
    243e:	687b      	ldr	r3, [r7, #4]
    2440:	685b      	ldr	r3, [r3, #4]
    2442:	f503 73e0 	add.w	r3, r3, #448	; 0x1c0
    2446:	f240 610d 	movw	r1, #1549	; 0x60d
    244a:	f842 1023 	str.w	r1, [r2, r3, lsl #2]
    244e:	2004      	movs	r0, #4
    2450:	f7ff ff38 	bl	22c4 <nrfx_coredep_delay_us>
    2454:	2300      	movs	r3, #0
    2456:	60fb      	str	r3, [r7, #12]
    2458:	e01e      	b.n	2498 <twi_clear_bus+0xb6>
    245a:	687b      	ldr	r3, [r7, #4]
    245c:	685b      	ldr	r3, [r3, #4]
    245e:	4618      	mov	r0, r3
    2460:	f7ff ff7e 	bl	2360 <nrf_gpio_pin_read>
    2464:	4603      	mov	r3, r0
    2466:	2b00      	cmp	r3, #0
    2468:	d003      	beq.n	2472 <twi_clear_bus+0x90>
    246a:	68fb      	ldr	r3, [r7, #12]
    246c:	2b00      	cmp	r3, #0
    246e:	d117      	bne.n	24a0 <twi_clear_bus+0xbe>
    2470:	e024      	b.n	24bc <twi_clear_bus+0xda>
    2472:	687b      	ldr	r3, [r7, #4]
    2474:	681b      	ldr	r3, [r3, #0]
    2476:	4618      	mov	r0, r3
    2478:	f7ff ff5d 	bl	2336 <nrf_gpio_pin_clear>
    247c:	2004      	movs	r0, #4
    247e:	f7ff ff21 	bl	22c4 <nrfx_coredep_delay_us>
    2482:	687b      	ldr	r3, [r7, #4]
    2484:	681b      	ldr	r3, [r3, #0]
    2486:	4618      	mov	r0, r3
    2488:	f7ff ff40 	bl	230c <nrf_gpio_pin_set>
    248c:	2004      	movs	r0, #4
    248e:	f7ff ff19 	bl	22c4 <nrfx_coredep_delay_us>
    2492:	68fb      	ldr	r3, [r7, #12]
    2494:	3301      	adds	r3, #1
    2496:	60fb      	str	r3, [r7, #12]
    2498:	68fb      	ldr	r3, [r7, #12]
    249a:	2b08      	cmp	r3, #8
    249c:	dddd      	ble.n	245a <twi_clear_bus+0x78>
    249e:	e000      	b.n	24a2 <twi_clear_bus+0xc0>
    24a0:	bf00      	nop
    24a2:	687b      	ldr	r3, [r7, #4]
    24a4:	685b      	ldr	r3, [r3, #4]
    24a6:	4618      	mov	r0, r3
    24a8:	f7ff ff45 	bl	2336 <nrf_gpio_pin_clear>
    24ac:	2004      	movs	r0, #4
    24ae:	f7ff ff09 	bl	22c4 <nrfx_coredep_delay_us>
    24b2:	687b      	ldr	r3, [r7, #4]
    24b4:	685b      	ldr	r3, [r3, #4]
    24b6:	4618      	mov	r0, r3
    24b8:	f7ff ff28 	bl	230c <nrf_gpio_pin_set>
    24bc:	3710      	adds	r7, #16
    24be:	46bd      	mov	sp, r7
    24c0:	bd80      	pop	{r7, pc}
	...

000024c4 <twim_evt_handler>:
    24c4:	b580      	push	{r7, lr}
    24c6:	b088      	sub	sp, #32
    24c8:	af00      	add	r7, sp, #0
    24ca:	6078      	str	r0, [r7, #4]
    24cc:	6039      	str	r1, [r7, #0]
    24ce:	683b      	ldr	r3, [r7, #0]
    24d0:	61fb      	str	r3, [r7, #28]
    24d2:	687b      	ldr	r3, [r7, #4]
    24d4:	781b      	ldrb	r3, [r3, #0]
    24d6:	733b      	strb	r3, [r7, #12]
    24d8:	687b      	ldr	r3, [r7, #4]
    24da:	791b      	ldrb	r3, [r3, #4]
    24dc:	743b      	strb	r3, [r7, #16]
    24de:	687b      	ldr	r3, [r7, #4]
    24e0:	795b      	ldrb	r3, [r3, #5]
    24e2:	747b      	strb	r3, [r7, #17]
    24e4:	687b      	ldr	r3, [r7, #4]
    24e6:	689b      	ldr	r3, [r3, #8]
    24e8:	b2db      	uxtb	r3, r3
    24ea:	74bb      	strb	r3, [r7, #18]
    24ec:	687b      	ldr	r3, [r7, #4]
    24ee:	68db      	ldr	r3, [r3, #12]
    24f0:	b2db      	uxtb	r3, r3
    24f2:	74fb      	strb	r3, [r7, #19]
    24f4:	687b      	ldr	r3, [r7, #4]
    24f6:	691b      	ldr	r3, [r3, #16]
    24f8:	617b      	str	r3, [r7, #20]
    24fa:	687b      	ldr	r3, [r7, #4]
    24fc:	695b      	ldr	r3, [r3, #20]
    24fe:	61bb      	str	r3, [r7, #24]
    2500:	4a07      	ldr	r2, [pc, #28]	; (2520 <twim_evt_handler+0x5c>)
    2502:	69fb      	ldr	r3, [r7, #28]
    2504:	f852 3023 	ldr.w	r3, [r2, r3, lsl #2]
    2508:	4906      	ldr	r1, [pc, #24]	; (2524 <twim_evt_handler+0x60>)
    250a:	69fa      	ldr	r2, [r7, #28]
    250c:	f851 1022 	ldr.w	r1, [r1, r2, lsl #2]
    2510:	f107 020c 	add.w	r2, r7, #12
    2514:	4610      	mov	r0, r2
    2516:	4798      	blx	r3
    2518:	bf00      	nop
    251a:	3720      	adds	r7, #32
    251c:	46bd      	mov	sp, r7
    251e:	bd80      	pop	{r7, pc}
    2520:	20000654 	.word	0x20000654
    2524:	2000065c 	.word	0x2000065c

00002528 <nrf_drv_twi_init>:
    2528:	b580      	push	{r7, lr}
    252a:	b086      	sub	sp, #24
    252c:	af00      	add	r7, sp, #0
    252e:	60f8      	str	r0, [r7, #12]
    2530:	60b9      	str	r1, [r7, #8]
    2532:	607a      	str	r2, [r7, #4]
    2534:	603b      	str	r3, [r7, #0]
    2536:	68fb      	ldr	r3, [r7, #12]
    2538:	781b      	ldrb	r3, [r3, #0]
    253a:	617b      	str	r3, [r7, #20]
    253c:	4912      	ldr	r1, [pc, #72]	; (2588 <nrf_drv_twi_init+0x60>)
    253e:	697b      	ldr	r3, [r7, #20]
    2540:	687a      	ldr	r2, [r7, #4]
    2542:	f841 2023 	str.w	r2, [r1, r3, lsl #2]
    2546:	4911      	ldr	r1, [pc, #68]	; (258c <nrf_drv_twi_init+0x64>)
    2548:	697b      	ldr	r3, [r7, #20]
    254a:	683a      	ldr	r2, [r7, #0]
    254c:	f841 2023 	str.w	r2, [r1, r3, lsl #2]
    2550:	68bb      	ldr	r3, [r7, #8]
    2552:	7b5b      	ldrb	r3, [r3, #13]
    2554:	2b00      	cmp	r3, #0
    2556:	d002      	beq.n	255e <nrf_drv_twi_init+0x36>
    2558:	68b8      	ldr	r0, [r7, #8]
    255a:	f7ff ff42 	bl	23e2 <twi_clear_bus>
    255e:	2300      	movs	r3, #0
    2560:	613b      	str	r3, [r7, #16]
    2562:	68fb      	ldr	r3, [r7, #12]
    2564:	1d18      	adds	r0, r3, #4
    2566:	687b      	ldr	r3, [r7, #4]
    2568:	2b00      	cmp	r3, #0
    256a:	d001      	beq.n	2570 <nrf_drv_twi_init+0x48>
    256c:	4a08      	ldr	r2, [pc, #32]	; (2590 <nrf_drv_twi_init+0x68>)
    256e:	e000      	b.n	2572 <nrf_drv_twi_init+0x4a>
    2570:	2200      	movs	r2, #0
    2572:	697b      	ldr	r3, [r7, #20]
    2574:	68b9      	ldr	r1, [r7, #8]
    2576:	f000 fc01 	bl	2d7c <nrfx_twim_init>
    257a:	6138      	str	r0, [r7, #16]
    257c:	693b      	ldr	r3, [r7, #16]
    257e:	4618      	mov	r0, r3
    2580:	3718      	adds	r7, #24
    2582:	46bd      	mov	sp, r7
    2584:	bd80      	pop	{r7, pc}
    2586:	bf00      	nop
    2588:	20000654 	.word	0x20000654
    258c:	2000065c 	.word	0x2000065c
    2590:	000024c5 	.word	0x000024c5

00002594 <uarte_evt_handler>:
    2594:	b580      	push	{r7, lr}
    2596:	b088      	sub	sp, #32
    2598:	af00      	add	r7, sp, #0
    259a:	6078      	str	r0, [r7, #4]
    259c:	6039      	str	r1, [r7, #0]
    259e:	683b      	ldr	r3, [r7, #0]
    25a0:	61fb      	str	r3, [r7, #28]
    25a2:	687b      	ldr	r3, [r7, #4]
    25a4:	781b      	ldrb	r3, [r3, #0]
    25a6:	733b      	strb	r3, [r7, #12]
    25a8:	687b      	ldr	r3, [r7, #4]
    25aa:	685b      	ldr	r3, [r3, #4]
    25ac:	613b      	str	r3, [r7, #16]
    25ae:	687b      	ldr	r3, [r7, #4]
    25b0:	689b      	ldr	r3, [r3, #8]
    25b2:	b2db      	uxtb	r3, r3
    25b4:	753b      	strb	r3, [r7, #20]
    25b6:	687b      	ldr	r3, [r7, #4]
    25b8:	68db      	ldr	r3, [r3, #12]
    25ba:	61bb      	str	r3, [r7, #24]
    25bc:	4a07      	ldr	r2, [pc, #28]	; (25dc <uarte_evt_handler+0x48>)
    25be:	69fb      	ldr	r3, [r7, #28]
    25c0:	f852 3023 	ldr.w	r3, [r2, r3, lsl #2]
    25c4:	4906      	ldr	r1, [pc, #24]	; (25e0 <uarte_evt_handler+0x4c>)
    25c6:	69fa      	ldr	r2, [r7, #28]
    25c8:	f851 1022 	ldr.w	r1, [r1, r2, lsl #2]
    25cc:	f107 020c 	add.w	r2, r7, #12
    25d0:	4610      	mov	r0, r2
    25d2:	4798      	blx	r3
    25d4:	bf00      	nop
    25d6:	3720      	adds	r7, #32
    25d8:	46bd      	mov	sp, r7
    25da:	bd80      	pop	{r7, pc}
    25dc:	20000664 	.word	0x20000664
    25e0:	20000668 	.word	0x20000668

000025e4 <uart_evt_handler>:
    25e4:	b580      	push	{r7, lr}
    25e6:	b088      	sub	sp, #32
    25e8:	af00      	add	r7, sp, #0
    25ea:	6078      	str	r0, [r7, #4]
    25ec:	6039      	str	r1, [r7, #0]
    25ee:	683b      	ldr	r3, [r7, #0]
    25f0:	61fb      	str	r3, [r7, #28]
    25f2:	687b      	ldr	r3, [r7, #4]
    25f4:	781b      	ldrb	r3, [r3, #0]
    25f6:	733b      	strb	r3, [r7, #12]
    25f8:	687b      	ldr	r3, [r7, #4]
    25fa:	685b      	ldr	r3, [r3, #4]
    25fc:	613b      	str	r3, [r7, #16]
    25fe:	687b      	ldr	r3, [r7, #4]
    2600:	689b      	ldr	r3, [r3, #8]
    2602:	b2db      	uxtb	r3, r3
    2604:	753b      	strb	r3, [r7, #20]
    2606:	687b      	ldr	r3, [r7, #4]
    2608:	68db      	ldr	r3, [r3, #12]
    260a:	61bb      	str	r3, [r7, #24]
    260c:	4a07      	ldr	r2, [pc, #28]	; (262c <uart_evt_handler+0x48>)
    260e:	69fb      	ldr	r3, [r7, #28]
    2610:	f852 3023 	ldr.w	r3, [r2, r3, lsl #2]
    2614:	4906      	ldr	r1, [pc, #24]	; (2630 <uart_evt_handler+0x4c>)
    2616:	69fa      	ldr	r2, [r7, #28]
    2618:	f851 1022 	ldr.w	r1, [r1, r2, lsl #2]
    261c:	f107 020c 	add.w	r2, r7, #12
    2620:	4610      	mov	r0, r2
    2622:	4798      	blx	r3
    2624:	bf00      	nop
    2626:	3720      	adds	r7, #32
    2628:	46bd      	mov	sp, r7
    262a:	bd80      	pop	{r7, pc}
    262c:	20000664 	.word	0x20000664
    2630:	20000668 	.word	0x20000668

00002634 <nrf_drv_uart_init>:
    2634:	b5b0      	push	{r4, r5, r7, lr}
    2636:	b08e      	sub	sp, #56	; 0x38
    2638:	af00      	add	r7, sp, #0
    263a:	60f8      	str	r0, [r7, #12]
    263c:	60b9      	str	r1, [r7, #8]
    263e:	607a      	str	r2, [r7, #4]
    2640:	68fb      	ldr	r3, [r7, #12]
    2642:	781b      	ldrb	r3, [r3, #0]
    2644:	633b      	str	r3, [r7, #48]	; 0x30
    2646:	4929      	ldr	r1, [pc, #164]	; (26ec <nrf_drv_uart_init+0xb8>)
    2648:	6b3b      	ldr	r3, [r7, #48]	; 0x30
    264a:	687a      	ldr	r2, [r7, #4]
    264c:	f841 2023 	str.w	r2, [r1, r3, lsl #2]
    2650:	68bb      	ldr	r3, [r7, #8]
    2652:	691a      	ldr	r2, [r3, #16]
    2654:	4926      	ldr	r1, [pc, #152]	; (26f0 <nrf_drv_uart_init+0xbc>)
    2656:	6b3b      	ldr	r3, [r7, #48]	; 0x30
    2658:	f841 2023 	str.w	r2, [r1, r3, lsl #2]
    265c:	68bb      	ldr	r3, [r7, #8]
    265e:	7f5b      	ldrb	r3, [r3, #29]
    2660:	4619      	mov	r1, r3
    2662:	4a24      	ldr	r2, [pc, #144]	; (26f4 <nrf_drv_uart_init+0xc0>)
    2664:	6b3b      	ldr	r3, [r7, #48]	; 0x30
    2666:	4413      	add	r3, r2
    2668:	460a      	mov	r2, r1
    266a:	701a      	strb	r2, [r3, #0]
    266c:	68bb      	ldr	r3, [r7, #8]
    266e:	f107 0410 	add.w	r4, r7, #16
    2672:	461d      	mov	r5, r3
    2674:	cd0f      	ldmia	r5!, {r0, r1, r2, r3}
    2676:	c40f      	stmia	r4!, {r0, r1, r2, r3}
    2678:	e895 000f 	ldmia.w	r5, {r0, r1, r2, r3}
    267c:	e884 000f 	stmia.w	r4, {r0, r1, r2, r3}
    2680:	6b3b      	ldr	r3, [r7, #48]	; 0x30
    2682:	623b      	str	r3, [r7, #32]
    2684:	2300      	movs	r3, #0
    2686:	637b      	str	r3, [r7, #52]	; 0x34
    2688:	68fb      	ldr	r3, [r7, #12]
    268a:	781b      	ldrb	r3, [r3, #0]
    268c:	461a      	mov	r2, r3
    268e:	4b19      	ldr	r3, [pc, #100]	; (26f4 <nrf_drv_uart_init+0xc0>)
    2690:	5c9b      	ldrb	r3, [r3, r2]
    2692:	2b00      	cmp	r3, #0
    2694:	d00e      	beq.n	26b4 <nrf_drv_uart_init+0x80>
    2696:	68fb      	ldr	r3, [r7, #12]
    2698:	1d18      	adds	r0, r3, #4
    269a:	687b      	ldr	r3, [r7, #4]
    269c:	2b00      	cmp	r3, #0
    269e:	d001      	beq.n	26a4 <nrf_drv_uart_init+0x70>
    26a0:	4a15      	ldr	r2, [pc, #84]	; (26f8 <nrf_drv_uart_init+0xc4>)
    26a2:	e000      	b.n	26a6 <nrf_drv_uart_init+0x72>
    26a4:	2200      	movs	r2, #0
    26a6:	f107 0310 	add.w	r3, r7, #16
    26aa:	4619      	mov	r1, r3
    26ac:	f002 f9f4 	bl	4a98 <nrfx_uarte_init>
    26b0:	6378      	str	r0, [r7, #52]	; 0x34
    26b2:	e015      	b.n	26e0 <nrf_drv_uart_init+0xac>
    26b4:	68fb      	ldr	r3, [r7, #12]
    26b6:	781b      	ldrb	r3, [r3, #0]
    26b8:	461a      	mov	r2, r3
    26ba:	4b0e      	ldr	r3, [pc, #56]	; (26f4 <nrf_drv_uart_init+0xc0>)
    26bc:	5c9b      	ldrb	r3, [r3, r2]
    26be:	2b00      	cmp	r3, #0
    26c0:	d10e      	bne.n	26e0 <nrf_drv_uart_init+0xac>
    26c2:	68fb      	ldr	r3, [r7, #12]
    26c4:	f103 000c 	add.w	r0, r3, #12
    26c8:	687b      	ldr	r3, [r7, #4]
    26ca:	2b00      	cmp	r3, #0
    26cc:	d001      	beq.n	26d2 <nrf_drv_uart_init+0x9e>
    26ce:	4a0b      	ldr	r2, [pc, #44]	; (26fc <nrf_drv_uart_init+0xc8>)
    26d0:	e000      	b.n	26d4 <nrf_drv_uart_init+0xa0>
    26d2:	2200      	movs	r2, #0
    26d4:	f107 0310 	add.w	r3, r7, #16
    26d8:	4619      	mov	r1, r3
    26da:	f001 fb5d 	bl	3d98 <nrfx_uart_init>
    26de:	6378      	str	r0, [r7, #52]	; 0x34
    26e0:	6b7b      	ldr	r3, [r7, #52]	; 0x34
    26e2:	4618      	mov	r0, r3
    26e4:	3738      	adds	r7, #56	; 0x38
    26e6:	46bd      	mov	sp, r7
    26e8:	bdb0      	pop	{r4, r5, r7, pc}
    26ea:	bf00      	nop
    26ec:	20000664 	.word	0x20000664
    26f0:	20000668 	.word	0x20000668
    26f4:	2000066c 	.word	0x2000066c
    26f8:	00002595 	.word	0x00002595
    26fc:	000025e5 	.word	0x000025e5

00002700 <UARTE0_UART0_IRQHandler>:
    2700:	b580      	push	{r7, lr}
    2702:	af00      	add	r7, sp, #0
    2704:	4b01      	ldr	r3, [pc, #4]	; (270c <UARTE0_UART0_IRQHandler+0xc>)
    2706:	681b      	ldr	r3, [r3, #0]
    2708:	4798      	blx	r3
    270a:	bd80      	pop	{r7, pc}
    270c:	20000670 	.word	0x20000670

00002710 <prs_box_get>:
    2710:	b480      	push	{r7}
    2712:	b083      	sub	sp, #12
    2714:	af00      	add	r7, sp, #0
    2716:	6078      	str	r0, [r7, #4]
    2718:	687b      	ldr	r3, [r7, #4]
    271a:	4a06      	ldr	r2, [pc, #24]	; (2734 <prs_box_get+0x24>)
    271c:	4293      	cmp	r3, r2
    271e:	d101      	bne.n	2724 <prs_box_get+0x14>
    2720:	4b05      	ldr	r3, [pc, #20]	; (2738 <prs_box_get+0x28>)
    2722:	e000      	b.n	2726 <prs_box_get+0x16>
    2724:	2300      	movs	r3, #0
    2726:	4618      	mov	r0, r3
    2728:	370c      	adds	r7, #12
    272a:	46bd      	mov	sp, r7
    272c:	f85d 7b04 	ldr.w	r7, [sp], #4
    2730:	4770      	bx	lr
    2732:	bf00      	nop
    2734:	40002000 	.word	0x40002000
    2738:	20000670 	.word	0x20000670

0000273c <nrfx_prs_acquire>:
    273c:	b580      	push	{r7, lr}
    273e:	b086      	sub	sp, #24
    2740:	af00      	add	r7, sp, #0
    2742:	6078      	str	r0, [r7, #4]
    2744:	6039      	str	r1, [r7, #0]
    2746:	6878      	ldr	r0, [r7, #4]
    2748:	f7ff ffe2 	bl	2710 <prs_box_get>
    274c:	60f8      	str	r0, [r7, #12]
    274e:	68fb      	ldr	r3, [r7, #12]
    2750:	2b00      	cmp	r3, #0
    2752:	d01b      	beq.n	278c <nrfx_prs_acquire+0x50>
    2754:	2300      	movs	r3, #0
    2756:	75fb      	strb	r3, [r7, #23]
    2758:	2000      	movs	r0, #0
    275a:	f7fe ff55 	bl	1608 <app_util_critical_region_enter>
    275e:	68fb      	ldr	r3, [r7, #12]
    2760:	791b      	ldrb	r3, [r3, #4]
    2762:	2b00      	cmp	r3, #0
    2764:	d002      	beq.n	276c <nrfx_prs_acquire+0x30>
    2766:	2301      	movs	r3, #1
    2768:	75fb      	strb	r3, [r7, #23]
    276a:	e005      	b.n	2778 <nrfx_prs_acquire+0x3c>
    276c:	68fb      	ldr	r3, [r7, #12]
    276e:	683a      	ldr	r2, [r7, #0]
    2770:	601a      	str	r2, [r3, #0]
    2772:	68fb      	ldr	r3, [r7, #12]
    2774:	2201      	movs	r2, #1
    2776:	711a      	strb	r2, [r3, #4]
    2778:	2000      	movs	r0, #0
    277a:	f7fe ff4f 	bl	161c <app_util_critical_region_exit>
    277e:	7dfb      	ldrb	r3, [r7, #23]
    2780:	2b00      	cmp	r3, #0
    2782:	d003      	beq.n	278c <nrfx_prs_acquire+0x50>
    2784:	2311      	movs	r3, #17
    2786:	613b      	str	r3, [r7, #16]
    2788:	693b      	ldr	r3, [r7, #16]
    278a:	e002      	b.n	2792 <nrfx_prs_acquire+0x56>
    278c:	2300      	movs	r3, #0
    278e:	613b      	str	r3, [r7, #16]
    2790:	693b      	ldr	r3, [r7, #16]
    2792:	4618      	mov	r0, r3
    2794:	3718      	adds	r7, #24
    2796:	46bd      	mov	sp, r7
    2798:	bd80      	pop	{r7, pc}

0000279a <nrfx_prs_release>:
    279a:	b580      	push	{r7, lr}
    279c:	b084      	sub	sp, #16
    279e:	af00      	add	r7, sp, #0
    27a0:	6078      	str	r0, [r7, #4]
    27a2:	6878      	ldr	r0, [r7, #4]
    27a4:	f7ff ffb4 	bl	2710 <prs_box_get>
    27a8:	60f8      	str	r0, [r7, #12]
    27aa:	68fb      	ldr	r3, [r7, #12]
    27ac:	2b00      	cmp	r3, #0
    27ae:	d005      	beq.n	27bc <nrfx_prs_release+0x22>
    27b0:	68fb      	ldr	r3, [r7, #12]
    27b2:	2200      	movs	r2, #0
    27b4:	601a      	str	r2, [r3, #0]
    27b6:	68fb      	ldr	r3, [r7, #12]
    27b8:	2200      	movs	r2, #0
    27ba:	711a      	strb	r2, [r3, #4]
    27bc:	bf00      	nop
    27be:	3710      	adds	r7, #16
    27c0:	46bd      	mov	sp, r7
    27c2:	bd80      	pop	{r7, pc}

000027c4 <__NVIC_EnableIRQ>:
    27c4:	b480      	push	{r7}
    27c6:	b083      	sub	sp, #12
    27c8:	af00      	add	r7, sp, #0
    27ca:	4603      	mov	r3, r0
    27cc:	71fb      	strb	r3, [r7, #7]
    27ce:	f997 3007 	ldrsb.w	r3, [r7, #7]
    27d2:	2b00      	cmp	r3, #0
    27d4:	db0b      	blt.n	27ee <__NVIC_EnableIRQ+0x2a>
    27d6:	79fb      	ldrb	r3, [r7, #7]
    27d8:	f003 021f 	and.w	r2, r3, #31
    27dc:	4907      	ldr	r1, [pc, #28]	; (27fc <__NVIC_EnableIRQ+0x38>)
    27de:	f997 3007 	ldrsb.w	r3, [r7, #7]
    27e2:	095b      	lsrs	r3, r3, #5
    27e4:	2001      	movs	r0, #1
    27e6:	fa00 f202 	lsl.w	r2, r0, r2
    27ea:	f841 2023 	str.w	r2, [r1, r3, lsl #2]
    27ee:	bf00      	nop
    27f0:	370c      	adds	r7, #12
    27f2:	46bd      	mov	sp, r7
    27f4:	f85d 7b04 	ldr.w	r7, [sp], #4
    27f8:	4770      	bx	lr
    27fa:	bf00      	nop
    27fc:	e000e100 	.word	0xe000e100

00002800 <__NVIC_ClearPendingIRQ>:
    2800:	b480      	push	{r7}
    2802:	b083      	sub	sp, #12
    2804:	af00      	add	r7, sp, #0
    2806:	4603      	mov	r3, r0
    2808:	71fb      	strb	r3, [r7, #7]
    280a:	f997 3007 	ldrsb.w	r3, [r7, #7]
    280e:	2b00      	cmp	r3, #0
    2810:	db0c      	blt.n	282c <__NVIC_ClearPendingIRQ+0x2c>
    2812:	79fb      	ldrb	r3, [r7, #7]
    2814:	f003 021f 	and.w	r2, r3, #31
    2818:	4907      	ldr	r1, [pc, #28]	; (2838 <__NVIC_ClearPendingIRQ+0x38>)
    281a:	f997 3007 	ldrsb.w	r3, [r7, #7]
    281e:	095b      	lsrs	r3, r3, #5
    2820:	2001      	movs	r0, #1
    2822:	fa00 f202 	lsl.w	r2, r0, r2
    2826:	3360      	adds	r3, #96	; 0x60
    2828:	f841 2023 	str.w	r2, [r1, r3, lsl #2]
    282c:	bf00      	nop
    282e:	370c      	adds	r7, #12
    2830:	46bd      	mov	sp, r7
    2832:	f85d 7b04 	ldr.w	r7, [sp], #4
    2836:	4770      	bx	lr
    2838:	e000e100 	.word	0xe000e100

0000283c <__NVIC_SetPriority>:
    283c:	b480      	push	{r7}
    283e:	b083      	sub	sp, #12
    2840:	af00      	add	r7, sp, #0
    2842:	4603      	mov	r3, r0
    2844:	6039      	str	r1, [r7, #0]
    2846:	71fb      	strb	r3, [r7, #7]
    2848:	f997 3007 	ldrsb.w	r3, [r7, #7]
    284c:	2b00      	cmp	r3, #0
    284e:	db0a      	blt.n	2866 <__NVIC_SetPriority+0x2a>
    2850:	683b      	ldr	r3, [r7, #0]
    2852:	b2da      	uxtb	r2, r3
    2854:	490c      	ldr	r1, [pc, #48]	; (2888 <__NVIC_SetPriority+0x4c>)
    2856:	f997 3007 	ldrsb.w	r3, [r7, #7]
    285a:	0152      	lsls	r2, r2, #5
    285c:	b2d2      	uxtb	r2, r2
    285e:	440b      	add	r3, r1
    2860:	f883 2300 	strb.w	r2, [r3, #768]	; 0x300
    2864:	e00a      	b.n	287c <__NVIC_SetPriority+0x40>
    2866:	683b      	ldr	r3, [r7, #0]
    2868:	b2da      	uxtb	r2, r3
    286a:	4908      	ldr	r1, [pc, #32]	; (288c <__NVIC_SetPriority+0x50>)
    286c:	79fb      	ldrb	r3, [r7, #7]
    286e:	f003 030f 	and.w	r3, r3, #15
    2872:	3b04      	subs	r3, #4
    2874:	0152      	lsls	r2, r2, #5
    2876:	b2d2      	uxtb	r2, r2
    2878:	440b      	add	r3, r1
    287a:	761a      	strb	r2, [r3, #24]
    287c:	bf00      	nop
    287e:	370c      	adds	r7, #12
    2880:	46bd      	mov	sp, r7
    2882:	f85d 7b04 	ldr.w	r7, [sp], #4
    2886:	4770      	bx	lr
    2888:	e000e100 	.word	0xe000e100
    288c:	e000ed00 	.word	0xe000ed00

00002890 <nrfx_is_in_ram>:
    2890:	b480      	push	{r7}
    2892:	b083      	sub	sp, #12
    2894:	af00      	add	r7, sp, #0
    2896:	6078      	str	r0, [r7, #4]
    2898:	687b      	ldr	r3, [r7, #4]
    289a:	f003 4360 	and.w	r3, r3, #3758096384	; 0xe0000000
    289e:	f1b3 5f00 	cmp.w	r3, #536870912	; 0x20000000
    28a2:	bf0c      	ite	eq
    28a4:	2301      	moveq	r3, #1
    28a6:	2300      	movne	r3, #0
    28a8:	b2db      	uxtb	r3, r3
    28aa:	4618      	mov	r0, r3
    28ac:	370c      	adds	r7, #12
    28ae:	46bd      	mov	sp, r7
    28b0:	f85d 7b04 	ldr.w	r7, [sp], #4
    28b4:	4770      	bx	lr

000028b6 <nrfx_get_irq_number>:
    28b6:	b480      	push	{r7}
    28b8:	b083      	sub	sp, #12
    28ba:	af00      	add	r7, sp, #0
    28bc:	6078      	str	r0, [r7, #4]
    28be:	687b      	ldr	r3, [r7, #4]
    28c0:	0b1b      	lsrs	r3, r3, #12
    28c2:	b25b      	sxtb	r3, r3
    28c4:	4618      	mov	r0, r3
    28c6:	370c      	adds	r7, #12
    28c8:	46bd      	mov	sp, r7
    28ca:	f85d 7b04 	ldr.w	r7, [sp], #4
    28ce:	4770      	bx	lr

000028d0 <_NRFX_IRQ_PRIORITY_SET>:
    28d0:	b580      	push	{r7, lr}
    28d2:	b082      	sub	sp, #8
    28d4:	af00      	add	r7, sp, #0
    28d6:	4603      	mov	r3, r0
    28d8:	460a      	mov	r2, r1
    28da:	71fb      	strb	r3, [r7, #7]
    28dc:	4613      	mov	r3, r2
    28de:	71bb      	strb	r3, [r7, #6]
    28e0:	79ba      	ldrb	r2, [r7, #6]
    28e2:	f997 3007 	ldrsb.w	r3, [r7, #7]
    28e6:	4611      	mov	r1, r2
    28e8:	4618      	mov	r0, r3
    28ea:	f7ff ffa7 	bl	283c <__NVIC_SetPriority>
    28ee:	bf00      	nop
    28f0:	3708      	adds	r7, #8
    28f2:	46bd      	mov	sp, r7
    28f4:	bd80      	pop	{r7, pc}

000028f6 <_NRFX_IRQ_ENABLE>:
    28f6:	b580      	push	{r7, lr}
    28f8:	b082      	sub	sp, #8
    28fa:	af00      	add	r7, sp, #0
    28fc:	4603      	mov	r3, r0
    28fe:	71fb      	strb	r3, [r7, #7]
    2900:	f997 3007 	ldrsb.w	r3, [r7, #7]
    2904:	4618      	mov	r0, r3
    2906:	f7ff ff5d 	bl	27c4 <__NVIC_EnableIRQ>
    290a:	bf00      	nop
    290c:	3708      	adds	r7, #8
    290e:	46bd      	mov	sp, r7
    2910:	bd80      	pop	{r7, pc}

00002912 <_NRFX_IRQ_PENDING_CLEAR>:
    2912:	b580      	push	{r7, lr}
    2914:	b082      	sub	sp, #8
    2916:	af00      	add	r7, sp, #0
    2918:	4603      	mov	r3, r0
    291a:	71fb      	strb	r3, [r7, #7]
    291c:	f997 3007 	ldrsb.w	r3, [r7, #7]
    2920:	4618      	mov	r0, r3
    2922:	f7ff ff6d 	bl	2800 <__NVIC_ClearPendingIRQ>
    2926:	bf00      	nop
    2928:	3708      	adds	r7, #8
    292a:	46bd      	mov	sp, r7
    292c:	bd80      	pop	{r7, pc}

0000292e <nrf_twim_task_trigger>:
    292e:	b480      	push	{r7}
    2930:	b083      	sub	sp, #12
    2932:	af00      	add	r7, sp, #0
    2934:	6078      	str	r0, [r7, #4]
    2936:	460b      	mov	r3, r1
    2938:	70fb      	strb	r3, [r7, #3]
    293a:	78fb      	ldrb	r3, [r7, #3]
    293c:	687a      	ldr	r2, [r7, #4]
    293e:	4413      	add	r3, r2
    2940:	2201      	movs	r2, #1
    2942:	601a      	str	r2, [r3, #0]
    2944:	bf00      	nop
    2946:	370c      	adds	r7, #12
    2948:	46bd      	mov	sp, r7
    294a:	f85d 7b04 	ldr.w	r7, [sp], #4
    294e:	4770      	bx	lr

00002950 <nrf_twim_event_clear>:
    2950:	b480      	push	{r7}
    2952:	b085      	sub	sp, #20
    2954:	af00      	add	r7, sp, #0
    2956:	6078      	str	r0, [r7, #4]
    2958:	460b      	mov	r3, r1
    295a:	807b      	strh	r3, [r7, #2]
    295c:	887b      	ldrh	r3, [r7, #2]
    295e:	687a      	ldr	r2, [r7, #4]
    2960:	4413      	add	r3, r2
    2962:	2200      	movs	r2, #0
    2964:	601a      	str	r2, [r3, #0]
    2966:	887b      	ldrh	r3, [r7, #2]
    2968:	687a      	ldr	r2, [r7, #4]
    296a:	4413      	add	r3, r2
    296c:	681b      	ldr	r3, [r3, #0]
    296e:	60fb      	str	r3, [r7, #12]
    2970:	68fb      	ldr	r3, [r7, #12]
    2972:	bf00      	nop
    2974:	3714      	adds	r7, #20
    2976:	46bd      	mov	sp, r7
    2978:	f85d 7b04 	ldr.w	r7, [sp], #4
    297c:	4770      	bx	lr

0000297e <nrf_twim_event_check>:
    297e:	b480      	push	{r7}
    2980:	b083      	sub	sp, #12
    2982:	af00      	add	r7, sp, #0
    2984:	6078      	str	r0, [r7, #4]
    2986:	460b      	mov	r3, r1
    2988:	807b      	strh	r3, [r7, #2]
    298a:	887b      	ldrh	r3, [r7, #2]
    298c:	687a      	ldr	r2, [r7, #4]
    298e:	4413      	add	r3, r2
    2990:	681b      	ldr	r3, [r3, #0]
    2992:	2b00      	cmp	r3, #0
    2994:	bf14      	ite	ne
    2996:	2301      	movne	r3, #1
    2998:	2300      	moveq	r3, #0
    299a:	b2db      	uxtb	r3, r3
    299c:	4618      	mov	r0, r3
    299e:	370c      	adds	r7, #12
    29a0:	46bd      	mov	sp, r7
    29a2:	f85d 7b04 	ldr.w	r7, [sp], #4
    29a6:	4770      	bx	lr

000029a8 <nrf_twim_int_enable>:
    29a8:	b480      	push	{r7}
    29aa:	b083      	sub	sp, #12
    29ac:	af00      	add	r7, sp, #0
    29ae:	6078      	str	r0, [r7, #4]
    29b0:	6039      	str	r1, [r7, #0]
    29b2:	687b      	ldr	r3, [r7, #4]
    29b4:	683a      	ldr	r2, [r7, #0]
    29b6:	f8c3 2304 	str.w	r2, [r3, #772]	; 0x304
    29ba:	bf00      	nop
    29bc:	370c      	adds	r7, #12
    29be:	46bd      	mov	sp, r7
    29c0:	f85d 7b04 	ldr.w	r7, [sp], #4
    29c4:	4770      	bx	lr

000029c6 <nrf_twim_int_disable>:
    29c6:	b480      	push	{r7}
    29c8:	b083      	sub	sp, #12
    29ca:	af00      	add	r7, sp, #0
    29cc:	6078      	str	r0, [r7, #4]
    29ce:	6039      	str	r1, [r7, #0]
    29d0:	687b      	ldr	r3, [r7, #4]
    29d2:	683a      	ldr	r2, [r7, #0]
    29d4:	f8c3 2308 	str.w	r2, [r3, #776]	; 0x308
    29d8:	bf00      	nop
    29da:	370c      	adds	r7, #12
    29dc:	46bd      	mov	sp, r7
    29de:	f85d 7b04 	ldr.w	r7, [sp], #4
    29e2:	4770      	bx	lr

000029e4 <nrf_twim_enable>:
    29e4:	b480      	push	{r7}
    29e6:	b083      	sub	sp, #12
    29e8:	af00      	add	r7, sp, #0
    29ea:	6078      	str	r0, [r7, #4]
    29ec:	687b      	ldr	r3, [r7, #4]
    29ee:	2206      	movs	r2, #6
    29f0:	f8c3 2500 	str.w	r2, [r3, #1280]	; 0x500
    29f4:	bf00      	nop
    29f6:	370c      	adds	r7, #12
    29f8:	46bd      	mov	sp, r7
    29fa:	f85d 7b04 	ldr.w	r7, [sp], #4
    29fe:	4770      	bx	lr

00002a00 <nrf_twim_disable>:
    2a00:	b480      	push	{r7}
    2a02:	b083      	sub	sp, #12
    2a04:	af00      	add	r7, sp, #0
    2a06:	6078      	str	r0, [r7, #4]
    2a08:	687b      	ldr	r3, [r7, #4]
    2a0a:	2200      	movs	r2, #0
    2a0c:	f8c3 2500 	str.w	r2, [r3, #1280]	; 0x500
    2a10:	bf00      	nop
    2a12:	370c      	adds	r7, #12
    2a14:	46bd      	mov	sp, r7
    2a16:	f85d 7b04 	ldr.w	r7, [sp], #4
    2a1a:	4770      	bx	lr

00002a1c <nrf_twim_pins_set>:
    2a1c:	b480      	push	{r7}
    2a1e:	b085      	sub	sp, #20
    2a20:	af00      	add	r7, sp, #0
    2a22:	60f8      	str	r0, [r7, #12]
    2a24:	60b9      	str	r1, [r7, #8]
    2a26:	607a      	str	r2, [r7, #4]
    2a28:	68fb      	ldr	r3, [r7, #12]
    2a2a:	68ba      	ldr	r2, [r7, #8]
    2a2c:	f8c3 2508 	str.w	r2, [r3, #1288]	; 0x508
    2a30:	68fb      	ldr	r3, [r7, #12]
    2a32:	687a      	ldr	r2, [r7, #4]
    2a34:	f8c3 250c 	str.w	r2, [r3, #1292]	; 0x50c
    2a38:	bf00      	nop
    2a3a:	3714      	adds	r7, #20
    2a3c:	46bd      	mov	sp, r7
    2a3e:	f85d 7b04 	ldr.w	r7, [sp], #4
    2a42:	4770      	bx	lr

00002a44 <nrf_twim_frequency_set>:
    2a44:	b480      	push	{r7}
    2a46:	b083      	sub	sp, #12
    2a48:	af00      	add	r7, sp, #0
    2a4a:	6078      	str	r0, [r7, #4]
    2a4c:	6039      	str	r1, [r7, #0]
    2a4e:	687b      	ldr	r3, [r7, #4]
    2a50:	683a      	ldr	r2, [r7, #0]
    2a52:	f8c3 2524 	str.w	r2, [r3, #1316]	; 0x524
    2a56:	bf00      	nop
    2a58:	370c      	adds	r7, #12
    2a5a:	46bd      	mov	sp, r7
    2a5c:	f85d 7b04 	ldr.w	r7, [sp], #4
    2a60:	4770      	bx	lr

00002a62 <nrf_twim_errorsrc_get_and_clear>:
    2a62:	b480      	push	{r7}
    2a64:	b085      	sub	sp, #20
    2a66:	af00      	add	r7, sp, #0
    2a68:	6078      	str	r0, [r7, #4]
    2a6a:	687b      	ldr	r3, [r7, #4]
    2a6c:	f8d3 34c4 	ldr.w	r3, [r3, #1220]	; 0x4c4
    2a70:	60fb      	str	r3, [r7, #12]
    2a72:	687b      	ldr	r3, [r7, #4]
    2a74:	68fa      	ldr	r2, [r7, #12]
    2a76:	f8c3 24c4 	str.w	r2, [r3, #1220]	; 0x4c4
    2a7a:	68fb      	ldr	r3, [r7, #12]
    2a7c:	4618      	mov	r0, r3
    2a7e:	3714      	adds	r7, #20
    2a80:	46bd      	mov	sp, r7
    2a82:	f85d 7b04 	ldr.w	r7, [sp], #4
    2a86:	4770      	bx	lr

00002a88 <nrf_twim_address_set>:
    2a88:	b480      	push	{r7}
    2a8a:	b083      	sub	sp, #12
    2a8c:	af00      	add	r7, sp, #0
    2a8e:	6078      	str	r0, [r7, #4]
    2a90:	460b      	mov	r3, r1
    2a92:	70fb      	strb	r3, [r7, #3]
    2a94:	78fa      	ldrb	r2, [r7, #3]
    2a96:	687b      	ldr	r3, [r7, #4]
    2a98:	f8c3 2588 	str.w	r2, [r3, #1416]	; 0x588
    2a9c:	bf00      	nop
    2a9e:	370c      	adds	r7, #12
    2aa0:	46bd      	mov	sp, r7
    2aa2:	f85d 7b04 	ldr.w	r7, [sp], #4
    2aa6:	4770      	bx	lr

00002aa8 <nrf_twim_tx_buffer_set>:
    2aa8:	b480      	push	{r7}
    2aaa:	b085      	sub	sp, #20
    2aac:	af00      	add	r7, sp, #0
    2aae:	60f8      	str	r0, [r7, #12]
    2ab0:	60b9      	str	r1, [r7, #8]
    2ab2:	607a      	str	r2, [r7, #4]
    2ab4:	68ba      	ldr	r2, [r7, #8]
    2ab6:	68fb      	ldr	r3, [r7, #12]
    2ab8:	f8c3 2544 	str.w	r2, [r3, #1348]	; 0x544
    2abc:	68fb      	ldr	r3, [r7, #12]
    2abe:	687a      	ldr	r2, [r7, #4]
    2ac0:	f8c3 2548 	str.w	r2, [r3, #1352]	; 0x548
    2ac4:	bf00      	nop
    2ac6:	3714      	adds	r7, #20
    2ac8:	46bd      	mov	sp, r7
    2aca:	f85d 7b04 	ldr.w	r7, [sp], #4
    2ace:	4770      	bx	lr

00002ad0 <nrf_twim_rx_buffer_set>:
    2ad0:	b480      	push	{r7}
    2ad2:	b085      	sub	sp, #20
    2ad4:	af00      	add	r7, sp, #0
    2ad6:	60f8      	str	r0, [r7, #12]
    2ad8:	60b9      	str	r1, [r7, #8]
    2ada:	607a      	str	r2, [r7, #4]
    2adc:	68ba      	ldr	r2, [r7, #8]
    2ade:	68fb      	ldr	r3, [r7, #12]
    2ae0:	f8c3 2534 	str.w	r2, [r3, #1332]	; 0x534
    2ae4:	68fb      	ldr	r3, [r7, #12]
    2ae6:	687a      	ldr	r2, [r7, #4]
    2ae8:	f8c3 2538 	str.w	r2, [r3, #1336]	; 0x538
    2aec:	bf00      	nop
    2aee:	3714      	adds	r7, #20
    2af0:	46bd      	mov	sp, r7
    2af2:	f85d 7b04 	ldr.w	r7, [sp], #4
    2af6:	4770      	bx	lr

00002af8 <nrf_twim_shorts_set>:
    2af8:	b480      	push	{r7}
    2afa:	b083      	sub	sp, #12
    2afc:	af00      	add	r7, sp, #0
    2afe:	6078      	str	r0, [r7, #4]
    2b00:	6039      	str	r1, [r7, #0]
    2b02:	687b      	ldr	r3, [r7, #4]
    2b04:	683a      	ldr	r2, [r7, #0]
    2b06:	f8c3 2200 	str.w	r2, [r3, #512]	; 0x200
    2b0a:	bf00      	nop
    2b0c:	370c      	adds	r7, #12
    2b0e:	46bd      	mov	sp, r7
    2b10:	f85d 7b04 	ldr.w	r7, [sp], #4
    2b14:	4770      	bx	lr

00002b16 <nrf_twim_txd_amount_get>:
    2b16:	b480      	push	{r7}
    2b18:	b083      	sub	sp, #12
    2b1a:	af00      	add	r7, sp, #0
    2b1c:	6078      	str	r0, [r7, #4]
    2b1e:	687b      	ldr	r3, [r7, #4]
    2b20:	f8d3 354c 	ldr.w	r3, [r3, #1356]	; 0x54c
    2b24:	4618      	mov	r0, r3
    2b26:	370c      	adds	r7, #12
    2b28:	46bd      	mov	sp, r7
    2b2a:	f85d 7b04 	ldr.w	r7, [sp], #4
    2b2e:	4770      	bx	lr

00002b30 <nrf_twim_shorts_get>:
    2b30:	b480      	push	{r7}
    2b32:	b083      	sub	sp, #12
    2b34:	af00      	add	r7, sp, #0
    2b36:	6078      	str	r0, [r7, #4]
    2b38:	687b      	ldr	r3, [r7, #4]
    2b3a:	f8d3 3200 	ldr.w	r3, [r3, #512]	; 0x200
    2b3e:	4618      	mov	r0, r3
    2b40:	370c      	adds	r7, #12
    2b42:	46bd      	mov	sp, r7
    2b44:	f85d 7b04 	ldr.w	r7, [sp], #4
    2b48:	4770      	bx	lr

00002b4a <nrf_twim_rxd_amount_get>:
    2b4a:	b480      	push	{r7}
    2b4c:	b083      	sub	sp, #12
    2b4e:	af00      	add	r7, sp, #0
    2b50:	6078      	str	r0, [r7, #4]
    2b52:	687b      	ldr	r3, [r7, #4]
    2b54:	f8d3 353c 	ldr.w	r3, [r3, #1340]	; 0x53c
    2b58:	4618      	mov	r0, r3
    2b5a:	370c      	adds	r7, #12
    2b5c:	46bd      	mov	sp, r7
    2b5e:	f85d 7b04 	ldr.w	r7, [sp], #4
    2b62:	4770      	bx	lr

00002b64 <nrf_twim_tx_list_enable>:
    2b64:	b480      	push	{r7}
    2b66:	b083      	sub	sp, #12
    2b68:	af00      	add	r7, sp, #0
    2b6a:	6078      	str	r0, [r7, #4]
    2b6c:	687b      	ldr	r3, [r7, #4]
    2b6e:	2201      	movs	r2, #1
    2b70:	f8c3 2550 	str.w	r2, [r3, #1360]	; 0x550
    2b74:	bf00      	nop
    2b76:	370c      	adds	r7, #12
    2b78:	46bd      	mov	sp, r7
    2b7a:	f85d 7b04 	ldr.w	r7, [sp], #4
    2b7e:	4770      	bx	lr

00002b80 <nrf_twim_tx_list_disable>:
    2b80:	b480      	push	{r7}
    2b82:	b083      	sub	sp, #12
    2b84:	af00      	add	r7, sp, #0
    2b86:	6078      	str	r0, [r7, #4]
    2b88:	687b      	ldr	r3, [r7, #4]
    2b8a:	2200      	movs	r2, #0
    2b8c:	f8c3 2550 	str.w	r2, [r3, #1360]	; 0x550
    2b90:	bf00      	nop
    2b92:	370c      	adds	r7, #12
    2b94:	46bd      	mov	sp, r7
    2b96:	f85d 7b04 	ldr.w	r7, [sp], #4
    2b9a:	4770      	bx	lr

00002b9c <nrf_twim_rx_list_enable>:
    2b9c:	b480      	push	{r7}
    2b9e:	b083      	sub	sp, #12
    2ba0:	af00      	add	r7, sp, #0
    2ba2:	6078      	str	r0, [r7, #4]
    2ba4:	687b      	ldr	r3, [r7, #4]
    2ba6:	2201      	movs	r2, #1
    2ba8:	f8c3 2540 	str.w	r2, [r3, #1344]	; 0x540
    2bac:	bf00      	nop
    2bae:	370c      	adds	r7, #12
    2bb0:	46bd      	mov	sp, r7
    2bb2:	f85d 7b04 	ldr.w	r7, [sp], #4
    2bb6:	4770      	bx	lr

00002bb8 <nrf_twim_rx_list_disable>:
    2bb8:	b480      	push	{r7}
    2bba:	b083      	sub	sp, #12
    2bbc:	af00      	add	r7, sp, #0
    2bbe:	6078      	str	r0, [r7, #4]
    2bc0:	687b      	ldr	r3, [r7, #4]
    2bc2:	2200      	movs	r2, #0
    2bc4:	f8c3 2540 	str.w	r2, [r3, #1344]	; 0x540
    2bc8:	bf00      	nop
    2bca:	370c      	adds	r7, #12
    2bcc:	46bd      	mov	sp, r7
    2bce:	f85d 7b04 	ldr.w	r7, [sp], #4
    2bd2:	4770      	bx	lr

00002bd4 <nrf_gpio_pin_port_decode>:
    2bd4:	b480      	push	{r7}
    2bd6:	b083      	sub	sp, #12
    2bd8:	af00      	add	r7, sp, #0
    2bda:	6078      	str	r0, [r7, #4]
    2bdc:	f04f 43a0 	mov.w	r3, #1342177280	; 0x50000000
    2be0:	4618      	mov	r0, r3
    2be2:	370c      	adds	r7, #12
    2be4:	46bd      	mov	sp, r7
    2be6:	f85d 7b04 	ldr.w	r7, [sp], #4
    2bea:	4770      	bx	lr

00002bec <nrf_gpio_cfg>:
    2bec:	b580      	push	{r7, lr}
    2bee:	b084      	sub	sp, #16
    2bf0:	af00      	add	r7, sp, #0
    2bf2:	6078      	str	r0, [r7, #4]
    2bf4:	4608      	mov	r0, r1
    2bf6:	4611      	mov	r1, r2
    2bf8:	461a      	mov	r2, r3
    2bfa:	4603      	mov	r3, r0
    2bfc:	70fb      	strb	r3, [r7, #3]
    2bfe:	460b      	mov	r3, r1
    2c00:	70bb      	strb	r3, [r7, #2]
    2c02:	4613      	mov	r3, r2
    2c04:	707b      	strb	r3, [r7, #1]
    2c06:	1d3b      	adds	r3, r7, #4
    2c08:	4618      	mov	r0, r3
    2c0a:	f7ff ffe3 	bl	2bd4 <nrf_gpio_pin_port_decode>
    2c0e:	60f8      	str	r0, [r7, #12]
    2c10:	78fa      	ldrb	r2, [r7, #3]
    2c12:	78bb      	ldrb	r3, [r7, #2]
    2c14:	005b      	lsls	r3, r3, #1
    2c16:	431a      	orrs	r2, r3
    2c18:	787b      	ldrb	r3, [r7, #1]
    2c1a:	009b      	lsls	r3, r3, #2
    2c1c:	431a      	orrs	r2, r3
    2c1e:	7e3b      	ldrb	r3, [r7, #24]
    2c20:	021b      	lsls	r3, r3, #8
    2c22:	ea42 0103 	orr.w	r1, r2, r3
    2c26:	7f3b      	ldrb	r3, [r7, #28]
    2c28:	041b      	lsls	r3, r3, #16
    2c2a:	687a      	ldr	r2, [r7, #4]
    2c2c:	4319      	orrs	r1, r3
    2c2e:	68fb      	ldr	r3, [r7, #12]
    2c30:	f502 72e0 	add.w	r2, r2, #448	; 0x1c0
    2c34:	f843 1022 	str.w	r1, [r3, r2, lsl #2]
    2c38:	bf00      	nop
    2c3a:	3710      	adds	r7, #16
    2c3c:	46bd      	mov	sp, r7
    2c3e:	bd80      	pop	{r7, pc}

00002c40 <twi_process_error>:
    2c40:	b480      	push	{r7}
    2c42:	b085      	sub	sp, #20
    2c44:	af00      	add	r7, sp, #0
    2c46:	6078      	str	r0, [r7, #4]
    2c48:	2303      	movs	r3, #3
    2c4a:	60fb      	str	r3, [r7, #12]
    2c4c:	687b      	ldr	r3, [r7, #4]
    2c4e:	f003 0301 	and.w	r3, r3, #1
    2c52:	2b00      	cmp	r3, #0
    2c54:	d002      	beq.n	2c5c <twi_process_error+0x1c>
    2c56:	f44f 4302 	mov.w	r3, #33280	; 0x8200
    2c5a:	60fb      	str	r3, [r7, #12]
    2c5c:	687b      	ldr	r3, [r7, #4]
    2c5e:	f003 0302 	and.w	r3, r3, #2
    2c62:	2b00      	cmp	r3, #0
    2c64:	d002      	beq.n	2c6c <twi_process_error+0x2c>
    2c66:	f248 2301 	movw	r3, #33281	; 0x8201
    2c6a:	60fb      	str	r3, [r7, #12]
    2c6c:	687b      	ldr	r3, [r7, #4]
    2c6e:	f003 0304 	and.w	r3, r3, #4
    2c72:	2b00      	cmp	r3, #0
    2c74:	d002      	beq.n	2c7c <twi_process_error+0x3c>
    2c76:	f248 2302 	movw	r3, #33282	; 0x8202
    2c7a:	60fb      	str	r3, [r7, #12]
    2c7c:	68fb      	ldr	r3, [r7, #12]
    2c7e:	4618      	mov	r0, r3
    2c80:	3714      	adds	r7, #20
    2c82:	46bd      	mov	sp, r7
    2c84:	f85d 7b04 	ldr.w	r7, [sp], #4
    2c88:	4770      	bx	lr
	...

00002c8c <xfer_completeness_check>:
    2c8c:	b580      	push	{r7, lr}
    2c8e:	b084      	sub	sp, #16
    2c90:	af00      	add	r7, sp, #0
    2c92:	6078      	str	r0, [r7, #4]
    2c94:	6039      	str	r1, [r7, #0]
    2c96:	2301      	movs	r3, #1
    2c98:	73fb      	strb	r3, [r7, #15]
    2c9a:	683b      	ldr	r3, [r7, #0]
    2c9c:	7b1b      	ldrb	r3, [r3, #12]
    2c9e:	2b03      	cmp	r3, #3
    2ca0:	d852      	bhi.n	2d48 <xfer_completeness_check+0xbc>
    2ca2:	a201      	add	r2, pc, #4	; (adr r2, 2ca8 <xfer_completeness_check+0x1c>)
    2ca4:	f852 f023 	ldr.w	pc, [r2, r3, lsl #2]
    2ca8:	00002d1d 	.word	0x00002d1d
    2cac:	00002d33 	.word	0x00002d33
    2cb0:	00002cf7 	.word	0x00002cf7
    2cb4:	00002cb9 	.word	0x00002cb9
    2cb8:	683b      	ldr	r3, [r7, #0]
    2cba:	689b      	ldr	r3, [r3, #8]
    2cbc:	f403 2380 	and.w	r3, r3, #262144	; 0x40000
    2cc0:	2b00      	cmp	r3, #0
    2cc2:	d007      	beq.n	2cd4 <xfer_completeness_check+0x48>
    2cc4:	6878      	ldr	r0, [r7, #4]
    2cc6:	f7ff ff26 	bl	2b16 <nrf_twim_txd_amount_get>
    2cca:	4602      	mov	r2, r0
    2ccc:	683b      	ldr	r3, [r7, #0]
    2cce:	691b      	ldr	r3, [r3, #16]
    2cd0:	429a      	cmp	r2, r3
    2cd2:	d10d      	bne.n	2cf0 <xfer_completeness_check+0x64>
    2cd4:	683b      	ldr	r3, [r7, #0]
    2cd6:	689b      	ldr	r3, [r3, #8]
    2cd8:	f403 2380 	and.w	r3, r3, #262144	; 0x40000
    2cdc:	2b00      	cmp	r3, #0
    2cde:	d135      	bne.n	2d4c <xfer_completeness_check+0xc0>
    2ce0:	6878      	ldr	r0, [r7, #4]
    2ce2:	f7ff ff18 	bl	2b16 <nrf_twim_txd_amount_get>
    2ce6:	4602      	mov	r2, r0
    2ce8:	683b      	ldr	r3, [r7, #0]
    2cea:	695b      	ldr	r3, [r3, #20]
    2cec:	429a      	cmp	r2, r3
    2cee:	d02d      	beq.n	2d4c <xfer_completeness_check+0xc0>
    2cf0:	2300      	movs	r3, #0
    2cf2:	73fb      	strb	r3, [r7, #15]
    2cf4:	e02a      	b.n	2d4c <xfer_completeness_check+0xc0>
    2cf6:	6878      	ldr	r0, [r7, #4]
    2cf8:	f7ff ff0d 	bl	2b16 <nrf_twim_txd_amount_get>
    2cfc:	4602      	mov	r2, r0
    2cfe:	683b      	ldr	r3, [r7, #0]
    2d00:	691b      	ldr	r3, [r3, #16]
    2d02:	429a      	cmp	r2, r3
    2d04:	d107      	bne.n	2d16 <xfer_completeness_check+0x8a>
    2d06:	6878      	ldr	r0, [r7, #4]
    2d08:	f7ff ff1f 	bl	2b4a <nrf_twim_rxd_amount_get>
    2d0c:	4602      	mov	r2, r0
    2d0e:	683b      	ldr	r3, [r7, #0]
    2d10:	695b      	ldr	r3, [r3, #20]
    2d12:	429a      	cmp	r2, r3
    2d14:	d01c      	beq.n	2d50 <xfer_completeness_check+0xc4>
    2d16:	2300      	movs	r3, #0
    2d18:	73fb      	strb	r3, [r7, #15]
    2d1a:	e019      	b.n	2d50 <xfer_completeness_check+0xc4>
    2d1c:	6878      	ldr	r0, [r7, #4]
    2d1e:	f7ff fefa 	bl	2b16 <nrf_twim_txd_amount_get>
    2d22:	4602      	mov	r2, r0
    2d24:	683b      	ldr	r3, [r7, #0]
    2d26:	691b      	ldr	r3, [r3, #16]
    2d28:	429a      	cmp	r2, r3
    2d2a:	d013      	beq.n	2d54 <xfer_completeness_check+0xc8>
    2d2c:	2300      	movs	r3, #0
    2d2e:	73fb      	strb	r3, [r7, #15]
    2d30:	e010      	b.n	2d54 <xfer_completeness_check+0xc8>
    2d32:	6878      	ldr	r0, [r7, #4]
    2d34:	f7ff ff09 	bl	2b4a <nrf_twim_rxd_amount_get>
    2d38:	4602      	mov	r2, r0
    2d3a:	683b      	ldr	r3, [r7, #0]
    2d3c:	691b      	ldr	r3, [r3, #16]
    2d3e:	429a      	cmp	r2, r3
    2d40:	d00a      	beq.n	2d58 <xfer_completeness_check+0xcc>
    2d42:	2300      	movs	r3, #0
    2d44:	73fb      	strb	r3, [r7, #15]
    2d46:	e007      	b.n	2d58 <xfer_completeness_check+0xcc>
    2d48:	bf00      	nop
    2d4a:	e006      	b.n	2d5a <xfer_completeness_check+0xce>
    2d4c:	bf00      	nop
    2d4e:	e004      	b.n	2d5a <xfer_completeness_check+0xce>
    2d50:	bf00      	nop
    2d52:	e002      	b.n	2d5a <xfer_completeness_check+0xce>
    2d54:	bf00      	nop
    2d56:	e000      	b.n	2d5a <xfer_completeness_check+0xce>
    2d58:	bf00      	nop
    2d5a:	7bfb      	ldrb	r3, [r7, #15]
    2d5c:	f083 0301 	eor.w	r3, r3, #1
    2d60:	b2db      	uxtb	r3, r3
    2d62:	2b00      	cmp	r3, #0
    2d64:	d005      	beq.n	2d72 <xfer_completeness_check+0xe6>
    2d66:	6878      	ldr	r0, [r7, #4]
    2d68:	f7ff fe4a 	bl	2a00 <nrf_twim_disable>
    2d6c:	6878      	ldr	r0, [r7, #4]
    2d6e:	f7ff fe39 	bl	29e4 <nrf_twim_enable>
    2d72:	7bfb      	ldrb	r3, [r7, #15]
    2d74:	4618      	mov	r0, r3
    2d76:	3710      	adds	r7, #16
    2d78:	46bd      	mov	sp, r7
    2d7a:	bd80      	pop	{r7, pc}

00002d7c <nrfx_twim_init>:
    2d7c:	b580      	push	{r7, lr}
    2d7e:	b08a      	sub	sp, #40	; 0x28
    2d80:	af02      	add	r7, sp, #8
    2d82:	60f8      	str	r0, [r7, #12]
    2d84:	60b9      	str	r1, [r7, #8]
    2d86:	607a      	str	r2, [r7, #4]
    2d88:	603b      	str	r3, [r7, #0]
    2d8a:	68fb      	ldr	r3, [r7, #12]
    2d8c:	791b      	ldrb	r3, [r3, #4]
    2d8e:	461a      	mov	r2, r3
    2d90:	2334      	movs	r3, #52	; 0x34
    2d92:	fb02 f303 	mul.w	r3, r2, r3
    2d96:	4a40      	ldr	r2, [pc, #256]	; (2e98 <nrfx_twim_init+0x11c>)
    2d98:	4413      	add	r3, r2
    2d9a:	617b      	str	r3, [r7, #20]
    2d9c:	697b      	ldr	r3, [r7, #20]
    2d9e:	f893 302d 	ldrb.w	r3, [r3, #45]	; 0x2d
    2da2:	2b00      	cmp	r3, #0
    2da4:	d003      	beq.n	2dae <nrfx_twim_init+0x32>
    2da6:	2308      	movs	r3, #8
    2da8:	61fb      	str	r3, [r7, #28]
    2daa:	69fb      	ldr	r3, [r7, #28]
    2dac:	e070      	b.n	2e90 <nrfx_twim_init+0x114>
    2dae:	68fb      	ldr	r3, [r7, #12]
    2db0:	681a      	ldr	r2, [r3, #0]
    2db2:	68fb      	ldr	r3, [r7, #12]
    2db4:	791b      	ldrb	r3, [r3, #4]
    2db6:	4619      	mov	r1, r3
    2db8:	4b38      	ldr	r3, [pc, #224]	; (2e9c <nrfx_twim_init+0x120>)
    2dba:	f853 3021 	ldr.w	r3, [r3, r1, lsl #2]
    2dbe:	4619      	mov	r1, r3
    2dc0:	4610      	mov	r0, r2
    2dc2:	f7ff fcbb 	bl	273c <nrfx_prs_acquire>
    2dc6:	4603      	mov	r3, r0
    2dc8:	2b00      	cmp	r3, #0
    2dca:	d003      	beq.n	2dd4 <nrfx_twim_init+0x58>
    2dcc:	2311      	movs	r3, #17
    2dce:	61fb      	str	r3, [r7, #28]
    2dd0:	69fb      	ldr	r3, [r7, #28]
    2dd2:	e05d      	b.n	2e90 <nrfx_twim_init+0x114>
    2dd4:	697b      	ldr	r3, [r7, #20]
    2dd6:	687a      	ldr	r2, [r7, #4]
    2dd8:	601a      	str	r2, [r3, #0]
    2dda:	697b      	ldr	r3, [r7, #20]
    2ddc:	683a      	ldr	r2, [r7, #0]
    2dde:	605a      	str	r2, [r3, #4]
    2de0:	697b      	ldr	r3, [r7, #20]
    2de2:	2200      	movs	r2, #0
    2de4:	609a      	str	r2, [r3, #8]
    2de6:	697b      	ldr	r3, [r7, #20]
    2de8:	2200      	movs	r2, #0
    2dea:	f883 2030 	strb.w	r2, [r3, #48]	; 0x30
    2dee:	697b      	ldr	r3, [r7, #20]
    2df0:	2200      	movs	r2, #0
    2df2:	f883 202f 	strb.w	r2, [r3, #47]	; 0x2f
    2df6:	68bb      	ldr	r3, [r7, #8]
    2df8:	7b5a      	ldrb	r2, [r3, #13]
    2dfa:	697b      	ldr	r3, [r7, #20]
    2dfc:	f883 2032 	strb.w	r2, [r3, #50]	; 0x32
    2e00:	68bb      	ldr	r3, [r7, #8]
    2e02:	6818      	ldr	r0, [r3, #0]
    2e04:	2300      	movs	r3, #0
    2e06:	9301      	str	r3, [sp, #4]
    2e08:	2306      	movs	r3, #6
    2e0a:	9300      	str	r3, [sp, #0]
    2e0c:	2303      	movs	r3, #3
    2e0e:	2200      	movs	r2, #0
    2e10:	2100      	movs	r1, #0
    2e12:	f7ff feeb 	bl	2bec <nrf_gpio_cfg>
    2e16:	68bb      	ldr	r3, [r7, #8]
    2e18:	6858      	ldr	r0, [r3, #4]
    2e1a:	2300      	movs	r3, #0
    2e1c:	9301      	str	r3, [sp, #4]
    2e1e:	2306      	movs	r3, #6
    2e20:	9300      	str	r3, [sp, #0]
    2e22:	2303      	movs	r3, #3
    2e24:	2200      	movs	r2, #0
    2e26:	2100      	movs	r1, #0
    2e28:	f7ff fee0 	bl	2bec <nrf_gpio_cfg>
    2e2c:	68fb      	ldr	r3, [r7, #12]
    2e2e:	681b      	ldr	r3, [r3, #0]
    2e30:	61bb      	str	r3, [r7, #24]
    2e32:	68bb      	ldr	r3, [r7, #8]
    2e34:	6819      	ldr	r1, [r3, #0]
    2e36:	68bb      	ldr	r3, [r7, #8]
    2e38:	685b      	ldr	r3, [r3, #4]
    2e3a:	461a      	mov	r2, r3
    2e3c:	69b8      	ldr	r0, [r7, #24]
    2e3e:	f7ff fded 	bl	2a1c <nrf_twim_pins_set>
    2e42:	68bb      	ldr	r3, [r7, #8]
    2e44:	689b      	ldr	r3, [r3, #8]
    2e46:	4619      	mov	r1, r3
    2e48:	69b8      	ldr	r0, [r7, #24]
    2e4a:	f7ff fdfb 	bl	2a44 <nrf_twim_frequency_set>
    2e4e:	697b      	ldr	r3, [r7, #20]
    2e50:	681b      	ldr	r3, [r3, #0]
    2e52:	2b00      	cmp	r3, #0
    2e54:	d015      	beq.n	2e82 <nrfx_twim_init+0x106>
    2e56:	68fb      	ldr	r3, [r7, #12]
    2e58:	681b      	ldr	r3, [r3, #0]
    2e5a:	4618      	mov	r0, r3
    2e5c:	f7ff fd2b 	bl	28b6 <nrfx_get_irq_number>
    2e60:	4603      	mov	r3, r0
    2e62:	461a      	mov	r2, r3
    2e64:	68bb      	ldr	r3, [r7, #8]
    2e66:	7b1b      	ldrb	r3, [r3, #12]
    2e68:	4619      	mov	r1, r3
    2e6a:	4610      	mov	r0, r2
    2e6c:	f7ff fd30 	bl	28d0 <_NRFX_IRQ_PRIORITY_SET>
    2e70:	68fb      	ldr	r3, [r7, #12]
    2e72:	681b      	ldr	r3, [r3, #0]
    2e74:	4618      	mov	r0, r3
    2e76:	f7ff fd1e 	bl	28b6 <nrfx_get_irq_number>
    2e7a:	4603      	mov	r3, r0
    2e7c:	4618      	mov	r0, r3
    2e7e:	f7ff fd3a 	bl	28f6 <_NRFX_IRQ_ENABLE>
    2e82:	697b      	ldr	r3, [r7, #20]
    2e84:	2201      	movs	r2, #1
    2e86:	f883 202d 	strb.w	r2, [r3, #45]	; 0x2d
    2e8a:	2300      	movs	r3, #0
    2e8c:	61fb      	str	r3, [r7, #28]
    2e8e:	69fb      	ldr	r3, [r7, #28]
    2e90:	4618      	mov	r0, r3
    2e92:	3720      	adds	r7, #32
    2e94:	46bd      	mov	sp, r7
    2e96:	bd80      	pop	{r7, pc}
    2e98:	20000678 	.word	0x20000678
    2e9c:	00005ed4 	.word	0x00005ed4

00002ea0 <nrfx_twim_enable>:
    2ea0:	b580      	push	{r7, lr}
    2ea2:	b084      	sub	sp, #16
    2ea4:	af00      	add	r7, sp, #0
    2ea6:	6078      	str	r0, [r7, #4]
    2ea8:	687b      	ldr	r3, [r7, #4]
    2eaa:	791b      	ldrb	r3, [r3, #4]
    2eac:	461a      	mov	r2, r3
    2eae:	2334      	movs	r3, #52	; 0x34
    2eb0:	fb02 f303 	mul.w	r3, r2, r3
    2eb4:	4a07      	ldr	r2, [pc, #28]	; (2ed4 <nrfx_twim_enable+0x34>)
    2eb6:	4413      	add	r3, r2
    2eb8:	60fb      	str	r3, [r7, #12]
    2eba:	687b      	ldr	r3, [r7, #4]
    2ebc:	681b      	ldr	r3, [r3, #0]
    2ebe:	4618      	mov	r0, r3
    2ec0:	f7ff fd90 	bl	29e4 <nrf_twim_enable>
    2ec4:	68fb      	ldr	r3, [r7, #12]
    2ec6:	2202      	movs	r2, #2
    2ec8:	f883 202d 	strb.w	r2, [r3, #45]	; 0x2d
    2ecc:	bf00      	nop
    2ece:	3710      	adds	r7, #16
    2ed0:	46bd      	mov	sp, r7
    2ed2:	bd80      	pop	{r7, pc}
    2ed4:	20000678 	.word	0x20000678

00002ed8 <twim_list_enable_handle>:
    2ed8:	b580      	push	{r7, lr}
    2eda:	b082      	sub	sp, #8
    2edc:	af00      	add	r7, sp, #0
    2ede:	6078      	str	r0, [r7, #4]
    2ee0:	6039      	str	r1, [r7, #0]
    2ee2:	683b      	ldr	r3, [r7, #0]
    2ee4:	f003 0301 	and.w	r3, r3, #1
    2ee8:	2b00      	cmp	r3, #0
    2eea:	d003      	beq.n	2ef4 <twim_list_enable_handle+0x1c>
    2eec:	6878      	ldr	r0, [r7, #4]
    2eee:	f7ff fe39 	bl	2b64 <nrf_twim_tx_list_enable>
    2ef2:	e002      	b.n	2efa <twim_list_enable_handle+0x22>
    2ef4:	6878      	ldr	r0, [r7, #4]
    2ef6:	f7ff fe43 	bl	2b80 <nrf_twim_tx_list_disable>
    2efa:	683b      	ldr	r3, [r7, #0]
    2efc:	f003 0302 	and.w	r3, r3, #2
    2f00:	2b00      	cmp	r3, #0
    2f02:	d003      	beq.n	2f0c <twim_list_enable_handle+0x34>
    2f04:	6878      	ldr	r0, [r7, #4]
    2f06:	f7ff fe49 	bl	2b9c <nrf_twim_rx_list_enable>
    2f0a:	e002      	b.n	2f12 <twim_list_enable_handle+0x3a>
    2f0c:	6878      	ldr	r0, [r7, #4]
    2f0e:	f7ff fe53 	bl	2bb8 <nrf_twim_rx_list_disable>
    2f12:	bf00      	nop
    2f14:	3708      	adds	r7, #8
    2f16:	46bd      	mov	sp, r7
    2f18:	bd80      	pop	{r7, pc}
	...

00002f1c <twim_xfer>:
    2f1c:	b5b0      	push	{r4, r5, r7, lr}
    2f1e:	b088      	sub	sp, #32
    2f20:	af00      	add	r7, sp, #0
    2f22:	60f8      	str	r0, [r7, #12]
    2f24:	60b9      	str	r1, [r7, #8]
    2f26:	607a      	str	r2, [r7, #4]
    2f28:	603b      	str	r3, [r7, #0]
    2f2a:	2300      	movs	r3, #0
    2f2c:	61fb      	str	r3, [r7, #28]
    2f2e:	2308      	movs	r3, #8
    2f30:	76fb      	strb	r3, [r7, #27]
    2f32:	68fb      	ldr	r3, [r7, #12]
    2f34:	2200      	movs	r2, #0
    2f36:	f883 202e 	strb.w	r2, [r3, #46]	; 0x2e
    2f3a:	687b      	ldr	r3, [r7, #4]
    2f3c:	68db      	ldr	r3, [r3, #12]
    2f3e:	4618      	mov	r0, r3
    2f40:	f7ff fca6 	bl	2890 <nrfx_is_in_ram>
    2f44:	4603      	mov	r3, r0
    2f46:	f083 0301 	eor.w	r3, r3, #1
    2f4a:	b2db      	uxtb	r3, r3
    2f4c:	2b00      	cmp	r3, #0
    2f4e:	d003      	beq.n	2f58 <twim_xfer+0x3c>
    2f50:	2310      	movs	r3, #16
    2f52:	61fb      	str	r3, [r7, #28]
    2f54:	69fb      	ldr	r3, [r7, #28]
    2f56:	e1d2      	b.n	32fe <twim_xfer+0x3e2>
    2f58:	49a8      	ldr	r1, [pc, #672]	; (31fc <twim_xfer+0x2e0>)
    2f5a:	68b8      	ldr	r0, [r7, #8]
    2f5c:	f7ff fd33 	bl	29c6 <nrf_twim_int_disable>
    2f60:	68fb      	ldr	r3, [r7, #12]
    2f62:	f893 302f 	ldrb.w	r3, [r3, #47]	; 0x2f
    2f66:	b2db      	uxtb	r3, r3
    2f68:	2b00      	cmp	r3, #0
    2f6a:	d009      	beq.n	2f80 <twim_xfer+0x64>
    2f6c:	68fb      	ldr	r3, [r7, #12]
    2f6e:	689b      	ldr	r3, [r3, #8]
    2f70:	4619      	mov	r1, r3
    2f72:	68b8      	ldr	r0, [r7, #8]
    2f74:	f7ff fd18 	bl	29a8 <nrf_twim_int_enable>
    2f78:	2311      	movs	r3, #17
    2f7a:	61fb      	str	r3, [r7, #28]
    2f7c:	69fb      	ldr	r3, [r7, #28]
    2f7e:	e1be      	b.n	32fe <twim_xfer+0x3e2>
    2f80:	683b      	ldr	r3, [r7, #0]
    2f82:	f003 0304 	and.w	r3, r3, #4
    2f86:	2b00      	cmp	r3, #0
    2f88:	d106      	bne.n	2f98 <twim_xfer+0x7c>
    2f8a:	683b      	ldr	r3, [r7, #0]
    2f8c:	f003 0310 	and.w	r3, r3, #16
    2f90:	2b00      	cmp	r3, #0
    2f92:	d101      	bne.n	2f98 <twim_xfer+0x7c>
    2f94:	2301      	movs	r3, #1
    2f96:	e000      	b.n	2f9a <twim_xfer+0x7e>
    2f98:	2300      	movs	r3, #0
    2f9a:	f003 0301 	and.w	r3, r3, #1
    2f9e:	b2da      	uxtb	r2, r3
    2fa0:	68fb      	ldr	r3, [r7, #12]
    2fa2:	f883 202f 	strb.w	r2, [r3, #47]	; 0x2f
    2fa6:	68fb      	ldr	r3, [r7, #12]
    2fa8:	687a      	ldr	r2, [r7, #4]
    2faa:	f103 040c 	add.w	r4, r3, #12
    2fae:	4615      	mov	r5, r2
    2fb0:	cd0f      	ldmia	r5!, {r0, r1, r2, r3}
    2fb2:	c40f      	stmia	r4!, {r0, r1, r2, r3}
    2fb4:	682b      	ldr	r3, [r5, #0]
    2fb6:	6023      	str	r3, [r4, #0]
    2fb8:	683b      	ldr	r3, [r7, #0]
    2fba:	091b      	lsrs	r3, r3, #4
    2fbc:	f003 0301 	and.w	r3, r3, #1
    2fc0:	2b00      	cmp	r3, #0
    2fc2:	bf14      	ite	ne
    2fc4:	2301      	movne	r3, #1
    2fc6:	2300      	moveq	r3, #0
    2fc8:	b2da      	uxtb	r2, r3
    2fca:	68fb      	ldr	r3, [r7, #12]
    2fcc:	f883 2030 	strb.w	r2, [r3, #48]	; 0x30
    2fd0:	68fb      	ldr	r3, [r7, #12]
    2fd2:	683a      	ldr	r2, [r7, #0]
    2fd4:	621a      	str	r2, [r3, #32]
    2fd6:	687b      	ldr	r3, [r7, #4]
    2fd8:	785b      	ldrb	r3, [r3, #1]
    2fda:	4619      	mov	r1, r3
    2fdc:	68b8      	ldr	r0, [r7, #8]
    2fde:	f7ff fd53 	bl	2a88 <nrf_twim_address_set>
    2fe2:	f44f 7182 	mov.w	r1, #260	; 0x104
    2fe6:	68b8      	ldr	r0, [r7, #8]
    2fe8:	f7ff fcb2 	bl	2950 <nrf_twim_event_clear>
    2fec:	f44f 7192 	mov.w	r1, #292	; 0x124
    2ff0:	68b8      	ldr	r0, [r7, #8]
    2ff2:	f7ff fcad 	bl	2950 <nrf_twim_event_clear>
    2ff6:	f44f 71b0 	mov.w	r1, #352	; 0x160
    2ffa:	68b8      	ldr	r0, [r7, #8]
    2ffc:	f7ff fca8 	bl	2950 <nrf_twim_event_clear>
    3000:	f44f 71a4 	mov.w	r1, #328	; 0x148
    3004:	68b8      	ldr	r0, [r7, #8]
    3006:	f7ff fca3 	bl	2950 <nrf_twim_event_clear>
    300a:	6839      	ldr	r1, [r7, #0]
    300c:	68b8      	ldr	r0, [r7, #8]
    300e:	f7ff ff63 	bl	2ed8 <twim_list_enable_handle>
    3012:	687b      	ldr	r3, [r7, #4]
    3014:	781b      	ldrb	r3, [r3, #0]
    3016:	2b03      	cmp	r3, #3
    3018:	f200 80ba 	bhi.w	3190 <twim_xfer+0x274>
    301c:	a201      	add	r2, pc, #4	; (adr r2, 3024 <twim_xfer+0x108>)
    301e:	f852 f023 	ldr.w	pc, [r2, r3, lsl #2]
    3022:	bf00      	nop
    3024:	0000311b 	.word	0x0000311b
    3028:	00003163 	.word	0x00003163
    302c:	000030c3 	.word	0x000030c3
    3030:	00003035 	.word	0x00003035
    3034:	687b      	ldr	r3, [r7, #4]
    3036:	691b      	ldr	r3, [r3, #16]
    3038:	4618      	mov	r0, r3
    303a:	f7ff fc29 	bl	2890 <nrfx_is_in_ram>
    303e:	4603      	mov	r3, r0
    3040:	f083 0301 	eor.w	r3, r3, #1
    3044:	b2db      	uxtb	r3, r3
    3046:	2b00      	cmp	r3, #0
    3048:	d003      	beq.n	3052 <twim_xfer+0x136>
    304a:	2310      	movs	r3, #16
    304c:	61fb      	str	r3, [r7, #28]
    304e:	69fb      	ldr	r3, [r7, #28]
    3050:	e155      	b.n	32fe <twim_xfer+0x3e2>
    3052:	f44f 7180 	mov.w	r1, #256	; 0x100
    3056:	68b8      	ldr	r0, [r7, #8]
    3058:	f7ff fd4e 	bl	2af8 <nrf_twim_shorts_set>
    305c:	687b      	ldr	r3, [r7, #4]
    305e:	68d9      	ldr	r1, [r3, #12]
    3060:	687b      	ldr	r3, [r7, #4]
    3062:	685b      	ldr	r3, [r3, #4]
    3064:	461a      	mov	r2, r3
    3066:	68b8      	ldr	r0, [r7, #8]
    3068:	f7ff fd1e 	bl	2aa8 <nrf_twim_tx_buffer_set>
    306c:	f44f 71a8 	mov.w	r1, #336	; 0x150
    3070:	68b8      	ldr	r0, [r7, #8]
    3072:	f7ff fc6d 	bl	2950 <nrf_twim_event_clear>
    3076:	2120      	movs	r1, #32
    3078:	68b8      	ldr	r0, [r7, #8]
    307a:	f7ff fc58 	bl	292e <nrf_twim_task_trigger>
    307e:	2108      	movs	r1, #8
    3080:	68b8      	ldr	r0, [r7, #8]
    3082:	f7ff fc54 	bl	292e <nrf_twim_task_trigger>
    3086:	bf00      	nop
    3088:	f44f 71a8 	mov.w	r1, #336	; 0x150
    308c:	68b8      	ldr	r0, [r7, #8]
    308e:	f7ff fc76 	bl	297e <nrf_twim_event_check>
    3092:	4603      	mov	r3, r0
    3094:	f083 0301 	eor.w	r3, r3, #1
    3098:	b2db      	uxtb	r3, r3
    309a:	2b00      	cmp	r3, #0
    309c:	d1f4      	bne.n	3088 <twim_xfer+0x16c>
    309e:	f44f 71a8 	mov.w	r1, #336	; 0x150
    30a2:	68b8      	ldr	r0, [r7, #8]
    30a4:	f7ff fc54 	bl	2950 <nrf_twim_event_clear>
    30a8:	687b      	ldr	r3, [r7, #4]
    30aa:	6919      	ldr	r1, [r3, #16]
    30ac:	687b      	ldr	r3, [r7, #4]
    30ae:	689b      	ldr	r3, [r3, #8]
    30b0:	461a      	mov	r2, r3
    30b2:	68b8      	ldr	r0, [r7, #8]
    30b4:	f7ff fcf8 	bl	2aa8 <nrf_twim_tx_buffer_set>
    30b8:	68fb      	ldr	r3, [r7, #12]
    30ba:	f44f 2280 	mov.w	r2, #262144	; 0x40000
    30be:	609a      	str	r2, [r3, #8]
    30c0:	e069      	b.n	3196 <twim_xfer+0x27a>
    30c2:	687b      	ldr	r3, [r7, #4]
    30c4:	68d9      	ldr	r1, [r3, #12]
    30c6:	687b      	ldr	r3, [r7, #4]
    30c8:	685b      	ldr	r3, [r3, #4]
    30ca:	461a      	mov	r2, r3
    30cc:	68b8      	ldr	r0, [r7, #8]
    30ce:	f7ff fceb 	bl	2aa8 <nrf_twim_tx_buffer_set>
    30d2:	687b      	ldr	r3, [r7, #4]
    30d4:	691b      	ldr	r3, [r3, #16]
    30d6:	4618      	mov	r0, r3
    30d8:	f7ff fbda 	bl	2890 <nrfx_is_in_ram>
    30dc:	4603      	mov	r3, r0
    30de:	f083 0301 	eor.w	r3, r3, #1
    30e2:	b2db      	uxtb	r3, r3
    30e4:	2b00      	cmp	r3, #0
    30e6:	d003      	beq.n	30f0 <twim_xfer+0x1d4>
    30e8:	2310      	movs	r3, #16
    30ea:	61fb      	str	r3, [r7, #28]
    30ec:	69fb      	ldr	r3, [r7, #28]
    30ee:	e106      	b.n	32fe <twim_xfer+0x3e2>
    30f0:	687b      	ldr	r3, [r7, #4]
    30f2:	6919      	ldr	r1, [r3, #16]
    30f4:	687b      	ldr	r3, [r7, #4]
    30f6:	689b      	ldr	r3, [r3, #8]
    30f8:	461a      	mov	r2, r3
    30fa:	68b8      	ldr	r0, [r7, #8]
    30fc:	f7ff fce8 	bl	2ad0 <nrf_twim_rx_buffer_set>
    3100:	f44f 5184 	mov.w	r1, #4224	; 0x1080
    3104:	68b8      	ldr	r0, [r7, #8]
    3106:	f7ff fcf7 	bl	2af8 <nrf_twim_shorts_set>
    310a:	68fb      	ldr	r3, [r7, #12]
    310c:	2202      	movs	r2, #2
    310e:	609a      	str	r2, [r3, #8]
    3110:	2120      	movs	r1, #32
    3112:	68b8      	ldr	r0, [r7, #8]
    3114:	f7ff fc0b 	bl	292e <nrf_twim_task_trigger>
    3118:	e03d      	b.n	3196 <twim_xfer+0x27a>
    311a:	687b      	ldr	r3, [r7, #4]
    311c:	68d9      	ldr	r1, [r3, #12]
    311e:	687b      	ldr	r3, [r7, #4]
    3120:	685b      	ldr	r3, [r3, #4]
    3122:	461a      	mov	r2, r3
    3124:	68b8      	ldr	r0, [r7, #8]
    3126:	f7ff fcbf 	bl	2aa8 <nrf_twim_tx_buffer_set>
    312a:	683b      	ldr	r3, [r7, #0]
    312c:	f003 0320 	and.w	r3, r3, #32
    3130:	2b00      	cmp	r3, #0
    3132:	d009      	beq.n	3148 <twim_xfer+0x22c>
    3134:	f44f 7180 	mov.w	r1, #256	; 0x100
    3138:	68b8      	ldr	r0, [r7, #8]
    313a:	f7ff fcdd 	bl	2af8 <nrf_twim_shorts_set>
    313e:	68fb      	ldr	r3, [r7, #12]
    3140:	f44f 2280 	mov.w	r2, #262144	; 0x40000
    3144:	609a      	str	r2, [r3, #8]
    3146:	e007      	b.n	3158 <twim_xfer+0x23c>
    3148:	f44f 7100 	mov.w	r1, #512	; 0x200
    314c:	68b8      	ldr	r0, [r7, #8]
    314e:	f7ff fcd3 	bl	2af8 <nrf_twim_shorts_set>
    3152:	68fb      	ldr	r3, [r7, #12]
    3154:	2202      	movs	r2, #2
    3156:	609a      	str	r2, [r3, #8]
    3158:	2120      	movs	r1, #32
    315a:	68b8      	ldr	r0, [r7, #8]
    315c:	f7ff fbe7 	bl	292e <nrf_twim_task_trigger>
    3160:	e019      	b.n	3196 <twim_xfer+0x27a>
    3162:	687b      	ldr	r3, [r7, #4]
    3164:	68d9      	ldr	r1, [r3, #12]
    3166:	687b      	ldr	r3, [r7, #4]
    3168:	685b      	ldr	r3, [r3, #4]
    316a:	461a      	mov	r2, r3
    316c:	68b8      	ldr	r0, [r7, #8]
    316e:	f7ff fcaf 	bl	2ad0 <nrf_twim_rx_buffer_set>
    3172:	f44f 5180 	mov.w	r1, #4096	; 0x1000
    3176:	68b8      	ldr	r0, [r7, #8]
    3178:	f7ff fcbe 	bl	2af8 <nrf_twim_shorts_set>
    317c:	68fb      	ldr	r3, [r7, #12]
    317e:	2202      	movs	r2, #2
    3180:	609a      	str	r2, [r3, #8]
    3182:	2300      	movs	r3, #0
    3184:	76fb      	strb	r3, [r7, #27]
    3186:	2120      	movs	r1, #32
    3188:	68b8      	ldr	r0, [r7, #8]
    318a:	f7ff fbd0 	bl	292e <nrf_twim_task_trigger>
    318e:	e002      	b.n	3196 <twim_xfer+0x27a>
    3190:	2307      	movs	r3, #7
    3192:	61fb      	str	r3, [r7, #28]
    3194:	bf00      	nop
    3196:	683b      	ldr	r3, [r7, #0]
    3198:	f003 0308 	and.w	r3, r3, #8
    319c:	2b00      	cmp	r3, #0
    319e:	d108      	bne.n	31b2 <twim_xfer+0x296>
    31a0:	687b      	ldr	r3, [r7, #4]
    31a2:	781b      	ldrb	r3, [r3, #0]
    31a4:	2b03      	cmp	r3, #3
    31a6:	d004      	beq.n	31b2 <twim_xfer+0x296>
    31a8:	7efb      	ldrb	r3, [r7, #27]
    31aa:	4619      	mov	r1, r3
    31ac:	68b8      	ldr	r0, [r7, #8]
    31ae:	f7ff fbbe 	bl	292e <nrf_twim_task_trigger>
    31b2:	68fb      	ldr	r3, [r7, #12]
    31b4:	681b      	ldr	r3, [r3, #0]
    31b6:	2b00      	cmp	r3, #0
    31b8:	d022      	beq.n	3200 <twim_xfer+0x2e4>
    31ba:	683b      	ldr	r3, [r7, #0]
    31bc:	f003 0304 	and.w	r3, r3, #4
    31c0:	2b00      	cmp	r3, #0
    31c2:	d002      	beq.n	31ca <twim_xfer+0x2ae>
    31c4:	68fb      	ldr	r3, [r7, #12]
    31c6:	2200      	movs	r2, #0
    31c8:	609a      	str	r2, [r3, #8]
    31ca:	683b      	ldr	r3, [r7, #0]
    31cc:	f003 0340 	and.w	r3, r3, #64	; 0x40
    31d0:	2b00      	cmp	r3, #0
    31d2:	d105      	bne.n	31e0 <twim_xfer+0x2c4>
    31d4:	68fb      	ldr	r3, [r7, #12]
    31d6:	689b      	ldr	r3, [r3, #8]
    31d8:	f043 0202 	orr.w	r2, r3, #2
    31dc:	68fb      	ldr	r3, [r7, #12]
    31de:	609a      	str	r2, [r3, #8]
    31e0:	68fb      	ldr	r3, [r7, #12]
    31e2:	689b      	ldr	r3, [r3, #8]
    31e4:	f443 7200 	orr.w	r2, r3, #512	; 0x200
    31e8:	68fb      	ldr	r3, [r7, #12]
    31ea:	609a      	str	r2, [r3, #8]
    31ec:	68fb      	ldr	r3, [r7, #12]
    31ee:	689b      	ldr	r3, [r3, #8]
    31f0:	4619      	mov	r1, r3
    31f2:	68b8      	ldr	r0, [r7, #8]
    31f4:	f7ff fbd8 	bl	29a8 <nrf_twim_int_enable>
    31f8:	e080      	b.n	32fc <twim_xfer+0x3e0>
    31fa:	bf00      	nop
    31fc:	019c0202 	.word	0x019c0202
    3200:	2300      	movs	r3, #0
    3202:	76bb      	strb	r3, [r7, #26]
    3204:	f44f 71a4 	mov.w	r1, #328	; 0x148
    3208:	68b8      	ldr	r0, [r7, #8]
    320a:	f7ff fbb8 	bl	297e <nrf_twim_event_check>
    320e:	4603      	mov	r3, r0
    3210:	2b00      	cmp	r3, #0
    3212:	d001      	beq.n	3218 <twim_xfer+0x2fc>
    3214:	2301      	movs	r3, #1
    3216:	76bb      	strb	r3, [r7, #26]
    3218:	f44f 7182 	mov.w	r1, #260	; 0x104
    321c:	68b8      	ldr	r0, [r7, #8]
    321e:	f7ff fbae 	bl	297e <nrf_twim_event_check>
    3222:	4603      	mov	r3, r0
    3224:	2b00      	cmp	r3, #0
    3226:	d006      	beq.n	3236 <twim_xfer+0x31a>
    3228:	f44f 7182 	mov.w	r1, #260	; 0x104
    322c:	68b8      	ldr	r0, [r7, #8]
    322e:	f7ff fb8f 	bl	2950 <nrf_twim_event_clear>
    3232:	2301      	movs	r3, #1
    3234:	76bb      	strb	r3, [r7, #26]
    3236:	f44f 7192 	mov.w	r1, #292	; 0x124
    323a:	68b8      	ldr	r0, [r7, #8]
    323c:	f7ff fb9f 	bl	297e <nrf_twim_event_check>
    3240:	4603      	mov	r3, r0
    3242:	2b00      	cmp	r3, #0
    3244:	d033      	beq.n	32ae <twim_xfer+0x392>
    3246:	f44f 7192 	mov.w	r1, #292	; 0x124
    324a:	68b8      	ldr	r0, [r7, #8]
    324c:	f7ff fb80 	bl	2950 <nrf_twim_event_clear>
    3250:	f44f 71b0 	mov.w	r1, #352	; 0x160
    3254:	68b8      	ldr	r0, [r7, #8]
    3256:	f7ff fb92 	bl	297e <nrf_twim_event_check>
    325a:	4603      	mov	r3, r0
    325c:	767b      	strb	r3, [r7, #25]
    325e:	68b8      	ldr	r0, [r7, #8]
    3260:	f7ff fc66 	bl	2b30 <nrf_twim_shorts_get>
    3264:	6178      	str	r0, [r7, #20]
    3266:	7e7b      	ldrb	r3, [r7, #25]
    3268:	f083 0301 	eor.w	r3, r3, #1
    326c:	b2db      	uxtb	r3, r3
    326e:	2b00      	cmp	r3, #0
    3270:	d104      	bne.n	327c <twim_xfer+0x360>
    3272:	697b      	ldr	r3, [r7, #20]
    3274:	f403 7300 	and.w	r3, r3, #512	; 0x200
    3278:	2b00      	cmp	r3, #0
    327a:	d109      	bne.n	3290 <twim_xfer+0x374>
    327c:	2120      	movs	r1, #32
    327e:	68b8      	ldr	r0, [r7, #8]
    3280:	f7ff fb55 	bl	292e <nrf_twim_task_trigger>
    3284:	2114      	movs	r1, #20
    3286:	68b8      	ldr	r0, [r7, #8]
    3288:	f7ff fb51 	bl	292e <nrf_twim_task_trigger>
    328c:	2300      	movs	r3, #0
    328e:	76bb      	strb	r3, [r7, #26]
    3290:	7e7b      	ldrb	r3, [r7, #25]
    3292:	2b00      	cmp	r3, #0
    3294:	d00b      	beq.n	32ae <twim_xfer+0x392>
    3296:	697b      	ldr	r3, [r7, #20]
    3298:	f403 7380 	and.w	r3, r3, #256	; 0x100
    329c:	2b00      	cmp	r3, #0
    329e:	d006      	beq.n	32ae <twim_xfer+0x392>
    32a0:	f44f 71a4 	mov.w	r1, #328	; 0x148
    32a4:	68b8      	ldr	r0, [r7, #8]
    32a6:	f7ff fb53 	bl	2950 <nrf_twim_event_clear>
    32aa:	2300      	movs	r3, #0
    32ac:	76bb      	strb	r3, [r7, #26]
    32ae:	7ebb      	ldrb	r3, [r7, #26]
    32b0:	f083 0301 	eor.w	r3, r3, #1
    32b4:	b2db      	uxtb	r3, r3
    32b6:	2b00      	cmp	r3, #0
    32b8:	d1a4      	bne.n	3204 <twim_xfer+0x2e8>
    32ba:	68b8      	ldr	r0, [r7, #8]
    32bc:	f7ff fbd1 	bl	2a62 <nrf_twim_errorsrc_get_and_clear>
    32c0:	6138      	str	r0, [r7, #16]
    32c2:	68fb      	ldr	r3, [r7, #12]
    32c4:	2200      	movs	r2, #0
    32c6:	f883 202f 	strb.w	r2, [r3, #47]	; 0x2f
    32ca:	693b      	ldr	r3, [r7, #16]
    32cc:	2b00      	cmp	r3, #0
    32ce:	d004      	beq.n	32da <twim_xfer+0x3be>
    32d0:	6938      	ldr	r0, [r7, #16]
    32d2:	f7ff fcb5 	bl	2c40 <twi_process_error>
    32d6:	61f8      	str	r0, [r7, #28]
    32d8:	e010      	b.n	32fc <twim_xfer+0x3e0>
    32da:	683b      	ldr	r3, [r7, #0]
    32dc:	f003 0340 	and.w	r3, r3, #64	; 0x40
    32e0:	2b00      	cmp	r3, #0
    32e2:	d10b      	bne.n	32fc <twim_xfer+0x3e0>
    32e4:	68f9      	ldr	r1, [r7, #12]
    32e6:	68b8      	ldr	r0, [r7, #8]
    32e8:	f7ff fcd0 	bl	2c8c <xfer_completeness_check>
    32ec:	4603      	mov	r3, r0
    32ee:	f083 0301 	eor.w	r3, r3, #1
    32f2:	b2db      	uxtb	r3, r3
    32f4:	2b00      	cmp	r3, #0
    32f6:	d001      	beq.n	32fc <twim_xfer+0x3e0>
    32f8:	2303      	movs	r3, #3
    32fa:	61fb      	str	r3, [r7, #28]
    32fc:	69fb      	ldr	r3, [r7, #28]
    32fe:	4618      	mov	r0, r3
    3300:	3720      	adds	r7, #32
    3302:	46bd      	mov	sp, r7
    3304:	bdb0      	pop	{r4, r5, r7, pc}
    3306:	bf00      	nop

00003308 <nrfx_twim_xfer>:
    3308:	b580      	push	{r7, lr}
    330a:	b086      	sub	sp, #24
    330c:	af00      	add	r7, sp, #0
    330e:	60f8      	str	r0, [r7, #12]
    3310:	60b9      	str	r1, [r7, #8]
    3312:	607a      	str	r2, [r7, #4]
    3314:	2300      	movs	r3, #0
    3316:	617b      	str	r3, [r7, #20]
    3318:	68fb      	ldr	r3, [r7, #12]
    331a:	791b      	ldrb	r3, [r3, #4]
    331c:	461a      	mov	r2, r3
    331e:	2334      	movs	r3, #52	; 0x34
    3320:	fb02 f303 	mul.w	r3, r2, r3
    3324:	4a07      	ldr	r2, [pc, #28]	; (3344 <nrfx_twim_xfer+0x3c>)
    3326:	4413      	add	r3, r2
    3328:	613b      	str	r3, [r7, #16]
    332a:	68fb      	ldr	r3, [r7, #12]
    332c:	6819      	ldr	r1, [r3, #0]
    332e:	687b      	ldr	r3, [r7, #4]
    3330:	68ba      	ldr	r2, [r7, #8]
    3332:	6938      	ldr	r0, [r7, #16]
    3334:	f7ff fdf2 	bl	2f1c <twim_xfer>
    3338:	6178      	str	r0, [r7, #20]
    333a:	697b      	ldr	r3, [r7, #20]
    333c:	4618      	mov	r0, r3
    333e:	3718      	adds	r7, #24
    3340:	46bd      	mov	sp, r7
    3342:	bd80      	pop	{r7, pc}
    3344:	20000678 	.word	0x20000678

00003348 <nrfx_twim_tx>:
    3348:	b580      	push	{r7, lr}
    334a:	b08a      	sub	sp, #40	; 0x28
    334c:	af00      	add	r7, sp, #0
    334e:	60f8      	str	r0, [r7, #12]
    3350:	607a      	str	r2, [r7, #4]
    3352:	603b      	str	r3, [r7, #0]
    3354:	460b      	mov	r3, r1
    3356:	72fb      	strb	r3, [r7, #11]
    3358:	2300      	movs	r3, #0
    335a:	753b      	strb	r3, [r7, #20]
    335c:	7afb      	ldrb	r3, [r7, #11]
    335e:	757b      	strb	r3, [r7, #21]
    3360:	683b      	ldr	r3, [r7, #0]
    3362:	61bb      	str	r3, [r7, #24]
    3364:	2300      	movs	r3, #0
    3366:	61fb      	str	r3, [r7, #28]
    3368:	687b      	ldr	r3, [r7, #4]
    336a:	623b      	str	r3, [r7, #32]
    336c:	2300      	movs	r3, #0
    336e:	627b      	str	r3, [r7, #36]	; 0x24
    3370:	f897 3030 	ldrb.w	r3, [r7, #48]	; 0x30
    3374:	2b00      	cmp	r3, #0
    3376:	d001      	beq.n	337c <nrfx_twim_tx+0x34>
    3378:	2220      	movs	r2, #32
    337a:	e000      	b.n	337e <nrfx_twim_tx+0x36>
    337c:	2200      	movs	r2, #0
    337e:	f107 0314 	add.w	r3, r7, #20
    3382:	4619      	mov	r1, r3
    3384:	68f8      	ldr	r0, [r7, #12]
    3386:	f7ff ffbf 	bl	3308 <nrfx_twim_xfer>
    338a:	4603      	mov	r3, r0
    338c:	4618      	mov	r0, r3
    338e:	3728      	adds	r7, #40	; 0x28
    3390:	46bd      	mov	sp, r7
    3392:	bd80      	pop	{r7, pc}

00003394 <nrfx_twim_rx>:
    3394:	b580      	push	{r7, lr}
    3396:	b08a      	sub	sp, #40	; 0x28
    3398:	af00      	add	r7, sp, #0
    339a:	60f8      	str	r0, [r7, #12]
    339c:	607a      	str	r2, [r7, #4]
    339e:	603b      	str	r3, [r7, #0]
    33a0:	460b      	mov	r3, r1
    33a2:	72fb      	strb	r3, [r7, #11]
    33a4:	2301      	movs	r3, #1
    33a6:	753b      	strb	r3, [r7, #20]
    33a8:	7afb      	ldrb	r3, [r7, #11]
    33aa:	757b      	strb	r3, [r7, #21]
    33ac:	683b      	ldr	r3, [r7, #0]
    33ae:	61bb      	str	r3, [r7, #24]
    33b0:	2300      	movs	r3, #0
    33b2:	61fb      	str	r3, [r7, #28]
    33b4:	687b      	ldr	r3, [r7, #4]
    33b6:	623b      	str	r3, [r7, #32]
    33b8:	2300      	movs	r3, #0
    33ba:	627b      	str	r3, [r7, #36]	; 0x24
    33bc:	f107 0314 	add.w	r3, r7, #20
    33c0:	2200      	movs	r2, #0
    33c2:	4619      	mov	r1, r3
    33c4:	68f8      	ldr	r0, [r7, #12]
    33c6:	f7ff ff9f 	bl	3308 <nrfx_twim_xfer>
    33ca:	4603      	mov	r3, r0
    33cc:	4618      	mov	r0, r3
    33ce:	3728      	adds	r7, #40	; 0x28
    33d0:	46bd      	mov	sp, r7
    33d2:	bd80      	pop	{r7, pc}

000033d4 <twim_irq_handler>:
    33d4:	b5b0      	push	{r4, r5, r7, lr}
    33d6:	b08a      	sub	sp, #40	; 0x28
    33d8:	af00      	add	r7, sp, #0
    33da:	6078      	str	r0, [r7, #4]
    33dc:	6039      	str	r1, [r7, #0]
    33de:	f44f 7192 	mov.w	r1, #292	; 0x124
    33e2:	6878      	ldr	r0, [r7, #4]
    33e4:	f7ff facb 	bl	297e <nrf_twim_event_check>
    33e8:	4603      	mov	r3, r0
    33ea:	2b00      	cmp	r3, #0
    33ec:	d03e      	beq.n	346c <twim_irq_handler+0x98>
    33ee:	f44f 7192 	mov.w	r1, #292	; 0x124
    33f2:	6878      	ldr	r0, [r7, #4]
    33f4:	f7ff faac 	bl	2950 <nrf_twim_event_clear>
    33f8:	f44f 7182 	mov.w	r1, #260	; 0x104
    33fc:	6878      	ldr	r0, [r7, #4]
    33fe:	f7ff fabe 	bl	297e <nrf_twim_event_check>
    3402:	4603      	mov	r3, r0
    3404:	f083 0301 	eor.w	r3, r3, #1
    3408:	b2db      	uxtb	r3, r3
    340a:	2b00      	cmp	r3, #0
    340c:	d02e      	beq.n	346c <twim_irq_handler+0x98>
    340e:	683b      	ldr	r3, [r7, #0]
    3410:	689b      	ldr	r3, [r3, #8]
    3412:	4619      	mov	r1, r3
    3414:	6878      	ldr	r0, [r7, #4]
    3416:	f7ff fad6 	bl	29c6 <nrf_twim_int_disable>
    341a:	683b      	ldr	r3, [r7, #0]
    341c:	2202      	movs	r2, #2
    341e:	609a      	str	r2, [r3, #8]
    3420:	683b      	ldr	r3, [r7, #0]
    3422:	689b      	ldr	r3, [r3, #8]
    3424:	4619      	mov	r1, r3
    3426:	6878      	ldr	r0, [r7, #4]
    3428:	f7ff fabe 	bl	29a8 <nrf_twim_int_enable>
    342c:	f44f 71b0 	mov.w	r1, #352	; 0x160
    3430:	6878      	ldr	r0, [r7, #4]
    3432:	f7ff faa4 	bl	297e <nrf_twim_event_check>
    3436:	4603      	mov	r3, r0
    3438:	f083 0301 	eor.w	r3, r3, #1
    343c:	b2db      	uxtb	r3, r3
    343e:	2b00      	cmp	r3, #0
    3440:	d107      	bne.n	3452 <twim_irq_handler+0x7e>
    3442:	6878      	ldr	r0, [r7, #4]
    3444:	f7ff fb74 	bl	2b30 <nrf_twim_shorts_get>
    3448:	4603      	mov	r3, r0
    344a:	f403 7300 	and.w	r3, r3, #512	; 0x200
    344e:	2b00      	cmp	r3, #0
    3450:	d107      	bne.n	3462 <twim_irq_handler+0x8e>
    3452:	2120      	movs	r1, #32
    3454:	6878      	ldr	r0, [r7, #4]
    3456:	f7ff fa6a 	bl	292e <nrf_twim_task_trigger>
    345a:	2114      	movs	r1, #20
    345c:	6878      	ldr	r0, [r7, #4]
    345e:	f7ff fa66 	bl	292e <nrf_twim_task_trigger>
    3462:	683b      	ldr	r3, [r7, #0]
    3464:	2201      	movs	r2, #1
    3466:	f883 202e 	strb.w	r2, [r3, #46]	; 0x2e
    346a:	e0f4      	b.n	3656 <twim_irq_handler+0x282>
    346c:	f44f 7182 	mov.w	r1, #260	; 0x104
    3470:	6878      	ldr	r0, [r7, #4]
    3472:	f7ff fa84 	bl	297e <nrf_twim_event_check>
    3476:	4603      	mov	r3, r0
    3478:	2b00      	cmp	r3, #0
    347a:	d05e      	beq.n	353a <twim_irq_handler+0x166>
    347c:	f44f 7182 	mov.w	r1, #260	; 0x104
    3480:	6878      	ldr	r0, [r7, #4]
    3482:	f7ff fa65 	bl	2950 <nrf_twim_event_clear>
    3486:	683b      	ldr	r3, [r7, #0]
    3488:	6a1b      	ldr	r3, [r3, #32]
    348a:	f003 0340 	and.w	r3, r3, #64	; 0x40
    348e:	2b00      	cmp	r3, #0
    3490:	d11a      	bne.n	34c8 <twim_irq_handler+0xf4>
    3492:	683b      	ldr	r3, [r7, #0]
    3494:	f893 302e 	ldrb.w	r3, [r3, #46]	; 0x2e
    3498:	f083 0301 	eor.w	r3, r3, #1
    349c:	b2db      	uxtb	r3, r3
    349e:	2b00      	cmp	r3, #0
    34a0:	d012      	beq.n	34c8 <twim_irq_handler+0xf4>
    34a2:	6839      	ldr	r1, [r7, #0]
    34a4:	6878      	ldr	r0, [r7, #4]
    34a6:	f7ff fbf1 	bl	2c8c <xfer_completeness_check>
    34aa:	4603      	mov	r3, r0
    34ac:	2b00      	cmp	r3, #0
    34ae:	bf14      	ite	ne
    34b0:	2301      	movne	r3, #1
    34b2:	2300      	moveq	r3, #0
    34b4:	b2db      	uxtb	r3, r3
    34b6:	f083 0301 	eor.w	r3, r3, #1
    34ba:	b2db      	uxtb	r3, r3
    34bc:	f003 0301 	and.w	r3, r3, #1
    34c0:	b2da      	uxtb	r2, r3
    34c2:	683b      	ldr	r3, [r7, #0]
    34c4:	f883 202e 	strb.w	r2, [r3, #46]	; 0x2e
    34c8:	683b      	ldr	r3, [r7, #0]
    34ca:	6a1b      	ldr	r3, [r3, #32]
    34cc:	f003 0304 	and.w	r3, r3, #4
    34d0:	2b00      	cmp	r3, #0
    34d2:	d17b      	bne.n	35cc <twim_irq_handler+0x1f8>
    34d4:	683b      	ldr	r3, [r7, #0]
    34d6:	f107 0410 	add.w	r4, r7, #16
    34da:	f103 050c 	add.w	r5, r3, #12
    34de:	cd0f      	ldmia	r5!, {r0, r1, r2, r3}
    34e0:	c40f      	stmia	r4!, {r0, r1, r2, r3}
    34e2:	682b      	ldr	r3, [r5, #0]
    34e4:	6023      	str	r3, [r4, #0]
    34e6:	f44f 71b0 	mov.w	r1, #352	; 0x160
    34ea:	6878      	ldr	r0, [r7, #4]
    34ec:	f7ff fa30 	bl	2950 <nrf_twim_event_clear>
    34f0:	f44f 71ae 	mov.w	r1, #348	; 0x15c
    34f4:	6878      	ldr	r0, [r7, #4]
    34f6:	f7ff fa2b 	bl	2950 <nrf_twim_event_clear>
    34fa:	683b      	ldr	r3, [r7, #0]
    34fc:	f893 3030 	ldrb.w	r3, [r3, #48]	; 0x30
    3500:	f083 0301 	eor.w	r3, r3, #1
    3504:	b2db      	uxtb	r3, r3
    3506:	2b00      	cmp	r3, #0
    3508:	d104      	bne.n	3514 <twim_irq_handler+0x140>
    350a:	683b      	ldr	r3, [r7, #0]
    350c:	f893 302e 	ldrb.w	r3, [r3, #46]	; 0x2e
    3510:	2b00      	cmp	r3, #0
    3512:	d05b      	beq.n	35cc <twim_irq_handler+0x1f8>
    3514:	2100      	movs	r1, #0
    3516:	6878      	ldr	r0, [r7, #4]
    3518:	f7ff faee 	bl	2af8 <nrf_twim_shorts_set>
    351c:	683b      	ldr	r3, [r7, #0]
    351e:	2200      	movs	r2, #0
    3520:	609a      	str	r2, [r3, #8]
    3522:	494e      	ldr	r1, [pc, #312]	; (365c <twim_irq_handler+0x288>)
    3524:	6878      	ldr	r0, [r7, #4]
    3526:	f7ff fa4e 	bl	29c6 <nrf_twim_int_disable>
    352a:	6878      	ldr	r0, [r7, #4]
    352c:	f7ff f9c3 	bl	28b6 <nrfx_get_irq_number>
    3530:	4603      	mov	r3, r0
    3532:	4618      	mov	r0, r3
    3534:	f7ff f9ed 	bl	2912 <_NRFX_IRQ_PENDING_CLEAR>
    3538:	e048      	b.n	35cc <twim_irq_handler+0x1f8>
    353a:	f44f 71a4 	mov.w	r1, #328	; 0x148
    353e:	6878      	ldr	r0, [r7, #4]
    3540:	f7ff fa06 	bl	2950 <nrf_twim_event_clear>
    3544:	683b      	ldr	r3, [r7, #0]
    3546:	7b1b      	ldrb	r3, [r3, #12]
    3548:	2b00      	cmp	r3, #0
    354a:	d123      	bne.n	3594 <twim_irq_handler+0x1c0>
    354c:	683b      	ldr	r3, [r7, #0]
    354e:	f107 0410 	add.w	r4, r7, #16
    3552:	f103 050c 	add.w	r5, r3, #12
    3556:	cd0f      	ldmia	r5!, {r0, r1, r2, r3}
    3558:	c40f      	stmia	r4!, {r0, r1, r2, r3}
    355a:	682b      	ldr	r3, [r5, #0]
    355c:	6023      	str	r3, [r4, #0]
    355e:	683b      	ldr	r3, [r7, #0]
    3560:	f893 3030 	ldrb.w	r3, [r3, #48]	; 0x30
    3564:	f083 0301 	eor.w	r3, r3, #1
    3568:	b2db      	uxtb	r3, r3
    356a:	2b00      	cmp	r3, #0
    356c:	d02e      	beq.n	35cc <twim_irq_handler+0x1f8>
    356e:	2100      	movs	r1, #0
    3570:	6878      	ldr	r0, [r7, #4]
    3572:	f7ff fac1 	bl	2af8 <nrf_twim_shorts_set>
    3576:	683b      	ldr	r3, [r7, #0]
    3578:	2200      	movs	r2, #0
    357a:	609a      	str	r2, [r3, #8]
    357c:	4937      	ldr	r1, [pc, #220]	; (365c <twim_irq_handler+0x288>)
    357e:	6878      	ldr	r0, [r7, #4]
    3580:	f7ff fa21 	bl	29c6 <nrf_twim_int_disable>
    3584:	6878      	ldr	r0, [r7, #4]
    3586:	f7ff f996 	bl	28b6 <nrfx_get_irq_number>
    358a:	4603      	mov	r3, r0
    358c:	4618      	mov	r0, r3
    358e:	f7ff f9c0 	bl	2912 <_NRFX_IRQ_PENDING_CLEAR>
    3592:	e01b      	b.n	35cc <twim_irq_handler+0x1f8>
    3594:	f44f 7100 	mov.w	r1, #512	; 0x200
    3598:	6878      	ldr	r0, [r7, #4]
    359a:	f7ff faad 	bl	2af8 <nrf_twim_shorts_set>
    359e:	683b      	ldr	r3, [r7, #0]
    35a0:	f240 2202 	movw	r2, #514	; 0x202
    35a4:	609a      	str	r2, [r3, #8]
    35a6:	492d      	ldr	r1, [pc, #180]	; (365c <twim_irq_handler+0x288>)
    35a8:	6878      	ldr	r0, [r7, #4]
    35aa:	f7ff fa0c 	bl	29c6 <nrf_twim_int_disable>
    35ae:	683b      	ldr	r3, [r7, #0]
    35b0:	689b      	ldr	r3, [r3, #8]
    35b2:	4619      	mov	r1, r3
    35b4:	6878      	ldr	r0, [r7, #4]
    35b6:	f7ff f9f7 	bl	29a8 <nrf_twim_int_enable>
    35ba:	2108      	movs	r1, #8
    35bc:	6878      	ldr	r0, [r7, #4]
    35be:	f7ff f9b6 	bl	292e <nrf_twim_task_trigger>
    35c2:	2120      	movs	r1, #32
    35c4:	6878      	ldr	r0, [r7, #4]
    35c6:	f7ff f9b2 	bl	292e <nrf_twim_task_trigger>
    35ca:	e044      	b.n	3656 <twim_irq_handler+0x282>
    35cc:	6878      	ldr	r0, [r7, #4]
    35ce:	f7ff fa48 	bl	2a62 <nrf_twim_errorsrc_get_and_clear>
    35d2:	6278      	str	r0, [r7, #36]	; 0x24
    35d4:	6a7b      	ldr	r3, [r7, #36]	; 0x24
    35d6:	f003 0302 	and.w	r3, r3, #2
    35da:	2b00      	cmp	r3, #0
    35dc:	d002      	beq.n	35e4 <twim_irq_handler+0x210>
    35de:	2301      	movs	r3, #1
    35e0:	733b      	strb	r3, [r7, #12]
    35e2:	e019      	b.n	3618 <twim_irq_handler+0x244>
    35e4:	6a7b      	ldr	r3, [r7, #36]	; 0x24
    35e6:	f003 0304 	and.w	r3, r3, #4
    35ea:	2b00      	cmp	r3, #0
    35ec:	d002      	beq.n	35f4 <twim_irq_handler+0x220>
    35ee:	2302      	movs	r3, #2
    35f0:	733b      	strb	r3, [r7, #12]
    35f2:	e011      	b.n	3618 <twim_irq_handler+0x244>
    35f4:	6a7b      	ldr	r3, [r7, #36]	; 0x24
    35f6:	f003 0301 	and.w	r3, r3, #1
    35fa:	2b00      	cmp	r3, #0
    35fc:	d002      	beq.n	3604 <twim_irq_handler+0x230>
    35fe:	2303      	movs	r3, #3
    3600:	733b      	strb	r3, [r7, #12]
    3602:	e009      	b.n	3618 <twim_irq_handler+0x244>
    3604:	683b      	ldr	r3, [r7, #0]
    3606:	f893 302e 	ldrb.w	r3, [r3, #46]	; 0x2e
    360a:	2b00      	cmp	r3, #0
    360c:	d002      	beq.n	3614 <twim_irq_handler+0x240>
    360e:	2304      	movs	r3, #4
    3610:	733b      	strb	r3, [r7, #12]
    3612:	e001      	b.n	3618 <twim_irq_handler+0x244>
    3614:	2300      	movs	r3, #0
    3616:	733b      	strb	r3, [r7, #12]
    3618:	683b      	ldr	r3, [r7, #0]
    361a:	f893 3030 	ldrb.w	r3, [r3, #48]	; 0x30
    361e:	f083 0301 	eor.w	r3, r3, #1
    3622:	b2db      	uxtb	r3, r3
    3624:	2b00      	cmp	r3, #0
    3626:	d003      	beq.n	3630 <twim_irq_handler+0x25c>
    3628:	683b      	ldr	r3, [r7, #0]
    362a:	2200      	movs	r2, #0
    362c:	f883 202f 	strb.w	r2, [r3, #47]	; 0x2f
    3630:	683b      	ldr	r3, [r7, #0]
    3632:	6a1b      	ldr	r3, [r3, #32]
    3634:	f003 0304 	and.w	r3, r3, #4
    3638:	2b00      	cmp	r3, #0
    363a:	d004      	beq.n	3646 <twim_irq_handler+0x272>
    363c:	683b      	ldr	r3, [r7, #0]
    363e:	f893 302e 	ldrb.w	r3, [r3, #46]	; 0x2e
    3642:	2b00      	cmp	r3, #0
    3644:	d007      	beq.n	3656 <twim_irq_handler+0x282>
    3646:	683b      	ldr	r3, [r7, #0]
    3648:	681b      	ldr	r3, [r3, #0]
    364a:	683a      	ldr	r2, [r7, #0]
    364c:	6851      	ldr	r1, [r2, #4]
    364e:	f107 020c 	add.w	r2, r7, #12
    3652:	4610      	mov	r0, r2
    3654:	4798      	blx	r3
    3656:	3728      	adds	r7, #40	; 0x28
    3658:	46bd      	mov	sp, r7
    365a:	bdb0      	pop	{r4, r5, r7, pc}
    365c:	019c0202 	.word	0x019c0202

00003660 <SPIM0_SPIS0_TWIM0_TWIS0_SPI0_TWI0_IRQHandler>:
    3660:	b580      	push	{r7, lr}
    3662:	af00      	add	r7, sp, #0
    3664:	4902      	ldr	r1, [pc, #8]	; (3670 <SPIM0_SPIS0_TWIM0_TWIS0_SPI0_TWI0_IRQHandler+0x10>)
    3666:	4803      	ldr	r0, [pc, #12]	; (3674 <SPIM0_SPIS0_TWIM0_TWIS0_SPI0_TWI0_IRQHandler+0x14>)
    3668:	f7ff feb4 	bl	33d4 <twim_irq_handler>
    366c:	bf00      	nop
    366e:	bd80      	pop	{r7, pc}
    3670:	20000678 	.word	0x20000678
    3674:	40003000 	.word	0x40003000

00003678 <__NVIC_EnableIRQ>:
    3678:	b480      	push	{r7}
    367a:	b083      	sub	sp, #12
    367c:	af00      	add	r7, sp, #0
    367e:	4603      	mov	r3, r0
    3680:	71fb      	strb	r3, [r7, #7]
    3682:	f997 3007 	ldrsb.w	r3, [r7, #7]
    3686:	2b00      	cmp	r3, #0
    3688:	db0b      	blt.n	36a2 <__NVIC_EnableIRQ+0x2a>
    368a:	79fb      	ldrb	r3, [r7, #7]
    368c:	f003 021f 	and.w	r2, r3, #31
    3690:	4907      	ldr	r1, [pc, #28]	; (36b0 <__NVIC_EnableIRQ+0x38>)
    3692:	f997 3007 	ldrsb.w	r3, [r7, #7]
    3696:	095b      	lsrs	r3, r3, #5
    3698:	2001      	movs	r0, #1
    369a:	fa00 f202 	lsl.w	r2, r0, r2
    369e:	f841 2023 	str.w	r2, [r1, r3, lsl #2]
    36a2:	bf00      	nop
    36a4:	370c      	adds	r7, #12
    36a6:	46bd      	mov	sp, r7
    36a8:	f85d 7b04 	ldr.w	r7, [sp], #4
    36ac:	4770      	bx	lr
    36ae:	bf00      	nop
    36b0:	e000e100 	.word	0xe000e100

000036b4 <__NVIC_DisableIRQ>:
    36b4:	b480      	push	{r7}
    36b6:	b083      	sub	sp, #12
    36b8:	af00      	add	r7, sp, #0
    36ba:	4603      	mov	r3, r0
    36bc:	71fb      	strb	r3, [r7, #7]
    36be:	f997 3007 	ldrsb.w	r3, [r7, #7]
    36c2:	2b00      	cmp	r3, #0
    36c4:	db12      	blt.n	36ec <__NVIC_DisableIRQ+0x38>
    36c6:	79fb      	ldrb	r3, [r7, #7]
    36c8:	f003 021f 	and.w	r2, r3, #31
    36cc:	490a      	ldr	r1, [pc, #40]	; (36f8 <__NVIC_DisableIRQ+0x44>)
    36ce:	f997 3007 	ldrsb.w	r3, [r7, #7]
    36d2:	095b      	lsrs	r3, r3, #5
    36d4:	2001      	movs	r0, #1
    36d6:	fa00 f202 	lsl.w	r2, r0, r2
    36da:	3320      	adds	r3, #32
    36dc:	f841 2023 	str.w	r2, [r1, r3, lsl #2]
    36e0:	f3bf 8f4f 	dsb	sy
    36e4:	bf00      	nop
    36e6:	f3bf 8f6f 	isb	sy
    36ea:	bf00      	nop
    36ec:	bf00      	nop
    36ee:	370c      	adds	r7, #12
    36f0:	46bd      	mov	sp, r7
    36f2:	f85d 7b04 	ldr.w	r7, [sp], #4
    36f6:	4770      	bx	lr
    36f8:	e000e100 	.word	0xe000e100

000036fc <__NVIC_SetPriority>:
    36fc:	b480      	push	{r7}
    36fe:	b083      	sub	sp, #12
    3700:	af00      	add	r7, sp, #0
    3702:	4603      	mov	r3, r0
    3704:	6039      	str	r1, [r7, #0]
    3706:	71fb      	strb	r3, [r7, #7]
    3708:	f997 3007 	ldrsb.w	r3, [r7, #7]
    370c:	2b00      	cmp	r3, #0
    370e:	db0a      	blt.n	3726 <__NVIC_SetPriority+0x2a>
    3710:	683b      	ldr	r3, [r7, #0]
    3712:	b2da      	uxtb	r2, r3
    3714:	490c      	ldr	r1, [pc, #48]	; (3748 <__NVIC_SetPriority+0x4c>)
    3716:	f997 3007 	ldrsb.w	r3, [r7, #7]
    371a:	0152      	lsls	r2, r2, #5
    371c:	b2d2      	uxtb	r2, r2
    371e:	440b      	add	r3, r1
    3720:	f883 2300 	strb.w	r2, [r3, #768]	; 0x300
    3724:	e00a      	b.n	373c <__NVIC_SetPriority+0x40>
    3726:	683b      	ldr	r3, [r7, #0]
    3728:	b2da      	uxtb	r2, r3
    372a:	4908      	ldr	r1, [pc, #32]	; (374c <__NVIC_SetPriority+0x50>)
    372c:	79fb      	ldrb	r3, [r7, #7]
    372e:	f003 030f 	and.w	r3, r3, #15
    3732:	3b04      	subs	r3, #4
    3734:	0152      	lsls	r2, r2, #5
    3736:	b2d2      	uxtb	r2, r2
    3738:	440b      	add	r3, r1
    373a:	761a      	strb	r2, [r3, #24]
    373c:	bf00      	nop
    373e:	370c      	adds	r7, #12
    3740:	46bd      	mov	sp, r7
    3742:	f85d 7b04 	ldr.w	r7, [sp], #4
    3746:	4770      	bx	lr
    3748:	e000e100 	.word	0xe000e100
    374c:	e000ed00 	.word	0xe000ed00

00003750 <nrfx_get_irq_number>:
    3750:	b480      	push	{r7}
    3752:	b083      	sub	sp, #12
    3754:	af00      	add	r7, sp, #0
    3756:	6078      	str	r0, [r7, #4]
    3758:	687b      	ldr	r3, [r7, #4]
    375a:	0b1b      	lsrs	r3, r3, #12
    375c:	b25b      	sxtb	r3, r3
    375e:	4618      	mov	r0, r3
    3760:	370c      	adds	r7, #12
    3762:	46bd      	mov	sp, r7
    3764:	f85d 7b04 	ldr.w	r7, [sp], #4
    3768:	4770      	bx	lr

0000376a <_NRFX_IRQ_PRIORITY_SET>:
    376a:	b580      	push	{r7, lr}
    376c:	b082      	sub	sp, #8
    376e:	af00      	add	r7, sp, #0
    3770:	4603      	mov	r3, r0
    3772:	460a      	mov	r2, r1
    3774:	71fb      	strb	r3, [r7, #7]
    3776:	4613      	mov	r3, r2
    3778:	71bb      	strb	r3, [r7, #6]
    377a:	79ba      	ldrb	r2, [r7, #6]
    377c:	f997 3007 	ldrsb.w	r3, [r7, #7]
    3780:	4611      	mov	r1, r2
    3782:	4618      	mov	r0, r3
    3784:	f7ff ffba 	bl	36fc <__NVIC_SetPriority>
    3788:	bf00      	nop
    378a:	3708      	adds	r7, #8
    378c:	46bd      	mov	sp, r7
    378e:	bd80      	pop	{r7, pc}

00003790 <_NRFX_IRQ_ENABLE>:
    3790:	b580      	push	{r7, lr}
    3792:	b082      	sub	sp, #8
    3794:	af00      	add	r7, sp, #0
    3796:	4603      	mov	r3, r0
    3798:	71fb      	strb	r3, [r7, #7]
    379a:	f997 3007 	ldrsb.w	r3, [r7, #7]
    379e:	4618      	mov	r0, r3
    37a0:	f7ff ff6a 	bl	3678 <__NVIC_EnableIRQ>
    37a4:	bf00      	nop
    37a6:	3708      	adds	r7, #8
    37a8:	46bd      	mov	sp, r7
    37aa:	bd80      	pop	{r7, pc}

000037ac <_NRFX_IRQ_DISABLE>:
    37ac:	b580      	push	{r7, lr}
    37ae:	b082      	sub	sp, #8
    37b0:	af00      	add	r7, sp, #0
    37b2:	4603      	mov	r3, r0
    37b4:	71fb      	strb	r3, [r7, #7]
    37b6:	f997 3007 	ldrsb.w	r3, [r7, #7]
    37ba:	4618      	mov	r0, r3
    37bc:	f7ff ff7a 	bl	36b4 <__NVIC_DisableIRQ>
    37c0:	bf00      	nop
    37c2:	3708      	adds	r7, #8
    37c4:	46bd      	mov	sp, r7
    37c6:	bd80      	pop	{r7, pc}

000037c8 <nrf_uart_event_clear>:
    37c8:	b480      	push	{r7}
    37ca:	b085      	sub	sp, #20
    37cc:	af00      	add	r7, sp, #0
    37ce:	6078      	str	r0, [r7, #4]
    37d0:	460b      	mov	r3, r1
    37d2:	807b      	strh	r3, [r7, #2]
    37d4:	887b      	ldrh	r3, [r7, #2]
    37d6:	687a      	ldr	r2, [r7, #4]
    37d8:	4413      	add	r3, r2
    37da:	2200      	movs	r2, #0
    37dc:	601a      	str	r2, [r3, #0]
    37de:	887b      	ldrh	r3, [r7, #2]
    37e0:	687a      	ldr	r2, [r7, #4]
    37e2:	4413      	add	r3, r2
    37e4:	681b      	ldr	r3, [r3, #0]
    37e6:	60fb      	str	r3, [r7, #12]
    37e8:	68fb      	ldr	r3, [r7, #12]
    37ea:	bf00      	nop
    37ec:	3714      	adds	r7, #20
    37ee:	46bd      	mov	sp, r7
    37f0:	f85d 7b04 	ldr.w	r7, [sp], #4
    37f4:	4770      	bx	lr

000037f6 <nrf_uart_event_check>:
    37f6:	b480      	push	{r7}
    37f8:	b083      	sub	sp, #12
    37fa:	af00      	add	r7, sp, #0
    37fc:	6078      	str	r0, [r7, #4]
    37fe:	460b      	mov	r3, r1
    3800:	807b      	strh	r3, [r7, #2]
    3802:	887b      	ldrh	r3, [r7, #2]
    3804:	687a      	ldr	r2, [r7, #4]
    3806:	4413      	add	r3, r2
    3808:	681b      	ldr	r3, [r3, #0]
    380a:	2b00      	cmp	r3, #0
    380c:	bf14      	ite	ne
    380e:	2301      	movne	r3, #1
    3810:	2300      	moveq	r3, #0
    3812:	b2db      	uxtb	r3, r3
    3814:	4618      	mov	r0, r3
    3816:	370c      	adds	r7, #12
    3818:	46bd      	mov	sp, r7
    381a:	f85d 7b04 	ldr.w	r7, [sp], #4
    381e:	4770      	bx	lr

00003820 <nrf_uart_int_enable>:
    3820:	b480      	push	{r7}
    3822:	b083      	sub	sp, #12
    3824:	af00      	add	r7, sp, #0
    3826:	6078      	str	r0, [r7, #4]
    3828:	6039      	str	r1, [r7, #0]
    382a:	687b      	ldr	r3, [r7, #4]
    382c:	683a      	ldr	r2, [r7, #0]
    382e:	f8c3 2304 	str.w	r2, [r3, #772]	; 0x304
    3832:	bf00      	nop
    3834:	370c      	adds	r7, #12
    3836:	46bd      	mov	sp, r7
    3838:	f85d 7b04 	ldr.w	r7, [sp], #4
    383c:	4770      	bx	lr

0000383e <nrf_uart_int_enable_check>:
    383e:	b480      	push	{r7}
    3840:	b083      	sub	sp, #12
    3842:	af00      	add	r7, sp, #0
    3844:	6078      	str	r0, [r7, #4]
    3846:	6039      	str	r1, [r7, #0]
    3848:	687b      	ldr	r3, [r7, #4]
    384a:	f8d3 2304 	ldr.w	r2, [r3, #772]	; 0x304
    384e:	683b      	ldr	r3, [r7, #0]
    3850:	4013      	ands	r3, r2
    3852:	2b00      	cmp	r3, #0
    3854:	bf14      	ite	ne
    3856:	2301      	movne	r3, #1
    3858:	2300      	moveq	r3, #0
    385a:	b2db      	uxtb	r3, r3
    385c:	4618      	mov	r0, r3
    385e:	370c      	adds	r7, #12
    3860:	46bd      	mov	sp, r7
    3862:	f85d 7b04 	ldr.w	r7, [sp], #4
    3866:	4770      	bx	lr

00003868 <nrf_uart_int_disable>:
    3868:	b480      	push	{r7}
    386a:	b083      	sub	sp, #12
    386c:	af00      	add	r7, sp, #0
    386e:	6078      	str	r0, [r7, #4]
    3870:	6039      	str	r1, [r7, #0]
    3872:	687b      	ldr	r3, [r7, #4]
    3874:	683a      	ldr	r2, [r7, #0]
    3876:	f8c3 2308 	str.w	r2, [r3, #776]	; 0x308
    387a:	bf00      	nop
    387c:	370c      	adds	r7, #12
    387e:	46bd      	mov	sp, r7
    3880:	f85d 7b04 	ldr.w	r7, [sp], #4
    3884:	4770      	bx	lr

00003886 <nrf_uart_errorsrc_get_and_clear>:
    3886:	b480      	push	{r7}
    3888:	b085      	sub	sp, #20
    388a:	af00      	add	r7, sp, #0
    388c:	6078      	str	r0, [r7, #4]
    388e:	687b      	ldr	r3, [r7, #4]
    3890:	f8d3 3480 	ldr.w	r3, [r3, #1152]	; 0x480
    3894:	60fb      	str	r3, [r7, #12]
    3896:	687b      	ldr	r3, [r7, #4]
    3898:	68fa      	ldr	r2, [r7, #12]
    389a:	f8c3 2480 	str.w	r2, [r3, #1152]	; 0x480
    389e:	68fb      	ldr	r3, [r7, #12]
    38a0:	4618      	mov	r0, r3
    38a2:	3714      	adds	r7, #20
    38a4:	46bd      	mov	sp, r7
    38a6:	f85d 7b04 	ldr.w	r7, [sp], #4
    38aa:	4770      	bx	lr

000038ac <nrf_uart_enable>:
    38ac:	b480      	push	{r7}
    38ae:	b083      	sub	sp, #12
    38b0:	af00      	add	r7, sp, #0
    38b2:	6078      	str	r0, [r7, #4]
    38b4:	687b      	ldr	r3, [r7, #4]
    38b6:	2204      	movs	r2, #4
    38b8:	f8c3 2500 	str.w	r2, [r3, #1280]	; 0x500
    38bc:	bf00      	nop
    38be:	370c      	adds	r7, #12
    38c0:	46bd      	mov	sp, r7
    38c2:	f85d 7b04 	ldr.w	r7, [sp], #4
    38c6:	4770      	bx	lr

000038c8 <nrf_uart_disable>:
    38c8:	b480      	push	{r7}
    38ca:	b083      	sub	sp, #12
    38cc:	af00      	add	r7, sp, #0
    38ce:	6078      	str	r0, [r7, #4]
    38d0:	687b      	ldr	r3, [r7, #4]
    38d2:	2200      	movs	r2, #0
    38d4:	f8c3 2500 	str.w	r2, [r3, #1280]	; 0x500
    38d8:	bf00      	nop
    38da:	370c      	adds	r7, #12
    38dc:	46bd      	mov	sp, r7
    38de:	f85d 7b04 	ldr.w	r7, [sp], #4
    38e2:	4770      	bx	lr

000038e4 <nrf_uart_txrx_pins_set>:
    38e4:	b480      	push	{r7}
    38e6:	b085      	sub	sp, #20
    38e8:	af00      	add	r7, sp, #0
    38ea:	60f8      	str	r0, [r7, #12]
    38ec:	60b9      	str	r1, [r7, #8]
    38ee:	607a      	str	r2, [r7, #4]
    38f0:	68fb      	ldr	r3, [r7, #12]
    38f2:	687a      	ldr	r2, [r7, #4]
    38f4:	f8c3 2514 	str.w	r2, [r3, #1300]	; 0x514
    38f8:	68fb      	ldr	r3, [r7, #12]
    38fa:	68ba      	ldr	r2, [r7, #8]
    38fc:	f8c3 250c 	str.w	r2, [r3, #1292]	; 0x50c
    3900:	bf00      	nop
    3902:	3714      	adds	r7, #20
    3904:	46bd      	mov	sp, r7
    3906:	f85d 7b04 	ldr.w	r7, [sp], #4
    390a:	4770      	bx	lr

0000390c <nrf_uart_txrx_pins_disconnect>:
    390c:	b580      	push	{r7, lr}
    390e:	b082      	sub	sp, #8
    3910:	af00      	add	r7, sp, #0
    3912:	6078      	str	r0, [r7, #4]
    3914:	f04f 32ff 	mov.w	r2, #4294967295	; 0xffffffff
    3918:	f04f 31ff 	mov.w	r1, #4294967295	; 0xffffffff
    391c:	6878      	ldr	r0, [r7, #4]
    391e:	f7ff ffe1 	bl	38e4 <nrf_uart_txrx_pins_set>
    3922:	bf00      	nop
    3924:	3708      	adds	r7, #8
    3926:	46bd      	mov	sp, r7
    3928:	bd80      	pop	{r7, pc}

0000392a <nrf_uart_tx_pin_get>:
    392a:	b480      	push	{r7}
    392c:	b083      	sub	sp, #12
    392e:	af00      	add	r7, sp, #0
    3930:	6078      	str	r0, [r7, #4]
    3932:	687b      	ldr	r3, [r7, #4]
    3934:	f8d3 350c 	ldr.w	r3, [r3, #1292]	; 0x50c
    3938:	4618      	mov	r0, r3
    393a:	370c      	adds	r7, #12
    393c:	46bd      	mov	sp, r7
    393e:	f85d 7b04 	ldr.w	r7, [sp], #4
    3942:	4770      	bx	lr

00003944 <nrf_uart_rx_pin_get>:
    3944:	b480      	push	{r7}
    3946:	b083      	sub	sp, #12
    3948:	af00      	add	r7, sp, #0
    394a:	6078      	str	r0, [r7, #4]
    394c:	687b      	ldr	r3, [r7, #4]
    394e:	f8d3 3514 	ldr.w	r3, [r3, #1300]	; 0x514
    3952:	4618      	mov	r0, r3
    3954:	370c      	adds	r7, #12
    3956:	46bd      	mov	sp, r7
