blinky-o0: 20 | 97
	(     6a6,      6c0)	
		--------------------
		       69e:   3b03          subs   r3, #3
		       6a0:   2b03          cmp    r3, #3
		       6a2:   d813          bhi.n  6cc <nrf52_errata_12+0x68>
		       6a4:   a201          add    r2, pc, #4 ; (adr r2, 6ac <nrf52_errata_12+0x48>)
		->     6a6:   f852 f023     ldr.w  pc, [r2, r3, lsl #2]
		       6aa:   bf00          nop
		       6ac:   000006bd  .word   0x000006bd
		       6b0:   000006c1  .word   0x000006c1
		       6b4:   000006c5  .word   0x000006c5
		--------------------
	(     6c2,      6d2)	
		--------------------
		       6b8:   000006c9  .word   0x000006c9
		       6bc:   2301          movs   r3, #1
		       6be:   e008          b.n    6d2 <nrf52_errata_12+0x6e>
		       6c0:   2301          movs   r3, #1
		->     6c2:   e006          b.n    6d2 <nrf52_errata_12+0x6e>
		       6c4:   2301          movs   r3, #1
		       6c6:   e004          b.n    6d2 <nrf52_errata_12+0x6e>
		       6c8:   2301          movs   r3, #1
		       6ca:   e002          b.n    6d2 <nrf52_errata_12+0x6e>
		--------------------
	(     71a,      73c)	
		--------------------
		       712:   3b03          subs   r3, #3
		       714:   2b03          cmp    r3, #3
		       716:   d813          bhi.n  740 <nrf52_errata_16+0x50>
		       718:   a201          add    r2, pc, #4 ; (adr r2, 720 <nrf52_errata_16+0x30>)
		->     71a:   f852 f023     ldr.w  pc, [r2, r3, lsl #2]
		       71e:   bf00          nop
		       720:   00000731  .word   0x00000731
		       724:   00000735  .word   0x00000735
		       728:   00000739  .word   0x00000739
		--------------------
	(     732,      746)	
		--------------------
		       724:   00000735  .word   0x00000735
		       728:   00000739  .word   0x00000739
		       72c:   0000073d  .word   0x0000073d
		       730:   2301          movs   r3, #1
		->     732:   e008          b.n    746 <nrf52_errata_16+0x56>
		       734:   2300          movs   r3, #0
		       736:   e006          b.n    746 <nrf52_errata_16+0x56>
		       738:   2300          movs   r3, #0
		       73a:   e004          b.n    746 <nrf52_errata_16+0x56>
		--------------------
	(     73a,      746)	
		--------------------
		       732:   e008          b.n    746 <nrf52_errata_16+0x56>
		       734:   2300          movs   r3, #0
		       736:   e006          b.n    746 <nrf52_errata_16+0x56>
		       738:   2300          movs   r3, #0
		->     73a:   e004          b.n    746 <nrf52_errata_16+0x56>
		       73c:   2300          movs   r3, #0
		       73e:   e002          b.n    746 <nrf52_errata_16+0x56>
		       740:   2300          movs   r3, #0
		       742:   e000          b.n    746 <nrf52_errata_16+0x56>
		--------------------
	(     79e,      7b8)	
		--------------------
		       796:   3b03          subs   r3, #3
		       798:   2b03          cmp    r3, #3
		       79a:   d813          bhi.n  7c4 <nrf52_errata_31+0x68>
		       79c:   a201          add    r2, pc, #4 ; (adr r2, 7a4 <nrf52_errata_31+0x48>)
		->     79e:   f852 f023     ldr.w  pc, [r2, r3, lsl #2]
		       7a2:   bf00          nop
		       7a4:   000007b5  .word   0x000007b5
		       7a8:   000007b9  .word   0x000007b9
		       7ac:   000007bd  .word   0x000007bd
		--------------------
	(     812,      828)	
		--------------------
		       80a:   3b03          subs   r3, #3
		       80c:   2b03          cmp    r3, #3
		       80e:   d813          bhi.n  838 <nrf52_errata_32+0x50>
		       810:   a201          add    r2, pc, #4 ; (adr r2, 818 <nrf52_errata_32+0x30>)
		->     812:   f852 f023     ldr.w  pc, [r2, r3, lsl #2]
		       816:   bf00          nop
		       818:   00000829  .word   0x00000829
		       81c:   0000082d  .word   0x0000082d
		       820:   00000831  .word   0x00000831
		--------------------
	(     812,      82c)	
		--------------------
		       80a:   3b03          subs   r3, #3
		       80c:   2b03          cmp    r3, #3
		       80e:   d813          bhi.n  838 <nrf52_errata_32+0x50>
		       810:   a201          add    r2, pc, #4 ; (adr r2, 818 <nrf52_errata_32+0x30>)
		->     812:   f852 f023     ldr.w  pc, [r2, r3, lsl #2]
		       816:   bf00          nop
		       818:   00000829  .word   0x00000829
		       81c:   0000082d  .word   0x0000082d
		       820:   00000831  .word   0x00000831
		--------------------
	(     896,      8ac)	
		--------------------
		       88e:   3b03          subs   r3, #3
		       890:   2b03          cmp    r3, #3
		       892:   d813          bhi.n  8bc <nrf52_errata_36+0x68>
		       894:   a201          add    r2, pc, #4 ; (adr r2, 89c <nrf52_errata_36+0x48>)
		->     896:   f852 f023     ldr.w  pc, [r2, r3, lsl #2]
		       89a:   bf00          nop
		       89c:   000008ad  .word   0x000008ad
		       8a0:   000008b1  .word   0x000008b1
		       8a4:   000008b5  .word   0x000008b5
		--------------------
	(     8b2,      8c2)	
		--------------------
		       8a8:   000008b9  .word   0x000008b9
		       8ac:   2301          movs   r3, #1
		       8ae:   e008          b.n    8c2 <nrf52_errata_36+0x6e>
		       8b0:   2301          movs   r3, #1
		->     8b2:   e006          b.n    8c2 <nrf52_errata_36+0x6e>
		       8b4:   2301          movs   r3, #1
		       8b6:   e004          b.n    8c2 <nrf52_errata_36+0x6e>
		       8b8:   2301          movs   r3, #1
		       8ba:   e002          b.n    8c2 <nrf52_errata_36+0x6e>
		--------------------
	(     90a,      924)	
		--------------------
		       902:   3b03          subs   r3, #3
		       904:   2b03          cmp    r3, #3
		       906:   d813          bhi.n  930 <nrf52_errata_37+0x50>
		       908:   a201          add    r2, pc, #4 ; (adr r2, 910 <nrf52_errata_37+0x30>)
		->     90a:   f852 f023     ldr.w  pc, [r2, r3, lsl #2]
		       90e:   bf00          nop
		       910:   00000921  .word   0x00000921
		       914:   00000925  .word   0x00000925
		       918:   00000929  .word   0x00000929
		--------------------
	(     922,      936)	
		--------------------
		       914:   00000925  .word   0x00000925
		       918:   00000929  .word   0x00000929
		       91c:   0000092d  .word   0x0000092d
		       920:   2301          movs   r3, #1
		->     922:   e008          b.n    936 <nrf52_errata_37+0x56>
		       924:   2300          movs   r3, #0
		       926:   e006          b.n    936 <nrf52_errata_37+0x56>
		       928:   2300          movs   r3, #0
		       92a:   e004          b.n    936 <nrf52_errata_37+0x56>
		--------------------
	(     996,      9a2)	
		--------------------
		       98e:   e008          b.n    9a2 <nrf52_errata_57+0x56>
		       990:   2300          movs   r3, #0
		       992:   e006          b.n    9a2 <nrf52_errata_57+0x56>
		       994:   2300          movs   r3, #0
		->     996:   e004          b.n    9a2 <nrf52_errata_57+0x56>
		       998:   2300          movs   r3, #0
		       99a:   e002          b.n    9a2 <nrf52_errata_57+0x56>
		       99c:   2300          movs   r3, #0
		       99e:   e000          b.n    9a2 <nrf52_errata_57+0x56>
		--------------------
	(     99a,      9a2)	
		--------------------
		       992:   e006          b.n    9a2 <nrf52_errata_57+0x56>
		       994:   2300          movs   r3, #0
		       996:   e004          b.n    9a2 <nrf52_errata_57+0x56>
		       998:   2300          movs   r3, #0
		->     99a:   e002          b.n    9a2 <nrf52_errata_57+0x56>
		       99c:   2300          movs   r3, #0
		       99e:   e000          b.n    9a2 <nrf52_errata_57+0x56>
		       9a0:   2300          movs   r3, #0
		       9a2:   4618          mov    r0, r3
		--------------------
	(     9fa,      a14)	
		--------------------
		       9f2:   3b03          subs   r3, #3
		       9f4:   2b03          cmp    r3, #3
		       9f6:   d813          bhi.n  a20 <nrf52_errata_66+0x68>
		       9f8:   a201          add    r2, pc, #4 ; (adr r2, a00 <nrf52_errata_66+0x48>)
		->     9fa:   f852 f023     ldr.w  pc, [r2, r3, lsl #2]
		       9fe:   bf00          nop
		       a00:   00000a11  .word   0x00000a11
		       a04:   00000a15  .word   0x00000a15
		       a08:   00000a19  .word   0x00000a19
		--------------------
	(     aa6,      ab2)	
		--------------------
		       a9e:   e008          b.n    ab2 <nrf52_errata_108+0x6e>
		       aa0:   2301          movs   r3, #1
		       aa2:   e006          b.n    ab2 <nrf52_errata_108+0x6e>
		       aa4:   2301          movs   r3, #1
		->     aa6:   e004          b.n    ab2 <nrf52_errata_108+0x6e>
		       aa8:   2301          movs   r3, #1
		       aaa:   e002          b.n    ab2 <nrf52_errata_108+0x6e>
		       aac:   2301          movs   r3, #1
		       aae:   e000          b.n    ab2 <nrf52_errata_108+0x6e>
		--------------------
	(     b12,      b30)	
		--------------------
		       b0a:   3b03          subs   r3, #3
		       b0c:   2b03          cmp    r3, #3
		       b0e:   d813          bhi.n  b38 <nrf52_errata_136+0x68>
		       b10:   a201          add    r2, pc, #4 ; (adr r2, b18 <nrf52_errata_136+0x48>)
		->     b12:   f852 f023     ldr.w  pc, [r2, r3, lsl #2]
		       b16:   bf00          nop
		       b18:   00000b29  .word   0x00000b29
		       b1c:   00000b2d  .word   0x00000b2d
		       b20:   00000b31  .word   0x00000b31
		--------------------
	(     b9e,      baa)	
		--------------------
		       b96:   e008          b.n    baa <nrf52_errata_182+0x4e>
		       b98:   2300          movs   r3, #0
		       b9a:   e006          b.n    baa <nrf52_errata_182+0x4e>
		       b9c:   2300          movs   r3, #0
		->     b9e:   e004          b.n    baa <nrf52_errata_182+0x4e>
		       ba0:   2301          movs   r3, #1
		       ba2:   e002          b.n    baa <nrf52_errata_182+0x4e>
		       ba4:   2301          movs   r3, #1
		       ba6:   e000          b.n    baa <nrf52_errata_182+0x4e>
		--------------------
	(     fba,      fd2)	
		--------------------
		       fb0:   f8d4 0088     ldr.w  r0, [r4, #136]   ; 0x88
		       fb4:   b968          cbnz   r0, fd2 <__register_exitproc+0x66>
		       fb6:   4b1a          ldr    r3, [pc, #104] ; (1020 <__register_exitproc+0xb4>)
		       fb8:   2b00          cmp    r3, #0
		->     fba:   d0f0          beq.n  f9e <__register_exitproc+0x32>
		       fbc:   f44f 7084     mov.w  r0, #264 ; 0x108
		       fc0:   f3af 8000     nop.w
		       fc4:   2800          cmp    r0, #0
		       fc6:   d0ea          beq.n  f9e <__register_exitproc+0x32>
		--------------------
	(     fba,      ffc)	
		--------------------
		       fb0:   f8d4 0088     ldr.w  r0, [r4, #136]   ; 0x88
		       fb4:   b968          cbnz   r0, fd2 <__register_exitproc+0x66>
		       fb6:   4b1a          ldr    r3, [pc, #104] ; (1020 <__register_exitproc+0xb4>)
		       fb8:   2b00          cmp    r3, #0
		->     fba:   d0f0          beq.n  f9e <__register_exitproc+0x32>
		       fbc:   f44f 7084     mov.w  r0, #264 ; 0x108
		       fc0:   f3af 8000     nop.w
		       fc4:   2800          cmp    r0, #0
		       fc6:   d0ea          beq.n  f9e <__register_exitproc+0x32>
		--------------------

blinky-o1: 7 | 7
	(     354,      356)	
		--------------------
		   348:   f010 0f01     tst.w  r0, #1
		   34c:   d103          bne.n  356 <bsp_board_init+0x12>
		   34e:   f014 0f02     tst.w  r4, #2
		   352:   d10e          bne.n  372 <bsp_board_init+0x2e>
		-> 354:   bd10          pop    {r4, pc}
		   356:   f04f 43a0     mov.w  r3, #1342177280  ; 0x50000000
		   35a:   2203          movs   r2, #3
		   35c:   f8c3 2744     str.w  r2, [r3, #1860]  ; 0x744
		   360:   f8c3 2748     str.w  r2, [r3, #1864]  ; 0x748
		--------------------
	(     4f0,      3f8)	
		--------------------
		   4e8:   d186          bne.n  3f8 <SystemInit+0x38>
		   4ea:   4b88          ldr    r3, [pc, #544] ; (70c <SystemInit+0x34c>)
		   4ec:   4a88          ldr    r2, [pc, #544] ; (710 <SystemInit+0x350>)
		   4ee:   675a          str    r2, [r3, #116] ; 0x74
		-> 4f0:   e782          b.n    3f8 <SystemInit+0x38>
		   4f2:   f04f 4370     mov.w  r3, #4026531840  ; 0xf0000000
		   4f6:   f8d3 3fe8     ldr.w  r3, [r3, #4072]  ; 0xfe8
		   4fa:   f3c3 1303     ubfx   r3, r3, #4, #4
		   4fe:   2b03          cmp    r3, #3
		--------------------
	(     78a,      78c)	
		--------------------
		   782:   10a4          asrs   r4, r4, #2
		   784:   2600          movs   r6, #0
		   786:   42a6          cmp    r6, r4
		   788:   d105          bne.n  796 <__libc_init_array+0x2e>
		-> 78a:   bd70          pop    {r4, r5, r6, pc}
		   78c:   f855 3b04     ldr.w  r3, [r5], #4
		   790:   4798          blx    r3
		   792:   3601          adds   r6, #1
		   794:   e7ee          b.n    774 <__libc_init_array+0xc>
		--------------------
	(     7da,      7dc)	
		--------------------
		  000007d8 <__retarget_lock_acquire_recursive>:
		   7d8:   4770          bx lr
		  
		  000007da <__retarget_lock_release_recursive>:
		-> 7da:   4770          bx lr
		  
		  000007dc <__register_exitproc>:
		   7dc:   e92d 43f8     stmdb  sp!, {r3, r4, r5, r6, r7, r8, r9, lr}
		   7e0:   f8df 80b0     ldr.w  r8, [pc, #176]   ; 894 <__register_exitproc+0xb8>
		--------------------
	(     81a,      81e)	
		--------------------
		   80c:   dd07          ble.n  81e <__register_exitproc+0x42>
		   80e:   f8d8 0000     ldr.w  r0, [r8]
		   812:   f7ff ffe2     bl 7da <__retarget_lock_release_recursive>
		   816:   f04f 30ff     mov.w  r0, #4294967295  ; 0xffffffff
		-> 81a:   e8bd 83f8     ldmia.w    sp!, {r3, r4, r5, r6, r7, r8, r9, pc}
		   81e:   b32e          cbz    r6, 86c <__register_exitproc+0x90>
		   820:   f8d4 0088     ldr.w  r0, [r4, #136]   ; 0x88
		   824:   b968          cbnz   r0, 842 <__register_exitproc+0x66>
		   826:   4b1a          ldr    r3, [pc, #104] ; (890 <__register_exitproc+0xb4>)
		--------------------
	(     82a,      842)	
		--------------------
		   820:   f8d4 0088     ldr.w  r0, [r4, #136]   ; 0x88
		   824:   b968          cbnz   r0, 842 <__register_exitproc+0x66>
		   826:   4b1a          ldr    r3, [pc, #104] ; (890 <__register_exitproc+0xb4>)
		   828:   2b00          cmp    r3, #0
		-> 82a:   d0f0          beq.n  80e <__register_exitproc+0x32>
		   82c:   f44f 7084     mov.w  r0, #264 ; 0x108
		   830:   f3af 8000     nop.w
		   834:   2800          cmp    r0, #0
		   836:   d0ea          beq.n  80e <__register_exitproc+0x32>
		--------------------
	(     82a,      86c)	
		--------------------
		   820:   f8d4 0088     ldr.w  r0, [r4, #136]   ; 0x88
		   824:   b968          cbnz   r0, 842 <__register_exitproc+0x66>
		   826:   4b1a          ldr    r3, [pc, #104] ; (890 <__register_exitproc+0xb4>)
		   828:   2b00          cmp    r3, #0
		-> 82a:   d0f0          beq.n  80e <__register_exitproc+0x32>
		   82c:   f44f 7084     mov.w  r0, #264 ; 0x108
		   830:   f3af 8000     nop.w
		   834:   2800          cmp    r0, #0
		   836:   d0ea          beq.n  80e <__register_exitproc+0x32>
		--------------------

blinky-o2: 6 | 6
	(     664,      3da)	
		--------------------
		   65a:   f43f aebe     beq.w  3da <SystemInit+0x3a>
		   65e:   4b17          ldr    r3, [pc, #92]  ; (6bc <SystemInit+0x31c>)
		   660:   4a17          ldr    r2, [pc, #92]  ; (6c0 <SystemInit+0x320>)
		   662:   675a          str    r2, [r3, #116] ; 0x74
		-> 664:   e6b9          b.n    3da <SystemInit+0x3a>
		   666:   4a17          ldr    r2, [pc, #92]  ; (6c4 <SystemInit+0x324>)
		   668:   5cd3          ldrb   r3, [r2, r3]
		   66a:   2b00          cmp    r3, #0
		   66c:   f43f af08     beq.w  480 <SystemInit+0xe0>
		--------------------
	(     79e,      7a0)	
		--------------------
		   796:   10a4          asrs   r4, r4, #2
		   798:   2600          movs   r6, #0
		   79a:   42a6          cmp    r6, r4
		   79c:   d105          bne.n  7aa <__libc_init_array+0x2e>
		-> 79e:   bd70          pop    {r4, r5, r6, pc}
		   7a0:   f855 3b04     ldr.w  r3, [r5], #4
		   7a4:   4798          blx    r3
		   7a6:   3601          adds   r6, #1
		   7a8:   e7ee          b.n    788 <__libc_init_array+0xc>
		--------------------
	(     7ee,      7f0)	
		--------------------
		  000007ec <__retarget_lock_acquire_recursive>:
		   7ec:   4770          bx lr
		  
		  000007ee <__retarget_lock_release_recursive>:
		-> 7ee:   4770          bx lr
		  
		  000007f0 <__register_exitproc>:
		   7f0:   e92d 43f8     stmdb  sp!, {r3, r4, r5, r6, r7, r8, r9, lr}
		   7f4:   f8df 80b0     ldr.w  r8, [pc, #176]   ; 8a8 <__register_exitproc+0xb8>
		--------------------
	(     82e,      832)	
		--------------------
		   820:   dd07          ble.n  832 <__register_exitproc+0x42>
		   822:   f8d8 0000     ldr.w  r0, [r8]
		   826:   f7ff ffe2     bl 7ee <__retarget_lock_release_recursive>
		   82a:   f04f 30ff     mov.w  r0, #4294967295  ; 0xffffffff
		-> 82e:   e8bd 83f8     ldmia.w    sp!, {r3, r4, r5, r6, r7, r8, r9, pc}
		   832:   b32e          cbz    r6, 880 <__register_exitproc+0x90>
		   834:   f8d4 0088     ldr.w  r0, [r4, #136]   ; 0x88
		   838:   b968          cbnz   r0, 856 <__register_exitproc+0x66>
		   83a:   4b1a          ldr    r3, [pc, #104] ; (8a4 <__register_exitproc+0xb4>)
		--------------------
	(     83e,      856)	
		--------------------
		   834:   f8d4 0088     ldr.w  r0, [r4, #136]   ; 0x88
		   838:   b968          cbnz   r0, 856 <__register_exitproc+0x66>
		   83a:   4b1a          ldr    r3, [pc, #104] ; (8a4 <__register_exitproc+0xb4>)
		   83c:   2b00          cmp    r3, #0
		-> 83e:   d0f0          beq.n  822 <__register_exitproc+0x32>
		   840:   f44f 7084     mov.w  r0, #264 ; 0x108
		   844:   f3af 8000     nop.w
		   848:   2800          cmp    r0, #0
		   84a:   d0ea          beq.n  822 <__register_exitproc+0x32>
		--------------------
	(     83e,      880)	
		--------------------
		   834:   f8d4 0088     ldr.w  r0, [r4, #136]   ; 0x88
		   838:   b968          cbnz   r0, 856 <__register_exitproc+0x66>
		   83a:   4b1a          ldr    r3, [pc, #104] ; (8a4 <__register_exitproc+0xb4>)
		   83c:   2b00          cmp    r3, #0
		-> 83e:   d0f0          beq.n  822 <__register_exitproc+0x32>
		   840:   f44f 7084     mov.w  r0, #264 ; 0x108
		   844:   f3af 8000     nop.w
		   848:   2800          cmp    r0, #0
		   84a:   d0ea          beq.n  822 <__register_exitproc+0x32>
		--------------------

blinky-o3: 6 | 6
	(     648,      3d6)	
		--------------------
		   63e:   f43f aeca     beq.w  3d6 <SystemInit+0x3a>
		   642:   4b35          ldr    r3, [pc, #212] ; (718 <SystemInit+0x37c>)
		   644:   4a35          ldr    r2, [pc, #212] ; (71c <SystemInit+0x380>)
		   646:   675a          str    r2, [r3, #116] ; 0x74
		-> 648:   e6c5          b.n    3d6 <SystemInit+0x3a>
		   64a:   f04f 4370     mov.w  r3, #4026531840  ; 0xf0000000
		   64e:   f893 3fe0     ldrb.w r3, [r3, #4064] ; 0xfe0
		   652:   2b06          cmp    r3, #6
		   654:   f47f af03     bne.w  45e <SystemInit+0xc2>
		--------------------
	(     78a,      78c)	
		--------------------
		   782:   10a4          asrs   r4, r4, #2
		   784:   2600          movs   r6, #0
		   786:   42a6          cmp    r6, r4
		   788:   d105          bne.n  796 <__libc_init_array+0x2e>
		-> 78a:   bd70          pop    {r4, r5, r6, pc}
		   78c:   f855 3b04     ldr.w  r3, [r5], #4
		   790:   4798          blx    r3
		   792:   3601          adds   r6, #1
		   794:   e7ee          b.n    774 <__libc_init_array+0xc>
		--------------------
	(     7da,      7dc)	
		--------------------
		  000007d8 <__retarget_lock_acquire_recursive>:
		   7d8:   4770          bx lr
		  
		  000007da <__retarget_lock_release_recursive>:
		-> 7da:   4770          bx lr
		  
		  000007dc <__register_exitproc>:
		   7dc:   e92d 43f8     stmdb  sp!, {r3, r4, r5, r6, r7, r8, r9, lr}
		   7e0:   f8df 80b0     ldr.w  r8, [pc, #176]   ; 894 <__register_exitproc+0xb8>
		--------------------
	(     81a,      81e)	
		--------------------
		   80c:   dd07          ble.n  81e <__register_exitproc+0x42>
		   80e:   f8d8 0000     ldr.w  r0, [r8]
		   812:   f7ff ffe2     bl 7da <__retarget_lock_release_recursive>
		   816:   f04f 30ff     mov.w  r0, #4294967295  ; 0xffffffff
		-> 81a:   e8bd 83f8     ldmia.w    sp!, {r3, r4, r5, r6, r7, r8, r9, pc}
		   81e:   b32e          cbz    r6, 86c <__register_exitproc+0x90>
		   820:   f8d4 0088     ldr.w  r0, [r4, #136]   ; 0x88
		   824:   b968          cbnz   r0, 842 <__register_exitproc+0x66>
		   826:   4b1a          ldr    r3, [pc, #104] ; (890 <__register_exitproc+0xb4>)
		--------------------
	(     82a,      842)	
		--------------------
		   820:   f8d4 0088     ldr.w  r0, [r4, #136]   ; 0x88
		   824:   b968          cbnz   r0, 842 <__register_exitproc+0x66>
		   826:   4b1a          ldr    r3, [pc, #104] ; (890 <__register_exitproc+0xb4>)
		   828:   2b00          cmp    r3, #0
		-> 82a:   d0f0          beq.n  80e <__register_exitproc+0x32>
		   82c:   f44f 7084     mov.w  r0, #264 ; 0x108
		   830:   f3af 8000     nop.w
		   834:   2800          cmp    r0, #0
		   836:   d0ea          beq.n  80e <__register_exitproc+0x32>
		--------------------
	(     82a,      86c)	
		--------------------
		   820:   f8d4 0088     ldr.w  r0, [r4, #136]   ; 0x88
		   824:   b968          cbnz   r0, 842 <__register_exitproc+0x66>
		   826:   4b1a          ldr    r3, [pc, #104] ; (890 <__register_exitproc+0xb4>)
		   828:   2b00          cmp    r3, #0
		-> 82a:   d0f0          beq.n  80e <__register_exitproc+0x32>
		   82c:   f44f 7084     mov.w  r0, #264 ; 0x108
		   830:   f3af 8000     nop.w
		   834:   2800          cmp    r0, #0
		   836:   d0ea          beq.n  80e <__register_exitproc+0x32>
		--------------------

gpiote-o0: 20 | 106
	(     370,      3c0)	
		--------------------
		  
		  0000036c <app_util_disable_irq>:
		       36c:   b480          push   {r7}
		       36e:   af00          add    r7, sp, #0
		->     370:   b672          cpsid  i
		       372:   bf00          nop
		       374:   4b04          ldr    r3, [pc, #16]  ; (388 <app_util_disable_irq+0x1c>)
		       376:   681b          ldr    r3, [r3, #0]
		       378:   3301          adds   r3, #1
		--------------------
	(    19fe,     1a1c)	
		--------------------
		      19f6:   3b03          subs   r3, #3
		      19f8:   2b03          cmp    r3, #3
		      19fa:   d813          bhi.n  1a24 <nrf52_errata_12+0x68>
		      19fc:   a201          add    r2, pc, #4 ; (adr r2, 1a04 <nrf52_errata_12+0x48>)
		->    19fe:   f852 f023     ldr.w  pc, [r2, r3, lsl #2]
		      1a02:   bf00          nop
		      1a04:   00001a15  .word   0x00001a15
		      1a08:   00001a19  .word   0x00001a19
		      1a0c:   00001a1d  .word   0x00001a1d
		--------------------
	(    1af6,     1b18)	
		--------------------
		      1aee:   3b03          subs   r3, #3
		      1af0:   2b03          cmp    r3, #3
		      1af2:   d813          bhi.n  1b1c <nrf52_errata_31+0x68>
		      1af4:   a201          add    r2, pc, #4 ; (adr r2, 1afc <nrf52_errata_31+0x48>)
		->    1af6:   f852 f023     ldr.w  pc, [r2, r3, lsl #2]
		      1afa:   bf00          nop
		      1afc:   00001b0d  .word   0x00001b0d
		      1b00:   00001b11  .word   0x00001b11
		      1b04:   00001b15  .word   0x00001b15
		--------------------
	(    1b1a,     1b22)	
		--------------------
		      1b12:   e006          b.n    1b22 <nrf52_errata_31+0x6e>
		      1b14:   2301          movs   r3, #1
		      1b16:   e004          b.n    1b22 <nrf52_errata_31+0x6e>
		      1b18:   2301          movs   r3, #1
		->    1b1a:   e002          b.n    1b22 <nrf52_errata_31+0x6e>
		      1b1c:   2301          movs   r3, #1
		      1b1e:   e000          b.n    1b22 <nrf52_errata_31+0x6e>
		      1b20:   2300          movs   r3, #0
		      1b22:   4618          mov    r0, r3
		--------------------
	(    1b6a,     1b88)	
		--------------------
		      1b62:   3b03          subs   r3, #3
		      1b64:   2b03          cmp    r3, #3
		      1b66:   d813          bhi.n  1b90 <nrf52_errata_32+0x50>
		      1b68:   a201          add    r2, pc, #4 ; (adr r2, 1b70 <nrf52_errata_32+0x30>)
		->    1b6a:   f852 f023     ldr.w  pc, [r2, r3, lsl #2]
		      1b6e:   bf00          nop
		      1b70:   00001b81  .word   0x00001b81
		      1b74:   00001b85  .word   0x00001b85
		      1b78:   00001b89  .word   0x00001b89
		--------------------
	(    1b82,     1b96)	
		--------------------
		      1b74:   00001b85  .word   0x00001b85
		      1b78:   00001b89  .word   0x00001b89
		      1b7c:   00001b8d  .word   0x00001b8d
		      1b80:   2301          movs   r3, #1
		->    1b82:   e008          b.n    1b96 <nrf52_errata_32+0x56>
		      1b84:   2300          movs   r3, #0
		      1b86:   e006          b.n    1b96 <nrf52_errata_32+0x56>
		      1b88:   2300          movs   r3, #0
		      1b8a:   e004          b.n    1b96 <nrf52_errata_32+0x56>
		--------------------
	(    1c0e,     1c1a)	
		--------------------
		      1c06:   e008          b.n    1c1a <nrf52_errata_36+0x6e>
		      1c08:   2301          movs   r3, #1
		      1c0a:   e006          b.n    1c1a <nrf52_errata_36+0x6e>
		      1c0c:   2301          movs   r3, #1
		->    1c0e:   e004          b.n    1c1a <nrf52_errata_36+0x6e>
		      1c10:   2301          movs   r3, #1
		      1c12:   e002          b.n    1c1a <nrf52_errata_36+0x6e>
		      1c14:   2301          movs   r3, #1
		      1c16:   e000          b.n    1c1a <nrf52_errata_36+0x6e>
		--------------------
	(    1c7a,     1c8e)	
		--------------------
		      1c6c:   00001c7d  .word   0x00001c7d
		      1c70:   00001c81  .word   0x00001c81
		      1c74:   00001c85  .word   0x00001c85
		      1c78:   2301          movs   r3, #1
		->    1c7a:   e008          b.n    1c8e <nrf52_errata_37+0x56>
		      1c7c:   2300          movs   r3, #0
		      1c7e:   e006          b.n    1c8e <nrf52_errata_37+0x56>
		      1c80:   2300          movs   r3, #0
		      1c82:   e004          b.n    1c8e <nrf52_errata_37+0x56>
		--------------------
	(    1c82,     1c8e)	
		--------------------
		      1c7a:   e008          b.n    1c8e <nrf52_errata_37+0x56>
		      1c7c:   2300          movs   r3, #0
		      1c7e:   e006          b.n    1c8e <nrf52_errata_37+0x56>
		      1c80:   2300          movs   r3, #0
		->    1c82:   e004          b.n    1c8e <nrf52_errata_37+0x56>
		      1c84:   2300          movs   r3, #0
		      1c86:   e002          b.n    1c8e <nrf52_errata_37+0x56>
		      1c88:   2300          movs   r3, #0
		      1c8a:   e000          b.n    1c8e <nrf52_errata_37+0x56>
		--------------------
	(    1cce,     1ce4)	
		--------------------
		      1cc6:   3b03          subs   r3, #3
		      1cc8:   2b03          cmp    r3, #3
		      1cca:   d813          bhi.n  1cf4 <nrf52_errata_57+0x50>
		      1ccc:   a201          add    r2, pc, #4 ; (adr r2, 1cd4 <nrf52_errata_57+0x30>)
		->    1cce:   f852 f023     ldr.w  pc, [r2, r3, lsl #2]
		      1cd2:   bf00          nop
		      1cd4:   00001ce5  .word   0x00001ce5
		      1cd8:   00001ce9  .word   0x00001ce9
		      1cdc:   00001ced  .word   0x00001ced
		--------------------
	(    1d52,     1d6c)	
		--------------------
		      1d4a:   3b03          subs   r3, #3
		      1d4c:   2b03          cmp    r3, #3
		      1d4e:   d813          bhi.n  1d78 <nrf52_errata_66+0x68>
		      1d50:   a201          add    r2, pc, #4 ; (adr r2, 1d58 <nrf52_errata_66+0x48>)
		->    1d52:   f852 f023     ldr.w  pc, [r2, r3, lsl #2]
		      1d56:   bf00          nop
		      1d58:   00001d69  .word   0x00001d69
		      1d5c:   00001d6d  .word   0x00001d6d
		      1d60:   00001d71  .word   0x00001d71
		--------------------
	(    1d6a,     1d7e)	
		--------------------
		      1d5c:   00001d6d  .word   0x00001d6d
		      1d60:   00001d71  .word   0x00001d71
		      1d64:   00001d75  .word   0x00001d75
		      1d68:   2300          movs   r3, #0
		->    1d6a:   e008          b.n    1d7e <nrf52_errata_66+0x6e>
		      1d6c:   2300          movs   r3, #0
		      1d6e:   e006          b.n    1d7e <nrf52_errata_66+0x6e>
		      1d70:   2301          movs   r3, #1
		      1d72:   e004          b.n    1d7e <nrf52_errata_66+0x6e>
		--------------------
	(    1d6e,     1d7e)	
		--------------------
		      1d64:   00001d75  .word   0x00001d75
		      1d68:   2300          movs   r3, #0
		      1d6a:   e008          b.n    1d7e <nrf52_errata_66+0x6e>
		      1d6c:   2300          movs   r3, #0
		->    1d6e:   e006          b.n    1d7e <nrf52_errata_66+0x6e>
		      1d70:   2301          movs   r3, #1
		      1d72:   e004          b.n    1d7e <nrf52_errata_66+0x6e>
		      1d74:   2301          movs   r3, #1
		      1d76:   e002          b.n    1d7e <nrf52_errata_66+0x6e>
		--------------------
	(    1d76,     1d7e)	
		--------------------
		      1d6e:   e006          b.n    1d7e <nrf52_errata_66+0x6e>
		      1d70:   2301          movs   r3, #1
		      1d72:   e004          b.n    1d7e <nrf52_errata_66+0x6e>
		      1d74:   2301          movs   r3, #1
		->    1d76:   e002          b.n    1d7e <nrf52_errata_66+0x6e>
		      1d78:   2301          movs   r3, #1
		      1d7a:   e000          b.n    1d7e <nrf52_errata_66+0x6e>
		      1d7c:   2300          movs   r3, #0
		      1d7e:   4618          mov    r0, r3
		--------------------
	(    1dfe,     1e0a)	
		--------------------
		      1df6:   e008          b.n    1e0a <nrf52_errata_108+0x6e>
		      1df8:   2301          movs   r3, #1
		      1dfa:   e006          b.n    1e0a <nrf52_errata_108+0x6e>
		      1dfc:   2301          movs   r3, #1
		->    1dfe:   e004          b.n    1e0a <nrf52_errata_108+0x6e>
		      1e00:   2301          movs   r3, #1
		      1e02:   e002          b.n    1e0a <nrf52_errata_108+0x6e>
		      1e04:   2301          movs   r3, #1
		      1e06:   e000          b.n    1e0a <nrf52_errata_108+0x6e>
		--------------------
	(    1e82,     1e96)	
		--------------------
		      1e74:   00001e85  .word   0x00001e85
		      1e78:   00001e89  .word   0x00001e89
		      1e7c:   00001e8d  .word   0x00001e8d
		      1e80:   2301          movs   r3, #1
		->    1e82:   e008          b.n    1e96 <nrf52_errata_136+0x6e>
		      1e84:   2301          movs   r3, #1
		      1e86:   e006          b.n    1e96 <nrf52_errata_136+0x6e>
		      1e88:   2301          movs   r3, #1
		      1e8a:   e004          b.n    1e96 <nrf52_errata_136+0x6e>
		--------------------
	(    1e86,     1e96)	
		--------------------
		      1e7c:   00001e8d  .word   0x00001e8d
		      1e80:   2301          movs   r3, #1
		      1e82:   e008          b.n    1e96 <nrf52_errata_136+0x6e>
		      1e84:   2301          movs   r3, #1
		->    1e86:   e006          b.n    1e96 <nrf52_errata_136+0x6e>
		      1e88:   2301          movs   r3, #1
		      1e8a:   e004          b.n    1e96 <nrf52_errata_136+0x6e>
		      1e8c:   2301          movs   r3, #1
		      1e8e:   e002          b.n    1e96 <nrf52_errata_136+0x6e>
		--------------------
	(    1ed6,     1eec)	
		--------------------
		      1ece:   3b03          subs   r3, #3
		      1ed0:   2b03          cmp    r3, #3
		      1ed2:   d813          bhi.n  1efc <nrf52_errata_182+0x48>
		      1ed4:   a201          add    r2, pc, #4 ; (adr r2, 1edc <nrf52_errata_182+0x28>)
		->    1ed6:   f852 f023     ldr.w  pc, [r2, r3, lsl #2]
		      1eda:   bf00          nop
		      1edc:   00001eed  .word   0x00001eed
		      1ee0:   00001ef1  .word   0x00001ef1
		      1ee4:   00001ef5  .word   0x00001ef5
		--------------------
	(    2302,     2306)	
		--------------------
		      22f4:   dd07          ble.n  2306 <__register_exitproc+0x42>
		      22f6:   f8d8 0000     ldr.w  r0, [r8]
		      22fa:   f7ff ffe2     bl 22c2 <__retarget_lock_release_recursive>
		      22fe:   f04f 30ff     mov.w  r0, #4294967295  ; 0xffffffff
		->    2302:   e8bd 83f8     ldmia.w    sp!, {r3, r4, r5, r6, r7, r8, r9, pc}
		      2306:   b32e          cbz    r6, 2354 <__register_exitproc+0x90>
		      2308:   f8d4 0088     ldr.w  r0, [r4, #136]   ; 0x88
		      230c:   b968          cbnz   r0, 232a <__register_exitproc+0x66>
		      230e:   4b1a          ldr    r3, [pc, #104] ; (2378 <__register_exitproc+0xb4>)
		--------------------
	(    2312,     2354)	
		--------------------
		      2308:   f8d4 0088     ldr.w  r0, [r4, #136]   ; 0x88
		      230c:   b968          cbnz   r0, 232a <__register_exitproc+0x66>
		      230e:   4b1a          ldr    r3, [pc, #104] ; (2378 <__register_exitproc+0xb4>)
		      2310:   2b00          cmp    r3, #0
		->    2312:   d0f0          beq.n  22f6 <__register_exitproc+0x32>
		      2314:   f44f 7084     mov.w  r0, #264 ; 0x108
		      2318:   f3af 8000     nop.w
		      231c:   2800          cmp    r0, #0
		      231e:   d0ea          beq.n  22f6 <__register_exitproc+0x32>
		--------------------

gpiote-o1: 20 | 20
	(     304,      a0e)	
		--------------------
		       2f8:   aa01          add    r2, sp, #4
		       2fa:   f244 0001     movw   r0, #16385    ; 0x4001
		       2fe:   f000 f803     bl 308 <app_error_fault_handler>
		       302:   b005          add    sp, #20
		->     304:   f85d fb04     ldr.w  pc, [sp], #4
		  
		  00000308 <app_error_fault_handler>:
		       308:   b672          cpsid  i
		       30a:   4b0a          ldr    r3, [pc, #40]  ; (334 <app_error_fault_handler+0x2c>)
		--------------------
	(     304,      a14)	
		--------------------
		       2f8:   aa01          add    r2, sp, #4
		       2fa:   f244 0001     movw   r0, #16385    ; 0x4001
		       2fe:   f000 f803     bl 308 <app_error_fault_handler>
		       302:   b005          add    sp, #20
		->     304:   f85d fb04     ldr.w  pc, [sp], #4
		  
		  00000308 <app_error_fault_handler>:
		       308:   b672          cpsid  i
		       30a:   4b0a          ldr    r3, [pc, #40]  ; (334 <app_error_fault_handler+0x2c>)
		--------------------
	(     304,      a1a)	
		--------------------
		       2f8:   aa01          add    r2, sp, #4
		       2fa:   f244 0001     movw   r0, #16385    ; 0x4001
		       2fe:   f000 f803     bl 308 <app_error_fault_handler>
		       302:   b005          add    sp, #20
		->     304:   f85d fb04     ldr.w  pc, [sp], #4
		  
		  00000308 <app_error_fault_handler>:
		       308:   b672          cpsid  i
		       30a:   4b0a          ldr    r3, [pc, #40]  ; (334 <app_error_fault_handler+0x2c>)
		--------------------
	(     304,      a26)	
		--------------------
		       2f8:   aa01          add    r2, sp, #4
		       2fa:   f244 0001     movw   r0, #16385    ; 0x4001
		       2fe:   f000 f803     bl 308 <app_error_fault_handler>
		       302:   b005          add    sp, #20
		->     304:   f85d fb04     ldr.w  pc, [sp], #4
		  
		  00000308 <app_error_fault_handler>:
		       308:   b672          cpsid  i
		       30a:   4b0a          ldr    r3, [pc, #40]  ; (334 <app_error_fault_handler+0x2c>)
		--------------------
	(     304,      a2c)	
		--------------------
		       2f8:   aa01          add    r2, sp, #4
		       2fa:   f244 0001     movw   r0, #16385    ; 0x4001
		       2fe:   f000 f803     bl 308 <app_error_fault_handler>
		       302:   b005          add    sp, #20
		->     304:   f85d fb04     ldr.w  pc, [sp], #4
		  
		  00000308 <app_error_fault_handler>:
		       308:   b672          cpsid  i
		       30a:   4b0a          ldr    r3, [pc, #40]  ; (334 <app_error_fault_handler+0x2c>)
		--------------------
	(     304,      a32)	
		--------------------
		       2f8:   aa01          add    r2, sp, #4
		       2fa:   f244 0001     movw   r0, #16385    ; 0x4001
		       2fe:   f000 f803     bl 308 <app_error_fault_handler>
		       302:   b005          add    sp, #20
		->     304:   f85d fb04     ldr.w  pc, [sp], #4
		  
		  00000308 <app_error_fault_handler>:
		       308:   b672          cpsid  i
		       30a:   4b0a          ldr    r3, [pc, #40]  ; (334 <app_error_fault_handler+0x2c>)
		--------------------
	(     36e,      6d6)	
		--------------------
		  
		  00000368 <app_util_critical_region_exit>:
		       368:   b508          push   {r3, lr}
		       36a:   f7ff ffef     bl 34c <app_util_enable_irq>
		->     36e:   bd08          pop    {r3, pc}
		  
		  00000370 <nrf_drv_ppi_init>:
		       370:   4b04          ldr    r3, [pc, #16]  ; (384 <nrf_drv_ppi_init+0x14>)
		       372:   781b          ldrb   r3, [r3, #0]
		--------------------
	(     37e,      380)	
		--------------------
		       376:   4b03          ldr    r3, [pc, #12]  ; (384 <nrf_drv_ppi_init+0x14>)
		       378:   2201          movs   r2, #1
		       37a:   701a          strb   r2, [r3, #0]
		       37c:   2000          movs   r0, #0
		->     37e:   4770          bx lr
		       380:   2085          movs   r0, #133  ; 0x85
		       382:   4770          bx lr
		       384:   20000038  .word   0x20000038
		  
		--------------------
	(     680,      696)	
		--------------------
		       676:   f855 3023     ldr.w  r3, [r5, r3, lsl #2]
		       67a:   b163          cbz    r3, 696 <GPIOTE_IRQHandler+0x13e>
		       67c:   0989          lsrs   r1, r1, #6
		       67e:   2903          cmp    r1, #3
		->     680:   d008          beq.n  694 <GPIOTE_IRQHandler+0x13c>
		       682:   2a02          cmp    r2, #2
		       684:   d004          beq.n  690 <GPIOTE_IRQHandler+0x138>
		       686:   2a03          cmp    r2, #3
		       688:   d105          bne.n  696 <GPIOTE_IRQHandler+0x13e>
		--------------------
	(     734,      750)	
		--------------------
		       72c:   b1a1          cbz    r1, 758 <nrfx_ppi_channel_assign+0x3c>
		       72e:   490c          ldr    r1, [pc, #48]  ; (760 <nrfx_ppi_channel_assign+0x44>)
		       730:   6809          ldr    r1, [r1, #0]
		       732:   420b          tst    r3, r1
		->     734:   d012          beq.n  75c <nrfx_ppi_channel_assign+0x40>
		       736:   00c0          lsls   r0, r0, #3
		       738:   f100 4080     add.w  r0, r0, #1073741824  ; 0x40000000
		       73c:   f500 30f8     add.w  r0, r0, #126976  ; 0x1f000
		       740:   f8c0 4510     str.w  r4, [r0, #1296]  ; 0x510
		--------------------
	(     734,      754)	
		--------------------
		       72c:   b1a1          cbz    r1, 758 <nrfx_ppi_channel_assign+0x3c>
		       72e:   490c          ldr    r1, [pc, #48]  ; (760 <nrfx_ppi_channel_assign+0x44>)
		       730:   6809          ldr    r1, [r1, #0]
		       732:   420b          tst    r3, r1
		->     734:   d012          beq.n  75c <nrfx_ppi_channel_assign+0x40>
		       736:   00c0          lsls   r0, r0, #3
		       738:   f100 4080     add.w  r0, r0, #1073741824  ; 0x40000000
		       73c:   f500 30f8     add.w  r0, r0, #126976  ; 0x1f000
		       740:   f8c0 4510     str.w  r4, [r0, #1296]  ; 0x510
		--------------------
	(     734,      758)	
		--------------------
		       72c:   b1a1          cbz    r1, 758 <nrfx_ppi_channel_assign+0x3c>
		       72e:   490c          ldr    r1, [pc, #48]  ; (760 <nrfx_ppi_channel_assign+0x44>)
		       730:   6809          ldr    r1, [r1, #0]
		       732:   420b          tst    r3, r1
		->     734:   d012          beq.n  75c <nrfx_ppi_channel_assign+0x40>
		       736:   00c0          lsls   r0, r0, #3
		       738:   f100 4080     add.w  r0, r0, #1073741824  ; 0x40000000
		       73c:   f500 30f8     add.w  r0, r0, #126976  ; 0x1f000
		       740:   f8c0 4510     str.w  r4, [r0, #1296]  ; 0x510
		--------------------
	(     962,      966)	
		--------------------
		       95a:   b280          uxth   r0, r0
		       95c:   4798          blx    r3
		       95e:   e7e4          b.n    92a <TIMER0_IRQHandler+0x16>
		       960:   b002          add    sp, #8
		->     962:   e8bd 81f0     ldmia.w    sp!, {r4, r5, r6, r7, r8, pc}
		       966:   bf00          nop
		       968:   40008140  .word   0x40008140
		       96c:   40008000  .word   0x40008000
		       970:   2000008c  .word   0x2000008c
		--------------------
	(     b74,      a7c)	
		--------------------
		       b6c:   d186          bne.n  a7c <SystemInit+0x38>
		       b6e:   4b88          ldr    r3, [pc, #544] ; (d90 <SystemInit+0x34c>)
		       b70:   4a88          ldr    r2, [pc, #544] ; (d94 <SystemInit+0x350>)
		       b72:   675a          str    r2, [r3, #116] ; 0x74
		->     b74:   e782          b.n    a7c <SystemInit+0x38>
		       b76:   f04f 4370     mov.w  r3, #4026531840  ; 0xf0000000
		       b7a:   f8d3 3fe8     ldr.w  r3, [r3, #4072]  ; 0xfe8
		       b7e:   f3c3 1303     ubfx   r3, r3, #4, #4
		       b82:   2b03          cmp    r3, #3
		--------------------
	(     de4,      3f4)	
		--------------------
		       ddc:   4402          add    r2, r0
		       dde:   4603          mov    r3, r0
		       de0:   4293          cmp    r3, r2
		       de2:   d100          bne.n  de6 <memset+0xa>
		->     de4:   4770          bx lr
		       de6:   f803 1b01     strb.w r1, [r3], #1
		       dea:   e7f9          b.n    de0 <memset+0x4>
		  
		  00000dec <__libc_init_array>:
		--------------------
	(     e0e,      e10)	
		--------------------
		       e06:   10a4          asrs   r4, r4, #2
		       e08:   2600          movs   r6, #0
		       e0a:   42a6          cmp    r6, r4
		       e0c:   d105          bne.n  e1a <__libc_init_array+0x2e>
		->     e0e:   bd70          pop    {r4, r5, r6, pc}
		       e10:   f855 3b04     ldr.w  r3, [r5], #4
		       e14:   4798          blx    r3
		       e16:   3601          adds   r6, #1
		       e18:   e7ee          b.n    df8 <__libc_init_array+0xc>
		--------------------
	(     e5e,      e60)	
		--------------------
		  00000e5c <__retarget_lock_acquire_recursive>:
		       e5c:   4770          bx lr
		  
		  00000e5e <__retarget_lock_release_recursive>:
		->     e5e:   4770          bx lr
		  
		  00000e60 <__register_exitproc>:
		       e60:   e92d 43f8     stmdb  sp!, {r3, r4, r5, r6, r7, r8, r9, lr}
		       e64:   f8df 80b0     ldr.w  r8, [pc, #176]   ; f18 <__register_exitproc+0xb8>
		--------------------
	(     e9e,      ea2)	
		--------------------
		       e90:   dd07          ble.n  ea2 <__register_exitproc+0x42>
		       e92:   f8d8 0000     ldr.w  r0, [r8]
		       e96:   f7ff ffe2     bl e5e <__retarget_lock_release_recursive>
		       e9a:   f04f 30ff     mov.w  r0, #4294967295  ; 0xffffffff
		->     e9e:   e8bd 83f8     ldmia.w    sp!, {r3, r4, r5, r6, r7, r8, r9, pc}
		       ea2:   b32e          cbz    r6, ef0 <__register_exitproc+0x90>
		       ea4:   f8d4 0088     ldr.w  r0, [r4, #136]   ; 0x88
		       ea8:   b968          cbnz   r0, ec6 <__register_exitproc+0x66>
		       eaa:   4b1a          ldr    r3, [pc, #104] ; (f14 <__register_exitproc+0xb4>)
		--------------------
	(     eae,      ec6)	
		--------------------
		       ea4:   f8d4 0088     ldr.w  r0, [r4, #136]   ; 0x88
		       ea8:   b968          cbnz   r0, ec6 <__register_exitproc+0x66>
		       eaa:   4b1a          ldr    r3, [pc, #104] ; (f14 <__register_exitproc+0xb4>)
		       eac:   2b00          cmp    r3, #0
		->     eae:   d0f0          beq.n  e92 <__register_exitproc+0x32>
		       eb0:   f44f 7084     mov.w  r0, #264 ; 0x108
		       eb4:   f3af 8000     nop.w
		       eb8:   2800          cmp    r0, #0
		       eba:   d0ea          beq.n  e92 <__register_exitproc+0x32>
		--------------------
	(     eae,      ef0)	
		--------------------
		       ea4:   f8d4 0088     ldr.w  r0, [r4, #136]   ; 0x88
		       ea8:   b968          cbnz   r0, ec6 <__register_exitproc+0x66>
		       eaa:   4b1a          ldr    r3, [pc, #104] ; (f14 <__register_exitproc+0xb4>)
		       eac:   2b00          cmp    r3, #0
		->     eae:   d0f0          beq.n  e92 <__register_exitproc+0x32>
		       eb0:   f44f 7084     mov.w  r0, #264 ; 0x108
		       eb4:   f3af 8000     nop.w
		       eb8:   2800          cmp    r0, #0
		       eba:   d0ea          beq.n  e92 <__register_exitproc+0x32>
		--------------------

gpiote-o2: 20 | 20
	(     306,      9ea)	
		--------------------
		       2fa:   e9cd 1101     strd   r1, r1, [sp, #4]
		       2fe:   9303          str    r3, [sp, #12]
		       300:   f000 f804     bl 30c <app_error_fault_handler>
		       304:   b005          add    sp, #20
		->     306:   f85d fb04     ldr.w  pc, [sp], #4
		       30a:   bf00          nop
		  
		  0000030c <app_error_fault_handler>:
		       30c:   b672          cpsid  i
		--------------------
	(     306,      9f0)	
		--------------------
		       2fa:   e9cd 1101     strd   r1, r1, [sp, #4]
		       2fe:   9303          str    r3, [sp, #12]
		       300:   f000 f804     bl 30c <app_error_fault_handler>
		       304:   b005          add    sp, #20
		->     306:   f85d fb04     ldr.w  pc, [sp], #4
		       30a:   bf00          nop
		  
		  0000030c <app_error_fault_handler>:
		       30c:   b672          cpsid  i
		--------------------
	(     306,      9f6)	
		--------------------
		       2fa:   e9cd 1101     strd   r1, r1, [sp, #4]
		       2fe:   9303          str    r3, [sp, #12]
		       300:   f000 f804     bl 30c <app_error_fault_handler>
		       304:   b005          add    sp, #20
		->     306:   f85d fb04     ldr.w  pc, [sp], #4
		       30a:   bf00          nop
		  
		  0000030c <app_error_fault_handler>:
		       30c:   b672          cpsid  i
		--------------------
	(     306,      9fc)	
		--------------------
		       2fa:   e9cd 1101     strd   r1, r1, [sp, #4]
		       2fe:   9303          str    r3, [sp, #12]
		       300:   f000 f804     bl 30c <app_error_fault_handler>
		       304:   b005          add    sp, #20
		->     306:   f85d fb04     ldr.w  pc, [sp], #4
		       30a:   bf00          nop
		  
		  0000030c <app_error_fault_handler>:
		       30c:   b672          cpsid  i
		--------------------
	(     306,      a08)	
		--------------------
		       2fa:   e9cd 1101     strd   r1, r1, [sp, #4]
		       2fe:   9303          str    r3, [sp, #12]
		       300:   f000 f804     bl 30c <app_error_fault_handler>
		       304:   b005          add    sp, #20
		->     306:   f85d fb04     ldr.w  pc, [sp], #4
		       30a:   bf00          nop
		  
		  0000030c <app_error_fault_handler>:
		       30c:   b672          cpsid  i
		--------------------
	(     306,      a0e)	
		--------------------
		       2fa:   e9cd 1101     strd   r1, r1, [sp, #4]
		       2fe:   9303          str    r3, [sp, #12]
		       300:   f000 f804     bl 30c <app_error_fault_handler>
		       304:   b005          add    sp, #20
		->     306:   f85d fb04     ldr.w  pc, [sp], #4
		       30a:   bf00          nop
		  
		  0000030c <app_error_fault_handler>:
		       30c:   b672          cpsid  i
		--------------------
	(     358,      6b0)	
		--------------------
		       350:   3b01          subs   r3, #1
		       352:   6013          str    r3, [r2, #0]
		       354:   b903          cbnz   r3, 358 <app_util_critical_region_exit+0xc>
		       356:   b662          cpsie  i
		->     358:   4770          bx lr
		       35a:   bf00          nop
		       35c:   20000034  .word   0x20000034
		  
		  00000360 <nrf_drv_ppi_init>:
		--------------------
	(     36a,      36c)	
		--------------------
		       362:   7818          ldrb   r0, [r3, #0]
		       364:   b910          cbnz   r0, 36c <nrf_drv_ppi_init+0xc>
		       366:   2201          movs   r2, #1
		       368:   701a          strb   r2, [r3, #0]
		->     36a:   4770          bx lr
		       36c:   2085          movs   r0, #133  ; 0x85
		       36e:   4770          bx lr
		       370:   20000038  .word   0x20000038
		  
		--------------------
	(     5b2,      5b4)	
		--------------------
		       5aa:   d1e7          bne.n  57c <GPIOTE_IRQHandler+0x58>
		       5ac:   2e00          cmp    r6, #0
		       5ae:   db14          blt.n  5da <GPIOTE_IRQHandler+0xb6>
		       5b0:   b005          add    sp, #20
		->     5b2:   bdf0          pop    {r4, r5, r6, r7, pc}
		       5b4:   2200          movs   r2, #0
		       5b6:   f8c3 217c     str.w  r2, [r3, #380]   ; 0x17c
		       5ba:   f8d3 217c     ldr.w  r2, [r3, #380]   ; 0x17c
		       5be:   9203          str    r2, [sp, #12]
		--------------------
	(     716,      732)	
		--------------------
		       70e:   b184          cbz    r4, 732 <nrfx_ppi_channel_assign+0x32>
		       710:   4c0d          ldr    r4, [pc, #52]  ; (748 <nrfx_ppi_channel_assign+0x48>)
		       712:   6824          ldr    r4, [r4, #0]
		       714:   4223          tst    r3, r4
		->     716:   d012          beq.n  73e <nrfx_ppi_channel_assign+0x3e>
		       718:   00c0          lsls   r0, r0, #3
		       71a:   f100 4380     add.w  r3, r0, #1073741824  ; 0x40000000
		       71e:   f503 33f8     add.w  r3, r3, #126976  ; 0x1f000
		       722:   2000          movs   r0, #0
		--------------------
	(     716,      73a)	
		--------------------
		       70e:   b184          cbz    r4, 732 <nrfx_ppi_channel_assign+0x32>
		       710:   4c0d          ldr    r4, [pc, #52]  ; (748 <nrfx_ppi_channel_assign+0x48>)
		       712:   6824          ldr    r4, [r4, #0]
		       714:   4223          tst    r3, r4
		->     716:   d012          beq.n  73e <nrfx_ppi_channel_assign+0x3e>
		       718:   00c0          lsls   r0, r0, #3
		       71a:   f100 4380     add.w  r3, r0, #1073741824  ; 0x40000000
		       71e:   f503 33f8     add.w  r3, r3, #126976  ; 0x1f000
		       722:   2000          movs   r0, #0
		--------------------
	(     926,      928)	
		--------------------
		       91a:   f5a5 4000     sub.w  r0, r5, #32768   ; 0x8000
		       91e:   421a          tst    r2, r3
		       920:   f04f 0100     mov.w  r1, #0
		       924:   b280          uxth   r0, r0
		->     926:   d006          beq.n  936 <TIMER0_IRQHandler+0x3e>
		       928:   6029          str    r1, [r5, #0]
		       92a:   682b          ldr    r3, [r5, #0]
		       92c:   9301          str    r3, [sp, #4]
		       92e:   e9d8 3100     ldrd   r3, r1, [r8]
		--------------------
	(     950,      952)	
		--------------------
		       948:   40008000  .word   0x40008000
		       94c:   2000008c  .word   0x2000008c
		  
		  00000950 <timer_dummy_handler>:
		->     950:   4770          bx lr
		       952:   bf00          nop
		  
		  00000954 <main>:
		       954:   b510          push   {r4, lr}
		--------------------
	(     ce4,      a5a)	
		--------------------
		       cda:   f43f aebe     beq.w  a5a <SystemInit+0x3a>
		       cde:   4b17          ldr    r3, [pc, #92]  ; (d3c <SystemInit+0x31c>)
		       ce0:   4a17          ldr    r2, [pc, #92]  ; (d40 <SystemInit+0x320>)
		       ce2:   675a          str    r2, [r3, #116] ; 0x74
		->     ce4:   e6b9          b.n    a5a <SystemInit+0x3a>
		       ce6:   4a17          ldr    r2, [pc, #92]  ; (d44 <SystemInit+0x324>)
		       ce8:   5cd3          ldrb   r3, [r2, r3]
		       cea:   2b00          cmp    r3, #0
		       cec:   f43f af08     beq.w  b00 <SystemInit+0xe0>
		--------------------
	(     df4,      3ca)	
		--------------------
		       dec:   4402          add    r2, r0
		       dee:   4603          mov    r3, r0
		       df0:   4293          cmp    r3, r2
		       df2:   d100          bne.n  df6 <memset+0xa>
		->     df4:   4770          bx lr
		       df6:   f803 1b01     strb.w r1, [r3], #1
		       dfa:   e7f9          b.n    df0 <memset+0x4>
		  
		  00000dfc <__libc_init_array>:
		--------------------
	(     e1e,      e20)	
		--------------------
		       e16:   10a4          asrs   r4, r4, #2
		       e18:   2600          movs   r6, #0
		       e1a:   42a6          cmp    r6, r4
		       e1c:   d105          bne.n  e2a <__libc_init_array+0x2e>
		->     e1e:   bd70          pop    {r4, r5, r6, pc}
		       e20:   f855 3b04     ldr.w  r3, [r5], #4
		       e24:   4798          blx    r3
		       e26:   3601          adds   r6, #1
		       e28:   e7ee          b.n    e08 <__libc_init_array+0xc>
		--------------------
	(     e6e,      e70)	
		--------------------
		  00000e6c <__retarget_lock_acquire_recursive>:
		       e6c:   4770          bx lr
		  
		  00000e6e <__retarget_lock_release_recursive>:
		->     e6e:   4770          bx lr
		  
		  00000e70 <__register_exitproc>:
		       e70:   e92d 43f8     stmdb  sp!, {r3, r4, r5, r6, r7, r8, r9, lr}
		       e74:   f8df 80b0     ldr.w  r8, [pc, #176]   ; f28 <__register_exitproc+0xb8>
		--------------------
	(     eae,      eb2)	
		--------------------
		       ea0:   dd07          ble.n  eb2 <__register_exitproc+0x42>
		       ea2:   f8d8 0000     ldr.w  r0, [r8]
		       ea6:   f7ff ffe2     bl e6e <__retarget_lock_release_recursive>
		       eaa:   f04f 30ff     mov.w  r0, #4294967295  ; 0xffffffff
		->     eae:   e8bd 83f8     ldmia.w    sp!, {r3, r4, r5, r6, r7, r8, r9, pc}
		       eb2:   b32e          cbz    r6, f00 <__register_exitproc+0x90>
		       eb4:   f8d4 0088     ldr.w  r0, [r4, #136]   ; 0x88
		       eb8:   b968          cbnz   r0, ed6 <__register_exitproc+0x66>
		       eba:   4b1a          ldr    r3, [pc, #104] ; (f24 <__register_exitproc+0xb4>)
		--------------------
	(     ebe,      ed6)	
		--------------------
		       eb4:   f8d4 0088     ldr.w  r0, [r4, #136]   ; 0x88
		       eb8:   b968          cbnz   r0, ed6 <__register_exitproc+0x66>
		       eba:   4b1a          ldr    r3, [pc, #104] ; (f24 <__register_exitproc+0xb4>)
		       ebc:   2b00          cmp    r3, #0
		->     ebe:   d0f0          beq.n  ea2 <__register_exitproc+0x32>
		       ec0:   f44f 7084     mov.w  r0, #264 ; 0x108
		       ec4:   f3af 8000     nop.w
		       ec8:   2800          cmp    r0, #0
		       eca:   d0ea          beq.n  ea2 <__register_exitproc+0x32>
		--------------------
	(     ebe,      f00)	
		--------------------
		       eb4:   f8d4 0088     ldr.w  r0, [r4, #136]   ; 0x88
		       eb8:   b968          cbnz   r0, ed6 <__register_exitproc+0x66>
		       eba:   4b1a          ldr    r3, [pc, #104] ; (f24 <__register_exitproc+0xb4>)
		       ebc:   2b00          cmp    r3, #0
		->     ebe:   d0f0          beq.n  ea2 <__register_exitproc+0x32>
		       ec0:   f44f 7084     mov.w  r0, #264 ; 0x108
		       ec4:   f3af 8000     nop.w
		       ec8:   2800          cmp    r0, #0
		       eca:   d0ea          beq.n  ea2 <__register_exitproc+0x32>
		--------------------

gpiote-o3: 20 | 24
	(     306,      b62)	
		--------------------
		       2fa:   e9cd 1101     strd   r1, r1, [sp, #4]
		       2fe:   9303          str    r3, [sp, #12]
		       300:   f000 f804     bl 30c <app_error_fault_handler>
		       304:   b005          add    sp, #20
		->     306:   f85d fb04     ldr.w  pc, [sp], #4
		       30a:   bf00          nop
		  
		  0000030c <app_error_fault_handler>:
		       30c:   b672          cpsid  i
		--------------------
	(     306,      b6e)	
		--------------------
		       2fa:   e9cd 1101     strd   r1, r1, [sp, #4]
		       2fe:   9303          str    r3, [sp, #12]
		       300:   f000 f804     bl 30c <app_error_fault_handler>
		       304:   b005          add    sp, #20
		->     306:   f85d fb04     ldr.w  pc, [sp], #4
		       30a:   bf00          nop
		  
		  0000030c <app_error_fault_handler>:
		       30c:   b672          cpsid  i
		--------------------
	(     306,      b74)	
		--------------------
		       2fa:   e9cd 1101     strd   r1, r1, [sp, #4]
		       2fe:   9303          str    r3, [sp, #12]
		       300:   f000 f804     bl 30c <app_error_fault_handler>
		       304:   b005          add    sp, #20
		->     306:   f85d fb04     ldr.w  pc, [sp], #4
		       30a:   bf00          nop
		  
		  0000030c <app_error_fault_handler>:
		       30c:   b672          cpsid  i
		--------------------
	(     306,      b86)	
		--------------------
		       2fa:   e9cd 1101     strd   r1, r1, [sp, #4]
		       2fe:   9303          str    r3, [sp, #12]
		       300:   f000 f804     bl 30c <app_error_fault_handler>
		       304:   b005          add    sp, #20
		->     306:   f85d fb04     ldr.w  pc, [sp], #4
		       30a:   bf00          nop
		  
		  0000030c <app_error_fault_handler>:
		       30c:   b672          cpsid  i
		--------------------
	(     358,      828)	
		--------------------
		       350:   3b01          subs   r3, #1
		       352:   6013          str    r3, [r2, #0]
		       354:   b903          cbnz   r3, 358 <app_util_critical_region_exit+0xc>
		       356:   b662          cpsie  i
		->     358:   4770          bx lr
		       35a:   bf00          nop
		       35c:   20000034  .word   0x20000034
		  
		  00000360 <nrf_drv_ppi_init>:
		--------------------
	(     36a,      36c)	
		--------------------
		       362:   7818          ldrb   r0, [r3, #0]
		       364:   b910          cbnz   r0, 36c <nrf_drv_ppi_init+0xc>
		       366:   2201          movs   r2, #1
		       368:   701a          strb   r2, [r3, #0]
		->     36a:   4770          bx lr
		       36c:   2085          movs   r0, #133  ; 0x85
		       36e:   4770          bx lr
		       370:   20000038  .word   0x20000038
		       374:   00000000  .word   0x00000000
		--------------------
	(     43c,      474)	
		--------------------
		       434:   788c          ldrb   r4, [r1, #2]
		       436:   b1ec          cbz    r4, 474 <nrfx_gpiote_out_init+0x54>
		       438:   681a          ldr    r2, [r3, #0]
		       43a:   3201          adds   r2, #1
		->     43c:   d03a          beq.n  4b4 <nrfx_gpiote_out_init+0x94>
		       43e:   685a          ldr    r2, [r3, #4]
		       440:   3201          adds   r2, #1
		       442:   d068          beq.n  516 <nrfx_gpiote_out_init+0xf6>
		       444:   689a          ldr    r2, [r3, #8]
		--------------------
	(     5ea,      5ec)	
		--------------------
		       5e2:   2b01          cmp    r3, #1
		       5e4:   d011          beq.n  60a <GPIOTE_IRQHandler+0x96>
		       5e6:   bb1e          cbnz   r6, 630 <GPIOTE_IRQHandler+0xbc>
		       5e8:   b005          add    sp, #20
		->     5ea:   bdf0          pop    {r4, r5, r6, r7, pc}
		       5ec:   f8d3 2304     ldr.w  r2, [r3, #772]   ; 0x304
		       5f0:   0612          lsls   r2, r2, #24
		       5f2:   d5f3          bpl.n  5dc <GPIOTE_IRQHandler+0x68>
		       5f4:   2200          movs   r2, #0
		--------------------
	(     6e8,      6f2)	
		--------------------
		       6de:   f856 3023     ldr.w  r3, [r6, r3, lsl #2]
		       6e2:   b133          cbz    r3, 6f2 <GPIOTE_IRQHandler+0x17e>
		       6e4:   0989          lsrs   r1, r1, #6
		       6e6:   2903          cmp    r1, #3
		->     6e8:   d00e          beq.n  708 <GPIOTE_IRQHandler+0x194>
		       6ea:   2a02          cmp    r2, #2
		       6ec:   d00a          beq.n  704 <GPIOTE_IRQHandler+0x190>
		       6ee:   2a03          cmp    r2, #3
		       6f0:   d073          beq.n  7da <GPIOTE_IRQHandler+0x266>
		--------------------
	(     702,      704)	
		--------------------
		       6f8:   f8c4 3520     str.w  r3, [r4, #1312]  ; 0x520
		       6fc:   2b00          cmp    r3, #0
		       6fe:   d1b8          bne.n  672 <GPIOTE_IRQHandler+0xfe>
		       700:   b005          add    sp, #20
		->     702:   bdf0          pop    {r4, r5, r6, r7, pc}
		       704:   2901          cmp    r1, #1
		       706:   d1f4          bne.n  6f2 <GPIOTE_IRQHandler+0x17e>
		       708:   4798          blx    r3
		       70a:   e7f2          b.n    6f2 <GPIOTE_IRQHandler+0x17e>
		--------------------
	(     86a,      86e)	
		--------------------
		       85e:   4658          mov    r0, fp
		       860:   e8bd 8ff8     ldmia.w    sp!, {r3, r4, r5, r6, r7, r8, r9, sl, fp, pc}
		       864:   f04f 0b04     mov.w  fp, #4
		       868:   4658          mov    r0, fp
		->     86a:   e8bd 8ff8     ldmia.w    sp!, {r3, r4, r5, r6, r7, r8, r9, sl, fp, pc}
		       86e:   bf00          nop
		       870:   000fffff  .word   0x000fffff
		       874:   2000008c  .word   0x2000008c
		  
		--------------------
	(     88e,      8aa)	
		--------------------
		       886:   b184          cbz    r4, 8aa <nrfx_ppi_channel_assign+0x32>
		       888:   4c0d          ldr    r4, [pc, #52]  ; (8c0 <nrfx_ppi_channel_assign+0x48>)
		       88a:   6824          ldr    r4, [r4, #0]
		       88c:   4223          tst    r3, r4
		->     88e:   d012          beq.n  8b6 <nrfx_ppi_channel_assign+0x3e>
		       890:   00c0          lsls   r0, r0, #3
		       892:   f100 4380     add.w  r3, r0, #1073741824  ; 0x40000000
		       896:   f503 33f8     add.w  r3, r3, #126976  ; 0x1f000
		       89a:   2000          movs   r0, #0
		--------------------
	(     88e,      8b2)	
		--------------------
		       886:   b184          cbz    r4, 8aa <nrfx_ppi_channel_assign+0x32>
		       888:   4c0d          ldr    r4, [pc, #52]  ; (8c0 <nrfx_ppi_channel_assign+0x48>)
		       88a:   6824          ldr    r4, [r4, #0]
		       88c:   4223          tst    r3, r4
		->     88e:   d012          beq.n  8b6 <nrfx_ppi_channel_assign+0x3e>
		       890:   00c0          lsls   r0, r0, #3
		       892:   f100 4380     add.w  r3, r0, #1073741824  ; 0x40000000
		       896:   f503 33f8     add.w  r3, r3, #126976  ; 0x1f000
		       89a:   2000          movs   r0, #0
		--------------------
	(     a9e,      aa0)	
		--------------------
		       a92:   f5a5 4000     sub.w  r0, r5, #32768   ; 0x8000
		       a96:   421a          tst    r2, r3
		       a98:   f04f 0100     mov.w  r1, #0
		       a9c:   b280          uxth   r0, r0
		->     a9e:   d006          beq.n  aae <TIMER0_IRQHandler+0x3e>
		       aa0:   6029          str    r1, [r5, #0]
		       aa2:   682b          ldr    r3, [r5, #0]
		       aa4:   9301          str    r3, [sp, #4]
		       aa6:   e9d8 3100     ldrd   r3, r1, [r8]
		--------------------
	(     ac8,      aca)	
		--------------------
		       ac0:   40008000  .word   0x40008000
		       ac4:   20000090  .word   0x20000090
		  
		  00000ac8 <timer_dummy_handler>:
		->     ac8:   4770          bx lr
		       aca:   bf00          nop
		  
		  00000acc <main>:
		       acc:   b510          push   {r4, lr}
		--------------------
	(     e44,      bd2)	
		--------------------
		       e3a:   f43f aeca     beq.w  bd2 <SystemInit+0x3a>
		       e3e:   4b35          ldr    r3, [pc, #212] ; (f14 <SystemInit+0x37c>)
		       e40:   4a35          ldr    r2, [pc, #212] ; (f18 <SystemInit+0x380>)
		       e42:   675a          str    r2, [r3, #116] ; 0x74
		->     e44:   e6c5          b.n    bd2 <SystemInit+0x3a>
		       e46:   f04f 4370     mov.w  r3, #4026531840  ; 0xf0000000
		       e4a:   f893 3fe0     ldrb.w r3, [r3, #4064] ; 0xfe0
		       e4e:   2b06          cmp    r3, #6
		       e50:   f47f af03     bne.w  c5a <SystemInit+0xc2>
		--------------------
	(     f5c,      3d2)	
		--------------------
		       f54:   4402          add    r2, r0
		       f56:   4603          mov    r3, r0
		       f58:   4293          cmp    r3, r2
		       f5a:   d100          bne.n  f5e <memset+0xa>
		->     f5c:   4770          bx lr
		       f5e:   f803 1b01     strb.w r1, [r3], #1
		       f62:   e7f9          b.n    f58 <memset+0x4>
		  
		  00000f64 <__libc_init_array>:
		--------------------
	(     f86,      f88)	
		--------------------
		       f7e:   10a4          asrs   r4, r4, #2
		       f80:   2600          movs   r6, #0
		       f82:   42a6          cmp    r6, r4
		       f84:   d105          bne.n  f92 <__libc_init_array+0x2e>
		->     f86:   bd70          pop    {r4, r5, r6, pc}
		       f88:   f855 3b04     ldr.w  r3, [r5], #4
		       f8c:   4798          blx    r3
		       f8e:   3601          adds   r6, #1
		       f90:   e7ee          b.n    f70 <__libc_init_array+0xc>
		--------------------
	(    1016,     101a)	
		--------------------
		      1008:   dd07          ble.n  101a <__register_exitproc+0x42>
		      100a:   f8d8 0000     ldr.w  r0, [r8]
		      100e:   f7ff ffe2     bl fd6 <__retarget_lock_release_recursive>
		      1012:   f04f 30ff     mov.w  r0, #4294967295  ; 0xffffffff
		->    1016:   e8bd 83f8     ldmia.w    sp!, {r3, r4, r5, r6, r7, r8, r9, pc}
		      101a:   b32e          cbz    r6, 1068 <__register_exitproc+0x90>
		      101c:   f8d4 0088     ldr.w  r0, [r4, #136]   ; 0x88
		      1020:   b968          cbnz   r0, 103e <__register_exitproc+0x66>
		      1022:   4b1a          ldr    r3, [pc, #104] ; (108c <__register_exitproc+0xb4>)
		--------------------
	(    1026,     1068)	
		--------------------
		      101c:   f8d4 0088     ldr.w  r0, [r4, #136]   ; 0x88
		      1020:   b968          cbnz   r0, 103e <__register_exitproc+0x66>
		      1022:   4b1a          ldr    r3, [pc, #104] ; (108c <__register_exitproc+0xb4>)
		      1024:   2b00          cmp    r3, #0
		->    1026:   d0f0          beq.n  100a <__register_exitproc+0x32>
		      1028:   f44f 7084     mov.w  r0, #264 ; 0x108
		      102c:   f3af 8000     nop.w
		      1030:   2800          cmp    r0, #0
		      1032:   d0ea          beq.n  100a <__register_exitproc+0x32>
		--------------------

i2s-o0: 30 | 303
	(     558,      55a)	
		--------------------
		       550:   7013          strb   r3, [r2, #0]
		       552:   bf00          nop
		       554:   3730          adds   r7, #48   ; 0x30
		       556:   46bd          mov    sp, r7
		->     558:   bdb0          pop    {r4, r5, r7, pc}
		       55a:   bf00          nop
		       55c:   00005a20  .word   0x00005a20
		       560:   000004c9  .word   0x000004c9
		       564:   20000000  .word   0x20000000
		--------------------
	(    3164,     3168)	
		--------------------
		      315c:   b084          sub    sp, #16
		      315e:   af00          add    r7, sp, #0
		      3160:   6078          str    r0, [r7, #4]
		      3162:   6878          ldr    r0, [r7, #4]
		->    3164:   f7ff ffb4     bl 30d0 <prs_box_get>
		      3168:   60f8          str    r0, [r7, #12]
		      316a:   68fb          ldr    r3, [r7, #12]
		      316c:   2b00          cmp    r3, #0
		      316e:   d005          beq.n  317c <nrfx_prs_release+0x22>
		--------------------
	(    365c,     3660)	
		--------------------
		      3654:   2300          movs   r3, #0
		      3656:   2201          movs   r2, #1
		      3658:   2100          movs   r1, #0
		      365a:   6878          ldr    r0, [r7, #4]
		->    365c:   f7ff ffa2     bl 35a4 <nrf_gpio_cfg>
		      3660:   bf00          nop
		      3662:   3708          adds   r7, #8
		      3664:   46bd          mov    sp, r7
		      3666:   bd80          pop    {r7, pc}
		--------------------
	(    37f4,     37f8)	
		--------------------
		      37ec:   687b          ldr    r3, [r7, #4]
		      37ee:   681b          ldr    r3, [r3, #0]
		      37f0:   4908          ldr    r1, [pc, #32]  ; (3814 <interrupts_disable+0x30>)
		      37f2:   4618          mov    r0, r3
		->    37f4:   f7ff fdbe     bl 3374 <nrf_uart_int_disable>
		      37f8:   687b          ldr    r3, [r7, #4]
		      37fa:   681b          ldr    r3, [r3, #0]
		      37fc:   4618          mov    r0, r3
		      37fe:   f7ff fd2d     bl 325c <nrfx_get_irq_number>
		--------------------
	(    386a,     3872)	
		--------------------
		      385e:   4618          mov    r0, r3
		      3860:   f7ff fe31     bl 34c6 <nrf_uart_hwfc_pins_disconnect>
		      3864:   697b          ldr    r3, [r7, #20]
		      3866:   f1b3 3fff     cmp.w  r3, #4294967295  ; 0xffffffff
		->    386a:   d002          beq.n  3872 <pins_to_default+0x5a>
		      386c:   6978          ldr    r0, [r7, #20]
		      386e:   f7ff fee9     bl 3644 <nrf_gpio_cfg_default>
		      3872:   693b          ldr    r3, [r7, #16]
		      3874:   f1b3 3fff     cmp.w  r3, #4294967295  ; 0xffffffff
		--------------------
	(    3878,     387a)	
		--------------------
		      386c:   6978          ldr    r0, [r7, #20]
		      386e:   f7ff fee9     bl 3644 <nrf_gpio_cfg_default>
		      3872:   693b          ldr    r3, [r7, #16]
		      3874:   f1b3 3fff     cmp.w  r3, #4294967295  ; 0xffffffff
		->    3878:   d002          beq.n  3880 <pins_to_default+0x68>
		      387a:   6938          ldr    r0, [r7, #16]
		      387c:   f7ff fee2     bl 3644 <nrf_gpio_cfg_default>
		      3880:   68bb          ldr    r3, [r7, #8]
		      3882:   f1b3 3fff     cmp.w  r3, #4294967295  ; 0xffffffff
		--------------------
	(    388a,     3644)	
		--------------------
		      3880:   68bb          ldr    r3, [r7, #8]
		      3882:   f1b3 3fff     cmp.w  r3, #4294967295  ; 0xffffffff
		      3886:   d002          beq.n  388e <pins_to_default+0x76>
		      3888:   68b8          ldr    r0, [r7, #8]
		->    388a:   f7ff fedb     bl 3644 <nrf_gpio_cfg_default>
		      388e:   68fb          ldr    r3, [r7, #12]
		      3890:   f1b3 3fff     cmp.w  r3, #4294967295  ; 0xffffffff
		      3894:   d002          beq.n  389c <pins_to_default+0x84>
		      3896:   68f8          ldr    r0, [r7, #12]
		--------------------
	(    3894,     3896)	
		--------------------
		      3888:   68b8          ldr    r0, [r7, #8]
		      388a:   f7ff fedb     bl 3644 <nrf_gpio_cfg_default>
		      388e:   68fb          ldr    r3, [r7, #12]
		      3890:   f1b3 3fff     cmp.w  r3, #4294967295  ; 0xffffffff
		->    3894:   d002          beq.n  389c <pins_to_default+0x84>
		      3896:   68f8          ldr    r0, [r7, #12]
		      3898:   f7ff fed4     bl 3644 <nrf_gpio_cfg_default>
		      389c:   bf00          nop
		      389e:   3718          adds   r7, #24
		--------------------
	(    3992,     3994)	
		--------------------
		      3988:   f7ff fd24     bl 33d4 <nrf_uart_disable>
		      398c:   68fb          ldr    r3, [r7, #12]
		      398e:   685b          ldr    r3, [r3, #4]
		      3990:   2b00          cmp    r3, #0
		->    3992:   d002          beq.n  399a <nrfx_uart_uninit+0x32>
		      3994:   6878          ldr    r0, [r7, #4]
		      3996:   f7ff ff25     bl 37e4 <interrupts_disable>
		      399a:   6878          ldr    r0, [r7, #4]
		      399c:   f7ff ff3c     bl 3818 <pins_to_default>
		--------------------
	(    3996,     37e4)	
		--------------------
		      398e:   685b          ldr    r3, [r3, #4]
		      3990:   2b00          cmp    r3, #0
		      3992:   d002          beq.n  399a <nrfx_uart_uninit+0x32>
		      3994:   6878          ldr    r0, [r7, #4]
		->    3996:   f7ff ff25     bl 37e4 <interrupts_disable>
		      399a:   6878          ldr    r0, [r7, #4]
		      399c:   f7ff ff3c     bl 3818 <pins_to_default>
		      39a0:   687b          ldr    r3, [r7, #4]
		      39a2:   681b          ldr    r3, [r3, #0]
		--------------------
	(    39a6,     315a)	
		--------------------
		      399c:   f7ff ff3c     bl 3818 <pins_to_default>
		      39a0:   687b          ldr    r3, [r7, #4]
		      39a2:   681b          ldr    r3, [r3, #0]
		      39a4:   4618          mov    r0, r3
		->    39a6:   f7ff fbd8     bl 315a <nrfx_prs_release>
		      39aa:   68fb          ldr    r3, [r7, #12]
		      39ac:   2200          movs   r2, #0
		      39ae:   f883 202a     strb.w r2, [r3, #42]   ; 0x2a
		      39b2:   68fb          ldr    r3, [r7, #12]
		--------------------
	(    3fe4,     46d0)	
		--------------------
		      3fda:   4618          mov    r0, r3
		      3fdc:   370c          adds   r7, #12
		      3fde:   46bd          mov    sp, r7
		      3fe0:   f85d 7b04     ldr.w  r7, [sp], #4
		->    3fe4:   4770          bx lr
		  
		  00003fe6 <nrf_uarte_shorts_disable>:
		      3fe6:   b480          push   {r7}
		      3fe8:   b083          sub    sp, #12
		--------------------
	(    3fe4,     46ee)	
		--------------------
		      3fda:   4618          mov    r0, r3
		      3fdc:   370c          adds   r7, #12
		      3fde:   46bd          mov    sp, r7
		      3fe0:   f85d 7b04     ldr.w  r7, [sp], #4
		->    3fe4:   4770          bx lr
		  
		  00003fe6 <nrf_uarte_shorts_disable>:
		      3fe6:   b480          push   {r7}
		      3fe8:   b083          sub    sp, #12
		--------------------
	(    4506,     450a)	
		--------------------
		      44fc:   4618          mov    r0, r3
		      44fe:   f7ff fd0a     bl 3f16 <nrfx_get_irq_number>
		      4502:   4603          mov    r3, r0
		      4504:   4618          mov    r0, r3
		->    4506:   f7ff fd34     bl 3f72 <_NRFX_IRQ_DISABLE>
		      450a:   bf00          nop
		      450c:   3708          adds   r7, #8
		      450e:   46bd          mov    sp, r7
		      4510:   bd80          pop    {r7, pc}
		--------------------
	(    4532,     4108)	
		--------------------
		      452a:   6178          str    r0, [r7, #20]
		      452c:   687b          ldr    r3, [r7, #4]
		      452e:   681b          ldr    r3, [r3, #0]
		      4530:   4618          mov    r0, r3
		->    4532:   f7ff fde9     bl 4108 <nrf_uarte_rx_pin_get>
		      4536:   6138          str    r0, [r7, #16]
		      4538:   687b          ldr    r3, [r7, #4]
		      453a:   681b          ldr    r3, [r3, #0]
		      453c:   4618          mov    r0, r3
		--------------------
	(    453e,     4542)	
		--------------------
		      4536:   6138          str    r0, [r7, #16]
		      4538:   687b          ldr    r3, [r7, #4]
		      453a:   681b          ldr    r3, [r3, #0]
		      453c:   4618          mov    r0, r3
		->    453e:   f7ff fdf0     bl 4122 <nrf_uarte_rts_pin_get>
		      4542:   60f8          str    r0, [r7, #12]
		      4544:   687b          ldr    r3, [r7, #4]
		      4546:   681b          ldr    r3, [r3, #0]
		      4548:   4618          mov    r0, r3
		--------------------
	(    4556,     455a)	
		--------------------
		      454e:   60b8          str    r0, [r7, #8]
		      4550:   687b          ldr    r3, [r7, #4]
		      4552:   681b          ldr    r3, [r3, #0]
		      4554:   4618          mov    r0, r3
		->    4556:   f7ff fdbb     bl 40d0 <nrf_uarte_txrx_pins_disconnect>
		      455a:   687b          ldr    r3, [r7, #4]
		      455c:   681b          ldr    r3, [r3, #0]
		      455e:   4618          mov    r0, r3
		      4560:   f7ff fe0d     bl 417e <nrf_uarte_hwfc_pins_disconnect>
		--------------------
	(    4594,     4596)	
		--------------------
		      4588:   68b8          ldr    r0, [r7, #8]
		      458a:   f7ff fec7     bl 431c <nrf_gpio_cfg_default>
		      458e:   68fb          ldr    r3, [r7, #12]
		      4590:   f1b3 3fff     cmp.w  r3, #4294967295  ; 0xffffffff
		->    4594:   d002          beq.n  459c <pins_to_default+0x84>
		      4596:   68f8          ldr    r0, [r7, #12]
		      4598:   f7ff fec0     bl 431c <nrf_gpio_cfg_default>
		      459c:   bf00          nop
		      459e:   3718          adds   r7, #24
		--------------------
	(    4598,     431c)	
		--------------------
		      458e:   68fb          ldr    r3, [r7, #12]
		      4590:   f1b3 3fff     cmp.w  r3, #4294967295  ; 0xffffffff
		      4594:   d002          beq.n  459c <pins_to_default+0x84>
		      4596:   68f8          ldr    r0, [r7, #12]
		->    4598:   f7ff fec0     bl 431c <nrf_gpio_cfg_default>
		      459c:   bf00          nop
		      459e:   3718          adds   r7, #24
		      45a0:   46bd          mov    sp, r7
		      45a2:   bd80          pop    {r7, pc}
		--------------------
	(    5012,     5034)	
		--------------------
		      500a:   3b03          subs   r3, #3
		      500c:   2b03          cmp    r3, #3
		      500e:   d813          bhi.n  5038 <nrf52_errata_16+0x50>
		      5010:   a201          add    r2, pc, #4 ; (adr r2, 5018 <nrf52_errata_16+0x30>)
		->    5012:   f852 f023     ldr.w  pc, [r2, r3, lsl #2]
		      5016:   bf00          nop
		      5018:   00005029  .word   0x00005029
		      501c:   0000502d  .word   0x0000502d
		      5020:   00005031  .word   0x00005031
		--------------------
	(    5096,     50b0)	
		--------------------
		      508e:   3b03          subs   r3, #3
		      5090:   2b03          cmp    r3, #3
		      5092:   d813          bhi.n  50bc <nrf52_errata_31+0x68>
		      5094:   a201          add    r2, pc, #4 ; (adr r2, 509c <nrf52_errata_31+0x48>)
		->    5096:   f852 f023     ldr.w  pc, [r2, r3, lsl #2]
		      509a:   bf00          nop
		      509c:   000050ad  .word   0x000050ad
		      50a0:   000050b1  .word   0x000050b1
		      50a4:   000050b5  .word   0x000050b5
		--------------------
	(    5096,     50b8)	
		--------------------
		      508e:   3b03          subs   r3, #3
		      5090:   2b03          cmp    r3, #3
		      5092:   d813          bhi.n  50bc <nrf52_errata_31+0x68>
		      5094:   a201          add    r2, pc, #4 ; (adr r2, 509c <nrf52_errata_31+0x48>)
		->    5096:   f852 f023     ldr.w  pc, [r2, r3, lsl #2]
		      509a:   bf00          nop
		      509c:   000050ad  .word   0x000050ad
		      50a0:   000050b1  .word   0x000050b1
		      50a4:   000050b5  .word   0x000050b5
		--------------------
	(    5122,     5136)	
		--------------------
		      5114:   00005125  .word   0x00005125
		      5118:   00005129  .word   0x00005129
		      511c:   0000512d  .word   0x0000512d
		      5120:   2301          movs   r3, #1
		->    5122:   e008          b.n    5136 <nrf52_errata_32+0x56>
		      5124:   2300          movs   r3, #0
		      5126:   e006          b.n    5136 <nrf52_errata_32+0x56>
		      5128:   2300          movs   r3, #0
		      512a:   e004          b.n    5136 <nrf52_errata_32+0x56>
		--------------------
	(    5126,     5136)	
		--------------------
		      511c:   0000512d  .word   0x0000512d
		      5120:   2301          movs   r3, #1
		      5122:   e008          b.n    5136 <nrf52_errata_32+0x56>
		      5124:   2300          movs   r3, #0
		->    5126:   e006          b.n    5136 <nrf52_errata_32+0x56>
		      5128:   2300          movs   r3, #0
		      512a:   e004          b.n    5136 <nrf52_errata_32+0x56>
		      512c:   2300          movs   r3, #0
		      512e:   e002          b.n    5136 <nrf52_errata_32+0x56>
		--------------------
	(    518e,     51b0)	
		--------------------
		      5186:   3b03          subs   r3, #3
		      5188:   2b03          cmp    r3, #3
		      518a:   d813          bhi.n  51b4 <nrf52_errata_36+0x68>
		      518c:   a201          add    r2, pc, #4 ; (adr r2, 5194 <nrf52_errata_36+0x48>)
		->    518e:   f852 f023     ldr.w  pc, [r2, r3, lsl #2]
		      5192:   bf00          nop
		      5194:   000051a5  .word   0x000051a5
		      5198:   000051a9  .word   0x000051a9
		      519c:   000051ad  .word   0x000051ad
		--------------------
	(    51b2,     51ba)	
		--------------------
		      51aa:   e006          b.n    51ba <nrf52_errata_36+0x6e>
		      51ac:   2301          movs   r3, #1
		      51ae:   e004          b.n    51ba <nrf52_errata_36+0x6e>
		      51b0:   2301          movs   r3, #1
		->    51b2:   e002          b.n    51ba <nrf52_errata_36+0x6e>
		      51b4:   2301          movs   r3, #1
		      51b6:   e000          b.n    51ba <nrf52_errata_36+0x6e>
		      51b8:   2300          movs   r3, #0
		      51ba:   4618          mov    r0, r3
		--------------------
	(    526e,     528c)	
		--------------------
		      5266:   3b03          subs   r3, #3
		      5268:   2b03          cmp    r3, #3
		      526a:   d813          bhi.n  5294 <nrf52_errata_57+0x50>
		      526c:   a201          add    r2, pc, #4 ; (adr r2, 5274 <nrf52_errata_57+0x30>)
		->    526e:   f852 f023     ldr.w  pc, [r2, r3, lsl #2]
		      5272:   bf00          nop
		      5274:   00005285  .word   0x00005285
		      5278:   00005289  .word   0x00005289
		      527c:   0000528d  .word   0x0000528d
		--------------------
	(    5476,     548c)	
		--------------------
		      546e:   3b03          subs   r3, #3
		      5470:   2b03          cmp    r3, #3
		      5472:   d813          bhi.n  549c <nrf52_errata_182+0x48>
		      5474:   a201          add    r2, pc, #4 ; (adr r2, 547c <nrf52_errata_182+0x28>)
		->    5476:   f852 f023     ldr.w  pc, [r2, r3, lsl #2]
		      547a:   bf00          nop
		      547c:   0000548d  .word   0x0000548d
		      5480:   00005491  .word   0x00005491
		      5484:   00005495  .word   0x00005495
		--------------------
	(    5492,     54a2)	
		--------------------
		      5488:   00005499  .word   0x00005499
		      548c:   2300          movs   r3, #0
		      548e:   e008          b.n    54a2 <nrf52_errata_182+0x4e>
		      5490:   2300          movs   r3, #0
		->    5492:   e006          b.n    54a2 <nrf52_errata_182+0x4e>
		      5494:   2300          movs   r3, #0
		      5496:   e004          b.n    54a2 <nrf52_errata_182+0x4e>
		      5498:   2301          movs   r3, #1
		      549a:   e002          b.n    54a2 <nrf52_errata_182+0x4e>
		--------------------
	(    5880,     5882)	
		--------------------
		      587c:   d1f9          bne.n  5872 <memcpy+0xe>
		      587e:   bd10          pop    {r4, pc}
		  
		  00005880 <strlen>:
		->    5880:   4603          mov    r3, r0
		      5882:   f813 2b01     ldrb.w r2, [r3], #1
		      5886:   2a00          cmp    r2, #0
		      5888:   d1fb          bne.n  5882 <strlen+0x2>
		      588a:   1a18          subs   r0, r3, r0
		--------------------

i2s-o1: 20 | 26
	(     ebc,      ebe)	
		--------------------
		       eb0:   f010 0f01     tst.w  r0, #1
		       eb4:   d103          bne.n  ebe <bsp_board_init+0x12>
		       eb6:   f014 0f02     tst.w  r4, #2
		       eba:   d10e          bne.n  eda <bsp_board_init+0x2e>
		->     ebc:   bd10          pop    {r4, pc}
		       ebe:   f04f 43a0     mov.w  r3, #1342177280  ; 0x50000000
		       ec2:   2203          movs   r2, #3
		       ec4:   f8c3 2744     str.w  r2, [r3, #1860]  ; 0x744
		       ec8:   f8c3 2748     str.w  r2, [r3, #1864]  ; 0x748
		--------------------
	(    1792,     179a)	
		--------------------
		      178a:   bf08          it eq
		      178c:   4622          moveq  r2, r4
		      178e:   4669          mov    r1, sp
		      1790:   1d28          adds   r0, r5, #4
		->    1792:   f000 fda7     bl 22e4 <nrfx_uarte_init>
		      1796:   b009          add    sp, #36    ; 0x24
		      1798:   bdf0          pop    {r4, r5, r6, r7, pc}
		      179a:   2c00          cmp    r4, #0
		      179c:   4a08          ldr    r2, [pc, #32]  ; (17c0 <nrf_drv_uart_init+0x70>)
		--------------------
	(    1b14,     1b3c)	
		--------------------
		      1b0a:   4d2e          ldr    r5, [pc, #184] ; (1bc4 <I2S_IRQHandler+0x134>)
		      1b0c:   4628          mov    r0, r5
		      1b0e:   f850 3b10     ldr.w  r3, [r0], #16
		      1b12:   4621          mov    r1, r4
		->    1b14:   4798          blx    r3
		      1b16:   4628          mov    r0, r5
		      1b18:   f850 3b08     ldr.w  r3, [r0], #8
		      1b1c:   4621          mov    r1, r4
		      1b1e:   4798          blx    r3
		--------------------
	(    1bbc,     1bbe)	
		--------------------
		      1bb4:   715a          strb   r2, [r3, #5]
		      1bb6:   681b          ldr    r3, [r3, #0]
		      1bb8:   2101          movs   r1, #1
		      1bba:   4620          mov    r0, r4
		->    1bbc:   4798          blx    r3
		      1bbe:   e7b1          b.n    1b24 <I2S_IRQHandler+0x94>
		      1bc0:   40025000  .word   0x40025000
		      1bc4:   20000648  .word   0x20000648
		  
		--------------------
	(    1bce,     1bd0)	
		--------------------
		  00001bc8 <UARTE0_UART0_IRQHandler>:
		      1bc8:   b508          push   {r3, lr}
		      1bca:   4b02          ldr    r3, [pc, #8]   ; (1bd4 <UARTE0_UART0_IRQHandler+0xc>)
		      1bcc:   681b          ldr    r3, [r3, #0]
		->    1bce:   4798          blx    r3
		      1bd0:   bd08          pop    {r3, pc}
		      1bd2:   bf00          nop
		      1bd4:   20000660  .word   0x20000660
		  
		--------------------
	(    1bd0,     1bd2)	
		--------------------
		      1bc8:   b508          push   {r3, lr}
		      1bca:   4b02          ldr    r3, [pc, #8]   ; (1bd4 <UARTE0_UART0_IRQHandler+0xc>)
		      1bcc:   681b          ldr    r3, [r3, #0]
		      1bce:   4798          blx    r3
		->    1bd0:   bd08          pop    {r3, pc}
		      1bd2:   bf00          nop
		      1bd4:   20000660  .word   0x20000660
		  
		  00001bd8 <nrfx_prs_acquire>:
		--------------------
	(    1bf8,     1c04)	
		--------------------
		      1bf0:   601c          str    r4, [r3, #0]
		      1bf2:   2201          movs   r2, #1
		      1bf4:   711a          strb   r2, [r3, #4]
		      1bf6:   2000          movs   r0, #0
		->    1bf8:   f7ff f9d0     bl f9c <app_util_critical_region_exit>
		      1bfc:   2000          movs   r0, #0
		      1bfe:   bd10          pop    {r4, pc}
		      1c00:   2000          movs   r0, #0
		      1c02:   4770          bx lr
		--------------------
	(    1bfe,     1bd0)	
		--------------------
		      1bf4:   711a          strb   r2, [r3, #4]
		      1bf6:   2000          movs   r0, #0
		      1bf8:   f7ff f9d0     bl f9c <app_util_critical_region_exit>
		      1bfc:   2000          movs   r0, #0
		->    1bfe:   bd10          pop    {r4, pc}
		      1c00:   2000          movs   r0, #0
		      1c02:   4770          bx lr
		      1c04:   2000          movs   r0, #0
		      1c06:   f7ff f9c9     bl f9c <app_util_critical_region_exit>
		--------------------
	(    1bfe,     1c00)	
		--------------------
		      1bf4:   711a          strb   r2, [r3, #4]
		      1bf6:   2000          movs   r0, #0
		      1bf8:   f7ff f9d0     bl f9c <app_util_critical_region_exit>
		      1bfc:   2000          movs   r0, #0
		->    1bfe:   bd10          pop    {r4, pc}
		      1c00:   2000          movs   r0, #0
		      1c02:   4770          bx lr
		      1c04:   2000          movs   r0, #0
		      1c06:   f7ff f9c9     bl f9c <app_util_critical_region_exit>
		--------------------
	(    1c02,     1bd0)	
		--------------------
		      1bf8:   f7ff f9d0     bl f9c <app_util_critical_region_exit>
		      1bfc:   2000          movs   r0, #0
		      1bfe:   bd10          pop    {r4, pc}
		      1c00:   2000          movs   r0, #0
		->    1c02:   4770          bx lr
		      1c04:   2000          movs   r0, #0
		      1c06:   f7ff f9c9     bl f9c <app_util_critical_region_exit>
		      1c0a:   2011          movs   r0, #17
		      1c0c:   e7f7          b.n    1bfe <nrfx_prs_acquire+0x26>
		--------------------
	(    1c02,     1e4a)	
		--------------------
		      1bf8:   f7ff f9d0     bl f9c <app_util_critical_region_exit>
		      1bfc:   2000          movs   r0, #0
		      1bfe:   bd10          pop    {r4, pc}
		      1c00:   2000          movs   r0, #0
		->    1c02:   4770          bx lr
		      1c04:   2000          movs   r0, #0
		      1c06:   f7ff f9c9     bl f9c <app_util_critical_region_exit>
		      1c0a:   2011          movs   r0, #17
		      1c0c:   e7f7          b.n    1bfe <nrfx_prs_acquire+0x26>
		--------------------
	(    1ef4,     1f24)	
		--------------------
		      1eea:   682b          ldr    r3, [r5, #0]
		      1eec:   0b19          lsrs   r1, r3, #12
		      1eee:   f343 3307     sbfx   r3, r3, #12, #8
		      1ef2:   2b00          cmp    r3, #0
		->    1ef4:   db4d          blt.n  1f92 <nrfx_uart_init+0x16e>
		      1ef6:   0152          lsls   r2, r2, #5
		      1ef8:   b2d2          uxtb   r2, r2
		      1efa:   f103 4360     add.w  r3, r3, #3758096384  ; 0xe0000000
		      1efe:   f503 4361     add.w  r3, r3, #57600   ; 0xe100
		--------------------
	(    1f48,     1f4a)	
		--------------------
		      1f3e:   615a          str    r2, [r3, #20]
		      1f40:   2201          movs   r2, #1
		      1f42:   f883 202a     strb.w r2, [r3, #42]   ; 0x2a
		      1f46:   b003          add    sp, #12
		->    1f48:   bdf0          pop    {r4, r5, r6, r7, pc}
		      1f4a:   68a3          ldr    r3, [r4, #8]
		      1f4c:   f1b3 3fff     cmp.w  r3, #4294967295  ; 0xffffffff
		      1f50:   d006          beq.n  1f60 <nrfx_uart_init+0x13c>
		      1f52:   f503 73e0     add.w  r3, r3, #448 ; 0x1c0
		--------------------
	(    2438,     243a)	
		--------------------
		      242e:   461a          mov    r2, r3
		      2430:   2301          movs   r3, #1
		      2432:   f882 3020     strb.w r3, [r2, #32]
		      2436:   b007          add    sp, #28
		->    2438:   bdf0          pop    {r4, r5, r6, r7, pc}
		      243a:   68ab          ldr    r3, [r5, #8]
		      243c:   f1b3 3fff     cmp.w  r3, #4294967295  ; 0xffffffff
		      2440:   d006          beq.n  2450 <nrfx_uarte_init+0x16c>
		      2442:   f503 73e0     add.w  r3, r3, #448 ; 0x1c0
		--------------------
	(    2d82,     2d84)	
		--------------------
		      2d7a:   10a4          asrs   r4, r4, #2
		      2d7c:   2600          movs   r6, #0
		      2d7e:   42a6          cmp    r6, r4
		      2d80:   d105          bne.n  2d8e <__libc_init_array+0x2e>
		->    2d82:   bd70          pop    {r4, r5, r6, pc}
		      2d84:   f855 3b04     ldr.w  r3, [r5], #4
		      2d88:   4798          blx    r3
		      2d8a:   3601          adds   r6, #1
		      2d8c:   e7ee          b.n    2d6c <__libc_init_array+0xc>
		--------------------
	(    2dd2,     2dd4)	
		--------------------
		  00002dd0 <__retarget_lock_acquire_recursive>:
		      2dd0:   4770          bx lr
		  
		  00002dd2 <__retarget_lock_release_recursive>:
		->    2dd2:   4770          bx lr
		  
		  00002dd4 <memcpy>:
		      2dd4:   440a          add    r2, r1
		      2dd6:   4291          cmp    r1, r2
		--------------------
	(    2dfe,     2e00)	
		--------------------
		      2df6:   2a00          cmp    r2, #0
		      2df8:   d1fb          bne.n  2df2 <strlen+0x2>
		      2dfa:   1a18          subs   r0, r3, r0
		      2dfc:   3801          subs   r0, #1
		->    2dfe:   4770          bx lr
		  
		  00002e00 <__register_exitproc>:
		      2e00:   e92d 43f8     stmdb  sp!, {r3, r4, r5, r6, r7, r8, r9, lr}
		      2e04:   f8df 80b0     ldr.w  r8, [pc, #176]   ; 2eb8 <__register_exitproc+0xb8>
		--------------------
	(    2e3e,     2e42)	
		--------------------
		      2e30:   dd07          ble.n  2e42 <__register_exitproc+0x42>
		      2e32:   f8d8 0000     ldr.w  r0, [r8]
		      2e36:   f7ff ffcc     bl 2dd2 <__retarget_lock_release_recursive>
		      2e3a:   f04f 30ff     mov.w  r0, #4294967295  ; 0xffffffff
		->    2e3e:   e8bd 83f8     ldmia.w    sp!, {r3, r4, r5, r6, r7, r8, r9, pc}
		      2e42:   b32e          cbz    r6, 2e90 <__register_exitproc+0x90>
		      2e44:   f8d4 0088     ldr.w  r0, [r4, #136]   ; 0x88
		      2e48:   b968          cbnz   r0, 2e66 <__register_exitproc+0x66>
		      2e4a:   4b1a          ldr    r3, [pc, #104] ; (2eb4 <__register_exitproc+0xb4>)
		--------------------
	(    2e4e,     2e66)	
		--------------------
		      2e44:   f8d4 0088     ldr.w  r0, [r4, #136]   ; 0x88
		      2e48:   b968          cbnz   r0, 2e66 <__register_exitproc+0x66>
		      2e4a:   4b1a          ldr    r3, [pc, #104] ; (2eb4 <__register_exitproc+0xb4>)
		      2e4c:   2b00          cmp    r3, #0
		->    2e4e:   d0f0          beq.n  2e32 <__register_exitproc+0x32>
		      2e50:   f44f 7084     mov.w  r0, #264 ; 0x108
		      2e54:   f3af 8000     nop.w
		      2e58:   2800          cmp    r0, #0
		      2e5a:   d0ea          beq.n  2e32 <__register_exitproc+0x32>
		--------------------
	(    2e4e,     2e90)	
		--------------------
		      2e44:   f8d4 0088     ldr.w  r0, [r4, #136]   ; 0x88
		      2e48:   b968          cbnz   r0, 2e66 <__register_exitproc+0x66>
		      2e4a:   4b1a          ldr    r3, [pc, #104] ; (2eb4 <__register_exitproc+0xb4>)
		      2e4c:   2b00          cmp    r3, #0
		->    2e4e:   d0f0          beq.n  2e32 <__register_exitproc+0x32>
		      2e50:   f44f 7084     mov.w  r0, #264 ; 0x108
		      2e54:   f3af 8000     nop.w
		      2e58:   2800          cmp    r0, #0
		      2e5a:   d0ea          beq.n  2e32 <__register_exitproc+0x32>
		--------------------

i2s-o2: 20 | 34
	(     f40,      f44)	
		--------------------
		       f38:   2b00          cmp    r3, #0
		       f3a:   d1fb          bne.n  f34 <app_error_save_and_stop+0x38>
		       f3c:   b662          cpsie  i
		       f3e:   b003          add    sp, #12
		->     f40:   f85d fb04     ldr.w  pc, [sp], #4
		       f44:   611a          str    r2, [r3, #16]
		       f46:   691a          ldr    r2, [r3, #16]
		       f48:   6892          ldr    r2, [r2, #8]
		       f4a:   615a          str    r2, [r3, #20]
		--------------------
	(    1d2c,     1d3e)	
		--------------------
		      1d22:   f8c3 5500     str.w  r5, [r3, #1280]  ; 0x500
		      1d26:   4824          ldr    r0, [pc, #144] ; (1db8 <I2S_IRQHandler+0x114>)
		      1d28:   6823          ldr    r3, [r4, #0]
		      1d2a:   4629          mov    r1, r5
		->    1d2c:   4798          blx    r3
		      1d2e:   6823          ldr    r3, [r4, #0]
		      1d30:   4822          ldr    r0, [pc, #136] ; (1dbc <I2S_IRQHandler+0x118>)
		      1d32:   4629          mov    r1, r5
		      1d34:   4798          blx    r3
		--------------------
	(    1d4e,     1d50)	
		--------------------
		      1d46:   d003          beq.n  1d50 <I2S_IRQHandler+0xac>
		      1d48:   07d8          lsls   r0, r3, #31
		      1d4a:   d415          bmi.n  1d78 <I2S_IRQHandler+0xd4>
		      1d4c:   0719          lsls   r1, r3, #28
		->    1d4e:   d513          bpl.n  1d78 <I2S_IRQHandler+0xd4>
		      1d50:   7962          ldrb   r2, [r4, #5]
		      1d52:   f022 020c     bic.w  r2, r2, #12
		      1d56:   f012 0620     ands.w r6, r2, #32
		      1d5a:   4613          mov    r3, r2
		--------------------
	(    1da8,     1daa)	
		--------------------
		      1d9e:   e9c4 6602     strd   r6, r6, [r4, #8]
		      1da2:   6823          ldr    r3, [r4, #0]
		      1da4:   2101          movs   r1, #1
		      1da6:   4628          mov    r0, r5
		->    1da8:   4798          blx    r3
		      1daa:   b004          add    sp, #16
		      1dac:   bd70          pop    {r4, r5, r6, pc}
		      1dae:   bf00          nop
		      1db0:   40025000  .word   0x40025000
		--------------------
	(    1dac,     1dae)	
		--------------------
		      1da4:   2101          movs   r1, #1
		      1da6:   4628          mov    r0, r5
		      1da8:   4798          blx    r3
		      1daa:   b004          add    sp, #16
		->    1dac:   bd70          pop    {r4, r5, r6, pc}
		      1dae:   bf00          nop
		      1db0:   40025000  .word   0x40025000
		      1db4:   20000648  .word   0x20000648
		      1db8:   20000658  .word   0x20000658
		--------------------
	(    1dc4,     1dc6)	
		--------------------
		  
		  00001dc0 <UARTE0_UART0_IRQHandler>:
		      1dc0:   4b01          ldr    r3, [pc, #4]   ; (1dc8 <UARTE0_UART0_IRQHandler+0x8>)
		      1dc2:   681b          ldr    r3, [r3, #0]
		->    1dc4:   4718          bx r3
		      1dc6:   bf00          nop
		      1dc8:   20000660  .word   0x20000660
		  
		  00001dcc <nrfx_prs_acquire>:
		--------------------
	(    1dea,     1daa)	
		--------------------
		      1de0:   b124          cbz    r4, 1dec <nrfx_prs_acquire+0x20>
		      1de2:   2000          movs   r0, #0
		      1de4:   f7ff f8c4     bl f70 <app_util_critical_region_exit>
		      1de8:   2011          movs   r0, #17
		->    1dea:   bd38          pop    {r3, r4, r5, pc}
		      1dec:   2201          movs   r2, #1
		      1dee:   4620          mov    r0, r4
		      1df0:   601d          str    r5, [r3, #0]
		      1df2:   711a          strb   r2, [r3, #4]
		--------------------
	(    1dfa,     1daa)	
		--------------------
		      1df0:   601d          str    r5, [r3, #0]
		      1df2:   711a          strb   r2, [r3, #4]
		      1df4:   f7ff f8bc     bl f70 <app_util_critical_region_exit>
		      1df8:   4620          mov    r0, r4
		->    1dfa:   bd38          pop    {r3, r4, r5, pc}
		      1dfc:   2000          movs   r0, #0
		      1dfe:   bd38          pop    {r3, r4, r5, pc}
		      1e00:   40002000  .word   0x40002000
		      1e04:   20000660  .word   0x20000660
		--------------------
	(    1dfe,     1daa)	
		--------------------
		      1df4:   f7ff f8bc     bl f70 <app_util_critical_region_exit>
		      1df8:   4620          mov    r0, r4
		      1dfa:   bd38          pop    {r3, r4, r5, pc}
		      1dfc:   2000          movs   r0, #0
		->    1dfe:   bd38          pop    {r3, r4, r5, pc}
		      1e00:   40002000  .word   0x40002000
		      1e04:   20000660  .word   0x20000660
		  
		  00001e08 <nrfx_prs_release>:
		--------------------
	(    1e0c,     1e16)	
		--------------------
		  
		  00001e08 <nrfx_prs_release>:
		      1e08:   4b03          ldr    r3, [pc, #12]  ; (1e18 <nrfx_prs_release+0x10>)
		      1e0a:   4298          cmp    r0, r3
		->    1e0c:   d103          bne.n  1e16 <nrfx_prs_release+0xe>
		      1e0e:   4b03          ldr    r3, [pc, #12]  ; (1e1c <nrfx_prs_release+0x14>)
		      1e10:   2200          movs   r2, #0
		      1e12:   601a          str    r2, [r3, #0]
		      1e14:   711a          strb   r2, [r3, #4]
		--------------------
	(    1e16,     24c6)	
		--------------------
		      1e0e:   4b03          ldr    r3, [pc, #12]  ; (1e1c <nrfx_prs_release+0x14>)
		      1e10:   2200          movs   r2, #0
		      1e12:   601a          str    r2, [r3, #0]
		      1e14:   711a          strb   r2, [r3, #4]
		->    1e16:   4770          bx lr
		      1e18:   40002000  .word   0x40002000
		      1e1c:   20000660  .word   0x20000660
		  
		  00001e20 <nrfx_uart_0_irq_handler>:
		--------------------
	(    20b2,     20e2)	
		--------------------
		      20a6:   682a          ldr    r2, [r5, #0]
		      20a8:   f342 3107     sbfx   r1, r2, #12, #8
		      20ac:   2900          cmp    r1, #0
		      20ae:   ea4f 3212     mov.w  r2, r2, lsr #12
		->    20b2:   db31          blt.n  2118 <Heap_Size+0x118>
		      20b4:   f101 4160     add.w  r1, r1, #3758096384  ; 0xe0000000
		      20b8:   015b          lsls   r3, r3, #5
		      20ba:   f501 4161     add.w  r1, r1, #57600   ; 0xe100
		      20be:   b2db          uxtb   r3, r3
		--------------------
	(    210c,     2110)	
		--------------------
		      2102:   b002          add    sp, #8
		      2104:   e8bd 81f0     ldmia.w    sp!, {r4, r5, r6, r7, r8, pc}
		      2108:   2011          movs   r0, #17
		      210a:   b002          add    sp, #8
		->    210c:   e8bd 81f0     ldmia.w    sp!, {r4, r5, r6, r7, r8, pc}
		      2110:   2008          movs   r0, #8
		      2112:   b002          add    sp, #8
		      2114:   e8bd 81f0     ldmia.w    sp!, {r4, r5, r6, r7, r8, pc}
		      2118:   4918          ldr    r1, [pc, #96]  ; (217c <Heap_Size+0x17c>)
		--------------------
	(    2114,     2118)	
		--------------------
		      210a:   b002          add    sp, #8
		      210c:   e8bd 81f0     ldmia.w    sp!, {r4, r5, r6, r7, r8, pc}
		      2110:   2008          movs   r0, #8
		      2112:   b002          add    sp, #8
		->    2114:   e8bd 81f0     ldmia.w    sp!, {r4, r5, r6, r7, r8, pc}
		      2118:   4918          ldr    r1, [pc, #96]  ; (217c <Heap_Size+0x17c>)
		      211a:   f002 020f     and.w  r2, r2, #15
		      211e:   015b          lsls   r3, r3, #5
		      2120:   b2db          uxtb   r3, r3
		--------------------
	(    25f0,     25f4)	
		--------------------
		      25e4:   f8c2 1500     str.w  r1, [r2, #1280]  ; 0x500
		      25e8:   e9c6 3306     strd   r3, r3, [r6, #24]
		      25ec:   6173          str    r3, [r6, #20]
		      25ee:   b007          add    sp, #28
		->    25f0:   e8bd 83f0     ldmia.w    sp!, {r4, r5, r6, r7, r8, r9, pc}
		      25f4:   2011          movs   r0, #17
		      25f6:   b007          add    sp, #28
		      25f8:   e8bd 83f0     ldmia.w    sp!, {r4, r5, r6, r7, r8, r9, pc}
		      25fc:   2008          movs   r0, #8
		--------------------
	(    2e2c,     2ba2)	
		--------------------
		      2e22:   f43f aebe     beq.w  2ba2 <SystemInit+0x3a>
		      2e26:   4b17          ldr    r3, [pc, #92]  ; (2e84 <SystemInit+0x31c>)
		      2e28:   4a17          ldr    r2, [pc, #92]  ; (2e88 <SystemInit+0x320>)
		      2e2a:   675a          str    r2, [r3, #116] ; 0x74
		->    2e2c:   e6b9          b.n    2ba2 <SystemInit+0x3a>
		      2e2e:   4a17          ldr    r2, [pc, #92]  ; (2e8c <SystemInit+0x324>)
		      2e30:   5cd3          ldrb   r3, [r2, r3]
		      2e32:   2b00          cmp    r3, #0
		      2e34:   f43f af08     beq.w  2c48 <SystemInit+0xe0>
		--------------------
	(    2f66,     2f68)	
		--------------------
		      2f5e:   10a4          asrs   r4, r4, #2
		      2f60:   2600          movs   r6, #0
		      2f62:   42a6          cmp    r6, r4
		      2f64:   d105          bne.n  2f72 <__libc_init_array+0x2e>
		->    2f66:   bd70          pop    {r4, r5, r6, pc}
		      2f68:   f855 3b04     ldr.w  r3, [r5], #4
		      2f6c:   4798          blx    r3
		      2f6e:   3601          adds   r6, #1
		      2f70:   e7ee          b.n    2f50 <__libc_init_array+0xc>
		--------------------
	(    2fe2,     2fe4)	
		--------------------
		      2fda:   2a00          cmp    r2, #0
		      2fdc:   d1fb          bne.n  2fd6 <strlen+0x2>
		      2fde:   1a18          subs   r0, r3, r0
		      2fe0:   3801          subs   r0, #1
		->    2fe2:   4770          bx lr
		  
		  00002fe4 <__register_exitproc>:
		      2fe4:   e92d 43f8     stmdb  sp!, {r3, r4, r5, r6, r7, r8, r9, lr}
		      2fe8:   f8df 80b0     ldr.w  r8, [pc, #176]   ; 309c <__register_exitproc+0xb8>
		--------------------
	(    3022,     3026)	
		--------------------
		      3014:   dd07          ble.n  3026 <__register_exitproc+0x42>
		      3016:   f8d8 0000     ldr.w  r0, [r8]
		      301a:   f7ff ffcc     bl 2fb6 <__retarget_lock_release_recursive>
		      301e:   f04f 30ff     mov.w  r0, #4294967295  ; 0xffffffff
		->    3022:   e8bd 83f8     ldmia.w    sp!, {r3, r4, r5, r6, r7, r8, r9, pc}
		      3026:   b32e          cbz    r6, 3074 <__register_exitproc+0x90>
		      3028:   f8d4 0088     ldr.w  r0, [r4, #136]   ; 0x88
		      302c:   b968          cbnz   r0, 304a <__register_exitproc+0x66>
		      302e:   4b1a          ldr    r3, [pc, #104] ; (3098 <__register_exitproc+0xb4>)
		--------------------
	(    3032,     3074)	
		--------------------
		      3028:   f8d4 0088     ldr.w  r0, [r4, #136]   ; 0x88
		      302c:   b968          cbnz   r0, 304a <__register_exitproc+0x66>
		      302e:   4b1a          ldr    r3, [pc, #104] ; (3098 <__register_exitproc+0xb4>)
		      3030:   2b00          cmp    r3, #0
		->    3032:   d0f0          beq.n  3016 <__register_exitproc+0x32>
		      3034:   f44f 7084     mov.w  r0, #264 ; 0x108
		      3038:   f3af 8000     nop.w
		      303c:   2800          cmp    r0, #0
		      303e:   d0ea          beq.n  3016 <__register_exitproc+0x32>
		--------------------

i2s-o3: 20 | 34
	(     f74,      f78)	
		--------------------
		       f6c:   2b00          cmp    r3, #0
		       f6e:   d1fb          bne.n  f68 <app_error_save_and_stop+0x38>
		       f70:   b662          cpsie  i
		       f72:   b003          add    sp, #12
		->     f74:   f85d fb04     ldr.w  pc, [sp], #4
		       f78:   611a          str    r2, [r3, #16]
		       f7a:   691a          ldr    r2, [r3, #16]
		       f7c:   6892          ldr    r2, [r2, #8]
		       f7e:   615a          str    r2, [r3, #20]
		--------------------
	(    1e08,     1e1a)	
		--------------------
		      1dfe:   f8c3 5500     str.w  r5, [r3, #1280]  ; 0x500
		      1e02:   4824          ldr    r0, [pc, #144] ; (1e94 <I2S_IRQHandler+0x114>)
		      1e04:   6823          ldr    r3, [r4, #0]
		      1e06:   4629          mov    r1, r5
		->    1e08:   4798          blx    r3
		      1e0a:   6823          ldr    r3, [r4, #0]
		      1e0c:   4822          ldr    r0, [pc, #136] ; (1e98 <I2S_IRQHandler+0x118>)
		      1e0e:   4629          mov    r1, r5
		      1e10:   4798          blx    r3
		--------------------
	(    1e18,     1e1a)	
		--------------------
		      1e10:   4798          blx    r3
		      1e12:   2301          movs   r3, #1
		      1e14:   7123          strb   r3, [r4, #4]
		      1e16:   b004          add    sp, #16
		->    1e18:   bd70          pop    {r4, r5, r6, pc}
		      1e1a:   7963          ldrb   r3, [r4, #5]
		      1e1c:   f003 020f     and.w  r2, r3, #15
		      1e20:   2a0f          cmp    r2, #15
		      1e22:   d003          beq.n  1e2c <I2S_IRQHandler+0xac>
		--------------------
	(    1e2a,     1e2c)	
		--------------------
		      1e22:   d003          beq.n  1e2c <I2S_IRQHandler+0xac>
		      1e24:   07d8          lsls   r0, r3, #31
		      1e26:   d415          bmi.n  1e54 <I2S_IRQHandler+0xd4>
		      1e28:   0719          lsls   r1, r3, #28
		->    1e2a:   d513          bpl.n  1e54 <I2S_IRQHandler+0xd4>
		      1e2c:   7962          ldrb   r2, [r4, #5]
		      1e2e:   f022 020c     bic.w  r2, r2, #12
		      1e32:   f012 0620     ands.w r6, r2, #32
		      1e36:   4613          mov    r3, r2
		--------------------
	(    1e84,     1e86)	
		--------------------
		      1e7a:   e9c4 6602     strd   r6, r6, [r4, #8]
		      1e7e:   6823          ldr    r3, [r4, #0]
		      1e80:   2101          movs   r1, #1
		      1e82:   4628          mov    r0, r5
		->    1e84:   4798          blx    r3
		      1e86:   b004          add    sp, #16
		      1e88:   bd70          pop    {r4, r5, r6, pc}
		      1e8a:   bf00          nop
		      1e8c:   40025000  .word   0x40025000
		--------------------
	(    1e88,     1e8a)	
		--------------------
		      1e80:   2101          movs   r1, #1
		      1e82:   4628          mov    r0, r5
		      1e84:   4798          blx    r3
		      1e86:   b004          add    sp, #16
		->    1e88:   bd70          pop    {r4, r5, r6, pc}
		      1e8a:   bf00          nop
		      1e8c:   40025000  .word   0x40025000
		      1e90:   2000064c  .word   0x2000064c
		      1e94:   2000065c  .word   0x2000065c
		--------------------
	(    1ea0,     1ea2)	
		--------------------
		  
		  00001e9c <UARTE0_UART0_IRQHandler>:
		      1e9c:   4b01          ldr    r3, [pc, #4]   ; (1ea4 <UARTE0_UART0_IRQHandler+0x8>)
		      1e9e:   681b          ldr    r3, [r3, #0]
		->    1ea0:   4718          bx r3
		      1ea2:   bf00          nop
		      1ea4:   20000664  .word   0x20000664
		  
		  00001ea8 <nrfx_prs_acquire>:
		--------------------
	(    1ec0,     1ec8)	
		--------------------
		      1eb8:   4b09          ldr    r3, [pc, #36]  ; (1ee0 <nrfx_prs_acquire+0x38>)
		      1eba:   791c          ldrb   r4, [r3, #4]
		      1ebc:   b124          cbz    r4, 1ec8 <nrfx_prs_acquire+0x20>
		      1ebe:   2000          movs   r0, #0
		->    1ec0:   f7ff f870     bl fa4 <app_util_critical_region_exit>
		      1ec4:   2011          movs   r0, #17
		      1ec6:   bd38          pop    {r3, r4, r5, pc}
		      1ec8:   2201          movs   r2, #1
		      1eca:   4620          mov    r0, r4
		--------------------
	(    1ec6,     1e86)	
		--------------------
		      1ebc:   b124          cbz    r4, 1ec8 <nrfx_prs_acquire+0x20>
		      1ebe:   2000          movs   r0, #0
		      1ec0:   f7ff f870     bl fa4 <app_util_critical_region_exit>
		      1ec4:   2011          movs   r0, #17
		->    1ec6:   bd38          pop    {r3, r4, r5, pc}
		      1ec8:   2201          movs   r2, #1
		      1eca:   4620          mov    r0, r4
		      1ecc:   601d          str    r5, [r3, #0]
		      1ece:   711a          strb   r2, [r3, #4]
		--------------------
	(    1eda,     1e86)	
		--------------------
		      1ed0:   f7ff f868     bl fa4 <app_util_critical_region_exit>
		      1ed4:   4620          mov    r0, r4
		      1ed6:   bd38          pop    {r3, r4, r5, pc}
		      1ed8:   2000          movs   r0, #0
		->    1eda:   bd38          pop    {r3, r4, r5, pc}
		      1edc:   40002000  .word   0x40002000
		      1ee0:   20000664  .word   0x20000664
		  
		  00001ee4 <nrfx_prs_release>:
		--------------------
	(    1ee8,     1eea)	
		--------------------
		  
		  00001ee4 <nrfx_prs_release>:
		      1ee4:   4b03          ldr    r3, [pc, #12]  ; (1ef4 <nrfx_prs_release+0x10>)
		      1ee6:   4298          cmp    r0, r3
		->    1ee8:   d103          bne.n  1ef2 <nrfx_prs_release+0xe>
		      1eea:   4b03          ldr    r3, [pc, #12]  ; (1ef8 <nrfx_prs_release+0x14>)
		      1eec:   2200          movs   r2, #0
		      1eee:   601a          str    r2, [r3, #0]
		      1ef0:   711a          strb   r2, [r3, #4]
		--------------------
	(    1ee8,     1ef2)	
		--------------------
		  
		  00001ee4 <nrfx_prs_release>:
		      1ee4:   4b03          ldr    r3, [pc, #12]  ; (1ef4 <nrfx_prs_release+0x10>)
		      1ee6:   4298          cmp    r0, r3
		->    1ee8:   d103          bne.n  1ef2 <nrfx_prs_release+0xe>
		      1eea:   4b03          ldr    r3, [pc, #12]  ; (1ef8 <nrfx_prs_release+0x14>)
		      1eec:   2200          movs   r2, #0
		      1eee:   601a          str    r2, [r3, #0]
		      1ef0:   711a          strb   r2, [r3, #4]
		--------------------
	(    21f0,     21f4)	
		--------------------
		      21e4:   f886 3029     strb.w r3, [r6, #41]   ; 0x29
		      21e8:   6173          str    r3, [r6, #20]
		      21ea:   f886 202a     strb.w r2, [r6, #42]   ; 0x2a
		      21ee:   b002          add    sp, #8
		->    21f0:   e8bd 81f0     ldmia.w    sp!, {r4, r5, r6, r7, r8, pc}
		      21f4:   2011          movs   r0, #17
		      21f6:   b002          add    sp, #8
		      21f8:   e8bd 81f0     ldmia.w    sp!, {r4, r5, r6, r7, r8, pc}
		      21fc:   2008          movs   r0, #8
		--------------------
	(    21f8,     21fc)	
		--------------------
		      21ee:   b002          add    sp, #8
		      21f0:   e8bd 81f0     ldmia.w    sp!, {r4, r5, r6, r7, r8, pc}
		      21f4:   2011          movs   r0, #17
		      21f6:   b002          add    sp, #8
		->    21f8:   e8bd 81f0     ldmia.w    sp!, {r4, r5, r6, r7, r8, pc}
		      21fc:   2008          movs   r0, #8
		      21fe:   b002          add    sp, #8
		      2200:   e8bd 81f0     ldmia.w    sp!, {r4, r5, r6, r7, r8, pc}
		      2204:   4918          ldr    r1, [pc, #96]  ; (2268 <nrfx_uart_init+0x198>)
		--------------------
	(    26ec,     26f0)	
		--------------------
		      26e0:   f8c2 1500     str.w  r1, [r2, #1280]  ; 0x500
		      26e4:   e9c6 3306     strd   r3, r3, [r6, #24]
		      26e8:   6173          str    r3, [r6, #20]
		      26ea:   b007          add    sp, #28
		->    26ec:   e8bd 83f0     ldmia.w    sp!, {r4, r5, r6, r7, r8, r9, pc}
		      26f0:   2011          movs   r0, #17
		      26f2:   b007          add    sp, #28
		      26f4:   e8bd 83f0     ldmia.w    sp!, {r4, r5, r6, r7, r8, r9, pc}
		      26f8:   2008          movs   r0, #8
		--------------------
	(    308a,     308c)	
		--------------------
		      3082:   10a4          asrs   r4, r4, #2
		      3084:   2600          movs   r6, #0
		      3086:   42a6          cmp    r6, r4
		      3088:   d105          bne.n  3096 <__libc_init_array+0x2e>
		->    308a:   bd70          pop    {r4, r5, r6, pc}
		      308c:   f855 3b04     ldr.w  r3, [r5], #4
		      3090:   4798          blx    r3
		      3092:   3601          adds   r6, #1
		      3094:   e7ee          b.n    3074 <__libc_init_array+0xc>
		--------------------
	(    30da,     30dc)	
		--------------------
		  000030d8 <__retarget_lock_acquire_recursive>:
		      30d8:   4770          bx lr
		  
		  000030da <__retarget_lock_release_recursive>:
		->    30da:   4770          bx lr
		  
		  000030dc <memcpy>:
		      30dc:   440a          add    r2, r1
		      30de:   4291          cmp    r1, r2
		--------------------
	(    30f6,     30f8)	
		--------------------
		      30ea:   f811 4b01     ldrb.w r4, [r1], #1
		      30ee:   f803 4f01     strb.w r4, [r3, #1]!
		      30f2:   4291          cmp    r1, r2
		      30f4:   d1f9          bne.n  30ea <memcpy+0xe>
		->    30f6:   bd10          pop    {r4, pc}
		  
		  000030f8 <strlen>:
		      30f8:   4603          mov    r3, r0
		      30fa:   f813 2b01     ldrb.w r2, [r3], #1
		--------------------
	(    3106,     3108)	
		--------------------
		      30fe:   2a00          cmp    r2, #0
		      3100:   d1fb          bne.n  30fa <strlen+0x2>
		      3102:   1a18          subs   r0, r3, r0
		      3104:   3801          subs   r0, #1
		->    3106:   4770          bx lr
		  
		  00003108 <__register_exitproc>:
		      3108:   e92d 43f8     stmdb  sp!, {r3, r4, r5, r6, r7, r8, r9, lr}
		      310c:   f8df 80b0     ldr.w  r8, [pc, #176]   ; 31c0 <__register_exitproc+0xb8>
		--------------------
	(    3156,     316e)	
		--------------------
		      314c:   f8d4 0088     ldr.w  r0, [r4, #136]   ; 0x88
		      3150:   b968          cbnz   r0, 316e <__register_exitproc+0x66>
		      3152:   4b1a          ldr    r3, [pc, #104] ; (31bc <__register_exitproc+0xb4>)
		      3154:   2b00          cmp    r3, #0
		->    3156:   d0f0          beq.n  313a <__register_exitproc+0x32>
		      3158:   f44f 7084     mov.w  r0, #264 ; 0x108
		      315c:   f3af 8000     nop.w
		      3160:   2800          cmp    r0, #0
		      3162:   d0ea          beq.n  313a <__register_exitproc+0x32>
		--------------------

saadc-o0: 20 | 144
	(     5fc,      5fe)	
		--------------------
		       5f4:   4798          blx    r3
		       5f6:   bf00          nop
		       5f8:   3708          adds   r7, #8
		       5fa:   46bd          mov    sp, r7
		->     5fc:   bd80          pop    {r7, pc}
		  
		  000005fe <nrf_log_backend_id_set>:
		       5fe:   b480          push   {r7}
		       600:   b083          sub    sp, #12
		--------------------
	(    1474,     1070)	
		--------------------
		      146c:   af00          add    r7, sp, #0
		      146e:   60f8          str    r0, [r7, #12]
		      1470:   60b9          str    r1, [r7, #8]
		      1472:   607a          str    r2, [r7, #4]
		->    1474:   b672          cpsid  i
		      1476:   bf00          nop
		      1478:   f7ff fdfa     bl 1070 <nrf_log_panic>
		      147c:   f7ff fbd0     bl c20 <nrf_log_frontend_dequeue>
		      1480:   4603          mov    r3, r0
		--------------------
	(    17b4,     1534)	
		--------------------
		      17aa:   f7ff ff78     bl 169e <nrf_balloc_block2idx>
		      17ae:   4603          mov    r3, r0
		      17b0:   7023          strb   r3, [r4, #0]
		      17b2:   2000          movs   r0, #0
		->    17b4:   f7ff febe     bl 1534 <app_util_critical_region_exit>
		      17b8:   bf00          nop
		      17ba:   3714          adds   r7, #20
		      17bc:   46bd          mov    sp, r7
		      17be:   bd90          pop    {r4, r7, pc}
		--------------------
	(    2710,     29ae)	
		--------------------
		      2706:   4618          mov    r0, r3
		      2708:   370c          adds   r7, #12
		      270a:   46bd          mov    sp, r7
		      270c:   f85d 7b04     ldr.w  r7, [sp], #4
		->    2710:   4770          bx lr
		  
		  00002712 <nrf_saadc_event_clear>:
		      2712:   b480          push   {r7}
		      2714:   b085          sub    sp, #20
		--------------------
	(    3afe,     3b0a)	
		--------------------
		      3af6:   e008          b.n    3b0a <nrf52_errata_12+0x6e>
		      3af8:   2301          movs   r3, #1
		      3afa:   e006          b.n    3b0a <nrf52_errata_12+0x6e>
		      3afc:   2301          movs   r3, #1
		->    3afe:   e004          b.n    3b0a <nrf52_errata_12+0x6e>
		      3b00:   2301          movs   r3, #1
		      3b02:   e002          b.n    3b0a <nrf52_errata_12+0x6e>
		      3b04:   2301          movs   r3, #1
		      3b06:   e000          b.n    3b0a <nrf52_errata_12+0x6e>
		--------------------
	(    3b52,     3b6c)	
		--------------------
		      3b4a:   3b03          subs   r3, #3
		      3b4c:   2b03          cmp    r3, #3
		      3b4e:   d813          bhi.n  3b78 <nrf52_errata_16+0x50>
		      3b50:   a201          add    r2, pc, #4 ; (adr r2, 3b58 <nrf52_errata_16+0x30>)
		->    3b52:   f852 f023     ldr.w  pc, [r2, r3, lsl #2]
		      3b56:   bf00          nop
		      3b58:   00003b69  .word   0x00003b69
		      3b5c:   00003b6d  .word   0x00003b6d
		      3b60:   00003b71  .word   0x00003b71
		--------------------
	(    3bee,     3c02)	
		--------------------
		      3be0:   00003bf1  .word   0x00003bf1
		      3be4:   00003bf5  .word   0x00003bf5
		      3be8:   00003bf9  .word   0x00003bf9
		      3bec:   2301          movs   r3, #1
		->    3bee:   e008          b.n    3c02 <nrf52_errata_31+0x6e>
		      3bf0:   2301          movs   r3, #1
		      3bf2:   e006          b.n    3c02 <nrf52_errata_31+0x6e>
		      3bf4:   2301          movs   r3, #1
		      3bf6:   e004          b.n    3c02 <nrf52_errata_31+0x6e>
		--------------------
	(    3c66,     3c76)	
		--------------------
		      3c5c:   00003c6d  .word   0x00003c6d
		      3c60:   2301          movs   r3, #1
		      3c62:   e008          b.n    3c76 <nrf52_errata_32+0x56>
		      3c64:   2300          movs   r3, #0
		->    3c66:   e006          b.n    3c76 <nrf52_errata_32+0x56>
		      3c68:   2300          movs   r3, #0
		      3c6a:   e004          b.n    3c76 <nrf52_errata_32+0x56>
		      3c6c:   2300          movs   r3, #0
		      3c6e:   e002          b.n    3c76 <nrf52_errata_32+0x56>
		--------------------
	(    3cce,     3cec)	
		--------------------
		      3cc6:   3b03          subs   r3, #3
		      3cc8:   2b03          cmp    r3, #3
		      3cca:   d813          bhi.n  3cf4 <nrf52_errata_36+0x68>
		      3ccc:   a201          add    r2, pc, #4 ; (adr r2, 3cd4 <nrf52_errata_36+0x48>)
		->    3cce:   f852 f023     ldr.w  pc, [r2, r3, lsl #2]
		      3cd2:   bf00          nop
		      3cd4:   00003ce5  .word   0x00003ce5
		      3cd8:   00003ce9  .word   0x00003ce9
		      3cdc:   00003ced  .word   0x00003ced
		--------------------
	(    3ce6,     3cfa)	
		--------------------
		      3cd8:   00003ce9  .word   0x00003ce9
		      3cdc:   00003ced  .word   0x00003ced
		      3ce0:   00003cf1  .word   0x00003cf1
		      3ce4:   2301          movs   r3, #1
		->    3ce6:   e008          b.n    3cfa <nrf52_errata_36+0x6e>
		      3ce8:   2301          movs   r3, #1
		      3cea:   e006          b.n    3cfa <nrf52_errata_36+0x6e>
		      3cec:   2301          movs   r3, #1
		      3cee:   e004          b.n    3cfa <nrf52_errata_36+0x6e>
		--------------------
	(    3d42,     3d58)	
		--------------------
		      3d3a:   3b03          subs   r3, #3
		      3d3c:   2b03          cmp    r3, #3
		      3d3e:   d813          bhi.n  3d68 <nrf52_errata_37+0x50>
		      3d40:   a201          add    r2, pc, #4 ; (adr r2, 3d48 <nrf52_errata_37+0x30>)
		->    3d42:   f852 f023     ldr.w  pc, [r2, r3, lsl #2]
		      3d46:   bf00          nop
		      3d48:   00003d59  .word   0x00003d59
		      3d4c:   00003d5d  .word   0x00003d5d
		      3d50:   00003d61  .word   0x00003d61
		--------------------
	(    3d5e,     3d6e)	
		--------------------
		      3d54:   00003d65  .word   0x00003d65
		      3d58:   2301          movs   r3, #1
		      3d5a:   e008          b.n    3d6e <nrf52_errata_37+0x56>
		      3d5c:   2300          movs   r3, #0
		->    3d5e:   e006          b.n    3d6e <nrf52_errata_37+0x56>
		      3d60:   2300          movs   r3, #0
		      3d62:   e004          b.n    3d6e <nrf52_errata_37+0x56>
		      3d64:   2300          movs   r3, #0
		      3d66:   e002          b.n    3d6e <nrf52_errata_37+0x56>
		--------------------
	(    3dae,     3dcc)	
		--------------------
		      3da6:   3b03          subs   r3, #3
		      3da8:   2b03          cmp    r3, #3
		      3daa:   d813          bhi.n  3dd4 <nrf52_errata_57+0x50>
		      3dac:   a201          add    r2, pc, #4 ; (adr r2, 3db4 <nrf52_errata_57+0x30>)
		->    3dae:   f852 f023     ldr.w  pc, [r2, r3, lsl #2]
		      3db2:   bf00          nop
		      3db4:   00003dc5  .word   0x00003dc5
		      3db8:   00003dc9  .word   0x00003dc9
		      3dbc:   00003dcd  .word   0x00003dcd
		--------------------
	(    3e32,     3e48)	
		--------------------
		      3e2a:   3b03          subs   r3, #3
		      3e2c:   2b03          cmp    r3, #3
		      3e2e:   d813          bhi.n  3e58 <nrf52_errata_66+0x68>
		      3e30:   a201          add    r2, pc, #4 ; (adr r2, 3e38 <nrf52_errata_66+0x48>)
		->    3e32:   f852 f023     ldr.w  pc, [r2, r3, lsl #2]
		      3e36:   bf00          nop
		      3e38:   00003e49  .word   0x00003e49
		      3e3c:   00003e4d  .word   0x00003e4d
		      3e40:   00003e51  .word   0x00003e51
		--------------------
	(    3f4a,     3f60)	
		--------------------
		      3f42:   3b03          subs   r3, #3
		      3f44:   2b03          cmp    r3, #3
		      3f46:   d813          bhi.n  3f70 <nrf52_errata_136+0x68>
		      3f48:   a201          add    r2, pc, #4 ; (adr r2, 3f50 <nrf52_errata_136+0x48>)
		->    3f4a:   f852 f023     ldr.w  pc, [r2, r3, lsl #2]
		      3f4e:   bf00          nop
		      3f50:   00003f61  .word   0x00003f61
		      3f54:   00003f65  .word   0x00003f65
		      3f58:   00003f69  .word   0x00003f69
		--------------------
	(    3f66,     3f76)	
		--------------------
		      3f5c:   00003f6d  .word   0x00003f6d
		      3f60:   2301          movs   r3, #1
		      3f62:   e008          b.n    3f76 <nrf52_errata_136+0x6e>
		      3f64:   2301          movs   r3, #1
		->    3f66:   e006          b.n    3f76 <nrf52_errata_136+0x6e>
		      3f68:   2301          movs   r3, #1
		      3f6a:   e004          b.n    3f76 <nrf52_errata_136+0x6e>
		      3f6c:   2301          movs   r3, #1
		      3f6e:   e002          b.n    3f76 <nrf52_errata_136+0x6e>
		--------------------
	(    3fb6,     3fd4)	
		--------------------
		      3fae:   3b03          subs   r3, #3
		      3fb0:   2b03          cmp    r3, #3
		      3fb2:   d813          bhi.n  3fdc <nrf52_errata_182+0x48>
		      3fb4:   a201          add    r2, pc, #4 ; (adr r2, 3fbc <nrf52_errata_182+0x28>)
		->    3fb6:   f852 f023     ldr.w  pc, [r2, r3, lsl #2]
		      3fba:   bf00          nop
		      3fbc:   00003fcd  .word   0x00003fcd
		      3fc0:   00003fd1  .word   0x00003fd1
		      3fc4:   00003fd5  .word   0x00003fd5
		--------------------
	(    3fd2,     3fe2)	
		--------------------
		      3fc8:   00003fd9  .word   0x00003fd9
		      3fcc:   2300          movs   r3, #0
		      3fce:   e008          b.n    3fe2 <nrf52_errata_182+0x4e>
		      3fd0:   2300          movs   r3, #0
		->    3fd2:   e006          b.n    3fe2 <nrf52_errata_182+0x4e>
		      3fd4:   2300          movs   r3, #0
		      3fd6:   e004          b.n    3fe2 <nrf52_errata_182+0x4e>
		      3fd8:   2301          movs   r3, #1
		      3fda:   e002          b.n    3fe2 <nrf52_errata_182+0x4e>
		--------------------
	(    43de,     20fe)	
		--------------------
		      43d6:   2a00          cmp    r2, #0
		      43d8:   d1fb          bne.n  43d2 <strlen+0x2>
		      43da:   1a18          subs   r0, r3, r0
		      43dc:   3801          subs   r0, #1
		->    43de:   4770          bx lr
		  
		  000043e0 <__register_exitproc>:
		      43e0:   e92d 43f8     stmdb  sp!, {r3, r4, r5, r6, r7, r8, r9, lr}
		      43e4:   f8df 80b0     ldr.w  r8, [pc, #176]   ; 4498 <__register_exitproc+0xb8>
		--------------------
	(    441e,     4422)	
		--------------------
		      4410:   dd07          ble.n  4422 <__register_exitproc+0x42>
		      4412:   f8d8 0000     ldr.w  r0, [r8]
		      4416:   f7ff ffc4     bl 43a2 <__retarget_lock_release_recursive>
		      441a:   f04f 30ff     mov.w  r0, #4294967295  ; 0xffffffff
		->    441e:   e8bd 83f8     ldmia.w    sp!, {r3, r4, r5, r6, r7, r8, r9, pc}
		      4422:   b32e          cbz    r6, 4470 <__register_exitproc+0x90>
		      4424:   f8d4 0088     ldr.w  r0, [r4, #136]   ; 0x88
		      4428:   b968          cbnz   r0, 4446 <__register_exitproc+0x66>
		      442a:   4b1a          ldr    r3, [pc, #104] ; (4494 <__register_exitproc+0xb4>)
		--------------------

saadc-o1: 20 | 75
	(     546,      86a)	
		--------------------
		       53e:   9a03          ldr    r2, [sp, #12]
		       540:   609a          str    r2, [r3, #8]
		       542:   4620          mov    r0, r4
		       544:   b004          add    sp, #16
		->     546:   bd10          pop    {r4, pc}
		       548:   20000148  .word   0x20000148
		       54c:   2000055c  .word   0x2000055c
		  
		  00000550 <nrf_log_init>:
		--------------------
	(     564,      566)	
		--------------------
		       55a:   f000 ff1d     bl 1398 <nrf_memobj_pool_init>
		       55e:   4604          mov    r4, r0
		       560:   b108          cbz    r0, 566 <nrf_log_init+0x16>
		       562:   4620          mov    r0, r4
		->     564:   bd10          pop    {r4, pc}
		       566:   4804          ldr    r0, [pc, #16]  ; (578 <nrf_log_init+0x28>)
		       568:   f000 ffc4     bl 14f4 <nrf_ringbuf_init>
		       56c:   e7f9          b.n    562 <nrf_log_init+0x12>
		       56e:   bf00          nop
		--------------------
	(     8f8,      682)	
		--------------------
		       8ee:   b11b          cbz    r3, 8f8 <nrf_log_frontend_std_0+0xc0>
		       8f0:   f7ff fe84     bl 5fc <nrf_log_frontend_dequeue>
		       8f4:   2800          cmp    r0, #0
		       8f6:   d1fb          bne.n  8f0 <nrf_log_frontend_std_0+0xb8>
		->     8f8:   e8bd 83f8     ldmia.w    sp!, {r3, r4, r5, r6, r7, r8, r9, pc}
		       8fc:   20000148  .word   0x20000148
		  
		  00000900 <nrf_log_frontend_std_1>:
		       900:   e92d 47f0     stmdb  sp!, {r4, r5, r6, r7, r8, r9, sl, lr}
		--------------------
	(     9ce,     1c9a)	
		--------------------
		       9c4:   b11b          cbz    r3, 9ce <nrf_log_frontend_std_1+0xce>
		       9c6:   f7ff fe19     bl 5fc <nrf_log_frontend_dequeue>
		       9ca:   2800          cmp    r0, #0
		       9cc:   d1fb          bne.n  9c6 <nrf_log_frontend_std_1+0xc6>
		->     9ce:   e8bd 87f0     ldmia.w    sp!, {r4, r5, r6, r7, r8, r9, sl, pc}
		       9d2:   bf00          nop
		       9d4:   20000148  .word   0x20000148
		  
		  000009d8 <nrf_log_backend_add>:
		--------------------
	(     d6a,      756)	
		--------------------
		  
		  00000d64 <app_util_critical_region_enter>:
		       d64:   b508          push   {r3, lr}
		       d66:   f7ff ffeb     bl d40 <app_util_disable_irq>
		->     d6a:   bd08          pop    {r3, pc}
		  
		  00000d6c <app_util_critical_region_exit>:
		       d6c:   b508          push   {r3, lr}
		       d6e:   f7ff ffef     bl d50 <app_util_enable_irq>
		--------------------
	(     d6a,      e36)	
		--------------------
		  
		  00000d64 <app_util_critical_region_enter>:
		       d64:   b508          push   {r3, lr}
		       d66:   f7ff ffeb     bl d40 <app_util_disable_irq>
		->     d6a:   bd08          pop    {r3, pc}
		  
		  00000d6c <app_util_critical_region_exit>:
		       d6c:   b508          push   {r3, lr}
		       d6e:   f7ff ffef     bl d50 <app_util_enable_irq>
		--------------------
	(     d6a,      e7c)	
		--------------------
		  
		  00000d64 <app_util_critical_region_enter>:
		       d64:   b508          push   {r3, lr}
		       d66:   f7ff ffeb     bl d40 <app_util_disable_irq>
		->     d6a:   bd08          pop    {r3, pc}
		  
		  00000d6c <app_util_critical_region_exit>:
		       d6c:   b508          push   {r3, lr}
		       d6e:   f7ff ffef     bl d50 <app_util_enable_irq>
		--------------------
	(     d72,      962)	
		--------------------
		  
		  00000d6c <app_util_critical_region_exit>:
		       d6c:   b508          push   {r3, lr}
		       d6e:   f7ff ffef     bl d50 <app_util_enable_irq>
		->     d72:   bd08          pop    {r3, pc}
		  
		  00000d74 <nrf_atomic_u32_fetch_store>:
		       d74:   4603          mov    r3, r0
		       d76:   e853 0f00     ldrex  r0, [r3]
		--------------------
	(     d72,      e68)	
		--------------------
		  
		  00000d6c <app_util_critical_region_exit>:
		       d6c:   b508          push   {r3, lr}
		       d6e:   f7ff ffef     bl d50 <app_util_enable_irq>
		->     d72:   bd08          pop    {r3, pc}
		  
		  00000d74 <nrf_atomic_u32_fetch_store>:
		       d74:   4603          mov    r3, r0
		       d76:   e853 0f00     ldrex  r0, [r3]
		--------------------
	(     dc8,      872)	
		--------------------
		       dba:   eb02 0001     add.w  r0, r2, r1
		       dbe:   e843 0c00     strex  ip, r0, [r3]
		       dc2:   f09c 0f00     teq    ip, #0
		       dc6:   d1f6          bne.n  db6 <nrf_atomic_u32_add+0x2>
		->     dc8:   4770          bx lr
		  
		  00000dca <nrf_atomic_u32_sub>:
		       dca:   4603          mov    r3, r0
		       dcc:   e853 2f00     ldrex  r2, [r3]
		--------------------
	(     e6a,     1418)	
		--------------------
		       e60:   7113          strb   r3, [r2, #4]
		       e62:   2000          movs   r0, #0
		       e64:   f7ff ff82     bl d6c <app_util_critical_region_exit>
		       e68:   4628          mov    r0, r5
		->     e6a:   bd38          pop    {r3, r4, r5, pc}
		       e6c:   2500          movs   r5, #0
		       e6e:   e7f8          b.n    e62 <nrf_balloc_alloc+0x36>
		  
		  00000e70 <nrf_balloc_free>:
		--------------------
	(    1478,      720)	
		--------------------
		      146e:   9200          str    r2, [sp, #0]
		      1470:   aa03          add    r2, sp, #12
		      1472:   f7ff ff4f     bl 1314 <memobj_op>
		      1476:   b005          add    sp, #20
		->    1478:   f85d fb04     ldr.w  pc, [sp], #4
		  
		  0000147c <nrf_memobj_read>:
		      147c:   b500          push   {lr}
		      147e:   b085          sub    sp, #20
		--------------------
	(    1478,      780)	
		--------------------
		      146e:   9200          str    r2, [sp, #0]
		      1470:   aa03          add    r2, sp, #12
		      1472:   f7ff ff4f     bl 1314 <memobj_op>
		      1476:   b005          add    sp, #20
		->    1478:   f85d fb04     ldr.w  pc, [sp], #4
		  
		  0000147c <nrf_memobj_read>:
		      147c:   b500          push   {lr}
		      147e:   b085          sub    sp, #20
		--------------------
	(    15b8,     15d8)	
		--------------------
		      15b0:   b1a1          cbz    r1, 15dc <nrfx_ppi_channel_assign+0x3c>
		      15b2:   490c          ldr    r1, [pc, #48]  ; (15e4 <nrfx_ppi_channel_assign+0x44>)
		      15b4:   6809          ldr    r1, [r1, #0]
		      15b6:   420b          tst    r3, r1
		->    15b8:   d012          beq.n  15e0 <nrfx_ppi_channel_assign+0x40>
		      15ba:   00c0          lsls   r0, r0, #3
		      15bc:   f100 4080     add.w  r0, r0, #1073741824  ; 0x40000000
		      15c0:   f500 30f8     add.w  r0, r0, #126976  ; 0x1f000
		      15c4:   f8c0 4510     str.w  r4, [r0, #1296]  ; 0x510
		--------------------
	(    1a12,     1a14)	
		--------------------
		      1a08:   4b18          ldr    r3, [pc, #96]  ; (1a6c <nrfx_saadc_buffer_convert+0xc8>)
		      1a0a:   2202          movs   r2, #2
		      1a0c:   f8c3 2304     str.w  r2, [r3, #772]   ; 0x304
		      1a10:   2011          movs   r0, #17
		->    1a12:   e7ef          b.n    19f4 <nrfx_saadc_buffer_convert+0x50>
		      1a14:   4b16          ldr    r3, [pc, #88]  ; (1a70 <nrfx_saadc_buffer_convert+0xcc>)
		      1a16:   60d8          str    r0, [r3, #12]
		      1a18:   8319          strh   r1, [r3, #24]
		      1a1a:   f893 302e     ldrb.w r3, [r3, #46]   ; 0x2e
		--------------------
	(    238e,     2390)	
		--------------------
		      2386:   10a4          asrs   r4, r4, #2
		      2388:   2600          movs   r6, #0
		      238a:   42a6          cmp    r6, r4
		      238c:   d105          bne.n  239a <__libc_init_array+0x2e>
		->    238e:   bd70          pop    {r4, r5, r6, pc}
		      2390:   f855 3b04     ldr.w  r3, [r5], #4
		      2394:   4798          blx    r3
		      2396:   3601          adds   r6, #1
		      2398:   e7ee          b.n    2378 <__libc_init_array+0xc>
		--------------------
	(    23fa,     1392)	
		--------------------
		      23f0:   440a          add    r2, r1
		      23f2:   4291          cmp    r1, r2
		      23f4:   f100 33ff     add.w  r3, r0, #4294967295  ; 0xffffffff
		      23f8:   d100          bne.n  23fc <memcpy+0xc>
		->    23fa:   4770          bx lr
		      23fc:   b510          push   {r4, lr}
		      23fe:   f811 4b01     ldrb.w r4, [r1], #1
		      2402:   f803 4f01     strb.w r4, [r3, #1]!
		      2406:   4291          cmp    r1, r2
		--------------------
	(    23fa,     23fc)	
		--------------------
		      23f0:   440a          add    r2, r1
		      23f2:   4291          cmp    r1, r2
		      23f4:   f100 33ff     add.w  r3, r0, #4294967295  ; 0xffffffff
		      23f8:   d100          bne.n  23fc <memcpy+0xc>
		->    23fa:   4770          bx lr
		      23fc:   b510          push   {r4, lr}
		      23fe:   f811 4b01     ldrb.w r4, [r1], #1
		      2402:   f803 4f01     strb.w r4, [r3, #1]!
		      2406:   4291          cmp    r1, r2
		--------------------
	(    245a,     245e)	
		--------------------
		      244c:   dd07          ble.n  245e <__register_exitproc+0x42>
		      244e:   f8d8 0000     ldr.w  r0, [r8]
		      2452:   f7ff ffc4     bl 23de <__retarget_lock_release_recursive>
		      2456:   f04f 30ff     mov.w  r0, #4294967295  ; 0xffffffff
		->    245a:   e8bd 83f8     ldmia.w    sp!, {r3, r4, r5, r6, r7, r8, r9, pc}
		      245e:   b32e          cbz    r6, 24ac <__register_exitproc+0x90>
		      2460:   f8d4 0088     ldr.w  r0, [r4, #136]   ; 0x88
		      2464:   b968          cbnz   r0, 2482 <__register_exitproc+0x66>
		      2466:   4b1a          ldr    r3, [pc, #104] ; (24d0 <__register_exitproc+0xb4>)
		--------------------
	(    246a,     2482)	
		--------------------
		      2460:   f8d4 0088     ldr.w  r0, [r4, #136]   ; 0x88
		      2464:   b968          cbnz   r0, 2482 <__register_exitproc+0x66>
		      2466:   4b1a          ldr    r3, [pc, #104] ; (24d0 <__register_exitproc+0xb4>)
		      2468:   2b00          cmp    r3, #0
		->    246a:   d0f0          beq.n  244e <__register_exitproc+0x32>
		      246c:   f44f 7084     mov.w  r0, #264 ; 0x108
		      2470:   f3af 8000     nop.w
		      2474:   2800          cmp    r0, #0
		      2476:   d0ea          beq.n  244e <__register_exitproc+0x32>
		--------------------

saadc-o2: 20 | 110
	(     71a,      722)	
		--------------------
		       712:   1ac0          subs   r0, r0, r3
		       714:   bf18          it ne
		       716:   2001          movne  r0, #1
		       718:   b005          add    sp, #20
		->     71a:   e8bd 83f0     ldmia.w    sp!, {r4, r5, r6, r7, r8, r9, pc}
		       71e:   f7ff ff85     bl 62c <nrf_log_frontend_dequeue>
		       722:   2800          cmp    r0, #0
		       724:   d0f3          beq.n  70e <nrf_log_frontend_dequeue+0xe2>
		       726:   f7ff ff81     bl 62c <nrf_log_frontend_dequeue>
		--------------------
	(     740,      998)	
		--------------------
		       738:   441d          add    r5, r3
		       73a:   e79a          b.n    672 <nrf_log_frontend_dequeue+0x46>
		       73c:   60a6          str    r6, [r4, #8]
		       73e:   b005          add    sp, #20
		->     740:   e8bd 83f0     ldmia.w    sp!, {r4, r5, r6, r7, r8, r9, pc}
		       744:   2000          movs   r0, #0
		       746:   b005          add    sp, #20
		       748:   e8bd 83f0     ldmia.w    sp!, {r4, r5, r6, r7, r8, r9, pc}
		       74c:   f8bd 3006     ldrh.w r3, [sp, #6]
		--------------------
	(     748,      74c)	
		--------------------
		       73e:   b005          add    sp, #20
		       740:   e8bd 83f0     ldmia.w    sp!, {r4, r5, r6, r7, r8, r9, pc}
		       744:   2000          movs   r0, #0
		       746:   b005          add    sp, #20
		->     748:   e8bd 83f0     ldmia.w    sp!, {r4, r5, r6, r7, r8, r9, pc}
		       74c:   f8bd 3006     ldrh.w r3, [sp, #6]
		       750:   4857          ldr    r0, [pc, #348] ; (8b0 <nrf_log_frontend_dequeue+0x284>)
		       752:   f3c3 1889     ubfx   r8, r3, #6, #10
		       756:   4645          mov    r5, r8
		--------------------
	(     956,      984)	
		--------------------
		       94c:   b1d0          cbz    r0, 984 <nrf_log_frontend_std_0+0x4c>
		       94e:   9f01          ldr    r7, [sp, #4]
		       950:   2100          movs   r1, #0
		       952:   f205 401c     addw   r0, r5, #1052 ; 0x41c
		->     956:   f000 f9fb     bl d50 <nrf_atomic_u32_fetch_store>
		       95a:   f380 0310     usat   r3, #16, r0
		       95e:   041b          lsls   r3, r3, #16
		       960:   ea43 4314     orr.w  r3, r3, r4, lsr #16
		       964:   1c7a          adds   r2, r7, #1
		--------------------
	(     98a,      98c)	
		--------------------
		       980:   f845 4027     str.w  r4, [r5, r7, lsl #2]
		       984:   782b          ldrb   r3, [r5, #0]
		       986:   b90b          cbnz   r3, 98c <nrf_log_frontend_std_0+0x54>
		       988:   b003          add    sp, #12
		->     98a:   bdf0          pop    {r4, r5, r6, r7, pc}
		       98c:   f7ff fe4e     bl 62c <nrf_log_frontend_dequeue>
		       990:   2800          cmp    r0, #0
		       992:   d0f9          beq.n  988 <nrf_log_frontend_std_0+0x50>
		       994:   f7ff fe4a     bl 62c <nrf_log_frontend_dequeue>
		--------------------
	(     cc2,      a04)	
		--------------------
		       cbe:   bf00          nop
		  
		  00000cc0 <app_error_fault_handler>:
		       cc0:   b510          push   {r4, lr}
		->     cc2:   b672          cpsid  i
		       cc4:   f7ff fe9e     bl a04 <nrf_log_panic>
		       cc8:   f7ff fcb0     bl 62c <nrf_log_frontend_dequeue>
		       ccc:   2800          cmp    r0, #0
		       cce:   d1fb          bne.n  cc8 <app_error_fault_handler+0x8>
		--------------------
	(     d48,      86a)	
		--------------------
		       d40:   3b01          subs   r3, #1
		       d42:   6013          str    r3, [r2, #0]
		       d44:   b903          cbnz   r3, d48 <app_util_critical_region_exit+0xc>
		       d46:   b662          cpsie  i
		->     d48:   4770          bx lr
		       d4a:   bf00          nop
		       d4c:   20000600  .word   0x20000600
		  
		  00000d50 <nrf_atomic_u32_fetch_store>:
		--------------------
	(     d48,      e48)	
		--------------------
		       d40:   3b01          subs   r3, #1
		       d42:   6013          str    r3, [r2, #0]
		       d44:   b903          cbnz   r3, d48 <app_util_critical_region_exit+0xc>
		       d46:   b662          cpsie  i
		->     d48:   4770          bx lr
		       d4a:   bf00          nop
		       d4c:   20000600  .word   0x20000600
		  
		  00000d50 <nrf_atomic_u32_fetch_store>:
		--------------------
	(    161c,      86a)	
		--------------------
		      1610:   3004          adds   r0, #4
		      1612:   f7ff fbb3     bl d7c <nrf_atomic_u32_sub>
		      1616:   f010 03ff     ands.w r3, r0, #255    ; 0xff
		      161a:   d001          beq.n  1620 <nrf_memobj_put+0x18>
		->    161c:   e8bd 81f0     ldmia.w    sp!, {r4, r5, r6, r7, r8, pc}
		      1620:   7967          ldrb   r7, [r4, #5]
		      1622:   1e79          subs   r1, r7, #1
		      1624:   d016          beq.n  1654 <nrf_memobj_put+0x4c>
		      1626:   4622          mov    r2, r4
		--------------------
	(    1674,      784)	
		--------------------
		      166a:   aa03          add    r2, sp, #12
		      166c:   9403          str    r4, [sp, #12]
		      166e:   f7ff ff39     bl 14e4 <memobj_op>
		      1672:   b005          add    sp, #20
		->    1674:   bd30          pop    {r4, r5, pc}
		      1676:   bf00          nop
		  
		  00001678 <nrf_memobj_read>:
		      1678:   b530          push   {r4, r5, lr}
		--------------------
	(    172a,     172c)	
		--------------------
		      1722:   7818          ldrb   r0, [r3, #0]
		      1724:   b910          cbnz   r0, 172c <nrf_drv_ppi_init+0xc>
		      1726:   2201          movs   r2, #1
		      1728:   701a          strb   r2, [r3, #0]
		->    172a:   4770          bx lr
		      172c:   2085          movs   r0, #133  ; 0x85
		      172e:   4770          bx lr
		      1730:   20000614  .word   0x20000614
		  
		--------------------
	(    1be4,     1fa2)	
		--------------------
		      1bda:   f8c2 3630     str.w  r3, [r2, #1584]  ; 0x630
		      1bde:   4630          mov    r0, r6
		      1be0:   b003          add    sp, #12
		      1be2:   bc70          pop    {r4, r5, r6}
		->    1be4:   4770          bx lr
		      1be6:   68dc          ldr    r4, [r3, #12]
		      1be8:   b134          cbz    r4, 1bf8 <nrfx_saadc_buffer_convert+0x78>
		      1bea:   2302          movs   r3, #2
		      1bec:   2011          movs   r0, #17
		--------------------
	(    1bf6,     1bf8)	
		--------------------
		      1bec:   2011          movs   r0, #17
		      1bee:   f8c2 3304     str.w  r3, [r2, #772]   ; 0x304
		      1bf2:   b003          add    sp, #12
		      1bf4:   bc70          pop    {r4, r5, r6}
		->    1bf6:   4770          bx lr
		      1bf8:   f893 402e     ldrb.w r4, [r3, #46]   ; 0x2e
		      1bfc:   60d8          str    r0, [r3, #12]
		      1bfe:   8319          strh   r1, [r3, #24]
		      1c00:   b13c          cbz    r4, 1c12 <nrfx_saadc_buffer_convert+0x92>
		--------------------
	(    1bf6,     1fa2)	
		--------------------
		      1bec:   2011          movs   r0, #17
		      1bee:   f8c2 3304     str.w  r3, [r2, #772]   ; 0x304
		      1bf2:   b003          add    sp, #12
		      1bf4:   bc70          pop    {r4, r5, r6}
		->    1bf6:   4770          bx lr
		      1bf8:   f893 402e     ldrb.w r4, [r3, #46]   ; 0x2e
		      1bfc:   60d8          str    r0, [r3, #12]
		      1bfe:   8319          strh   r1, [r3, #24]
		      1c00:   b13c          cbz    r4, 1c12 <nrfx_saadc_buffer_convert+0x92>
		--------------------
	(    1c10,     1e3c)	
		--------------------
		      1c06:   2000          movs   r0, #0
		      1c08:   f8c3 2304     str.w  r2, [r3, #772]   ; 0x304
		      1c0c:   b003          add    sp, #12
		      1c0e:   bc70          pop    {r4, r5, r6}
		->    1c10:   4770          bx lr
		      1c12:   f8d2 3100     ldr.w  r3, [r2, #256]   ; 0x100
		      1c16:   2b00          cmp    r3, #0
		      1c18:   d0fb          beq.n  1c12 <nrfx_saadc_buffer_convert+0x92>
		      1c1a:   2300          movs   r3, #0
		--------------------
	(    1ef2,     1efa)	
		--------------------
		      1ee8:   7818          ldrb   r0, [r3, #0]
		      1eea:   f7ff fc57     bl 179c <nrfx_ppi_channel_assign>
		      1eee:   b920          cbnz   r0, 1efa <saadc_sampling_event_init+0x66>
		      1ef0:   b006          add    sp, #24
		->    1ef2:   bd10          pop    {r4, pc}
		      1ef4:   f7fe fed4     bl ca0 <app_error_handler_bare>
		      1ef8:   e7d1          b.n    1e9e <saadc_sampling_event_init+0xa>
		      1efa:   f7fe fed1     bl ca0 <app_error_handler_bare>
		      1efe:   b006          add    sp, #24
		--------------------
	(    1f82,     1f86)	
		--------------------
		      1f78:   2105          movs   r1, #5
		      1f7a:   f7ff fe01     bl 1b80 <nrfx_saadc_buffer_convert>
		      1f7e:   b9d0          cbnz   r0, 1fb6 <saadc_init+0x6e>
		      1f80:   b005          add    sp, #20
		->    1f82:   f85d fb04     ldr.w  pc, [sp], #4
		      1f86:   f7fe fe8b     bl ca0 <app_error_handler_bare>
		      1f8a:   a901          add    r1, sp, #4
		      1f8c:   2000          movs   r0, #0
		      1f8e:   f7ff fd6f     bl 1a70 <nrfx_saadc_channel_init>
		--------------------
	(    25c2,     25c4)	
		--------------------
		      25ba:   10a4          asrs   r4, r4, #2
		      25bc:   2600          movs   r6, #0
		      25be:   42a6          cmp    r6, r4
		      25c0:   d105          bne.n  25ce <__libc_init_array+0x2e>
		->    25c2:   bd70          pop    {r4, r5, r6, pc}
		      25c4:   f855 3b04     ldr.w  r3, [r5], #4
		      25c8:   4798          blx    r3
		      25ca:   3601          adds   r6, #1
		      25cc:   e7ee          b.n    25ac <__libc_init_array+0xc>
		--------------------
	(    2612,     2614)	
		--------------------
		  00002610 <__retarget_lock_acquire_recursive>:
		      2610:   4770          bx lr
		  
		  00002612 <__retarget_lock_release_recursive>:
		->    2612:   4770          bx lr
		  
		  00002614 <strcpy>:
		      2614:   4603          mov    r3, r0
		      2616:   f811 2b01     ldrb.w r2, [r1], #1
		--------------------
	(    262e,     2630)	
		--------------------
		      2624:   440a          add    r2, r1
		      2626:   4291          cmp    r1, r2
		      2628:   f100 33ff     add.w  r3, r0, #4294967295  ; 0xffffffff
		      262c:   d100          bne.n  2630 <memcpy+0xc>
		->    262e:   4770          bx lr
		      2630:   b510          push   {r4, lr}
		      2632:   f811 4b01     ldrb.w r4, [r1], #1
		      2636:   f803 4f01     strb.w r4, [r3, #1]!
		      263a:   4291          cmp    r1, r2
		--------------------

saadc-o3: 20 | 101
	(     4ee,      842)	
		--------------------
		       4e6:   b100          cbz    r0, 4ea <log_skip+0x86>
		       4e8:   60ac          str    r4, [r5, #8]
		       4ea:   4630          mov    r0, r6
		       4ec:   b004          add    sp, #16
		->     4ee:   bd70          pop    {r4, r5, r6, pc}
		       4f0:   2600          movs   r6, #0
		       4f2:   e7f5          b.n    4e0 <log_skip+0x7c>
		       4f4:   8843          ldrh   r3, [r0, #2]
		       4f6:   eb06 1393     add.w  r3, r6, r3, lsr #6
		--------------------
	(     620,      62a)	
		--------------------
		       616:   1cd3          adds   r3, r2, #3
		       618:   eb04 0183     add.w  r1, r4, r3, lsl #2
		       61c:   b928          cbnz   r0, 62a <nrf_log_frontend_dequeue+0x5e>
		       61e:   42ae          cmp    r6, r5
		->     620:   d939          bls.n  696 <nrf_log_frontend_dequeue+0xca>
		       622:   f814 3023     ldrb.w r3, [r4, r3, lsl #2]
		       626:   075b          lsls   r3, r3, #29
		       628:   d4e7          bmi.n  5fa <nrf_log_frontend_dequeue+0x2e>
		       62a:   eb04 0282     add.w  r2, r4, r2, lsl #2
		--------------------
	(     69a,      8b2)	
		--------------------
		       692:   441d          add    r5, r3
		       694:   e7bc          b.n    610 <nrf_log_frontend_dequeue+0x44>
		       696:   60a6          str    r6, [r4, #8]
		       698:   b005          add    sp, #20
		->     69a:   e8bd 83f0     ldmia.w    sp!, {r4, r5, r6, r7, r8, r9, pc}
		       69e:   2000          movs   r0, #0
		       6a0:   b005          add    sp, #20
		       6a2:   e8bd 83f0     ldmia.w    sp!, {r4, r5, r6, r7, r8, r9, pc}
		       6a6:   f8bd 3006     ldrh.w r3, [sp, #6]
		--------------------
	(     6a2,      8aa)	
		--------------------
		       698:   b005          add    sp, #20
		       69a:   e8bd 83f0     ldmia.w    sp!, {r4, r5, r6, r7, r8, r9, pc}
		       69e:   2000          movs   r0, #0
		       6a0:   b005          add    sp, #20
		->     6a2:   e8bd 83f0     ldmia.w    sp!, {r4, r5, r6, r7, r8, r9, pc}
		       6a6:   f8bd 3006     ldrh.w r3, [sp, #6]
		       6aa:   4858          ldr    r0, [pc, #352] ; (80c <nrf_log_frontend_dequeue+0x240>)
		       6ac:   f3c3 1889     ubfx   r8, r3, #6, #10
		       6b0:   4645          mov    r5, r8
		--------------------
	(     6a2,      8b2)	
		--------------------
		       698:   b005          add    sp, #20
		       69a:   e8bd 83f0     ldmia.w    sp!, {r4, r5, r6, r7, r8, r9, pc}
		       69e:   2000          movs   r0, #0
		       6a0:   b005          add    sp, #20
		->     6a2:   e8bd 83f0     ldmia.w    sp!, {r4, r5, r6, r7, r8, r9, pc}
		       6a6:   f8bd 3006     ldrh.w r3, [sp, #6]
		       6aa:   4858          ldr    r0, [pc, #352] ; (80c <nrf_log_frontend_dequeue+0x240>)
		       6ac:   f3c3 1889     ubfx   r8, r3, #6, #10
		       6b0:   4645          mov    r5, r8
		--------------------
	(     6a2,      cb0)	
		--------------------
		       698:   b005          add    sp, #20
		       69a:   e8bd 83f0     ldmia.w    sp!, {r4, r5, r6, r7, r8, r9, pc}
		       69e:   2000          movs   r0, #0
		       6a0:   b005          add    sp, #20
		->     6a2:   e8bd 83f0     ldmia.w    sp!, {r4, r5, r6, r7, r8, r9, pc}
		       6a6:   f8bd 3006     ldrh.w r3, [sp, #6]
		       6aa:   4858          ldr    r0, [pc, #352] ; (80c <nrf_log_frontend_dequeue+0x240>)
		       6ac:   f3c3 1889     ubfx   r8, r3, #6, #10
		       6b0:   4645          mov    r5, r8
		--------------------
	(    1608,      7e2)	
		--------------------
		      15fc:   3004          adds   r0, #4
		      15fe:   f7ff fbaf     bl d60 <nrf_atomic_u32_sub>
		      1602:   f010 03ff     ands.w r3, r0, #255    ; 0xff
		      1606:   d001          beq.n  160c <nrf_memobj_put+0x18>
		->    1608:   e8bd 81f0     ldmia.w    sp!, {r4, r5, r6, r7, r8, pc}
		      160c:   7967          ldrb   r7, [r4, #5]
		      160e:   1e79          subs   r1, r7, #1
		      1610:   d016          beq.n  1640 <nrf_memobj_put+0x4c>
		      1612:   4622          mov    r2, r4
		--------------------
	(    17b6,     17b8)	
		--------------------
		      17ae:   7818          ldrb   r0, [r3, #0]
		      17b0:   b910          cbnz   r0, 17b8 <nrf_drv_ppi_init+0xc>
		      17b2:   2201          movs   r2, #1
		      17b4:   701a          strb   r2, [r3, #0]
		->    17b6:   4770          bx lr
		      17b8:   2085          movs   r0, #133  ; 0x85
		      17ba:   4770          bx lr
		      17bc:   20000614  .word   0x20000614
		  
		--------------------
	(    1942,     1946)	
		--------------------
		      193a:   9305          str    r3, [sp, #20]
		      193c:   9b05          ldr    r3, [sp, #20]
		      193e:   743a          strb   r2, [r7, #16]
		      1940:   b008          add    sp, #32
		->    1942:   e8bd 81f0     ldmia.w    sp!, {r4, r5, r6, r7, r8, pc}
		      1946:   f897 302f     ldrb.w r3, [r7, #47]   ; 0x2f
		      194a:   2b00          cmp    r3, #0
		      194c:   d14e          bne.n  19ec <SAADC_IRQHandler+0x144>
		      194e:   4b3f          ldr    r3, [pc, #252] ; (1a4c <SAADC_IRQHandler+0x1a4>)
		--------------------
	(    1c5a,     203a)	
		--------------------
		      1c52:   6015          str    r5, [r2, #0]
		      1c54:   4620          mov    r0, r4
		      1c56:   b003          add    sp, #12
		      1c58:   bc70          pop    {r4, r5, r6}
		->    1c5a:   4770          bx lr
		      1c5c:   8359          strh   r1, [r3, #26]
		      1c5e:   f893 302d     ldrb.w r3, [r3, #45]   ; 0x2d
		      1c62:   f8c2 3630     str.w  r3, [r2, #1584]  ; 0x630
		      1c66:   4630          mov    r0, r6
		--------------------
	(    1c7e,     1ffc)	
		--------------------
		      1c74:   2011          movs   r0, #17
		      1c76:   f8c2 3304     str.w  r3, [r2, #772]   ; 0x304
		      1c7a:   b003          add    sp, #12
		      1c7c:   bc70          pop    {r4, r5, r6}
		->    1c7e:   4770          bx lr
		      1c80:   f893 402e     ldrb.w r4, [r3, #46]   ; 0x2e
		      1c84:   60d8          str    r0, [r3, #12]
		      1c86:   8319          strh   r1, [r3, #24]
		      1c88:   b13c          cbz    r4, 1c9a <nrfx_saadc_buffer_convert+0x92>
		--------------------
	(    1c7e,     2006)	
		--------------------
		      1c74:   2011          movs   r0, #17
		      1c76:   f8c2 3304     str.w  r3, [r2, #772]   ; 0x304
		      1c7a:   b003          add    sp, #12
		      1c7c:   bc70          pop    {r4, r5, r6}
		->    1c7e:   4770          bx lr
		      1c80:   f893 402e     ldrb.w r4, [r3, #46]   ; 0x2e
		      1c84:   60d8          str    r0, [r3, #12]
		      1c86:   8319          strh   r1, [r3, #24]
		      1c88:   b13c          cbz    r4, 1c9a <nrfx_saadc_buffer_convert+0x92>
		--------------------
	(    1cc4,     202a)	
		--------------------
		      1cba:   2011          movs   r0, #17
		      1cbc:   f8c2 4304     str.w  r4, [r2, #772]   ; 0x304
		      1cc0:   b003          add    sp, #12
		      1cc2:   bc70          pop    {r4, r5, r6}
		->    1cc4:   4770          bx lr
		      1cc6:   bf00          nop
		      1cc8:   40007000  .word   0x40007000
		      1ccc:   20000624  .word   0x20000624
		  
		--------------------
	(    1dc2,     1dc6)	
		--------------------
		      1dba:   54a3          strb   r3, [r4, r2]
		      1dbc:   e7be          b.n    1d3c <nrfx_timer_init+0x6c>
		      1dbe:   2008          movs   r0, #8
		      1dc0:   b002          add    sp, #8
		->    1dc2:   e8bd 81f0     ldmia.w    sp!, {r4, r5, r6, r7, r8, pc}
		      1dc6:   bf00          nop
		      1dc8:   20000654  .word   0x20000654
		      1dcc:   e000e100  .word   0xe000e100
		      1dd0:   e000ed14  .word   0xe000ed14
		--------------------
	(    1efe,     1f02)	
		--------------------
		      1ef6:   d1f6          bne.n  1ee6 <saadc_callback+0x36>
		      1ef8:   683b          ldr    r3, [r7, #0]
		      1efa:   3301          adds   r3, #1
		      1efc:   603b          str    r3, [r7, #0]
		->    1efe:   e8bd 81f0     ldmia.w    sp!, {r4, r5, r6, r7, r8, pc}
		      1f02:   f7fe febf     bl c84 <app_error_handler_bare>
		      1f06:   e7de          b.n    1ec6 <saadc_callback+0x16>
		      1f08:   00002bf8  .word   0x00002bf8
		      1f0c:   00002c28  .word   0x00002c28
		--------------------
	(    1f7a,     1f82)	
		--------------------
		      1f70:   7818          ldrb   r0, [r3, #0]
		      1f72:   f7ff fc59     bl 1828 <nrfx_ppi_channel_assign>
		      1f76:   b920          cbnz   r0, 1f82 <saadc_sampling_event_init+0x66>
		      1f78:   b006          add    sp, #24
		->    1f7a:   bd10          pop    {r4, pc}
		      1f7c:   f7fe fe82     bl c84 <app_error_handler_bare>
		      1f80:   e7d1          b.n    1f26 <saadc_sampling_event_init+0xa>
		      1f82:   f7fe fe7f     bl c84 <app_error_handler_bare>
		      1f86:   b006          add    sp, #24
		--------------------
	(    1fc0,     1fc2)	
		--------------------
		      1fb6:   4b05          ldr    r3, [pc, #20]  ; (1fcc <saadc_sampling_event_enable+0x18>)
		      1fb8:   7818          ldrb   r0, [r3, #0]
		      1fba:   f7ff fc5b     bl 1874 <nrfx_ppi_channel_enable>
		      1fbe:   b900          cbnz   r0, 1fc2 <saadc_sampling_event_enable+0xe>
		->    1fc0:   bd08          pop    {r3, pc}
		      1fc2:   e8bd 4008     ldmia.w    sp!, {r3, lr}
		      1fc6:   f7fe be5d     b.w    c84 <app_error_handler_bare>
		      1fca:   bf00          nop
		      1fcc:   20000678  .word   0x20000678
		--------------------
	(    1fee,     200e)	
		--------------------
		      1fe4:   f7ff fd36     bl 1a54 <nrfx_saadc_init>
		      1fe8:   b988          cbnz   r0, 200e <Heap_Size+0xe>
		      1fea:   a901          add    r1, sp, #4
		      1fec:   2000          movs   r0, #0
		->    1fee:   f7ff fd85     bl 1afc <nrfx_saadc_channel_init>
		      1ff2:   b9a0          cbnz   r0, 201e <Heap_Size+0x1e>
		      1ff4:   4817          ldr    r0, [pc, #92]  ; (2054 <Heap_Size+0x54>)
		      1ff6:   2105          movs   r1, #5
		      1ff8:   f7ff fe06     bl 1c08 <nrfx_saadc_buffer_convert>
		--------------------
	(    270e,     2710)	
		--------------------
		  0000270c <__retarget_lock_acquire_recursive>:
		      270c:   4770          bx lr
		  
		  0000270e <__retarget_lock_release_recursive>:
		->    270e:   4770          bx lr
		  
		  00002710 <strcpy>:
		      2710:   4603          mov    r3, r0
		      2712:   f811 2b01     ldrb.w r2, [r1], #1
		--------------------
	(    271e,     22aa)	
		--------------------
		      2712:   f811 2b01     ldrb.w r2, [r1], #1
		      2716:   f803 2b01     strb.w r2, [r3], #1
		      271a:   2a00          cmp    r2, #0
		      271c:   d1f9          bne.n  2712 <strcpy+0x2>
		->    271e:   4770          bx lr
		  
		  00002720 <memcpy>:
		      2720:   440a          add    r2, r1
		      2722:   4291          cmp    r1, r2
		--------------------

simple_timer-o0: 20 | 108
	(     50e,      510)	
		--------------------
		       506:   bf00          nop
		       508:   bf00          nop
		       50a:   3708          adds   r7, #8
		       50c:   46bd          mov    sp, r7
		->     50e:   bd80          pop    {r7, pc}
		  
		  00000510 <bsp_board_led_invert>:
		       510:   b580          push   {r7, lr}
		       512:   b082          sub    sp, #8
		--------------------
	(     59c,      59e)	
		--------------------
		       594:   bf00          nop
		       596:   bf00          nop
		       598:   3708          adds   r7, #8
		       59a:   46bd          mov    sp, r7
		->     59c:   bd80          pop    {r7, pc}
		       59e:   bf00          nop
		       5a0:   00001fdc  .word   0x00001fdc
		  
		  000005a4 <bsp_board_init>:
		--------------------
	(     694,      696)	
		--------------------
		       68c:   68fb          ldr    r3, [r7, #12]
		       68e:   4618          mov    r0, r3
		       690:   3710          adds   r7, #16
		       692:   46bd          mov    sp, r7
		->     694:   bd80          pop    {r7, pc}
		       696:   bf00          nop
		       698:   000005fd  .word   0x000005fd
		       69c:   00001fe0  .word   0x00001fe0
		       6a0:   20000038  .word   0x20000038
		--------------------
	(     814,      c0c)	
		--------------------
		       80c:   68fb          ldr    r3, [r7, #12]
		       80e:   bf00          nop
		       810:   3710          adds   r7, #16
		       812:   46bd          mov    sp, r7
		->     814:   bd80          pop    {r7, pc}
		  
		  00000816 <nrf_gpiote_event_addr_get>:
		       816:   b480          push   {r7}
		       818:   b083          sub    sp, #12
		--------------------
	(    1582,     15a4)	
		--------------------
		      157a:   3b03          subs   r3, #3
		      157c:   2b03          cmp    r3, #3
		      157e:   d813          bhi.n  15a8 <nrf52_errata_12+0x68>
		      1580:   a201          add    r2, pc, #4 ; (adr r2, 1588 <nrf52_errata_12+0x48>)
		->    1582:   f852 f023     ldr.w  pc, [r2, r3, lsl #2]
		      1586:   bf00          nop
		      1588:   00001599  .word   0x00001599
		      158c:   0000159d  .word   0x0000159d
		      1590:   000015a1  .word   0x000015a1
		--------------------
	(    1612,     1622)	
		--------------------
		      1608:   00001619  .word   0x00001619
		      160c:   2301          movs   r3, #1
		      160e:   e008          b.n    1622 <nrf52_errata_16+0x56>
		      1610:   2300          movs   r3, #0
		->    1612:   e006          b.n    1622 <nrf52_errata_16+0x56>
		      1614:   2300          movs   r3, #0
		      1616:   e004          b.n    1622 <nrf52_errata_16+0x56>
		      1618:   2300          movs   r3, #0
		      161a:   e002          b.n    1622 <nrf52_errata_16+0x56>
		--------------------
	(    1696,     16a6)	
		--------------------
		      168c:   0000169d  .word   0x0000169d
		      1690:   2301          movs   r3, #1
		      1692:   e008          b.n    16a6 <nrf52_errata_31+0x6e>
		      1694:   2301          movs   r3, #1
		->    1696:   e006          b.n    16a6 <nrf52_errata_31+0x6e>
		      1698:   2301          movs   r3, #1
		      169a:   e004          b.n    16a6 <nrf52_errata_31+0x6e>
		      169c:   2301          movs   r3, #1
		      169e:   e002          b.n    16a6 <nrf52_errata_31+0x6e>
		--------------------
	(    169a,     16a6)	
		--------------------
		      1692:   e008          b.n    16a6 <nrf52_errata_31+0x6e>
		      1694:   2301          movs   r3, #1
		      1696:   e006          b.n    16a6 <nrf52_errata_31+0x6e>
		      1698:   2301          movs   r3, #1
		->    169a:   e004          b.n    16a6 <nrf52_errata_31+0x6e>
		      169c:   2301          movs   r3, #1
		      169e:   e002          b.n    16a6 <nrf52_errata_31+0x6e>
		      16a0:   2301          movs   r3, #1
		      16a2:   e000          b.n    16a6 <nrf52_errata_31+0x6e>
		--------------------
	(    1772,     1794)	
		--------------------
		      176a:   3b03          subs   r3, #3
		      176c:   2b03          cmp    r3, #3
		      176e:   d813          bhi.n  1798 <nrf52_errata_36+0x68>
		      1770:   a201          add    r2, pc, #4 ; (adr r2, 1778 <nrf52_errata_36+0x48>)
		->    1772:   f852 f023     ldr.w  pc, [r2, r3, lsl #2]
		      1776:   bf00          nop
		      1778:   00001789  .word   0x00001789
		      177c:   0000178d  .word   0x0000178d
		      1780:   00001791  .word   0x00001791
		--------------------
	(    1796,     179e)	
		--------------------
		      178e:   e006          b.n    179e <nrf52_errata_36+0x6e>
		      1790:   2301          movs   r3, #1
		      1792:   e004          b.n    179e <nrf52_errata_36+0x6e>
		      1794:   2301          movs   r3, #1
		->    1796:   e002          b.n    179e <nrf52_errata_36+0x6e>
		      1798:   2301          movs   r3, #1
		      179a:   e000          b.n    179e <nrf52_errata_36+0x6e>
		      179c:   2300          movs   r3, #0
		      179e:   4618          mov    r0, r3
		--------------------
	(    186a,     187e)	
		--------------------
		      185c:   0000186d  .word   0x0000186d
		      1860:   00001871  .word   0x00001871
		      1864:   00001875  .word   0x00001875
		      1868:   2301          movs   r3, #1
		->    186a:   e008          b.n    187e <nrf52_errata_57+0x56>
		      186c:   2300          movs   r3, #0
		      186e:   e006          b.n    187e <nrf52_errata_57+0x56>
		      1870:   2300          movs   r3, #0
		      1872:   e004          b.n    187e <nrf52_errata_57+0x56>
		--------------------
	(    18ee,     1902)	
		--------------------
		      18e0:   000018f1  .word   0x000018f1
		      18e4:   000018f5  .word   0x000018f5
		      18e8:   000018f9  .word   0x000018f9
		      18ec:   2300          movs   r3, #0
		->    18ee:   e008          b.n    1902 <nrf52_errata_66+0x6e>
		      18f0:   2300          movs   r3, #0
		      18f2:   e006          b.n    1902 <nrf52_errata_66+0x6e>
		      18f4:   2301          movs   r3, #1
		      18f6:   e004          b.n    1902 <nrf52_errata_66+0x6e>
		--------------------
	(    18f6,     1902)	
		--------------------
		      18ee:   e008          b.n    1902 <nrf52_errata_66+0x6e>
		      18f0:   2300          movs   r3, #0
		      18f2:   e006          b.n    1902 <nrf52_errata_66+0x6e>
		      18f4:   2301          movs   r3, #1
		->    18f6:   e004          b.n    1902 <nrf52_errata_66+0x6e>
		      18f8:   2301          movs   r3, #1
		      18fa:   e002          b.n    1902 <nrf52_errata_66+0x6e>
		      18fc:   2301          movs   r3, #1
		      18fe:   e000          b.n    1902 <nrf52_errata_66+0x6e>
		--------------------
	(    1962,     1978)	
		--------------------
		      195a:   3b03          subs   r3, #3
		      195c:   2b03          cmp    r3, #3
		      195e:   d813          bhi.n  1988 <nrf52_errata_108+0x68>
		      1960:   a201          add    r2, pc, #4 ; (adr r2, 1968 <nrf52_errata_108+0x48>)
		->    1962:   f852 f023     ldr.w  pc, [r2, r3, lsl #2]
		      1966:   bf00          nop
		      1968:   00001979  .word   0x00001979
		      196c:   0000197d  .word   0x0000197d
		      1970:   00001981  .word   0x00001981
		--------------------
	(    197a,     198e)	
		--------------------
		      196c:   0000197d  .word   0x0000197d
		      1970:   00001981  .word   0x00001981
		      1974:   00001985  .word   0x00001985
		      1978:   2301          movs   r3, #1
		->    197a:   e008          b.n    198e <nrf52_errata_108+0x6e>
		      197c:   2301          movs   r3, #1
		      197e:   e006          b.n    198e <nrf52_errata_108+0x6e>
		      1980:   2301          movs   r3, #1
		      1982:   e004          b.n    198e <nrf52_errata_108+0x6e>
		--------------------
	(    1982,     198e)	
		--------------------
		      197a:   e008          b.n    198e <nrf52_errata_108+0x6e>
		      197c:   2301          movs   r3, #1
		      197e:   e006          b.n    198e <nrf52_errata_108+0x6e>
		      1980:   2301          movs   r3, #1
		->    1982:   e004          b.n    198e <nrf52_errata_108+0x6e>
		      1984:   2301          movs   r3, #1
		      1986:   e002          b.n    198e <nrf52_errata_108+0x6e>
		      1988:   2301          movs   r3, #1
		      198a:   e000          b.n    198e <nrf52_errata_108+0x6e>
		--------------------
	(    1a12,     1a1a)	
		--------------------
		      1a0a:   e006          b.n    1a1a <nrf52_errata_136+0x6e>
		      1a0c:   2301          movs   r3, #1
		      1a0e:   e004          b.n    1a1a <nrf52_errata_136+0x6e>
		      1a10:   2301          movs   r3, #1
		->    1a12:   e002          b.n    1a1a <nrf52_errata_136+0x6e>
		      1a14:   2301          movs   r3, #1
		      1a16:   e000          b.n    1a1a <nrf52_errata_136+0x6e>
		      1a18:   2300          movs   r3, #0
		      1a1a:   4618          mov    r0, r3
		--------------------
	(    1a5a,     1a70)	
		--------------------
		      1a52:   3b03          subs   r3, #3
		      1a54:   2b03          cmp    r3, #3
		      1a56:   d813          bhi.n  1a80 <nrf52_errata_182+0x48>
		      1a58:   a201          add    r2, pc, #4 ; (adr r2, 1a60 <nrf52_errata_182+0x28>)
		->    1a5a:   f852 f023     ldr.w  pc, [r2, r3, lsl #2]
		      1a5e:   bf00          nop
		      1a60:   00001a71  .word   0x00001a71
		      1a64:   00001a75  .word   0x00001a75
		      1a68:   00001a79  .word   0x00001a79
		--------------------
	(    1a5a,     1a74)	
		--------------------
		      1a52:   3b03          subs   r3, #3
		      1a54:   2b03          cmp    r3, #3
		      1a56:   d813          bhi.n  1a80 <nrf52_errata_182+0x48>
		      1a58:   a201          add    r2, pc, #4 ; (adr r2, 1a60 <nrf52_errata_182+0x28>)
		->    1a5a:   f852 f023     ldr.w  pc, [r2, r3, lsl #2]
		      1a5e:   bf00          nop
		      1a60:   00001a71  .word   0x00001a71
		      1a64:   00001a75  .word   0x00001a75
		      1a68:   00001a79  .word   0x00001a79
		--------------------
	(    1e86,     1e8a)	
		--------------------
		      1e78:   dd07          ble.n  1e8a <__register_exitproc+0x42>
		      1e7a:   f8d8 0000     ldr.w  r0, [r8]
		      1e7e:   f7ff ffe2     bl 1e46 <__retarget_lock_release_recursive>
		      1e82:   f04f 30ff     mov.w  r0, #4294967295  ; 0xffffffff
		->    1e86:   e8bd 83f8     ldmia.w    sp!, {r3, r4, r5, r6, r7, r8, r9, pc}
		      1e8a:   b32e          cbz    r6, 1ed8 <__register_exitproc+0x90>
		      1e8c:   f8d4 0088     ldr.w  r0, [r4, #136]   ; 0x88
		      1e90:   b968          cbnz   r0, 1eae <__register_exitproc+0x66>
		      1e92:   4b1a          ldr    r3, [pc, #104] ; (1efc <__register_exitproc+0xb4>)
		--------------------

simple_timer-o1: 19 | 19
	(     336,      9d2)	
		--------------------
		       32a:   2002          movs   r0, #2
		       32c:   f7ff ffea     bl 304 <bsp_board_led_off>
		       330:   2003          movs   r0, #3
		       332:   f7ff ffe7     bl 304 <bsp_board_led_off>
		->     336:   bd08          pop    {r3, pc}
		  
		  00000338 <bsp_board_led_invert>:
		       338:   f04f 41a0     mov.w  r1, #1342177280  ; 0x50000000
		       33c:   f8d1 3504     ldr.w  r3, [r1, #1284]  ; 0x504
		--------------------
	(     36c,      36e)	
		--------------------
		       360:   f010 0f01     tst.w  r0, #1
		       364:   d103          bne.n  36e <bsp_board_init+0x12>
		       366:   f014 0f02     tst.w  r4, #2
		       36a:   d10e          bne.n  38a <bsp_board_init+0x2e>
		->     36c:   bd10          pop    {r4, pc}
		       36e:   f04f 43a0     mov.w  r3, #1342177280  ; 0x50000000
		       372:   2203          movs   r2, #3
		       374:   f8c3 2744     str.w  r2, [r3, #1860]  ; 0x744
		       378:   f8c3 2748     str.w  r2, [r3, #1864]  ; 0x748
		--------------------
	(     3ba,      4d4)	
		--------------------
		       3ae:   aa01          add    r2, sp, #4
		       3b0:   f244 0001     movw   r0, #16385    ; 0x4001
		       3b4:   f000 fb0a     bl 9cc <app_error_fault_handler>
		       3b8:   b005          add    sp, #20
		->     3ba:   f85d fb04     ldr.w  pc, [sp], #4
		      ...
		  
		  000003c0 <app_simple_timer_event_handler>:
		       3c0:   f5b0 7fa0     cmp.w  r0, #320 ; 0x140
		--------------------
	(     3ba,      8be)	
		--------------------
		       3ae:   aa01          add    r2, sp, #4
		       3b0:   f244 0001     movw   r0, #16385    ; 0x4001
		       3b4:   f000 fb0a     bl 9cc <app_error_fault_handler>
		       3b8:   b005          add    sp, #20
		->     3ba:   f85d fb04     ldr.w  pc, [sp], #4
		      ...
		  
		  000003c0 <app_simple_timer_event_handler>:
		       3c0:   f5b0 7fa0     cmp.w  r0, #320 ; 0x140
		--------------------
	(     440,      442)	
		--------------------
		       438:   781b          ldrb   r3, [r3, #0]
		       43a:   2b03          cmp    r3, #3
		       43c:   d001          beq.n  442 <app_simple_timer_stop+0xe>
		       43e:   2000          movs   r0, #0
		->     440:   bd08          pop    {r3, pc}
		       442:   4804          ldr    r0, [pc, #16]  ; (454 <app_simple_timer_stop+0x20>)
		       444:   f000 f9b8     bl 7b8 <nrfx_timer_pause>
		       448:   4b01          ldr    r3, [pc, #4]   ; (450 <app_simple_timer_stop+0x1c>)
		       44a:   2202          movs   r2, #2
		--------------------
	(     440,      4cc)	
		--------------------
		       438:   781b          ldrb   r3, [r3, #0]
		       43a:   2b03          cmp    r3, #3
		       43c:   d001          beq.n  442 <app_simple_timer_stop+0xe>
		       43e:   2000          movs   r0, #0
		->     440:   bd08          pop    {r3, pc}
		       442:   4804          ldr    r0, [pc, #16]  ; (454 <app_simple_timer_stop+0x20>)
		       444:   f000 f9b8     bl 7b8 <nrfx_timer_pause>
		       448:   4b01          ldr    r3, [pc, #4]   ; (450 <app_simple_timer_stop+0x1c>)
		       44a:   2202          movs   r2, #2
		--------------------
	(     514,      516)	
		--------------------
		       50c:   681b          ldr    r3, [r3, #0]
		       50e:   4a03          ldr    r2, [pc, #12]  ; (51c <RTC1_IRQHandler+0x14>)
		       510:   6810          ldr    r0, [r2, #0]
		       512:   4798          blx    r3
		->     514:   bd08          pop    {r3, pc}
		       516:   bf00          nop
		       518:   20000040  .word   0x20000040
		       51c:   20000038  .word   0x20000038
		  
		--------------------
	(     682,      514)	
		--------------------
		       678:   f8c4 3520     str.w  r3, [r4, #1312]  ; 0x520
		       67c:   2b00          cmp    r3, #0
		       67e:   d1ac          bne.n  5da <GPIOTE_IRQHandler+0xba>
		       680:   b004          add    sp, #16
		->     682:   e8bd 81f0     ldmia.w    sp!, {r4, r5, r6, r7, r8, pc}
		       686:   bf00          nop
		       688:   40006100  .word   0x40006100
		       68c:   40006000  .word   0x40006000
		       690:   40006120  .word   0x40006120
		--------------------
	(     682,      686)	
		--------------------
		       678:   f8c4 3520     str.w  r3, [r4, #1312]  ; 0x520
		       67c:   2b00          cmp    r3, #0
		       67e:   d1ac          bne.n  5da <GPIOTE_IRQHandler+0xba>
		       680:   b004          add    sp, #16
		->     682:   e8bd 81f0     ldmia.w    sp!, {r4, r5, r6, r7, r8, pc}
		       686:   bf00          nop
		       688:   40006100  .word   0x40006100
		       68c:   40006000  .word   0x40006000
		       690:   40006120  .word   0x40006120
		--------------------
	(     856,      858)	
		--------------------
		       84e:   2d04          cmp    r5, #4
		       850:   d016          beq.n  880 <TIMER1_IRQHandler+0x4c>
		       852:   6823          ldr    r3, [r4, #0]
		       854:   2b00          cmp    r3, #0
		->     856:   d0f8          beq.n  84a <TIMER1_IRQHandler+0x16>
		       858:   f8d7 3304     ldr.w  r3, [r7, #772]   ; 0x304
		       85c:   fa06 f105     lsl.w  r1, r6, r5
		       860:   4219          tst    r1, r3
		       862:   d0f2          beq.n  84a <TIMER1_IRQHandler+0x16>
		--------------------
	(     882,      886)	
		--------------------
		       87a:   b280          uxth   r0, r0
		       87c:   4798          blx    r3
		       87e:   e7e4          b.n    84a <TIMER1_IRQHandler+0x16>
		       880:   b002          add    sp, #8
		->     882:   e8bd 81f0     ldmia.w    sp!, {r4, r5, r6, r7, r8, pc}
		       886:   bf00          nop
		       888:   40009140  .word   0x40009140
		       88c:   40009000  .word   0x40009000
		       890:   200000a0  .word   0x200000a0
		--------------------
	(     8b8,      8ba)	
		--------------------
		       8ae:   4906          ldr    r1, [pc, #24]  ; (8c8 <led_and_timer_control+0x34>)
		       8b0:   4620          mov    r0, r4
		       8b2:   f7ff fdd1     bl 458 <app_simple_timer_start>
		       8b6:   b900          cbnz   r0, 8ba <led_and_timer_control+0x26>
		->     8b8:   bd10          pop    {r4, pc}
		       8ba:   f7ff fd72     bl 3a2 <app_error_handler_bare>
		       8be:   e7fb          b.n    8b8 <led_and_timer_control+0x24>
		       8c0:   200000b0  .word   0x200000b0
		       8c4:   200000b4  .word   0x200000b4
		--------------------
	(     8dc,      8e8)	
		--------------------
		       8d2:   781b          ldrb   r3, [r3, #0]
		       8d4:   b143          cbz    r3, 8e8 <state_machine_state_change+0x1c>
		       8d6:   f003 02ff     and.w  r2, r3, #255 ; 0xff
		       8da:   2a01          cmp    r2, #1
		->     8dc:   d009          beq.n  8f2 <state_machine_state_change+0x26>
		       8de:   4b07          ldr    r3, [pc, #28]  ; (8fc <state_machine_state_change+0x30>)
		       8e0:   7818          ldrb   r0, [r3, #0]
		       8e2:   f7ff fd5e     bl 3a2 <app_error_handler_bare>
		       8e6:   e003          b.n    8f0 <state_machine_state_change+0x24>
		--------------------
	(     b74,      a7c)	
		--------------------
		       b6c:   d186          bne.n  a7c <SystemInit+0x38>
		       b6e:   4b88          ldr    r3, [pc, #544] ; (d90 <SystemInit+0x34c>)
		       b70:   4a88          ldr    r2, [pc, #544] ; (d94 <SystemInit+0x350>)
		       b72:   675a          str    r2, [r3, #116] ; 0x74
		->     b74:   e782          b.n    a7c <SystemInit+0x38>
		       b76:   f04f 4370     mov.w  r3, #4026531840  ; 0xf0000000
		       b7a:   f8d3 3fe8     ldr.w  r3, [r3, #4072]  ; 0xfe8
		       b7e:   f3c3 1303     ubfx   r3, r3, #4, #4
		       b82:   2b03          cmp    r3, #3
		--------------------
	(     e0e,      e10)	
		--------------------
		       e06:   10a4          asrs   r4, r4, #2
		       e08:   2600          movs   r6, #0
		       e0a:   42a6          cmp    r6, r4
		       e0c:   d105          bne.n  e1a <__libc_init_array+0x2e>
		->     e0e:   bd70          pop    {r4, r5, r6, pc}
		       e10:   f855 3b04     ldr.w  r3, [r5], #4
		       e14:   4798          blx    r3
		       e16:   3601          adds   r6, #1
		       e18:   e7ee          b.n    df8 <__libc_init_array+0xc>
		--------------------
	(     e5e,      e60)	
		--------------------
		  00000e5c <__retarget_lock_acquire_recursive>:
		       e5c:   4770          bx lr
		  
		  00000e5e <__retarget_lock_release_recursive>:
		->     e5e:   4770          bx lr
		  
		  00000e60 <__register_exitproc>:
		       e60:   e92d 43f8     stmdb  sp!, {r3, r4, r5, r6, r7, r8, r9, lr}
		       e64:   f8df 80b0     ldr.w  r8, [pc, #176]   ; f18 <__register_exitproc+0xb8>
		--------------------
	(     e9e,      ea2)	
		--------------------
		       e90:   dd07          ble.n  ea2 <__register_exitproc+0x42>
		       e92:   f8d8 0000     ldr.w  r0, [r8]
		       e96:   f7ff ffe2     bl e5e <__retarget_lock_release_recursive>
		       e9a:   f04f 30ff     mov.w  r0, #4294967295  ; 0xffffffff
		->     e9e:   e8bd 83f8     ldmia.w    sp!, {r3, r4, r5, r6, r7, r8, r9, pc}
		       ea2:   b32e          cbz    r6, ef0 <__register_exitproc+0x90>
		       ea4:   f8d4 0088     ldr.w  r0, [r4, #136]   ; 0x88
		       ea8:   b968          cbnz   r0, ec6 <__register_exitproc+0x66>
		       eaa:   4b1a          ldr    r3, [pc, #104] ; (f14 <__register_exitproc+0xb4>)
		--------------------
	(     eae,      ec6)	
		--------------------
		       ea4:   f8d4 0088     ldr.w  r0, [r4, #136]   ; 0x88
		       ea8:   b968          cbnz   r0, ec6 <__register_exitproc+0x66>
		       eaa:   4b1a          ldr    r3, [pc, #104] ; (f14 <__register_exitproc+0xb4>)
		       eac:   2b00          cmp    r3, #0
		->     eae:   d0f0          beq.n  e92 <__register_exitproc+0x32>
		       eb0:   f44f 7084     mov.w  r0, #264 ; 0x108
		       eb4:   f3af 8000     nop.w
		       eb8:   2800          cmp    r0, #0
		       eba:   d0ea          beq.n  e92 <__register_exitproc+0x32>
		--------------------
	(     eae,      ef0)	
		--------------------
		       ea4:   f8d4 0088     ldr.w  r0, [r4, #136]   ; 0x88
		       ea8:   b968          cbnz   r0, ec6 <__register_exitproc+0x66>
		       eaa:   4b1a          ldr    r3, [pc, #104] ; (f14 <__register_exitproc+0xb4>)
		       eac:   2b00          cmp    r3, #0
		->     eae:   d0f0          beq.n  e92 <__register_exitproc+0x32>
		       eb0:   f44f 7084     mov.w  r0, #264 ; 0x108
		       eb4:   f3af 8000     nop.w
		       eb8:   2800          cmp    r0, #0
		       eba:   d0ea          beq.n  e92 <__register_exitproc+0x32>
		--------------------

simple_timer-o2: 0 | 0

simple_timer-o3: 0 | 0

spi-o0: 20 | 154
	(     6b0,      6b2)	
		--------------------
		       6a8:   4798          blx    r3
		       6aa:   bf00          nop
		       6ac:   3708          adds   r7, #8
		       6ae:   46bd          mov    sp, r7
		->     6b0:   bd80          pop    {r7, pc}
		  
		  000006b2 <nrf_log_backend_panic_set>:
		       6b2:   b580          push   {r7, lr}
		       6b4:   b082          sub    sp, #8
		--------------------
	(    189c,     189e)	
		--------------------
		      1894:   bf00          nop
		      1896:   bf00          nop
		      1898:   3708          adds   r7, #8
		      189a:   46bd          mov    sp, r7
		->    189c:   bd80          pop    {r7, pc}
		      189e:   bf00          nop
		      18a0:   00005f5c  .word   0x00005f5c
		  
		  000018a4 <bsp_board_init>:
		--------------------
	(    1c88,     1c8c)	
		--------------------
		      1c80:   1c62          adds   r2, r4, #1
		      1c82:   601a          str    r2, [r3, #0]
		      1c84:   68f9          ldr    r1, [r7, #12]
		      1c86:   6878          ldr    r0, [r7, #4]
		->    1c88:   f7ff ff78     bl 1b7c <nrf_balloc_block2idx>
		      1c8c:   4603          mov    r3, r0
		      1c8e:   7023          strb   r3, [r4, #0]
		      1c90:   2000          movs   r0, #0
		      1c92:   f7ff feaf     bl 19f4 <app_util_critical_region_exit>
		--------------------
	(    2e58,     2e32)	
		--------------------
		      2e4e:   4618          mov    r0, r3
		      2e50:   370c          adds   r7, #12
		      2e52:   46bd          mov    sp, r7
		      2e54:   f85d 7b04     ldr.w  r7, [sp], #4
		->    2e58:   4770          bx lr
		      2e5a:   bf00          nop
		      2e5c:   40002000  .word   0x40002000
		      2e60:   200006e8  .word   0x200006e8
		  
		--------------------
	(    3e22,     3e24)	
		--------------------
		      3e18:   f7ff fe97     bl 3b4a <nrf_uart_hwfc_pins_set>
		      3e1c:   bf00          nop
		      3e1e:   3708          adds   r7, #8
		      3e20:   46bd          mov    sp, r7
		->    3e22:   bd80          pop    {r7, pc}
		  
		  00003e24 <interrupts_enable>:
		      3e24:   b580          push   {r7, lr}
		      3e26:   b082          sub    sp, #8
		--------------------
	(    4c4e,     4c50)	
		--------------------
		      4c44:   f7ff fec0     bl 49c8 <nrf_gpio_cfg_default>
		      4c48:   bf00          nop
		      4c4a:   3718          adds   r7, #24
		      4c4c:   46bd          mov    sp, r7
		->    4c4e:   bd80          pop    {r7, pc}
		  
		  00004c50 <nrfx_uarte_init>:
		      4c50:   b580          push   {r7, lr}
		      4c52:   b086          sub    sp, #24
		--------------------
	(    54be,     54e0)	
		--------------------
		      54b6:   3b03          subs   r3, #3
		      54b8:   2b03          cmp    r3, #3
		      54ba:   d813          bhi.n  54e4 <nrf52_errata_31+0x68>
		      54bc:   a201          add    r2, pc, #4 ; (adr r2, 54c4 <nrf52_errata_31+0x48>)
		->    54be:   f852 f023     ldr.w  pc, [r2, r3, lsl #2]
		      54c2:   bf00          nop
		      54c4:   000054d5  .word   0x000054d5
		      54c8:   000054d9  .word   0x000054d9
		      54cc:   000054dd  .word   0x000054dd
		--------------------
	(    554a,     555e)	
		--------------------
		      553c:   0000554d  .word   0x0000554d
		      5540:   00005551  .word   0x00005551
		      5544:   00005555  .word   0x00005555
		      5548:   2301          movs   r3, #1
		->    554a:   e008          b.n    555e <nrf52_errata_32+0x56>
		      554c:   2300          movs   r3, #0
		      554e:   e006          b.n    555e <nrf52_errata_32+0x56>
		      5550:   2300          movs   r3, #0
		      5552:   e004          b.n    555e <nrf52_errata_32+0x56>
		--------------------
	(    55b6,     55cc)	
		--------------------
		      55ae:   3b03          subs   r3, #3
		      55b0:   2b03          cmp    r3, #3
		      55b2:   d813          bhi.n  55dc <nrf52_errata_36+0x68>
		      55b4:   a201          add    r2, pc, #4 ; (adr r2, 55bc <nrf52_errata_36+0x48>)
		->    55b6:   f852 f023     ldr.w  pc, [r2, r3, lsl #2]
		      55ba:   bf00          nop
		      55bc:   000055cd  .word   0x000055cd
		      55c0:   000055d1  .word   0x000055d1
		      55c4:   000055d5  .word   0x000055d5
		--------------------
	(    562a,     564c)	
		--------------------
		      5622:   3b03          subs   r3, #3
		      5624:   2b03          cmp    r3, #3
		      5626:   d813          bhi.n  5650 <nrf52_errata_37+0x50>
		      5628:   a201          add    r2, pc, #4 ; (adr r2, 5630 <nrf52_errata_37+0x30>)
		->    562a:   f852 f023     ldr.w  pc, [r2, r3, lsl #2]
		      562e:   bf00          nop
		      5630:   00005641  .word   0x00005641
		      5634:   00005645  .word   0x00005645
		      5638:   00005649  .word   0x00005649
		--------------------
	(    5646,     5656)	
		--------------------
		      563c:   0000564d  .word   0x0000564d
		      5640:   2301          movs   r3, #1
		      5642:   e008          b.n    5656 <nrf52_errata_37+0x56>
		      5644:   2300          movs   r3, #0
		->    5646:   e006          b.n    5656 <nrf52_errata_37+0x56>
		      5648:   2300          movs   r3, #0
		      564a:   e004          b.n    5656 <nrf52_errata_37+0x56>
		      564c:   2300          movs   r3, #0
		      564e:   e002          b.n    5656 <nrf52_errata_37+0x56>
		--------------------
	(    564a,     5656)	
		--------------------
		      5642:   e008          b.n    5656 <nrf52_errata_37+0x56>
		      5644:   2300          movs   r3, #0
		      5646:   e006          b.n    5656 <nrf52_errata_37+0x56>
		      5648:   2300          movs   r3, #0
		->    564a:   e004          b.n    5656 <nrf52_errata_37+0x56>
		      564c:   2300          movs   r3, #0
		      564e:   e002          b.n    5656 <nrf52_errata_37+0x56>
		      5650:   2300          movs   r3, #0
		      5652:   e000          b.n    5656 <nrf52_errata_37+0x56>
		--------------------
	(    5736,     5746)	
		--------------------
		      572c:   0000573d  .word   0x0000573d
		      5730:   2300          movs   r3, #0
		      5732:   e008          b.n    5746 <nrf52_errata_66+0x6e>
		      5734:   2300          movs   r3, #0
		->    5736:   e006          b.n    5746 <nrf52_errata_66+0x6e>
		      5738:   2301          movs   r3, #1
		      573a:   e004          b.n    5746 <nrf52_errata_66+0x6e>
		      573c:   2301          movs   r3, #1
		      573e:   e002          b.n    5746 <nrf52_errata_66+0x6e>
		--------------------
	(    57a6,     57bc)	
		--------------------
		      579e:   3b03          subs   r3, #3
		      57a0:   2b03          cmp    r3, #3
		      57a2:   d813          bhi.n  57cc <nrf52_errata_108+0x68>
		      57a4:   a201          add    r2, pc, #4 ; (adr r2, 57ac <nrf52_errata_108+0x48>)
		->    57a6:   f852 f023     ldr.w  pc, [r2, r3, lsl #2]
		      57aa:   bf00          nop
		      57ac:   000057bd  .word   0x000057bd
		      57b0:   000057c1  .word   0x000057c1
		      57b4:   000057c5  .word   0x000057c5
		--------------------
	(    57ca,     57d2)	
		--------------------
		      57c2:   e006          b.n    57d2 <nrf52_errata_108+0x6e>
		      57c4:   2301          movs   r3, #1
		      57c6:   e004          b.n    57d2 <nrf52_errata_108+0x6e>
		      57c8:   2301          movs   r3, #1
		->    57ca:   e002          b.n    57d2 <nrf52_errata_108+0x6e>
		      57cc:   2301          movs   r3, #1
		      57ce:   e000          b.n    57d2 <nrf52_errata_108+0x6e>
		      57d0:   2300          movs   r3, #0
		      57d2:   4618          mov    r0, r3
		--------------------
	(    5832,     5854)	
		--------------------
		      582a:   3b03          subs   r3, #3
		      582c:   2b03          cmp    r3, #3
		      582e:   d813          bhi.n  5858 <nrf52_errata_136+0x68>
		      5830:   a201          add    r2, pc, #4 ; (adr r2, 5838 <nrf52_errata_136+0x48>)
		->    5832:   f852 f023     ldr.w  pc, [r2, r3, lsl #2]
		      5836:   bf00          nop
		      5838:   00005849  .word   0x00005849
		      583c:   0000584d  .word   0x0000584d
		      5840:   00005851  .word   0x00005851
		--------------------
	(    584e,     585e)	
		--------------------
		      5844:   00005855  .word   0x00005855
		      5848:   2301          movs   r3, #1
		      584a:   e008          b.n    585e <nrf52_errata_136+0x6e>
		      584c:   2301          movs   r3, #1
		->    584e:   e006          b.n    585e <nrf52_errata_136+0x6e>
		      5850:   2301          movs   r3, #1
		      5852:   e004          b.n    585e <nrf52_errata_136+0x6e>
		      5854:   2301          movs   r3, #1
		      5856:   e002          b.n    585e <nrf52_errata_136+0x6e>
		--------------------
	(    58b6,     58ca)	
		--------------------
		      58a8:   000058b9  .word   0x000058b9
		      58ac:   000058bd  .word   0x000058bd
		      58b0:   000058c1  .word   0x000058c1
		      58b4:   2300          movs   r3, #0
		->    58b6:   e008          b.n    58ca <nrf52_errata_182+0x4e>
		      58b8:   2300          movs   r3, #0
		      58ba:   e006          b.n    58ca <nrf52_errata_182+0x4e>
		      58bc:   2300          movs   r3, #0
		      58be:   e004          b.n    58ca <nrf52_errata_182+0x4e>
		--------------------
	(    5c96,     5c98)	
		--------------------
		      5c8c:   440a          add    r2, r1
		      5c8e:   4291          cmp    r1, r2
		      5c90:   f100 33ff     add.w  r3, r0, #4294967295  ; 0xffffffff
		      5c94:   d100          bne.n  5c98 <memcpy+0xc>
		->    5c96:   4770          bx lr
		      5c98:   b510          push   {r4, lr}
		      5c9a:   f811 4b01     ldrb.w r4, [r1], #1
		      5c9e:   f803 4f01     strb.w r4, [r3, #1]!
		      5ca2:   4291          cmp    r1, r2
		--------------------
	(    5cb6,      d2a)	
		--------------------
		      5cae:   2a00          cmp    r2, #0
		      5cb0:   d1fb          bne.n  5caa <strlen+0x2>
		      5cb2:   1a18          subs   r0, r3, r0
		      5cb4:   3801          subs   r0, #1
		->    5cb6:   4770          bx lr
		  
		  00005cb8 <__register_exitproc>:
		      5cb8:   e92d 43f8     stmdb  sp!, {r3, r4, r5, r6, r7, r8, r9, lr}
		      5cbc:   f8df 80b0     ldr.w  r8, [pc, #176]   ; 5d70 <__register_exitproc+0xb8>
		--------------------

spi-o1: 0 | 0

spi-o2: 20 | 87
	(     73a,      744)	
		--------------------
		       730:   1cd3          adds   r3, r2, #3
		       732:   eb04 0183     add.w  r1, r4, r3, lsl #2
		       736:   b928          cbnz   r0, 744 <nrf_log_frontend_dequeue+0x60>
		       738:   42ae          cmp    r6, r5
		->     73a:   d95b          bls.n  7f4 <nrf_log_frontend_dequeue+0x110>
		       73c:   f814 3023     ldrb.w r3, [r4, r3, lsl #2]
		       740:   075b          lsls   r3, r3, #29
		       742:   d4e7          bmi.n  714 <nrf_log_frontend_dequeue+0x30>
		       744:   eb04 0282     add.w  r2, r4, r2, lsl #2
		--------------------
	(     800,      804)	
		--------------------
		       7f6:   b005          add    sp, #20
		       7f8:   e8bd 83f0     ldmia.w    sp!, {r4, r5, r6, r7, r8, r9, pc}
		       7fc:   2000          movs   r0, #0
		       7fe:   b005          add    sp, #20
		->     800:   e8bd 83f0     ldmia.w    sp!, {r4, r5, r6, r7, r8, r9, pc}
		       804:   f8bd 3006     ldrh.w r3, [sp, #6]
		       808:   4857          ldr    r0, [pc, #348] ; (968 <nrf_log_frontend_dequeue+0x284>)
		       80a:   f3c3 1889     ubfx   r8, r3, #6, #10
		       80e:   4645          mov    r5, r8
		--------------------
	(     b80,      b82)	
		--------------------
		       b76:   f000 fa57     bl 1028 <nrf_fprintf>
		       b7a:   7a23          ldrb   r3, [r4, #8]
		       b7c:   e7e1          b.n    b42 <prefix_process.constprop.0+0x16>
		       b7e:   b005          add    sp, #20
		->     b80:   bd30          pop    {r4, r5, pc}
		       b82:   4908          ldr    r1, [pc, #32]  ; (ba4 <prefix_process.constprop.0+0x78>)
		       b84:   9100          str    r1, [sp, #0]
		       b86:   4a08          ldr    r2, [pc, #32]  ; (ba8 <prefix_process.constprop.0+0x7c>)
		       b88:   4908          ldr    r1, [pc, #32]  ; (bac <prefix_process.constprop.0+0x80>)
		--------------------
	(     e46,      b04)	
		--------------------
		       e42:   bf00          nop
		  
		  00000e44 <app_error_fault_handler>:
		       e44:   b510          push   {r4, lr}
		->     e46:   b672          cpsid  i
		       e48:   f7ff fe5c     bl b04 <nrf_log_panic>
		       e4c:   f7ff fc4a     bl 6e4 <nrf_log_frontend_dequeue>
		       e50:   2800          cmp    r0, #0
		       e52:   d1fb          bne.n  e4c <app_error_fault_handler+0x8>
		--------------------
	(     e46,      e4c)	
		--------------------
		       e42:   bf00          nop
		  
		  00000e44 <app_error_fault_handler>:
		       e44:   b510          push   {r4, lr}
		->     e46:   b672          cpsid  i
		       e48:   f7ff fe5c     bl b04 <nrf_log_panic>
		       e4c:   f7ff fc4a     bl 6e4 <nrf_log_frontend_dequeue>
		       e50:   2800          cmp    r0, #0
		       e52:   d1fb          bne.n  e4c <app_error_fault_handler+0x8>
		--------------------
	(     ecc,      ece)	
		--------------------
		       ec4:   3b01          subs   r3, #1
		       ec6:   6013          str    r3, [r2, #0]
		       ec8:   b903          cbnz   r3, ecc <app_util_critical_region_exit+0xc>
		       eca:   b662          cpsie  i
		->     ecc:   4770          bx lr
		       ece:   bf00          nop
		       ed0:   20000620  .word   0x20000620
		  
		  00000ed4 <RTC1_IRQHandler>:
		--------------------
	(     ecc,      fd4)	
		--------------------
		       ec4:   3b01          subs   r3, #1
		       ec6:   6013          str    r3, [r2, #0]
		       ec8:   b903          cbnz   r3, ecc <app_util_critical_region_exit+0xc>
		       eca:   b662          cpsie  i
		->     ecc:   4770          bx lr
		       ece:   bf00          nop
		       ed0:   20000620  .word   0x20000620
		  
		  00000ed4 <RTC1_IRQHandler>:
		--------------------
	(     ecc,      fe0)	
		--------------------
		       ec4:   3b01          subs   r3, #1
		       ec6:   6013          str    r3, [r2, #0]
		       ec8:   b903          cbnz   r3, ecc <app_util_critical_region_exit+0xc>
		       eca:   b662          cpsie  i
		->     ecc:   4770          bx lr
		       ece:   bf00          nop
		       ed0:   20000620  .word   0x20000620
		  
		  00000ed4 <RTC1_IRQHandler>:
		--------------------
	(     f28,      f2a)	
		--------------------
		       f1a:   eba2 0001     sub.w  r0, r2, r1
		       f1e:   e843 0c00     strex  ip, r0, [r3]
		       f22:   f09c 0f00     teq    ip, #0
		       f26:   d1f6          bne.n  f16 <nrf_atomic_u32_sub+0x2>
		->     f28:   4770          bx lr
		       f2a:   bf00          nop
		  
		  00000f2c <nrf_atomic_flag_set>:
		       f2c:   4603          mov    r3, r0
		--------------------
	(    1026,     1176)	
		--------------------
		      101e:   4798          blx    r3
		      1020:   2300          movs   r3, #0
		      1022:   60a3          str    r3, [r4, #8]
		      1024:   bd10          pop    {r4, pc}
		->    1026:   4770          bx lr
		  
		  00001028 <nrf_fprintf>:
		      1028:   b40e          push   {r1, r2, r3}
		      102a:   b500          push   {lr}
		--------------------
	(    1026,     14a6)	
		--------------------
		      101e:   4798          blx    r3
		      1020:   2300          movs   r3, #0
		      1022:   60a3          str    r3, [r4, #8]
		      1024:   bd10          pop    {r4, pc}
		->    1026:   4770          bx lr
		  
		  00001028 <nrf_fprintf>:
		      1028:   b40e          push   {r1, r2, r3}
		      102a:   b500          push   {lr}
		--------------------
	(    1026,     157c)	
		--------------------
		      101e:   4798          blx    r3
		      1020:   2300          movs   r3, #0
		      1022:   60a3          str    r3, [r4, #8]
		      1024:   bd10          pop    {r4, pc}
		->    1026:   4770          bx lr
		  
		  00001028 <nrf_fprintf>:
		      1028:   b40e          push   {r1, r2, r3}
		      102a:   b500          push   {lr}
		--------------------
	(    172e,     1786)	
		--------------------
		      1724:   4604          mov    r4, r0
		      1726:   8083          strh   r3, [r0, #4]
		      1728:   80c5          strh   r5, [r0, #6]
		      172a:   f8c0 8000     str.w  r8, [r0]
		->    172e:   d02b          beq.n  1788 <nrf_memobj_alloc+0x84>
		      1730:   4603          mov    r3, r0
		      1732:   2500          movs   r5, #0
		      1734:   e008          b.n    1748 <nrf_memobj_alloc+0x44>
		      1736:   7962          ldrb   r2, [r4, #5]
		--------------------
	(    178a,     178e)	
		--------------------
		      1782:   42af          cmp    r7, r5
		      1784:   d8f6          bhi.n  1774 <nrf_memobj_alloc+0x70>
		      1786:   2400          movs   r4, #0
		      1788:   4620          mov    r0, r4
		->    178a:   e8bd 81f0     ldmia.w    sp!, {r4, r5, r6, r7, r8, pc}
		      178e:   6820          ldr    r0, [r4, #0]
		      1790:   4621          mov    r1, r4
		      1792:   f7ff fc27     bl fe4 <nrf_balloc_free>
		      1796:   e7f6          b.n    1786 <nrf_memobj_alloc+0x82>
		--------------------
	(    17e8,     17ec)	
		--------------------
		      17de:   3501          adds   r5, #1
		      17e0:   f7ff fc00     bl fe4 <nrf_balloc_free>
		      17e4:   42af          cmp    r7, r5
		      17e6:   d8f6          bhi.n  17d6 <nrf_memobj_put+0x36>
		->    17e8:   e8bd 81f0     ldmia.w    sp!, {r4, r5, r6, r7, r8, pc}
		      17ec:   6820          ldr    r0, [r4, #0]
		      17ee:   4621          mov    r1, r4
		      17f0:   e8bd 41f0     ldmia.w    sp!, {r4, r5, r6, r7, r8, lr}
		      17f4:   f7ff bbf6     b.w    fe4 <nrf_balloc_free>
		--------------------
	(    1bb2,     261a)	
		--------------------
		      1baa:   4b03          ldr    r3, [pc, #12]  ; (1bb8 <nrfx_prs_release+0x14>)
		      1bac:   2200          movs   r2, #0
		      1bae:   601a          str    r2, [r3, #0]
		      1bb0:   711a          strb   r2, [r3, #4]
		->    1bb2:   4770          bx lr
		      1bb4:   40002000  .word   0x40002000
		      1bb8:   200006b0  .word   0x200006b0
		  
		  00001bbc <SPIM0_SPIS0_TWIM0_TWIS0_SPI0_TWI0_IRQHandler>:
		--------------------
	(    2206,     2236)	
		--------------------
		      21fa:   682a          ldr    r2, [r5, #0]
		      21fc:   f342 3107     sbfx   r1, r2, #12, #8
		      2200:   2900          cmp    r1, #0
		      2202:   ea4f 3212     mov.w  r2, r2, lsr #12
		->    2206:   db31          blt.n  226c <nrfx_uart_init+0x134>
		      2208:   f101 4160     add.w  r1, r1, #3758096384  ; 0xe0000000
		      220c:   015b          lsls   r3, r3, #5
		      220e:   f501 4161     add.w  r1, r1, #57600   ; 0xe100
		      2212:   b2db          uxtb   r3, r3
		--------------------
	(    2260,     2264)	
		--------------------
		      2256:   b002          add    sp, #8
		      2258:   e8bd 81f0     ldmia.w    sp!, {r4, r5, r6, r7, r8, pc}
		      225c:   2011          movs   r0, #17
		      225e:   b002          add    sp, #8
		->    2260:   e8bd 81f0     ldmia.w    sp!, {r4, r5, r6, r7, r8, pc}
		      2264:   2008          movs   r0, #8
		      2266:   b002          add    sp, #8
		      2268:   e8bd 81f0     ldmia.w    sp!, {r4, r5, r6, r7, r8, pc}
		      226c:   4918          ldr    r1, [pc, #96]  ; (22d0 <nrfx_uart_init+0x198>)
		--------------------
	(    2f56,     16cc)	
		--------------------
		      2f4c:   440a          add    r2, r1
		      2f4e:   4291          cmp    r1, r2
		      2f50:   f100 33ff     add.w  r3, r0, #4294967295  ; 0xffffffff
		      2f54:   d100          bne.n  2f58 <memcpy+0xc>
		->    2f56:   4770          bx lr
		      2f58:   b510          push   {r4, lr}
		      2f5a:   f811 4b01     ldrb.w r4, [r1], #1
		      2f5e:   f803 4f01     strb.w r4, [r3, #1]!
		      2f62:   4291          cmp    r1, r2
		--------------------
	(    2f76,     2f78)	
		--------------------
		      2f6e:   2a00          cmp    r2, #0
		      2f70:   d1fb          bne.n  2f6a <strlen+0x2>
		      2f72:   1a18          subs   r0, r3, r0
		      2f74:   3801          subs   r0, #1
		->    2f76:   4770          bx lr
		  
		  00002f78 <__register_exitproc>:
		      2f78:   e92d 43f8     stmdb  sp!, {r3, r4, r5, r6, r7, r8, r9, lr}
		      2f7c:   f8df 80b0     ldr.w  r8, [pc, #176]   ; 3030 <__register_exitproc+0xb8>
		--------------------

spi-o3: 20 | 90
	(     b70,      b72)	
		--------------------
		       b66:   f000 fa55     bl 1014 <nrf_fprintf>
		       b6a:   7a23          ldrb   r3, [r4, #8]
		       b6c:   e7e1          b.n    b32 <prefix_process.constprop.0+0x16>
		       b6e:   b005          add    sp, #20
		->     b70:   bd30          pop    {r4, r5, pc}
		       b72:   4908          ldr    r1, [pc, #32]  ; (b94 <prefix_process.constprop.0+0x78>)
		       b74:   9100          str    r1, [sp, #0]
		       b76:   4a08          ldr    r2, [pc, #32]  ; (b98 <prefix_process.constprop.0+0x7c>)
		       b78:   4908          ldr    r1, [pc, #32]  ; (b9c <prefix_process.constprop.0+0x80>)
		--------------------
	(     eb8,     1ed0)	
		--------------------
		       eb0:   3b01          subs   r3, #1
		       eb2:   6013          str    r3, [r2, #0]
		       eb4:   b903          cbnz   r3, eb8 <app_util_critical_region_exit+0xc>
		       eb6:   b662          cpsie  i
		->     eb8:   4770          bx lr
		       eba:   bf00          nop
		       ebc:   20000624  .word   0x20000624
		  
		  00000ec0 <RTC1_IRQHandler>:
		--------------------
	(     ec8,      eca)	
		--------------------
		       ec0:   4a02          ldr    r2, [pc, #8]   ; (ecc <RTC1_IRQHandler+0xc>)
		       ec2:   4b03          ldr    r3, [pc, #12]  ; (ed0 <RTC1_IRQHandler+0x10>)
		       ec4:   6810          ldr    r0, [r2, #0]
		       ec6:   681b          ldr    r3, [r3, #0]
		->     ec8:   4718          bx r3
		       eca:   bf00          nop
		       ecc:   20000628  .word   0x20000628
		       ed0:   20000630  .word   0x20000630
		  
		--------------------
	(    100a,      2de)	
		--------------------
		      1002:   4604          mov    r4, r0
		      1004:   6943          ldr    r3, [r0, #20]
		      1006:   6801          ldr    r1, [r0, #0]
		      1008:   6900          ldr    r0, [r0, #16]
		->    100a:   4798          blx    r3
		      100c:   2300          movs   r3, #0
		      100e:   60a3          str    r3, [r4, #8]
		      1010:   bd10          pop    {r4, pc}
		      1012:   4770          bx lr
		--------------------
	(    1012,     113c)	
		--------------------
		      100a:   4798          blx    r3
		      100c:   2300          movs   r3, #0
		      100e:   60a3          str    r3, [r4, #8]
		      1010:   bd10          pop    {r4, pc}
		->    1012:   4770          bx lr
		  
		  00001014 <nrf_fprintf>:
		      1014:   b40e          push   {r1, r2, r3}
		      1016:   b500          push   {lr}
		--------------------
	(    1012,     15d8)	
		--------------------
		      100a:   4798          blx    r3
		      100c:   2300          movs   r3, #0
		      100e:   60a3          str    r3, [r4, #8]
		      1010:   bd10          pop    {r4, pc}
		->    1012:   4770          bx lr
		  
		  00001014 <nrf_fprintf>:
		      1014:   b40e          push   {r1, r2, r3}
		      1016:   b500          push   {lr}
		--------------------
	(    1012,     15ea)	
		--------------------
		      100a:   4798          blx    r3
		      100c:   2300          movs   r3, #0
		      100e:   60a3          str    r3, [r4, #8]
		      1010:   bd10          pop    {r4, pc}
		->    1012:   4770          bx lr
		  
		  00001014 <nrf_fprintf>:
		      1014:   b40e          push   {r1, r2, r3}
		      1016:   b500          push   {lr}
		--------------------
	(    1012,     1610)	
		--------------------
		      100a:   4798          blx    r3
		      100c:   2300          movs   r3, #0
		      100e:   60a3          str    r3, [r4, #8]
		      1010:   bd10          pop    {r4, pc}
		->    1012:   4770          bx lr
		  
		  00001014 <nrf_fprintf>:
		      1014:   b40e          push   {r1, r2, r3}
		      1016:   b500          push   {lr}
		--------------------
	(    1012,     16ce)	
		--------------------
		      100a:   4798          blx    r3
		      100c:   2300          movs   r3, #0
		      100e:   60a3          str    r3, [r4, #8]
		      1010:   bd10          pop    {r4, pc}
		->    1012:   4770          bx lr
		  
		  00001014 <nrf_fprintf>:
		      1014:   b40e          push   {r1, r2, r3}
		      1016:   b500          push   {lr}
		--------------------
	(    137c,     13b8)	
		--------------------
		      1372:   461a          movcc  r2, r3
		      1374:   9202          str    r2, [sp, #8]
		      1376:   b1fc          cbz    r4, 13b8 <nrf_fprintf_fmt+0x224>
		      1378:   f1bb 0f00     cmp.w  fp, #0
		->    137c:   f2c0 814a     blt.w  1614 <nrf_fprintf_fmt+0x480>
		      1380:   077a          lsls   r2, r7, #29
		      1382:   f100 8147     bmi.w  1614 <nrf_fprintf_fmt+0x480>
		      1386:   07b8          lsls   r0, r7, #30
		      1388:   d500          bpl.n  138c <nrf_fprintf_fmt+0x1f8>
		--------------------
	(    177e,     1782)	
		--------------------
		      1776:   42af          cmp    r7, r5
		      1778:   d8f6          bhi.n  1768 <nrf_memobj_alloc+0x70>
		      177a:   2400          movs   r4, #0
		      177c:   4620          mov    r0, r4
		->    177e:   e8bd 81f0     ldmia.w    sp!, {r4, r5, r6, r7, r8, pc}
		      1782:   6820          ldr    r0, [r4, #0]
		      1784:   4621          mov    r1, r4
		      1786:   f7ff fc23     bl fd0 <nrf_balloc_free>
		      178a:   e7f6          b.n    177a <nrf_memobj_alloc+0x82>
		--------------------
	(    1850,     1854)	
		--------------------
		      1848:   bf28          it cs
		      184a:   462e          movcs  r6, r5
		      184c:   2d00          cmp    r5, #0
		      184e:   d1ed          bne.n  182c <nrf_memobj_write+0x40>
		->    1850:   e8bd 83f8     ldmia.w    sp!, {r3, r4, r5, r6, r7, r8, r9, pc}
		  
		  00001854 <nrf_memobj_read>:
		      1854:   e92d 43f8     stmdb  sp!, {r3, r4, r5, r6, r7, r8, r9, lr}
		      1858:   4604          mov    r4, r0
		--------------------
	(    1adc,     1ade)	
		--------------------
		      1ad2:   2a01          cmp    r2, #1
		      1ad4:   f000 81c2     beq.w  1e5c <GPIOTE_IRQHandler+0x3f8>
		      1ad8:   bb26          cbnz   r6, 1b24 <GPIOTE_IRQHandler+0xc0>
		      1ada:   b005          add    sp, #20
		->    1adc:   bdf0          pop    {r4, r5, r6, r7, pc}
		      1ade:   bf00          nop
		      1ae0:   40006000  .word   0x40006000
		      1ae4:   f8d3 2304     ldr.w  r2, [r3, #772]   ; 0x304
		      1ae8:   0612          lsls   r2, r2, #24
		--------------------
	(    1efe,     2982)	
		--------------------
		      1ef6:   4b03          ldr    r3, [pc, #12]  ; (1f04 <nrfx_prs_release+0x14>)
		      1ef8:   2200          movs   r2, #0
		      1efa:   601a          str    r2, [r3, #0]
		      1efc:   711a          strb   r2, [r3, #4]
		->    1efe:   4770          bx lr
		      1f00:   40002000  .word   0x40002000
		      1f04:   200006b4  .word   0x200006b4
		  
		  00001f08 <SPIM0_SPIS0_TWIM0_TWIS0_SPI0_TWI0_IRQHandler>:
		--------------------
	(    1f28,     1f52)	
		--------------------
		      1f20:   b083          sub    sp, #12
		      1f22:   2aff          cmp    r2, #255   ; 0xff
		      1f24:   9101          str    r1, [sp, #4]
		      1f26:   9901          ldr    r1, [sp, #4]
		->    1f28:   d008          beq.n  1f3c <SPIM0_SPIS0_TWIM0_TWIS0_SPI0_TWI0_IRQHandler+0x34>
		      1f2a:   7f99          ldrb   r1, [r3, #30]
		      1f2c:   b191          cbz    r1, 1f54 <SPIM0_SPIS0_TWIM0_TWIS0_SPI0_TWI0_IRQHandler+0x4c>
		      1f2e:   2101          movs   r1, #1
		      1f30:   f04f 40a0     mov.w  r0, #1342177280  ; 0x50000000
		--------------------
	(    25b8,     25bc)	
		--------------------
		      25ae:   b002          add    sp, #8
		      25b0:   e8bd 81f0     ldmia.w    sp!, {r4, r5, r6, r7, r8, pc}
		      25b4:   2011          movs   r0, #17
		      25b6:   b002          add    sp, #8
		->    25b8:   e8bd 81f0     ldmia.w    sp!, {r4, r5, r6, r7, r8, pc}
		      25bc:   2008          movs   r0, #8
		      25be:   b002          add    sp, #8
		      25c0:   e8bd 81f0     ldmia.w    sp!, {r4, r5, r6, r7, r8, pc}
		      25c4:   4918          ldr    r1, [pc, #96]  ; (2628 <nrfx_uart_init+0x198>)
		--------------------
	(    2abc,     2ac0)	
		--------------------
		      2ab2:   b007          add    sp, #28
		      2ab4:   e8bd 83f0     ldmia.w    sp!, {r4, r5, r6, r7, r8, r9, pc}
		      2ab8:   2008          movs   r0, #8
		      2aba:   b007          add    sp, #28
		->    2abc:   e8bd 83f0     ldmia.w    sp!, {r4, r5, r6, r7, r8, r9, pc}
		      2ac0:   4918          ldr    r1, [pc, #96]  ; (2b24 <nrfx_uarte_init+0x1cc>)
		      2ac2:   f002 020f     and.w  r2, r2, #15
		      2ac6:   015b          lsls   r3, r3, #5
		      2ac8:   b2db          uxtb   r3, r3
		--------------------
	(    32ce,     183c)	
		--------------------
		      32c6:   2a00          cmp    r2, #0
		      32c8:   d1fb          bne.n  32c2 <strlen+0x2>
		      32ca:   1a18          subs   r0, r3, r0
		      32cc:   3801          subs   r0, #1
		->    32ce:   4770          bx lr
		  
		  000032d0 <__register_exitproc>:
		      32d0:   e92d 43f8     stmdb  sp!, {r3, r4, r5, r6, r7, r8, r9, lr}
		      32d4:   f8df 80b0     ldr.w  r8, [pc, #176]   ; 3388 <__register_exitproc+0xb8>
		--------------------
	(    32ce,     32d0)	
		--------------------
		      32c6:   2a00          cmp    r2, #0
		      32c8:   d1fb          bne.n  32c2 <strlen+0x2>
		      32ca:   1a18          subs   r0, r3, r0
		      32cc:   3801          subs   r0, #1
		->    32ce:   4770          bx lr
		  
		  000032d0 <__register_exitproc>:
		      32d0:   e92d 43f8     stmdb  sp!, {r3, r4, r5, r6, r7, r8, r9, lr}
		      32d4:   f8df 80b0     ldr.w  r8, [pc, #176]   ; 3388 <__register_exitproc+0xb8>
		--------------------
	(    331e,     3336)	
		--------------------
		      3314:   f8d4 0088     ldr.w  r0, [r4, #136]   ; 0x88
		      3318:   b968          cbnz   r0, 3336 <__register_exitproc+0x66>
		      331a:   4b1a          ldr    r3, [pc, #104] ; (3384 <__register_exitproc+0xb4>)
		      331c:   2b00          cmp    r3, #0
		->    331e:   d0f0          beq.n  3302 <__register_exitproc+0x32>
		      3320:   f44f 7084     mov.w  r0, #264 ; 0x108
		      3324:   f3af 8000     nop.w
		      3328:   2800          cmp    r0, #0
		      332a:   d0ea          beq.n  3302 <__register_exitproc+0x32>
		--------------------

timer-o0: 20 | 101
	(     5aa,      5ac)	
		--------------------
		       5a0:   f7ff ffd2     bl 548 <bsp_board_buttons_init>
		       5a4:   bf00          nop
		       5a6:   3708          adds   r7, #8
		       5a8:   46bd          mov    sp, r7
		->     5aa:   bd80          pop    {r7, pc}
		  
		  000005ac <app_error_handler_bare>:
		       5ac:   b580          push   {r7, lr}
		       5ae:   b086          sub    sp, #24
		--------------------
	(     a14,      a16)	
		--------------------
		       a0c:   69bb          ldr    r3, [r7, #24]
		       a0e:   4618          mov    r0, r3
		       a10:   3724          adds   r7, #36   ; 0x24
		       a12:   46bd          mov    sp, r7
		->     a14:   bd90          pop    {r4, r7, pc}
		       a16:   bf00          nop
		       a18:   2000002c  .word   0x2000002c
		  
		  00000a1c <nrfx_timer_enable>:
		--------------------
	(     dba,      ddc)	
		--------------------
		       db2:   3b03          subs   r3, #3
		       db4:   2b03          cmp    r3, #3
		       db6:   d813          bhi.n  de0 <nrf52_errata_12+0x68>
		       db8:   a201          add    r2, pc, #4 ; (adr r2, dc0 <nrf52_errata_12+0x48>)
		->     dba:   f852 f023     ldr.w  pc, [r2, r3, lsl #2]
		       dbe:   bf00          nop
		       dc0:   00000dd1  .word   0x00000dd1
		       dc4:   00000dd5  .word   0x00000dd5
		       dc8:   00000dd9  .word   0x00000dd9
		--------------------
	(     eb2,      ec8)	
		--------------------
		       eaa:   3b03          subs   r3, #3
		       eac:   2b03          cmp    r3, #3
		       eae:   d813          bhi.n  ed8 <nrf52_errata_31+0x68>
		       eb0:   a201          add    r2, pc, #4 ; (adr r2, eb8 <nrf52_errata_31+0x48>)
		->     eb2:   f852 f023     ldr.w  pc, [r2, r3, lsl #2]
		       eb6:   bf00          nop
		       eb8:   00000ec9  .word   0x00000ec9
		       ebc:   00000ecd  .word   0x00000ecd
		       ec0:   00000ed1  .word   0x00000ed1
		--------------------
	(     f4a,      f52)	
		--------------------
		       f42:   e006          b.n    f52 <nrf52_errata_32+0x56>
		       f44:   2300          movs   r3, #0
		       f46:   e004          b.n    f52 <nrf52_errata_32+0x56>
		       f48:   2300          movs   r3, #0
		->     f4a:   e002          b.n    f52 <nrf52_errata_32+0x56>
		       f4c:   2300          movs   r3, #0
		       f4e:   e000          b.n    f52 <nrf52_errata_32+0x56>
		       f50:   2300          movs   r3, #0
		       f52:   4618          mov    r0, r3
		--------------------
	(     faa,      fcc)	
		--------------------
		       fa2:   3b03          subs   r3, #3
		       fa4:   2b03          cmp    r3, #3
		       fa6:   d813          bhi.n  fd0 <nrf52_errata_36+0x68>
		       fa8:   a201          add    r2, pc, #4 ; (adr r2, fb0 <nrf52_errata_36+0x48>)
		->     faa:   f852 f023     ldr.w  pc, [r2, r3, lsl #2]
		       fae:   bf00          nop
		       fb0:   00000fc1  .word   0x00000fc1
		       fb4:   00000fc5  .word   0x00000fc5
		       fb8:   00000fc9  .word   0x00000fc9
		--------------------
	(     fc6,      fd6)	
		--------------------
		       fbc:   00000fcd  .word   0x00000fcd
		       fc0:   2301          movs   r3, #1
		       fc2:   e008          b.n    fd6 <nrf52_errata_36+0x6e>
		       fc4:   2301          movs   r3, #1
		->     fc6:   e006          b.n    fd6 <nrf52_errata_36+0x6e>
		       fc8:   2301          movs   r3, #1
		       fca:   e004          b.n    fd6 <nrf52_errata_36+0x6e>
		       fcc:   2301          movs   r3, #1
		       fce:   e002          b.n    fd6 <nrf52_errata_36+0x6e>
		--------------------
	(    101e,     1038)	
		--------------------
		      1016:   3b03          subs   r3, #3
		      1018:   2b03          cmp    r3, #3
		      101a:   d813          bhi.n  1044 <nrf52_errata_37+0x50>
		      101c:   a201          add    r2, pc, #4 ; (adr r2, 1024 <nrf52_errata_37+0x30>)
		->    101e:   f852 f023     ldr.w  pc, [r2, r3, lsl #2]
		      1022:   bf00          nop
		      1024:   00001035  .word   0x00001035
		      1028:   00001039  .word   0x00001039
		      102c:   0000103d  .word   0x0000103d
		--------------------
	(    101e,     103c)	
		--------------------
		      1016:   3b03          subs   r3, #3
		      1018:   2b03          cmp    r3, #3
		      101a:   d813          bhi.n  1044 <nrf52_errata_37+0x50>
		      101c:   a201          add    r2, pc, #4 ; (adr r2, 1024 <nrf52_errata_37+0x30>)
		->    101e:   f852 f023     ldr.w  pc, [r2, r3, lsl #2]
		      1022:   bf00          nop
		      1024:   00001035  .word   0x00001035
		      1028:   00001039  .word   0x00001039
		      102c:   0000103d  .word   0x0000103d
		--------------------
	(    103a,     104a)	
		--------------------
		      1030:   00001041  .word   0x00001041
		      1034:   2301          movs   r3, #1
		      1036:   e008          b.n    104a <nrf52_errata_37+0x56>
		      1038:   2300          movs   r3, #0
		->    103a:   e006          b.n    104a <nrf52_errata_37+0x56>
		      103c:   2300          movs   r3, #0
		      103e:   e004          b.n    104a <nrf52_errata_37+0x56>
		      1040:   2300          movs   r3, #0
		      1042:   e002          b.n    104a <nrf52_errata_37+0x56>
		--------------------
	(    10a6,     10b6)	
		--------------------
		      109c:   000010ad  .word   0x000010ad
		      10a0:   2301          movs   r3, #1
		      10a2:   e008          b.n    10b6 <nrf52_errata_57+0x56>
		      10a4:   2300          movs   r3, #0
		->    10a6:   e006          b.n    10b6 <nrf52_errata_57+0x56>
		      10a8:   2300          movs   r3, #0
		      10aa:   e004          b.n    10b6 <nrf52_errata_57+0x56>
		      10ac:   2300          movs   r3, #0
		      10ae:   e002          b.n    10b6 <nrf52_errata_57+0x56>
		--------------------
	(    110e,     1128)	
		--------------------
		      1106:   3b03          subs   r3, #3
		      1108:   2b03          cmp    r3, #3
		      110a:   d813          bhi.n  1134 <nrf52_errata_66+0x68>
		      110c:   a201          add    r2, pc, #4 ; (adr r2, 1114 <nrf52_errata_66+0x48>)
		->    110e:   f852 f023     ldr.w  pc, [r2, r3, lsl #2]
		      1112:   bf00          nop
		      1114:   00001125  .word   0x00001125
		      1118:   00001129  .word   0x00001129
		      111c:   0000112d  .word   0x0000112d
		--------------------
	(    110e,     112c)	
		--------------------
		      1106:   3b03          subs   r3, #3
		      1108:   2b03          cmp    r3, #3
		      110a:   d813          bhi.n  1134 <nrf52_errata_66+0x68>
		      110c:   a201          add    r2, pc, #4 ; (adr r2, 1114 <nrf52_errata_66+0x48>)
		->    110e:   f852 f023     ldr.w  pc, [r2, r3, lsl #2]
		      1112:   bf00          nop
		      1114:   00001125  .word   0x00001125
		      1118:   00001129  .word   0x00001129
		      111c:   0000112d  .word   0x0000112d
		--------------------
	(    110e,     1130)	
		--------------------
		      1106:   3b03          subs   r3, #3
		      1108:   2b03          cmp    r3, #3
		      110a:   d813          bhi.n  1134 <nrf52_errata_66+0x68>
		      110c:   a201          add    r2, pc, #4 ; (adr r2, 1114 <nrf52_errata_66+0x48>)
		->    110e:   f852 f023     ldr.w  pc, [r2, r3, lsl #2]
		      1112:   bf00          nop
		      1114:   00001125  .word   0x00001125
		      1118:   00001129  .word   0x00001129
		      111c:   0000112d  .word   0x0000112d
		--------------------
	(    1126,     113a)	
		--------------------
		      1118:   00001129  .word   0x00001129
		      111c:   0000112d  .word   0x0000112d
		      1120:   00001131  .word   0x00001131
		      1124:   2300          movs   r3, #0
		->    1126:   e008          b.n    113a <nrf52_errata_66+0x6e>
		      1128:   2300          movs   r3, #0
		      112a:   e006          b.n    113a <nrf52_errata_66+0x6e>
		      112c:   2301          movs   r3, #1
		      112e:   e004          b.n    113a <nrf52_errata_66+0x6e>
		--------------------
	(    1132,     113a)	
		--------------------
		      112a:   e006          b.n    113a <nrf52_errata_66+0x6e>
		      112c:   2301          movs   r3, #1
		      112e:   e004          b.n    113a <nrf52_errata_66+0x6e>
		      1130:   2301          movs   r3, #1
		->    1132:   e002          b.n    113a <nrf52_errata_66+0x6e>
		      1134:   2301          movs   r3, #1
		      1136:   e000          b.n    113a <nrf52_errata_66+0x6e>
		      1138:   2300          movs   r3, #0
		      113a:   4618          mov    r0, r3
		--------------------
	(    119a,     11b8)	
		--------------------
		      1192:   3b03          subs   r3, #3
		      1194:   2b03          cmp    r3, #3
		      1196:   d813          bhi.n  11c0 <nrf52_errata_108+0x68>
		      1198:   a201          add    r2, pc, #4 ; (adr r2, 11a0 <nrf52_errata_108+0x48>)
		->    119a:   f852 f023     ldr.w  pc, [r2, r3, lsl #2]
		      119e:   bf00          nop
		      11a0:   000011b1  .word   0x000011b1
		      11a4:   000011b5  .word   0x000011b5
		      11a8:   000011b9  .word   0x000011b9
		--------------------
	(    1226,     1240)	
		--------------------
		      121e:   3b03          subs   r3, #3
		      1220:   2b03          cmp    r3, #3
		      1222:   d813          bhi.n  124c <nrf52_errata_136+0x68>
		      1224:   a201          add    r2, pc, #4 ; (adr r2, 122c <nrf52_errata_136+0x48>)
		->    1226:   f852 f023     ldr.w  pc, [r2, r3, lsl #2]
		      122a:   bf00          nop
		      122c:   0000123d  .word   0x0000123d
		      1230:   00001241  .word   0x00001241
		      1234:   00001245  .word   0x00001245
		--------------------
	(    12ae,     12be)	
		--------------------
		      12a4:   000012b5  .word   0x000012b5
		      12a8:   2300          movs   r3, #0
		      12aa:   e008          b.n    12be <nrf52_errata_182+0x4e>
		      12ac:   2300          movs   r3, #0
		->    12ae:   e006          b.n    12be <nrf52_errata_182+0x4e>
		      12b0:   2300          movs   r3, #0
		      12b2:   e004          b.n    12be <nrf52_errata_182+0x4e>
		      12b4:   2301          movs   r3, #1
		      12b6:   e002          b.n    12be <nrf52_errata_182+0x4e>
		--------------------
	(    12b2,     12be)	
		--------------------
		      12aa:   e008          b.n    12be <nrf52_errata_182+0x4e>
		      12ac:   2300          movs   r3, #0
		      12ae:   e006          b.n    12be <nrf52_errata_182+0x4e>
		      12b0:   2300          movs   r3, #0
		->    12b2:   e004          b.n    12be <nrf52_errata_182+0x4e>
		      12b4:   2301          movs   r3, #1
		      12b6:   e002          b.n    12be <nrf52_errata_182+0x4e>
		      12b8:   2301          movs   r3, #1
		      12ba:   e000          b.n    12be <nrf52_errata_182+0x4e>
		--------------------

timer-o1: 10 | 10
	(     354,      356)	
		--------------------
		   348:   f010 0f01     tst.w  r0, #1
		   34c:   d103          bne.n  356 <bsp_board_init+0x12>
		   34e:   f014 0f02     tst.w  r4, #2
		   352:   d10e          bne.n  372 <bsp_board_init+0x2e>
		-> 354:   bd10          pop    {r4, pc}
		   356:   f04f 43a0     mov.w  r3, #1342177280  ; 0x50000000
		   35a:   2203          movs   r2, #3
		   35c:   f8c3 2744     str.w  r2, [r3, #1860]  ; 0x744
		   360:   f8c3 2748     str.w  r2, [r3, #1864]  ; 0x748
		--------------------
	(     582,      584)	
		--------------------
		   57a:   2d04          cmp    r5, #4
		   57c:   d016          beq.n  5ac <TIMER0_IRQHandler+0x4c>
		   57e:   6823          ldr    r3, [r4, #0]
		   580:   2b00          cmp    r3, #0
		-> 582:   d0f8          beq.n  576 <TIMER0_IRQHandler+0x16>
		   584:   f8d7 3304     ldr.w  r3, [r7, #772]   ; 0x304
		   588:   fa06 f105     lsl.w  r1, r6, r5
		   58c:   4219          tst    r1, r3
		   58e:   d0f2          beq.n  576 <TIMER0_IRQHandler+0x16>
		--------------------
	(     5ae,      5b2)	
		--------------------
		   5a6:   b280          uxth   r0, r0
		   5a8:   4798          blx    r3
		   5aa:   e7e4          b.n    576 <TIMER0_IRQHandler+0x16>
		   5ac:   b002          add    sp, #8
		-> 5ae:   e8bd 81f0     ldmia.w    sp!, {r4, r5, r6, r7, r8, pc}
		   5b2:   bf00          nop
		   5b4:   40008140  .word   0x40008140
		   5b8:   40008000  .word   0x40008000
		   5bc:   2000002c  .word   0x2000002c
		--------------------
	(     5d0,      5d2)	
		--------------------
		   5c6:   1c51          adds   r1, r2, #1
		   5c8:   6019          str    r1, [r3, #0]
		   5ca:   f5b0 7fa0     cmp.w  r0, #320 ; 0x140
		   5ce:   d000          beq.n  5d2 <timer_led_event_handler+0x12>
		-> 5d0:   bd08          pop    {r3, pc}
		   5d2:   f002 0003     and.w  r0, r2, #3
		   5d6:   f7ff fea3     bl 320 <bsp_board_led_invert>
		   5da:   e7f9          b.n    5d0 <timer_led_event_handler+0x10>
		   5dc:   20000038  .word   0x20000038
		--------------------
	(     774,      67c)	
		--------------------
		   76c:   d186          bne.n  67c <SystemInit+0x38>
		   76e:   4b88          ldr    r3, [pc, #544] ; (990 <SystemInit+0x34c>)
		   770:   4a88          ldr    r2, [pc, #544] ; (994 <SystemInit+0x350>)
		   772:   675a          str    r2, [r3, #116] ; 0x74
		-> 774:   e782          b.n    67c <SystemInit+0x38>
		   776:   f04f 4370     mov.w  r3, #4026531840  ; 0xf0000000
		   77a:   f8d3 3fe8     ldr.w  r3, [r3, #4072]  ; 0xfe8
		   77e:   f3c3 1303     ubfx   r3, r3, #4, #4
		   782:   2b03          cmp    r3, #3
		--------------------
	(     a0e,      a10)	
		--------------------
		   a06:   10a4          asrs   r4, r4, #2
		   a08:   2600          movs   r6, #0
		   a0a:   42a6          cmp    r6, r4
		   a0c:   d105          bne.n  a1a <__libc_init_array+0x2e>
		-> a0e:   bd70          pop    {r4, r5, r6, pc}
		   a10:   f855 3b04     ldr.w  r3, [r5], #4
		   a14:   4798          blx    r3
		   a16:   3601          adds   r6, #1
		   a18:   e7ee          b.n    9f8 <__libc_init_array+0xc>
		--------------------
	(     a5e,      a60)	
		--------------------
		  00000a5c <__retarget_lock_acquire_recursive>:
		   a5c:   4770          bx lr
		  
		  00000a5e <__retarget_lock_release_recursive>:
		-> a5e:   4770          bx lr
		  
		  00000a60 <__register_exitproc>:
		   a60:   e92d 43f8     stmdb  sp!, {r3, r4, r5, r6, r7, r8, r9, lr}
		   a64:   f8df 80b0     ldr.w  r8, [pc, #176]   ; b18 <__register_exitproc+0xb8>
		--------------------
	(     a9e,      aa2)	
		--------------------
		   a90:   dd07          ble.n  aa2 <__register_exitproc+0x42>
		   a92:   f8d8 0000     ldr.w  r0, [r8]
		   a96:   f7ff ffe2     bl a5e <__retarget_lock_release_recursive>
		   a9a:   f04f 30ff     mov.w  r0, #4294967295  ; 0xffffffff
		-> a9e:   e8bd 83f8     ldmia.w    sp!, {r3, r4, r5, r6, r7, r8, r9, pc}
		   aa2:   b32e          cbz    r6, af0 <__register_exitproc+0x90>
		   aa4:   f8d4 0088     ldr.w  r0, [r4, #136]   ; 0x88
		   aa8:   b968          cbnz   r0, ac6 <__register_exitproc+0x66>
		   aaa:   4b1a          ldr    r3, [pc, #104] ; (b14 <__register_exitproc+0xb4>)
		--------------------
	(     aae,      ac6)	
		--------------------
		   aa4:   f8d4 0088     ldr.w  r0, [r4, #136]   ; 0x88
		   aa8:   b968          cbnz   r0, ac6 <__register_exitproc+0x66>
		   aaa:   4b1a          ldr    r3, [pc, #104] ; (b14 <__register_exitproc+0xb4>)
		   aac:   2b00          cmp    r3, #0
		-> aae:   d0f0          beq.n  a92 <__register_exitproc+0x32>
		   ab0:   f44f 7084     mov.w  r0, #264 ; 0x108
		   ab4:   f3af 8000     nop.w
		   ab8:   2800          cmp    r0, #0
		   aba:   d0ea          beq.n  a92 <__register_exitproc+0x32>
		--------------------
	(     aae,      af0)	
		--------------------
		   aa4:   f8d4 0088     ldr.w  r0, [r4, #136]   ; 0x88
		   aa8:   b968          cbnz   r0, ac6 <__register_exitproc+0x66>
		   aaa:   4b1a          ldr    r3, [pc, #104] ; (b14 <__register_exitproc+0xb4>)
		   aac:   2b00          cmp    r3, #0
		-> aae:   d0f0          beq.n  a92 <__register_exitproc+0x32>
		   ab0:   f44f 7084     mov.w  r0, #264 ; 0x108
		   ab4:   f3af 8000     nop.w
		   ab8:   2800          cmp    r0, #0
		   aba:   d0ea          beq.n  a92 <__register_exitproc+0x32>
		--------------------

timer-o2: 11 | 11
	(     334,      336)	
		--------------------
		   324:   f8c3 2738     str.w  r2, [r3, #1848]  ; 0x738
		   328:   f8c3 273c     str.w  r2, [r3, #1852]  ; 0x73c
		   32c:   f8c3 2740     str.w  r2, [r3, #1856]  ; 0x740
		   330:   f85d 4b04     ldr.w  r4, [sp], #4
		-> 334:   4770          bx lr
		   336:   f04f 43a0     mov.w  r3, #1342177280  ; 0x50000000
		   33a:   2203          movs   r2, #3
		   33c:   f44f 3100     mov.w  r1, #131072  ; 0x20000
		   340:   f8c3 2744     str.w  r2, [r3, #1860]  ; 0x744
		--------------------
	(     49c,      4a0)	
		--------------------
		   490:   f8c0 3510     str.w  r3, [r0, #1296]  ; 0x510
		   494:   2000          movs   r0, #0
		   496:   f888 4008     strb.w r4, [r8, #8]
		   49a:   b002          add    sp, #8
		-> 49c:   e8bd 81f0     ldmia.w    sp!, {r4, r5, r6, r7, r8, pc}
		   4a0:   4c07          ldr    r4, [pc, #28]  ; (4c0 <nrfx_timer_init+0x100>)
		   4a2:   f002 020f     and.w  r2, r2, #15
		   4a6:   015b          lsls   r3, r3, #5
		   4a8:   b2db          uxtb   r3, r3
		--------------------
	(     4b2,      4b6)	
		--------------------
		   4aa:   54a3          strb   r3, [r4, r2]
		   4ac:   e7be          b.n    42c <nrfx_timer_init+0x6c>
		   4ae:   2008          movs   r0, #8
		   4b0:   b002          add    sp, #8
		-> 4b2:   e8bd 81f0     ldmia.w    sp!, {r4, r5, r6, r7, r8, pc}
		   4b6:   bf00          nop
		   4b8:   2000002c  .word   0x2000002c
		   4bc:   e000e100  .word   0xe000e100
		   4c0:   e000ed14  .word   0xe000ed14
		--------------------
	(     572,      574)	
		--------------------
		   566:   f5a5 4000     sub.w  r0, r5, #32768   ; 0x8000
		   56a:   421a          tst    r2, r3
		   56c:   f04f 0100     mov.w  r1, #0
		   570:   b280          uxth   r0, r0
		-> 572:   d006          beq.n  582 <TIMER0_IRQHandler+0x3e>
		   574:   6029          str    r1, [r5, #0]
		   576:   682b          ldr    r3, [r5, #0]
		   578:   9301          str    r3, [sp, #4]
		   57a:   e9d8 3100     ldrd   r3, r1, [r8]
		--------------------
	(     5ac,      5ae)	
		--------------------
		   5a0:   f5b0 7fa0     cmp.w  r0, #320 ; 0x140
		   5a4:   f102 0101     add.w  r1, r2, #1
		   5a8:   6019          str    r1, [r3, #0]
		   5aa:   d000          beq.n  5ae <timer_led_event_handler+0x12>
		-> 5ac:   4770          bx lr
		   5ae:   f002 0003     and.w  r0, r2, #3
		   5b2:   f7ff be9b     b.w    2ec <bsp_board_led_invert>
		   5b6:   bf00          nop
		   5b8:   20000038  .word   0x20000038
		--------------------
	(     8e0,      656)	
		--------------------
		   8d6:   f43f aebe     beq.w  656 <SystemInit+0x3a>
		   8da:   4b17          ldr    r3, [pc, #92]  ; (938 <SystemInit+0x31c>)
		   8dc:   4a17          ldr    r2, [pc, #92]  ; (93c <SystemInit+0x320>)
		   8de:   675a          str    r2, [r3, #116] ; 0x74
		-> 8e0:   e6b9          b.n    656 <SystemInit+0x3a>
		   8e2:   4a17          ldr    r2, [pc, #92]  ; (940 <SystemInit+0x324>)
		   8e4:   5cd3          ldrb   r3, [r2, r3]
		   8e6:   2b00          cmp    r3, #0
		   8e8:   f43f af08     beq.w  6fc <SystemInit+0xe0>
		--------------------
	(     a1a,      a1c)	
		--------------------
		   a12:   10a4          asrs   r4, r4, #2
		   a14:   2600          movs   r6, #0
		   a16:   42a6          cmp    r6, r4
		   a18:   d105          bne.n  a26 <__libc_init_array+0x2e>
		-> a1a:   bd70          pop    {r4, r5, r6, pc}
		   a1c:   f855 3b04     ldr.w  r3, [r5], #4
		   a20:   4798          blx    r3
		   a22:   3601          adds   r6, #1
		   a24:   e7ee          b.n    a04 <__libc_init_array+0xc>
		--------------------
	(     a6a,      a6c)	
		--------------------
		  00000a68 <__retarget_lock_acquire_recursive>:
		   a68:   4770          bx lr
		  
		  00000a6a <__retarget_lock_release_recursive>:
		-> a6a:   4770          bx lr
		  
		  00000a6c <__register_exitproc>:
		   a6c:   e92d 43f8     stmdb  sp!, {r3, r4, r5, r6, r7, r8, r9, lr}
		   a70:   f8df 80b0     ldr.w  r8, [pc, #176]   ; b24 <__register_exitproc+0xb8>
		--------------------
	(     aaa,      aae)	
		--------------------
		   a9c:   dd07          ble.n  aae <__register_exitproc+0x42>
		   a9e:   f8d8 0000     ldr.w  r0, [r8]
		   aa2:   f7ff ffe2     bl a6a <__retarget_lock_release_recursive>
		   aa6:   f04f 30ff     mov.w  r0, #4294967295  ; 0xffffffff
		-> aaa:   e8bd 83f8     ldmia.w    sp!, {r3, r4, r5, r6, r7, r8, r9, pc}
		   aae:   b32e          cbz    r6, afc <__register_exitproc+0x90>
		   ab0:   f8d4 0088     ldr.w  r0, [r4, #136]   ; 0x88
		   ab4:   b968          cbnz   r0, ad2 <__register_exitproc+0x66>
		   ab6:   4b1a          ldr    r3, [pc, #104] ; (b20 <__register_exitproc+0xb4>)
		--------------------
	(     aba,      ad2)	
		--------------------
		   ab0:   f8d4 0088     ldr.w  r0, [r4, #136]   ; 0x88
		   ab4:   b968          cbnz   r0, ad2 <__register_exitproc+0x66>
		   ab6:   4b1a          ldr    r3, [pc, #104] ; (b20 <__register_exitproc+0xb4>)
		   ab8:   2b00          cmp    r3, #0
		-> aba:   d0f0          beq.n  a9e <__register_exitproc+0x32>
		   abc:   f44f 7084     mov.w  r0, #264 ; 0x108
		   ac0:   f3af 8000     nop.w
		   ac4:   2800          cmp    r0, #0
		   ac6:   d0ea          beq.n  a9e <__register_exitproc+0x32>
		--------------------
	(     aba,      afc)	
		--------------------
		   ab0:   f8d4 0088     ldr.w  r0, [r4, #136]   ; 0x88
		   ab4:   b968          cbnz   r0, ad2 <__register_exitproc+0x66>
		   ab6:   4b1a          ldr    r3, [pc, #104] ; (b20 <__register_exitproc+0xb4>)
		   ab8:   2b00          cmp    r3, #0
		-> aba:   d0f0          beq.n  a9e <__register_exitproc+0x32>
		   abc:   f44f 7084     mov.w  r0, #264 ; 0x108
		   ac0:   f3af 8000     nop.w
		   ac4:   2800          cmp    r0, #0
		   ac6:   d0ea          beq.n  a9e <__register_exitproc+0x32>
		--------------------

timer-o3: 11 | 11
	(     36a,      36c)	
		--------------------
		   35a:   f8c3 2738     str.w  r2, [r3, #1848]  ; 0x738
		   35e:   f8c3 273c     str.w  r2, [r3, #1852]  ; 0x73c
		   362:   f8c3 2740     str.w  r2, [r3, #1856]  ; 0x740
		   366:   f85d 4b04     ldr.w  r4, [sp], #4
		-> 36a:   4770          bx lr
		  
		  0000036c <app_error_handler_bare>:
		   36c:   b500          push   {lr}
		   36e:   b085          sub    sp, #20
		--------------------
	(     498,      49c)	
		--------------------
		   48c:   f8c0 3510     str.w  r3, [r0, #1296]  ; 0x510
		   490:   2000          movs   r0, #0
		   492:   f888 4008     strb.w r4, [r8, #8]
		   496:   b002          add    sp, #8
		-> 498:   e8bd 81f0     ldmia.w    sp!, {r4, r5, r6, r7, r8, pc}
		   49c:   4c07          ldr    r4, [pc, #28]  ; (4bc <nrfx_timer_init+0x100>)
		   49e:   f002 020f     and.w  r2, r2, #15
		   4a2:   015b          lsls   r3, r3, #5
		   4a4:   b2db          uxtb   r3, r3
		--------------------
	(     4ae,      4b2)	
		--------------------
		   4a6:   54a3          strb   r3, [r4, r2]
		   4a8:   e7be          b.n    428 <nrfx_timer_init+0x6c>
		   4aa:   2008          movs   r0, #8
		   4ac:   b002          add    sp, #8
		-> 4ae:   e8bd 81f0     ldmia.w    sp!, {r4, r5, r6, r7, r8, pc}
		   4b2:   bf00          nop
		   4b4:   2000002c  .word   0x2000002c
		   4b8:   e000e100  .word   0xe000e100
		   4bc:   e000ed14  .word   0xe000ed14
		--------------------
	(     56e,      570)	
		--------------------
		   562:   f5a5 4000     sub.w  r0, r5, #32768   ; 0x8000
		   566:   421a          tst    r2, r3
		   568:   f04f 0100     mov.w  r1, #0
		   56c:   b280          uxth   r0, r0
		-> 56e:   d006          beq.n  57e <TIMER0_IRQHandler+0x3e>
		   570:   6029          str    r1, [r5, #0]
		   572:   682b          ldr    r3, [r5, #0]
		   574:   9301          str    r3, [sp, #4]
		   576:   e9d8 3100     ldrd   r3, r1, [r8]
		--------------------
	(     5a8,      5aa)	
		--------------------
		   59c:   f5b0 7fa0     cmp.w  r0, #320 ; 0x140
		   5a0:   f102 0101     add.w  r1, r2, #1
		   5a4:   6019          str    r1, [r3, #0]
		   5a6:   d000          beq.n  5aa <timer_led_event_handler+0x12>
		-> 5a8:   4770          bx lr
		   5aa:   f002 0003     and.w  r0, r2, #3
		   5ae:   f7ff be9d     b.w    2ec <bsp_board_led_invert>
		   5b2:   bf00          nop
		   5b4:   20000038  .word   0x20000038
		--------------------
	(     8c4,      652)	
		--------------------
		   8ba:   f43f aeca     beq.w  652 <SystemInit+0x3a>
		   8be:   4b35          ldr    r3, [pc, #212] ; (994 <SystemInit+0x37c>)
		   8c0:   4a35          ldr    r2, [pc, #212] ; (998 <SystemInit+0x380>)
		   8c2:   675a          str    r2, [r3, #116] ; 0x74
		-> 8c4:   e6c5          b.n    652 <SystemInit+0x3a>
		   8c6:   f04f 4370     mov.w  r3, #4026531840  ; 0xf0000000
		   8ca:   f893 3fe0     ldrb.w r3, [r3, #4064] ; 0xfe0
		   8ce:   2b06          cmp    r3, #6
		   8d0:   f47f af03     bne.w  6da <SystemInit+0xc2>
		--------------------
	(     a06,      a08)	
		--------------------
		   9fe:   10a4          asrs   r4, r4, #2
		   a00:   2600          movs   r6, #0
		   a02:   42a6          cmp    r6, r4
		   a04:   d105          bne.n  a12 <__libc_init_array+0x2e>
		-> a06:   bd70          pop    {r4, r5, r6, pc}
		   a08:   f855 3b04     ldr.w  r3, [r5], #4
		   a0c:   4798          blx    r3
		   a0e:   3601          adds   r6, #1
		   a10:   e7ee          b.n    9f0 <__libc_init_array+0xc>
		--------------------
	(     a56,      a58)	
		--------------------
		  00000a54 <__retarget_lock_acquire_recursive>:
		   a54:   4770          bx lr
		  
		  00000a56 <__retarget_lock_release_recursive>:
		-> a56:   4770          bx lr
		  
		  00000a58 <__register_exitproc>:
		   a58:   e92d 43f8     stmdb  sp!, {r3, r4, r5, r6, r7, r8, r9, lr}
		   a5c:   f8df 80b0     ldr.w  r8, [pc, #176]   ; b10 <__register_exitproc+0xb8>
		--------------------
	(     a96,      a9a)	
		--------------------
		   a88:   dd07          ble.n  a9a <__register_exitproc+0x42>
		   a8a:   f8d8 0000     ldr.w  r0, [r8]
		   a8e:   f7ff ffe2     bl a56 <__retarget_lock_release_recursive>
		   a92:   f04f 30ff     mov.w  r0, #4294967295  ; 0xffffffff
		-> a96:   e8bd 83f8     ldmia.w    sp!, {r3, r4, r5, r6, r7, r8, r9, pc}
		   a9a:   b32e          cbz    r6, ae8 <__register_exitproc+0x90>
		   a9c:   f8d4 0088     ldr.w  r0, [r4, #136]   ; 0x88
		   aa0:   b968          cbnz   r0, abe <__register_exitproc+0x66>
		   aa2:   4b1a          ldr    r3, [pc, #104] ; (b0c <__register_exitproc+0xb4>)
		--------------------
	(     aa6,      abe)	
		--------------------
		   a9c:   f8d4 0088     ldr.w  r0, [r4, #136]   ; 0x88
		   aa0:   b968          cbnz   r0, abe <__register_exitproc+0x66>
		   aa2:   4b1a          ldr    r3, [pc, #104] ; (b0c <__register_exitproc+0xb4>)
		   aa4:   2b00          cmp    r3, #0
		-> aa6:   d0f0          beq.n  a8a <__register_exitproc+0x32>
		   aa8:   f44f 7084     mov.w  r0, #264 ; 0x108
		   aac:   f3af 8000     nop.w
		   ab0:   2800          cmp    r0, #0
		   ab2:   d0ea          beq.n  a8a <__register_exitproc+0x32>
		--------------------
	(     aa6,      ae8)	
		--------------------
		   a9c:   f8d4 0088     ldr.w  r0, [r4, #136]   ; 0x88
		   aa0:   b968          cbnz   r0, abe <__register_exitproc+0x66>
		   aa2:   4b1a          ldr    r3, [pc, #104] ; (b0c <__register_exitproc+0xb4>)
		   aa4:   2b00          cmp    r3, #0
		-> aa6:   d0f0          beq.n  a8a <__register_exitproc+0x32>
		   aa8:   f44f 7084     mov.w  r0, #264 ; 0x108
		   aac:   f3af 8000     nop.w
		   ab0:   2800          cmp    r0, #0
		   ab2:   d0ea          beq.n  a8a <__register_exitproc+0x32>
		--------------------

twi_sensor-o0: 25 | 249
	(     704,      6de)	
		--------------------
		       6fa:   bf00          nop
		       6fc:   370c          adds   r7, #12
		       6fe:   46bd          mov    sp, r7
		       700:   f85d 7b04     ldr.w  r7, [sp], #4
		->     704:   4770          bx lr
		  
		  00000706 <nrf_log_backend_id_get>:
		       706:   b480          push   {r7}
		       708:   b083          sub    sp, #12
		--------------------
	(    11ac,     1564)	
		--------------------
		      11a2:   bf00          nop
		      11a4:   370c          adds   r7, #12
		      11a6:   46bd          mov    sp, r7
		      11a8:   f85d 7b04     ldr.w  r7, [sp], #4
		->    11ac:   4770          bx lr
		      ...
		  
		  000011b0 <prefix_process>:
		      11b0:   b590          push   {r4, r7, lr}
		--------------------
	(    2122,     2124)	
		--------------------
		      2118:   f7ff ffa0     bl 205c <nrf_memobj_free>
		      211c:   bf00          nop
		      211e:   3718          adds   r7, #24
		      2120:   46bd          mov    sp, r7
		->    2122:   bd80          pop    {r7, pc}
		  
		  00002124 <memobj_op>:
		      2124:   b580          push   {r7, lr}
		      2126:   b090          sub    sp, #64    ; 0x40
		--------------------
	(    230a,     2482)	
		--------------------
		      2300:   4618          mov    r0, r3
		      2302:   370c          adds   r7, #12
		      2304:   46bd          mov    sp, r7
		      2306:   f85d 7b04     ldr.w  r7, [sp], #4
		->    230a:   4770          bx lr
		  
		  0000230c <nrf_gpio_pin_set>:
		      230c:   b580          push   {r7, lr}
		      230e:   b084          sub    sp, #16
		--------------------
	(    2af6,     3100)	
		--------------------
		      2aec:   bf00          nop
		      2aee:   3714          adds   r7, #20
		      2af0:   46bd          mov    sp, r7
		      2af2:   f85d 7b04     ldr.w  r7, [sp], #4
		->    2af6:   4770          bx lr
		  
		  00002af8 <nrf_twim_shorts_set>:
		      2af8:   b480          push   {r7}
		      2afa:   b083          sub    sp, #12
		--------------------
	(    2cee,     2d4c)	
		--------------------
		      2ce6:   4602          mov    r2, r0
		      2ce8:   683b          ldr    r3, [r7, #0]
		      2cea:   695b          ldr    r3, [r3, #20]
		      2cec:   429a          cmp    r2, r3
		->    2cee:   d02d          beq.n  2d4c <xfer_completeness_check+0xc0>
		      2cf0:   2300          movs   r3, #0
		      2cf2:   73fb          strb   r3, [r7, #15]
		      2cf4:   e02a          b.n    2d4c <xfer_completeness_check+0xc0>
		      2cf6:   6878          ldr    r0, [r7, #4]
		--------------------
	(    303a,     2890)	
		--------------------
		      3030:   00003035  .word   0x00003035
		      3034:   687b          ldr    r3, [r7, #4]
		      3036:   691b          ldr    r3, [r3, #16]
		      3038:   4618          mov    r0, r3
		->    303a:   f7ff fc29     bl 2890 <nrfx_is_in_ram>
		      303e:   4603          mov    r3, r0
		      3040:   f083 0301     eor.w  r3, r3, #1
		      3044:   b2db          uxtb   r3, r3
		      3046:   2b00          cmp    r3, #0
		--------------------
	(    3058,     305c)	
		--------------------
		      304e:   69fb          ldr    r3, [r7, #28]
		      3050:   e155          b.n    32fe <twim_xfer+0x3e2>
		      3052:   f44f 7180     mov.w  r1, #256 ; 0x100
		      3056:   68b8          ldr    r0, [r7, #8]
		->    3058:   f7ff fd4e     bl 2af8 <nrf_twim_shorts_set>
		      305c:   687b          ldr    r3, [r7, #4]
		      305e:   68d9          ldr    r1, [r3, #12]
		      3060:   687b          ldr    r3, [r7, #4]
		      3062:   685b          ldr    r3, [r3, #4]
		--------------------
	(    3068,     2aa8)	
		--------------------
		      3060:   687b          ldr    r3, [r7, #4]
		      3062:   685b          ldr    r3, [r3, #4]
		      3064:   461a          mov    r2, r3
		      3066:   68b8          ldr    r0, [r7, #8]
		->    3068:   f7ff fd1e     bl 2aa8 <nrf_twim_tx_buffer_set>
		      306c:   f44f 71a8     mov.w  r1, #336 ; 0x150
		      3070:   68b8          ldr    r0, [r7, #8]
		      3072:   f7ff fc6d     bl 2950 <nrf_twim_event_clear>
		      3076:   2120          movs   r1, #32
		--------------------
	(    3072,     2950)	
		--------------------
		      3066:   68b8          ldr    r0, [r7, #8]
		      3068:   f7ff fd1e     bl 2aa8 <nrf_twim_tx_buffer_set>
		      306c:   f44f 71a8     mov.w  r1, #336 ; 0x150
		      3070:   68b8          ldr    r0, [r7, #8]
		->    3072:   f7ff fc6d     bl 2950 <nrf_twim_event_clear>
		      3076:   2120          movs   r1, #32
		      3078:   68b8          ldr    r0, [r7, #8]
		      307a:   f7ff fc58     bl 292e <nrf_twim_task_trigger>
		      307e:   2108          movs   r1, #8
		--------------------
	(    3086,     3088)	
		--------------------
		      307a:   f7ff fc58     bl 292e <nrf_twim_task_trigger>
		      307e:   2108          movs   r1, #8
		      3080:   68b8          ldr    r0, [r7, #8]
		      3082:   f7ff fc54     bl 292e <nrf_twim_task_trigger>
		->    3086:   bf00          nop
		      3088:   f44f 71a8     mov.w  r1, #336 ; 0x150
		      308c:   68b8          ldr    r0, [r7, #8]
		      308e:   f7ff fc76     bl 297e <nrf_twim_event_check>
		      3092:   4603          mov    r3, r0
		--------------------
	(    30d8,     30dc)	
		--------------------
		      30ce:   f7ff fceb     bl 2aa8 <nrf_twim_tx_buffer_set>
		      30d2:   687b          ldr    r3, [r7, #4]
		      30d4:   691b          ldr    r3, [r3, #16]
		      30d6:   4618          mov    r0, r3
		->    30d8:   f7ff fbda     bl 2890 <nrfx_is_in_ram>
		      30dc:   4603          mov    r3, r0
		      30de:   f083 0301     eor.w  r3, r3, #1
		      30e2:   b2db          uxtb   r3, r3
		      30e4:   2b00          cmp    r3, #0
		--------------------
	(    30fc,     2ad0)	
		--------------------
		      30f4:   687b          ldr    r3, [r7, #4]
		      30f6:   689b          ldr    r3, [r3, #8]
		      30f8:   461a          mov    r2, r3
		      30fa:   68b8          ldr    r0, [r7, #8]
		->    30fc:   f7ff fce8     bl 2ad0 <nrf_twim_rx_buffer_set>
		      3100:   f44f 5184     mov.w  r1, #4224    ; 0x1080
		      3104:   68b8          ldr    r0, [r7, #8]
		      3106:   f7ff fcf7     bl 2af8 <nrf_twim_shorts_set>
		      310a:   68fb          ldr    r3, [r7, #12]
		--------------------
	(    316e,     3172)	
		--------------------
		      3166:   687b          ldr    r3, [r7, #4]
		      3168:   685b          ldr    r3, [r3, #4]
		      316a:   461a          mov    r2, r3
		      316c:   68b8          ldr    r0, [r7, #8]
		->    316e:   f7ff fcaf     bl 2ad0 <nrf_twim_rx_buffer_set>
		      3172:   f44f 5180     mov.w  r1, #4096    ; 0x1000
		      3176:   68b8          ldr    r0, [r7, #8]
		      3178:   f7ff fcbe     bl 2af8 <nrf_twim_shorts_set>
		      317c:   68fb          ldr    r3, [r7, #12]
		--------------------
	(    531e,     5326)	
		--------------------
		      5316:   e006          b.n    5326 <nrf52_errata_12+0x6e>
		      5318:   2301          movs   r3, #1
		      531a:   e004          b.n    5326 <nrf52_errata_12+0x6e>
		      531c:   2301          movs   r3, #1
		->    531e:   e002          b.n    5326 <nrf52_errata_12+0x6e>
		      5320:   2301          movs   r3, #1
		      5322:   e000          b.n    5326 <nrf52_errata_12+0x6e>
		      5324:   2300          movs   r3, #0
		      5326:   4618          mov    r0, r3
		--------------------
	(    53f2,     5408)	
		--------------------
		      53ea:   3b03          subs   r3, #3
		      53ec:   2b03          cmp    r3, #3
		      53ee:   d813          bhi.n  5418 <nrf52_errata_31+0x68>
		      53f0:   a201          add    r2, pc, #4 ; (adr r2, 53f8 <nrf52_errata_31+0x48>)
		->    53f2:   f852 f023     ldr.w  pc, [r2, r3, lsl #2]
		      53f6:   bf00          nop
		      53f8:   00005409  .word   0x00005409
		      53fc:   0000540d  .word   0x0000540d
		      5400:   00005411  .word   0x00005411
		--------------------
	(    555e,     5574)	
		--------------------
		      5556:   3b03          subs   r3, #3
		      5558:   2b03          cmp    r3, #3
		      555a:   d813          bhi.n  5584 <nrf52_errata_37+0x50>
		      555c:   a201          add    r2, pc, #4 ; (adr r2, 5564 <nrf52_errata_37+0x30>)
		->    555e:   f852 f023     ldr.w  pc, [r2, r3, lsl #2]
		      5562:   bf00          nop
		      5564:   00005575  .word   0x00005575
		      5568:   00005579  .word   0x00005579
		      556c:   0000557d  .word   0x0000557d
		--------------------
	(    555e,     557c)	
		--------------------
		      5556:   3b03          subs   r3, #3
		      5558:   2b03          cmp    r3, #3
		      555a:   d813          bhi.n  5584 <nrf52_errata_37+0x50>
		      555c:   a201          add    r2, pc, #4 ; (adr r2, 5564 <nrf52_errata_37+0x30>)
		->    555e:   f852 f023     ldr.w  pc, [r2, r3, lsl #2]
		      5562:   bf00          nop
		      5564:   00005575  .word   0x00005575
		      5568:   00005579  .word   0x00005579
		      556c:   0000557d  .word   0x0000557d
		--------------------
	(    55e2,     55f6)	
		--------------------
		      55d4:   000055e5  .word   0x000055e5
		      55d8:   000055e9  .word   0x000055e9
		      55dc:   000055ed  .word   0x000055ed
		      55e0:   2301          movs   r3, #1
		->    55e2:   e008          b.n    55f6 <nrf52_errata_57+0x56>
		      55e4:   2300          movs   r3, #0
		      55e6:   e006          b.n    55f6 <nrf52_errata_57+0x56>
		      55e8:   2300          movs   r3, #0
		      55ea:   e004          b.n    55f6 <nrf52_errata_57+0x56>
		--------------------
	(    55ee,     55f6)	
		--------------------
		      55e6:   e006          b.n    55f6 <nrf52_errata_57+0x56>
		      55e8:   2300          movs   r3, #0
		      55ea:   e004          b.n    55f6 <nrf52_errata_57+0x56>
		      55ec:   2300          movs   r3, #0
		->    55ee:   e002          b.n    55f6 <nrf52_errata_57+0x56>
		      55f0:   2300          movs   r3, #0
		      55f2:   e000          b.n    55f6 <nrf52_errata_57+0x56>
		      55f4:   2300          movs   r3, #0
		      55f6:   4618          mov    r0, r3
		--------------------
	(    56fe,     5706)	
		--------------------
		      56f6:   e006          b.n    5706 <nrf52_errata_108+0x6e>
		      56f8:   2301          movs   r3, #1
		      56fa:   e004          b.n    5706 <nrf52_errata_108+0x6e>
		      56fc:   2301          movs   r3, #1
		->    56fe:   e002          b.n    5706 <nrf52_errata_108+0x6e>
		      5700:   2301          movs   r3, #1
		      5702:   e000          b.n    5706 <nrf52_errata_108+0x6e>
		      5704:   2300          movs   r3, #0
		      5706:   4618          mov    r0, r3
		--------------------
	(    57d2,     57e8)	
		--------------------
		      57ca:   3b03          subs   r3, #3
		      57cc:   2b03          cmp    r3, #3
		      57ce:   d813          bhi.n  57f8 <nrf52_errata_182+0x48>
		      57d0:   a201          add    r2, pc, #4 ; (adr r2, 57d8 <nrf52_errata_182+0x28>)
		->    57d2:   f852 f023     ldr.w  pc, [r2, r3, lsl #2]
		      57d6:   bf00          nop
		      57d8:   000057e9  .word   0x000057e9
		      57dc:   000057ed  .word   0x000057ed
		      57e0:   000057f1  .word   0x000057f1
		--------------------
	(    5be4,     5be6)	
		--------------------
		  00005bdc <strlen>:
		      5bdc:   4603          mov    r3, r0
		      5bde:   f813 2b01     ldrb.w r2, [r3], #1
		      5be2:   2a00          cmp    r2, #0
		->    5be4:   d1fb          bne.n  5bde <strlen+0x2>
		      5be6:   1a18          subs   r0, r3, r0
		      5be8:   3801          subs   r0, #1
		      5bea:   4770          bx lr
		  
		--------------------
	(    5bea,     21f2)	
		--------------------
		      5be2:   2a00          cmp    r2, #0
		      5be4:   d1fb          bne.n  5bde <strlen+0x2>
		      5be6:   1a18          subs   r0, r3, r0
		      5be8:   3801          subs   r0, #1
		->    5bea:   4770          bx lr
		  
		  00005bec <__register_exitproc>:
		      5bec:   e92d 43f8     stmdb  sp!, {r3, r4, r5, r6, r7, r8, r9, lr}
		      5bf0:   f8df 80b0     ldr.w  r8, [pc, #176]   ; 5ca4 <__register_exitproc+0xb8>
		--------------------
	(    5c3a,     5c7c)	
		--------------------
		      5c30:   f8d4 0088     ldr.w  r0, [r4, #136]   ; 0x88
		      5c34:   b968          cbnz   r0, 5c52 <__register_exitproc+0x66>
		      5c36:   4b1a          ldr    r3, [pc, #104] ; (5ca0 <__register_exitproc+0xb4>)
		      5c38:   2b00          cmp    r3, #0
		->    5c3a:   d0f0          beq.n  5c1e <__register_exitproc+0x32>
		      5c3c:   f44f 7084     mov.w  r0, #264 ; 0x108
		      5c40:   f3af 8000     nop.w
		      5c44:   2800          cmp    r0, #0
		      5c46:   d0ea          beq.n  5c1e <__register_exitproc+0x32>
		--------------------

twi_sensor-o1: 0 | 0

twi_sensor-o2: 20 | 82
	(     7f8,      7fc)	
		--------------------
		       7f0:   441d          add    r5, r3
		       7f2:   e79a          b.n    72a <nrf_log_frontend_dequeue+0x46>
		       7f4:   60a6          str    r6, [r4, #8]
		       7f6:   b005          add    sp, #20
		->     7f8:   e8bd 83f0     ldmia.w    sp!, {r4, r5, r6, r7, r8, r9, pc}
		       7fc:   2000          movs   r0, #0
		       7fe:   b005          add    sp, #20
		       800:   e8bd 83f0     ldmia.w    sp!, {r4, r5, r6, r7, r8, r9, pc}
		       804:   f8bd 3006     ldrh.w r3, [sp, #6]
		--------------------
	(     898,      89c)	
		--------------------
		       890:   4639          mov    r1, r7
		       892:   b11a          cbz    r2, 89c <nrf_log_frontend_dequeue+0x1b8>
		       894:   682b          ldr    r3, [r5, #0]
		       896:   681b          ldr    r3, [r3, #0]
		->     898:   4798          blx    r3
		       89a:   68eb          ldr    r3, [r5, #12]
		       89c:   681d          ldr    r5, [r3, #0]
		       89e:   e7f2          b.n    886 <nrf_log_frontend_dequeue+0x1a2>
		       8a0:   f8bd 2004     ldrh.w r2, [sp, #4]
		--------------------
	(     b38,      b3a)	
		--------------------
		       b2e:   f000 fa0b     bl f48 <nrf_fprintf>
		       b32:   7a23          ldrb   r3, [r4, #8]
		       b34:   e7e1          b.n    afa <prefix_process.constprop.0+0x16>
		       b36:   b005          add    sp, #20
		->     b38:   bd30          pop    {r4, r5, pc}
		       b3a:   4908          ldr    r1, [pc, #32]  ; (b5c <prefix_process.constprop.0+0x78>)
		       b3c:   9100          str    r1, [sp, #0]
		       b3e:   4a08          ldr    r2, [pc, #32]  ; (b60 <prefix_process.constprop.0+0x7c>)
		       b40:   4908          ldr    r1, [pc, #32]  ; (b64 <prefix_process.constprop.0+0x80>)
		--------------------
	(     d7a,      d80)	
		--------------------
		       d76:   bf00          nop
		  
		  00000d78 <app_error_fault_handler>:
		       d78:   b510          push   {r4, lr}
		->     d7a:   b672          cpsid  i
		       d7c:   f7ff fe9e     bl abc <nrf_log_panic>
		       d80:   f7ff fcb0     bl 6e4 <nrf_log_frontend_dequeue>
		       d84:   2800          cmp    r0, #0
		       d86:   d1fb          bne.n  d80 <app_error_fault_handler+0x8>
		--------------------
	(     e00,      f00)	
		--------------------
		       df8:   3b01          subs   r3, #1
		       dfa:   6013          str    r3, [r2, #0]
		       dfc:   b903          cbnz   r3, e00 <app_util_critical_region_exit+0xc>
		       dfe:   b662          cpsie  i
		->     e00:   4770          bx lr
		       e02:   bf00          nop
		       e04:   20000618  .word   0x20000618
		  
		  00000e08 <nrf_atomic_u32_fetch_store>:
		--------------------
	(     e1a,      e1c)	
		--------------------
		       e0e:   460a          mov    r2, r1
		       e10:   e843 2c00     strex  ip, r2, [r3]
		       e14:   f09c 0f00     teq    ip, #0
		       e18:   d1f7          bne.n  e0a <nrf_atomic_u32_fetch_store+0x2>
		->     e1a:   4770          bx lr
		  
		  00000e1c <nrf_atomic_u32_add>:
		       e1c:   4603          mov    r3, r0
		       e1e:   e853 2f00     ldrex  r2, [r3]
		--------------------
	(     e30,      830)	
		--------------------
		       e22:   eb02 0001     add.w  r0, r2, r1
		       e26:   e843 0c00     strex  ip, r0, [r3]
		       e2a:   f09c 0f00     teq    ip, #0
		       e2e:   d1f6          bne.n  e1e <nrf_atomic_u32_add+0x2>
		->     e30:   4770          bx lr
		       e32:   bf00          nop
		  
		  00000e34 <nrf_atomic_u32_sub>:
		       e34:   4603          mov    r3, r0
		--------------------
	(     f3e,      f46)	
		--------------------
		       f36:   4604          mov    r4, r0
		       f38:   6943          ldr    r3, [r0, #20]
		       f3a:   6801          ldr    r1, [r0, #0]
		       f3c:   6900          ldr    r0, [r0, #16]
		->     f3e:   4798          blx    r3
		       f40:   2300          movs   r3, #0
		       f42:   60a3          str    r3, [r4, #8]
		       f44:   bd10          pop    {r4, pc}
		       f46:   4770          bx lr
		--------------------
	(     f46,     145c)	
		--------------------
		       f3e:   4798          blx    r3
		       f40:   2300          movs   r3, #0
		       f42:   60a3          str    r3, [r4, #8]
		       f44:   bd10          pop    {r4, pc}
		->     f46:   4770          bx lr
		  
		  00000f48 <nrf_fprintf>:
		       f48:   b40e          push   {r1, r2, r3}
		       f4a:   b500          push   {lr}
		--------------------
	(     f46,     14d0)	
		--------------------
		       f3e:   4798          blx    r3
		       f40:   2300          movs   r3, #0
		       f42:   60a3          str    r3, [r4, #8]
		       f44:   bd10          pop    {r4, pc}
		->     f46:   4770          bx lr
		  
		  00000f48 <nrf_fprintf>:
		       f48:   b40e          push   {r1, r2, r3}
		       f4a:   b500          push   {lr}
		--------------------
	(     f46,     14f4)	
		--------------------
		       f3e:   4798          blx    r3
		       f40:   2300          movs   r3, #0
		       f42:   60a3          str    r3, [r4, #8]
		       f44:   bd10          pop    {r4, pc}
		->     f46:   4770          bx lr
		  
		  00000f48 <nrf_fprintf>:
		       f48:   b40e          push   {r1, r2, r3}
		       f4a:   b500          push   {lr}
		--------------------
	(     f46,     1518)	
		--------------------
		       f3e:   4798          blx    r3
		       f40:   2300          movs   r3, #0
		       f42:   60a3          str    r3, [r4, #8]
		       f44:   bd10          pop    {r4, pc}
		->     f46:   4770          bx lr
		  
		  00000f48 <nrf_fprintf>:
		       f48:   b40e          push   {r1, r2, r3}
		       f4a:   b500          push   {lr}
		--------------------
	(    1952,     195a)	
		--------------------
		      194a:   4669          mov    r1, sp
		      194c:   bf08          it eq
		      194e:   4622          moveq  r2, r4
		      1950:   1d28          adds   r0, r5, #4
		->    1952:   f000 ffd1     bl 28f8 <nrfx_uarte_init>
		      1956:   b009          add    sp, #36    ; 0x24
		      1958:   bdf0          pop    {r4, r5, r6, r7, pc}
		      195a:   2c00          cmp    r4, #0
		      195c:   4a08          ldr    r2, [pc, #32]  ; (1980 <nrf_drv_uart_init+0x70>)
		--------------------
	(    19da,     2922)	
		--------------------
		      19d2:   4b03          ldr    r3, [pc, #12]  ; (19e0 <nrfx_prs_release+0x14>)
		      19d4:   2200          movs   r2, #0
		      19d6:   601a          str    r2, [r3, #0]
		      19d8:   711a          strb   r2, [r3, #4]
		->    19da:   4770          bx lr
		      19dc:   40002000  .word   0x40002000
		      19e0:   20000638  .word   0x20000638
		  
		  000019e4 <xfer_completeness_check>:
		--------------------
	(    1e9e,     1ea0)	
		--------------------
		      1e94:   615a          str    r2, [r3, #20]
		      1e96:   2301          movs   r3, #1
		      1e98:   f884 302e     strb.w r3, [r4, #46]   ; 0x2e
		      1e9c:   b00d          add    sp, #52    ; 0x34
		->    1e9e:   bdf0          pop    {r4, r5, r6, r7, pc}
		      1ea0:   4b2a          ldr    r3, [pc, #168] ; (1f4c <SPIM0_SPIS0_TWIM0_TWIS0_SPI0_TWI0_IRQHandler+0x20c>)
		      1ea2:   4a29          ldr    r2, [pc, #164] ; (1f48 <SPIM0_SPIS0_TWIM0_TWIS0_SPI0_TWI0_IRQHandler+0x208>)
		      1ea4:   f8c5 6200     str.w  r6, [r5, #512]   ; 0x200
		      1ea8:   60a6          str    r6, [r4, #8]
		--------------------
	(    250e,     253e)	
		--------------------
		      2502:   682a          ldr    r2, [r5, #0]
		      2504:   f342 3107     sbfx   r1, r2, #12, #8
		      2508:   2900          cmp    r1, #0
		      250a:   ea4f 3212     mov.w  r2, r2, lsr #12
		->    250e:   db31          blt.n  2574 <nrfx_uart_init+0x134>
		      2510:   f101 4160     add.w  r1, r1, #3758096384  ; 0xe0000000
		      2514:   015b          lsls   r3, r3, #5
		      2516:   f501 4161     add.w  r1, r1, #57600   ; 0xe100
		      251a:   b2db          uxtb   r3, r3
		--------------------
	(    2560,     2564)	
		--------------------
		      2554:   f886 3029     strb.w r3, [r6, #41]   ; 0x29
		      2558:   6173          str    r3, [r6, #20]
		      255a:   f886 202a     strb.w r2, [r6, #42]   ; 0x2a
		      255e:   b002          add    sp, #8
		->    2560:   e8bd 81f0     ldmia.w    sp!, {r4, r5, r6, r7, r8, pc}
		      2564:   2011          movs   r0, #17
		      2566:   b002          add    sp, #8
		      2568:   e8bd 81f0     ldmia.w    sp!, {r4, r5, r6, r7, r8, pc}
		      256c:   2008          movs   r0, #8
		--------------------
	(    2a5c,     2a60)	
		--------------------
		      2a52:   b007          add    sp, #28
		      2a54:   e8bd 83f0     ldmia.w    sp!, {r4, r5, r6, r7, r8, r9, pc}
		      2a58:   2008          movs   r0, #8
		      2a5a:   b007          add    sp, #28
		->    2a5c:   e8bd 83f0     ldmia.w    sp!, {r4, r5, r6, r7, r8, r9, pc}
		      2a60:   4918          ldr    r1, [pc, #96]  ; (2ac4 <nrfx_uarte_init+0x1cc>)
		      2a62:   f002 020f     and.w  r2, r2, #15
		      2a66:   015b          lsls   r3, r3, #5
		      2a68:   b2db          uxtb   r3, r3
		--------------------
	(    3242,     3244)	
		--------------------
		      323a:   10a4          asrs   r4, r4, #2
		      323c:   2600          movs   r6, #0
		      323e:   42a6          cmp    r6, r4
		      3240:   d105          bne.n  324e <__libc_init_array+0x2e>
		->    3242:   bd70          pop    {r4, r5, r6, pc}
		      3244:   f855 3b04     ldr.w  r3, [r5], #4
		      3248:   4798          blx    r3
		      324a:   3601          adds   r6, #1
		      324c:   e7ee          b.n    322c <__libc_init_array+0xc>
		--------------------
	(    330e,     3350)	
		--------------------
		      3304:   f8d4 0088     ldr.w  r0, [r4, #136]   ; 0x88
		      3308:   b968          cbnz   r0, 3326 <__register_exitproc+0x66>
		      330a:   4b1a          ldr    r3, [pc, #104] ; (3374 <__register_exitproc+0xb4>)
		      330c:   2b00          cmp    r3, #0
		->    330e:   d0f0          beq.n  32f2 <__register_exitproc+0x32>
		      3310:   f44f 7084     mov.w  r0, #264 ; 0x108
		      3314:   f3af 8000     nop.w
		      3318:   2800          cmp    r0, #0
		      331a:   d0ea          beq.n  32f2 <__register_exitproc+0x32>
		--------------------

twi_sensor-o3: 20 | 84
	(     5a6,      5a8)	
		--------------------
		       59e:   b100          cbz    r0, 5a2 <log_skip+0x86>
		       5a0:   60ac          str    r4, [r5, #8]
		       5a2:   4630          mov    r0, r6
		       5a4:   b004          add    sp, #16
		->     5a6:   bd70          pop    {r4, r5, r6, pc}
		       5a8:   2600          movs   r6, #0
		       5aa:   e7f5          b.n    598 <log_skip+0x7c>
		       5ac:   8843          ldrh   r3, [r0, #2]
		       5ae:   eb06 1393     add.w  r3, r6, r3, lsr #6
		--------------------
	(     95a,      95e)	
		--------------------
		       950:   60ca          str    r2, [r1, #12]
		       952:   f844 3027     str.w  r3, [r4, r7, lsl #2]
		       956:   7823          ldrb   r3, [r4, #0]
		       958:   b90b          cbnz   r3, 95e <nrf_log_frontend_std_0+0x92>
		->     95a:   e8bd 81f0     ldmia.w    sp!, {r4, r5, r6, r7, r8, pc}
		       95e:   f7ff fe91     bl 684 <nrf_log_frontend_dequeue>
		       962:   2800          cmp    r0, #0
		       964:   d0f9          beq.n  95a <nrf_log_frontend_std_0+0x8e>
		       966:   f7ff fe8d     bl 684 <nrf_log_frontend_dequeue>
		--------------------
	(     b1c,      b1e)	
		--------------------
		       b12:   f000 fa0b     bl f2c <nrf_fprintf>
		       b16:   7a23          ldrb   r3, [r4, #8]
		       b18:   e7e1          b.n    ade <prefix_process.constprop.0+0x16>
		       b1a:   b005          add    sp, #20
		->     b1c:   bd30          pop    {r4, r5, pc}
		       b1e:   4908          ldr    r1, [pc, #32]  ; (b40 <prefix_process.constprop.0+0x78>)
		       b20:   9100          str    r1, [sp, #0]
		       b22:   4a08          ldr    r2, [pc, #32]  ; (b44 <prefix_process.constprop.0+0x7c>)
		       b24:   4908          ldr    r1, [pc, #32]  ; (b48 <prefix_process.constprop.0+0x80>)
		--------------------
	(     e46,      e48)	
		--------------------
		       e38:   ea41 0002     orr.w  r0, r1, r2
		       e3c:   e843 0c00     strex  ip, r0, [r3]
		       e40:   f09c 0f00     teq    ip, #0
		       e44:   d1f6          bne.n  e34 <nrf_atomic_flag_set+0x4>
		->     e46:   4770          bx lr
		  
		  00000e48 <nrf_atomic_flag_clear_fetch>:
		       e48:   4603          mov    r3, r0
		       e4a:   2200          movs   r2, #0
		--------------------
	(     e9a,      e9c)	
		--------------------
		       e90:   7118          strb   r0, [r3, #4]
		       e92:   f85d 4b04     ldr.w  r4, [sp], #4
		       e96:   4770          bx lr
		       e98:   200e          movs   r0, #14
		->     e9a:   4770          bx lr
		  
		  00000e9c <nrf_balloc_alloc>:
		       e9c:   b538          push   {r3, r4, r5, lr}
		       e9e:   4604          mov    r4, r0
		--------------------
	(     f22,      2de)	
		--------------------
		       f1a:   4604          mov    r4, r0
		       f1c:   6943          ldr    r3, [r0, #20]
		       f1e:   6801          ldr    r1, [r0, #0]
		       f20:   6900          ldr    r0, [r0, #16]
		->     f22:   4798          blx    r3
		       f24:   2300          movs   r3, #0
		       f26:   60a3          str    r3, [r4, #8]
		       f28:   bd10          pop    {r4, pc}
		       f2a:   4770          bx lr
		--------------------
	(     f2a,     13fe)	
		--------------------
		       f22:   4798          blx    r3
		       f24:   2300          movs   r3, #0
		       f26:   60a3          str    r3, [r4, #8]
		       f28:   bd10          pop    {r4, pc}
		->     f2a:   4770          bx lr
		  
		  00000f2c <nrf_fprintf>:
		       f2c:   b40e          push   {r1, r2, r3}
		       f2e:   b500          push   {lr}
		--------------------
	(     f2a,     146c)	
		--------------------
		       f22:   4798          blx    r3
		       f24:   2300          movs   r3, #0
		       f26:   60a3          str    r3, [r4, #8]
		       f28:   bd10          pop    {r4, pc}
		->     f2a:   4770          bx lr
		  
		  00000f2c <nrf_fprintf>:
		       f2c:   b40e          push   {r1, r2, r3}
		       f2e:   b500          push   {lr}
		--------------------
	(     f2a,     1538)	
		--------------------
		       f22:   4798          blx    r3
		       f24:   2300          movs   r3, #0
		       f26:   60a3          str    r3, [r4, #8]
		       f28:   bd10          pop    {r4, pc}
		->     f2a:   4770          bx lr
		  
		  00000f2c <nrf_fprintf>:
		       f2c:   b40e          push   {r1, r2, r3}
		       f2e:   b500          push   {lr}
		--------------------
	(     f2a,     1578)	
		--------------------
		       f22:   4798          blx    r3
		       f24:   2300          movs   r3, #0
		       f26:   60a3          str    r3, [r4, #8]
		       f28:   bd10          pop    {r4, pc}
		->     f2a:   4770          bx lr
		  
		  00000f2c <nrf_fprintf>:
		       f2c:   b40e          push   {r1, r2, r3}
		       f2e:   b500          push   {lr}
		--------------------
	(     f2a,     15e6)	
		--------------------
		       f22:   4798          blx    r3
		       f24:   2300          movs   r3, #0
		       f26:   60a3          str    r3, [r4, #8]
		       f28:   bd10          pop    {r4, pc}
		->     f2a:   4770          bx lr
		  
		  00000f2c <nrf_fprintf>:
		       f2c:   b40e          push   {r1, r2, r3}
		       f2e:   b500          push   {lr}
		--------------------
	(    163a,     1692)	
		--------------------
		      1630:   4604          mov    r4, r0
		      1632:   8083          strh   r3, [r0, #4]
		      1634:   80c5          strh   r5, [r0, #6]
		      1636:   f8c0 8000     str.w  r8, [r0]
		->    163a:   d02b          beq.n  1694 <nrf_memobj_alloc+0x84>
		      163c:   4603          mov    r3, r0
		      163e:   2500          movs   r5, #0
		      1640:   e008          b.n    1654 <nrf_memobj_alloc+0x44>
		      1642:   7962          ldrb   r2, [r4, #5]
		--------------------
	(    1696,     169a)	
		--------------------
		      168e:   42af          cmp    r7, r5
		      1690:   d8f6          bhi.n  1680 <nrf_memobj_alloc+0x70>
		      1692:   2400          movs   r4, #0
		      1694:   4620          mov    r0, r4
		->    1696:   e8bd 81f0     ldmia.w    sp!, {r4, r5, r6, r7, r8, pc}
		      169a:   6820          ldr    r0, [r4, #0]
		      169c:   4621          mov    r1, r4
		      169e:   f7ff fc23     bl ee8 <nrf_balloc_free>
		      16a2:   e7f6          b.n    1692 <nrf_memobj_alloc+0x82>
		--------------------
	(    16c0,     16c4)	
		--------------------
		      16b4:   3004          adds   r0, #4
		      16b6:   f7ff fbaf     bl e18 <nrf_atomic_u32_sub>
		      16ba:   f010 03ff     ands.w r3, r0, #255    ; 0xff
		      16be:   d001          beq.n  16c4 <nrf_memobj_put+0x18>
		->    16c0:   e8bd 81f0     ldmia.w    sp!, {r4, r5, r6, r7, r8, pc}
		      16c4:   7967          ldrb   r7, [r4, #5]
		      16c6:   1e79          subs   r1, r7, #1
		      16c8:   d016          beq.n  16f8 <nrf_memobj_put+0x4c>
		      16ca:   4622          mov    r2, r4
		--------------------
	(    17ee,      7cc)	
		--------------------
		      17e6:   6882          ldr    r2, [r0, #8]
		      17e8:   6053          str    r3, [r2, #4]
		      17ea:   6882          ldr    r2, [r0, #8]
		      17ec:   6013          str    r3, [r2, #0]
		->    17ee:   4770          bx lr
		  
		  000017f0 <twim_evt_handler>:
		      17f0:   b500          push   {lr}
		      17f2:   f890 c004     ldrb.w ip, [r0, #4]
		--------------------
	(    1a7a,     23d2)	
		--------------------
		      1a72:   4b03          ldr    r3, [pc, #12]  ; (1a80 <nrfx_prs_release+0x14>)
		      1a74:   2200          movs   r2, #0
		      1a76:   601a          str    r2, [r3, #0]
		      1a78:   711a          strb   r2, [r3, #4]
		->    1a7a:   4770          bx lr
		      1a7c:   40002000  .word   0x40002000
		      1a80:   2000063c  .word   0x2000063c
		  
		  00001a84 <xfer_completeness_check>:
		--------------------
	(    1a7a,     289a)	
		--------------------
		      1a72:   4b03          ldr    r3, [pc, #12]  ; (1a80 <nrfx_prs_release+0x14>)
		      1a74:   2200          movs   r2, #0
		      1a76:   601a          str    r2, [r3, #0]
		      1a78:   711a          strb   r2, [r3, #4]
		->    1a7a:   4770          bx lr
		      1a7c:   40002000  .word   0x40002000
		      1a80:   2000063c  .word   0x2000063c
		  
		  00001a84 <xfer_completeness_check>:
		--------------------
	(    31ba,     31bc)	
		--------------------
		      31b2:   10a4          asrs   r4, r4, #2
		      31b4:   2600          movs   r6, #0
		      31b6:   42a6          cmp    r6, r4
		      31b8:   d105          bne.n  31c6 <__libc_init_array+0x2e>
		->    31ba:   bd70          pop    {r4, r5, r6, pc}
		      31bc:   f855 3b04     ldr.w  r3, [r5], #4
		      31c0:   4798          blx    r3
		      31c2:   3601          adds   r6, #1
		      31c4:   e7ee          b.n    31a4 <__libc_init_array+0xc>
		--------------------
	(    3226,     3228)	
		--------------------
		      321a:   f811 4b01     ldrb.w r4, [r1], #1
		      321e:   f803 4f01     strb.w r4, [r3, #1]!
		      3222:   4291          cmp    r1, r2
		      3224:   d1f9          bne.n  321a <memcpy+0xe>
		->    3226:   bd10          pop    {r4, pc}
		  
		  00003228 <strlen>:
		      3228:   4603          mov    r3, r0
		      322a:   f813 2b01     ldrb.w r2, [r3], #1
		--------------------
	(    3236,     17bc)	
		--------------------
		      322e:   2a00          cmp    r2, #0
		      3230:   d1fb          bne.n  322a <strlen+0x2>
		      3232:   1a18          subs   r0, r3, r0
		      3234:   3801          subs   r0, #1
		->    3236:   4770          bx lr
		  
		  00003238 <__register_exitproc>:
		      3238:   e92d 43f8     stmdb  sp!, {r3, r4, r5, r6, r7, r8, r9, lr}
		      323c:   f8df 80b0     ldr.w  r8, [pc, #176]   ; 32f0 <__register_exitproc+0xb8>
		--------------------

uart-o0: 29 | 291
	(     dc8,      da2)	
		--------------------
		       dbe:   4618          mov    r0, r3
		       dc0:   370c          adds   r7, #12
		       dc2:   46bd          mov    sp, r7
		       dc4:   f85d 7b04     ldr.w  r7, [sp], #4
		->     dc8:   4770          bx lr
		       dca:   bf00          nop
		       dcc:   40002000  .word   0x40002000
		       dd0:   200000d8  .word   0x200000d8
		  
		--------------------
	(     f76,     1722)	
		--------------------
		       f6c:   4618          mov    r0, r3
		       f6e:   370c          adds   r7, #12
		       f70:   46bd          mov    sp, r7
		       f72:   f85d 7b04     ldr.w  r7, [sp], #4
		->     f76:   4770          bx lr
		  
		  00000f78 <nrf_uart_int_enable>:
		       f78:   b480          push   {r7}
		       f7a:   b083          sub    sp, #12
		--------------------
	(     f76,     19a0)	
		--------------------
		       f6c:   4618          mov    r0, r3
		       f6e:   370c          adds   r7, #12
		       f70:   46bd          mov    sp, r7
		       f72:   f85d 7b04     ldr.w  r7, [sp], #4
		->     f76:   4770          bx lr
		  
		  00000f78 <nrf_uart_int_enable>:
		       f78:   b480          push   {r7}
		       f7a:   b083          sub    sp, #12
		--------------------
	(     fdc,     18a0)	
		--------------------
		       fd2:   bf00          nop
		       fd4:   370c          adds   r7, #12
		       fd6:   46bd          mov    sp, r7
		       fd8:   f85d 7b04     ldr.w  r7, [sp], #4
		->     fdc:   4770          bx lr
		  
		  00000fde <nrf_uart_errorsrc_get_and_clear>:
		       fde:   b480          push   {r7}
		       fe0:   b085          sub    sp, #20
		--------------------
	(    18ae,     18b0)	
		--------------------
		      18a2:   f893 3029     ldrb.w r3, [r3, #41]   ; 0x29
		      18a6:   f083 0301     eor.w  r3, r3, #1
		      18aa:   b2db          uxtb   r3, r3
		      18ac:   2b00          cmp    r3, #0
		->    18ae:   d003          beq.n  18b8 <uart_irq_handler+0x56>
		      18b0:   2104          movs   r1, #4
		      18b2:   6878          ldr    r0, [r7, #4]
		      18b4:   f7ff fbfa     bl 10ac <nrf_uart_task_trigger>
		      18b8:   2302          movs   r3, #2
		--------------------
	(    18ec,     18ee)	
		--------------------
		      18e2:   683a          ldr    r2, [r7, #0]
		      18e4:   6811          ldr    r1, [r2, #0]
		      18e6:   f107 020c     add.w  r2, r7, #12
		      18ea:   4610          mov    r0, r2
		->    18ec:   4798          blx    r3
		      18ee:   e052          b.n    1996 <uart_irq_handler+0x134>
		      18f0:   2104          movs   r1, #4
		      18f2:   6878          ldr    r0, [r7, #4]
		      18f4:   f7ff fb4f     bl f96 <nrf_uart_int_enable_check>
		--------------------
	(    18ee,     1996)	
		--------------------
		      18e4:   6811          ldr    r1, [r2, #0]
		      18e6:   f107 020c     add.w  r2, r7, #12
		      18ea:   4610          mov    r0, r2
		      18ec:   4798          blx    r3
		->    18ee:   e052          b.n    1996 <uart_irq_handler+0x134>
		      18f0:   2104          movs   r1, #4
		      18f2:   6878          ldr    r0, [r7, #4]
		      18f4:   f7ff fb4f     bl f96 <nrf_uart_int_enable_check>
		      18f8:   4603          mov    r3, r0
		--------------------
	(    1904,      f4e)	
		--------------------
		      18fa:   2b00          cmp    r3, #0
		      18fc:   d04b          beq.n  1996 <uart_irq_handler+0x134>
		      18fe:   f44f 7184     mov.w  r1, #264 ; 0x108
		      1902:   6878          ldr    r0, [r7, #4]
		->    1904:   f7ff fb23     bl f4e <nrf_uart_event_check>
		      1908:   4603          mov    r3, r0
		      190a:   2b00          cmp    r3, #0
		      190c:   d043          beq.n  1996 <uart_irq_handler+0x134>
		      190e:   6839          ldr    r1, [r7, #0]
		--------------------
	(    195c,     1996)	
		--------------------
		      1952:   6a7a          ldr    r2, [r7, #36]  ; 0x24
		      1954:   6a39          ldr    r1, [r7, #32]
		      1956:   6838          ldr    r0, [r7, #0]
		      1958:   f7ff ff50     bl 17fc <rx_done_event>
		->    195c:   e01b          b.n    1996 <uart_irq_handler+0x134>
		      195e:   683b          ldr    r3, [r7, #0]
		      1960:   f893 3029     ldrb.w r3, [r3, #41]   ; 0x29
		      1964:   f083 0301     eor.w  r3, r3, #1
		      1968:   b2db          uxtb   r3, r3
		--------------------
	(    19a4,     19f0)	
		--------------------
		      199a:   6878          ldr    r0, [r7, #4]
		      199c:   f7ff fad7     bl f4e <nrf_uart_event_check>
		      19a0:   4603          mov    r3, r0
		      19a2:   2b00          cmp    r3, #0
		->    19a4:   d024          beq.n  19f0 <uart_irq_handler+0x18e>
		      19a6:   683b          ldr    r3, [r7, #0]
		      19a8:   695b          ldr    r3, [r3, #20]
		      19aa:   61fb          str    r3, [r7, #28]
		      19ac:   683b          ldr    r3, [r7, #0]
		--------------------
	(    19cc,     19d0)	
		--------------------
		      19c4:   2b00          cmp    r3, #0
		      19c6:   d004          beq.n  19d2 <uart_irq_handler+0x170>
		      19c8:   6839          ldr    r1, [r7, #0]
		      19ca:   6878          ldr    r0, [r7, #4]
		->    19cc:   f7ff fd20     bl 1410 <tx_byte>
		      19d0:   e00e          b.n    19f0 <uart_irq_handler+0x18e>
		      19d2:   f44f 718e     mov.w  r1, #284 ; 0x11c
		      19d6:   6878          ldr    r0, [r7, #4]
		      19d8:   f7ff faa2     bl f20 <nrf_uart_event_clear>
		--------------------
	(    19d0,     19f0)	
		--------------------
		      19c6:   d004          beq.n  19d2 <uart_irq_handler+0x170>
		      19c8:   6839          ldr    r1, [r7, #0]
		      19ca:   6878          ldr    r0, [r7, #4]
		      19cc:   f7ff fd20     bl 1410 <tx_byte>
		->    19d0:   e00e          b.n    19f0 <uart_irq_handler+0x18e>
		      19d2:   f44f 718e     mov.w  r1, #284 ; 0x11c
		      19d6:   6878          ldr    r0, [r7, #4]
		      19d8:   f7ff faa2     bl f20 <nrf_uart_event_clear>
		      19dc:   683b          ldr    r3, [r7, #0]
		--------------------
	(    1a18,     1a1c)	
		--------------------
		      1a10:   2b00          cmp    r3, #0
		      1a12:   d003          beq.n  1a1c <uart_irq_handler+0x1ba>
		      1a14:   2100          movs   r1, #0
		      1a16:   6878          ldr    r0, [r7, #4]
		->    1a18:   f7ff fb48     bl 10ac <nrf_uart_task_trigger>
		      1a1c:   683b          ldr    r3, [r7, #0]
		      1a1e:   699b          ldr    r3, [r3, #24]
		      1a20:   2b00          cmp    r3, #0
		      1a22:   d00a          beq.n  1a3a <uart_irq_handler+0x1d8>
		--------------------
	(    1bc4,     24dc)	
		--------------------
		      1bba:   4618          mov    r0, r3
		      1bbc:   370c          adds   r7, #12
		      1bbe:   46bd          mov    sp, r7
		      1bc0:   f85d 7b04     ldr.w  r7, [sp], #4
		->    1bc4:   4770          bx lr
		  
		  00001bc6 <nrf_uarte_shorts_enable>:
		      1bc6:   b480          push   {r7}
		      1bc8:   b083          sub    sp, #12
		--------------------
	(    1bc4,     2596)	
		--------------------
		      1bba:   4618          mov    r0, r3
		      1bbc:   370c          adds   r7, #12
		      1bbe:   46bd          mov    sp, r7
		      1bc0:   f85d 7b04     ldr.w  r7, [sp], #4
		->    1bc4:   4770          bx lr
		  
		  00001bc6 <nrf_uarte_shorts_enable>:
		      1bc6:   b480          push   {r7}
		      1bc8:   b083          sub    sp, #12
		--------------------
	(    1c30,     22c2)	
		--------------------
		      1c26:   bf00          nop
		      1c28:   370c          adds   r7, #12
		      1c2a:   46bd          mov    sp, r7
		      1c2c:   f85d 7b04     ldr.w  r7, [sp], #4
		->    1c30:   4770          bx lr
		  
		  00001c32 <nrf_uarte_int_disable>:
		      1c32:   b480          push   {r7}
		      1c34:   b083          sub    sp, #12
		--------------------
	(    2242,     2112)	
		--------------------
		      2238:   4618          mov    r0, r3
		      223a:   370c          adds   r7, #12
		      223c:   46bd          mov    sp, r7
		      223e:   f85d 7b04     ldr.w  r7, [sp], #4
		->    2242:   4770          bx lr
		      2244:   2000010c  .word   0x2000010c
		  
		  00002248 <nrfx_uarte_rx>:
		      2248:   b580          push   {r7, lr}
		--------------------
	(    2766,     277c)	
		--------------------
		      275e:   3b03          subs   r3, #3
		      2760:   2b03          cmp    r3, #3
		      2762:   d813          bhi.n  278c <nrf52_errata_12+0x68>
		      2764:   a201          add    r2, pc, #4 ; (adr r2, 276c <nrf52_errata_12+0x48>)
		->    2766:   f852 f023     ldr.w  pc, [r2, r3, lsl #2]
		      276a:   bf00          nop
		      276c:   0000277d  .word   0x0000277d
		      2770:   00002781  .word   0x00002781
		      2774:   00002785  .word   0x00002785
		--------------------
	(    2766,     2780)	
		--------------------
		      275e:   3b03          subs   r3, #3
		      2760:   2b03          cmp    r3, #3
		      2762:   d813          bhi.n  278c <nrf52_errata_12+0x68>
		      2764:   a201          add    r2, pc, #4 ; (adr r2, 276c <nrf52_errata_12+0x48>)
		->    2766:   f852 f023     ldr.w  pc, [r2, r3, lsl #2]
		      276a:   bf00          nop
		      276c:   0000277d  .word   0x0000277d
		      2770:   00002781  .word   0x00002781
		      2774:   00002785  .word   0x00002785
		--------------------
	(    287a,     288a)	
		--------------------
		      2870:   00002881  .word   0x00002881
		      2874:   2301          movs   r3, #1
		      2876:   e008          b.n    288a <nrf52_errata_31+0x6e>
		      2878:   2301          movs   r3, #1
		->    287a:   e006          b.n    288a <nrf52_errata_31+0x6e>
		      287c:   2301          movs   r3, #1
		      287e:   e004          b.n    288a <nrf52_errata_31+0x6e>
		      2880:   2301          movs   r3, #1
		      2882:   e002          b.n    288a <nrf52_errata_31+0x6e>
		--------------------
	(    2882,     288a)	
		--------------------
		      287a:   e006          b.n    288a <nrf52_errata_31+0x6e>
		      287c:   2301          movs   r3, #1
		      287e:   e004          b.n    288a <nrf52_errata_31+0x6e>
		      2880:   2301          movs   r3, #1
		->    2882:   e002          b.n    288a <nrf52_errata_31+0x6e>
		      2884:   2301          movs   r3, #1
		      2886:   e000          b.n    288a <nrf52_errata_31+0x6e>
		      2888:   2300          movs   r3, #0
		      288a:   4618          mov    r0, r3
		--------------------
	(    2a36,     2a54)	
		--------------------
		      2a2e:   3b03          subs   r3, #3
		      2a30:   2b03          cmp    r3, #3
		      2a32:   d813          bhi.n  2a5c <nrf52_errata_57+0x50>
		      2a34:   a201          add    r2, pc, #4 ; (adr r2, 2a3c <nrf52_errata_57+0x30>)
		->    2a36:   f852 f023     ldr.w  pc, [r2, r3, lsl #2]
		      2a3a:   bf00          nop
		      2a3c:   00002a4d  .word   0x00002a4d
		      2a40:   00002a51  .word   0x00002a51
		      2a44:   00002a55  .word   0x00002a55
		--------------------
	(    2a52,     2a62)	
		--------------------
		      2a48:   00002a59  .word   0x00002a59
		      2a4c:   2301          movs   r3, #1
		      2a4e:   e008          b.n    2a62 <nrf52_errata_57+0x56>
		      2a50:   2300          movs   r3, #0
		->    2a52:   e006          b.n    2a62 <nrf52_errata_57+0x56>
		      2a54:   2300          movs   r3, #0
		      2a56:   e004          b.n    2a62 <nrf52_errata_57+0x56>
		      2a58:   2300          movs   r3, #0
		      2a5a:   e002          b.n    2a62 <nrf52_errata_57+0x56>
		--------------------
	(    2a56,     2a62)	
		--------------------
		      2a4e:   e008          b.n    2a62 <nrf52_errata_57+0x56>
		      2a50:   2300          movs   r3, #0
		      2a52:   e006          b.n    2a62 <nrf52_errata_57+0x56>
		      2a54:   2300          movs   r3, #0
		->    2a56:   e004          b.n    2a62 <nrf52_errata_57+0x56>
		      2a58:   2300          movs   r3, #0
		      2a5a:   e002          b.n    2a62 <nrf52_errata_57+0x56>
		      2a5c:   2300          movs   r3, #0
		      2a5e:   e000          b.n    2a62 <nrf52_errata_57+0x56>
		--------------------
	(    2bd2,     2bf4)	
		--------------------
		      2bca:   3b03          subs   r3, #3
		      2bcc:   2b03          cmp    r3, #3
		      2bce:   d813          bhi.n  2bf8 <nrf52_errata_136+0x68>
		      2bd0:   a201          add    r2, pc, #4 ; (adr r2, 2bd8 <nrf52_errata_136+0x48>)
		->    2bd2:   f852 f023     ldr.w  pc, [r2, r3, lsl #2]
		      2bd6:   bf00          nop
		      2bd8:   00002be9  .word   0x00002be9
		      2bdc:   00002bed  .word   0x00002bed
		      2be0:   00002bf1  .word   0x00002bf1
		--------------------
	(    2c3e,     2c58)	
		--------------------
		      2c36:   3b03          subs   r3, #3
		      2c38:   2b03          cmp    r3, #3
		      2c3a:   d813          bhi.n  2c64 <nrf52_errata_182+0x48>
		      2c3c:   a201          add    r2, pc, #4 ; (adr r2, 2c44 <nrf52_errata_182+0x28>)
		->    2c3e:   f852 f023     ldr.w  pc, [r2, r3, lsl #2]
		      2c42:   bf00          nop
		      2c44:   00002c55  .word   0x00002c55
		      2c48:   00002c59  .word   0x00002c59
		      2c4c:   00002c5d  .word   0x00002c5d
		--------------------
	(    3534,     3538)	
		--------------------
		      352c:   230c          movs   r3, #12
		      352e:   603b          str    r3, [r7, #0]
		      3530:   2600          movs   r6, #0
		      3532:   4630          mov    r0, r6
		->    3534:   e8bd 81f0     ldmia.w    sp!, {r4, r5, r6, r7, r8, pc}
		      3538:   4e2f          ldr    r6, [pc, #188] ; (35f8 <_malloc_r+0xe8>)
		      353a:   f000 f85f     bl 35fc <__malloc_lock>
		      353e:   6833          ldr    r3, [r6, #0]
		      3540:   461c          mov    r4, r3
		--------------------
	(    3e30,     3e32)	
		--------------------
		      3e26:   6923          ldr    r3, [r4, #16]
		      3e28:   b943          cbnz   r3, 3e3c <__swsetup_r+0xa8>
		      3e2a:   f010 0080     ands.w r0, r0, #128    ; 0x80
		      3e2e:   d1c4          bne.n  3dba <__swsetup_r+0x26>
		->    3e30:   bd38          pop    {r3, r4, r5, pc}
		      3e32:   0781          lsls   r1, r0, #30
		      3e34:   bf58          it pl
		      3e36:   6963          ldrpl  r3, [r4, #20]
		      3e38:   60a3          str    r3, [r4, #8]
		--------------------
	(    3e8e,     3ee0)	
		--------------------
		      3e84:   428b          cmp    r3, r1
		      3e86:   d02d          beq.n  3ee4 <memchr+0x74>
		      3e88:   f010 0f07     tst.w  r0, #7
		      3e8c:   b342          cbz    r2, 3ee0 <memchr+0x70>
		->    3e8e:   d1f6          bne.n  3e7e <memchr+0xe>
		      3e90:   b4f0          push   {r4, r5, r6, r7}
		      3e92:   ea41 2101     orr.w  r1, r1, r1, lsl #8
		      3e96:   ea41 4101     orr.w  r1, r1, r1, lsl #16
		      3e9a:   f022 0407     bic.w  r4, r2, #7
		--------------------

uart-o1: 20 | 25
	(     330,      332)	
		--------------------
		       324:   f010 0f01     tst.w  r0, #1
		       328:   d103          bne.n  332 <bsp_board_init+0x12>
		       32a:   f014 0f02     tst.w  r4, #2
		       32e:   d10e          bne.n  34e <bsp_board_init+0x2e>
		->     330:   bd10          pop    {r4, pc}
		       332:   f04f 43a0     mov.w  r3, #1342177280  ; 0x50000000
		       336:   2203          movs   r2, #3
		       338:   f8c3 2744     str.w  r2, [r3, #1860]  ; 0x744
		       33c:   f8c3 2748     str.w  r2, [r3, #1864]  ; 0x748
		--------------------
	(     3c2,      3d2)	
		--------------------
		       3ba:   b151          cbz    r1, 3d2 <app_fifo_init+0x1a>
		       3bc:   b15a          cbz    r2, 3d6 <app_fifo_init+0x1e>
		       3be:   1e51          subs   r1, r2, #1
		       3c0:   4211          tst    r1, r2
		->     3c2:   d10a          bne.n  3da <app_fifo_init+0x22>
		       3c4:   6003          str    r3, [r0, #0]
		       3c6:   8081          strh   r1, [r0, #4]
		       3c8:   2300          movs   r3, #0
		       3ca:   6083          str    r3, [r0, #8]
		--------------------
	(     3c2,      3d6)	
		--------------------
		       3ba:   b151          cbz    r1, 3d2 <app_fifo_init+0x1a>
		       3bc:   b15a          cbz    r2, 3d6 <app_fifo_init+0x1e>
		       3be:   1e51          subs   r1, r2, #1
		       3c0:   4211          tst    r1, r2
		->     3c2:   d10a          bne.n  3da <app_fifo_init+0x22>
		       3c4:   6003          str    r3, [r0, #0]
		       3c6:   8081          strh   r1, [r0, #4]
		       3c8:   2300          movs   r3, #0
		       3ca:   6083          str    r3, [r0, #8]
		--------------------
	(     3d4,      59c)	
		--------------------
		       3cc:   60c3          str    r3, [r0, #12]
		       3ce:   4618          mov    r0, r3
		       3d0:   4770          bx lr
		       3d2:   200e          movs   r0, #14
		->     3d4:   4770          bx lr
		       3d6:   2009          movs   r0, #9
		       3d8:   4770          bx lr
		       3da:   2009          movs   r0, #9
		       3dc:   4770          bx lr
		--------------------
	(     766,      8ba)	
		--------------------
		  
		  00000760 <app_util_critical_region_exit>:
		       760:   b508          push   {r3, lr}
		       762:   f7ff ffef     bl 744 <app_util_enable_irq>
		->     766:   bd08          pop    {r3, pc}
		  
		  00000768 <_write>:
		       768:   b570          push   {r4, r5, r6, lr}
		       76a:   1e16          subs   r6, r2, #0
		--------------------
	(     846,      84e)	
		--------------------
		       83e:   bf08          it eq
		       840:   4622          moveq  r2, r4
		       842:   4669          mov    r1, sp
		       844:   1d28          adds   r0, r5, #4
		->     846:   f000 fbcd     bl fe4 <nrfx_uarte_init>
		       84a:   b009          add    sp, #36    ; 0x24
		       84c:   bdf0          pop    {r4, r5, r6, r7, pc}
		       84e:   2c00          cmp    r4, #0
		       850:   4a08          ldr    r2, [pc, #32]  ; (874 <nrf_drv_uart_init+0x70>)
		--------------------
	(     87e,      880)	
		--------------------
		  00000878 <UARTE0_UART0_IRQHandler>:
		       878:   b508          push   {r3, lr}
		       87a:   4b02          ldr    r3, [pc, #8]   ; (884 <UARTE0_UART0_IRQHandler+0xc>)
		       87c:   681b          ldr    r3, [r3, #0]
		->     87e:   4798          blx    r3
		       880:   bd08          pop    {r3, pc}
		       882:   bf00          nop
		       884:   200000dc  .word   0x200000dc
		  
		--------------------
	(     880,      882)	
		--------------------
		       878:   b508          push   {r3, lr}
		       87a:   4b02          ldr    r3, [pc, #8]   ; (884 <UARTE0_UART0_IRQHandler+0xc>)
		       87c:   681b          ldr    r3, [r3, #0]
		       87e:   4798          blx    r3
		->     880:   bd08          pop    {r3, pc}
		       882:   bf00          nop
		       884:   200000dc  .word   0x200000dc
		  
		  00000888 <nrfx_prs_acquire>:
		--------------------
	(     8a8,      8b4)	
		--------------------
		       8a0:   601c          str    r4, [r3, #0]
		       8a2:   2201          movs   r2, #1
		       8a4:   711a          strb   r2, [r3, #4]
		       8a6:   2000          movs   r0, #0
		->     8a8:   f7ff ff5a     bl 760 <app_util_critical_region_exit>
		       8ac:   2000          movs   r0, #0
		       8ae:   bd10          pop    {r4, pc}
		       8b0:   2000          movs   r0, #0
		       8b2:   4770          bx lr
		--------------------
	(     8ae,      880)	
		--------------------
		       8a4:   711a          strb   r2, [r3, #4]
		       8a6:   2000          movs   r0, #0
		       8a8:   f7ff ff5a     bl 760 <app_util_critical_region_exit>
		       8ac:   2000          movs   r0, #0
		->     8ae:   bd10          pop    {r4, pc}
		       8b0:   2000          movs   r0, #0
		       8b2:   4770          bx lr
		       8b4:   2000          movs   r0, #0
		       8b6:   f7ff ff53     bl 760 <app_util_critical_region_exit>
		--------------------
	(     8ae,      8b0)	
		--------------------
		       8a4:   711a          strb   r2, [r3, #4]
		       8a6:   2000          movs   r0, #0
		       8a8:   f7ff ff5a     bl 760 <app_util_critical_region_exit>
		       8ac:   2000          movs   r0, #0
		->     8ae:   bd10          pop    {r4, pc}
		       8b0:   2000          movs   r0, #0
		       8b2:   4770          bx lr
		       8b4:   2000          movs   r0, #0
		       8b6:   f7ff ff53     bl 760 <app_util_critical_region_exit>
		--------------------
	(     8b2,      880)	
		--------------------
		       8a8:   f7ff ff5a     bl 760 <app_util_critical_region_exit>
		       8ac:   2000          movs   r0, #0
		       8ae:   bd10          pop    {r4, pc}
		       8b0:   2000          movs   r0, #0
		->     8b2:   4770          bx lr
		       8b4:   2000          movs   r0, #0
		       8b6:   f7ff ff53     bl 760 <app_util_critical_region_exit>
		       8ba:   2011          movs   r0, #17
		       8bc:   e7f7          b.n    8ae <nrfx_prs_acquire+0x26>
		--------------------
	(     8b2,      b0a)	
		--------------------
		       8a8:   f7ff ff5a     bl 760 <app_util_critical_region_exit>
		       8ac:   2000          movs   r0, #0
		       8ae:   bd10          pop    {r4, pc}
		       8b0:   2000          movs   r0, #0
		->     8b2:   4770          bx lr
		       8b4:   2000          movs   r0, #0
		       8b6:   f7ff ff53     bl 760 <app_util_critical_region_exit>
		       8ba:   2011          movs   r0, #17
		       8bc:   e7f7          b.n    8ae <nrfx_prs_acquire+0x26>
		--------------------
	(     bb4,      be4)	
		--------------------
		       baa:   682b          ldr    r3, [r5, #0]
		       bac:   0b19          lsrs   r1, r3, #12
		       bae:   f343 3307     sbfx   r3, r3, #12, #8
		       bb2:   2b00          cmp    r3, #0
		->     bb4:   db4d          blt.n  c52 <nrfx_uart_init+0x16e>
		       bb6:   0152          lsls   r2, r2, #5
		       bb8:   b2d2          uxtb   r2, r2
		       bba:   f103 4360     add.w  r3, r3, #3758096384  ; 0xe0000000
		       bbe:   f503 4361     add.w  r3, r3, #57600   ; 0xe100
		--------------------
	(     c08,      c0a)	
		--------------------
		       bfe:   615a          str    r2, [r3, #20]
		       c00:   2201          movs   r2, #1
		       c02:   f883 202a     strb.w r2, [r3, #42]   ; 0x2a
		       c06:   b003          add    sp, #12
		->     c08:   bdf0          pop    {r4, r5, r6, r7, pc}
		       c0a:   68a3          ldr    r3, [r4, #8]
		       c0c:   f1b3 3fff     cmp.w  r3, #4294967295  ; 0xffffffff
		       c10:   d006          beq.n  c20 <nrfx_uart_init+0x13c>
		       c12:   f503 73e0     add.w  r3, r3, #448 ; 0x1c0
		--------------------
	(    1138,     113a)	
		--------------------
		      112e:   461a          mov    r2, r3
		      1130:   2301          movs   r3, #1
		      1132:   f882 3020     strb.w r3, [r2, #32]
		      1136:   b007          add    sp, #28
		->    1138:   bdf0          pop    {r4, r5, r6, r7, pc}
		      113a:   68ab          ldr    r3, [r5, #8]
		      113c:   f1b3 3fff     cmp.w  r3, #4294967295  ; 0xffffffff
		      1140:   d006          beq.n  1150 <nrfx_uarte_init+0x16c>
		      1142:   f503 73e0     add.w  r3, r3, #448 ; 0x1c0
		--------------------
	(    15bc,     14c4)	
		--------------------
		      15b4:   d186          bne.n  14c4 <SystemInit+0x38>
		      15b6:   4b88          ldr    r3, [pc, #544] ; (17d8 <SystemInit+0x34c>)
		      15b8:   4a88          ldr    r2, [pc, #544] ; (17dc <SystemInit+0x350>)
		      15ba:   675a          str    r2, [r3, #116] ; 0x74
		->    15bc:   e782          b.n    14c4 <SystemInit+0x38>
		      15be:   f04f 4370     mov.w  r3, #4026531840  ; 0xf0000000
		      15c2:   f8d3 3fe8     ldr.w  r3, [r3, #4072]  ; 0xfe8
		      15c6:   f3c3 1303     ubfx   r3, r3, #4, #4
		      15ca:   2b03          cmp    r3, #3
		--------------------
	(    1b3e,     1b40)	
		--------------------
		  00001b3c <__retarget_lock_acquire_recursive>:
		      1b3c:   4770          bx lr
		  
		  00001b3e <__retarget_lock_release_recursive>:
		->    1b3e:   4770          bx lr
		  
		  00001b40 <__register_exitproc>:
		      1b40:   e92d 43f8     stmdb  sp!, {r3, r4, r5, r6, r7, r8, r9, lr}
		      1b44:   f8df 80b0     ldr.w  r8, [pc, #176]   ; 1bf8 <__register_exitproc+0xb8>
		--------------------
	(    1b7e,     1b82)	
		--------------------
		      1b70:   dd07          ble.n  1b82 <__register_exitproc+0x42>
		      1b72:   f8d8 0000     ldr.w  r0, [r8]
		      1b76:   f7ff ffe2     bl 1b3e <__retarget_lock_release_recursive>
		      1b7a:   f04f 30ff     mov.w  r0, #4294967295  ; 0xffffffff
		->    1b7e:   e8bd 83f8     ldmia.w    sp!, {r3, r4, r5, r6, r7, r8, r9, pc}
		      1b82:   b32e          cbz    r6, 1bd0 <__register_exitproc+0x90>
		      1b84:   f8d4 0088     ldr.w  r0, [r4, #136]   ; 0x88
		      1b88:   b968          cbnz   r0, 1ba6 <__register_exitproc+0x66>
		      1b8a:   4b1a          ldr    r3, [pc, #104] ; (1bf4 <__register_exitproc+0xb4>)
		--------------------
	(    1b8e,     1ba6)	
		--------------------
		      1b84:   f8d4 0088     ldr.w  r0, [r4, #136]   ; 0x88
		      1b88:   b968          cbnz   r0, 1ba6 <__register_exitproc+0x66>
		      1b8a:   4b1a          ldr    r3, [pc, #104] ; (1bf4 <__register_exitproc+0xb4>)
		      1b8c:   2b00          cmp    r3, #0
		->    1b8e:   d0f0          beq.n  1b72 <__register_exitproc+0x32>
		      1b90:   f44f 7084     mov.w  r0, #264 ; 0x108
		      1b94:   f3af 8000     nop.w
		      1b98:   2800          cmp    r0, #0
		      1b9a:   d0ea          beq.n  1b72 <__register_exitproc+0x32>
		--------------------

uart-o2: 20 | 128
	(     696,      6be)	
		--------------------
		       68e:   782b          ldrb   r3, [r5, #0]
		       690:   5cf3          ldrb   r3, [r6, r3]
		       692:   b1a3          cbz    r3, 6be <app_uart_put+0x46>
		       694:   1d28          adds   r0, r5, #4
		->     696:   f000 fdaf     bl 11f8 <nrfx_uarte_tx_in_progress>
		       69a:   2800          cmp    r0, #0
		       69c:   d1f3          bne.n  686 <app_uart_put+0xe>
		       69e:   4910          ldr    r1, [pc, #64]  ; (6e0 <app_uart_put+0x68>)
		       6a0:   480c          ldr    r0, [pc, #48]  ; (6d4 <app_uart_put+0x5c>)
		--------------------
	(     708,      844)	
		--------------------
		       700:   3b01          subs   r3, #1
		       702:   6013          str    r3, [r2, #0]
		       704:   b903          cbnz   r3, 708 <app_util_critical_region_exit+0xc>
		       706:   b662          cpsie  i
		->     708:   4770          bx lr
		       70a:   bf00          nop
		       70c:   200000cc  .word   0x200000cc
		  
		  00000710 <_write>:
		--------------------
	(     840,      848)	
		--------------------
		       838:   4b09          ldr    r3, [pc, #36]  ; (860 <nrfx_prs_acquire+0x38>)
		       83a:   791c          ldrb   r4, [r3, #4]
		       83c:   b124          cbz    r4, 848 <nrfx_prs_acquire+0x20>
		       83e:   2000          movs   r0, #0
		->     840:   f7ff ff5c     bl 6fc <app_util_critical_region_exit>
		       844:   2011          movs   r0, #17
		       846:   bd38          pop    {r3, r4, r5, pc}
		       848:   2201          movs   r2, #1
		       84a:   4620          mov    r0, r4
		--------------------
	(     8d4,      8d6)	
		--------------------
		       8cc:   4b55          ldr    r3, [pc, #340] ; (a24 <nrfx_uart_0_irq_handler+0x1c0>)
		       8ce:   6958          ldr    r0, [r3, #20]
		       8d0:   6a19          ldr    r1, [r3, #32]
		       8d2:   4288          cmp    r0, r1
		->     8d4:   d96a          bls.n  9ac <nrfx_uart_0_irq_handler+0x148>
		       8d6:   f893 1028     ldrb.w r1, [r3, #40]   ; 0x28
		       8da:   f001 00ff     and.w  r0, r1, #255 ; 0xff
		       8de:   2900          cmp    r1, #0
		       8e0:   d164          bne.n  9ac <nrfx_uart_0_irq_handler+0x148>
		--------------------
	(     8fa,      8fe)	
		--------------------
		       8f2:   6a19          ldr    r1, [r3, #32]
		       8f4:   5c20          ldrb   r0, [r4, r0]
		       8f6:   3101          adds   r1, #1
		       8f8:   6219          str    r1, [r3, #32]
		->     8fa:   f8c2 051c     str.w  r0, [r2, #1308]  ; 0x51c
		       8fe:   4a48          ldr    r2, [pc, #288] ; (a20 <nrfx_uart_0_irq_handler+0x1bc>)
		       900:   f8d2 3144     ldr.w  r3, [r2, #324]   ; 0x144
		       904:   b1db          cbz    r3, 93e <nrfx_uart_0_irq_handler+0xda>
		       906:   2100          movs   r1, #0
		--------------------
	(     91e,      920)	
		--------------------
		       916:   9000          str    r0, [sp, #0]
		       918:   9800          ldr    r0, [sp, #0]
		       91a:   b109          cbz    r1, 920 <nrfx_uart_0_irq_handler+0xbc>
		       91c:   2101          movs   r1, #1
		->     91e:   6011          str    r1, [r2, #0]
		       920:   699a          ldr    r2, [r3, #24]
		       922:   b162          cbz    r2, 93e <nrfx_uart_0_irq_handler+0xda>
		       924:   68d8          ldr    r0, [r3, #12]
		       926:   6a5c          ldr    r4, [r3, #36]  ; 0x24
		--------------------
	(     940,      942)	
		--------------------
		       936:   a806          add    r0, sp, #24
		       938:   e9d3 1200     ldrd   r1, r2, [r3]
		       93c:   4790          blx    r2
		       93e:   b00a          add    sp, #40    ; 0x28
		->     940:   bd10          pop    {r4, pc}
		       942:   4a37          ldr    r2, [pc, #220] ; (a20 <nrfx_uart_0_irq_handler+0x1bc>)
		       944:   f8d2 3304     ldr.w  r3, [r2, #772]   ; 0x304
		       948:   075b          lsls   r3, r3, #29
		       94a:   d5bb          bpl.n  8c4 <nrfx_uart_0_irq_handler+0x60>
		--------------------
	(     94a,      8c4)	
		--------------------
		       940:   bd10          pop    {r4, pc}
		       942:   4a37          ldr    r2, [pc, #220] ; (a20 <nrfx_uart_0_irq_handler+0x1bc>)
		       944:   f8d2 3304     ldr.w  r3, [r2, #772]   ; 0x304
		       948:   075b          lsls   r3, r3, #29
		->     94a:   d5bb          bpl.n  8c4 <nrfx_uart_0_irq_handler+0x60>
		       94c:   f8d2 3108     ldr.w  r3, [r2, #264]   ; 0x108
		       950:   2b00          cmp    r3, #0
		       952:   d0b7          beq.n  8c4 <nrfx_uart_0_irq_handler+0x60>
		       954:   4b33          ldr    r3, [pc, #204] ; (a24 <nrfx_uart_0_irq_handler+0x1c0>)
		--------------------
	(     980,      8c4)	
		--------------------
		       978:   3201          adds   r2, #1
		       97a:   625a          str    r2, [r3, #36]  ; 0x24
		       97c:   6a5a          ldr    r2, [r3, #36]  ; 0x24
		       97e:   428a          cmp    r2, r1
		->     980:   d1a0          bne.n  8c4 <nrfx_uart_0_irq_handler+0x60>
		       982:   69da          ldr    r2, [r3, #28]
		       984:   2a00          cmp    r2, #0
		       986:   d031          beq.n  9ec <nrfx_uart_0_irq_handler+0x188>
		       988:   619a          str    r2, [r3, #24]
		--------------------
	(     9c0,      8fe)	
		--------------------
		       9b8:   9202          str    r2, [sp, #8]
		       9ba:   9a02          ldr    r2, [sp, #8]
		       9bc:   695a          ldr    r2, [r3, #20]
		       9be:   2a00          cmp    r2, #0
		->     9c0:   d09d          beq.n  8fe <nrfx_uart_0_irq_handler+0x9a>
		       9c2:   e9d3 2101     ldrd   r2, r1, [r3, #4]
		       9c6:   695c          ldr    r4, [r3, #20]
		       9c8:   f88d 0018     strb.w r0, [sp, #24]
		       9cc:   e9cd 1407     strd   r1, r4, [sp, #28]
		--------------------
	(     a1c,      8c4)	
		--------------------
		       a10:   f88d 2018     strb.w r2, [sp, #24]
		       a14:   a806          add    r0, sp, #24
		       a16:   e9d3 1200     ldrd   r1, r2, [r3]
		       a1a:   4790          blx    r2
		->     a1c:   e752          b.n    8c4 <nrfx_uart_0_irq_handler+0x60>
		       a1e:   bf00          nop
		       a20:   40002000  .word   0x40002000
		       a24:   200000e4  .word   0x200000e4
		  
		--------------------
	(    10d4,     10d8)	
		--------------------
		      10ca:   b007          add    sp, #28
		      10cc:   e8bd 83f0     ldmia.w    sp!, {r4, r5, r6, r7, r8, r9, pc}
		      10d0:   2011          movs   r0, #17
		      10d2:   b007          add    sp, #28
		->    10d4:   e8bd 83f0     ldmia.w    sp!, {r4, r5, r6, r7, r8, r9, pc}
		      10d8:   2008          movs   r0, #8
		      10da:   b007          add    sp, #28
		      10dc:   e8bd 83f0     ldmia.w    sp!, {r4, r5, r6, r7, r8, r9, pc}
		      10e0:   4918          ldr    r1, [pc, #96]  ; (1144 <nrfx_uarte_init+0x1cc>)
		--------------------
	(    1c5e,     1e0c)	
		--------------------
		      1c54:   2b00          cmp    r3, #0
		      1c56:   f1a1 0404     sub.w  r4, r1, #4
		      1c5a:   bfb8          it lt
		      1c5c:   18e4          addlt  r4, r4, r3
		->    1c5e:   f000 f8d5     bl 1e0c <__malloc_lock>
		      1c62:   4a1e          ldr    r2, [pc, #120] ; (1cdc <_free_r+0x94>)
		      1c64:   9801          ldr    r0, [sp, #4]
		      1c66:   6813          ldr    r3, [r2, #0]
		      1c68:   b933          cbnz   r3, 1c78 <_free_r+0x30>
		--------------------
	(    1c6c,     1c6e)	
		--------------------
		      1c64:   9801          ldr    r0, [sp, #4]
		      1c66:   6813          ldr    r3, [r2, #0]
		      1c68:   b933          cbnz   r3, 1c78 <_free_r+0x30>
		      1c6a:   6063          str    r3, [r4, #4]
		->    1c6c:   6014          str    r4, [r2, #0]
		      1c6e:   b003          add    sp, #12
		      1c70:   e8bd 4030     ldmia.w    sp!, {r4, r5, lr}
		      1c74:   f000 b8d0     b.w    1e18 <__malloc_unlock>
		      1c78:   42a3          cmp    r3, r4
		--------------------
	(    1c9e,     1cb8)	
		--------------------
		      1c96:   d9fa          bls.n  1c8e <_free_r+0x46>
		      1c98:   6811          ldr    r1, [r2, #0]
		      1c9a:   1855          adds   r5, r2, r1
		      1c9c:   42a5          cmp    r5, r4
		->    1c9e:   d10b          bne.n  1cb8 <_free_r+0x70>
		      1ca0:   6824          ldr    r4, [r4, #0]
		      1ca2:   4421          add    r1, r4
		      1ca4:   1854          adds   r4, r2, r1
		      1ca6:   42a3          cmp    r3, r4
		--------------------
	(    1cb6,     1c6e)	
		--------------------
		      1cae:   685b          ldr    r3, [r3, #4]
		      1cb0:   6053          str    r3, [r2, #4]
		      1cb2:   440c          add    r4, r1
		      1cb4:   6014          str    r4, [r2, #0]
		->    1cb6:   e7da          b.n    1c6e <_free_r+0x26>
		      1cb8:   d902          bls.n  1cc0 <_free_r+0x78>
		      1cba:   230c          movs   r3, #12
		      1cbc:   6003          str    r3, [r0, #0]
		      1cbe:   e7d6          b.n    1c6e <_free_r+0x26>
		--------------------
	(    1eba,     1ed4)	
		--------------------
		      1eb0:   f000 fb78     bl 25a4 <__swsetup_r>
		      1eb4:   b170          cbz    r0, 1ed4 <_vfiprintf_r+0x5c>
		      1eb6:   6e6b          ldr    r3, [r5, #100] ; 0x64
		      1eb8:   07dc          lsls   r4, r3, #31
		->    1eba:   d504          bpl.n  1ec6 <_vfiprintf_r+0x4e>
		      1ebc:   f04f 30ff     mov.w  r0, #4294967295  ; 0xffffffff
		      1ec0:   b01d          add    sp, #116   ; 0x74
		      1ec2:   e8bd 8ff0     ldmia.w    sp!, {r4, r5, r6, r7, r8, r9, sl, fp, pc}
		      1ec6:   89ab          ldrh   r3, [r5, #12]
		--------------------
	(    26f2,     2664)	
		--------------------
		      26e8:   ea83 0301     eor.w  r3, r3, r1
		      26ec:   b113          cbz    r3, 26f4 <memchr+0x74>
		      26ee:   d1f8          bne.n  26e2 <memchr+0x62>
		      26f0:   2000          movs   r0, #0
		->    26f2:   4770          bx lr
		      26f4:   3801          subs   r0, #1
		      26f6:   4770          bx lr
		      26f8:   2d00          cmp    r5, #0
		      26fa:   bf06          itte   eq
		--------------------
	(    26f6,     2664)	
		--------------------
		      26ee:   d1f8          bne.n  26e2 <memchr+0x62>
		      26f0:   2000          movs   r0, #0
		      26f2:   4770          bx lr
		      26f4:   3801          subs   r0, #1
		->    26f6:   4770          bx lr
		      26f8:   2d00          cmp    r5, #0
		      26fa:   bf06          itte   eq
		      26fc:   4635          moveq  r5, r6
		      26fe:   3803          subeq  r0, #3
		--------------------
	(    2786,     2788)	
		--------------------
		      277e:   6123          str    r3, [r4, #16]
		      2780:   2301          movs   r3, #1
		      2782:   6163          str    r3, [r4, #20]
		      2784:   b002          add    sp, #8
		->    2786:   bd70          pop    {r4, r5, r6, pc}
		      2788:   ab01          add    r3, sp, #4
		      278a:   466a          mov    r2, sp
		      278c:   f7ff ffc8     bl 2720 <__swhatbuf_r>
		      2790:   9900          ldr    r1, [sp, #0]
		--------------------

uart-o3: 20 | 127
	(     83c,      844)	
		--------------------
		       834:   4b09          ldr    r3, [pc, #36]  ; (85c <nrfx_prs_acquire+0x38>)
		       836:   791c          ldrb   r4, [r3, #4]
		       838:   b124          cbz    r4, 844 <nrfx_prs_acquire+0x20>
		       83a:   2000          movs   r0, #0
		->     83c:   f7ff ff5c     bl 6f8 <app_util_critical_region_exit>
		       840:   2011          movs   r0, #17
		       842:   bd38          pop    {r3, r4, r5, pc}
		       844:   2201          movs   r2, #1
		       846:   4620          mov    r0, r4
		--------------------
	(     874,      876)	
		--------------------
		       86a:   b08a          sub    sp, #40    ; 0x28
		       86c:   d568          bpl.n  940 <nrfx_uart_0_irq_handler+0xe0>
		       86e:   f8d2 3124     ldr.w  r3, [r2, #292]   ; 0x124
		       872:   2b00          cmp    r3, #0
		->     874:   d064          beq.n  940 <nrfx_uart_0_irq_handler+0xe0>
		       876:   2300          movs   r3, #0
		       878:   f8c2 3124     str.w  r3, [r2, #292]   ; 0x124
		       87c:   f8d2 3124     ldr.w  r3, [r2, #292]   ; 0x124
		       880:   9301          str    r3, [sp, #4]
		--------------------
	(     8d2,      8d4)	
		--------------------
		       8ca:   4b58          ldr    r3, [pc, #352] ; (a2c <nrfx_uart_0_irq_handler+0x1cc>)
		       8cc:   6958          ldr    r0, [r3, #20]
		       8ce:   6a19          ldr    r1, [r3, #32]
		       8d0:   4288          cmp    r0, r1
		->     8d2:   d96a          bls.n  9aa <nrfx_uart_0_irq_handler+0x14a>
		       8d4:   f893 1028     ldrb.w r1, [r3, #40]   ; 0x28
		       8d8:   f001 00ff     and.w  r0, r1, #255 ; 0xff
		       8dc:   2900          cmp    r1, #0
		       8de:   d164          bne.n  9aa <nrfx_uart_0_irq_handler+0x14a>
		--------------------
	(     8de,      8e0)	
		--------------------
		       8d2:   d96a          bls.n  9aa <nrfx_uart_0_irq_handler+0x14a>
		       8d4:   f893 1028     ldrb.w r1, [r3, #40]   ; 0x28
		       8d8:   f001 00ff     and.w  r0, r1, #255 ; 0xff
		       8dc:   2900          cmp    r1, #0
		->     8de:   d164          bne.n  9aa <nrfx_uart_0_irq_handler+0x14a>
		       8e0:   f8c2 011c     str.w  r0, [r2, #284]   ; 0x11c
		       8e4:   f8d2 111c     ldr.w  r1, [r2, #284]   ; 0x11c
		       8e8:   9103          str    r1, [sp, #12]
		       8ea:   9903          ldr    r1, [sp, #12]
		--------------------
	(     8f8,      8fc)	
		--------------------
		       8f0:   6a19          ldr    r1, [r3, #32]
		       8f2:   5c20          ldrb   r0, [r4, r0]
		       8f4:   3101          adds   r1, #1
		       8f6:   6219          str    r1, [r3, #32]
		->     8f8:   f8c2 051c     str.w  r0, [r2, #1308]  ; 0x51c
		       8fc:   4a4a          ldr    r2, [pc, #296] ; (a28 <nrfx_uart_0_irq_handler+0x1c8>)
		       8fe:   f8d2 3144     ldr.w  r3, [r2, #324]   ; 0x144
		       902:   b1db          cbz    r3, 93c <nrfx_uart_0_irq_handler+0xdc>
		       904:   2100          movs   r1, #0
		--------------------
	(     958,      9d8)	
		--------------------
		       950:   d0b7          beq.n  8c2 <nrfx_uart_0_irq_handler+0x62>
		       952:   4b36          ldr    r3, [pc, #216] ; (a2c <nrfx_uart_0_irq_handler+0x1cc>)
		       954:   6999          ldr    r1, [r3, #24]
		       956:   2900          cmp    r1, #0
		->     958:   d03e          beq.n  9d8 <nrfx_uart_0_irq_handler+0x178>
		       95a:   2100          movs   r1, #0
		       95c:   f8c2 1108     str.w  r1, [r2, #264]   ; 0x108
		       960:   f8d2 1108     ldr.w  r1, [r2, #264]   ; 0x108
		       964:   9104          str    r1, [sp, #16]
		--------------------
	(     9d6,      8fc)	
		--------------------
		       9ce:   6158          str    r0, [r3, #20]
		       9d0:   6819          ldr    r1, [r3, #0]
		       9d2:   a806          add    r0, sp, #24
		       9d4:   4790          blx    r2
		->     9d6:   e791          b.n    8fc <nrfx_uart_0_irq_handler+0x9c>
		       9d8:   f8c2 1108     str.w  r1, [r2, #264]   ; 0x108
		       9dc:   f8d2 0108     ldr.w  r0, [r2, #264]   ; 0x108
		       9e0:   9005          str    r0, [sp, #20]
		       9e2:   9805          ldr    r0, [sp, #20]
		--------------------
	(     9e8,      97a)	
		--------------------
		       9dc:   f8d2 0108     ldr.w  r0, [r2, #264]   ; 0x108
		       9e0:   9005          str    r0, [sp, #20]
		       9e2:   9805          ldr    r0, [sp, #20]
		       9e4:   f8d2 2518     ldr.w  r2, [r2, #1304]  ; 0x518
		->     9e8:   e7c7          b.n    97a <nrfx_uart_0_irq_handler+0x11a>
		       9ea:   f893 2029     ldrb.w r2, [r3, #41]   ; 0x29
		       9ee:   b912          cbnz   r2, 9f6 <nrfx_uart_0_irq_handler+0x196>
		       9f0:   4a0d          ldr    r2, [pc, #52]  ; (a28 <nrfx_uart_0_irq_handler+0x1c8>)
		       9f2:   2101          movs   r1, #1
		--------------------
	(     c2e,      c32)	
		--------------------
		       c24:   f8c2 651c     str.w  r6, [r2, #1308]  ; 0x51c
		       c28:   685a          ldr    r2, [r3, #4]
		       c2a:   b112          cbz    r2, c32 <nrfx_uart_tx+0x66>
		       c2c:   b004          add    sp, #16
		->     c2e:   e8bd 81f0     ldmia.w    sp!, {r4, r5, r6, r7, r8, pc}
		       c32:   695e          ldr    r6, [r3, #20]
		       c34:   6a1a          ldr    r2, [r3, #32]
		       c36:   f8dc 1000     ldr.w  r1, [ip]
		       c3a:   4296          cmp    r6, r2
		--------------------
	(    12fe,      64a)	
		--------------------
		      12f2:   f043 0320     orr.w  r3, r3, #32
		      12f6:   f8c2 3200     str.w  r3, [r2, #512]   ; 0x200
		      12fa:   e7cc          b.n    1296 <nrfx_uarte_rx+0x6a>
		      12fc:   2010          movs   r0, #16
		->    12fe:   4770          bx lr
		      1300:   6803          ldr    r3, [r0, #0]
		      1302:   e001          b.n    1308 <nrfx_uarte_rx+0xdc>
		      1304:   b9e9          cbnz   r1, 1342 <nrfx_uarte_rx+0x116>
		      1306:   bb10          cbnz   r0, 134e <nrfx_uarte_rx+0x122>
		--------------------
	(    16b0,     143e)	
		--------------------
		      16a6:   f43f aeca     beq.w  143e <SystemInit+0x3a>
		      16aa:   4b35          ldr    r3, [pc, #212] ; (1780 <SystemInit+0x37c>)
		      16ac:   4a35          ldr    r2, [pc, #212] ; (1784 <SystemInit+0x380>)
		      16ae:   675a          str    r2, [r3, #116] ; 0x74
		->    16b0:   e6c5          b.n    143e <SystemInit+0x3a>
		      16b2:   f04f 4370     mov.w  r3, #4026531840  ; 0xf0000000
		      16b6:   f893 3fe0     ldrb.w r3, [r3, #4064] ; 0xfe0
		      16ba:   2b06          cmp    r3, #6
		      16bc:   f47f af03     bne.w  14c6 <SystemInit+0xc2>
		--------------------
	(    1ad8,     1c6a)	
		--------------------
		      1ad0:   2000007c  .word   0x2000007c
		      1ad4:   20000080  .word   0x20000080
		  
		  00001ad8 <__retarget_lock_acquire_recursive>:
		->    1ad8:   4770          bx lr
		  
		  00001ada <__retarget_lock_release_recursive>:
		      1ada:   4770          bx lr
		  
		--------------------
	(    1c66,     1e14)	
		--------------------
		      1c5c:   2b00          cmp    r3, #0
		      1c5e:   f1a1 0404     sub.w  r4, r1, #4
		      1c62:   bfb8          it lt
		      1c64:   18e4          addlt  r4, r4, r3
		->    1c66:   f000 f8d5     bl 1e14 <__malloc_lock>
		      1c6a:   4a1e          ldr    r2, [pc, #120] ; (1ce4 <_free_r+0x94>)
		      1c6c:   9801          ldr    r0, [sp, #4]
		      1c6e:   6813          ldr    r3, [r2, #0]
		      1c70:   b933          cbnz   r3, 1c80 <_free_r+0x30>
		--------------------
	(    1c74,     1c76)	
		--------------------
		      1c6c:   9801          ldr    r0, [sp, #4]
		      1c6e:   6813          ldr    r3, [r2, #0]
		      1c70:   b933          cbnz   r3, 1c80 <_free_r+0x30>
		      1c72:   6063          str    r3, [r4, #4]
		->    1c74:   6014          str    r4, [r2, #0]
		      1c76:   b003          add    sp, #12
		      1c78:   e8bd 4030     ldmia.w    sp!, {r4, r5, lr}
		      1c7c:   f000 b8d0     b.w    1e20 <__malloc_unlock>
		      1c80:   42a3          cmp    r3, r4
		--------------------
	(    1c82,     1c96)	
		--------------------
		      1c76:   b003          add    sp, #12
		      1c78:   e8bd 4030     ldmia.w    sp!, {r4, r5, lr}
		      1c7c:   f000 b8d0     b.w    1e20 <__malloc_unlock>
		      1c80:   42a3          cmp    r3, r4
		->    1c82:   d908          bls.n  1c96 <_free_r+0x46>
		      1c84:   6825          ldr    r5, [r4, #0]
		      1c86:   1961          adds   r1, r4, r5
		      1c88:   428b          cmp    r3, r1
		      1c8a:   bf01          itttt  eq
		--------------------
	(    1cc0,     1cc8)	
		--------------------
		      1cb8:   6053          str    r3, [r2, #4]
		      1cba:   440c          add    r4, r1
		      1cbc:   6014          str    r4, [r2, #0]
		      1cbe:   e7da          b.n    1c76 <_free_r+0x26>
		->    1cc0:   d902          bls.n  1cc8 <_free_r+0x78>
		      1cc2:   230c          movs   r3, #12
		      1cc4:   6003          str    r3, [r0, #0]
		      1cc6:   e7d6          b.n    1c76 <_free_r+0x26>
		      1cc8:   6825          ldr    r5, [r4, #0]
		--------------------
	(    1eca,     1ece)	
		--------------------
		      1ec0:   07dc          lsls   r4, r3, #31
		      1ec2:   d504          bpl.n  1ece <_vfiprintf_r+0x4e>
		      1ec4:   f04f 30ff     mov.w  r0, #4294967295  ; 0xffffffff
		      1ec8:   b01d          add    sp, #116   ; 0x74
		->    1eca:   e8bd 8ff0     ldmia.w    sp!, {r4, r5, r6, r7, r8, r9, sl, fp, pc}
		      1ece:   89ab          ldrh   r3, [r5, #12]
		      1ed0:   0598          lsls   r0, r3, #22
		      1ed2:   d4f7          bmi.n  1ec4 <_vfiprintf_r+0x44>
		      1ed4:   6da8          ldr    r0, [r5, #88]  ; 0x58
		--------------------
	(    26d4,     26d4)	
		--------------------
		      26c6:   faa3 f587     sel    r5, r3, r7
		      26ca:   fa86 f647     uadd8  r6, r6, r7
		      26ce:   faa5 f687     sel    r6, r5, r7
		      26d2:   b98e          cbnz   r6, 26f8 <memchr+0x78>
		->    26d4:   d1ee          bne.n  26b4 <memchr+0x34>
		      26d6:   bcf0          pop    {r4, r5, r6, r7}
		      26d8:   f001 01ff     and.w  r1, r1, #255 ; 0xff
		      26dc:   f002 0207     and.w  r2, r2, #7
		      26e0:   b132          cbz    r2, 26f0 <memchr+0x70>
		--------------------
	(    26ee,     26ee)	
		--------------------
		      26e2:   f810 3b01     ldrb.w r3, [r0], #1
		      26e6:   3a01          subs   r2, #1
		      26e8:   ea83 0301     eor.w  r3, r3, r1
		      26ec:   b113          cbz    r3, 26f4 <memchr+0x74>
		->    26ee:   d1f8          bne.n  26e2 <memchr+0x62>
		      26f0:   2000          movs   r0, #0
		      26f2:   4770          bx lr
		      26f4:   3801          subs   r0, #1
		      26f6:   4770          bx lr
		--------------------
	(    26f2,     266c)	
		--------------------
		      26e8:   ea83 0301     eor.w  r3, r3, r1
		      26ec:   b113          cbz    r3, 26f4 <memchr+0x74>
		      26ee:   d1f8          bne.n  26e2 <memchr+0x62>
		      26f0:   2000          movs   r0, #0
		->    26f2:   4770          bx lr
		      26f4:   3801          subs   r0, #1
		      26f6:   4770          bx lr
		      26f8:   2d00          cmp    r5, #0
		      26fa:   bf06          itte   eq
		--------------------
