blinky-o0: 20 | 91 | 20 jt
	(     732,      746)	jt
		--------------------
		       724:   00000735  .word   0x00000735
		       728:   00000739  .word   0x00000739
		       72c:   0000073d  .word   0x0000073d
		       730:   2301          movs   r3, #1
		->     732:   e008          b.n    746 <nrf52_errata_16+0x56>
		       734:   2300          movs   r3, #0
		       736:   e006          b.n    746 <nrf52_errata_16+0x56>
		       738:   2300          movs   r3, #0
		       73a:   e004          b.n    746 <nrf52_errata_16+0x56>
		--------------------
	(     736,      746)	jt
		--------------------
		       72c:   0000073d  .word   0x0000073d
		       730:   2301          movs   r3, #1
		       732:   e008          b.n    746 <nrf52_errata_16+0x56>
		       734:   2300          movs   r3, #0
		->     736:   e006          b.n    746 <nrf52_errata_16+0x56>
		       738:   2300          movs   r3, #0
		       73a:   e004          b.n    746 <nrf52_errata_16+0x56>
		       73c:   2300          movs   r3, #0
		       73e:   e002          b.n    746 <nrf52_errata_16+0x56>
		--------------------
	(     7c2,      7ca)	jt
		--------------------
		       7ba:   e006          b.n    7ca <nrf52_errata_31+0x6e>
		       7bc:   2301          movs   r3, #1
		       7be:   e004          b.n    7ca <nrf52_errata_31+0x6e>
		       7c0:   2301          movs   r3, #1
		->     7c2:   e002          b.n    7ca <nrf52_errata_31+0x6e>
		       7c4:   2301          movs   r3, #1
		       7c6:   e000          b.n    7ca <nrf52_errata_31+0x6e>
		       7c8:   2300          movs   r3, #0
		       7ca:   4618          mov    r0, r3
		--------------------
	(     812,      834)	jt
		--------------------
		       80a:   3b03          subs   r3, #3
		       80c:   2b03          cmp    r3, #3
		       80e:   d813          bhi.n  838 <nrf52_errata_32+0x50>
		       810:   a201          add    r2, pc, #4 ; (adr r2, 818 <nrf52_errata_32+0x30>)
		->     812:   f852 f023     ldr.w  pc, [r2, r3, lsl #2]
		       816:   bf00          nop
		       818:   00000829  .word   0x00000829
		       81c:   0000082d  .word   0x0000082d
		       820:   00000831  .word   0x00000831
		--------------------
	(     82a,      83e)	jt
		--------------------
		       81c:   0000082d  .word   0x0000082d
		       820:   00000831  .word   0x00000831
		       824:   00000835  .word   0x00000835
		       828:   2301          movs   r3, #1
		->     82a:   e008          b.n    83e <nrf52_errata_32+0x56>
		       82c:   2300          movs   r3, #0
		       82e:   e006          b.n    83e <nrf52_errata_32+0x56>
		       830:   2300          movs   r3, #0
		       832:   e004          b.n    83e <nrf52_errata_32+0x56>
		--------------------
	(     82e,      83e)	jt
		--------------------
		       824:   00000835  .word   0x00000835
		       828:   2301          movs   r3, #1
		       82a:   e008          b.n    83e <nrf52_errata_32+0x56>
		       82c:   2300          movs   r3, #0
		->     82e:   e006          b.n    83e <nrf52_errata_32+0x56>
		       830:   2300          movs   r3, #0
		       832:   e004          b.n    83e <nrf52_errata_32+0x56>
		       834:   2300          movs   r3, #0
		       836:   e002          b.n    83e <nrf52_errata_32+0x56>
		--------------------
	(     896,      8ac)	jt
		--------------------
		       88e:   3b03          subs   r3, #3
		       890:   2b03          cmp    r3, #3
		       892:   d813          bhi.n  8bc <nrf52_errata_36+0x68>
		       894:   a201          add    r2, pc, #4 ; (adr r2, 89c <nrf52_errata_36+0x48>)
		->     896:   f852 f023     ldr.w  pc, [r2, r3, lsl #2]
		       89a:   bf00          nop
		       89c:   000008ad  .word   0x000008ad
		       8a0:   000008b1  .word   0x000008b1
		       8a4:   000008b5  .word   0x000008b5
		--------------------
	(     90a,      920)	jt
		--------------------
		       902:   3b03          subs   r3, #3
		       904:   2b03          cmp    r3, #3
		       906:   d813          bhi.n  930 <nrf52_errata_37+0x50>
		       908:   a201          add    r2, pc, #4 ; (adr r2, 910 <nrf52_errata_37+0x30>)
		->     90a:   f852 f023     ldr.w  pc, [r2, r3, lsl #2]
		       90e:   bf00          nop
		       910:   00000921  .word   0x00000921
		       914:   00000925  .word   0x00000925
		       918:   00000929  .word   0x00000929
		--------------------
	(     90a,      924)	jt
		--------------------
		       902:   3b03          subs   r3, #3
		       904:   2b03          cmp    r3, #3
		       906:   d813          bhi.n  930 <nrf52_errata_37+0x50>
		       908:   a201          add    r2, pc, #4 ; (adr r2, 910 <nrf52_errata_37+0x30>)
		->     90a:   f852 f023     ldr.w  pc, [r2, r3, lsl #2]
		       90e:   bf00          nop
		       910:   00000921  .word   0x00000921
		       914:   00000925  .word   0x00000925
		       918:   00000929  .word   0x00000929
		--------------------
	(     92a,      936)	jt
		--------------------
		       922:   e008          b.n    936 <nrf52_errata_37+0x56>
		       924:   2300          movs   r3, #0
		       926:   e006          b.n    936 <nrf52_errata_37+0x56>
		       928:   2300          movs   r3, #0
		->     92a:   e004          b.n    936 <nrf52_errata_37+0x56>
		       92c:   2300          movs   r3, #0
		       92e:   e002          b.n    936 <nrf52_errata_37+0x56>
		       930:   2300          movs   r3, #0
		       932:   e000          b.n    936 <nrf52_errata_37+0x56>
		--------------------
	(     976,      98c)	jt
		--------------------
		       96e:   3b03          subs   r3, #3
		       970:   2b03          cmp    r3, #3
		       972:   d813          bhi.n  99c <nrf52_errata_57+0x50>
		       974:   a201          add    r2, pc, #4 ; (adr r2, 97c <nrf52_errata_57+0x30>)
		->     976:   f852 f023     ldr.w  pc, [r2, r3, lsl #2]
		       97a:   bf00          nop
		       97c:   0000098d  .word   0x0000098d
		       980:   00000991  .word   0x00000991
		       984:   00000995  .word   0x00000995
		--------------------
	(     98e,      9a2)	jt
		--------------------
		       980:   00000991  .word   0x00000991
		       984:   00000995  .word   0x00000995
		       988:   00000999  .word   0x00000999
		       98c:   2301          movs   r3, #1
		->     98e:   e008          b.n    9a2 <nrf52_errata_57+0x56>
		       990:   2300          movs   r3, #0
		       992:   e006          b.n    9a2 <nrf52_errata_57+0x56>
		       994:   2300          movs   r3, #0
		       996:   e004          b.n    9a2 <nrf52_errata_57+0x56>
		--------------------
	(     99a,      9a2)	jt
		--------------------
		       992:   e006          b.n    9a2 <nrf52_errata_57+0x56>
		       994:   2300          movs   r3, #0
		       996:   e004          b.n    9a2 <nrf52_errata_57+0x56>
		       998:   2300          movs   r3, #0
		->     99a:   e002          b.n    9a2 <nrf52_errata_57+0x56>
		       99c:   2300          movs   r3, #0
		       99e:   e000          b.n    9a2 <nrf52_errata_57+0x56>
		       9a0:   2300          movs   r3, #0
		       9a2:   4618          mov    r0, r3
		--------------------
	(     a1a,      a26)	jt
		--------------------
		       a12:   e008          b.n    a26 <nrf52_errata_66+0x6e>
		       a14:   2300          movs   r3, #0
		       a16:   e006          b.n    a26 <nrf52_errata_66+0x6e>
		       a18:   2301          movs   r3, #1
		->     a1a:   e004          b.n    a26 <nrf52_errata_66+0x6e>
		       a1c:   2301          movs   r3, #1
		       a1e:   e002          b.n    a26 <nrf52_errata_66+0x6e>
		       a20:   2301          movs   r3, #1
		       a22:   e000          b.n    a26 <nrf52_errata_66+0x6e>
		--------------------
	(     a86,      aa8)	jt
		--------------------
		       a7e:   3b03          subs   r3, #3
		       a80:   2b03          cmp    r3, #3
		       a82:   d813          bhi.n  aac <nrf52_errata_108+0x68>
		       a84:   a201          add    r2, pc, #4 ; (adr r2, a8c <nrf52_errata_108+0x48>)
		->     a86:   f852 f023     ldr.w  pc, [r2, r3, lsl #2]
		       a8a:   bf00          nop
		       a8c:   00000a9d  .word   0x00000a9d
		       a90:   00000aa1  .word   0x00000aa1
		       a94:   00000aa5  .word   0x00000aa5
		--------------------
	(     aa6,      ab2)	jt
		--------------------
		       a9e:   e008          b.n    ab2 <nrf52_errata_108+0x6e>
		       aa0:   2301          movs   r3, #1
		       aa2:   e006          b.n    ab2 <nrf52_errata_108+0x6e>
		       aa4:   2301          movs   r3, #1
		->     aa6:   e004          b.n    ab2 <nrf52_errata_108+0x6e>
		       aa8:   2301          movs   r3, #1
		       aaa:   e002          b.n    ab2 <nrf52_errata_108+0x6e>
		       aac:   2301          movs   r3, #1
		       aae:   e000          b.n    ab2 <nrf52_errata_108+0x6e>
		--------------------
	(     b12,      b2c)	jt
		--------------------
		       b0a:   3b03          subs   r3, #3
		       b0c:   2b03          cmp    r3, #3
		       b0e:   d813          bhi.n  b38 <nrf52_errata_136+0x68>
		       b10:   a201          add    r2, pc, #4 ; (adr r2, b18 <nrf52_errata_136+0x48>)
		->     b12:   f852 f023     ldr.w  pc, [r2, r3, lsl #2]
		       b16:   bf00          nop
		       b18:   00000b29  .word   0x00000b29
		       b1c:   00000b2d  .word   0x00000b2d
		       b20:   00000b31  .word   0x00000b31
		--------------------
	(     b32,      b3e)	jt
		--------------------
		       b2a:   e008          b.n    b3e <nrf52_errata_136+0x6e>
		       b2c:   2301          movs   r3, #1
		       b2e:   e006          b.n    b3e <nrf52_errata_136+0x6e>
		       b30:   2301          movs   r3, #1
		->     b32:   e004          b.n    b3e <nrf52_errata_136+0x6e>
		       b34:   2301          movs   r3, #1
		       b36:   e002          b.n    b3e <nrf52_errata_136+0x6e>
		       b38:   2301          movs   r3, #1
		       b3a:   e000          b.n    b3e <nrf52_errata_136+0x6e>
		--------------------
	(     b36,      b3e)	jt
		--------------------
		       b2e:   e006          b.n    b3e <nrf52_errata_136+0x6e>
		       b30:   2301          movs   r3, #1
		       b32:   e004          b.n    b3e <nrf52_errata_136+0x6e>
		       b34:   2301          movs   r3, #1
		->     b36:   e002          b.n    b3e <nrf52_errata_136+0x6e>
		       b38:   2301          movs   r3, #1
		       b3a:   e000          b.n    b3e <nrf52_errata_136+0x6e>
		       b3c:   2300          movs   r3, #0
		       b3e:   4618          mov    r0, r3
		--------------------
	(     b9e,      baa)	jt
		--------------------
		       b96:   e008          b.n    baa <nrf52_errata_182+0x4e>
		       b98:   2300          movs   r3, #0
		       b9a:   e006          b.n    baa <nrf52_errata_182+0x4e>
		       b9c:   2300          movs   r3, #0
		->     b9e:   e004          b.n    baa <nrf52_errata_182+0x4e>
		       ba0:   2301          movs   r3, #1
		       ba2:   e002          b.n    baa <nrf52_errata_182+0x4e>
		       ba4:   2301          movs   r3, #1
		       ba6:   e000          b.n    baa <nrf52_errata_182+0x4e>
		--------------------

blinky-o1: 3 | 3 | 2 nop
	(     246,      248)	nop
		--------------------
		  
		  00000240 <_stack_init>:
		   240:   f5a3 3a80     sub.w  sl, r3, #65536   ; 0x10000
		   244:   4770          bx lr
		-> 246:   bf00          nop
		  
		  00000248 <_mainCRTStartup>:
		   248:   4b15          ldr    r3, [pc, #84]  ; (2a0 <_mainCRTStartup+0x58>)
		   24a:   2b00          cmp    r3, #0
		--------------------
	(     4f0,      3f8)	
		--------------------
		   4e8:   d186          bne.n  3f8 <SystemInit+0x38>
		   4ea:   4b88          ldr    r3, [pc, #544] ; (70c <SystemInit+0x34c>)
		   4ec:   4a88          ldr    r2, [pc, #544] ; (710 <SystemInit+0x350>)
		   4ee:   675a          str    r2, [r3, #116] ; 0x74
		-> 4f0:   e782          b.n    3f8 <SystemInit+0x38>
		   4f2:   f04f 4370     mov.w  r3, #4026531840  ; 0xf0000000
		   4f6:   f8d3 3fe8     ldr.w  r3, [r3, #4072]  ; 0xfe8
		   4fa:   f3c3 1303     ubfx   r3, r3, #4, #4
		   4fe:   2b03          cmp    r3, #3
		--------------------
	(     952,      954)	nop
		--------------------
		   94c:   200000c0  .word   0x200000c0
		  
		  00000950 <_exit>:
		   950:   e7fe          b.n    950 <_exit>
		-> 952:   bf00          nop
		  
		  00000954 <_init>:
		   954:   b5f8          push   {r3, r4, r5, r6, r7, lr}
		   956:   bf00          nop
		--------------------

blinky-o2: 4 | 4 | 3 nop
	(     246,      248)	nop
		--------------------
		  
		  00000240 <_stack_init>:
		   240:   f5a3 3a80     sub.w  sl, r3, #65536   ; 0x10000
		   244:   4770          bx lr
		-> 246:   bf00          nop
		  
		  00000248 <_mainCRTStartup>:
		   248:   4b15          ldr    r3, [pc, #84]  ; (2a0 <_mainCRTStartup+0x58>)
		   24a:   2b00          cmp    r3, #0
		--------------------
	(     36e,      370)	nop
		--------------------
		   360:   f8c3 4508     str.w  r4, [r3, #1288]  ; 0x508
		   364:   f8c3 1508     str.w  r1, [r3, #1288]  ; 0x508
		   368:   f8c3 2508     str.w  r2, [r3, #1288]  ; 0x508
		   36c:   e7d3          b.n    316 <bsp_board_init+0x6>
		-> 36e:   bf00          nop
		  
		  00000370 <main>:
		   370:   b570          push   {r4, r5, r6, lr}
		   372:   2001          movs   r0, #1
		--------------------
	(     664,      3da)	
		--------------------
		   65a:   f43f aebe     beq.w  3da <SystemInit+0x3a>
		   65e:   4b17          ldr    r3, [pc, #92]  ; (6bc <SystemInit+0x31c>)
		   660:   4a17          ldr    r2, [pc, #92]  ; (6c0 <SystemInit+0x320>)
		   662:   675a          str    r2, [r3, #116] ; 0x74
		-> 664:   e6b9          b.n    3da <SystemInit+0x3a>
		   666:   4a17          ldr    r2, [pc, #92]  ; (6c4 <SystemInit+0x324>)
		   668:   5cd3          ldrb   r3, [r2, r3]
		   66a:   2b00          cmp    r3, #0
		   66c:   f43f af08     beq.w  480 <SystemInit+0xe0>
		--------------------
	(     966,      968)	nop
		--------------------
		   960:   200000c0  .word   0x200000c0
		  
		  00000964 <_exit>:
		   964:   e7fe          b.n    964 <_exit>
		-> 966:   bf00          nop
		  
		  00000968 <_init>:
		   968:   b5f8          push   {r3, r4, r5, r6, r7, lr}
		   96a:   bf00          nop
		--------------------

blinky-o3: 3 | 3 | 2 nop
	(     246,      248)	nop
		--------------------
		  
		  00000240 <_stack_init>:
		   240:   f5a3 3a80     sub.w  sl, r3, #65536   ; 0x10000
		   244:   4770          bx lr
		-> 246:   bf00          nop
		  
		  00000248 <_mainCRTStartup>:
		   248:   4b15          ldr    r3, [pc, #84]  ; (2a0 <_mainCRTStartup+0x58>)
		   24a:   2b00          cmp    r3, #0
		--------------------
	(     648,      3d6)	
		--------------------
		   63e:   f43f aeca     beq.w  3d6 <SystemInit+0x3a>
		   642:   4b35          ldr    r3, [pc, #212] ; (718 <SystemInit+0x37c>)
		   644:   4a35          ldr    r2, [pc, #212] ; (71c <SystemInit+0x380>)
		   646:   675a          str    r2, [r3, #116] ; 0x74
		-> 648:   e6c5          b.n    3d6 <SystemInit+0x3a>
		   64a:   f04f 4370     mov.w  r3, #4026531840  ; 0xf0000000
		   64e:   f893 3fe0     ldrb.w r3, [r3, #4064] ; 0xfe0
		   652:   2b06          cmp    r3, #6
		   654:   f47f af03     bne.w  45e <SystemInit+0xc2>
		--------------------
	(     952,      954)	nop
		--------------------
		   94c:   200000c0  .word   0x200000c0
		  
		  00000950 <_exit>:
		   950:   e7fe          b.n    950 <_exit>
		-> 952:   bf00          nop
		  
		  00000954 <_init>:
		   954:   b5f8          push   {r3, r4, r5, r6, r7, lr}
		   956:   bf00          nop
		--------------------

gpiote-o0: 20 | 105 | 17 jt | 3 ret
	(     316,     18b4)	ret
		--------------------
		       30c:   f000 f81a     bl 344 <app_error_fault_handler>
		       310:   bf00          nop
		       312:   3718          adds   r7, #24
		       314:   46bd          mov    sp, r7
		->     316:   bd80          pop    {r7, pc}
		  
		  00000318 <__NVIC_SystemReset>:
		       318:   b480          push   {r7}
		       31a:   af00          add    r7, sp, #0
		--------------------
	(     316,     1938)	ret
		--------------------
		       30c:   f000 f81a     bl 344 <app_error_fault_handler>
		       310:   bf00          nop
		       312:   3718          adds   r7, #24
		       314:   46bd          mov    sp, r7
		->     316:   bd80          pop    {r7, pc}
		  
		  00000318 <__NVIC_SystemReset>:
		       318:   b480          push   {r7}
		       31a:   af00          add    r7, sp, #0
		--------------------
	(    10ea,     11f8)	ret
		--------------------
		      10e2:   b2db          uxtb   r3, r3
		      10e4:   4618          mov    r0, r3
		      10e6:   3708          adds   r7, #8
		      10e8:   46bd          mov    sp, r7
		->    10ea:   bd80          pop    {r7, pc}
		      10ec:   20000088  .word   0x20000088
		  
		  000010f0 <channel_allocated_set>:
		      10f0:   b580          push   {r7, lr}
		--------------------
	(    19fe,     1a14)	jt
		--------------------
		      19f6:   3b03          subs   r3, #3
		      19f8:   2b03          cmp    r3, #3
		      19fa:   d813          bhi.n  1a24 <nrf52_errata_12+0x68>
		      19fc:   a201          add    r2, pc, #4 ; (adr r2, 1a04 <nrf52_errata_12+0x48>)
		->    19fe:   f852 f023     ldr.w  pc, [r2, r3, lsl #2]
		      1a02:   bf00          nop
		      1a04:   00001a15  .word   0x00001a15
		      1a08:   00001a19  .word   0x00001a19
		      1a0c:   00001a1d  .word   0x00001a1d
		--------------------
	(    1a16,     1a2a)	jt
		--------------------
		      1a08:   00001a19  .word   0x00001a19
		      1a0c:   00001a1d  .word   0x00001a1d
		      1a10:   00001a21  .word   0x00001a21
		      1a14:   2301          movs   r3, #1
		->    1a16:   e008          b.n    1a2a <nrf52_errata_12+0x6e>
		      1a18:   2301          movs   r3, #1
		      1a1a:   e006          b.n    1a2a <nrf52_errata_12+0x6e>
		      1a1c:   2301          movs   r3, #1
		      1a1e:   e004          b.n    1a2a <nrf52_errata_12+0x6e>
		--------------------
	(    1a22,     1a2a)	jt
		--------------------
		      1a1a:   e006          b.n    1a2a <nrf52_errata_12+0x6e>
		      1a1c:   2301          movs   r3, #1
		      1a1e:   e004          b.n    1a2a <nrf52_errata_12+0x6e>
		      1a20:   2301          movs   r3, #1
		->    1a22:   e002          b.n    1a2a <nrf52_errata_12+0x6e>
		      1a24:   2301          movs   r3, #1
		      1a26:   e000          b.n    1a2a <nrf52_errata_12+0x6e>
		      1a28:   2300          movs   r3, #0
		      1a2a:   4618          mov    r0, r3
		--------------------
	(    1af6,     1b14)	jt
		--------------------
		      1aee:   3b03          subs   r3, #3
		      1af0:   2b03          cmp    r3, #3
		      1af2:   d813          bhi.n  1b1c <nrf52_errata_31+0x68>
		      1af4:   a201          add    r2, pc, #4 ; (adr r2, 1afc <nrf52_errata_31+0x48>)
		->    1af6:   f852 f023     ldr.w  pc, [r2, r3, lsl #2]
		      1afa:   bf00          nop
		      1afc:   00001b0d  .word   0x00001b0d
		      1b00:   00001b11  .word   0x00001b11
		      1b04:   00001b15  .word   0x00001b15
		--------------------
	(    1b16,     1b22)	jt
		--------------------
		      1b0e:   e008          b.n    1b22 <nrf52_errata_31+0x6e>
		      1b10:   2301          movs   r3, #1
		      1b12:   e006          b.n    1b22 <nrf52_errata_31+0x6e>
		      1b14:   2301          movs   r3, #1
		->    1b16:   e004          b.n    1b22 <nrf52_errata_31+0x6e>
		      1b18:   2301          movs   r3, #1
		      1b1a:   e002          b.n    1b22 <nrf52_errata_31+0x6e>
		      1b1c:   2301          movs   r3, #1
		      1b1e:   e000          b.n    1b22 <nrf52_errata_31+0x6e>
		--------------------
	(    1b6a,     1b88)	jt
		--------------------
		      1b62:   3b03          subs   r3, #3
		      1b64:   2b03          cmp    r3, #3
		      1b66:   d813          bhi.n  1b90 <nrf52_errata_32+0x50>
		      1b68:   a201          add    r2, pc, #4 ; (adr r2, 1b70 <nrf52_errata_32+0x30>)
		->    1b6a:   f852 f023     ldr.w  pc, [r2, r3, lsl #2]
		      1b6e:   bf00          nop
		      1b70:   00001b81  .word   0x00001b81
		      1b74:   00001b85  .word   0x00001b85
		      1b78:   00001b89  .word   0x00001b89
		--------------------
	(    1b82,     1b96)	jt
		--------------------
		      1b74:   00001b85  .word   0x00001b85
		      1b78:   00001b89  .word   0x00001b89
		      1b7c:   00001b8d  .word   0x00001b8d
		      1b80:   2301          movs   r3, #1
		->    1b82:   e008          b.n    1b96 <nrf52_errata_32+0x56>
		      1b84:   2300          movs   r3, #0
		      1b86:   e006          b.n    1b96 <nrf52_errata_32+0x56>
		      1b88:   2300          movs   r3, #0
		      1b8a:   e004          b.n    1b96 <nrf52_errata_32+0x56>
		--------------------
	(    1b8a,     1b96)	jt
		--------------------
		      1b82:   e008          b.n    1b96 <nrf52_errata_32+0x56>
		      1b84:   2300          movs   r3, #0
		      1b86:   e006          b.n    1b96 <nrf52_errata_32+0x56>
		      1b88:   2300          movs   r3, #0
		->    1b8a:   e004          b.n    1b96 <nrf52_errata_32+0x56>
		      1b8c:   2300          movs   r3, #0
		      1b8e:   e002          b.n    1b96 <nrf52_errata_32+0x56>
		      1b90:   2300          movs   r3, #0
		      1b92:   e000          b.n    1b96 <nrf52_errata_32+0x56>
		--------------------
	(    1c06,     1c1a)	jt
		--------------------
		      1bf8:   00001c09  .word   0x00001c09
		      1bfc:   00001c0d  .word   0x00001c0d
		      1c00:   00001c11  .word   0x00001c11
		      1c04:   2301          movs   r3, #1
		->    1c06:   e008          b.n    1c1a <nrf52_errata_36+0x6e>
		      1c08:   2301          movs   r3, #1
		      1c0a:   e006          b.n    1c1a <nrf52_errata_36+0x6e>
		      1c0c:   2301          movs   r3, #1
		      1c0e:   e004          b.n    1c1a <nrf52_errata_36+0x6e>
		--------------------
	(    1c86,     1c8e)	jt
		--------------------
		      1c7e:   e006          b.n    1c8e <nrf52_errata_37+0x56>
		      1c80:   2300          movs   r3, #0
		      1c82:   e004          b.n    1c8e <nrf52_errata_37+0x56>
		      1c84:   2300          movs   r3, #0
		->    1c86:   e002          b.n    1c8e <nrf52_errata_37+0x56>
		      1c88:   2300          movs   r3, #0
		      1c8a:   e000          b.n    1c8e <nrf52_errata_37+0x56>
		      1c8c:   2300          movs   r3, #0
		      1c8e:   4618          mov    r0, r3
		--------------------
	(    1cee,     1cfa)	jt
		--------------------
		      1ce6:   e008          b.n    1cfa <nrf52_errata_57+0x56>
		      1ce8:   2300          movs   r3, #0
		      1cea:   e006          b.n    1cfa <nrf52_errata_57+0x56>
		      1cec:   2300          movs   r3, #0
		->    1cee:   e004          b.n    1cfa <nrf52_errata_57+0x56>
		      1cf0:   2300          movs   r3, #0
		      1cf2:   e002          b.n    1cfa <nrf52_errata_57+0x56>
		      1cf4:   2300          movs   r3, #0
		      1cf6:   e000          b.n    1cfa <nrf52_errata_57+0x56>
		--------------------
	(    1d6e,     1d7e)	jt
		--------------------
		      1d64:   00001d75  .word   0x00001d75
		      1d68:   2300          movs   r3, #0
		      1d6a:   e008          b.n    1d7e <nrf52_errata_66+0x6e>
		      1d6c:   2300          movs   r3, #0
		->    1d6e:   e006          b.n    1d7e <nrf52_errata_66+0x6e>
		      1d70:   2301          movs   r3, #1
		      1d72:   e004          b.n    1d7e <nrf52_errata_66+0x6e>
		      1d74:   2301          movs   r3, #1
		      1d76:   e002          b.n    1d7e <nrf52_errata_66+0x6e>
		--------------------
	(    1dde,     1df4)	jt
		--------------------
		      1dd6:   3b03          subs   r3, #3
		      1dd8:   2b03          cmp    r3, #3
		      1dda:   d813          bhi.n  1e04 <nrf52_errata_108+0x68>
		      1ddc:   a201          add    r2, pc, #4 ; (adr r2, 1de4 <nrf52_errata_108+0x48>)
		->    1dde:   f852 f023     ldr.w  pc, [r2, r3, lsl #2]
		      1de2:   bf00          nop
		      1de4:   00001df5  .word   0x00001df5
		      1de8:   00001df9  .word   0x00001df9
		      1dec:   00001dfd  .word   0x00001dfd
		--------------------
	(    1dde,     1df8)	jt
		--------------------
		      1dd6:   3b03          subs   r3, #3
		      1dd8:   2b03          cmp    r3, #3
		      1dda:   d813          bhi.n  1e04 <nrf52_errata_108+0x68>
		      1ddc:   a201          add    r2, pc, #4 ; (adr r2, 1de4 <nrf52_errata_108+0x48>)
		->    1dde:   f852 f023     ldr.w  pc, [r2, r3, lsl #2]
		      1de2:   bf00          nop
		      1de4:   00001df5  .word   0x00001df5
		      1de8:   00001df9  .word   0x00001df9
		      1dec:   00001dfd  .word   0x00001dfd
		--------------------
	(    1e6a,     1e80)	jt
		--------------------
		      1e62:   3b03          subs   r3, #3
		      1e64:   2b03          cmp    r3, #3
		      1e66:   d813          bhi.n  1e90 <nrf52_errata_136+0x68>
		      1e68:   a201          add    r2, pc, #4 ; (adr r2, 1e70 <nrf52_errata_136+0x48>)
		->    1e6a:   f852 f023     ldr.w  pc, [r2, r3, lsl #2]
		      1e6e:   bf00          nop
		      1e70:   00001e81  .word   0x00001e81
		      1e74:   00001e85  .word   0x00001e85
		      1e78:   00001e89  .word   0x00001e89
		--------------------
	(    1e86,     1e96)	jt
		--------------------
		      1e7c:   00001e8d  .word   0x00001e8d
		      1e80:   2301          movs   r3, #1
		      1e82:   e008          b.n    1e96 <nrf52_errata_136+0x6e>
		      1e84:   2301          movs   r3, #1
		->    1e86:   e006          b.n    1e96 <nrf52_errata_136+0x6e>
		      1e88:   2301          movs   r3, #1
		      1e8a:   e004          b.n    1e96 <nrf52_errata_136+0x6e>
		      1e8c:   2301          movs   r3, #1
		      1e8e:   e002          b.n    1e96 <nrf52_errata_136+0x6e>
		--------------------
	(    1eee,     1f02)	jt
		--------------------
		      1ee0:   00001ef1  .word   0x00001ef1
		      1ee4:   00001ef5  .word   0x00001ef5
		      1ee8:   00001ef9  .word   0x00001ef9
		      1eec:   2300          movs   r3, #0
		->    1eee:   e008          b.n    1f02 <nrf52_errata_182+0x4e>
		      1ef0:   2300          movs   r3, #0
		      1ef2:   e006          b.n    1f02 <nrf52_errata_182+0x4e>
		      1ef4:   2300          movs   r3, #0
		      1ef6:   e004          b.n    1f02 <nrf52_errata_182+0x4e>
		--------------------

gpiote-o1: 5 | 5 | 2 ret | 2 nop
	(     246,      248)	nop
		--------------------
		  
		  00000240 <_stack_init>:
		       240:   f5a3 3a80     sub.w  sl, r3, #65536   ; 0x10000
		       244:   4770          bx lr
		->     246:   bf00          nop
		  
		  00000248 <_mainCRTStartup>:
		       248:   4b15          ldr    r3, [pc, #84]  ; (2a0 <_mainCRTStartup+0x58>)
		       24a:   2b00          cmp    r3, #0
		--------------------
	(     36e,      6d6)	ret
		--------------------
		  
		  00000368 <app_util_critical_region_exit>:
		       368:   b508          push   {r3, lr}
		       36a:   f7ff ffef     bl 34c <app_util_enable_irq>
		->     36e:   bd08          pop    {r3, pc}
		  
		  00000370 <nrf_drv_ppi_init>:
		       370:   4b04          ldr    r3, [pc, #16]  ; (384 <nrf_drv_ppi_init+0x14>)
		       372:   781b          ldrb   r3, [r3, #0]
		--------------------
	(     b74,      a7c)	
		--------------------
		       b6c:   d186          bne.n  a7c <SystemInit+0x38>
		       b6e:   4b88          ldr    r3, [pc, #544] ; (d90 <SystemInit+0x34c>)
		       b70:   4a88          ldr    r2, [pc, #544] ; (d94 <SystemInit+0x350>)
		       b72:   675a          str    r2, [r3, #116] ; 0x74
		->     b74:   e782          b.n    a7c <SystemInit+0x38>
		       b76:   f04f 4370     mov.w  r3, #4026531840  ; 0xf0000000
		       b7a:   f8d3 3fe8     ldr.w  r3, [r3, #4072]  ; 0xfe8
		       b7e:   f3c3 1303     ubfx   r3, r3, #4, #4
		       b82:   2b03          cmp    r3, #3
		--------------------
	(     de4,      3f4)	ret
		--------------------
		       ddc:   4402          add    r2, r0
		       dde:   4603          mov    r3, r0
		       de0:   4293          cmp    r3, r2
		       de2:   d100          bne.n  de6 <memset+0xa>
		->     de4:   4770          bx lr
		       de6:   f803 1b01     strb.w r1, [r3], #1
		       dea:   e7f9          b.n    de0 <memset+0x4>
		  
		  00000dec <__libc_init_array>:
		--------------------
	(     fd6,      fd8)	nop
		--------------------
		       fd0:   2000012c  .word   0x2000012c
		  
		  00000fd4 <_exit>:
		       fd4:   e7fe          b.n    fd4 <_exit>
		->     fd6:   bf00          nop
		  
		  00000fd8 <_init>:
		       fd8:   b5f8          push   {r3, r4, r5, r6, r7, lr}
		       fda:   bf00          nop
		--------------------

gpiote-o2: 10 | 10 | 2 ret | 5 nop
	(     246,      248)	nop
		--------------------
		  
		  00000240 <_stack_init>:
		       240:   f5a3 3a80     sub.w  sl, r3, #65536   ; 0x10000
		       244:   4770          bx lr
		->     246:   bf00          nop
		  
		  00000248 <_mainCRTStartup>:
		       248:   4b15          ldr    r3, [pc, #84]  ; (2a0 <_mainCRTStartup+0x58>)
		       24a:   2b00          cmp    r3, #0
		--------------------
	(     30a,      30c)	nop
		--------------------
		       2fe:   9303          str    r3, [sp, #12]
		       300:   f000 f804     bl 30c <app_error_fault_handler>
		       304:   b005          add    sp, #20
		       306:   f85d fb04     ldr.w  pc, [sp], #4
		->     30a:   bf00          nop
		  
		  0000030c <app_error_fault_handler>:
		       30c:   b672          cpsid  i
		       30e:   4b09          ldr    r3, [pc, #36]  ; (334 <app_error_fault_handler+0x28>)
		--------------------
	(     358,      6b0)	ret
		--------------------
		       350:   3b01          subs   r3, #1
		       352:   6013          str    r3, [r2, #0]
		       354:   b903          cbnz   r3, 358 <app_util_critical_region_exit+0xc>
		       356:   b662          cpsie  i
		->     358:   4770          bx lr
		       35a:   bf00          nop
		       35c:   20000034  .word   0x20000034
		  
		  00000360 <nrf_drv_ppi_init>:
		--------------------
	(     8f6,      8f8)	nop
		--------------------
		       8ec:   4770          bx lr
		       8ee:   6803          ldr    r3, [r0, #0]
		       8f0:   f8c3 4308     str.w  r4, [r3, #776]   ; 0x308
		       8f4:   e7f3          b.n    8de <nrfx_timer_extended_compare+0x4a>
		->     8f6:   bf00          nop
		  
		  000008f8 <TIMER0_IRQHandler>:
		       8f8:   e92d 41f0     stmdb  sp!, {r4, r5, r6, r7, r8, lr}
		       8fc:   4d11          ldr    r5, [pc, #68]  ; (944 <TIMER0_IRQHandler+0x4c>)
		--------------------
	(     914,      936)	
		--------------------
		       908:   f44f 3680     mov.w  r6, #65536   ; 0x10000
		       90c:   682b          ldr    r3, [r5, #0]
		       90e:   fa06 f204     lsl.w  r2, r6, r4
		       912:   3401          adds   r4, #1
		->     914:   b17b          cbz    r3, 936 <TIMER0_IRQHandler+0x3e>
		       916:   f8d7 3304     ldr.w  r3, [r7, #772]   ; 0x304
		       91a:   f5a5 4000     sub.w  r0, r5, #32768   ; 0x8000
		       91e:   421a          tst    r2, r3
		       920:   f04f 0100     mov.w  r1, #0
		--------------------
	(     926,      928)	
		--------------------
		       91a:   f5a5 4000     sub.w  r0, r5, #32768   ; 0x8000
		       91e:   421a          tst    r2, r3
		       920:   f04f 0100     mov.w  r1, #0
		       924:   b280          uxth   r0, r0
		->     926:   d006          beq.n  936 <TIMER0_IRQHandler+0x3e>
		       928:   6029          str    r1, [r5, #0]
		       92a:   682b          ldr    r3, [r5, #0]
		       92c:   9301          str    r3, [sp, #4]
		       92e:   e9d8 3100     ldrd   r3, r1, [r8]
		--------------------
	(     952,      954)	nop
		--------------------
		       94c:   2000008c  .word   0x2000008c
		  
		  00000950 <timer_dummy_handler>:
		       950:   4770          bx lr
		->     952:   bf00          nop
		  
		  00000954 <main>:
		       954:   b510          push   {r4, lr}
		       956:   b088          sub    sp, #32
		--------------------
	(     ce4,      a5a)	
		--------------------
		       cda:   f43f aebe     beq.w  a5a <SystemInit+0x3a>
		       cde:   4b17          ldr    r3, [pc, #92]  ; (d3c <SystemInit+0x31c>)
		       ce0:   4a17          ldr    r2, [pc, #92]  ; (d40 <SystemInit+0x320>)
		       ce2:   675a          str    r2, [r3, #116] ; 0x74
		->     ce4:   e6b9          b.n    a5a <SystemInit+0x3a>
		       ce6:   4a17          ldr    r2, [pc, #92]  ; (d44 <SystemInit+0x324>)
		       ce8:   5cd3          ldrb   r3, [r2, r3]
		       cea:   2b00          cmp    r3, #0
		       cec:   f43f af08     beq.w  b00 <SystemInit+0xe0>
		--------------------
	(     df4,      3ca)	ret
		--------------------
		       dec:   4402          add    r2, r0
		       dee:   4603          mov    r3, r0
		       df0:   4293          cmp    r3, r2
		       df2:   d100          bne.n  df6 <memset+0xa>
		->     df4:   4770          bx lr
		       df6:   f803 1b01     strb.w r1, [r3], #1
		       dfa:   e7f9          b.n    df0 <memset+0x4>
		  
		  00000dfc <__libc_init_array>:
		--------------------
	(     fe6,      fe8)	nop
		--------------------
		       fe0:   2000012c  .word   0x2000012c
		  
		  00000fe4 <_exit>:
		       fe4:   e7fe          b.n    fe4 <_exit>
		->     fe6:   bf00          nop
		  
		  00000fe8 <_init>:
		       fe8:   b5f8          push   {r3, r4, r5, r6, r7, lr}
		       fea:   bf00          nop
		--------------------

gpiote-o3: 10 | 10 | 2 ret | 5 nop
	(     246,      248)	nop
		--------------------
		  
		  00000240 <_stack_init>:
		       240:   f5a3 3a80     sub.w  sl, r3, #65536   ; 0x10000
		       244:   4770          bx lr
		->     246:   bf00          nop
		  
		  00000248 <_mainCRTStartup>:
		       248:   4b15          ldr    r3, [pc, #84]  ; (2a0 <_mainCRTStartup+0x58>)
		       24a:   2b00          cmp    r3, #0
		--------------------
	(     30a,      30c)	nop
		--------------------
		       2fe:   9303          str    r3, [sp, #12]
		       300:   f000 f804     bl 30c <app_error_fault_handler>
		       304:   b005          add    sp, #20
		       306:   f85d fb04     ldr.w  pc, [sp], #4
		->     30a:   bf00          nop
		  
		  0000030c <app_error_fault_handler>:
		       30c:   b672          cpsid  i
		       30e:   4b09          ldr    r3, [pc, #36]  ; (334 <app_error_fault_handler+0x28>)
		--------------------
	(     358,      828)	ret
		--------------------
		       350:   3b01          subs   r3, #1
		       352:   6013          str    r3, [r2, #0]
		       354:   b903          cbnz   r3, 358 <app_util_critical_region_exit+0xc>
		       356:   b662          cpsie  i
		->     358:   4770          bx lr
		       35a:   bf00          nop
		       35c:   20000034  .word   0x20000034
		  
		  00000360 <nrf_drv_ppi_init>:
		--------------------
	(     a6e,      a70)	nop
		--------------------
		       a64:   4770          bx lr
		       a66:   6803          ldr    r3, [r0, #0]
		       a68:   f8c3 4308     str.w  r4, [r3, #776]   ; 0x308
		       a6c:   e7f3          b.n    a56 <nrfx_timer_extended_compare+0x4a>
		->     a6e:   bf00          nop
		  
		  00000a70 <TIMER0_IRQHandler>:
		       a70:   e92d 41f0     stmdb  sp!, {r4, r5, r6, r7, r8, lr}
		       a74:   4d11          ldr    r5, [pc, #68]  ; (abc <TIMER0_IRQHandler+0x4c>)
		--------------------
	(     a8c,      aae)	
		--------------------
		       a80:   f44f 3680     mov.w  r6, #65536   ; 0x10000
		       a84:   682b          ldr    r3, [r5, #0]
		       a86:   fa06 f204     lsl.w  r2, r6, r4
		       a8a:   3401          adds   r4, #1
		->     a8c:   b17b          cbz    r3, aae <TIMER0_IRQHandler+0x3e>
		       a8e:   f8d7 3304     ldr.w  r3, [r7, #772]   ; 0x304
		       a92:   f5a5 4000     sub.w  r0, r5, #32768   ; 0x8000
		       a96:   421a          tst    r2, r3
		       a98:   f04f 0100     mov.w  r1, #0
		--------------------
	(     a9e,      aa0)	
		--------------------
		       a92:   f5a5 4000     sub.w  r0, r5, #32768   ; 0x8000
		       a96:   421a          tst    r2, r3
		       a98:   f04f 0100     mov.w  r1, #0
		       a9c:   b280          uxth   r0, r0
		->     a9e:   d006          beq.n  aae <TIMER0_IRQHandler+0x3e>
		       aa0:   6029          str    r1, [r5, #0]
		       aa2:   682b          ldr    r3, [r5, #0]
		       aa4:   9301          str    r3, [sp, #4]
		       aa6:   e9d8 3100     ldrd   r3, r1, [r8]
		--------------------
	(     aca,      acc)	nop
		--------------------
		       ac4:   20000090  .word   0x20000090
		  
		  00000ac8 <timer_dummy_handler>:
		       ac8:   4770          bx lr
		->     aca:   bf00          nop
		  
		  00000acc <main>:
		       acc:   b510          push   {r4, lr}
		       ace:   b088          sub    sp, #32
		--------------------
	(     e44,      bd2)	
		--------------------
		       e3a:   f43f aeca     beq.w  bd2 <SystemInit+0x3a>
		       e3e:   4b35          ldr    r3, [pc, #212] ; (f14 <SystemInit+0x37c>)
		       e40:   4a35          ldr    r2, [pc, #212] ; (f18 <SystemInit+0x380>)
		       e42:   675a          str    r2, [r3, #116] ; 0x74
		->     e44:   e6c5          b.n    bd2 <SystemInit+0x3a>
		       e46:   f04f 4370     mov.w  r3, #4026531840  ; 0xf0000000
		       e4a:   f893 3fe0     ldrb.w r3, [r3, #4064] ; 0xfe0
		       e4e:   2b06          cmp    r3, #6
		       e50:   f47f af03     bne.w  c5a <SystemInit+0xc2>
		--------------------
	(     f5c,      3d2)	ret
		--------------------
		       f54:   4402          add    r2, r0
		       f56:   4603          mov    r3, r0
		       f58:   4293          cmp    r3, r2
		       f5a:   d100          bne.n  f5e <memset+0xa>
		->     f5c:   4770          bx lr
		       f5e:   f803 1b01     strb.w r1, [r3], #1
		       f62:   e7f9          b.n    f58 <memset+0x4>
		  
		  00000f64 <__libc_init_array>:
		--------------------
	(    114e,     1150)	nop
		--------------------
		      1148:   20000130  .word   0x20000130
		  
		  0000114c <_exit>:
		      114c:   e7fe          b.n    114c <_exit>
		->    114e:   bf00          nop
		  
		  00001150 <_init>:
		      1150:   b5f8          push   {r3, r4, r5, r6, r7, lr}
		      1152:   bf00          nop
		--------------------

i2s-o0: 73 | 733 | 25 jt | 22 dead | 23 ret | 3 ft
	(     63c,      640)	dead
		--------------------
		       632:   6078          str    r0, [r7, #4]
		       634:   4804          ldr    r0, [pc, #16]  ; (648 <nrf_log_backend_uart_panic_set+0x1c>)
		       636:   f7ff fef3     bl 420 <nrf_drv_uart_uninit>
		       63a:   2000          movs   r0, #0
		->     63c:   f7ff ff54     bl 4e8 <uart_init>
		       640:   bf00          nop
		       642:   3708          adds   r7, #8
		       644:   46bd          mov    sp, r7
		       646:   bd80          pop    {r7, pc}
		--------------------
	(    1076,      c52)	ret
		--------------------
		      106e:   b2db          uxtb   r3, r3
		      1070:   4618          mov    r0, r3
		      1072:   3760          adds   r7, #96   ; 0x60
		      1074:   46bd          mov    sp, r7
		->    1076:   bd80          pop    {r7, pc}
		      1078:   20000230  .word   0x20000230
		      107c:   00005d2c  .word   0x00005d2c
		      1080:   00005d0c  .word   0x00005d0c
		      1084:   00005a70  .word   0x00005a70
		--------------------
	(    12e8,     1baa)	jt
		--------------------
		      12e0:   681b          ldr    r3, [r3, #0]
		      12e2:   461a          mov    r2, r3
		      12e4:   68f9          ldr    r1, [r7, #12]
		      12e6:   6ab8          ldr    r0, [r7, #40]  ; 0x28
		->    12e8:   f000 fc5f     bl 1baa <nrf_fprintf>
		      12ec:   e061          b.n    13b2 <nrf_log_std_entry_process+0x12a>
		      12ee:   68bb          ldr    r3, [r7, #8]
		      12f0:   681a          ldr    r2, [r3, #0]
		      12f2:   68bb          ldr    r3, [r7, #8]
		--------------------
	(    12ec,     13b2)	jt
		--------------------
		      12e2:   461a          mov    r2, r3
		      12e4:   68f9          ldr    r1, [r7, #12]
		      12e6:   6ab8          ldr    r0, [r7, #40]  ; 0x28
		      12e8:   f000 fc5f     bl 1baa <nrf_fprintf>
		->    12ec:   e061          b.n    13b2 <nrf_log_std_entry_process+0x12a>
		      12ee:   68bb          ldr    r3, [r7, #8]
		      12f0:   681a          ldr    r2, [r3, #0]
		      12f2:   68bb          ldr    r3, [r7, #8]
		      12f4:   3304          adds   r3, #4
		--------------------
	(    1376,     13b2)	jt
		--------------------
		      136c:   4602          mov    r2, r0
		      136e:   68f9          ldr    r1, [r7, #12]
		      1370:   6ab8          ldr    r0, [r7, #40]  ; 0x28
		      1372:   f000 fc1a     bl 1baa <nrf_fprintf>
		->    1376:   e01c          b.n    13b2 <nrf_log_std_entry_process+0x12a>
		      1378:   68bb          ldr    r3, [r7, #8]
		      137a:   681c          ldr    r4, [r3, #0]
		      137c:   68bb          ldr    r3, [r7, #8]
		      137e:   3304          adds   r3, #4
		--------------------
	(    18ea,     1ae8)	ret
		--------------------
		      18e0:   f7ff ffd6     bl 1890 <app_util_disable_irq>
		      18e4:   bf00          nop
		      18e6:   3708          adds   r7, #8
		      18e8:   46bd          mov    sp, r7
		->    18ea:   bd80          pop    {r7, pc}
		  
		  000018ec <app_util_critical_region_exit>:
		      18ec:   b580          push   {r7, lr}
		      18ee:   b082          sub    sp, #8
		--------------------
	(    1ba8,     1c22)	ret
		--------------------
		      1ba0:   e000          b.n    1ba4 <nrf_fprintf_buffer_flush+0x2c>
		      1ba2:   bf00          nop
		      1ba4:   3708          adds   r7, #8
		      1ba6:   46bd          mov    sp, r7
		->    1ba8:   bd80          pop    {r7, pc}
		  
		  00001baa <nrf_fprintf>:
		      1baa:   b40e          push   {r1, r2, r3}
		      1bac:   b580          push   {r7, lr}
		--------------------
	(    1ba8,     225e)	ret
		--------------------
		      1ba0:   e000          b.n    1ba4 <nrf_fprintf_buffer_flush+0x2c>
		      1ba2:   bf00          nop
		      1ba4:   3708          adds   r7, #8
		      1ba6:   46bd          mov    sp, r7
		->    1ba8:   bd80          pop    {r7, pc}
		  
		  00001baa <nrf_fprintf>:
		      1baa:   b40e          push   {r1, r2, r3}
		      1bac:   b580          push   {r7, lr}
		--------------------
	(    1be0,     12ec)	ret
		--------------------
		      1bd6:   3714          adds   r7, #20
		      1bd8:   46bd          mov    sp, r7
		      1bda:   e8bd 4080     ldmia.w    sp!, {r7, lr}
		      1bde:   b003          add    sp, #12
		->    1be0:   4770          bx lr
		  
		  00001be2 <buffer_add>:
		      1be2:   b580          push   {r7, lr}
		      1be4:   b082          sub    sp, #8
		--------------------
	(    1be0,     1376)	ret
		--------------------
		      1bd6:   3714          adds   r7, #20
		      1bd8:   46bd          mov    sp, r7
		      1bda:   e8bd 4080     ldmia.w    sp!, {r7, lr}
		      1bde:   b003          add    sp, #12
		->    1be0:   4770          bx lr
		  
		  00001be2 <buffer_add>:
		      1be2:   b580          push   {r7, lr}
		      1be4:   b082          sub    sp, #8
		--------------------
	(    1c28,     1df4)	ret
		--------------------
		      1c1e:   f7ff ffab     bl 1b78 <nrf_fprintf_buffer_flush>
		      1c22:   bf00          nop
		      1c24:   3708          adds   r7, #8
		      1c26:   46bd          mov    sp, r7
		->    1c28:   bd80          pop    {r7, pc}
		  
		  00001c2a <string_print>:
		      1c2a:   b580          push   {r7, lr}
		      1c2c:   b086          sub    sp, #24
		--------------------
	(    1c28,     1f04)	ret
		--------------------
		      1c1e:   f7ff ffab     bl 1b78 <nrf_fprintf_buffer_flush>
		      1c22:   bf00          nop
		      1c24:   3708          adds   r7, #8
		      1c26:   46bd          mov    sp, r7
		->    1c28:   bd80          pop    {r7, pc}
		  
		  00001c2a <string_print>:
		      1c2a:   b580          push   {r7, lr}
		      1c2c:   b086          sub    sp, #24
		--------------------
	(    1c5a,     1be2)	jti
		--------------------
		      1c52:   617b          str    r3, [r7, #20]
		      1c54:   7cfb          ldrb   r3, [r7, #19]
		      1c56:   4619          mov    r1, r3
		      1c58:   68f8          ldr    r0, [r7, #12]
		->    1c5a:   f7ff ffc2     bl 1be2 <buffer_add>
		      1c5e:   68bb          ldr    r3, [r7, #8]
		      1c60:   781b          ldrb   r3, [r3, #0]
		      1c62:   74fb          strb   r3, [r7, #19]
		      1c64:   7cfb          ldrb   r3, [r7, #19]
		--------------------
	(    1c6a,     1c7a)	jti
		--------------------
		      1c62:   74fb          strb   r3, [r7, #19]
		      1c64:   7cfb          ldrb   r3, [r7, #19]
		      1c66:   2b00          cmp    r3, #0
		      1c68:   d1ee          bne.n  1c48 <string_print+0x1e>
		->    1c6a:   e006          b.n    1c7a <string_print+0x50>
		      1c6c:   687b          ldr    r3, [r7, #4]
		      1c6e:   3b01          subs   r3, #1
		      1c70:   607b          str    r3, [r7, #4]
		      1c72:   2120          movs   r1, #32
		--------------------
	(    1c8e,     1ca8)	jti
		--------------------
		      1c86:   d1f1          bne.n  1c6c <string_print+0x42>
		      1c88:   e027          b.n    1cda <string_print+0xb0>
		      1c8a:   68bb          ldr    r3, [r7, #8]
		      1c8c:   2b00          cmp    r3, #0
		->    1c8e:   d00b          beq.n  1ca8 <string_print+0x7e>
		      1c90:   68b8          ldr    r0, [r7, #8]
		      1c92:   f003 fdf5     bl 5880 <strlen>
		      1c96:   6178          str    r0, [r7, #20]
		      1c98:   e006          b.n    1ca8 <string_print+0x7e>
		--------------------
	(    1d0a,     1d0c)	jti
		--------------------
		      1d00:   fbb2 f3f3     udiv   r3, r2, r3
		      1d04:   61fb          str    r3, [r7, #28]
		      1d06:   69bb          ldr    r3, [r7, #24]
		      1d08:   3301          adds   r3, #1
		->    1d0a:   61bb          str    r3, [r7, #24]
		      1d0c:   69fa          ldr    r2, [r7, #28]
		      1d0e:   687b          ldr    r3, [r7, #4]
		      1d10:   429a          cmp    r2, r3
		      1d12:   d2f3          bcs.n  1cfc <unsigned_print+0x18>
		--------------------
	(    1d3e,     1d40)	jti
		--------------------
		      1d36:   2b00          cmp    r3, #0
		      1d38:   d005          beq.n  1d46 <unsigned_print+0x62>
		      1d3a:   683b          ldr    r3, [r7, #0]
		      1d3c:   2b00          cmp    r3, #0
		->    1d3e:   d102          bne.n  1d46 <unsigned_print+0x62>
		      1d40:   2330          movs   r3, #48   ; 0x30
		      1d42:   75fb          strb   r3, [r7, #23]
		      1d44:   e001          b.n    1d4a <unsigned_print+0x66>
		      1d46:   2320          movs   r3, #32
		--------------------
	(    1de2,     1e02)	jti
		--------------------
		      1dda:   2b00          cmp    r3, #0
		      1ddc:   d011          beq.n  1e02 <unsigned_print+0x11e>
		      1dde:   6abb          ldr    r3, [r7, #40]  ; 0x28
		      1de0:   2b00          cmp    r3, #0
		->    1de2:   d00e          beq.n  1e02 <unsigned_print+0x11e>
		      1de4:   e006          b.n    1df4 <unsigned_print+0x110>
		      1de6:   6abb          ldr    r3, [r7, #40]  ; 0x28
		      1de8:   3b01          subs   r3, #1
		      1dea:   62bb          str    r3, [r7, #40]  ; 0x28
		--------------------
	(    1e08,     21d0)	jti
		--------------------
		      1e00:   d3f1          bcc.n  1de6 <unsigned_print+0x102>
		      1e02:   bf00          nop
		      1e04:   3720          adds   r7, #32
		      1e06:   46bd          mov    sp, r7
		->    1e08:   bd80          pop    {r7, pc}
		      1e0a:   bf00          nop
		      1e0c:   00005b38  .word   0x00005b38
		  
		  00001e10 <int_print>:
		--------------------
	(    1e08,     2220)	jti
		--------------------
		      1e00:   d3f1          bcc.n  1de6 <unsigned_print+0x102>
		      1e02:   bf00          nop
		      1e04:   3720          adds   r7, #32
		      1e06:   46bd          mov    sp, r7
		->    1e08:   bd80          pop    {r7, pc}
		      1e0a:   bf00          nop
		      1e0c:   00005b38  .word   0x00005b38
		  
		  00001e10 <int_print>:
		--------------------
	(    1e3c,     1e3e)	jti
		--------------------
		      1e32:   fb92 f3f3     sdiv   r3, r2, r3
		      1e36:   613b          str    r3, [r7, #16]
		      1e38:   697b          ldr    r3, [r7, #20]
		      1e3a:   3301          adds   r3, #1
		->    1e3c:   617b          str    r3, [r7, #20]
		      1e3e:   687b          ldr    r3, [r7, #4]
		      1e40:   693a          ldr    r2, [r7, #16]
		      1e42:   429a          cmp    r2, r3
		      1e44:   daf3          bge.n  1e2e <int_print+0x1e>
		--------------------
	(    21e8,     1c2a)	jti
		--------------------
		      21e0:   6a3b          ldr    r3, [r7, #32]
		      21e2:   69fa          ldr    r2, [r7, #28]
		      21e4:   69b9          ldr    r1, [r7, #24]
		      21e6:   68f8          ldr    r0, [r7, #12]
		->    21e8:   f7ff fd1f     bl 1c2a <string_print>
		      21ec:   e01f          b.n    222e <Heap_Size+0x22e>
		      21ee:   687b          ldr    r3, [r7, #4]
		      21f0:   681b          ldr    r3, [r3, #0]
		      21f2:   1d19          adds   r1, r3, #4
		--------------------
	(    232a,      e20)	ret
		--------------------
		      2322:   697b          ldr    r3, [r7, #20]
		      2324:   4618          mov    r0, r3
		      2326:   3728          adds   r7, #40   ; 0x28
		      2328:   46bd          mov    sp, r7
		->    232a:   bd80          pop    {r7, pc}
		  
		  0000232c <nrf_memobj_free>:
		      232c:   b580          push   {r7, lr}
		      232e:   b08a          sub    sp, #40    ; 0x28
		--------------------
	(    23ba,      300)	ret
		--------------------
		      23b0:   f7ff faf1     bl 1996 <nrf_atomic_u32_add>
		      23b4:   bf00          nop
		      23b6:   3710          adds   r7, #16
		      23b8:   46bd          mov    sp, r7
		->    23ba:   bd80          pop    {r7, pc}
		  
		  000023bc <nrf_memobj_put>:
		      23bc:   b580          push   {r7, lr}
		      23be:   b086          sub    sp, #24
		--------------------
	(    24f6,     2548)	ret
		--------------------
		      24ee:   bf00          nop
		      24f0:   bf00          nop
		      24f2:   3740          adds   r7, #64   ; 0x40
		      24f4:   46bd          mov    sp, r7
		->    24f6:   bd80          pop    {r7, pc}
		  
		  000024f8 <nrf_memobj_write>:
		      24f8:   b580          push   {r7, lr}
		      24fa:   b088          sub    sp, #32
		--------------------
	(    2e80,     4d8c)	ret
		--------------------
		      2e78:   2300          movs   r3, #0
		      2e7a:   4618          mov    r0, r3
		      2e7c:   3710          adds   r7, #16
		      2e7e:   46bd          mov    sp, r7
		->    2e80:   bd80          pop    {r7, pc}
		      2e82:   bf00          nop
		      2e84:   20000680  .word   0x20000680
		      2e88:   40025000  .word   0x40025000
		  
		--------------------
	(    2f8a,     2f8e)	ft
		--------------------
		      2f80:   2104          movs   r1, #4
		      2f82:   484b          ldr    r0, [pc, #300] ; (30b0 <I2S_IRQHandler+0x1e4>)
		      2f84:   f7ff fc84     bl 2890 <nrf_i2s_int_disable>
		      2f88:   4849          ldr    r0, [pc, #292] ; (30b0 <I2S_IRQHandler+0x1e4>)
		->    2f8a:   f7ff fc9e     bl 28ca <nrf_i2s_disable>
		      2f8e:   4b49          ldr    r3, [pc, #292] ; (30b4 <I2S_IRQHandler+0x1e8>)
		      2f90:   681b          ldr    r3, [r3, #0]
		      2f92:   2100          movs   r1, #0
		      2f94:   4848          ldr    r0, [pc, #288] ; (30b8 <I2S_IRQHandler+0x1ec>)
		--------------------
	(    3158,     38f0)	ret
		--------------------
		      3150:   693b          ldr    r3, [r7, #16]
		      3152:   4618          mov    r0, r3
		      3154:   3718          adds   r7, #24
		      3156:   46bd          mov    sp, r7
		->    3158:   bd80          pop    {r7, pc}
		  
		  0000315a <nrfx_prs_release>:
		      315a:   b580          push   {r7, lr}
		      315c:   b084          sub    sp, #16
		--------------------
	(    3202,     32cc)	ret
		--------------------
		      31f8:   bf00          nop
		      31fa:   370c          adds   r7, #12
		      31fc:   46bd          mov    sp, r7
		      31fe:   f85d 7b04     ldr.w  r7, [sp], #4
		->    3202:   4770          bx lr
		      3204:   e000e100  .word   0xe000e100
		  
		  00003208 <__NVIC_SetPriority>:
		      3208:   b480          push   {r7}
		--------------------
	(    3300,     3d9a)	ret
		--------------------
		      32f6:   bf00          nop
		      32f8:   3714          adds   r7, #20
		      32fa:   46bd          mov    sp, r7
		      32fc:   f85d 7b04     ldr.w  r7, [sp], #4
		->    3300:   4770          bx lr
		  
		  00003302 <nrf_uart_event_check>:
		      3302:   b480          push   {r7}
		      3304:   b083          sub    sp, #12
		--------------------
	(    342a,     342e)	ft
		--------------------
		      341e:   6078          str    r0, [r7, #4]
		      3420:   f04f 32ff     mov.w  r2, #4294967295  ; 0xffffffff
		      3424:   f04f 31ff     mov.w  r1, #4294967295  ; 0xffffffff
		      3428:   6878          ldr    r0, [r7, #4]
		->    342a:   f7ff ffe1     bl 33f0 <nrf_uart_txrx_pins_set>
		      342e:   bf00          nop
		      3430:   3708          adds   r7, #8
		      3432:   46bd          mov    sp, r7
		      3434:   bd80          pop    {r7, pc}
		--------------------
	(    3666,     388e)	ret
		--------------------
		      365c:   f7ff ffa2     bl 35a4 <nrf_gpio_cfg>
		      3660:   bf00          nop
		      3662:   3708          adds   r7, #8
		      3664:   46bd          mov    sp, r7
		->    3666:   bd80          pop    {r7, pc}
		  
		  00003668 <nrf_gpio_pin_set>:
		      3668:   b580          push   {r7, lr}
		      366a:   b084          sub    sp, #16
		--------------------
	(    386a,     3872)	dead
		--------------------
		      385e:   4618          mov    r0, r3
		      3860:   f7ff fe31     bl 34c6 <nrf_uart_hwfc_pins_disconnect>
		      3864:   697b          ldr    r3, [r7, #20]
		      3866:   f1b3 3fff     cmp.w  r3, #4294967295  ; 0xffffffff
		->    386a:   d002          beq.n  3872 <pins_to_default+0x5a>
		      386c:   6978          ldr    r0, [r7, #20]
		      386e:   f7ff fee9     bl 3644 <nrf_gpio_cfg_default>
		      3872:   693b          ldr    r3, [r7, #16]
		      3874:   f1b3 3fff     cmp.w  r3, #4294967295  ; 0xffffffff
		--------------------
	(    3992,     3994)	dead
		--------------------
		      3988:   f7ff fd24     bl 33d4 <nrf_uart_disable>
		      398c:   68fb          ldr    r3, [r7, #12]
		      398e:   685b          ldr    r3, [r3, #4]
		      3990:   2b00          cmp    r3, #0
		->    3992:   d002          beq.n  399a <nrfx_uart_uninit+0x32>
		      3994:   6878          ldr    r0, [r7, #4]
		      3996:   f7ff ff25     bl 37e4 <interrupts_disable>
		      399a:   6878          ldr    r0, [r7, #4]
		      399c:   f7ff ff3c     bl 3818 <pins_to_default>
		--------------------
	(    399c,     3818)	dead
		--------------------
		      3992:   d002          beq.n  399a <nrfx_uart_uninit+0x32>
		      3994:   6878          ldr    r0, [r7, #4]
		      3996:   f7ff ff25     bl 37e4 <interrupts_disable>
		      399a:   6878          ldr    r0, [r7, #4]
		->    399c:   f7ff ff3c     bl 3818 <pins_to_default>
		      39a0:   687b          ldr    r3, [r7, #4]
		      39a2:   681b          ldr    r3, [r3, #0]
		      39a4:   4618          mov    r0, r3
		      39a6:   f7ff fbd8     bl 315a <nrfx_prs_release>
		--------------------
	(    399c,     39a0)	dead
		--------------------
		      3992:   d002          beq.n  399a <nrfx_uart_uninit+0x32>
		      3994:   6878          ldr    r0, [r7, #4]
		      3996:   f7ff ff25     bl 37e4 <interrupts_disable>
		      399a:   6878          ldr    r0, [r7, #4]
		->    399c:   f7ff ff3c     bl 3818 <pins_to_default>
		      39a0:   687b          ldr    r3, [r7, #4]
		      39a2:   681b          ldr    r3, [r3, #0]
		      39a4:   4618          mov    r0, r3
		      39a6:   f7ff fbd8     bl 315a <nrfx_prs_release>
		--------------------
	(    39be,      45a)	ret
		--------------------
		      39b6:   605a          str    r2, [r3, #4]
		      39b8:   bf00          nop
		      39ba:   3710          adds   r7, #16
		      39bc:   46bd          mov    sp, r7
		->    39be:   bd80          pop    {r7, pc}
		      39c0:   200006a0  .word   0x200006a0
		  
		  000039c4 <tx_byte>:
		      39c4:   b580          push   {r7, lr}
		--------------------
	(    3b86,     34e4)	dead
		--------------------
		      3b7a:   f44f 7184     mov.w  r1, #264 ; 0x108
		      3b7e:   6878          ldr    r0, [r7, #4]
		      3b80:   f7ff fba8     bl 32d4 <nrf_uart_event_clear>
		      3b84:   6878          ldr    r0, [r7, #4]
		->    3b86:   f7ff fcad     bl 34e4 <nrf_uart_rxd_get>
		      3b8a:   e013          b.n    3bb4 <rx_byte+0x4c>
		      3b8c:   f44f 7184     mov.w  r1, #264 ; 0x108
		      3b90:   6878          ldr    r0, [r7, #4]
		      3b92:   f7ff fb9f     bl 32d4 <nrf_uart_event_clear>
		--------------------
	(    3be0,     3be2)	ft
		--------------------
		      3bd6:   68fa          ldr    r2, [r7, #12]
		      3bd8:   6811          ldr    r1, [r2, #0]
		      3bda:   f107 0210     add.w  r2, r7, #16
		      3bde:   4610          mov    r0, r2
		->    3be0:   4798          blx    r3
		      3be2:   bf00          nop
		      3be4:   3720          adds   r7, #32
		      3be6:   46bd          mov    sp, r7
		      3be8:   bd80          pop    {r7, pc}
		--------------------
	(    3be8,     3d1a)	ret
		--------------------
		      3be0:   4798          blx    r3
		      3be2:   bf00          nop
		      3be4:   3720          adds   r7, #32
		      3be6:   46bd          mov    sp, r7
		->    3be8:   bd80          pop    {r7, pc}
		  
		  00003bea <tx_done_event>:
		      3bea:   b580          push   {r7, lr}
		      3bec:   b086          sub    sp, #24
		--------------------
	(    3c38,     3c3a)	dead
		--------------------
		      3c2e:   6878          ldr    r0, [r7, #4]
		      3c30:   f7ff fb8b     bl 334a <nrf_uart_int_enable_check>
		      3c34:   4603          mov    r3, r0
		      3c36:   2b00          cmp    r3, #0
		->    3c38:   d039          beq.n  3cae <uart_irq_handler+0x8e>
		      3c3a:   f44f 7192     mov.w  r1, #292 ; 0x124
		      3c3e:   6878          ldr    r0, [r7, #4]
		      3c40:   f7ff fb5f     bl 3302 <nrf_uart_event_check>
		      3c44:   4603          mov    r3, r0
		--------------------
	(    3c38,     3cae)	dead
		--------------------
		      3c2e:   6878          ldr    r0, [r7, #4]
		      3c30:   f7ff fb8b     bl 334a <nrf_uart_int_enable_check>
		      3c34:   4603          mov    r3, r0
		      3c36:   2b00          cmp    r3, #0
		->    3c38:   d039          beq.n  3cae <uart_irq_handler+0x8e>
		      3c3a:   f44f 7192     mov.w  r1, #292 ; 0x124
		      3c3e:   6878          ldr    r0, [r7, #4]
		      3c40:   f7ff fb5f     bl 3302 <nrf_uart_event_check>
		      3c44:   4603          mov    r3, r0
		--------------------
	(    3c5a,     3c5e)	dead
		--------------------
		      3c4e:   6878          ldr    r0, [r7, #4]
		      3c50:   f7ff fb40     bl 32d4 <nrf_uart_event_clear>
		      3c54:   f44f 7101     mov.w  r1, #516 ; 0x204
		      3c58:   6878          ldr    r0, [r7, #4]
		->    3c5a:   f7ff fb8b     bl 3374 <nrf_uart_int_disable>
		      3c5e:   683b          ldr    r3, [r7, #0]
		      3c60:   f893 3029     ldrb.w r3, [r3, #41]   ; 0x29
		      3c64:   f083 0301     eor.w  r3, r3, #1
		      3c68:   b2db          uxtb   r3, r3
		--------------------
	(    3cd0,     3cd4)	dead
		--------------------
		      3cc8:   2b00          cmp    r3, #0
		      3cca:   d043          beq.n  3d54 <uart_irq_handler+0x134>
		      3ccc:   6839          ldr    r1, [r7, #0]
		      3cce:   6878          ldr    r0, [r7, #4]
		->    3cd0:   f7ff ff4a     bl 3b68 <rx_byte>
		      3cd4:   683b          ldr    r3, [r7, #0]
		      3cd6:   699a          ldr    r2, [r3, #24]
		      3cd8:   683b          ldr    r3, [r7, #0]
		      3cda:   6a5b          ldr    r3, [r3, #36]  ; 0x24
		--------------------
	(    3d62,     3dae)	dead
		--------------------
		      3d58:   6878          ldr    r0, [r7, #4]
		      3d5a:   f7ff fad2     bl 3302 <nrf_uart_event_check>
		      3d5e:   4603          mov    r3, r0
		      3d60:   2b00          cmp    r3, #0
		->    3d62:   d024          beq.n  3dae <uart_irq_handler+0x18e>
		      3d64:   683b          ldr    r3, [r7, #0]
		      3d66:   695b          ldr    r3, [r3, #20]
		      3d68:   61fb          str    r3, [r7, #28]
		      3d6a:   683b          ldr    r3, [r7, #0]
		--------------------
	(    3d84,     3d90)	dead
		--------------------
		      3d7a:   b2db          uxtb   r3, r3
		      3d7c:   f083 0301     eor.w  r3, r3, #1
		      3d80:   b2db          uxtb   r3, r3
		      3d82:   2b00          cmp    r3, #0
		->    3d84:   d004          beq.n  3d90 <uart_irq_handler+0x170>
		      3d86:   6839          ldr    r1, [r7, #0]
		      3d88:   6878          ldr    r0, [r7, #4]
		      3d8a:   f7ff fe1b     bl 39c4 <tx_byte>
		      3d8e:   e00e          b.n    3dae <uart_irq_handler+0x18e>
		--------------------
	(    3d8a,     39c4)	dead
		--------------------
		      3d82:   2b00          cmp    r3, #0
		      3d84:   d004          beq.n  3d90 <uart_irq_handler+0x170>
		      3d86:   6839          ldr    r1, [r7, #0]
		      3d88:   6878          ldr    r0, [r7, #4]
		->    3d8a:   f7ff fe1b     bl 39c4 <tx_byte>
		      3d8e:   e00e          b.n    3dae <uart_irq_handler+0x18e>
		      3d90:   f44f 718e     mov.w  r1, #284 ; 0x11c
		      3d94:   6878          ldr    r0, [r7, #4]
		      3d96:   f7ff fa9d     bl 32d4 <nrf_uart_event_clear>
		--------------------
	(    3dd6,     3520)	dead
		--------------------
		      3dce:   2b00          cmp    r3, #0
		      3dd0:   d003          beq.n  3dda <uart_irq_handler+0x1ba>
		      3dd2:   2100          movs   r1, #0
		      3dd4:   6878          ldr    r0, [r7, #4]
		->    3dd6:   f7ff fba3     bl 3520 <nrf_uart_task_trigger>
		      3dda:   683b          ldr    r3, [r7, #0]
		      3ddc:   699b          ldr    r3, [r3, #24]
		      3dde:   2b00          cmp    r3, #0
		      3de0:   d00a          beq.n  3df8 <uart_irq_handler+0x1d8>
		--------------------
	(    3f2e,     4502)	dead
		--------------------
		      3f24:   4618          mov    r0, r3
		      3f26:   370c          adds   r7, #12
		      3f28:   46bd          mov    sp, r7
		      3f2a:   f85d 7b04     ldr.w  r7, [sp], #4
		->    3f2e:   4770          bx lr
		  
		  00003f30 <_NRFX_IRQ_PRIORITY_SET>:
		      3f30:   b580          push   {r7, lr}
		      3f32:   b082          sub    sp, #8
		--------------------
	(    3fe4,     49cc)	ret
		--------------------
		      3fda:   4618          mov    r0, r3
		      3fdc:   370c          adds   r7, #12
		      3fde:   46bd          mov    sp, r7
		      3fe0:   f85d 7b04     ldr.w  r7, [sp], #4
		->    3fe4:   4770          bx lr
		  
		  00003fe6 <nrf_uarte_shorts_disable>:
		      3fe6:   b480          push   {r7}
		      3fe8:   b083          sub    sp, #12
		--------------------
	(    41bc,     46b2)	ret
		--------------------
		      41b2:   bf00          nop
		      41b4:   370c          adds   r7, #12
		      41b6:   46bd          mov    sp, r7
		      41b8:   f85d 7b04     ldr.w  r7, [sp], #4
		->    41bc:   4770          bx lr
		  
		  000041be <nrf_uarte_configure>:
		      41be:   b480          push   {r7}
		      41c0:   b083          sub    sp, #12
		--------------------
	(    42f2,     4436)	ret
		--------------------
		      42e8:   f7ff ffc8     bl 427c <nrf_gpio_cfg>
		      42ec:   bf00          nop
		      42ee:   3708          adds   r7, #8
		      42f0:   46bd          mov    sp, r7
		->    42f2:   bd80          pop    {r7, pc}
		  
		  000042f4 <nrf_gpio_cfg_input>:
		      42f4:   b580          push   {r7, lr}
		      42f6:   b084          sub    sp, #16
		--------------------
	(    44fe,     3f16)	dead
		--------------------
		      44f4:   f7ff fd9a     bl 402c <nrf_uarte_int_disable>
		      44f8:   687b          ldr    r3, [r7, #4]
		      44fa:   681b          ldr    r3, [r3, #0]
		      44fc:   4618          mov    r0, r3
		->    44fe:   f7ff fd0a     bl 3f16 <nrfx_get_irq_number>
		      4502:   4603          mov    r3, r0
		      4504:   4618          mov    r0, r3
		      4506:   f7ff fd34     bl 3f72 <_NRFX_IRQ_DISABLE>
		      450a:   bf00          nop
		--------------------
	(    453e,     4122)	dead
		--------------------
		      4536:   6138          str    r0, [r7, #16]
		      4538:   687b          ldr    r3, [r7, #4]
		      453a:   681b          ldr    r3, [r3, #0]
		      453c:   4618          mov    r0, r3
		->    453e:   f7ff fdf0     bl 4122 <nrf_uarte_rts_pin_get>
		      4542:   60f8          str    r0, [r7, #12]
		      4544:   687b          ldr    r3, [r7, #4]
		      4546:   681b          ldr    r3, [r3, #0]
		      4548:   4618          mov    r0, r3
		--------------------
	(    454a,     413c)	dead
		--------------------
		      4542:   60f8          str    r0, [r7, #12]
		      4544:   687b          ldr    r3, [r7, #4]
		      4546:   681b          ldr    r3, [r3, #0]
		      4548:   4618          mov    r0, r3
		->    454a:   f7ff fdf7     bl 413c <nrf_uarte_cts_pin_get>
		      454e:   60b8          str    r0, [r7, #8]
		      4550:   687b          ldr    r3, [r7, #4]
		      4552:   681b          ldr    r3, [r3, #0]
		      4554:   4618          mov    r0, r3
		--------------------
	(    4556,     40d0)	dead
		--------------------
		      454e:   60b8          str    r0, [r7, #8]
		      4550:   687b          ldr    r3, [r7, #4]
		      4552:   681b          ldr    r3, [r3, #0]
		      4554:   4618          mov    r0, r3
		->    4556:   f7ff fdbb     bl 40d0 <nrf_uarte_txrx_pins_disconnect>
		      455a:   687b          ldr    r3, [r7, #4]
		      455c:   681b          ldr    r3, [r3, #0]
		      455e:   4618          mov    r0, r3
		      4560:   f7ff fe0d     bl 417e <nrf_uarte_hwfc_pins_disconnect>
		--------------------
	(    456e,     431c)	dead
		--------------------
		      4564:   697b          ldr    r3, [r7, #20]
		      4566:   f1b3 3fff     cmp.w  r3, #4294967295  ; 0xffffffff
		      456a:   d002          beq.n  4572 <pins_to_default+0x5a>
		      456c:   6978          ldr    r0, [r7, #20]
		->    456e:   f7ff fed5     bl 431c <nrf_gpio_cfg_default>
		      4572:   693b          ldr    r3, [r7, #16]
		      4574:   f1b3 3fff     cmp.w  r3, #4294967295  ; 0xffffffff
		      4578:   d002          beq.n  4580 <pins_to_default+0x68>
		      457a:   6938          ldr    r0, [r7, #16]
		--------------------
	(    46c4,     46c6)	dead
		--------------------
		      46b8:   f7ff fc69     bl 3f8e <nrf_uarte_event_clear>
		      46bc:   210c          movs   r1, #12
		      46be:   68b8          ldr    r0, [r7, #8]
		      46c0:   f7ff fd6c     bl 419c <nrf_uarte_task_trigger>
		->    46c4:   bf00          nop
		      46c6:   f44f 71ac     mov.w  r1, #344 ; 0x158
		      46ca:   68b8          ldr    r0, [r7, #8]
		      46cc:   f7ff fc76     bl 3fbc <nrf_uarte_event_check>
		      46d0:   4603          mov    r3, r0
		--------------------
	(    4708,     470c)	dead
		--------------------
		      46fc:   f7ff fcc6     bl 408c <nrf_uarte_disable>
		      4700:   6878          ldr    r0, [r7, #4]
		      4702:   f7ff ff09     bl 4518 <pins_to_default>
		      4706:   68b8          ldr    r0, [r7, #8]
		->    4708:   f7fe fd27     bl 315a <nrfx_prs_release>
		      470c:   68fb          ldr    r3, [r7, #12]
		      470e:   2200          movs   r2, #0
		      4710:   f883 2020     strb.w r2, [r3, #32]
		      4714:   68fb          ldr    r3, [r7, #12]
		--------------------
	(    4ba2,     4ec4)	ret
		--------------------
		      4b98:   bf00          nop
		      4b9a:   371c          adds   r7, #28
		      4b9c:   46bd          mov    sp, r7
		      4b9e:   f85d 7b04     ldr.w  r7, [sp], #4
		->    4ba2:   4770          bx lr
		      4ba4:   200026f0  .word   0x200026f0
		      4ba8:   200026f1  .word   0x200026f1
		      4bac:   200026f2  .word   0x200026f2
		      4bb0:   200026f4  .word   0x200026f4
		--------------------
	(    4f9e,     4fb8)	jt
		--------------------
		      4f96:   3b03          subs   r3, #3
		      4f98:   2b03          cmp    r3, #3
		      4f9a:   d813          bhi.n  4fc4 <nrf52_errata_12+0x68>
		      4f9c:   a201          add    r2, pc, #4 ; (adr r2, 4fa4 <nrf52_errata_12+0x48>)
		->    4f9e:   f852 f023     ldr.w  pc, [r2, r3, lsl #2]
		      4fa2:   bf00          nop
		      4fa4:   00004fb5  .word   0x00004fb5
		      4fa8:   00004fb9  .word   0x00004fb9
		      4fac:   00004fbd  .word   0x00004fbd
		--------------------
	(    5096,     50ac)	jt
		--------------------
		      508e:   3b03          subs   r3, #3
		      5090:   2b03          cmp    r3, #3
		      5092:   d813          bhi.n  50bc <nrf52_errata_31+0x68>
		      5094:   a201          add    r2, pc, #4 ; (adr r2, 509c <nrf52_errata_31+0x48>)
		->    5096:   f852 f023     ldr.w  pc, [r2, r3, lsl #2]
		      509a:   bf00          nop
		      509c:   000050ad  .word   0x000050ad
		      50a0:   000050b1  .word   0x000050b1
		      50a4:   000050b5  .word   0x000050b5
		--------------------
	(    50ba,     50c2)	jt
		--------------------
		      50b2:   e006          b.n    50c2 <nrf52_errata_31+0x6e>
		      50b4:   2301          movs   r3, #1
		      50b6:   e004          b.n    50c2 <nrf52_errata_31+0x6e>
		      50b8:   2301          movs   r3, #1
		->    50ba:   e002          b.n    50c2 <nrf52_errata_31+0x6e>
		      50bc:   2301          movs   r3, #1
		      50be:   e000          b.n    50c2 <nrf52_errata_31+0x6e>
		      50c0:   2300          movs   r3, #0
		      50c2:   4618          mov    r0, r3
		--------------------
	(    510a,     5120)	jt
		--------------------
		      5102:   3b03          subs   r3, #3
		      5104:   2b03          cmp    r3, #3
		      5106:   d813          bhi.n  5130 <nrf52_errata_32+0x50>
		      5108:   a201          add    r2, pc, #4 ; (adr r2, 5110 <nrf52_errata_32+0x30>)
		->    510a:   f852 f023     ldr.w  pc, [r2, r3, lsl #2]
		      510e:   bf00          nop
		      5110:   00005121  .word   0x00005121
		      5114:   00005125  .word   0x00005125
		      5118:   00005129  .word   0x00005129
		--------------------
	(    510a,     512c)	jt
		--------------------
		      5102:   3b03          subs   r3, #3
		      5104:   2b03          cmp    r3, #3
		      5106:   d813          bhi.n  5130 <nrf52_errata_32+0x50>
		      5108:   a201          add    r2, pc, #4 ; (adr r2, 5110 <nrf52_errata_32+0x30>)
		->    510a:   f852 f023     ldr.w  pc, [r2, r3, lsl #2]
		      510e:   bf00          nop
		      5110:   00005121  .word   0x00005121
		      5114:   00005125  .word   0x00005125
		      5118:   00005129  .word   0x00005129
		--------------------
	(    5122,     5136)	jt
		--------------------
		      5114:   00005125  .word   0x00005125
		      5118:   00005129  .word   0x00005129
		      511c:   0000512d  .word   0x0000512d
		      5120:   2301          movs   r3, #1
		->    5122:   e008          b.n    5136 <nrf52_errata_32+0x56>
		      5124:   2300          movs   r3, #0
		      5126:   e006          b.n    5136 <nrf52_errata_32+0x56>
		      5128:   2300          movs   r3, #0
		      512a:   e004          b.n    5136 <nrf52_errata_32+0x56>
		--------------------
	(    51aa,     51ba)	jt
		--------------------
		      51a0:   000051b1  .word   0x000051b1
		      51a4:   2301          movs   r3, #1
		      51a6:   e008          b.n    51ba <nrf52_errata_36+0x6e>
		      51a8:   2301          movs   r3, #1
		->    51aa:   e006          b.n    51ba <nrf52_errata_36+0x6e>
		      51ac:   2301          movs   r3, #1
		      51ae:   e004          b.n    51ba <nrf52_errata_36+0x6e>
		      51b0:   2301          movs   r3, #1
		      51b2:   e002          b.n    51ba <nrf52_errata_36+0x6e>
		--------------------
	(    540a,     5424)	jt
		--------------------
		      5402:   3b03          subs   r3, #3
		      5404:   2b03          cmp    r3, #3
		      5406:   d813          bhi.n  5430 <nrf52_errata_136+0x68>
		      5408:   a201          add    r2, pc, #4 ; (adr r2, 5410 <nrf52_errata_136+0x48>)
		->    540a:   f852 f023     ldr.w  pc, [r2, r3, lsl #2]
		      540e:   bf00          nop
		      5410:   00005421  .word   0x00005421
		      5414:   00005425  .word   0x00005425
		      5418:   00005429  .word   0x00005429
		--------------------
	(    540a,     542c)	jt
		--------------------
		      5402:   3b03          subs   r3, #3
		      5404:   2b03          cmp    r3, #3
		      5406:   d813          bhi.n  5430 <nrf52_errata_136+0x68>
		      5408:   a201          add    r2, pc, #4 ; (adr r2, 5410 <nrf52_errata_136+0x48>)
		->    540a:   f852 f023     ldr.w  pc, [r2, r3, lsl #2]
		      540e:   bf00          nop
		      5410:   00005421  .word   0x00005421
		      5414:   00005425  .word   0x00005425
		      5418:   00005429  .word   0x00005429
		--------------------
	(    5422,     5436)	jt
		--------------------
		      5414:   00005425  .word   0x00005425
		      5418:   00005429  .word   0x00005429
		      541c:   0000542d  .word   0x0000542d
		      5420:   2301          movs   r3, #1
		->    5422:   e008          b.n    5436 <nrf52_errata_136+0x6e>
		      5424:   2301          movs   r3, #1
		      5426:   e006          b.n    5436 <nrf52_errata_136+0x6e>
		      5428:   2301          movs   r3, #1
		      542a:   e004          b.n    5436 <nrf52_errata_136+0x6e>
		--------------------
	(    542e,     5436)	jt
		--------------------
		      5426:   e006          b.n    5436 <nrf52_errata_136+0x6e>
		      5428:   2301          movs   r3, #1
		      542a:   e004          b.n    5436 <nrf52_errata_136+0x6e>
		      542c:   2301          movs   r3, #1
		->    542e:   e002          b.n    5436 <nrf52_errata_136+0x6e>
		      5430:   2301          movs   r3, #1
		      5432:   e000          b.n    5436 <nrf52_errata_136+0x6e>
		      5434:   2300          movs   r3, #0
		      5436:   4618          mov    r0, r3
		--------------------
	(    5476,     548c)	jt
		--------------------
		      546e:   3b03          subs   r3, #3
		      5470:   2b03          cmp    r3, #3
		      5472:   d813          bhi.n  549c <nrf52_errata_182+0x48>
		      5474:   a201          add    r2, pc, #4 ; (adr r2, 547c <nrf52_errata_182+0x28>)
		->    5476:   f852 f023     ldr.w  pc, [r2, r3, lsl #2]
		      547a:   bf00          nop
		      547c:   0000548d  .word   0x0000548d
		      5480:   00005491  .word   0x00005491
		      5484:   00005495  .word   0x00005495
		--------------------
	(    588e,     1c96)	ret
		--------------------
		      5886:   2a00          cmp    r2, #0
		      5888:   d1fb          bne.n  5882 <strlen+0x2>
		      588a:   1a18          subs   r0, r3, r0
		      588c:   3801          subs   r0, #1
		->    588e:   4770          bx lr
		  
		  00005890 <__register_exitproc>:
		      5890:   e92d 43f8     stmdb  sp!, {r3, r4, r5, r6, r7, r8, r9, lr}
		      5894:   f8df 80b0     ldr.w  r8, [pc, #176]   ; 5948 <__register_exitproc+0xb8>
		--------------------

i2s-o1: 23 | 231 | 10 dead | 13 ret
	(     432,      442)	dead
		--------------------
		       42a:   4b08          ldr    r3, [pc, #32]  ; (44c <nrf_log_backend_uart_panic_set+0x24>)
		       42c:   781b          ldrb   r3, [r3, #0]
		       42e:   4a08          ldr    r2, [pc, #32]  ; (450 <nrf_log_backend_uart_panic_set+0x28>)
		       430:   5cd3          ldrb   r3, [r2, r3]
		->     432:   b133          cbz    r3, 442 <nrf_log_backend_uart_panic_set+0x1a>
		       434:   4807          ldr    r0, [pc, #28]  ; (454 <nrf_log_backend_uart_panic_set+0x2c>)
		       436:   f002 f839     bl 24ac <nrfx_uarte_uninit>
		       43a:   2000          movs   r0, #0
		       43c:   f7ff ffcc     bl 3d8 <uart_init>
		--------------------
	(     f9a,      7ea)	ret
		--------------------
		  
		  00000f94 <app_util_critical_region_enter>:
		       f94:   b508          push   {r3, lr}
		       f96:   f7ff ffeb     bl f70 <app_util_disable_irq>
		->     f9a:   bd08          pop    {r3, pc}
		  
		  00000f9c <app_util_critical_region_exit>:
		       f9c:   b508          push   {r3, lr}
		       f9e:   f7ff ffef     bl f80 <app_util_enable_irq>
		--------------------
	(     fa2,     1c0a)	ret
		--------------------
		  
		  00000f9c <app_util_critical_region_exit>:
		       f9c:   b508          push   {r3, lr}
		       f9e:   f7ff ffef     bl f80 <app_util_enable_irq>
		->     fa2:   bd08          pop    {r3, pc}
		  
		  00000fa4 <nrf_atomic_u32_fetch_store>:
		       fa4:   4603          mov    r3, r0
		       fa6:   e853 0f00     ldrex  r0, [r3]
		--------------------
	(    10dc,     153a)	ret
		--------------------
		      10d4:   6900          ldr    r0, [r0, #16]
		      10d6:   4798          blx    r3
		      10d8:   2300          movs   r3, #0
		      10da:   60a3          str    r3, [r4, #8]
		->    10dc:   bd10          pop    {r4, pc}
		      10de:   4770          bx lr
		  
		  000010e0 <nrf_fprintf>:
		      10e0:   b40e          push   {r1, r2, r3}
		--------------------
	(    10fc,      cfa)	ret
		--------------------
		      10f0:   f000 f87e     bl 11f0 <nrf_fprintf_fmt>
		      10f4:   b002          add    sp, #8
		      10f6:   f85d eb04     ldr.w  lr, [sp], #4
		      10fa:   b003          add    sp, #12
		->    10fc:   4770          bx lr
		  
		  000010fe <buffer_add>:
		      10fe:   b538          push   {r3, r4, r5, lr}
		      1100:   4604          mov    r4, r0
		--------------------
	(    10fc,      daa)	ret
		--------------------
		      10f0:   f000 f87e     bl 11f0 <nrf_fprintf_fmt>
		      10f4:   b002          add    sp, #8
		      10f6:   f85d eb04     ldr.w  lr, [sp], #4
		      10fa:   b003          add    sp, #12
		->    10fc:   4770          bx lr
		  
		  000010fe <buffer_add>:
		      10fe:   b538          push   {r3, r4, r5, lr}
		      1100:   4604          mov    r4, r0
		--------------------
	(    10fc,      df4)	ret
		--------------------
		      10f0:   f000 f87e     bl 11f0 <nrf_fprintf_fmt>
		      10f4:   b002          add    sp, #8
		      10f6:   f85d eb04     ldr.w  lr, [sp], #4
		      10fa:   b003          add    sp, #12
		->    10fc:   4770          bx lr
		  
		  000010fe <buffer_add>:
		      10fe:   b538          push   {r3, r4, r5, lr}
		      1100:   4604          mov    r4, r0
		--------------------
	(    111a,     13f6)	ret
		--------------------
		      1112:   68a2          ldr    r2, [r4, #8]
		      1114:   6863          ldr    r3, [r4, #4]
		      1116:   429a          cmp    r2, r3
		      1118:   d204          bcs.n  1124 <buffer_add+0x26>
		->    111a:   bd38          pop    {r3, r4, r5, pc}
		      111c:   210d          movs   r1, #13
		      111e:   f7ff ffee     bl 10fe <buffer_add>
		      1122:   e7f1          b.n    1108 <buffer_add+0xa>
		      1124:   4620          mov    r0, r4
		--------------------
	(    111a,     1400)	ret
		--------------------
		      1112:   68a2          ldr    r2, [r4, #8]
		      1114:   6863          ldr    r3, [r4, #4]
		      1116:   429a          cmp    r2, r3
		      1118:   d204          bcs.n  1124 <buffer_add+0x26>
		->    111a:   bd38          pop    {r3, r4, r5, pc}
		      111c:   210d          movs   r1, #13
		      111e:   f7ff ffee     bl 10fe <buffer_add>
		      1122:   e7f1          b.n    1108 <buffer_add+0xa>
		      1124:   4620          mov    r0, r4
		--------------------
	(    111a,     1528)	ret
		--------------------
		      1112:   68a2          ldr    r2, [r4, #8]
		      1114:   6863          ldr    r3, [r4, #4]
		      1116:   429a          cmp    r2, r3
		      1118:   d204          bcs.n  1124 <buffer_add+0x26>
		->    111a:   bd38          pop    {r3, r4, r5, pc}
		      111c:   210d          movs   r1, #13
		      111e:   f7ff ffee     bl 10fe <buffer_add>
		      1122:   e7f1          b.n    1108 <buffer_add+0xa>
		      1124:   4620          mov    r0, r4
		--------------------
	(    166a,      772)	ret
		--------------------
		      1660:   4630          mov    r0, r6
		      1662:   f7ff ffb5     bl 15d0 <nrf_memobj_free>
		      1666:   4626          mov    r6, r4
		      1668:   4630          mov    r0, r6
		->    166a:   e8bd 83f8     ldmia.w    sp!, {r3, r4, r5, r6, r7, r8, r9, pc}
		  
		  0000166e <nrf_memobj_get>:
		      166e:   b508          push   {r3, lr}
		      1670:   2101          movs   r1, #1
		--------------------
	(    16a8,      7b4)	ret
		--------------------
		      169e:   9200          str    r2, [sp, #0]
		      16a0:   aa03          add    r2, sp, #12
		      16a2:   f7ff ff4f     bl 1544 <memobj_op>
		      16a6:   b005          add    sp, #20
		->    16a8:   f85d fb04     ldr.w  pc, [sp], #4
		  
		  000016ac <nrf_memobj_read>:
		      16ac:   b500          push   {lr}
		      16ae:   b085          sub    sp, #20
		--------------------
	(    16a8,      7c4)	ret
		--------------------
		      169e:   9200          str    r2, [sp, #0]
		      16a0:   aa03          add    r2, sp, #12
		      16a2:   f7ff ff4f     bl 1544 <memobj_op>
		      16a6:   b005          add    sp, #20
		->    16a8:   f85d fb04     ldr.w  pc, [sp], #4
		  
		  000016ac <nrf_memobj_read>:
		      16ac:   b500          push   {lr}
		      16ae:   b085          sub    sp, #20
		--------------------
	(    1ca6,     1e1a)	ret
		--------------------
		      1c9e:   6801          ldr    r1, [r0, #0]
		      1ca0:   4668          mov    r0, sp
		      1ca2:   4798          blx    r3
		      1ca4:   b005          add    sp, #20
		->    1ca6:   f85d fb04     ldr.w  pc, [sp], #4
		      ...
		  
		  00001cac <nrfx_uart_0_irq_handler>:
		      1cac:   b510          push   {r4, lr}
		--------------------
	(    1d2a,     1d2c)	dead
		--------------------
		      1d20:   d004          beq.n  1d2c <nrfx_uart_0_irq_handler+0x80>
		      1d22:   4b3e          ldr    r3, [pc, #248] ; (1e1c <nrfx_uart_0_irq_handler+0x170>)
		      1d24:   f8d3 3108     ldr.w  r3, [r3, #264]   ; 0x108
		      1d28:   2b00          cmp    r3, #0
		->    1d2a:   d132          bne.n  1d92 <nrfx_uart_0_irq_handler+0xe6>
		      1d2c:   4b3b          ldr    r3, [pc, #236] ; (1e1c <nrfx_uart_0_irq_handler+0x170>)
		      1d2e:   f8d3 311c     ldr.w  r3, [r3, #284]   ; 0x11c
		      1d32:   b1ab          cbz    r3, 1d60 <nrfx_uart_0_irq_handler+0xb4>
		      1d34:   4b3a          ldr    r3, [pc, #232] ; (1e20 <nrfx_uart_0_irq_handler+0x174>)
		--------------------
	(    1da2,     1d2c)	dead
		--------------------
		      1d98:   f7ff ff5c     bl 1c54 <rx_byte>
		      1d9c:   6a63          ldr    r3, [r4, #36]  ; 0x24
		      1d9e:   69a2          ldr    r2, [r4, #24]
		      1da0:   429a          cmp    r2, r3
		->    1da2:   d1c3          bne.n  1d2c <nrfx_uart_0_irq_handler+0x80>
		      1da4:   69e3          ldr    r3, [r4, #28]
		      1da6:   b99b          cbnz   r3, 1dd0 <nrfx_uart_0_irq_handler+0x124>
		      1da8:   4b1d          ldr    r3, [pc, #116] ; (1e20 <nrfx_uart_0_irq_handler+0x174>)
		      1daa:   f893 3029     ldrb.w r3, [r3, #41]   ; 0x29
		--------------------
	(    2056,     2066)	dead
		--------------------
		      2048:   f04f 43a0     mov.w  r3, #1342177280  ; 0x50000000
		      204c:   2202          movs   r2, #2
		      204e:   f843 2026     str.w  r2, [r3, r6, lsl #2]
		      2052:   f1b5 3fff     cmp.w  r5, #4294967295  ; 0xffffffff
		->    2056:   d006          beq.n  2066 <Heap_Size+0x66>
		      2058:   f505 75e0     add.w  r5, r5, #448 ; 0x1c0
		      205c:   f04f 43a0     mov.w  r3, #1342177280  ; 0x50000000
		      2060:   2202          movs   r2, #2
		      2062:   f843 2025     str.w  r2, [r3, r5, lsl #2]
		--------------------
	(    206a,     207a)	dead
		--------------------
		      205c:   f04f 43a0     mov.w  r3, #1342177280  ; 0x50000000
		      2060:   2202          movs   r2, #2
		      2062:   f843 2025     str.w  r2, [r3, r5, lsl #2]
		      2066:   f1b1 3fff     cmp.w  r1, #4294967295  ; 0xffffffff
		->    206a:   d006          beq.n  207a <Heap_Size+0x7a>
		      206c:   f501 71e0     add.w  r1, r1, #448 ; 0x1c0
		      2070:   f04f 43a0     mov.w  r3, #1342177280  ; 0x50000000
		      2074:   2202          movs   r2, #2
		      2076:   f843 2021     str.w  r2, [r3, r1, lsl #2]
		--------------------
	(    24ee,     24f2)	dead
		--------------------
		      24e2:   3320          adds   r3, #32
		      24e4:   4d41          ldr    r5, [pc, #260] ; (25ec <nrfx_uarte_uninit+0x140>)
		      24e6:   f845 2023     str.w  r2, [r5, r3, lsl #2]
		      24ea:   f3bf 8f4f     dsb    sy
		->    24ee:   f3bf 8f6f     isb    sy
		      24f2:   f8d0 3200     ldr.w  r3, [r0, #512]   ; 0x200
		      24f6:   f023 0320     bic.w  r3, r3, #32
		      24fa:   f8c0 3200     str.w  r3, [r0, #512]   ; 0x200
		      24fe:   eb04 02c4     add.w  r2, r4, r4, lsl #3
		--------------------
	(    251c,     251e)	dead
		--------------------
		      2512:   f8d0 3144     ldr.w  r3, [r0, #324]   ; 0x144
		      2516:   9300          str    r3, [sp, #0]
		      2518:   9b00          ldr    r3, [sp, #0]
		      251a:   2301          movs   r3, #1
		->    251c:   6043          str    r3, [r0, #4]
		      251e:   2300          movs   r3, #0
		      2520:   f8c0 3158     str.w  r3, [r0, #344]   ; 0x158
		      2524:   f8d0 3158     ldr.w  r3, [r0, #344]   ; 0x158
		      2528:   9301          str    r3, [sp, #4]
		--------------------
	(    2544,     254e)	dead
		--------------------
		      253a:   f8d0 3158     ldr.w  r3, [r0, #344]   ; 0x158
		      253e:   2b00          cmp    r3, #0
		      2540:   d0fb          beq.n  253a <nrfx_uarte_uninit+0x8e>
		      2542:   6993          ldr    r3, [r2, #24]
		->    2544:   b11b          cbz    r3, 254e <nrfx_uarte_uninit+0xa2>
		      2546:   f8d0 3144     ldr.w  r3, [r0, #324]   ; 0x144
		      254a:   2b00          cmp    r3, #0
		      254c:   d0f5          beq.n  253a <nrfx_uarte_uninit+0x8e>
		      254e:   2300          movs   r3, #0
		--------------------
	(    254c,     254e)	dead
		--------------------
		      2542:   6993          ldr    r3, [r2, #24]
		      2544:   b11b          cbz    r3, 254e <nrfx_uarte_uninit+0xa2>
		      2546:   f8d0 3144     ldr.w  r3, [r0, #324]   ; 0x144
		      254a:   2b00          cmp    r3, #0
		->    254c:   d0f5          beq.n  253a <nrfx_uarte_uninit+0x8e>
		      254e:   2300          movs   r3, #0
		      2550:   f8c0 3500     str.w  r3, [r0, #1280]  ; 0x500
		      2554:   680b          ldr    r3, [r1, #0]
		      2556:   f8d3 c50c     ldr.w  ip, [r3, #1292]  ; 0x50c
		--------------------
	(    25b2,     25b6)	dead
		--------------------
		      25a6:   d006          beq.n  25b6 <nrfx_uarte_uninit+0x10a>
		      25a8:   f506 76e0     add.w  r6, r6, #448 ; 0x1c0
		      25ac:   f04f 43a0     mov.w  r3, #1342177280  ; 0x50000000
		      25b0:   2202          movs   r2, #2
		->    25b2:   f843 2026     str.w  r2, [r3, r6, lsl #2]
		      25b6:   f1b5 3fff     cmp.w  r5, #4294967295  ; 0xffffffff
		      25ba:   d006          beq.n  25ca <nrfx_uarte_uninit+0x11e>
		      25bc:   f505 75e0     add.w  r5, r5, #448 ; 0x1c0
		      25c0:   f04f 43a0     mov.w  r3, #1342177280  ; 0x50000000
		--------------------

i2s-o2: 26 | 261 | 
	(     3d2,      3d4)	nop
		--------------------
		       3cc:   2000008c  .word   0x2000008c
		  
		  000003d0 <nrf_log_backend_uart_flush>:
		       3d0:   4770          bx lr
		->     3d2:   bf00          nop
		  
		  000003d4 <nrf_log_backend_uart_put>:
		       3d4:   b500          push   {lr}
		       3d6:   b083          sub    sp, #12
		--------------------
	(     450,      484)	dead
		--------------------
		       448:   4a15          ldr    r2, [pc, #84]  ; (4a0 <nrf_log_backend_uart_panic_set+0x5c>)
		       44a:   7803          ldrb   r3, [r0, #0]
		       44c:   5cd3          ldrb   r3, [r2, r3]
		       44e:   b088          sub    sp, #32
		->     450:   b1c3          cbz    r3, 484 <nrf_log_backend_uart_panic_set+0x40>
		       452:   3004          adds   r0, #4
		       454:   f002 f90a     bl 266c <nrfx_uarte_uninit>
		       458:   4c12          ldr    r4, [pc, #72]  ; (4a4 <nrf_log_backend_uart_panic_set+0x60>)
		       45a:   cc0f          ldmia  r4!, {r0, r1, r2, r3}
		--------------------
	(     636,      78a)	ret
		--------------------
		       62c:   6067          str    r7, [r4, #4]
		       62e:   f000 fc9f     bl f70 <app_util_critical_region_exit>
		       632:   2001          movs   r0, #1
		       634:   b007          add    sp, #28
		->     636:   e8bd 8ff0     ldmia.w    sp!, {r4, r5, r6, r7, r8, r9, sl, fp, pc}
		       63a:   ea4f 5989     mov.w  r9, r9, lsl #22
		       63e:   f049 0106     orr.w  r1, r9, #6
		       642:   e7ed          b.n    620 <buf_prealloc+0x104>
		       644:   20000160  .word   0x20000160
		--------------------
	(     7f8,      7da)	ret
		--------------------
		       7f0:   441d          add    r5, r3
		       7f2:   e79a          b.n    72a <nrf_log_frontend_dequeue+0x46>
		       7f4:   60a6          str    r6, [r4, #8]
		       7f6:   b005          add    sp, #20
		->     7f8:   e8bd 83f0     ldmia.w    sp!, {r4, r5, r6, r7, r8, r9, pc}
		       7fc:   2000          movs   r0, #0
		       7fe:   b005          add    sp, #20
		       800:   e8bd 83f0     ldmia.w    sp!, {r4, r5, r6, r7, r8, r9, pc}
		       804:   f8bd 3006     ldrh.w r3, [sp, #6]
		--------------------
	(     7f8,      9a0)	ret
		--------------------
		       7f0:   441d          add    r5, r3
		       7f2:   e79a          b.n    72a <nrf_log_frontend_dequeue+0x46>
		       7f4:   60a6          str    r6, [r4, #8]
		       7f6:   b005          add    sp, #20
		->     7f8:   e8bd 83f0     ldmia.w    sp!, {r4, r5, r6, r7, r8, r9, pc}
		       7fc:   2000          movs   r0, #0
		       7fe:   b005          add    sp, #20
		       800:   e8bd 83f0     ldmia.w    sp!, {r4, r5, r6, r7, r8, r9, pc}
		       804:   f8bd 3006     ldrh.w r3, [sp, #6]
		--------------------
	(     800,      a2c)	ret
		--------------------
		       7f6:   b005          add    sp, #20
		       7f8:   e8bd 83f0     ldmia.w    sp!, {r4, r5, r6, r7, r8, r9, pc}
		       7fc:   2000          movs   r0, #0
		       7fe:   b005          add    sp, #20
		->     800:   e8bd 83f0     ldmia.w    sp!, {r4, r5, r6, r7, r8, r9, pc}
		       804:   f8bd 3006     ldrh.w r3, [sp, #6]
		       808:   4857          ldr    r0, [pc, #348] ; (968 <nrf_log_frontend_dequeue+0x284>)
		       80a:   f3c3 1889     ubfx   r8, r3, #6, #10
		       80e:   4645          mov    r5, r8
		--------------------
	(     fae,      fb0)	nop
		--------------------
		       fa2:   e843 0c00     strex  ip, r0, [r3]
		       fa6:   f09c 0f00     teq    ip, #0
		       faa:   d1f6          bne.n  f9a <nrf_atomic_u32_add+0x2>
		       fac:   4770          bx lr
		->     fae:   bf00          nop
		  
		  00000fb0 <nrf_atomic_u32_sub>:
		       fb0:   4603          mov    r3, r0
		       fb2:   e853 2f00     ldrex  r2, [r3]
		--------------------
	(    10c0,     10d8)	ret
		--------------------
		      10b8:   6900          ldr    r0, [r0, #16]
		      10ba:   4798          blx    r3
		      10bc:   2300          movs   r3, #0
		      10be:   60a3          str    r3, [r4, #8]
		->    10c0:   bd10          pop    {r4, pc}
		      10c2:   4770          bx lr
		  
		  000010c4 <nrf_fprintf>:
		      10c4:   b40e          push   {r1, r2, r3}
		--------------------
	(    10c2,     1212)	ret
		--------------------
		      10ba:   4798          blx    r3
		      10bc:   2300          movs   r3, #0
		      10be:   60a3          str    r3, [r4, #8]
		      10c0:   bd10          pop    {r4, pc}
		->    10c2:   4770          bx lr
		  
		  000010c4 <nrf_fprintf>:
		      10c4:   b40e          push   {r1, r2, r3}
		      10c6:   b500          push   {lr}
		--------------------
	(    10c2,     160e)	ret
		--------------------
		      10ba:   4798          blx    r3
		      10bc:   2300          movs   r3, #0
		      10be:   60a3          str    r3, [r4, #8]
		      10c0:   bd10          pop    {r4, pc}
		->    10c2:   4770          bx lr
		  
		  000010c4 <nrf_fprintf>:
		      10c4:   b40e          push   {r1, r2, r3}
		      10c6:   b500          push   {lr}
		--------------------
	(    10e0,      c7a)	ret
		--------------------
		      10d4:   f000 f8ae     bl 1234 <nrf_fprintf_fmt>
		      10d8:   b002          add    sp, #8
		      10da:   f85d eb04     ldr.w  lr, [sp], #4
		      10de:   b003          add    sp, #12
		->    10e0:   4770          bx lr
		      10e2:   bf00          nop
		  
		  000010e4 <unsigned_print>:
		      10e4:   e92d 4ff0     stmdb  sp!, {r4, r5, r6, r7, r8, r9, sl, fp, lr}
		--------------------
	(    10e0,      cbc)	ret
		--------------------
		      10d4:   f000 f8ae     bl 1234 <nrf_fprintf_fmt>
		      10d8:   b002          add    sp, #8
		      10da:   f85d eb04     ldr.w  lr, [sp], #4
		      10de:   b003          add    sp, #12
		->    10e0:   4770          bx lr
		      10e2:   bf00          nop
		  
		  000010e4 <unsigned_print>:
		      10e4:   e92d 4ff0     stmdb  sp!, {r4, r5, r6, r7, r8, r9, sl, fp, lr}
		--------------------
	(    10e0,      d1a)	ret
		--------------------
		      10d4:   f000 f8ae     bl 1234 <nrf_fprintf_fmt>
		      10d8:   b002          add    sp, #8
		      10da:   f85d eb04     ldr.w  lr, [sp], #4
		      10de:   b003          add    sp, #12
		->    10e0:   4770          bx lr
		      10e2:   bf00          nop
		  
		  000010e4 <unsigned_print>:
		      10e4:   e92d 4ff0     stmdb  sp!, {r4, r5, r6, r7, r8, r9, sl, fp, lr}
		--------------------
	(    1884,      922)	ret
		--------------------
		      187a:   3501          adds   r5, #1
		      187c:   f7ff fc00     bl 1080 <nrf_balloc_free>
		      1880:   42af          cmp    r7, r5
		      1882:   d8f6          bhi.n  1872 <nrf_memobj_put+0x36>
		->    1884:   e8bd 81f0     ldmia.w    sp!, {r4, r5, r6, r7, r8, pc}
		      1888:   6820          ldr    r0, [r4, #0]
		      188a:   4621          mov    r1, r4
		      188c:   e8bd 41f0     ldmia.w    sp!, {r4, r5, r6, r7, r8, lr}
		      1890:   f7ff bbf6     b.w    1080 <nrf_balloc_free>
		--------------------
	(    1e56,     1e58)	dead
		--------------------
		      1e4a:   f8c2 1308     str.w  r1, [r2, #776]   ; 0x308
		      1e4e:   f893 1029     ldrb.w r1, [r3, #41]   ; 0x29
		      1e52:   b909          cbnz   r1, 1e58 <nrfx_uart_0_irq_handler+0x38>
		      1e54:   2101          movs   r1, #1
		->    1e56:   6051          str    r1, [r2, #4]
		      1e58:   4a60          ldr    r2, [pc, #384] ; (1fdc <nrfx_uart_0_irq_handler+0x1bc>)
		      1e5a:   2102          movs   r1, #2
		      1e5c:   f88d 1018     strb.w r1, [sp, #24]
		      1e60:   f8d2 1480     ldr.w  r1, [r2, #1152]  ; 0x480
		--------------------
	(    1ede,     1efa)	dead
		--------------------
		      1ed6:   b109          cbz    r1, 1edc <nrfx_uart_0_irq_handler+0xbc>
		      1ed8:   2101          movs   r1, #1
		      1eda:   6011          str    r1, [r2, #0]
		      1edc:   699a          ldr    r2, [r3, #24]
		->    1ede:   b162          cbz    r2, 1efa <nrfx_uart_0_irq_handler+0xda>
		      1ee0:   68d8          ldr    r0, [r3, #12]
		      1ee2:   6a5c          ldr    r4, [r3, #36]  ; 0x24
		      1ee4:   2100          movs   r1, #0
		      1ee6:   2201          movs   r2, #1
		--------------------
	(    1f0e,     1e80)	dead
		--------------------
		      1f04:   075b          lsls   r3, r3, #29
		      1f06:   d5bb          bpl.n  1e80 <nrfx_uart_0_irq_handler+0x60>
		      1f08:   f8d2 3108     ldr.w  r3, [r2, #264]   ; 0x108
		      1f0c:   2b00          cmp    r3, #0
		->    1f0e:   d0b7          beq.n  1e80 <nrfx_uart_0_irq_handler+0x60>
		      1f10:   4b33          ldr    r3, [pc, #204] ; (1fe0 <nrfx_uart_0_irq_handler+0x1c0>)
		      1f12:   6999          ldr    r1, [r3, #24]
		      1f14:   2900          cmp    r1, #0
		      1f16:   d03e          beq.n  1f96 <nrfx_uart_0_irq_handler+0x176>
		--------------------
	(    1f3c,     1e80)	dead
		--------------------
		      1f34:   3201          adds   r2, #1
		      1f36:   625a          str    r2, [r3, #36]  ; 0x24
		      1f38:   6a5a          ldr    r2, [r3, #36]  ; 0x24
		      1f3a:   428a          cmp    r2, r1
		->    1f3c:   d1a0          bne.n  1e80 <nrfx_uart_0_irq_handler+0x60>
		      1f3e:   69da          ldr    r2, [r3, #28]
		      1f40:   2a00          cmp    r2, #0
		      1f42:   d031          beq.n  1fa8 <nrfx_uart_0_irq_handler+0x188>
		      1f44:   619a          str    r2, [r3, #24]
		--------------------
	(    1f7c,     1eba)	dead
		--------------------
		      1f74:   9202          str    r2, [sp, #8]
		      1f76:   9a02          ldr    r2, [sp, #8]
		      1f78:   695a          ldr    r2, [r3, #20]
		      1f7a:   2a00          cmp    r2, #0
		->    1f7c:   d09d          beq.n  1eba <nrfx_uart_0_irq_handler+0x9a>
		      1f7e:   e9d3 2101     ldrd   r2, r1, [r3, #4]
		      1f82:   695c          ldr    r4, [r3, #20]
		      1f84:   f88d 0018     strb.w r0, [sp, #24]
		      1f88:   e9cd 1407     strd   r1, r4, [sp, #28]
		--------------------
	(    1f7c,     1f7e)	dead
		--------------------
		      1f74:   9202          str    r2, [sp, #8]
		      1f76:   9a02          ldr    r2, [sp, #8]
		      1f78:   695a          ldr    r2, [r3, #20]
		      1f7a:   2a00          cmp    r2, #0
		->    1f7c:   d09d          beq.n  1eba <nrfx_uart_0_irq_handler+0x9a>
		      1f7e:   e9d3 2101     ldrd   r2, r1, [r3, #4]
		      1f82:   695c          ldr    r4, [r3, #20]
		      1f84:   f88d 0018     strb.w r0, [sp, #24]
		      1f88:   e9cd 1407     strd   r1, r4, [sp, #28]
		--------------------
	(    1fac,     1fae)	dead
		--------------------
		      1fa0:   9805          ldr    r0, [sp, #20]
		      1fa2:   f8d2 2518     ldr.w  r2, [r2, #1304]  ; 0x518
		      1fa6:   e7c7          b.n    1f38 <nrfx_uart_0_irq_handler+0x118>
		      1fa8:   f893 2029     ldrb.w r2, [r3, #41]   ; 0x29
		->    1fac:   b912          cbnz   r2, 1fb4 <nrfx_uart_0_irq_handler+0x194>
		      1fae:   4a0b          ldr    r2, [pc, #44]  ; (1fdc <nrfx_uart_0_irq_handler+0x1bc>)
		      1fb0:   2101          movs   r1, #1
		      1fb2:   6051          str    r1, [r2, #4]
		      1fb4:   4a09          ldr    r2, [pc, #36]  ; (1fdc <nrfx_uart_0_irq_handler+0x1bc>)
		--------------------
	(    21f2,     2202)	dead
		--------------------
		      21e6:   6803          ldr    r3, [r0, #0]
		      21e8:   4594          cmp    ip, r2
		      21ea:   f8c3 2508     str.w  r2, [r3, #1288]  ; 0x508
		      21ee:   f8c3 2510     str.w  r2, [r3, #1296]  ; 0x510
		->    21f2:   d006          beq.n  2202 <nrfx_uart_uninit+0x82>
		      21f4:   f50c 7ce0     add.w  ip, ip, #448 ; 0x1c0
		      21f8:   f04f 43a0     mov.w  r3, #1342177280  ; 0x50000000
		      21fc:   2202          movs   r2, #2
		      21fe:   f843 202c     str.w  r2, [r3, ip, lsl #2]
		--------------------
	(    2686,     26ba)	dead
		--------------------
		      267e:   685b          ldr    r3, [r3, #4]
		      2680:   6800          ldr    r0, [r0, #0]
		      2682:   b082          sub    sp, #8
		      2684:   00ee          lsls   r6, r5, #3
		->    2686:   b1c3          cbz    r3, 26ba <nrfx_uarte_uninit+0x4e>
		      2688:   4b46          ldr    r3, [pc, #280] ; (27a4 <nrfx_uarte_uninit+0x138>)
		      268a:   f8c0 3308     str.w  r3, [r0, #776]   ; 0x308
		      268e:   680b          ldr    r3, [r1, #0]
		      2690:   f343 3207     sbfx   r2, r3, #12, #8
		--------------------
	(    269a,     26ba)	dead
		--------------------
		      268e:   680b          ldr    r3, [r1, #0]
		      2690:   f343 3207     sbfx   r2, r3, #12, #8
		      2694:   2a00          cmp    r2, #0
		      2696:   ea4f 3313     mov.w  r3, r3, lsr #12
		->    269a:   db0e          blt.n  26ba <nrfx_uarte_uninit+0x4e>
		      269c:   0952          lsrs   r2, r2, #5
		      269e:   f8df c108     ldr.w  ip, [pc, #264]   ; 27a8 <nrfx_uarte_uninit+0x13c>
		      26a2:   3220          adds   r2, #32
		      26a4:   2701          movs   r7, #1
		--------------------
	(    28a4,     2a22)	ret
		--------------------
		      2898:   f5b3 7f00     cmp.w  r3, #512 ; 0x200
		      289c:   d1f4          bne.n  2888 <prepare_tx_data+0x2c>
		      289e:   f505 7500     add.w  r5, r5, #512 ; 0x200
		      28a2:   8035          strh   r5, [r6, #0]
		->    28a4:   bd70          pop    {r4, r5, r6, pc}
		      28a6:   4e05          ldr    r6, [pc, #20]  ; (28bc <prepare_tx_data+0x60>)
		      28a8:   8835          ldrh   r5, [r6, #0]
		      28aa:   e7e7          b.n    287c <prepare_tx_data+0x20>
		      28ac:   200006b8  .word   0x200006b8
		--------------------
	(    293e,     2940)	nop
		--------------------
		      2932:   9803          ldr    r0, [sp, #12]
		      2934:   b005          add    sp, #20
		      2936:   f85d eb04     ldr.w  lr, [sp], #4
		      293a:   f7fe badf     b.w    efc <app_error_save_and_stop>
		->    293e:   bf00          nop
		  
		  00002940 <main>:
		      2940:   e92d 4ff0     stmdb  sp!, {r4, r5, r6, r7, r8, r9, sl, fp, lr}
		      2944:   ed2d 8b02     vpush  {d8}
		--------------------

i2s-o3: 26 | 260 | 14 ret | 11 dead | 1 nop
	(     454,     2768)	dead
		--------------------
		       44c:   5cd3          ldrb   r3, [r2, r3]
		       44e:   b088          sub    sp, #32
		       450:   b1c3          cbz    r3, 484 <nrf_log_backend_uart_panic_set+0x40>
		       452:   3004          adds   r0, #4
		->     454:   f002 f988     bl 2768 <nrfx_uarte_uninit>
		       458:   4c12          ldr    r4, [pc, #72]  ; (4a4 <nrf_log_backend_uart_panic_set+0x60>)
		       45a:   cc0f          ldmia  r4!, {r0, r1, r2, r3}
		       45c:   46ec          mov    ip, sp
		       45e:   e8ac 000f     stmia.w    ip!, {r0, r1, r2, r3}
		--------------------
	(     73e,      b32)	ret
		--------------------
		       736:   1ac0          subs   r0, r0, r3
		       738:   bf18          it ne
		       73a:   2001          movne  r0, #1
		       73c:   b005          add    sp, #20
		->     73e:   e8bd 83f0     ldmia.w    sp!, {r4, r5, r6, r7, r8, r9, pc}
		       742:   880b          ldrh   r3, [r1, #0]
		       744:   3502          adds   r5, #2
		       746:   f3c3 1383     ubfx   r3, r3, #6, #4
		       74a:   441d          add    r5, r3
		--------------------
	(     752,      962)	ret
		--------------------
		       74a:   441d          add    r5, r3
		       74c:   e7bc          b.n    6c8 <nrf_log_frontend_dequeue+0x44>
		       74e:   60a6          str    r6, [r4, #8]
		       750:   b005          add    sp, #20
		->     752:   e8bd 83f0     ldmia.w    sp!, {r4, r5, r6, r7, r8, r9, pc}
		       756:   2000          movs   r0, #0
		       758:   b005          add    sp, #20
		       75a:   e8bd 83f0     ldmia.w    sp!, {r4, r5, r6, r7, r8, r9, pc}
		       75e:   f8bd 3006     ldrh.w r3, [sp, #6]
		--------------------
	(     f2a,      490)	ret
		--------------------
		       f1e:   e9cd 1101     strd   r1, r1, [sp, #4]
		       f22:   9303          str    r3, [sp, #12]
		       f24:   f001 fd48     bl 29b8 <app_error_fault_handler>
		       f28:   b005          add    sp, #20
		->     f2a:   f85d fb04     ldr.w  pc, [sp], #4
		       f2e:   bf00          nop
		  
		  00000f30 <app_error_save_and_stop>:
		       f30:   b500          push   {lr}
		--------------------
	(     f9e,      990)	ret
		--------------------
		       f96:   4a02          ldr    r2, [pc, #8]   ; (fa0 <app_util_critical_region_enter+0xc>)
		       f98:   6813          ldr    r3, [r2, #0]
		       f9a:   3301          adds   r3, #1
		       f9c:   6013          str    r3, [r2, #0]
		->     f9e:   4770          bx lr
		       fa0:   2000063c  .word   0x2000063c
		  
		  00000fa4 <app_util_critical_region_exit>:
		       fa4:   4a03          ldr    r2, [pc, #12]  ; (fb4 <app_util_critical_region_exit+0x10>)
		--------------------
	(     fe0,      9aa)	ret
		--------------------
		       fd2:   eb02 0001     add.w  r0, r2, r1
		       fd6:   e843 0c00     strex  ip, r0, [r3]
		       fda:   f09c 0f00     teq    ip, #0
		       fde:   d1f6          bne.n  fce <nrf_atomic_u32_add+0x2>
		->     fe0:   4770          bx lr
		       fe2:   bf00          nop
		  
		  00000fe4 <nrf_atomic_u32_sub>:
		       fe4:   4603          mov    r3, r0
		--------------------
	(     fe2,      fe4)	ret
		--------------------
		       fd6:   e843 0c00     strex  ip, r0, [r3]
		       fda:   f09c 0f00     teq    ip, #0
		       fde:   d1f6          bne.n  fce <nrf_atomic_u32_add+0x2>
		       fe0:   4770          bx lr
		->     fe2:   bf00          nop
		  
		  00000fe4 <nrf_atomic_u32_sub>:
		       fe4:   4603          mov    r3, r0
		       fe6:   e853 2f00     ldrex  r2, [r3]
		--------------------
	(    10f4,     16f4)	ret
		--------------------
		      10ec:   6900          ldr    r0, [r0, #16]
		      10ee:   4798          blx    r3
		      10f0:   2300          movs   r3, #0
		      10f2:   60a3          str    r3, [r4, #8]
		->    10f4:   bd10          pop    {r4, pc}
		      10f6:   4770          bx lr
		  
		  000010f8 <nrf_fprintf>:
		      10f8:   b40e          push   {r1, r2, r3}
		--------------------
	(    10f6,     1704)	ret
		--------------------
		      10ee:   4798          blx    r3
		      10f0:   2300          movs   r3, #0
		      10f2:   60a3          str    r3, [r4, #8]
		      10f4:   bd10          pop    {r4, pc}
		->    10f6:   4770          bx lr
		  
		  000010f8 <nrf_fprintf>:
		      10f8:   b40e          push   {r1, r2, r3}
		      10fa:   b500          push   {lr}
		--------------------
	(    10f6,     17c0)	ret
		--------------------
		      10ee:   4798          blx    r3
		      10f0:   2300          movs   r3, #0
		      10f2:   60a3          str    r3, [r4, #8]
		      10f4:   bd10          pop    {r4, pc}
		->    10f6:   4770          bx lr
		  
		  000010f8 <nrf_fprintf>:
		      10f8:   b40e          push   {r1, r2, r3}
		      10fa:   b500          push   {lr}
		--------------------
	(    1114,      ccc)	ret
		--------------------
		      1108:   f000 f8b6     bl 1278 <nrf_fprintf_fmt>
		      110c:   b002          add    sp, #8
		      110e:   f85d eb04     ldr.w  lr, [sp], #4
		      1112:   b003          add    sp, #12
		->    1114:   4770          bx lr
		      1116:   bf00          nop
		  
		  00001118 <unsigned_print>:
		      1118:   e92d 4ff0     stmdb  sp!, {r4, r5, r6, r7, r8, r9, sl, fp, lr}
		--------------------
	(    18c0,      89a)	ret
		--------------------
		      18b6:   3501          adds   r5, #1
		      18b8:   f7ff fbfc     bl 10b4 <nrf_balloc_free>
		      18bc:   42af          cmp    r7, r5
		      18be:   d8f6          bhi.n  18ae <nrf_memobj_put+0x36>
		->    18c0:   e8bd 81f0     ldmia.w    sp!, {r4, r5, r6, r7, r8, pc}
		      18c4:   6820          ldr    r0, [r4, #0]
		      18c6:   4621          mov    r1, r4
		      18c8:   e8bd 41f0     ldmia.w    sp!, {r4, r5, r6, r7, r8, lr}
		      18cc:   f7ff bbf2     b.w    10b4 <nrf_balloc_free>
		--------------------
	(    1934,      8ae)	ret
		--------------------
		      192c:   bf28          it cs
		      192e:   462e          movcs  r6, r5
		      1930:   2d00          cmp    r5, #0
		      1932:   d1ed          bne.n  1910 <nrf_memobj_write+0x40>
		->    1934:   e8bd 83f8     ldmia.w    sp!, {r3, r4, r5, r6, r7, r8, r9, pc}
		  
		  00001938 <nrf_memobj_read>:
		      1938:   e92d 43f8     stmdb  sp!, {r3, r4, r5, r6, r7, r8, r9, lr}
		      193c:   4604          mov    r4, r0
		--------------------
	(    1a6c,      478)	ret
		--------------------
		      1a62:   4622          moveq  r2, r4
		      1a64:   1d28          adds   r0, r5, #4
		      1a66:   f000 fd97     bl 2598 <nrfx_uarte_init>
		      1a6a:   b009          add    sp, #36    ; 0x24
		->    1a6c:   bdf0          pop    {r4, r5, r6, r7, pc}
		      1a6e:   2c00          cmp    r4, #0
		      1a70:   4a08          ldr    r2, [pc, #32]  ; (1a94 <nrf_drv_uart_init+0x70>)
		      1a72:   4669          mov    r1, sp
		      1a74:   bf08          it eq
		--------------------
	(    1eda,     20fa)	ret
		--------------------
		      1ed0:   f7ff f868     bl fa4 <app_util_critical_region_exit>
		      1ed4:   4620          mov    r0, r4
		      1ed6:   bd38          pop    {r3, r4, r5, pc}
		      1ed8:   2000          movs   r0, #0
		->    1eda:   bd38          pop    {r3, r4, r5, pc}
		      1edc:   40002000  .word   0x40002000
		      1ee0:   20000664  .word   0x20000664
		  
		  00001ee4 <nrfx_prs_release>:
		--------------------
	(    1ef0,     1ef2)	dead
		--------------------
		      1ee8:   d103          bne.n  1ef2 <nrfx_prs_release+0xe>
		      1eea:   4b03          ldr    r3, [pc, #12]  ; (1ef8 <nrfx_prs_release+0x14>)
		      1eec:   2200          movs   r2, #0
		      1eee:   601a          str    r2, [r3, #0]
		->    1ef0:   711a          strb   r2, [r3, #4]
		      1ef2:   4770          bx lr
		      1ef4:   40002000  .word   0x40002000
		      1ef8:   20000664  .word   0x20000664
		      1efc:   00000000  .word   0x00000000
		--------------------
	(    1f32,     1f38)	dead
		--------------------
		      1f26:   4b69          ldr    r3, [pc, #420] ; (20cc <Heap_Size+0xcc>)
		      1f28:   9801          ldr    r0, [sp, #4]
		      1f2a:   f8c2 1308     str.w  r1, [r2, #776]   ; 0x308
		      1f2e:   f893 1029     ldrb.w r1, [r3, #41]   ; 0x29
		->    1f32:   b909          cbnz   r1, 1f38 <nrfx_uart_0_irq_handler+0x38>
		      1f34:   2101          movs   r1, #1
		      1f36:   6051          str    r1, [r2, #4]
		      1f38:   4963          ldr    r1, [pc, #396] ; (20c8 <Heap_Size+0xc8>)
		      1f3a:   2202          movs   r2, #2
		--------------------
	(    1f72,     1f74)	dead
		--------------------
		      1f6a:   4b58          ldr    r3, [pc, #352] ; (20cc <Heap_Size+0xcc>)
		      1f6c:   6958          ldr    r0, [r3, #20]
		      1f6e:   6a19          ldr    r1, [r3, #32]
		      1f70:   4288          cmp    r0, r1
		->    1f72:   d96a          bls.n  204a <Heap_Size+0x4a>
		      1f74:   f893 1028     ldrb.w r1, [r3, #40]   ; 0x28
		      1f78:   f001 00ff     and.w  r0, r1, #255 ; 0xff
		      1f7c:   2900          cmp    r1, #0
		      1f7e:   d164          bne.n  204a <Heap_Size+0x4a>
		--------------------
	(    1fa2,     1fdc)	dead
		--------------------
		      1f96:   6219          str    r1, [r3, #32]
		      1f98:   f8c2 051c     str.w  r0, [r2, #1308]  ; 0x51c
		      1f9c:   4a4a          ldr    r2, [pc, #296] ; (20c8 <Heap_Size+0xc8>)
		      1f9e:   f8d2 3144     ldr.w  r3, [r2, #324]   ; 0x144
		->    1fa2:   b1db          cbz    r3, 1fdc <nrfx_uart_0_irq_handler+0xdc>
		      1fa4:   2100          movs   r1, #0
		      1fa6:   4b49          ldr    r3, [pc, #292] ; (20cc <Heap_Size+0xcc>)
		      1fa8:   f8c2 1144     str.w  r1, [r2, #324]   ; 0x144
		      1fac:   f8d2 0144     ldr.w  r0, [r2, #324]   ; 0x144
		--------------------
	(    1fbc,     1fbe)	dead
		--------------------
		      1fb4:   9000          str    r0, [sp, #0]
		      1fb6:   9800          ldr    r0, [sp, #0]
		      1fb8:   b109          cbz    r1, 1fbe <nrfx_uart_0_irq_handler+0xbe>
		      1fba:   2101          movs   r1, #1
		->    1fbc:   6011          str    r1, [r2, #0]
		      1fbe:   699a          ldr    r2, [r3, #24]
		      1fc0:   b162          cbz    r2, 1fdc <nrfx_uart_0_irq_handler+0xdc>
		      1fc2:   68d8          ldr    r0, [r3, #12]
		      1fc4:   6a5c          ldr    r4, [r3, #36]  ; 0x24
		--------------------
	(    205e,     1f9c)	dead
		--------------------
		      2056:   9202          str    r2, [sp, #8]
		      2058:   9a02          ldr    r2, [sp, #8]
		      205a:   695a          ldr    r2, [r3, #20]
		      205c:   2a00          cmp    r2, #0
		->    205e:   d09d          beq.n  1f9c <nrfx_uart_0_irq_handler+0x9c>
		      2060:   e9d3 2101     ldrd   r2, r1, [r3, #4]
		      2064:   695c          ldr    r4, [r3, #20]
		      2066:   f88d 0018     strb.w r0, [sp, #24]
		      206a:   e9cd 1407     strd   r1, r4, [sp, #28]
		--------------------
	(    22b4,     22b6)	dead
		--------------------
		      22a6:   408b          lsls   r3, r1
		      22a8:   f845 3022     str.w  r3, [r5, r2, lsl #2]
		      22ac:   f3bf 8f4f     dsb    sy
		      22b0:   f3bf 8f6f     isb    sy
		->    22b4:   6803          ldr    r3, [r0, #0]
		      22b6:   f8d3 c50c     ldr.w  ip, [r3, #1292]  ; 0x50c
		      22ba:   f8d3 7514     ldr.w  r7, [r3, #1300]  ; 0x514
		      22be:   f8d3 1508     ldr.w  r1, [r3, #1288]  ; 0x508
		      22c2:   f8d3 5510     ldr.w  r5, [r3, #1296]  ; 0x510
		--------------------
	(    22fc,     2300)	dead
		--------------------
		      22f0:   d006          beq.n  2300 <nrfx_uart_uninit+0x94>
		      22f2:   f507 77e0     add.w  r7, r7, #448 ; 0x1c0
		      22f6:   f04f 43a0     mov.w  r3, #1342177280  ; 0x50000000
		      22fa:   2202          movs   r2, #2
		->    22fc:   f843 2027     str.w  r2, [r3, r7, lsl #2]
		      2300:   1c6a          adds   r2, r5, #1
		      2302:   d006          beq.n  2312 <nrfx_uart_uninit+0xa6>
		      2304:   f505 75e0     add.w  r5, r5, #448 ; 0x1c0
		      2308:   f04f 43a0     mov.w  r3, #1342177280  ; 0x50000000
		--------------------
	(    2314,     2324)	dead
		--------------------
		      2308:   f04f 43a0     mov.w  r3, #1342177280  ; 0x50000000
		      230c:   2202          movs   r2, #2
		      230e:   f843 2025     str.w  r2, [r3, r5, lsl #2]
		      2312:   1c4b          adds   r3, r1, #1
		->    2314:   d006          beq.n  2324 <nrfx_uart_uninit+0xb8>
		      2316:   f04f 43a0     mov.w  r3, #1342177280  ; 0x50000000
		      231a:   f501 71e0     add.w  r1, r1, #448 ; 0x1c0
		      231e:   2202          movs   r2, #2
		      2320:   f843 2021     str.w  r2, [r3, r1, lsl #2]
		--------------------
	(    27ca,     27de)	dead
		--------------------
		      27bc:   699a          ldr    r2, [r3, #24]
		      27be:   f8d0 3200     ldr.w  r3, [r0, #512]   ; 0x200
		      27c2:   f023 0320     bic.w  r3, r3, #32
		      27c6:   f8c0 3200     str.w  r3, [r0, #512]   ; 0x200
		->    27ca:   b142          cbz    r2, 27de <nrfx_uarte_uninit+0x76>
		      27cc:   2300          movs   r3, #0
		      27ce:   f8c0 3144     str.w  r3, [r0, #324]   ; 0x144
		      27d2:   f8d0 3144     ldr.w  r3, [r0, #324]   ; 0x144
		      27d6:   9300          str    r3, [sp, #0]
		--------------------
	(    327e,     3280)	nop
		--------------------
		      3278:   2000276c  .word   0x2000276c
		  
		  0000327c <_exit>:
		      327c:   e7fe          b.n    327c <_exit>
		->    327e:   bf00          nop
		  
		  00003280 <_init>:
		      3280:   b5f8          push   {r3, r4, r5, r6, r7, lr}
		      3282:   bf00          nop
		--------------------

saadc-o0: 42 | 417 | 24 jt | 18 ret
	(     79c,      7b6)	jt
		--------------------
		       794:   3b01          subs   r3, #1
		       796:   2b03          cmp    r3, #3
		       798:   d818          bhi.n  7cc <nrf_log_color_id_get+0x50>
		       79a:   a201          add    r2, pc, #4 ; (adr r2, 7a0 <nrf_log_color_id_get+0x24>)
		->     79c:   f852 f023     ldr.w  pc, [r2, r3, lsl #2]
		       7a0:   000007b1  .word   0x000007b1
		       7a4:   000007b7  .word   0x000007b7
		       7a8:   000007bd  .word   0x000007bd
		       7ac:   000007c5  .word   0x000007c5
		--------------------
	(     7ba,      7d2)	jt
		--------------------
		       7b2:   73fb          strb   r3, [r7, #15]
		       7b4:   e00d          b.n    7d2 <nrf_log_color_id_get+0x56>
		       7b6:   2304          movs   r3, #4
		       7b8:   73fb          strb   r3, [r7, #15]
		->     7ba:   e00a          b.n    7d2 <nrf_log_color_id_get+0x56>
		       7bc:   68bb          ldr    r3, [r7, #8]
		       7be:   791b          ldrb   r3, [r3, #4]
		       7c0:   73fb          strb   r3, [r7, #15]
		       7c2:   e006          b.n    7d2 <nrf_log_color_id_get+0x56>
		--------------------
	(     854,      c78)	ret
		--------------------
		       84a:   4618          mov    r0, r3
		       84c:   3714          adds   r7, #20
		       84e:   46bd          mov    sp, r7
		       850:   f85d 7b04     ldr.w  r7, [sp], #4
		->     854:   4770          bx lr
		      ...
		  
		  00000858 <log_skip>:
		       858:   b580          push   {r7, lr}
		--------------------
	(     bae,      bf4)	ret
		--------------------
		       ba6:   d1fa          bne.n  b9e <std_n+0x7a>
		       ba8:   bf00          nop
		       baa:   3720          adds   r7, #32
		       bac:   46bd          mov    sp, r7
		->     bae:   bd80          pop    {r7, pc}
		       bb0:   20000008  .word   0x20000008
		       bb4:   2000021c  .word   0x2000021c
		  
		  00000bb8 <nrf_log_frontend_std_0>:
		--------------------
	(     f8a,      ba2)	ret
		--------------------
		       f82:   b2db          uxtb   r3, r3
		       f84:   4618          mov    r0, r3
		       f86:   3760          adds   r7, #96   ; 0x60
		       f88:   46bd          mov    sp, r7
		->     f8a:   bd80          pop    {r7, pc}
		       f8c:   2000021c  .word   0x2000021c
		       f90:   00004878  .word   0x00004878
		       f94:   00004848  .word   0x00004848
		       f98:   000045a8  .word   0x000045a8
		--------------------
	(    1302,     1306)	jt
		--------------------
		      12f8:   4622          mov    r2, r4
		      12fa:   68f9          ldr    r1, [r7, #12]
		      12fc:   6ab8          ldr    r0, [r7, #40]  ; 0x28
		      12fe:   f000 fa78     bl 17f2 <nrf_fprintf>
		->    1302:   e000          b.n    1306 <nrf_log_std_entry_process+0x12a>
		      1304:   bf00          nop
		      1306:   2200          movs   r2, #0
		      1308:   6ab9          ldr    r1, [r7, #40]  ; 0x28
		      130a:   6838          ldr    r0, [r7, #0]
		--------------------
	(    143a,     362a)	ret
		--------------------
		      1430:   f000 f81a     bl 1468 <app_error_fault_handler>
		      1434:   bf00          nop
		      1436:   3718          adds   r7, #24
		      1438:   46bd          mov    sp, r7
		->    143a:   bd80          pop    {r7, pc}
		  
		  0000143c <__NVIC_SystemReset>:
		      143c:   b480          push   {r7}
		      143e:   af00          add    r7, sp, #0
		--------------------
	(    143a,     36ca)	ret
		--------------------
		      1430:   f000 f81a     bl 1468 <app_error_fault_handler>
		      1434:   bf00          nop
		      1436:   3718          adds   r7, #24
		      1438:   46bd          mov    sp, r7
		->    143a:   bd80          pop    {r7, pc}
		  
		  0000143c <__NVIC_SystemReset>:
		      143c:   b480          push   {r7}
		      143e:   af00          add    r7, sp, #0
		--------------------
	(    1548,     2228)	ret
		--------------------
		      153e:   f7ff ffdb     bl 14f8 <app_util_enable_irq>
		      1542:   bf00          nop
		      1544:   3708          adds   r7, #8
		      1546:   46bd          mov    sp, r7
		->    1548:   bd80          pop    {r7, pc}
		  
		  0000154a <nrf_atomic_u32_fetch_store>:
		      154a:   b490          push   {r4, r7}
		      154c:   b086          sub    sp, #24
		--------------------
	(    1828,     10f0)	ret
		--------------------
		      181e:   3714          adds   r7, #20
		      1820:   46bd          mov    sp, r7
		      1822:   e8bd 4080     ldmia.w    sp!, {r7, lr}
		      1826:   b003          add    sp, #12
		->    1828:   4770          bx lr
		  
		  0000182a <buffer_add>:
		      182a:   b580          push   {r7, lr}
		      182c:   b082          sub    sp, #8
		--------------------
	(    1828,     1126)	ret
		--------------------
		      181e:   3714          adds   r7, #20
		      1820:   46bd          mov    sp, r7
		      1822:   e8bd 4080     ldmia.w    sp!, {r7, lr}
		      1826:   b003          add    sp, #12
		->    1828:   4770          bx lr
		  
		  0000182a <buffer_add>:
		      182a:   b580          push   {r7, lr}
		      182c:   b082          sub    sp, #8
		--------------------
	(    1828,     1272)	ret
		--------------------
		      181e:   3714          adds   r7, #20
		      1820:   46bd          mov    sp, r7
		      1822:   e8bd 4080     ldmia.w    sp!, {r7, lr}
		      1826:   b003          add    sp, #12
		->    1828:   4770          bx lr
		  
		  0000182a <buffer_add>:
		      182a:   b580          push   {r7, lr}
		      182c:   b082          sub    sp, #8
		--------------------
	(    1828,     12ca)	ret
		--------------------
		      181e:   3714          adds   r7, #20
		      1820:   46bd          mov    sp, r7
		      1822:   e8bd 4080     ldmia.w    sp!, {r7, lr}
		      1826:   b003          add    sp, #12
		->    1828:   4770          bx lr
		  
		  0000182a <buffer_add>:
		      182a:   b580          push   {r7, lr}
		      182c:   b082          sub    sp, #8
		--------------------
	(    1870,     1844)	ret
		--------------------
		      1866:   f7ff ffab     bl 17c0 <nrf_fprintf_buffer_flush>
		      186a:   bf00          nop
		      186c:   3708          adds   r7, #8
		      186e:   46bd          mov    sp, r7
		->    1870:   bd80          pop    {r7, pc}
		  
		  00001872 <string_print>:
		      1872:   b580          push   {r7, lr}
		      1874:   b086          sub    sp, #24
		--------------------
	(    188c,     188e)	jti
		--------------------
		      1882:   617b          str    r3, [r7, #20]
		      1884:   683b          ldr    r3, [r7, #0]
		      1886:   f003 0301     and.w  r3, r3, #1
		      188a:   2b00          cmp    r3, #0
		->    188c:   d021          beq.n  18d2 <string_print+0x60>
		      188e:   e00a          b.n    18a6 <string_print+0x34>
		      1890:   68bb          ldr    r3, [r7, #8]
		      1892:   3301          adds   r3, #1
		      1894:   60bb          str    r3, [r7, #8]
		--------------------
	(    18b0,     1890)	jti
		--------------------
		      18a8:   781b          ldrb   r3, [r3, #0]
		      18aa:   74fb          strb   r3, [r7, #19]
		      18ac:   7cfb          ldrb   r3, [r7, #19]
		      18ae:   2b00          cmp    r3, #0
		->    18b0:   d1ee          bne.n  1890 <string_print+0x1e>
		      18b2:   e006          b.n    18c2 <string_print+0x50>
		      18b4:   687b          ldr    r3, [r7, #4]
		      18b6:   3b01          subs   r3, #1
		      18b8:   607b          str    r3, [r7, #4]
		--------------------
	(    18b0,     18b2)	jti
		--------------------
		      18a8:   781b          ldrb   r3, [r3, #0]
		      18aa:   74fb          strb   r3, [r7, #19]
		      18ac:   7cfb          ldrb   r3, [r7, #19]
		      18ae:   2b00          cmp    r3, #0
		->    18b0:   d1ee          bne.n  1890 <string_print+0x1e>
		      18b2:   e006          b.n    18c2 <string_print+0x50>
		      18b4:   687b          ldr    r3, [r7, #4]
		      18b6:   3b01          subs   r3, #1
		      18b8:   607b          str    r3, [r7, #4]
		--------------------
	(    18ce,     18b4)	jti
		--------------------
		      18c6:   429a          cmp    r2, r3
		      18c8:   d92b          bls.n  1922 <string_print+0xb0>
		      18ca:   687b          ldr    r3, [r7, #4]
		      18cc:   2b00          cmp    r3, #0
		->    18ce:   d1f1          bne.n  18b4 <string_print+0x42>
		      18d0:   e027          b.n    1922 <string_print+0xb0>
		      18d2:   68bb          ldr    r3, [r7, #8]
		      18d4:   2b00          cmp    r3, #0
		      18d6:   d00b          beq.n  18f0 <string_print+0x7e>
		--------------------
	(    1970,     1972)	jti
		--------------------
		      1966:   61bb          str    r3, [r7, #24]
		      1968:   6afb          ldr    r3, [r7, #44]  ; 0x2c
		      196a:   f003 0301     and.w  r3, r3, #1
		      196e:   2b00          cmp    r3, #0
		->    1970:   d11f          bne.n  19b2 <unsigned_print+0x86>
		      1972:   6abb          ldr    r3, [r7, #40]  ; 0x28
		      1974:   2b00          cmp    r3, #0
		      1976:   d01c          beq.n  19b2 <unsigned_print+0x86>
		      1978:   6afb          ldr    r3, [r7, #44]  ; 0x2c
		--------------------
	(    19ba,     19bc)	jti
		--------------------
		      19b2:   2301          movs   r3, #1
		      19b4:   61fb          str    r3, [r7, #28]
		      19b6:   683b          ldr    r3, [r7, #0]
		      19b8:   2b01          cmp    r3, #1
		->    19ba:   d903          bls.n  19c4 <unsigned_print+0x98>
		      19bc:   683b          ldr    r3, [r7, #0]
		      19be:   3b01          subs   r3, #1
		      19c0:   603b          str    r3, [r7, #0]
		      19c2:   e009          b.n    19d8 <unsigned_print+0xac>
		--------------------
	(    1a08,     1a0c)	jti
		--------------------
		      1a00:   4413          add    r3, r2
		      1a02:   781b          ldrb   r3, [r3, #0]
		      1a04:   4619          mov    r1, r3
		      1a06:   68f8          ldr    r0, [r7, #12]
		->    1a08:   f7ff ff0f     bl 182a <buffer_add>
		      1a0c:   69fa          ldr    r2, [r7, #28]
		      1a0e:   687b          ldr    r3, [r7, #4]
		      1a10:   fbb2 f3f3     udiv   r3, r2, r3
		      1a14:   61fb          str    r3, [r7, #28]
		--------------------
	(    1a50,     1e68)	ret
		--------------------
		      1a48:   d3f1          bcc.n  1a2e <unsigned_print+0x102>
		      1a4a:   bf00          nop
		      1a4c:   3720          adds   r7, #32
		      1a4e:   46bd          mov    sp, r7
		->    1a50:   bd80          pop    {r7, pc}
		      1a52:   bf00          nop
		      1a54:   00004684  .word   0x00004684
		  
		  00001a58 <int_print>:
		--------------------
	(    1aa4,     1ab0)	ret
		--------------------
		      1a9c:   2b00          cmp    r3, #0
		      1a9e:   d00a          beq.n  1ab6 <int_print+0x5e>
		      1aa0:   68bb          ldr    r3, [r7, #8]
		      1aa2:   2b00          cmp    r3, #0
		->    1aa4:   db04          blt.n  1ab0 <int_print+0x58>
		      1aa6:   6a7b          ldr    r3, [r7, #36]  ; 0x24
		      1aa8:   f003 0304     and.w  r3, r3, #4
		      1aac:   2b00          cmp    r3, #0
		      1aae:   d002          beq.n  1ab6 <int_print+0x5e>
		--------------------
	(    1ae2,     182a)	jti
		--------------------
		      1ada:   3b01          subs   r3, #1
		      1adc:   623b          str    r3, [r7, #32]
		      1ade:   2120          movs   r1, #32
		      1ae0:   68f8          ldr    r0, [r7, #12]
		->    1ae2:   f7ff fea2     bl 182a <buffer_add>
		      1ae6:   6a3b          ldr    r3, [r7, #32]
		      1ae8:   2b00          cmp    r3, #0
		      1aea:   d003          beq.n  1af4 <int_print+0x9c>
		      1aec:   697a          ldr    r2, [r7, #20]
		--------------------
	(    1b34,     1b36)	jti
		--------------------
		      1b2c:   2b00          cmp    r3, #0
		      1b2e:   d114          bne.n  1b5a <int_print+0x102>
		      1b30:   683b          ldr    r3, [r7, #0]
		      1b32:   2b00          cmp    r3, #0
		->    1b34:   d111          bne.n  1b5a <int_print+0x102>
		      1b36:   6a3b          ldr    r3, [r7, #32]
		      1b38:   2b00          cmp    r3, #0
		      1b3a:   d00e          beq.n  1b5a <int_print+0x102>
		      1b3c:   e006          b.n    1b4c <int_print+0xf4>
		--------------------
	(    1b3a,     1b5a)	jti
		--------------------
		      1b32:   2b00          cmp    r3, #0
		      1b34:   d111          bne.n  1b5a <int_print+0x102>
		      1b36:   6a3b          ldr    r3, [r7, #32]
		      1b38:   2b00          cmp    r3, #0
		->    1b3a:   d00e          beq.n  1b5a <int_print+0x102>
		      1b3c:   e006          b.n    1b4c <int_print+0xf4>
		      1b3e:   6a3b          ldr    r3, [r7, #32]
		      1b40:   3b01          subs   r3, #1
		      1b42:   623b          str    r3, [r7, #32]
		--------------------
	(    1b3c,     1b4c)	jti
		--------------------
		      1b34:   d111          bne.n  1b5a <int_print+0x102>
		      1b36:   6a3b          ldr    r3, [r7, #32]
		      1b38:   2b00          cmp    r3, #0
		      1b3a:   d00e          beq.n  1b5a <int_print+0x102>
		->    1b3c:   e006          b.n    1b4c <int_print+0xf4>
		      1b3e:   6a3b          ldr    r3, [r7, #32]
		      1b40:   3b01          subs   r3, #1
		      1b42:   623b          str    r3, [r7, #32]
		      1b44:   2130          movs   r1, #48   ; 0x30
		--------------------
	(    1b6a,     192c)	jti
		--------------------
		      1b62:   9300          str    r3, [sp, #0]
		      1b64:   683b          ldr    r3, [r7, #0]
		      1b66:   687a          ldr    r2, [r7, #4]
		      1b68:   68f8          ldr    r0, [r7, #12]
		->    1b6a:   f7ff fedf     bl 192c <unsigned_print>
		      1b6e:   bf00          nop
		      1b70:   3718          adds   r7, #24
		      1b72:   46bd          mov    sp, r7
		      1b74:   bd80          pop    {r7, pc}
		--------------------
	(    203a,      f26)	ret
		--------------------
		      2030:   f7ff ffa0     bl 1f74 <nrf_memobj_free>
		      2034:   bf00          nop
		      2036:   3718          adds   r7, #24
		      2038:   46bd          mov    sp, r7
		->    203a:   bd80          pop    {r7, pc}
		  
		  0000203c <memobj_op>:
		      203c:   b580          push   {r7, lr}
		      203e:   b090          sub    sp, #64    ; 0x40
		--------------------
	(    226e,     2270)	ret
		--------------------
		      2264:   f7ff ffc6     bl 21f4 <pwr_mgmt_fpu_sleep_prepare>
		      2268:   bf20          wfe
		      226a:   bf40          sev
		      226c:   bf20          wfe
		->    226e:   bf00          nop
		      2270:   bd80          pop    {r7, pc}
		  
		  00002272 <nrf_ringbuf_init>:
		      2272:   b480          push   {r7}
		--------------------
	(    23be,     258c)	ret
		--------------------
		      23b6:   b2db          uxtb   r3, r3
		      23b8:   4618          mov    r0, r3
		      23ba:   3708          adds   r7, #8
		      23bc:   46bd          mov    sp, r7
		->    23be:   bd80          pop    {r7, pc}
		  
		  000023c0 <are_app_channels>:
		      23c0:   b480          push   {r7}
		      23c2:   b083          sub    sp, #12
		--------------------
	(    27a2,     2cfe)	ret
		--------------------
		      2798:   bf00          nop
		      279a:   370c          adds   r7, #12
		      279c:   46bd          mov    sp, r7
		      279e:   f85d 7b04     ldr.w  r7, [sp], #4
		->    27a2:   4770          bx lr
		      27a4:   40007000  .word   0x40007000
		  
		  000027a8 <nrf_saadc_int_disable>:
		      27a8:   b480          push   {r7}
		--------------------
	(    3c4a,     3c68)	jt
		--------------------
		      3c42:   3b03          subs   r3, #3
		      3c44:   2b03          cmp    r3, #3
		      3c46:   d813          bhi.n  3c70 <nrf52_errata_32+0x50>
		      3c48:   a201          add    r2, pc, #4 ; (adr r2, 3c50 <nrf52_errata_32+0x30>)
		->    3c4a:   f852 f023     ldr.w  pc, [r2, r3, lsl #2]
		      3c4e:   bf00          nop
		      3c50:   00003c61  .word   0x00003c61
		      3c54:   00003c65  .word   0x00003c65
		      3c58:   00003c69  .word   0x00003c69
		--------------------
	(    3c4a,     3c6c)	jt
		--------------------
		      3c42:   3b03          subs   r3, #3
		      3c44:   2b03          cmp    r3, #3
		      3c46:   d813          bhi.n  3c70 <nrf52_errata_32+0x50>
		      3c48:   a201          add    r2, pc, #4 ; (adr r2, 3c50 <nrf52_errata_32+0x30>)
		->    3c4a:   f852 f023     ldr.w  pc, [r2, r3, lsl #2]
		      3c4e:   bf00          nop
		      3c50:   00003c61  .word   0x00003c61
		      3c54:   00003c65  .word   0x00003c65
		      3c58:   00003c69  .word   0x00003c69
		--------------------
	(    3cce,     3cf0)	jt
		--------------------
		      3cc6:   3b03          subs   r3, #3
		      3cc8:   2b03          cmp    r3, #3
		      3cca:   d813          bhi.n  3cf4 <nrf52_errata_36+0x68>
		      3ccc:   a201          add    r2, pc, #4 ; (adr r2, 3cd4 <nrf52_errata_36+0x48>)
		->    3cce:   f852 f023     ldr.w  pc, [r2, r3, lsl #2]
		      3cd2:   bf00          nop
		      3cd4:   00003ce5  .word   0x00003ce5
		      3cd8:   00003ce9  .word   0x00003ce9
		      3cdc:   00003ced  .word   0x00003ced
		--------------------
	(    3e32,     3e48)	jt
		--------------------
		      3e2a:   3b03          subs   r3, #3
		      3e2c:   2b03          cmp    r3, #3
		      3e2e:   d813          bhi.n  3e58 <nrf52_errata_66+0x68>
		      3e30:   a201          add    r2, pc, #4 ; (adr r2, 3e38 <nrf52_errata_66+0x48>)
		->    3e32:   f852 f023     ldr.w  pc, [r2, r3, lsl #2]
		      3e36:   bf00          nop
		      3e38:   00003e49  .word   0x00003e49
		      3e3c:   00003e4d  .word   0x00003e4d
		      3e40:   00003e51  .word   0x00003e51
		--------------------
	(    3ebe,     3ee0)	jt
		--------------------
		      3eb6:   3b03          subs   r3, #3
		      3eb8:   2b03          cmp    r3, #3
		      3eba:   d813          bhi.n  3ee4 <nrf52_errata_108+0x68>
		      3ebc:   a201          add    r2, pc, #4 ; (adr r2, 3ec4 <nrf52_errata_108+0x48>)
		->    3ebe:   f852 f023     ldr.w  pc, [r2, r3, lsl #2]
		      3ec2:   bf00          nop
		      3ec4:   00003ed5  .word   0x00003ed5
		      3ec8:   00003ed9  .word   0x00003ed9
		      3ecc:   00003edd  .word   0x00003edd
		--------------------
	(    3ee2,     3eea)	jt
		--------------------
		      3eda:   e006          b.n    3eea <nrf52_errata_108+0x6e>
		      3edc:   2301          movs   r3, #1
		      3ede:   e004          b.n    3eea <nrf52_errata_108+0x6e>
		      3ee0:   2301          movs   r3, #1
		->    3ee2:   e002          b.n    3eea <nrf52_errata_108+0x6e>
		      3ee4:   2301          movs   r3, #1
		      3ee6:   e000          b.n    3eea <nrf52_errata_108+0x6e>
		      3ee8:   2300          movs   r3, #0
		      3eea:   4618          mov    r0, r3
		--------------------
	(    3f4a,     3f68)	jt
		--------------------
		      3f42:   3b03          subs   r3, #3
		      3f44:   2b03          cmp    r3, #3
		      3f46:   d813          bhi.n  3f70 <nrf52_errata_136+0x68>
		      3f48:   a201          add    r2, pc, #4 ; (adr r2, 3f50 <nrf52_errata_136+0x48>)
		->    3f4a:   f852 f023     ldr.w  pc, [r2, r3, lsl #2]
		      3f4e:   bf00          nop
		      3f50:   00003f61  .word   0x00003f61
		      3f54:   00003f65  .word   0x00003f65
		      3f58:   00003f69  .word   0x00003f69
		--------------------
	(    3f6e,     3f76)	jt
		--------------------
		      3f66:   e006          b.n    3f76 <nrf52_errata_136+0x6e>
		      3f68:   2301          movs   r3, #1
		      3f6a:   e004          b.n    3f76 <nrf52_errata_136+0x6e>
		      3f6c:   2301          movs   r3, #1
		->    3f6e:   e002          b.n    3f76 <nrf52_errata_136+0x6e>
		      3f70:   2301          movs   r3, #1
		      3f72:   e000          b.n    3f76 <nrf52_errata_136+0x6e>
		      3f74:   2300          movs   r3, #0
		      3f76:   4618          mov    r0, r3
		--------------------
	(    3fd2,     3fe2)	jt
		--------------------
		      3fc8:   00003fd9  .word   0x00003fd9
		      3fcc:   2300          movs   r3, #0
		      3fce:   e008          b.n    3fe2 <nrf52_errata_182+0x4e>
		      3fd0:   2300          movs   r3, #0
		->    3fd2:   e006          b.n    3fe2 <nrf52_errata_182+0x4e>
		      3fd4:   2300          movs   r3, #0
		      3fd6:   e004          b.n    3fe2 <nrf52_errata_182+0x4e>
		      3fd8:   2301          movs   r3, #1
		      3fda:   e002          b.n    3fe2 <nrf52_errata_182+0x4e>
		--------------------
	(    43be,     3954)	ret
		--------------------
		      43b4:   440a          add    r2, r1
		      43b6:   4291          cmp    r1, r2
		      43b8:   f100 33ff     add.w  r3, r0, #4294967295  ; 0xffffffff
		      43bc:   d100          bne.n  43c0 <memcpy+0xc>
		->    43be:   4770          bx lr
		      43c0:   b510          push   {r4, lr}
		      43c2:   f811 4b01     ldrb.w r4, [r1], #1
		      43c6:   f803 4f01     strb.w r4, [r3, #1]!
		      43ca:   4291          cmp    r1, r2
		--------------------

saadc-o1: 20 | 104
	(     7aa,      656)	
		--------------------
		       7a0:   4824          ldr    r0, [pc, #144] ; (834 <nrf_log_frontend_dequeue+0x238>)
		       7a2:   f000 fe19     bl 13d8 <nrf_memobj_alloc>
		       7a6:   4605          mov    r5, r0
		       7a8:   2800          cmp    r0, #0
		->     7aa:   f43f af54     beq.w  656 <nrf_log_frontend_dequeue+0x5a>
		       7ae:   f000 fe46     bl 143e <nrf_memobj_get>
		       7b2:   2300          movs   r3, #0
		       7b4:   2208          movs   r2, #8
		       7b6:   4669          mov    r1, sp
		--------------------
	(     d6a,      e7c)	ret
		--------------------
		  
		  00000d64 <app_util_critical_region_enter>:
		       d64:   b508          push   {r3, lr}
		       d66:   f7ff ffeb     bl d40 <app_util_disable_irq>
		->     d6a:   bd08          pop    {r3, pc}
		  
		  00000d6c <app_util_critical_region_exit>:
		       d6c:   b508          push   {r3, lr}
		       d6e:   f7ff ffef     bl d50 <app_util_enable_irq>
		--------------------
	(     d72,      e68)	ret
		--------------------
		  
		  00000d6c <app_util_critical_region_exit>:
		       d6c:   b508          push   {r3, lr}
		       d6e:   f7ff ffef     bl d50 <app_util_enable_irq>
		->     d72:   bd08          pop    {r3, pc}
		  
		  00000d74 <nrf_atomic_u32_fetch_store>:
		       d74:   4603          mov    r3, r0
		       d76:   e853 0f00     ldrex  r0, [r3]
		--------------------
	(     d72,     14e6)	ret
		--------------------
		  
		  00000d6c <app_util_critical_region_exit>:
		       d6c:   b508          push   {r3, lr}
		       d6e:   f7ff ffef     bl d50 <app_util_enable_irq>
		->     d72:   bd08          pop    {r3, pc}
		  
		  00000d74 <nrf_atomic_u32_fetch_store>:
		       d74:   4603          mov    r3, r0
		       d76:   e853 0f00     ldrex  r0, [r3]
		--------------------
	(     dc8,      872)	ret
		--------------------
		       dba:   eb02 0001     add.w  r0, r2, r1
		       dbe:   e843 0c00     strex  ip, r0, [r3]
		       dc2:   f09c 0f00     teq    ip, #0
		       dc6:   d1f6          bne.n  db6 <nrf_atomic_u32_add+0x2>
		->     dc8:   4770          bx lr
		  
		  00000dca <nrf_atomic_u32_sub>:
		       dca:   4603          mov    r3, r0
		       dcc:   e853 2f00     ldrex  r2, [r3]
		--------------------
	(     e6a,     1418)	ret
		--------------------
		       e60:   7113          strb   r3, [r2, #4]
		       e62:   2000          movs   r0, #0
		       e64:   f7ff ff82     bl d6c <app_util_critical_region_exit>
		       e68:   4628          mov    r0, r5
		->     e6a:   bd38          pop    {r3, r4, r5, pc}
		       e6c:   2500          movs   r5, #0
		       e6e:   e7f8          b.n    e62 <nrf_balloc_alloc+0x36>
		  
		  00000e70 <nrf_balloc_free>:
		--------------------
	(     eae,      efa)	ret
		--------------------
		       ea6:   4798          blx    r3
		       ea8:   2300          movs   r3, #0
		       eaa:   60a3          str    r3, [r4, #8]
		       eac:   bd10          pop    {r4, pc}
		->     eae:   4770          bx lr
		  
		  00000eb0 <nrf_fprintf>:
		       eb0:   b40e          push   {r1, r2, r3}
		       eb2:   b500          push   {lr}
		--------------------
	(     ecc,      afe)	ret
		--------------------
		       ec0:   f000 f87e     bl fc0 <nrf_fprintf_fmt>
		       ec4:   b002          add    sp, #8
		       ec6:   f85d eb04     ldr.w  lr, [sp], #4
		       eca:   b003          add    sp, #12
		->     ecc:   4770          bx lr
		  
		  00000ece <buffer_add>:
		       ece:   b538          push   {r3, r4, r5, lr}
		       ed0:   4604          mov    r4, r0
		--------------------
	(     ecc,      b64)	ret
		--------------------
		       ec0:   f000 f87e     bl fc0 <nrf_fprintf_fmt>
		       ec4:   b002          add    sp, #8
		       ec6:   f85d eb04     ldr.w  lr, [sp], #4
		       eca:   b003          add    sp, #12
		->     ecc:   4770          bx lr
		  
		  00000ece <buffer_add>:
		       ece:   b538          push   {r3, r4, r5, lr}
		       ed0:   4604          mov    r4, r0
		--------------------
	(     ecc,      b8e)	ret
		--------------------
		       ec0:   f000 f87e     bl fc0 <nrf_fprintf_fmt>
		       ec4:   b002          add    sp, #8
		       ec6:   f85d eb04     ldr.w  lr, [sp], #4
		       eca:   b003          add    sp, #12
		->     ecc:   4770          bx lr
		  
		  00000ece <buffer_add>:
		       ece:   b538          push   {r3, r4, r5, lr}
		       ed0:   4604          mov    r4, r0
		--------------------
	(     ecc,      c88)	ret
		--------------------
		       ec0:   f000 f87e     bl fc0 <nrf_fprintf_fmt>
		       ec4:   b002          add    sp, #8
		       ec6:   f85d eb04     ldr.w  lr, [sp], #4
		       eca:   b003          add    sp, #12
		->     ecc:   4770          bx lr
		  
		  00000ece <buffer_add>:
		       ece:   b538          push   {r3, r4, r5, lr}
		       ed0:   4604          mov    r4, r0
		--------------------
	(     eea,      fb4)	ret
		--------------------
		       ee2:   68a2          ldr    r2, [r4, #8]
		       ee4:   6863          ldr    r3, [r4, #4]
		       ee6:   429a          cmp    r2, r3
		       ee8:   d204          bcs.n  ef4 <buffer_add+0x26>
		->     eea:   bd38          pop    {r3, r4, r5, pc}
		       eec:   210d          movs   r1, #13
		       eee:   f7ff ffee     bl ece <buffer_add>
		       ef2:   e7f1          b.n    ed8 <buffer_add+0xa>
		       ef4:   4620          mov    r0, r4
		--------------------
	(     eea,     11d0)	ret
		--------------------
		       ee2:   68a2          ldr    r2, [r4, #8]
		       ee4:   6863          ldr    r3, [r4, #4]
		       ee6:   429a          cmp    r2, r3
		       ee8:   d204          bcs.n  ef4 <buffer_add+0x26>
		->     eea:   bd38          pop    {r3, r4, r5, pc}
		       eec:   210d          movs   r1, #13
		       eee:   f7ff ffee     bl ece <buffer_add>
		       ef2:   e7f1          b.n    ed8 <buffer_add+0xa>
		       ef4:   4620          mov    r0, r4
		--------------------
	(     eea,     12d4)	ret
		--------------------
		       ee2:   68a2          ldr    r2, [r4, #8]
		       ee4:   6863          ldr    r3, [r4, #4]
		       ee6:   429a          cmp    r2, r3
		       ee8:   d204          bcs.n  ef4 <buffer_add+0x26>
		->     eea:   bd38          pop    {r3, r4, r5, pc}
		       eec:   210d          movs   r1, #13
		       eee:   f7ff ffee     bl ece <buffer_add>
		       ef2:   e7f1          b.n    ed8 <buffer_add+0xa>
		       ef4:   4620          mov    r0, r4
		--------------------
	(    1394,     148c)	ret
		--------------------
		      138a:   4601          mov    r1, r0
		      138c:   4618          mov    r0, r3
		      138e:   f001 f82f     bl 23f0 <memcpy>
		      1392:   e7e9          b.n    1368 <memobj_op+0x54>
		->    1394:   e8bd 8ff8     ldmia.w    sp!, {r3, r4, r5, r6, r7, r8, r9, sl, fp, pc}
		  
		  00001398 <nrf_memobj_pool_init>:
		      1398:   b508          push   {r3, lr}
		      139a:   f7ff fd2b     bl df4 <nrf_balloc_init>
		--------------------
	(    145c,      802)	ret
		--------------------
		      1450:   3004          adds   r0, #4
		      1452:   f7ff fcba     bl dca <nrf_atomic_u32_sub>
		      1456:   f010 0fff     tst.w  r0, #255 ; 0xff
		      145a:   d000          beq.n  145e <nrf_memobj_put+0x14>
		->    145c:   bd10          pop    {r4, pc}
		      145e:   4620          mov    r0, r4
		      1460:   f7ff ff9e     bl 13a0 <nrf_memobj_free>
		      1464:   e7fa          b.n    145c <nrf_memobj_put+0x12>
		  
		--------------------
	(    1478,      720)	ret
		--------------------
		      146e:   9200          str    r2, [sp, #0]
		      1470:   aa03          add    r2, sp, #12
		      1472:   f7ff ff4f     bl 1314 <memobj_op>
		      1476:   b005          add    sp, #20
		->    1478:   f85d fb04     ldr.w  pc, [sp], #4
		  
		  0000147c <nrf_memobj_read>:
		      147c:   b500          push   {lr}
		      147e:   b085          sub    sp, #20
		--------------------
	(    1664,     1668)	
		--------------------
		      1658:   f040 80c3     bne.w  17e2 <SAADC_IRQHandler+0x1be>
		      165c:   4b6b          ldr    r3, [pc, #428] ; (180c <SAADC_IRQHandler+0x1e8>)
		      165e:   f8d3 3100     ldr.w  r3, [r3, #256]   ; 0x100
		      1662:   2b00          cmp    r3, #0
		->    1664:   f000 8098     beq.w  1798 <SAADC_IRQHandler+0x174>
		      1668:   4b68          ldr    r3, [pc, #416] ; (180c <SAADC_IRQHandler+0x1e8>)
		      166a:   2200          movs   r2, #0
		      166c:   f8c3 2100     str.w  r2, [r3, #256]   ; 0x100
		      1670:   f8d3 3100     ldr.w  r3, [r3, #256]   ; 0x100
		--------------------
	(    179e,     17a0)	
		--------------------
		      1792:   2b00          cmp    r3, #0
		      1794:   f47f af62     bne.w  165c <SAADC_IRQHandler+0x38>
		      1798:   4b1c          ldr    r3, [pc, #112] ; (180c <SAADC_IRQHandler+0x1e8>)
		      179a:   f8d3 3110     ldr.w  r3, [r3, #272]   ; 0x110
		->    179e:   b17b          cbz    r3, 17c0 <SAADC_IRQHandler+0x19c>
		      17a0:   4b1a          ldr    r3, [pc, #104] ; (180c <SAADC_IRQHandler+0x1e8>)
		      17a2:   2200          movs   r2, #0
		      17a4:   f8c3 2110     str.w  r2, [r3, #272]   ; 0x110
		      17a8:   f8d3 3110     ldr.w  r3, [r3, #272]   ; 0x110
		--------------------
	(    2592,     2594)	nop
		--------------------
		      258c:   20000998  .word   0x20000998
		  
		  00002590 <_exit>:
		      2590:   e7fe          b.n    2590 <_exit>
		->    2592:   bf00          nop
		  
		  00002594 <_init>:
		      2594:   b5f8          push   {r3, r4, r5, r6, r7, lr}
		      2596:   bf00          nop
		--------------------

saadc-o2: 20 | 168 | 13 ret | 5 nop
	(     366,      368)	nop
		--------------------
		       360:   20000034  .word   0x20000034
		  
		  00000364 <nrf_log_backend_rtt_panic_set>:
		       364:   4770          bx lr
		->     366:   bf00          nop
		  
		  00000368 <nrf_log_backend_rtt_init>:
		       368:   f001 bf2a     b.w    21c0 <SEGGER_RTT_Init>
		  
		--------------------
	(     740,      998)	ret
		--------------------
		       738:   441d          add    r5, r3
		       73a:   e79a          b.n    672 <nrf_log_frontend_dequeue+0x46>
		       73c:   60a6          str    r6, [r4, #8]
		       73e:   b005          add    sp, #20
		->     740:   e8bd 83f0     ldmia.w    sp!, {r4, r5, r6, r7, r8, r9, pc}
		       744:   2000          movs   r0, #0
		       746:   b005          add    sp, #20
		       748:   e8bd 83f0     ldmia.w    sp!, {r4, r5, r6, r7, r8, r9, pc}
		       74c:   f8bd 3006     ldrh.w r3, [sp, #6]
		--------------------
	(     d48,      e48)	ret
		--------------------
		       d40:   3b01          subs   r3, #1
		       d42:   6013          str    r3, [r2, #0]
		       d44:   b903          cbnz   r3, d48 <app_util_critical_region_exit+0xc>
		       d46:   b662          cpsie  i
		->     d48:   4770          bx lr
		       d4a:   bf00          nop
		       d4c:   20000600  .word   0x20000600
		  
		  00000d50 <nrf_atomic_u32_fetch_store>:
		--------------------
	(     e8c,      fde)	ret
		--------------------
		       e84:   6900          ldr    r0, [r0, #16]
		       e86:   4798          blx    r3
		       e88:   2300          movs   r3, #0
		       e8a:   60a3          str    r3, [r4, #8]
		->     e8c:   bd10          pop    {r4, pc}
		       e8e:   4770          bx lr
		  
		  00000e90 <nrf_fprintf>:
		       e90:   b40e          push   {r1, r2, r3}
		--------------------
	(     e8c,     13a4)	ret
		--------------------
		       e84:   6900          ldr    r0, [r0, #16]
		       e86:   4798          blx    r3
		       e88:   2300          movs   r3, #0
		       e8a:   60a3          str    r3, [r4, #8]
		->     e8c:   bd10          pop    {r4, pc}
		       e8e:   4770          bx lr
		  
		  00000e90 <nrf_fprintf>:
		       e90:   b40e          push   {r1, r2, r3}
		--------------------
	(     e8e,     113c)	ret
		--------------------
		       e86:   4798          blx    r3
		       e88:   2300          movs   r3, #0
		       e8a:   60a3          str    r3, [r4, #8]
		       e8c:   bd10          pop    {r4, pc}
		->     e8e:   4770          bx lr
		  
		  00000e90 <nrf_fprintf>:
		       e90:   b40e          push   {r1, r2, r3}
		       e92:   b500          push   {lr}
		--------------------
	(     e8e,     130e)	ret
		--------------------
		       e86:   4798          blx    r3
		       e88:   2300          movs   r3, #0
		       e8a:   60a3          str    r3, [r4, #8]
		       e8c:   bd10          pop    {r4, pc}
		->     e8e:   4770          bx lr
		  
		  00000e90 <nrf_fprintf>:
		       e90:   b40e          push   {r1, r2, r3}
		       e92:   b500          push   {lr}
		--------------------
	(     eac,      c42)	ret
		--------------------
		       ea0:   f000 f8ae     bl 1000 <nrf_fprintf_fmt>
		       ea4:   b002          add    sp, #8
		       ea6:   f85d eb04     ldr.w  lr, [sp], #4
		       eaa:   b003          add    sp, #12
		->     eac:   4770          bx lr
		       eae:   bf00          nop
		  
		  00000eb0 <unsigned_print>:
		       eb0:   e92d 4ff0     stmdb  sp!, {r4, r5, r6, r7, r8, r9, sl, fp, lr}
		--------------------
	(     f7e,     1288)	ret
		--------------------
		       f74:   d214          bcs.n  fa0 <unsigned_print+0xf0>
		       f76:   f1b9 0f00     cmp.w  r9, #0
		       f7a:   d1ef          bne.n  f5c <unsigned_print+0xac>
		       f7c:   b003          add    sp, #12
		->     f7e:   e8bd 8ff0     ldmia.w    sp!, {r4, r5, r6, r7, r8, r9, sl, fp, pc}
		       f82:   1c51          adds   r1, r2, #1
		       f84:   682b          ldr    r3, [r5, #0]
		       f86:   60a9          str    r1, [r5, #8]
		       f88:   f04f 010d     mov.w  r1, #13
		--------------------
	(    168e,     1690)	nop
		--------------------
		      1684:   9403          str    r4, [sp, #12]
		      1686:   f7ff ff2d     bl 14e4 <memobj_op>
		      168a:   b005          add    sp, #20
		      168c:   bd30          pop    {r4, r5, pc}
		->    168e:   bf00          nop
		  
		  00001690 <nrf_pwr_mgmt_init>:
		      1690:   4a06          ldr    r2, [pc, #24]  ; (16ac <nrf_pwr_mgmt_init+0x1c>)
		      1692:   4b07          ldr    r3, [pc, #28]  ; (16b0 <nrf_pwr_mgmt_init+0x20>)
		--------------------
	(    171e,     1720)	nop
		--------------------
		      1716:   bf08          it eq
		      1718:   2300          moveq  r3, #0
		      171a:   6043          str    r3, [r0, #4]
		      171c:   4770          bx lr
		->    171e:   bf00          nop
		  
		  00001720 <nrf_drv_ppi_init>:
		      1720:   4b03          ldr    r3, [pc, #12]  ; (1730 <nrf_drv_ppi_init+0x10>)
		      1722:   7818          ldrb   r0, [r3, #0]
		--------------------
	(    187e,     1880)	
		--------------------
		      1872:   f897 302e     ldrb.w r3, [r7, #46]   ; 0x2e
		      1876:   bb23          cbnz   r3, 18c2 <SAADC_IRQHandler+0xa6>
		      1878:   4b51          ldr    r3, [pc, #324] ; (19c0 <SAADC_IRQHandler+0x1a4>)
		      187a:   f8d3 2110     ldr.w  r2, [r3, #272]   ; 0x110
		->    187e:   b16a          cbz    r2, 189c <SAADC_IRQHandler+0x80>
		      1880:   2200          movs   r2, #0
		      1882:   f8c3 2110     str.w  r2, [r3, #272]   ; 0x110
		      1886:   f8d3 3110     ldr.w  r3, [r3, #272]   ; 0x110
		      188a:   9303          str    r3, [sp, #12]
		--------------------
	(    1bd2,     1fb2)	ret
		--------------------
		      1bca:   6015          str    r5, [r2, #0]
		      1bcc:   4620          mov    r0, r4
		      1bce:   b003          add    sp, #12
		      1bd0:   bc70          pop    {r4, r5, r6}
		->    1bd2:   4770          bx lr
		      1bd4:   8359          strh   r1, [r3, #26]
		      1bd6:   f893 302d     ldrb.w r3, [r3, #45]   ; 0x2d
		      1bda:   f8c2 3630     str.w  r3, [r2, #1584]  ; 0x630
		      1bde:   4630          mov    r0, r6
		--------------------
	(    1be4,     1e3c)	ret
		--------------------
		      1bda:   f8c2 3630     str.w  r3, [r2, #1584]  ; 0x630
		      1bde:   4630          mov    r0, r6
		      1be0:   b003          add    sp, #12
		      1be2:   bc70          pop    {r4, r5, r6}
		->    1be4:   4770          bx lr
		      1be6:   68dc          ldr    r4, [r3, #12]
		      1be8:   b134          cbz    r4, 1bf8 <nrfx_saadc_buffer_convert+0x78>
		      1bea:   2302          movs   r3, #2
		      1bec:   2011          movs   r0, #17
		--------------------
	(    1c3c,     1fa2)	ret
		--------------------
		      1c32:   2011          movs   r0, #17
		      1c34:   f8c2 4304     str.w  r4, [r2, #772]   ; 0x304
		      1c38:   b003          add    sp, #12
		      1c3a:   bc70          pop    {r4, r5, r6}
		->    1c3c:   4770          bx lr
		      1c3e:   bf00          nop
		      1c40:   40007000  .word   0x40007000
		      1c44:   20000624  .word   0x20000624
		  
		--------------------
	(    1e26,     1e28)	nop
		--------------------
		      1e20:   20000654  .word   0x20000654
		  
		  00001e24 <timer_handler>:
		      1e24:   4770          bx lr
		->    1e26:   bf00          nop
		  
		  00001e28 <saadc_callback>:
		      1e28:   7803          ldrb   r3, [r0, #0]
		      1e2a:   b103          cbz    r3, 1e2e <saadc_callback+0x6>
		--------------------
	(    2050,     218a)	ret
		--------------------
		      2046:   18b5          adds   r5, r6, r2
		      2048:   4430          add    r0, r6
		      204a:   f000 faeb     bl 2624 <memcpy>
		      204e:   60e5          str    r5, [r4, #12]
		->    2050:   e8bd 83f8     ldmia.w    sp!, {r3, r4, r5, r6, r7, r8, r9, pc}
		      2054:   6840          ldr    r0, [r0, #4]
		      2056:   464a          mov    r2, r9
		      2058:   4430          add    r0, r6
		      205a:   4688          mov    r8, r1
		--------------------
	(    2072,     218a)	ret
		--------------------
		      2066:   462a          mov    r2, r5
		      2068:   eb08 0109     add.w  r1, r8, r9
		      206c:   f000 fada     bl 2624 <memcpy>
		      2070:   60e5          str    r5, [r4, #12]
		->    2072:   e8bd 83f8     ldmia.w    sp!, {r3, r4, r5, r6, r7, r8, r9, pc}
		      2076:   bf00          nop
		  
		  00002078 <_WriteBlocking>:
		      2078:   e92d 43f8     stmdb  sp!, {r3, r4, r5, r6, r7, r8, r9, lr}
		--------------------
	(    2076,     2078)	nop
		--------------------
		      2068:   eb08 0109     add.w  r1, r8, r9
		      206c:   f000 fada     bl 2624 <memcpy>
		      2070:   60e5          str    r5, [r4, #12]
		      2072:   e8bd 83f8     ldmia.w    sp!, {r3, r4, r5, r6, r7, r8, r9, pc}
		->    2076:   bf00          nop
		  
		  00002078 <_WriteBlocking>:
		      2078:   e92d 43f8     stmdb  sp!, {r3, r4, r5, r6, r7, r8, r9, lr}
		      207c:   4606          mov    r6, r0
		--------------------
	(    2488,     21fe)	
		--------------------
		      247e:   f43f aebe     beq.w  21fe <SystemInit+0x3a>
		      2482:   4b17          ldr    r3, [pc, #92]  ; (24e0 <SystemInit+0x31c>)
		      2484:   4a17          ldr    r2, [pc, #92]  ; (24e4 <SystemInit+0x320>)
		      2486:   675a          str    r2, [r3, #116] ; 0x74
		->    2488:   e6b9          b.n    21fe <SystemInit+0x3a>
		      248a:   4a17          ldr    r2, [pc, #92]  ; (24e8 <SystemInit+0x324>)
		      248c:   5cd3          ldrb   r3, [r2, r3]
		      248e:   2b00          cmp    r3, #0
		      2490:   f43f af08     beq.w  22a4 <SystemInit+0xe0>
		--------------------

saadc-o3: 20 | 168 | 19 ret | 1 nop
	(     686,      8b2)	ret
		--------------------
		       67e:   1ac0          subs   r0, r0, r3
		       680:   bf18          it ne
		       682:   2001          movne  r0, #1
		       684:   b005          add    sp, #20
		->     686:   e8bd 83f0     ldmia.w    sp!, {r4, r5, r6, r7, r8, r9, pc}
		       68a:   880b          ldrh   r3, [r1, #0]
		       68c:   3502          adds   r5, #2
		       68e:   f3c3 1383     ubfx   r3, r3, #6, #4
		       692:   441d          add    r5, r3
		--------------------
	(     69a,      976)	ret
		--------------------
		       692:   441d          add    r5, r3
		       694:   e7bc          b.n    610 <nrf_log_frontend_dequeue+0x44>
		       696:   60a6          str    r6, [r4, #8]
		       698:   b005          add    sp, #20
		->     69a:   e8bd 83f0     ldmia.w    sp!, {r4, r5, r6, r7, r8, r9, pc}
		       69e:   2000          movs   r0, #0
		       6a0:   b005          add    sp, #20
		       6a2:   e8bd 83f0     ldmia.w    sp!, {r4, r5, r6, r7, r8, r9, pc}
		       6a6:   f8bd 3006     ldrh.w r3, [sp, #6]
		--------------------
	(     ca2,      ca4)	nop
		--------------------
		       c96:   9303          str    r3, [sp, #12]
		       c98:   f000 f804     bl ca4 <app_error_fault_handler>
		       c9c:   b005          add    sp, #20
		       c9e:   f85d fb04     ldr.w  pc, [sp], #4
		->     ca2:   bf00          nop
		  
		  00000ca4 <app_error_fault_handler>:
		       ca4:   b510          push   {r4, lr}
		       ca6:   b672          cpsid  i
		--------------------
	(     d2c,      922)	ret
		--------------------
		       d24:   3b01          subs   r3, #1
		       d26:   6013          str    r3, [r2, #0]
		       d28:   b903          cbnz   r3, d2c <app_util_critical_region_exit+0xc>
		       d2a:   b662          cpsie  i
		->     d2c:   4770          bx lr
		       d2e:   bf00          nop
		       d30:   20000600  .word   0x20000600
		  
		  00000d34 <nrf_atomic_u32_fetch_store>:
		--------------------
	(     d2c,      e2c)	ret
		--------------------
		       d24:   3b01          subs   r3, #1
		       d26:   6013          str    r3, [r2, #0]
		       d28:   b903          cbnz   r3, d2c <app_util_critical_region_exit+0xc>
		       d2a:   b662          cpsie  i
		->     d2c:   4770          bx lr
		       d2e:   bf00          nop
		       d30:   20000600  .word   0x20000600
		  
		  00000d34 <nrf_atomic_u32_fetch_store>:
		--------------------
	(     d2c,     17d8)	ret
		--------------------
		       d24:   3b01          subs   r3, #1
		       d26:   6013          str    r3, [r2, #0]
		       d28:   b903          cbnz   r3, d2c <app_util_critical_region_exit+0xc>
		       d2a:   b662          cpsie  i
		->     d2c:   4770          bx lr
		       d2e:   bf00          nop
		       d30:   20000600  .word   0x20000600
		  
		  00000d34 <nrf_atomic_u32_fetch_store>:
		--------------------
	(     e70,     1346)	ret
		--------------------
		       e68:   6900          ldr    r0, [r0, #16]
		       e6a:   4798          blx    r3
		       e6c:   2300          movs   r3, #0
		       e6e:   60a3          str    r3, [r4, #8]
		->     e70:   bd10          pop    {r4, pc}
		       e72:   4770          bx lr
		  
		  00000e74 <nrf_fprintf>:
		       e74:   b40e          push   {r1, r2, r3}
		--------------------
	(     e70,     1396)	ret
		--------------------
		       e68:   6900          ldr    r0, [r0, #16]
		       e6a:   4798          blx    r3
		       e6c:   2300          movs   r3, #0
		       e6e:   60a3          str    r3, [r4, #8]
		->     e70:   bd10          pop    {r4, pc}
		       e72:   4770          bx lr
		  
		  00000e74 <nrf_fprintf>:
		       e74:   b40e          push   {r1, r2, r3}
		--------------------
	(     e90,      b16)	ret
		--------------------
		       e84:   f000 f8b6     bl ff4 <nrf_fprintf_fmt>
		       e88:   b002          add    sp, #8
		       e8a:   f85d eb04     ldr.w  lr, [sp], #4
		       e8e:   b003          add    sp, #12
		->     e90:   4770          bx lr
		       e92:   bf00          nop
		  
		  00000e94 <unsigned_print>:
		       e94:   e92d 4ff0     stmdb  sp!, {r4, r5, r6, r7, r8, r9, sl, fp, lr}
		--------------------
	(     e90,      b42)	ret
		--------------------
		       e84:   f000 f8b6     bl ff4 <nrf_fprintf_fmt>
		       e88:   b002          add    sp, #8
		       e8a:   f85d eb04     ldr.w  lr, [sp], #4
		       e8e:   b003          add    sp, #12
		->     e90:   4770          bx lr
		       e92:   bf00          nop
		  
		  00000e94 <unsigned_print>:
		       e94:   e92d 4ff0     stmdb  sp!, {r4, r5, r6, r7, r8, r9, sl, fp, lr}
		--------------------
	(    1608,      74a)	ret
		--------------------
		      15fc:   3004          adds   r0, #4
		      15fe:   f7ff fbaf     bl d60 <nrf_atomic_u32_sub>
		      1602:   f010 03ff     ands.w r3, r0, #255    ; 0xff
		      1606:   d001          beq.n  160c <nrf_memobj_put+0x18>
		->    1608:   e8bd 81f0     ldmia.w    sp!, {r4, r5, r6, r7, r8, pc}
		      160c:   7967          ldrb   r7, [r4, #5]
		      160e:   1e79          subs   r1, r7, #1
		      1610:   d016          beq.n  1640 <nrf_memobj_put+0x4c>
		      1612:   4622          mov    r2, r4
		--------------------
	(    1608,      7e2)	ret
		--------------------
		      15fc:   3004          adds   r0, #4
		      15fe:   f7ff fbaf     bl d60 <nrf_atomic_u32_sub>
		      1602:   f010 03ff     ands.w r3, r0, #255    ; 0xff
		      1606:   d001          beq.n  160c <nrf_memobj_put+0x18>
		->    1608:   e8bd 81f0     ldmia.w    sp!, {r4, r5, r6, r7, r8, pc}
		      160c:   7967          ldrb   r7, [r4, #5]
		      160e:   1e79          subs   r1, r7, #1
		      1610:   d016          beq.n  1640 <nrf_memobj_put+0x4c>
		      1612:   4622          mov    r2, r4
		--------------------
	(    16b0,      714)	ret
		--------------------
		      16a8:   bf28          it cs
		      16aa:   462e          movcs  r6, r5
		      16ac:   2d00          cmp    r5, #0
		      16ae:   d1ed          bne.n  168c <nrf_memobj_write+0x40>
		->    16b0:   e8bd 83f8     ldmia.w    sp!, {r3, r4, r5, r6, r7, r8, r9, pc}
		  
		  000016b4 <nrf_memobj_read>:
		      16b4:   e92d 43f8     stmdb  sp!, {r3, r4, r5, r6, r7, r8, r9, lr}
		      16b8:   4604          mov    r4, r0
		--------------------
	(    16b0,      7c4)	ret
		--------------------
		      16a8:   bf28          it cs
		      16aa:   462e          movcs  r6, r5
		      16ac:   2d00          cmp    r5, #0
		      16ae:   d1ed          bne.n  168c <nrf_memobj_write+0x40>
		->    16b0:   e8bd 83f8     ldmia.w    sp!, {r3, r4, r5, r6, r7, r8, r9, pc}
		  
		  000016b4 <nrf_memobj_read>:
		      16b4:   e92d 43f8     stmdb  sp!, {r3, r4, r5, r6, r7, r8, r9, lr}
		      16b8:   4604          mov    r4, r0
		--------------------
	(    1c7e,     202a)	ret
		--------------------
		      1c74:   2011          movs   r0, #17
		      1c76:   f8c2 3304     str.w  r3, [r2, #772]   ; 0x304
		      1c7a:   b003          add    sp, #12
		      1c7c:   bc70          pop    {r4, r5, r6}
		->    1c7e:   4770          bx lr
		      1c80:   f893 402e     ldrb.w r4, [r3, #46]   ; 0x2e
		      1c84:   60d8          str    r0, [r3, #12]
		      1c86:   8319          strh   r1, [r3, #24]
		      1c88:   b13c          cbz    r4, 1c9a <nrfx_saadc_buffer_convert+0x92>
		--------------------
	(    1c98,     203a)	ret
		--------------------
		      1c8e:   2000          movs   r0, #0
		      1c90:   f8c3 2304     str.w  r2, [r3, #772]   ; 0x304
		      1c94:   b003          add    sp, #12
		      1c96:   bc70          pop    {r4, r5, r6}
		->    1c98:   4770          bx lr
		      1c9a:   f8d2 3100     ldr.w  r3, [r2, #256]   ; 0x100
		      1c9e:   2b00          cmp    r3, #0
		      1ca0:   d0fb          beq.n  1c9a <nrfx_saadc_buffer_convert+0x92>
		      1ca2:   2300          movs   r3, #0
		--------------------
	(    1cc4,     202a)	ret
		--------------------
		      1cba:   2011          movs   r0, #17
		      1cbc:   f8c2 4304     str.w  r4, [r2, #772]   ; 0x304
		      1cc0:   b003          add    sp, #12
		      1cc2:   bc70          pop    {r4, r5, r6}
		->    1cc4:   4770          bx lr
		      1cc6:   bf00          nop
		      1cc8:   40007000  .word   0x40007000
		      1ccc:   20000624  .word   0x20000624
		  
		--------------------
	(    272a,     216c)	ret
		--------------------
		      2720:   440a          add    r2, r1
		      2722:   4291          cmp    r1, r2
		      2724:   f100 33ff     add.w  r3, r0, #4294967295  ; 0xffffffff
		      2728:   d100          bne.n  272c <memcpy+0xc>
		->    272a:   4770          bx lr
		      272c:   b510          push   {r4, lr}
		      272e:   f811 4b01     ldrb.w r4, [r1], #1
		      2732:   f803 4f01     strb.w r4, [r3, #1]!
		      2736:   4291          cmp    r1, r2
		--------------------
	(    273a,     21b0)	ret
		--------------------
		      272e:   f811 4b01     ldrb.w r4, [r1], #1
		      2732:   f803 4f01     strb.w r4, [r3, #1]!
		      2736:   4291          cmp    r1, r2
		      2738:   d1f9          bne.n  272e <memcpy+0xe>
		->    273a:   bd10          pop    {r4, pc}
		  
		  0000273c <strlen>:
		      273c:   4603          mov    r3, r0
		      273e:   f813 2b01     ldrb.w r2, [r3], #1
		--------------------
	(    273a,     2258)	ret
		--------------------
		      272e:   f811 4b01     ldrb.w r4, [r1], #1
		      2732:   f803 4f01     strb.w r4, [r3, #1]!
		      2736:   4291          cmp    r1, r2
		      2738:   d1f9          bne.n  272e <memcpy+0xe>
		->    273a:   bd10          pop    {r4, pc}
		  
		  0000273c <strlen>:
		      273c:   4603          mov    r3, r0
		      273e:   f813 2b01     ldrb.w r2, [r3], #1
		--------------------

simple_timer-o0: 20 | 111 | 17 jt | 3 ret
	(     4be,     1462)	ret
		--------------------
		       4b4:   f7ff ffc3     bl 43e <nrf_gpio_pin_write>
		       4b8:   bf00          nop
		       4ba:   3708          adds   r7, #8
		       4bc:   46bd          mov    sp, r7
		->     4be:   bd80          pop    {r7, pc}
		       4c0:   00001fd8  .word   0x00001fd8
		  
		  000004c4 <bsp_board_led_off>:
		       4c4:   b580          push   {r7, lr}
		--------------------
	(     794,      6fa)	ret
		--------------------
		       78c:   2202          movs   r2, #2
		       78e:   701a          strb   r2, [r3, #0]
		       790:   2300          movs   r3, #0
		       792:   4618          mov    r0, r3
		->     794:   bd80          pop    {r7, pc}
		       796:   bf00          nop
		       798:   20000038  .word   0x20000038
		       79c:   00001fe0  .word   0x00001fe0
		  
		--------------------
	(    1358,     138e)	ret
		--------------------
		      134e:   f7ff f93f     bl 5d0 <app_error_handler_bare>
		      1352:   bf00          nop
		      1354:   3710          adds   r7, #16
		      1356:   46bd          mov    sp, r7
		->    1358:   bd80          pop    {r7, pc}
		      135a:   bf00          nop
		      135c:   200000b0  .word   0x200000b0
		      1360:   200000b4  .word   0x200000b4
		      1364:   000013c9  .word   0x000013c9
		--------------------
	(    159a,     15ae)	jt
		--------------------
		      158c:   0000159d  .word   0x0000159d
		      1590:   000015a1  .word   0x000015a1
		      1594:   000015a5  .word   0x000015a5
		      1598:   2301          movs   r3, #1
		->    159a:   e008          b.n    15ae <nrf52_errata_12+0x6e>
		      159c:   2301          movs   r3, #1
		      159e:   e006          b.n    15ae <nrf52_errata_12+0x6e>
		      15a0:   2301          movs   r3, #1
		      15a2:   e004          b.n    15ae <nrf52_errata_12+0x6e>
		--------------------
	(    1692,     16a6)	jt
		--------------------
		      1684:   00001695  .word   0x00001695
		      1688:   00001699  .word   0x00001699
		      168c:   0000169d  .word   0x0000169d
		      1690:   2301          movs   r3, #1
		->    1692:   e008          b.n    16a6 <nrf52_errata_31+0x6e>
		      1694:   2301          movs   r3, #1
		      1696:   e006          b.n    16a6 <nrf52_errata_31+0x6e>
		      1698:   2301          movs   r3, #1
		      169a:   e004          b.n    16a6 <nrf52_errata_31+0x6e>
		--------------------
	(    16ee,     1710)	jt
		--------------------
		      16e6:   3b03          subs   r3, #3
		      16e8:   2b03          cmp    r3, #3
		      16ea:   d813          bhi.n  1714 <nrf52_errata_32+0x50>
		      16ec:   a201          add    r2, pc, #4 ; (adr r2, 16f4 <nrf52_errata_32+0x30>)
		->    16ee:   f852 f023     ldr.w  pc, [r2, r3, lsl #2]
		      16f2:   bf00          nop
		      16f4:   00001705  .word   0x00001705
		      16f8:   00001709  .word   0x00001709
		      16fc:   0000170d  .word   0x0000170d
		--------------------
	(    1712,     171a)	jt
		--------------------
		      170a:   e006          b.n    171a <nrf52_errata_32+0x56>
		      170c:   2300          movs   r3, #0
		      170e:   e004          b.n    171a <nrf52_errata_32+0x56>
		      1710:   2300          movs   r3, #0
		->    1712:   e002          b.n    171a <nrf52_errata_32+0x56>
		      1714:   2300          movs   r3, #0
		      1716:   e000          b.n    171a <nrf52_errata_32+0x56>
		      1718:   2300          movs   r3, #0
		      171a:   4618          mov    r0, r3
		--------------------
	(    1772,     1790)	jt
		--------------------
		      176a:   3b03          subs   r3, #3
		      176c:   2b03          cmp    r3, #3
		      176e:   d813          bhi.n  1798 <nrf52_errata_36+0x68>
		      1770:   a201          add    r2, pc, #4 ; (adr r2, 1778 <nrf52_errata_36+0x48>)
		->    1772:   f852 f023     ldr.w  pc, [r2, r3, lsl #2]
		      1776:   bf00          nop
		      1778:   00001789  .word   0x00001789
		      177c:   0000178d  .word   0x0000178d
		      1780:   00001791  .word   0x00001791
		--------------------
	(    178a,     179e)	jt
		--------------------
		      177c:   0000178d  .word   0x0000178d
		      1780:   00001791  .word   0x00001791
		      1784:   00001795  .word   0x00001795
		      1788:   2301          movs   r3, #1
		->    178a:   e008          b.n    179e <nrf52_errata_36+0x6e>
		      178c:   2301          movs   r3, #1
		      178e:   e006          b.n    179e <nrf52_errata_36+0x6e>
		      1790:   2301          movs   r3, #1
		      1792:   e004          b.n    179e <nrf52_errata_36+0x6e>
		--------------------
	(    1792,     179e)	jt
		--------------------
		      178a:   e008          b.n    179e <nrf52_errata_36+0x6e>
		      178c:   2301          movs   r3, #1
		      178e:   e006          b.n    179e <nrf52_errata_36+0x6e>
		      1790:   2301          movs   r3, #1
		->    1792:   e004          b.n    179e <nrf52_errata_36+0x6e>
		      1794:   2301          movs   r3, #1
		      1796:   e002          b.n    179e <nrf52_errata_36+0x6e>
		      1798:   2301          movs   r3, #1
		      179a:   e000          b.n    179e <nrf52_errata_36+0x6e>
		--------------------
	(    17e6,     1800)	jt
		--------------------
		      17de:   3b03          subs   r3, #3
		      17e0:   2b03          cmp    r3, #3
		      17e2:   d813          bhi.n  180c <nrf52_errata_37+0x50>
		      17e4:   a201          add    r2, pc, #4 ; (adr r2, 17ec <nrf52_errata_37+0x30>)
		->    17e6:   f852 f023     ldr.w  pc, [r2, r3, lsl #2]
		      17ea:   bf00          nop
		      17ec:   000017fd  .word   0x000017fd
		      17f0:   00001801  .word   0x00001801
		      17f4:   00001805  .word   0x00001805
		--------------------
	(    1806,     1812)	jt
		--------------------
		      17fe:   e008          b.n    1812 <nrf52_errata_37+0x56>
		      1800:   2300          movs   r3, #0
		      1802:   e006          b.n    1812 <nrf52_errata_37+0x56>
		      1804:   2300          movs   r3, #0
		->    1806:   e004          b.n    1812 <nrf52_errata_37+0x56>
		      1808:   2300          movs   r3, #0
		      180a:   e002          b.n    1812 <nrf52_errata_37+0x56>
		      180c:   2300          movs   r3, #0
		      180e:   e000          b.n    1812 <nrf52_errata_37+0x56>
		--------------------
	(    1852,     186c)	jt
		--------------------
		      184a:   3b03          subs   r3, #3
		      184c:   2b03          cmp    r3, #3
		      184e:   d813          bhi.n  1878 <nrf52_errata_57+0x50>
		      1850:   a201          add    r2, pc, #4 ; (adr r2, 1858 <nrf52_errata_57+0x30>)
		->    1852:   f852 f023     ldr.w  pc, [r2, r3, lsl #2]
		      1856:   bf00          nop
		      1858:   00001869  .word   0x00001869
		      185c:   0000186d  .word   0x0000186d
		      1860:   00001871  .word   0x00001871
		--------------------
	(    186a,     187e)	jt
		--------------------
		      185c:   0000186d  .word   0x0000186d
		      1860:   00001871  .word   0x00001871
		      1864:   00001875  .word   0x00001875
		      1868:   2301          movs   r3, #1
		->    186a:   e008          b.n    187e <nrf52_errata_57+0x56>
		      186c:   2300          movs   r3, #0
		      186e:   e006          b.n    187e <nrf52_errata_57+0x56>
		      1870:   2300          movs   r3, #0
		      1872:   e004          b.n    187e <nrf52_errata_57+0x56>
		--------------------
	(    18d6,     18f0)	jt
		--------------------
		      18ce:   3b03          subs   r3, #3
		      18d0:   2b03          cmp    r3, #3
		      18d2:   d813          bhi.n  18fc <nrf52_errata_66+0x68>
		      18d4:   a201          add    r2, pc, #4 ; (adr r2, 18dc <nrf52_errata_66+0x48>)
		->    18d6:   f852 f023     ldr.w  pc, [r2, r3, lsl #2]
		      18da:   bf00          nop
		      18dc:   000018ed  .word   0x000018ed
		      18e0:   000018f1  .word   0x000018f1
		      18e4:   000018f5  .word   0x000018f5
		--------------------
	(    18f6,     1902)	jt
		--------------------
		      18ee:   e008          b.n    1902 <nrf52_errata_66+0x6e>
		      18f0:   2300          movs   r3, #0
		      18f2:   e006          b.n    1902 <nrf52_errata_66+0x6e>
		      18f4:   2301          movs   r3, #1
		->    18f6:   e004          b.n    1902 <nrf52_errata_66+0x6e>
		      18f8:   2301          movs   r3, #1
		      18fa:   e002          b.n    1902 <nrf52_errata_66+0x6e>
		      18fc:   2301          movs   r3, #1
		      18fe:   e000          b.n    1902 <nrf52_errata_66+0x6e>
		--------------------
	(    1962,     197c)	jt
		--------------------
		      195a:   3b03          subs   r3, #3
		      195c:   2b03          cmp    r3, #3
		      195e:   d813          bhi.n  1988 <nrf52_errata_108+0x68>
		      1960:   a201          add    r2, pc, #4 ; (adr r2, 1968 <nrf52_errata_108+0x48>)
		->    1962:   f852 f023     ldr.w  pc, [r2, r3, lsl #2]
		      1966:   bf00          nop
		      1968:   00001979  .word   0x00001979
		      196c:   0000197d  .word   0x0000197d
		      1970:   00001981  .word   0x00001981
		--------------------
	(    197a,     198e)	jt
		--------------------
		      196c:   0000197d  .word   0x0000197d
		      1970:   00001981  .word   0x00001981
		      1974:   00001985  .word   0x00001985
		      1978:   2301          movs   r3, #1
		->    197a:   e008          b.n    198e <nrf52_errata_108+0x6e>
		      197c:   2301          movs   r3, #1
		      197e:   e006          b.n    198e <nrf52_errata_108+0x6e>
		      1980:   2301          movs   r3, #1
		      1982:   e004          b.n    198e <nrf52_errata_108+0x6e>
		--------------------
	(    197e,     198e)	jt
		--------------------
		      1974:   00001985  .word   0x00001985
		      1978:   2301          movs   r3, #1
		      197a:   e008          b.n    198e <nrf52_errata_108+0x6e>
		      197c:   2301          movs   r3, #1
		->    197e:   e006          b.n    198e <nrf52_errata_108+0x6e>
		      1980:   2301          movs   r3, #1
		      1982:   e004          b.n    198e <nrf52_errata_108+0x6e>
		      1984:   2301          movs   r3, #1
		      1986:   e002          b.n    198e <nrf52_errata_108+0x6e>
		--------------------
	(    1a72,     1a86)	jt
		--------------------
		      1a64:   00001a75  .word   0x00001a75
		      1a68:   00001a79  .word   0x00001a79
		      1a6c:   00001a7d  .word   0x00001a7d
		      1a70:   2300          movs   r3, #0
		->    1a72:   e008          b.n    1a86 <nrf52_errata_182+0x4e>
		      1a74:   2300          movs   r3, #0
		      1a76:   e006          b.n    1a86 <nrf52_errata_182+0x4e>
		      1a78:   2300          movs   r3, #0
		      1a7a:   e004          b.n    1a86 <nrf52_errata_182+0x4e>
		--------------------

simple_timer-o1: 11 | 11 | 7 ret | 2 nop
	(     246,      248)	nop
		--------------------
		  
		  00000240 <_stack_init>:
		       240:   f5a3 3a80     sub.w  sl, r3, #65536   ; 0x10000
		       244:   4770          bx lr
		->     246:   bf00          nop
		  
		  00000248 <_mainCRTStartup>:
		       248:   4b15          ldr    r3, [pc, #84]  ; (2a0 <_mainCRTStartup+0x58>)
		       24a:   2b00          cmp    r3, #0
		--------------------
	(     336,      9d2)	ret
		--------------------
		       32a:   2002          movs   r0, #2
		       32c:   f7ff ffea     bl 304 <bsp_board_led_off>
		       330:   2003          movs   r0, #3
		       332:   f7ff ffe7     bl 304 <bsp_board_led_off>
		->     336:   bd08          pop    {r3, pc}
		  
		  00000338 <bsp_board_led_invert>:
		       338:   f04f 41a0     mov.w  r1, #1342177280  ; 0x50000000
		       33c:   f8d1 3504     ldr.w  r3, [r1, #1284]  ; 0x504
		--------------------
	(     440,      4cc)	ret
		--------------------
		       438:   781b          ldrb   r3, [r3, #0]
		       43a:   2b03          cmp    r3, #3
		       43c:   d001          beq.n  442 <app_simple_timer_stop+0xe>
		       43e:   2000          movs   r0, #0
		->     440:   bd08          pop    {r3, pc}
		       442:   4804          ldr    r0, [pc, #16]  ; (454 <app_simple_timer_stop+0x20>)
		       444:   f000 f9b8     bl 7b8 <nrfx_timer_pause>
		       448:   4b01          ldr    r3, [pc, #4]   ; (450 <app_simple_timer_stop+0x1c>)
		       44a:   2202          movs   r2, #2
		--------------------
	(     4be,      93c)	ret
		--------------------
		       4b6:   2203          movs   r2, #3
		       4b8:   701a          strb   r2, [r3, #0]
		       4ba:   2000          movs   r0, #0
		       4bc:   b002          add    sp, #8
		->     4be:   e8bd 81f0     ldmia.w    sp!, {r4, r5, r6, r7, r8, pc}
		       4c2:   f04f 0801     mov.w  r8, #1
		       4c6:   e7d6          b.n    476 <app_simple_timer_start+0x1e>
		       4c8:   f7ff ffb4     bl 434 <app_simple_timer_stop>
		       4cc:   2800          cmp    r0, #0
		--------------------
	(     4e8,      93c)	ret
		--------------------
		       4de:   4809          ldr    r0, [pc, #36]  ; (504 <app_simple_timer_start+0xac>)
		       4e0:   f000 f966     bl 7b0 <nrfx_timer_resume>
		       4e4:   e7e6          b.n    4b4 <app_simple_timer_start+0x5c>
		       4e6:   200e          movs   r0, #14
		->     4e8:   4770          bx lr
		       4ea:   2007          movs   r0, #7
		       4ec:   e7e6          b.n    4bc <app_simple_timer_start+0x64>
		       4ee:   2008          movs   r0, #8
		       4f0:   e7e4          b.n    4bc <app_simple_timer_start+0x64>
		--------------------
	(     856,      858)	
		--------------------
		       84e:   2d04          cmp    r5, #4
		       850:   d016          beq.n  880 <TIMER1_IRQHandler+0x4c>
		       852:   6823          ldr    r3, [r4, #0]
		       854:   2b00          cmp    r3, #0
		->     856:   d0f8          beq.n  84a <TIMER1_IRQHandler+0x16>
		       858:   f8d7 3304     ldr.w  r3, [r7, #772]   ; 0x304
		       85c:   fa06 f105     lsl.w  r1, r6, r5
		       860:   4219          tst    r1, r3
		       862:   d0f2          beq.n  84a <TIMER1_IRQHandler+0x16>
		--------------------
	(     8b8,      8fa)	ret
		--------------------
		       8ae:   4906          ldr    r1, [pc, #24]  ; (8c8 <led_and_timer_control+0x34>)
		       8b0:   4620          mov    r0, r4
		       8b2:   f7ff fdd1     bl 458 <app_simple_timer_start>
		       8b6:   b900          cbnz   r0, 8ba <led_and_timer_control+0x26>
		->     8b8:   bd10          pop    {r4, pc}
		       8ba:   f7ff fd72     bl 3a2 <app_error_handler_bare>
		       8be:   e7fb          b.n    8b8 <led_and_timer_control+0x24>
		       8c0:   200000b0  .word   0x200000b0
		       8c4:   200000b4  .word   0x200000b4
		--------------------
	(     8f0,      95a)	ret
		--------------------
		       8e6:   e003          b.n    8f0 <state_machine_state_change+0x24>
		       8e8:   2100          movs   r1, #0
		       8ea:   4608          mov    r0, r1
		       8ec:   f7ff ffd2     bl 894 <led_and_timer_control>
		->     8f0:   bd08          pop    {r3, pc}
		       8f2:   2101          movs   r1, #1
		       8f4:   4608          mov    r0, r1
		       8f6:   f7ff ffcd     bl 894 <led_and_timer_control>
		       8fa:   e7f9          b.n    8f0 <state_machine_state_change+0x24>
		--------------------
	(     8f0,      9ae)	ret
		--------------------
		       8e6:   e003          b.n    8f0 <state_machine_state_change+0x24>
		       8e8:   2100          movs   r1, #0
		       8ea:   4608          mov    r0, r1
		       8ec:   f7ff ffd2     bl 894 <led_and_timer_control>
		->     8f0:   bd08          pop    {r3, pc}
		       8f2:   2101          movs   r1, #1
		       8f4:   4608          mov    r0, r1
		       8f6:   f7ff ffcd     bl 894 <led_and_timer_control>
		       8fa:   e7f9          b.n    8f0 <state_machine_state_change+0x24>
		--------------------
	(     b74,      a7c)	
		--------------------
		       b6c:   d186          bne.n  a7c <SystemInit+0x38>
		       b6e:   4b88          ldr    r3, [pc, #544] ; (d90 <SystemInit+0x34c>)
		       b70:   4a88          ldr    r2, [pc, #544] ; (d94 <SystemInit+0x350>)
		       b72:   675a          str    r2, [r3, #116] ; 0x74
		->     b74:   e782          b.n    a7c <SystemInit+0x38>
		       b76:   f04f 4370     mov.w  r3, #4026531840  ; 0xf0000000
		       b7a:   f8d3 3fe8     ldr.w  r3, [r3, #4072]  ; 0xfe8
		       b7e:   f3c3 1303     ubfx   r3, r3, #4, #4
		       b82:   2b03          cmp    r3, #3
		--------------------
	(     fd6,      fd8)	nop
		--------------------
		       fd0:   2000014c  .word   0x2000014c
		  
		  00000fd4 <_exit>:
		       fd4:   e7fe          b.n    fd4 <_exit>
		->     fd6:   bf00          nop
		  
		  00000fd8 <_init>:
		       fd8:   b5f8          push   {r3, r4, r5, r6, r7, lr}
		       fda:   bf00          nop
		--------------------

simple_timer-o2: 20 | 32 | 14 ret | 3 nop | 1 ft
	(     3d2,      3d4)	nop
		--------------------
		       3c6:   9303          str    r3, [sp, #12]
		       3c8:   f000 fb1a     bl a00 <app_error_fault_handler>
		       3cc:   b005          add    sp, #20
		       3ce:   f85d fb04     ldr.w  pc, [sp], #4
		->     3d2:   bf00          nop
		  
		  000003d4 <app_simple_timer_event_handler>:
		       3d4:   f5b0 7fa0     cmp.w  r0, #320 ; 0x140
		       3d8:   d000          beq.n  3dc <app_simple_timer_event_handler+0x8>
		--------------------
	(     492,      8f0)	ret
		--------------------
		       48a:   2303          movs   r3, #3
		       48c:   2000          movs   r0, #0
		       48e:   703b          strb   r3, [r7, #0]
		       490:   b003          add    sp, #12
		->     492:   e8bd 83f0     ldmia.w    sp!, {r4, r5, r6, r7, r8, r9, pc}
		       496:   4f0d          ldr    r7, [pc, #52]  ; (4cc <app_simple_timer_start+0x94>)
		       498:   7839          ldrb   r1, [r7, #0]
		       49a:   4680          mov    r8, r0
		       49c:   2900          cmp    r1, #0
		--------------------
	(     4a4,      8f0)	ret
		--------------------
		       49c:   2900          cmp    r1, #0
		       49e:   d1dc          bne.n  45a <app_simple_timer_start+0x22>
		       4a0:   2008          movs   r0, #8
		       4a2:   b003          add    sp, #12
		->     4a4:   e8bd 83f0     ldmia.w    sp!, {r4, r5, r6, r7, r8, r9, pc}
		       4a8:   f000 f98c     bl 7c4 <nrfx_timer_resume>
		       4ac:   e7ed          b.n    48a <app_simple_timer_start+0x52>
		       4ae:   2007          movs   r0, #7
		       4b0:   b003          add    sp, #12
		--------------------
	(     4a4,      94a)	ret
		--------------------
		       49c:   2900          cmp    r1, #0
		       49e:   d1dc          bne.n  45a <app_simple_timer_start+0x22>
		       4a0:   2008          movs   r0, #8
		       4a2:   b003          add    sp, #12
		->     4a4:   e8bd 83f0     ldmia.w    sp!, {r4, r5, r6, r7, r8, r9, pc}
		       4a8:   f000 f98c     bl 7c4 <nrfx_timer_resume>
		       4ac:   e7ed          b.n    48a <app_simple_timer_start+0x52>
		       4ae:   2007          movs   r0, #7
		       4b0:   b003          add    sp, #12
		--------------------
	(     4a4,      996)	ret
		--------------------
		       49c:   2900          cmp    r1, #0
		       49e:   d1dc          bne.n  45a <app_simple_timer_start+0x22>
		       4a0:   2008          movs   r0, #8
		       4a2:   b003          add    sp, #12
		->     4a4:   e8bd 83f0     ldmia.w    sp!, {r4, r5, r6, r7, r8, r9, pc}
		       4a8:   f000 f98c     bl 7c4 <nrfx_timer_resume>
		       4ac:   e7ed          b.n    48a <app_simple_timer_start+0x52>
		       4ae:   2007          movs   r0, #7
		       4b0:   b003          add    sp, #12
		--------------------
	(     4a4,      9de)	ret
		--------------------
		       49c:   2900          cmp    r1, #0
		       49e:   d1dc          bne.n  45a <app_simple_timer_start+0x22>
		       4a0:   2008          movs   r0, #8
		       4a2:   b003          add    sp, #12
		->     4a4:   e8bd 83f0     ldmia.w    sp!, {r4, r5, r6, r7, r8, r9, pc}
		       4a8:   f000 f98c     bl 7c4 <nrfx_timer_resume>
		       4ac:   e7ed          b.n    48a <app_simple_timer_start+0x52>
		       4ae:   2007          movs   r0, #7
		       4b0:   b003          add    sp, #12
		--------------------
	(     4a4,      ac4)	ret
		--------------------
		       49c:   2900          cmp    r1, #0
		       49e:   d1dc          bne.n  45a <app_simple_timer_start+0x22>
		       4a0:   2008          movs   r0, #8
		       4a2:   b003          add    sp, #12
		->     4a4:   e8bd 83f0     ldmia.w    sp!, {r4, r5, r6, r7, r8, r9, pc}
		       4a8:   f000 f98c     bl 7c4 <nrfx_timer_resume>
		       4ac:   e7ed          b.n    48a <app_simple_timer_start+0x52>
		       4ae:   2007          movs   r0, #7
		       4b0:   b003          add    sp, #12
		--------------------
	(     4b2,      94a)	ret
		--------------------
		       4a8:   f000 f98c     bl 7c4 <nrfx_timer_resume>
		       4ac:   e7ed          b.n    48a <app_simple_timer_start+0x52>
		       4ae:   2007          movs   r0, #7
		       4b0:   b003          add    sp, #12
		->     4b2:   e8bd 83f0     ldmia.w    sp!, {r4, r5, r6, r7, r8, r9, pc}
		       4b6:   4807          ldr    r0, [pc, #28]  ; (4d4 <app_simple_timer_start+0x9c>)
		       4b8:   f000 f988     bl 7cc <nrfx_timer_pause>
		       4bc:   2302          movs   r3, #2
		       4be:   703b          strb   r3, [r7, #0]
		--------------------
	(     4b2,      996)	ret
		--------------------
		       4a8:   f000 f98c     bl 7c4 <nrfx_timer_resume>
		       4ac:   e7ed          b.n    48a <app_simple_timer_start+0x52>
		       4ae:   2007          movs   r0, #7
		       4b0:   b003          add    sp, #12
		->     4b2:   e8bd 83f0     ldmia.w    sp!, {r4, r5, r6, r7, r8, r9, pc}
		       4b6:   4807          ldr    r0, [pc, #28]  ; (4d4 <app_simple_timer_start+0x9c>)
		       4b8:   f000 f988     bl 7cc <nrfx_timer_pause>
		       4bc:   2302          movs   r3, #2
		       4be:   703b          strb   r3, [r7, #0]
		--------------------
	(     4b2,      9ba)	ret
		--------------------
		       4a8:   f000 f98c     bl 7c4 <nrfx_timer_resume>
		       4ac:   e7ed          b.n    48a <app_simple_timer_start+0x52>
		       4ae:   2007          movs   r0, #7
		       4b0:   b003          add    sp, #12
		->     4b2:   e8bd 83f0     ldmia.w    sp!, {r4, r5, r6, r7, r8, r9, pc}
		       4b6:   4807          ldr    r0, [pc, #28]  ; (4d4 <app_simple_timer_start+0x9c>)
		       4b8:   f000 f988     bl 7cc <nrfx_timer_pause>
		       4bc:   2302          movs   r3, #2
		       4be:   703b          strb   r3, [r7, #0]
		--------------------
	(     4b2,      9de)	ret
		--------------------
		       4a8:   f000 f98c     bl 7c4 <nrfx_timer_resume>
		       4ac:   e7ed          b.n    48a <app_simple_timer_start+0x52>
		       4ae:   2007          movs   r0, #7
		       4b0:   b003          add    sp, #12
		->     4b2:   e8bd 83f0     ldmia.w    sp!, {r4, r5, r6, r7, r8, r9, pc}
		       4b6:   4807          ldr    r0, [pc, #28]  ; (4d4 <app_simple_timer_start+0x9c>)
		       4b8:   f000 f988     bl 7cc <nrfx_timer_pause>
		       4bc:   2302          movs   r3, #2
		       4be:   703b          strb   r3, [r7, #0]
		--------------------
	(     4ca,      8f0)	ret
		--------------------
		       4c0:   4804          ldr    r0, [pc, #16]  ; (4d4 <app_simple_timer_start+0x9c>)
		       4c2:   f000 f987     bl 7d4 <nrfx_timer_clear>
		       4c6:   e7cc          b.n    462 <app_simple_timer_start+0x2a>
		       4c8:   200e          movs   r0, #14
		->     4ca:   4770          bx lr
		       4cc:   2000002d  .word   0x2000002d
		       4d0:   2000002c  .word   0x2000002c
		       4d4:   000010c4  .word   0x000010c4
		       4d8:   20000030  .word   0x20000030
		--------------------
	(     4ca,      94a)	ret
		--------------------
		       4c0:   4804          ldr    r0, [pc, #16]  ; (4d4 <app_simple_timer_start+0x9c>)
		       4c2:   f000 f987     bl 7d4 <nrfx_timer_clear>
		       4c6:   e7cc          b.n    462 <app_simple_timer_start+0x2a>
		       4c8:   200e          movs   r0, #14
		->     4ca:   4770          bx lr
		       4cc:   2000002d  .word   0x2000002d
		       4d0:   2000002c  .word   0x2000002c
		       4d4:   000010c4  .word   0x000010c4
		       4d8:   20000030  .word   0x20000030
		--------------------
	(     4ca,      996)	ret
		--------------------
		       4c0:   4804          ldr    r0, [pc, #16]  ; (4d4 <app_simple_timer_start+0x9c>)
		       4c2:   f000 f987     bl 7d4 <nrfx_timer_clear>
		       4c6:   e7cc          b.n    462 <app_simple_timer_start+0x2a>
		       4c8:   200e          movs   r0, #14
		->     4ca:   4770          bx lr
		       4cc:   2000002d  .word   0x2000002d
		       4d0:   2000002c  .word   0x2000002c
		       4d4:   000010c4  .word   0x000010c4
		       4d8:   20000030  .word   0x20000030
		--------------------
	(     4ca,      9de)	ret
		--------------------
		       4c0:   4804          ldr    r0, [pc, #16]  ; (4d4 <app_simple_timer_start+0x9c>)
		       4c2:   f000 f987     bl 7d4 <nrfx_timer_clear>
		       4c6:   e7cc          b.n    462 <app_simple_timer_start+0x2a>
		       4c8:   200e          movs   r0, #14
		->     4ca:   4770          bx lr
		       4cc:   2000002d  .word   0x2000002d
		       4d0:   2000002c  .word   0x2000002c
		       4d4:   000010c4  .word   0x000010c4
		       4d8:   20000030  .word   0x20000030
		--------------------
	(     83e,      840)	nop
		--------------------
		       834:   4770          bx lr
		       836:   6803          ldr    r3, [r0, #0]
		       838:   f8c3 4308     str.w  r4, [r3, #776]   ; 0x308
		       83c:   e7f3          b.n    826 <nrfx_timer_extended_compare+0x4a>
		->     83e:   bf00          nop
		  
		  00000840 <TIMER1_IRQHandler>:
		       840:   e92d 41f0     stmdb  sp!, {r4, r5, r6, r7, r8, lr}
		       844:   4d11          ldr    r5, [pc, #68]  ; (88c <TIMER1_IRQHandler+0x4c>)
		--------------------
	(     85c,      87e)	
		--------------------
		       850:   f44f 3680     mov.w  r6, #65536   ; 0x10000
		       854:   682b          ldr    r3, [r5, #0]
		       856:   fa06 f204     lsl.w  r2, r6, r4
		       85a:   3401          adds   r4, #1
		->     85c:   b17b          cbz    r3, 87e <TIMER1_IRQHandler+0x3e>
		       85e:   f8d7 3304     ldr.w  r3, [r7, #772]   ; 0x304
		       862:   f505 40e0     add.w  r0, r5, #28672   ; 0x7000
		       866:   421a          tst    r2, r3
		       868:   f04f 0100     mov.w  r1, #0
		--------------------
	(     87c,      87e)	ft
		--------------------
		       872:   682b          ldr    r3, [r5, #0]
		       874:   9301          str    r3, [sp, #4]
		       876:   e9d8 3100     ldrd   r3, r1, [r8]
		       87a:   9a01          ldr    r2, [sp, #4]
		->     87c:   4798          blx    r3
		       87e:   2c04          cmp    r4, #4
		       880:   f105 0504     add.w  r5, r5, #4
		       884:   d1e6          bne.n  854 <TIMER1_IRQHandler+0x14>
		       886:   b002          add    sp, #8
		--------------------
	(     da4,      b1a)	
		--------------------
		       d9a:   f43f aebe     beq.w  b1a <SystemInit+0x3a>
		       d9e:   4b17          ldr    r3, [pc, #92]  ; (dfc <SystemInit+0x31c>)
		       da0:   4a17          ldr    r2, [pc, #92]  ; (e00 <SystemInit+0x320>)
		       da2:   675a          str    r2, [r3, #116] ; 0x74
		->     da4:   e6b9          b.n    b1a <SystemInit+0x3a>
		       da6:   4a17          ldr    r2, [pc, #92]  ; (e04 <SystemInit+0x324>)
		       da8:   5cd3          ldrb   r3, [r2, r3]
		       daa:   2b00          cmp    r3, #0
		       dac:   f43f af08     beq.w  bc0 <SystemInit+0xe0>
		--------------------
	(    10a6,     10a8)	nop
		--------------------
		      10a0:   2000014c  .word   0x2000014c
		  
		  000010a4 <_exit>:
		      10a4:   e7fe          b.n    10a4 <_exit>
		->    10a6:   bf00          nop
		  
		  000010a8 <_init>:
		      10a8:   b5f8          push   {r3, r4, r5, r6, r7, lr}
		      10aa:   bf00          nop
		--------------------

simple_timer-o3: 20 | 31 | 14 ret | 3 nop | 1 ft
	(     246,      248)	nop
		--------------------
		  
		  00000240 <_stack_init>:
		       240:   f5a3 3a80     sub.w  sl, r3, #65536   ; 0x10000
		       244:   4770          bx lr
		->     246:   bf00          nop
		  
		  00000248 <_mainCRTStartup>:
		       248:   4b15          ldr    r3, [pc, #84]  ; (2a0 <_mainCRTStartup+0x58>)
		       24a:   2b00          cmp    r3, #0
		--------------------
	(     48e,      bfe)	ret
		--------------------
		       486:   2303          movs   r3, #3
		       488:   2000          movs   r0, #0
		       48a:   703b          strb   r3, [r7, #0]
		       48c:   b003          add    sp, #12
		->     48e:   e8bd 83f0     ldmia.w    sp!, {r4, r5, r6, r7, r8, r9, pc}
		       492:   4f0d          ldr    r7, [pc, #52]  ; (4c8 <app_simple_timer_start+0x94>)
		       494:   7839          ldrb   r1, [r7, #0]
		       496:   4680          mov    r8, r0
		       498:   2900          cmp    r1, #0
		--------------------
	(     48e,      c4a)	ret
		--------------------
		       486:   2303          movs   r3, #3
		       488:   2000          movs   r0, #0
		       48a:   703b          strb   r3, [r7, #0]
		       48c:   b003          add    sp, #12
		->     48e:   e8bd 83f0     ldmia.w    sp!, {r4, r5, r6, r7, r8, r9, pc}
		       492:   4f0d          ldr    r7, [pc, #52]  ; (4c8 <app_simple_timer_start+0x94>)
		       494:   7839          ldrb   r1, [r7, #0]
		       496:   4680          mov    r8, r0
		       498:   2900          cmp    r1, #0
		--------------------
	(     48e,      c92)	ret
		--------------------
		       486:   2303          movs   r3, #3
		       488:   2000          movs   r0, #0
		       48a:   703b          strb   r3, [r7, #0]
		       48c:   b003          add    sp, #12
		->     48e:   e8bd 83f0     ldmia.w    sp!, {r4, r5, r6, r7, r8, r9, pc}
		       492:   4f0d          ldr    r7, [pc, #52]  ; (4c8 <app_simple_timer_start+0x94>)
		       494:   7839          ldrb   r1, [r7, #0]
		       496:   4680          mov    r8, r0
		       498:   2900          cmp    r1, #0
		--------------------
	(     48e,      d78)	ret
		--------------------
		       486:   2303          movs   r3, #3
		       488:   2000          movs   r0, #0
		       48a:   703b          strb   r3, [r7, #0]
		       48c:   b003          add    sp, #12
		->     48e:   e8bd 83f0     ldmia.w    sp!, {r4, r5, r6, r7, r8, r9, pc}
		       492:   4f0d          ldr    r7, [pc, #52]  ; (4c8 <app_simple_timer_start+0x94>)
		       494:   7839          ldrb   r1, [r7, #0]
		       496:   4680          mov    r8, r0
		       498:   2900          cmp    r1, #0
		--------------------
	(     4a0,      ba4)	ret
		--------------------
		       498:   2900          cmp    r1, #0
		       49a:   d1dc          bne.n  456 <app_simple_timer_start+0x22>
		       49c:   2008          movs   r0, #8
		       49e:   b003          add    sp, #12
		->     4a0:   e8bd 83f0     ldmia.w    sp!, {r4, r5, r6, r7, r8, r9, pc}
		       4a4:   f000 fae8     bl a78 <nrfx_timer_resume>
		       4a8:   e7ed          b.n    486 <app_simple_timer_start+0x52>
		       4aa:   2007          movs   r0, #7
		       4ac:   b003          add    sp, #12
		--------------------
	(     4a0,      c4a)	ret
		--------------------
		       498:   2900          cmp    r1, #0
		       49a:   d1dc          bne.n  456 <app_simple_timer_start+0x22>
		       49c:   2008          movs   r0, #8
		       49e:   b003          add    sp, #12
		->     4a0:   e8bd 83f0     ldmia.w    sp!, {r4, r5, r6, r7, r8, r9, pc}
		       4a4:   f000 fae8     bl a78 <nrfx_timer_resume>
		       4a8:   e7ed          b.n    486 <app_simple_timer_start+0x52>
		       4aa:   2007          movs   r0, #7
		       4ac:   b003          add    sp, #12
		--------------------
	(     4a0,      c6e)	ret
		--------------------
		       498:   2900          cmp    r1, #0
		       49a:   d1dc          bne.n  456 <app_simple_timer_start+0x22>
		       49c:   2008          movs   r0, #8
		       49e:   b003          add    sp, #12
		->     4a0:   e8bd 83f0     ldmia.w    sp!, {r4, r5, r6, r7, r8, r9, pc}
		       4a4:   f000 fae8     bl a78 <nrfx_timer_resume>
		       4a8:   e7ed          b.n    486 <app_simple_timer_start+0x52>
		       4aa:   2007          movs   r0, #7
		       4ac:   b003          add    sp, #12
		--------------------
	(     4a0,      d78)	ret
		--------------------
		       498:   2900          cmp    r1, #0
		       49a:   d1dc          bne.n  456 <app_simple_timer_start+0x22>
		       49c:   2008          movs   r0, #8
		       49e:   b003          add    sp, #12
		->     4a0:   e8bd 83f0     ldmia.w    sp!, {r4, r5, r6, r7, r8, r9, pc}
		       4a4:   f000 fae8     bl a78 <nrfx_timer_resume>
		       4a8:   e7ed          b.n    486 <app_simple_timer_start+0x52>
		       4aa:   2007          movs   r0, #7
		       4ac:   b003          add    sp, #12
		--------------------
	(     4ae,      c4a)	ret
		--------------------
		       4a4:   f000 fae8     bl a78 <nrfx_timer_resume>
		       4a8:   e7ed          b.n    486 <app_simple_timer_start+0x52>
		       4aa:   2007          movs   r0, #7
		       4ac:   b003          add    sp, #12
		->     4ae:   e8bd 83f0     ldmia.w    sp!, {r4, r5, r6, r7, r8, r9, pc}
		       4b2:   4807          ldr    r0, [pc, #28]  ; (4d0 <app_simple_timer_start+0x9c>)
		       4b4:   f000 fae4     bl a80 <nrfx_timer_pause>
		       4b8:   2302          movs   r3, #2
		       4ba:   703b          strb   r3, [r7, #0]
		--------------------
	(     4ae,      c6e)	ret
		--------------------
		       4a4:   f000 fae8     bl a78 <nrfx_timer_resume>
		       4a8:   e7ed          b.n    486 <app_simple_timer_start+0x52>
		       4aa:   2007          movs   r0, #7
		       4ac:   b003          add    sp, #12
		->     4ae:   e8bd 83f0     ldmia.w    sp!, {r4, r5, r6, r7, r8, r9, pc}
		       4b2:   4807          ldr    r0, [pc, #28]  ; (4d0 <app_simple_timer_start+0x9c>)
		       4b4:   f000 fae4     bl a80 <nrfx_timer_pause>
		       4b8:   2302          movs   r3, #2
		       4ba:   703b          strb   r3, [r7, #0]
		--------------------
	(     4ae,      c92)	ret
		--------------------
		       4a4:   f000 fae8     bl a78 <nrfx_timer_resume>
		       4a8:   e7ed          b.n    486 <app_simple_timer_start+0x52>
		       4aa:   2007          movs   r0, #7
		       4ac:   b003          add    sp, #12
		->     4ae:   e8bd 83f0     ldmia.w    sp!, {r4, r5, r6, r7, r8, r9, pc}
		       4b2:   4807          ldr    r0, [pc, #28]  ; (4d0 <app_simple_timer_start+0x9c>)
		       4b4:   f000 fae4     bl a80 <nrfx_timer_pause>
		       4b8:   2302          movs   r3, #2
		       4ba:   703b          strb   r3, [r7, #0]
		--------------------
	(     4ae,      d78)	ret
		--------------------
		       4a4:   f000 fae8     bl a78 <nrfx_timer_resume>
		       4a8:   e7ed          b.n    486 <app_simple_timer_start+0x52>
		       4aa:   2007          movs   r0, #7
		       4ac:   b003          add    sp, #12
		->     4ae:   e8bd 83f0     ldmia.w    sp!, {r4, r5, r6, r7, r8, r9, pc}
		       4b2:   4807          ldr    r0, [pc, #28]  ; (4d0 <app_simple_timer_start+0x9c>)
		       4b4:   f000 fae4     bl a80 <nrfx_timer_pause>
		       4b8:   2302          movs   r3, #2
		       4ba:   703b          strb   r3, [r7, #0]
		--------------------
	(     4c6,      ba4)	ret
		--------------------
		       4bc:   4804          ldr    r0, [pc, #16]  ; (4d0 <app_simple_timer_start+0x9c>)
		       4be:   f000 fae3     bl a88 <nrfx_timer_clear>
		       4c2:   e7cc          b.n    45e <app_simple_timer_start+0x2a>
		       4c4:   200e          movs   r0, #14
		->     4c6:   4770          bx lr
		       4c8:   2000002d  .word   0x2000002d
		       4cc:   2000002c  .word   0x2000002c
		       4d0:   00001368  .word   0x00001368
		       4d4:   20000030  .word   0x20000030
		--------------------
	(     4c6,      c92)	ret
		--------------------
		       4bc:   4804          ldr    r0, [pc, #16]  ; (4d0 <app_simple_timer_start+0x9c>)
		       4be:   f000 fae3     bl a88 <nrfx_timer_clear>
		       4c2:   e7cc          b.n    45e <app_simple_timer_start+0x2a>
		       4c4:   200e          movs   r0, #14
		->     4c6:   4770          bx lr
		       4c8:   2000002d  .word   0x2000002d
		       4cc:   2000002c  .word   0x2000002c
		       4d0:   00001368  .word   0x00001368
		       4d4:   20000030  .word   0x20000030
		--------------------
	(     af2,      af4)	nop
		--------------------
		       ae8:   4770          bx lr
		       aea:   6803          ldr    r3, [r0, #0]
		       aec:   f8c3 4308     str.w  r4, [r3, #776]   ; 0x308
		       af0:   e7f3          b.n    ada <nrfx_timer_extended_compare+0x4a>
		->     af2:   bf00          nop
		  
		  00000af4 <TIMER1_IRQHandler>:
		       af4:   e92d 41f0     stmdb  sp!, {r4, r5, r6, r7, r8, lr}
		       af8:   4d11          ldr    r5, [pc, #68]  ; (b40 <TIMER1_IRQHandler+0x4c>)
		--------------------
	(     b10,      b32)	
		--------------------
		       b04:   f44f 3680     mov.w  r6, #65536   ; 0x10000
		       b08:   682b          ldr    r3, [r5, #0]
		       b0a:   fa06 f204     lsl.w  r2, r6, r4
		       b0e:   3401          adds   r4, #1
		->     b10:   b17b          cbz    r3, b32 <TIMER1_IRQHandler+0x3e>
		       b12:   f8d7 3304     ldr.w  r3, [r7, #772]   ; 0x304
		       b16:   f505 40e0     add.w  r0, r5, #28672   ; 0x7000
		       b1a:   421a          tst    r2, r3
		       b1c:   f04f 0100     mov.w  r1, #0
		--------------------
	(     b30,      b32)	ft
		--------------------
		       b26:   682b          ldr    r3, [r5, #0]
		       b28:   9301          str    r3, [sp, #4]
		       b2a:   e9d8 3100     ldrd   r3, r1, [r8]
		       b2e:   9a01          ldr    r2, [sp, #4]
		->     b30:   4798          blx    r3
		       b32:   2c04          cmp    r4, #4
		       b34:   f105 0504     add.w  r5, r5, #4
		       b38:   d1e6          bne.n  b08 <TIMER1_IRQHandler+0x14>
		       b3a:   b002          add    sp, #8
		--------------------
	(    1040,      dce)	
		--------------------
		      1036:   f43f aeca     beq.w  dce <SystemInit+0x3a>
		      103a:   4b35          ldr    r3, [pc, #212] ; (1110 <SystemInit+0x37c>)
		      103c:   4a35          ldr    r2, [pc, #212] ; (1114 <SystemInit+0x380>)
		      103e:   675a          str    r2, [r3, #116] ; 0x74
		->    1040:   e6c5          b.n    dce <SystemInit+0x3a>
		      1042:   f04f 4370     mov.w  r3, #4026531840  ; 0xf0000000
		      1046:   f893 3fe0     ldrb.w r3, [r3, #4064] ; 0xfe0
		      104a:   2b06          cmp    r3, #6
		      104c:   f47f af03     bne.w  e56 <SystemInit+0xc2>
		--------------------
	(    134a,     134c)	nop
		--------------------
		      1344:   2000014c  .word   0x2000014c
		  
		  00001348 <_exit>:
		      1348:   e7fe          b.n    1348 <_exit>
		->    134a:   bf00          nop
		  
		  0000134c <_init>:
		      134c:   b5f8          push   {r3, r4, r5, r6, r7, lr}
		      134e:   bf00          nop
		--------------------

spi-o0: 56 | 558 | 29 jt | 8 dead | 17 ret | 1 ft
	(     884,      89e)	jt
		--------------------
		       87c:   3b01          subs   r3, #1
		       87e:   2b03          cmp    r3, #3
		       880:   d818          bhi.n  8b4 <nrf_log_color_id_get+0x50>
		       882:   a201          add    r2, pc, #4 ; (adr r2, 888 <nrf_log_color_id_get+0x24>)
		->     884:   f852 f023     ldr.w  pc, [r2, r3, lsl #2]
		       888:   00000899  .word   0x00000899
		       88c:   0000089f  .word   0x0000089f
		       890:   000008a5  .word   0x000008a5
		       894:   000008ad  .word   0x000008ad
		--------------------
	(    1450,     1cd0)	jt
		--------------------
		      1448:   3304          adds   r3, #4
		      144a:   681b          ldr    r3, [r3, #0]
		      144c:   68f9          ldr    r1, [r7, #12]
		      144e:   6ab8          ldr    r0, [r7, #40]  ; 0x28
		->    1450:   f000 fc3e     bl 1cd0 <nrf_fprintf>
		      1454:   e057          b.n    1506 <nrf_log_std_entry_process+0x12a>
		      1456:   68bb          ldr    r3, [r7, #8]
		      1458:   681a          ldr    r2, [r3, #0]
		      145a:   68bb          ldr    r3, [r7, #8]
		--------------------
	(    146e,     1cd0)	jt
		--------------------
		      1466:   9300          str    r3, [sp, #0]
		      1468:   460b          mov    r3, r1
		      146a:   68f9          ldr    r1, [r7, #12]
		      146c:   6ab8          ldr    r0, [r7, #40]  ; 0x28
		->    146e:   f000 fc2f     bl 1cd0 <nrf_fprintf>
		      1472:   e048          b.n    1506 <nrf_log_std_entry_process+0x12a>
		      1474:   68bb          ldr    r3, [r7, #8]
		      1476:   6819          ldr    r1, [r3, #0]
		      1478:   68bb          ldr    r3, [r7, #8]
		--------------------
	(    1496,     1cd0)	jt
		--------------------
		      148e:   4603          mov    r3, r0
		      1490:   460a          mov    r2, r1
		      1492:   68f9          ldr    r1, [r7, #12]
		      1494:   6ab8          ldr    r0, [r7, #40]  ; 0x28
		->    1496:   f000 fc1b     bl 1cd0 <nrf_fprintf>
		      149a:   e034          b.n    1506 <nrf_log_std_entry_process+0x12a>
		      149c:   68bb          ldr    r3, [r7, #8]
		      149e:   6818          ldr    r0, [r3, #0]
		      14a0:   68bb          ldr    r3, [r7, #8]
		--------------------
	(    14c6,     1cd0)	jt
		--------------------
		      14be:   4623          mov    r3, r4
		      14c0:   4602          mov    r2, r0
		      14c2:   68f9          ldr    r1, [r7, #12]
		      14c4:   6ab8          ldr    r0, [r7, #40]  ; 0x28
		->    14c6:   f000 fc03     bl 1cd0 <nrf_fprintf>
		      14ca:   e01c          b.n    1506 <nrf_log_std_entry_process+0x12a>
		      14cc:   68bb          ldr    r3, [r7, #8]
		      14ce:   681c          ldr    r4, [r3, #0]
		      14d0:   68bb          ldr    r3, [r7, #8]
		--------------------
	(    18fa,      5bc)	ret
		--------------------
		      18f0:   f000 f81a     bl 1928 <app_error_fault_handler>
		      18f4:   bf00          nop
		      18f6:   3718          adds   r7, #24
		      18f8:   46bd          mov    sp, r7
		->    18fa:   bd80          pop    {r7, pc}
		  
		  000018fc <__NVIC_SystemReset>:
		      18fc:   b480          push   {r7}
		      18fe:   af00          add    r7, sp, #0
		--------------------
	(    18fa,     5306)	ret
		--------------------
		      18f0:   f000 f81a     bl 1928 <app_error_fault_handler>
		      18f4:   bf00          nop
		      18f6:   3718          adds   r7, #24
		      18f8:   46bd          mov    sp, r7
		->    18fa:   bd80          pop    {r7, pc}
		  
		  000018fc <__NVIC_SystemReset>:
		      18fc:   b480          push   {r7}
		      18fe:   af00          add    r7, sp, #0
		--------------------
	(    1a08,     1c5c)	ret
		--------------------
		      19fe:   f7ff ffdb     bl 19b8 <app_util_enable_irq>
		      1a02:   bf00          nop
		      1a04:   3708          adds   r7, #8
		      1a06:   46bd          mov    sp, r7
		->    1a08:   bd80          pop    {r7, pc}
		      ...
		  
		  00001a0c <RTC1_IRQHandler>:
		      1a0c:   b580          push   {r7, lr}
		--------------------
	(    1c92,     1c96)	dead
		--------------------
		      1c88:   f7ff ff78     bl 1b7c <nrf_balloc_block2idx>
		      1c8c:   4603          mov    r3, r0
		      1c8e:   7023          strb   r3, [r4, #0]
		      1c90:   2000          movs   r0, #0
		->    1c92:   f7ff feaf     bl 19f4 <app_util_critical_region_exit>
		      1c96:   bf00          nop
		      1c98:   3714          adds   r7, #20
		      1c9a:   46bd          mov    sp, r7
		      1c9c:   bd90          pop    {r4, r7, pc}
		--------------------
	(    1cce,     2382)	ret
		--------------------
		      1cc6:   e000          b.n    1cca <nrf_fprintf_buffer_flush+0x2c>
		      1cc8:   bf00          nop
		      1cca:   3708          adds   r7, #8
		      1ccc:   46bd          mov    sp, r7
		->    1cce:   bd80          pop    {r7, pc}
		  
		  00001cd0 <nrf_fprintf>:
		      1cd0:   b40e          push   {r1, r2, r3}
		      1cd2:   b580          push   {r7, lr}
		--------------------
	(    1d4e,     1dce)	ret
		--------------------
		      1d44:   f7ff ffab     bl 1c9e <nrf_fprintf_buffer_flush>
		      1d48:   bf00          nop
		      1d4a:   3708          adds   r7, #8
		      1d4c:   46bd          mov    sp, r7
		->    1d4e:   bd80          pop    {r7, pc}
		  
		  00001d50 <string_print>:
		      1d50:   b580          push   {r7, lr}
		      1d52:   b086          sub    sp, #24
		--------------------
	(    1d4e,     2028)	ret
		--------------------
		      1d44:   f7ff ffab     bl 1c9e <nrf_fprintf_buffer_flush>
		      1d48:   bf00          nop
		      1d4a:   3708          adds   r7, #8
		      1d4c:   46bd          mov    sp, r7
		->    1d4e:   bd80          pop    {r7, pc}
		  
		  00001d50 <string_print>:
		      1d50:   b580          push   {r7, lr}
		      1d52:   b086          sub    sp, #24
		--------------------
	(    1d4e,     234e)	ret
		--------------------
		      1d44:   f7ff ffab     bl 1c9e <nrf_fprintf_buffer_flush>
		      1d48:   bf00          nop
		      1d4a:   3708          adds   r7, #8
		      1d4c:   46bd          mov    sp, r7
		->    1d4e:   bd80          pop    {r7, pc}
		  
		  00001d50 <string_print>:
		      1d50:   b580          push   {r7, lr}
		      1d52:   b086          sub    sp, #24
		--------------------
	(    1dae,     1e00)	jti
		--------------------
		      1da6:   d92b          bls.n  1e00 <string_print+0xb0>
		      1da8:   687b          ldr    r3, [r7, #4]
		      1daa:   2b00          cmp    r3, #0
		      1dac:   d1f1          bne.n  1d92 <string_print+0x42>
		->    1dae:   e027          b.n    1e00 <string_print+0xb0>
		      1db0:   68bb          ldr    r3, [r7, #8]
		      1db2:   2b00          cmp    r3, #0
		      1db4:   d00b          beq.n  1dce <string_print+0x7e>
		      1db6:   68b8          ldr    r0, [r7, #8]
		--------------------
	(    1dda,     1ddc)	jti
		--------------------
		      1dd2:   429a          cmp    r2, r3
		      1dd4:   d90e          bls.n  1df4 <string_print+0xa4>
		      1dd6:   687b          ldr    r3, [r7, #4]
		      1dd8:   2b00          cmp    r3, #0
		->    1dda:   d1f1          bne.n  1dc0 <string_print+0x70>
		      1ddc:   e00a          b.n    1df4 <string_print+0xa4>
		      1dde:   68bb          ldr    r3, [r7, #8]
		      1de0:   3301          adds   r3, #1
		      1de2:   60bb          str    r3, [r7, #8]
		--------------------
	(    1e3e,     1e40)	jti
		--------------------
		      1e36:   d2f3          bcs.n  1e20 <unsigned_print+0x18>
		      1e38:   683a          ldr    r2, [r7, #0]
		      1e3a:   69bb          ldr    r3, [r7, #24]
		      1e3c:   429a          cmp    r2, r3
		->    1e3e:   d901          bls.n  1e44 <unsigned_print+0x3c>
		      1e40:   683b          ldr    r3, [r7, #0]
		      1e42:   61bb          str    r3, [r7, #24]
		      1e44:   6afb          ldr    r3, [r7, #44]  ; 0x2c
		      1e46:   f003 0301     and.w  r3, r3, #1
		--------------------
	(    1e6c,     1e6e)	jti
		--------------------
		      1e64:   2330          movs   r3, #48   ; 0x30
		      1e66:   75fb          strb   r3, [r7, #23]
		      1e68:   e001          b.n    1e6e <unsigned_print+0x66>
		      1e6a:   2320          movs   r3, #32
		->    1e6c:   75fb          strb   r3, [r7, #23]
		      1e6e:   e007          b.n    1e80 <unsigned_print+0x78>
		      1e70:   6abb          ldr    r3, [r7, #40]  ; 0x28
		      1e72:   3b01          subs   r3, #1
		      1e74:   62bb          str    r3, [r7, #40]  ; 0x28
		--------------------
	(    1e7c,     1e80)	jti
		--------------------
		      1e74:   62bb          str    r3, [r7, #40]  ; 0x28
		      1e76:   7dfb          ldrb   r3, [r7, #23]
		      1e78:   4619          mov    r1, r3
		      1e7a:   68f8          ldr    r0, [r7, #12]
		->    1e7c:   f7ff ff44     bl 1d08 <buffer_add>
		      1e80:   6abb          ldr    r3, [r7, #40]  ; 0x28
		      1e82:   2b00          cmp    r3, #0
		      1e84:   d003          beq.n  1e8e <unsigned_print+0x86>
		      1e86:   69ba          ldr    r2, [r7, #24]
		--------------------
	(    1e90,     1e92)	jti
		--------------------
		      1e88:   6abb          ldr    r3, [r7, #40]  ; 0x28
		      1e8a:   429a          cmp    r2, r3
		      1e8c:   d3f0          bcc.n  1e70 <unsigned_print+0x68>
		      1e8e:   2301          movs   r3, #1
		->    1e90:   61fb          str    r3, [r7, #28]
		      1e92:   683b          ldr    r3, [r7, #0]
		      1e94:   2b01          cmp    r3, #1
		      1e96:   d903          bls.n  1ea0 <unsigned_print+0x98>
		      1e98:   683b          ldr    r3, [r7, #0]
		--------------------
	(    1e96,     1ea0)	jti
		--------------------
		      1e8e:   2301          movs   r3, #1
		      1e90:   61fb          str    r3, [r7, #28]
		      1e92:   683b          ldr    r3, [r7, #0]
		      1e94:   2b01          cmp    r3, #1
		->    1e96:   d903          bls.n  1ea0 <unsigned_print+0x98>
		      1e98:   683b          ldr    r3, [r7, #0]
		      1e9a:   3b01          subs   r3, #1
		      1e9c:   603b          str    r3, [r7, #0]
		      1e9e:   e009          b.n    1eb4 <unsigned_print+0xac>
		--------------------
	(    1f90,     1f92)	jti
		--------------------
		      1f88:   2b00          cmp    r3, #0
		      1f8a:   d002          beq.n  1f92 <int_print+0x5e>
		      1f8c:   6a3b          ldr    r3, [r7, #32]
		      1f8e:   3b01          subs   r3, #1
		->    1f90:   623b          str    r3, [r7, #32]
		      1f92:   6a7b          ldr    r3, [r7, #36]  ; 0x24
		      1f94:   f003 0302     and.w  r3, r3, #2
		      1f98:   2b00          cmp    r3, #0
		      1f9a:   d002          beq.n  1fa2 <int_print+0x6e>
		--------------------
	(    1fc6,     1fc8)	jti
		--------------------
		      1fbc:   68f8          ldr    r0, [r7, #12]
		      1fbe:   f7ff fea3     bl 1d08 <buffer_add>
		      1fc2:   6a3b          ldr    r3, [r7, #32]
		      1fc4:   2b00          cmp    r3, #0
		->    1fc6:   d003          beq.n  1fd0 <int_print+0x9c>
		      1fc8:   697a          ldr    r2, [r7, #20]
		      1fca:   6a3b          ldr    r3, [r7, #32]
		      1fcc:   429a          cmp    r2, r3
		      1fce:   d3f1          bcc.n  1fb4 <int_print+0x80>
		--------------------
	(    1fe0,     1fe4)	jti
		--------------------
		      1fd8:   425b          negs   r3, r3
		      1fda:   60bb          str    r3, [r7, #8]
		      1fdc:   212d          movs   r1, #45   ; 0x2d
		      1fde:   68f8          ldr    r0, [r7, #12]
		->    1fe0:   f7ff fe92     bl 1d08 <buffer_add>
		      1fe4:   e008          b.n    1ff8 <int_print+0xc4>
		      1fe6:   6a7b          ldr    r3, [r7, #36]  ; 0x24
		      1fe8:   f003 0304     and.w  r3, r3, #4
		      1fec:   2b00          cmp    r3, #0
		--------------------
	(    1ff4,     1d08)	jti
		--------------------
		      1fec:   2b00          cmp    r3, #0
		      1fee:   d003          beq.n  1ff8 <int_print+0xc4>
		      1ff0:   212b          movs   r1, #43   ; 0x2b
		      1ff2:   68f8          ldr    r0, [r7, #12]
		->    1ff4:   f7ff fe88     bl 1d08 <buffer_add>
		      1ff8:   6a7b          ldr    r3, [r7, #36]  ; 0x24
		      1ffa:   f003 0302     and.w  r3, r3, #2
		      1ffe:   2b00          cmp    r3, #0
		      2000:   d019          beq.n  2036 <Heap_Size+0x36>
		--------------------
	(    21e4,     22ae)	jt
		--------------------
		      21da:   3b58          subs   r3, #88   ; 0x58
		      21dc:   2b20          cmp    r3, #32
		      21de:   f200 80b7     bhi.w  2350 <nrf_fprintf_fmt+0x2fc>
		      21e2:   a201          add    r2, pc, #4 ; (adr r2, 21e8 <nrf_fprintf_fmt+0x194>)
		->    21e4:   f852 f023     ldr.w  pc, [r2, r3, lsl #2]
		      21e8:   000022d3  .word   0x000022d3
		      21ec:   00002351  .word   0x00002351
		      21f0:   00002351  .word   0x00002351
		      21f4:   00002351  .word   0x00002351
		--------------------
	(    2284,     1d08)	jt
		--------------------
		      227c:   75fb          strb   r3, [r7, #23]
		      227e:   7dfb          ldrb   r3, [r7, #23]
		      2280:   4619          mov    r1, r3
		      2282:   68f8          ldr    r0, [r7, #12]
		->    2284:   f7ff fd40     bl 1d08 <buffer_add>
		      2288:   e063          b.n    2352 <nrf_fprintf_fmt+0x2fe>
		      228a:   687b          ldr    r3, [r7, #4]
		      228c:   681b          ldr    r3, [r3, #0]
		      228e:   1d19          adds   r1, r3, #4
		--------------------
	(    22a8,     1f34)	jt
		--------------------
		      22a0:   6a7b          ldr    r3, [r7, #36]  ; 0x24
		      22a2:   220a          movs   r2, #10
		      22a4:   6ab9          ldr    r1, [r7, #40]  ; 0x28
		      22a6:   68f8          ldr    r0, [r7, #12]
		->    22a8:   f7ff fe44     bl 1f34 <int_print>
		      22ac:   e051          b.n    2352 <nrf_fprintf_fmt+0x2fe>
		      22ae:   687b          ldr    r3, [r7, #4]
		      22b0:   681b          ldr    r3, [r3, #0]
		      22b2:   1d19          adds   r1, r3, #4
		--------------------
	(    230c,     2310)	jt
		--------------------
		      2304:   6a3b          ldr    r3, [r7, #32]
		      2306:   69fa          ldr    r2, [r7, #28]
		      2308:   69b9          ldr    r1, [r7, #24]
		      230a:   68f8          ldr    r0, [r7, #12]
		->    230c:   f7ff fd20     bl 1d50 <string_print>
		      2310:   e01f          b.n    2352 <nrf_fprintf_fmt+0x2fe>
		      2312:   687b          ldr    r3, [r7, #4]
		      2314:   681b          ldr    r3, [r3, #0]
		      2316:   1d19          adds   r1, r3, #4
		--------------------
	(    2324,     2328)	jt
		--------------------
		      231c:   681b          ldr    r3, [r3, #0]
		      231e:   62bb          str    r3, [r7, #40]  ; 0x28
		      2320:   2130          movs   r1, #48   ; 0x30
		      2322:   68f8          ldr    r0, [r7, #12]
		->    2324:   f7ff fcf0     bl 1d08 <buffer_add>
		      2328:   2178          movs   r1, #120  ; 0x78
		      232a:   68f8          ldr    r0, [r7, #12]
		      232c:   f7ff fcec     bl 1d08 <buffer_add>
		      2330:   6ab9          ldr    r1, [r7, #40]  ; 0x28
		--------------------
	(    2516,     10e8)	ret
		--------------------
		      250c:   f7ff ffa0     bl 2450 <nrf_memobj_free>
		      2510:   bf00          nop
		      2512:   3718          adds   r7, #24
		      2514:   46bd          mov    sp, r7
		->    2516:   bd80          pop    {r7, pc}
		  
		  00002518 <memobj_op>:
		      2518:   b580          push   {r7, lr}
		      251a:   b090          sub    sp, #64    ; 0x40
		--------------------
	(    2978,     2d70)	ret
		--------------------
		      2970:   68fb          ldr    r3, [r7, #12]
		      2972:   bf00          nop
		      2974:   3710          adds   r7, #16
		      2976:   46bd          mov    sp, r7
		->    2978:   bd80          pop    {r7, pc}
		  
		  0000297a <nrf_gpiote_event_addr_get>:
		      297a:   b480          push   {r7}
		      297c:   b083          sub    sp, #12
		--------------------
	(    32d0,     3316)	ret
		--------------------
		      32c6:   f843 1022     str.w  r1, [r3, r2, lsl #2]
		      32ca:   bf00          nop
		      32cc:   3710          adds   r7, #16
		      32ce:   46bd          mov    sp, r7
		->    32d0:   bd80          pop    {r7, pc}
		  
		  000032d2 <nrf_gpio_cfg_output>:
		      32d2:   b580          push   {r7, lr}
		      32d4:   b084          sub    sp, #16
		--------------------
	(    3370,     342c)	ret
		--------------------
		      3366:   f000 f813     bl 3390 <nrf_gpio_port_out_clear>
		      336a:   bf00          nop
		      336c:   3710          adds   r7, #16
		      336e:   46bd          mov    sp, r7
		->    3370:   bd80          pop    {r7, pc}
		  
		  00003372 <nrf_gpio_port_out_set>:
		      3372:   b480          push   {r7}
		      3374:   b083          sub    sp, #12
		--------------------
	(    3370,     370e)	ret
		--------------------
		      3366:   f000 f813     bl 3390 <nrf_gpio_port_out_clear>
		      336a:   bf00          nop
		      336c:   3710          adds   r7, #16
		      336e:   46bd          mov    sp, r7
		->    3370:   bd80          pop    {r7, pc}
		  
		  00003372 <nrf_gpio_port_out_set>:
		      3372:   b480          push   {r7}
		      3374:   b083          sub    sp, #12
		--------------------
	(    3a1e,     42e0)	ret
		--------------------
		      3a14:   4618          mov    r0, r3
		      3a16:   370c          adds   r7, #12
		      3a18:   46bd          mov    sp, r7
		      3a1a:   f85d 7b04     ldr.w  r7, [sp], #4
		->    3a1e:   4770          bx lr
		  
		  00003a20 <nrf_uart_int_disable>:
		      3a20:   b480          push   {r7}
		      3a22:   b083          sub    sp, #12
		--------------------
	(    3ca2,     3cc0)	ret
		--------------------
		      3c98:   f843 1022     str.w  r1, [r3, r2, lsl #2]
		      3c9c:   bf00          nop
		      3c9e:   3710          adds   r7, #16
		      3ca0:   46bd          mov    sp, r7
		->    3ca2:   bd80          pop    {r7, pc}
		  
		  00003ca4 <nrf_gpio_cfg_output>:
		      3ca4:   b580          push   {r7, lr}
		      3ca6:   b084          sub    sp, #16
		--------------------
	(    3d3c,     3e00)	ret
		--------------------
		      3d32:   f000 f804     bl 3d3e <nrf_gpio_port_out_set>
		      3d36:   bf00          nop
		      3d38:   3710          adds   r7, #16
		      3d3a:   46bd          mov    sp, r7
		->    3d3c:   bd80          pop    {r7, pc}
		  
		  00003d3e <nrf_gpio_port_out_set>:
		      3d3e:   b480          push   {r7}
		      3d40:   b083          sub    sp, #12
		--------------------
	(    423e,     3980)	dead
		--------------------
		      4232:   f7ff fcad     bl 3b90 <nrf_uart_rxd_get>
		      4236:   e013          b.n    4260 <rx_byte+0x4c>
		      4238:   f44f 7184     mov.w  r1, #264 ; 0x108
		      423c:   6878          ldr    r0, [r7, #4]
		->    423e:   f7ff fb9f     bl 3980 <nrf_uart_event_clear>
		      4242:   683b          ldr    r3, [r7, #0]
		      4244:   68da          ldr    r2, [r3, #12]
		      4246:   683b          ldr    r3, [r7, #0]
		      4248:   6a5b          ldr    r3, [r3, #36]  ; 0x24
		--------------------
	(    428c,     428e)	ft
		--------------------
		      4282:   68fa          ldr    r2, [r7, #12]
		      4284:   6811          ldr    r1, [r2, #0]
		      4286:   f107 0210     add.w  r2, r7, #16
		      428a:   4610          mov    r0, r2
		->    428c:   4798          blx    r3
		      428e:   bf00          nop
		      4290:   3720          adds   r7, #32
		      4292:   46bd          mov    sp, r7
		      4294:   bd80          pop    {r7, pc}
		--------------------
	(    42ca,     445a)	ret
		--------------------
		      42c2:   4798          blx    r3
		      42c4:   bf00          nop
		      42c6:   3718          adds   r7, #24
		      42c8:   46bd          mov    sp, r7
		->    42ca:   bd80          pop    {r7, pc}
		  
		  000042cc <uart_irq_handler>:
		      42cc:   b580          push   {r7, lr}
		      42ce:   b08a          sub    sp, #40    ; 0x28
		--------------------
	(    42fc,     4300)	dead
		--------------------
		      42f2:   2b00          cmp    r3, #0
		      42f4:   d031          beq.n  435a <uart_irq_handler+0x8e>
		      42f6:   f44f 7192     mov.w  r1, #292 ; 0x124
		      42fa:   6878          ldr    r0, [r7, #4]
		->    42fc:   f7ff fb40     bl 3980 <nrf_uart_event_clear>
		      4300:   f44f 7101     mov.w  r1, #516 ; 0x204
		      4304:   6878          ldr    r0, [r7, #4]
		      4306:   f7ff fb8b     bl 3a20 <nrf_uart_int_disable>
		      430a:   683b          ldr    r3, [r7, #0]
		--------------------
	(    436e,     39ae)	dead
		--------------------
		      4364:   2b00          cmp    r3, #0
		      4366:   d04b          beq.n  4400 <uart_irq_handler+0x134>
		      4368:   f44f 7184     mov.w  r1, #264 ; 0x108
		      436c:   6878          ldr    r0, [r7, #4]
		->    436e:   f7ff fb1e     bl 39ae <nrf_uart_event_check>
		      4372:   4603          mov    r3, r0
		      4374:   2b00          cmp    r3, #0
		      4376:   d043          beq.n  4400 <uart_irq_handler+0x134>
		      4378:   6839          ldr    r1, [r7, #0]
		--------------------
	(    438a,     4400)	dead
		--------------------
		      4382:   699a          ldr    r2, [r3, #24]
		      4384:   683b          ldr    r3, [r7, #0]
		      4386:   6a5b          ldr    r3, [r3, #36]  ; 0x24
		      4388:   429a          cmp    r2, r3
		->    438a:   d139          bne.n  4400 <uart_irq_handler+0x134>
		      438c:   683b          ldr    r3, [r7, #0]
		      438e:   69db          ldr    r3, [r3, #28]
		      4390:   2b00          cmp    r3, #0
		      4392:   d019          beq.n  43c8 <uart_irq_handler+0xfc>
		--------------------
	(    43e6,     3a20)	dead
		--------------------
		      43da:   6878          ldr    r0, [r7, #4]
		      43dc:   f7ff fbf6     bl 3bcc <nrf_uart_task_trigger>
		      43e0:   f44f 7101     mov.w  r1, #516 ; 0x204
		      43e4:   6878          ldr    r0, [r7, #4]
		->    43e6:   f7ff fb1b     bl 3a20 <nrf_uart_int_disable>
		      43ea:   683b          ldr    r3, [r7, #0]
		      43ec:   2200          movs   r2, #0
		      43ee:   619a          str    r2, [r3, #24]
		      43f0:   683b          ldr    r3, [r7, #0]
		--------------------
	(    4430,     443c)	dead
		--------------------
		      4426:   b2db          uxtb   r3, r3
		      4428:   f083 0301     eor.w  r3, r3, #1
		      442c:   b2db          uxtb   r3, r3
		      442e:   2b00          cmp    r3, #0
		->    4430:   d004          beq.n  443c <uart_irq_handler+0x170>
		      4432:   6839          ldr    r1, [r7, #0]
		      4434:   6878          ldr    r0, [r7, #4]
		      4436:   f7ff fe1b     bl 4070 <tx_byte>
		      443a:   e00e          b.n    445a <uart_irq_handler+0x18e>
		--------------------
	(    4470,     4474)	dead
		--------------------
		      4466:   2b00          cmp    r3, #0
		      4468:   d01c          beq.n  44a4 <uart_irq_handler+0x1d8>
		      446a:   f44f 71a2     mov.w  r1, #324 ; 0x144
		      446e:   6878          ldr    r0, [r7, #4]
		->    4470:   f7ff fa86     bl 3980 <nrf_uart_event_clear>
		      4474:   683b          ldr    r3, [r7, #0]
		      4476:   f893 3029     ldrb.w r3, [r3, #41]   ; 0x29
		      447a:   2b00          cmp    r3, #0
		      447c:   d003          beq.n  4486 <uart_irq_handler+0x1ba>
		--------------------
	(    49c6,     4a72)	ret
		--------------------
		      49bc:   f7ff ffb4     bl 4928 <nrf_gpio_cfg>
		      49c0:   bf00          nop
		      49c2:   3708          adds   r7, #8
		      49c4:   46bd          mov    sp, r7
		->    49c6:   bd80          pop    {r7, pc}
		  
		  000049c8 <nrf_gpio_cfg_default>:
		      49c8:   b580          push   {r7, lr}
		      49ca:   b084          sub    sp, #16
		--------------------
	(    54da,     54ea)	jt
		--------------------
		      54d0:   000054e1  .word   0x000054e1
		      54d4:   2301          movs   r3, #1
		      54d6:   e008          b.n    54ea <nrf52_errata_31+0x6e>
		      54d8:   2301          movs   r3, #1
		->    54da:   e006          b.n    54ea <nrf52_errata_31+0x6e>
		      54dc:   2301          movs   r3, #1
		      54de:   e004          b.n    54ea <nrf52_errata_31+0x6e>
		      54e0:   2301          movs   r3, #1
		      54e2:   e002          b.n    54ea <nrf52_errata_31+0x6e>
		--------------------
	(    5532,     5548)	jt
		--------------------
		      552a:   3b03          subs   r3, #3
		      552c:   2b03          cmp    r3, #3
		      552e:   d813          bhi.n  5558 <nrf52_errata_32+0x50>
		      5530:   a201          add    r2, pc, #4 ; (adr r2, 5538 <nrf52_errata_32+0x30>)
		->    5532:   f852 f023     ldr.w  pc, [r2, r3, lsl #2]
		      5536:   bf00          nop
		      5538:   00005549  .word   0x00005549
		      553c:   0000554d  .word   0x0000554d
		      5540:   00005551  .word   0x00005551
		--------------------
	(    55b6,     55cc)	jt
		--------------------
		      55ae:   3b03          subs   r3, #3
		      55b0:   2b03          cmp    r3, #3
		      55b2:   d813          bhi.n  55dc <nrf52_errata_36+0x68>
		      55b4:   a201          add    r2, pc, #4 ; (adr r2, 55bc <nrf52_errata_36+0x48>)
		->    55b6:   f852 f023     ldr.w  pc, [r2, r3, lsl #2]
		      55ba:   bf00          nop
		      55bc:   000055cd  .word   0x000055cd
		      55c0:   000055d1  .word   0x000055d1
		      55c4:   000055d5  .word   0x000055d5
		--------------------
	(    562a,     564c)	jt
		--------------------
		      5622:   3b03          subs   r3, #3
		      5624:   2b03          cmp    r3, #3
		      5626:   d813          bhi.n  5650 <nrf52_errata_37+0x50>
		      5628:   a201          add    r2, pc, #4 ; (adr r2, 5630 <nrf52_errata_37+0x30>)
		->    562a:   f852 f023     ldr.w  pc, [r2, r3, lsl #2]
		      562e:   bf00          nop
		      5630:   00005641  .word   0x00005641
		      5634:   00005645  .word   0x00005645
		      5638:   00005649  .word   0x00005649
		--------------------
	(    564e,     5656)	jt
		--------------------
		      5646:   e006          b.n    5656 <nrf52_errata_37+0x56>
		      5648:   2300          movs   r3, #0
		      564a:   e004          b.n    5656 <nrf52_errata_37+0x56>
		      564c:   2300          movs   r3, #0
		->    564e:   e002          b.n    5656 <nrf52_errata_37+0x56>
		      5650:   2300          movs   r3, #0
		      5652:   e000          b.n    5656 <nrf52_errata_37+0x56>
		      5654:   2300          movs   r3, #0
		      5656:   4618          mov    r0, r3
		--------------------
	(    56b6,     56c2)	jt
		--------------------
		      56ae:   e008          b.n    56c2 <nrf52_errata_57+0x56>
		      56b0:   2300          movs   r3, #0
		      56b2:   e006          b.n    56c2 <nrf52_errata_57+0x56>
		      56b4:   2300          movs   r3, #0
		->    56b6:   e004          b.n    56c2 <nrf52_errata_57+0x56>
		      56b8:   2300          movs   r3, #0
		      56ba:   e002          b.n    56c2 <nrf52_errata_57+0x56>
		      56bc:   2300          movs   r3, #0
		      56be:   e000          b.n    56c2 <nrf52_errata_57+0x56>
		--------------------
	(    57a6,     57c4)	jt
		--------------------
		      579e:   3b03          subs   r3, #3
		      57a0:   2b03          cmp    r3, #3
		      57a2:   d813          bhi.n  57cc <nrf52_errata_108+0x68>
		      57a4:   a201          add    r2, pc, #4 ; (adr r2, 57ac <nrf52_errata_108+0x48>)
		->    57a6:   f852 f023     ldr.w  pc, [r2, r3, lsl #2]
		      57aa:   bf00          nop
		      57ac:   000057bd  .word   0x000057bd
		      57b0:   000057c1  .word   0x000057c1
		      57b4:   000057c5  .word   0x000057c5
		--------------------
	(    584a,     585e)	jt
		--------------------
		      583c:   0000584d  .word   0x0000584d
		      5840:   00005851  .word   0x00005851
		      5844:   00005855  .word   0x00005855
		      5848:   2301          movs   r3, #1
		->    584a:   e008          b.n    585e <nrf52_errata_136+0x6e>
		      584c:   2301          movs   r3, #1
		      584e:   e006          b.n    585e <nrf52_errata_136+0x6e>
		      5850:   2301          movs   r3, #1
		      5852:   e004          b.n    585e <nrf52_errata_136+0x6e>
		--------------------
	(    589e,     58c0)	jt
		--------------------
		      5896:   3b03          subs   r3, #3
		      5898:   2b03          cmp    r3, #3
		      589a:   d813          bhi.n  58c4 <nrf52_errata_182+0x48>
		      589c:   a201          add    r2, pc, #4 ; (adr r2, 58a4 <nrf52_errata_182+0x28>)
		->    589e:   f852 f023     ldr.w  pc, [r2, r3, lsl #2]
		      58a2:   bf00          nop
		      58a4:   000058b5  .word   0x000058b5
		      58a8:   000058b9  .word   0x000058b9
		      58ac:   000058bd  .word   0x000058bd
		--------------------

spi-o1: 20 | 171 | 9 dead | 10 ret
	(     5da,      9d8)	ret
		--------------------
		       5d2:   9a03          ldr    r2, [sp, #12]
		       5d4:   609a          str    r2, [r3, #8]
		       5d6:   4620          mov    r0, r4
		       5d8:   b004          add    sp, #16
		->     5da:   bd10          pop    {r4, pc}
		       5dc:   20000168  .word   0x20000168
		       5e0:   2000057c  .word   0x2000057c
		  
		  000005e4 <nrf_log_init>:
		--------------------
	(     724,     291c)	ret
		--------------------
		       71a:   f080 0501     eor.w  r5, r0, #1
		       71e:   b2ed          uxtb   r5, r5
		       720:   4628          mov    r0, r5
		       722:   b005          add    sp, #20
		->     724:   e8bd 83f0     ldmia.w    sp!, {r4, r5, r6, r7, r8, r9, pc}
		       728:   b2c0          uxtb   r0, r0
		       72a:   3003          adds   r0, #3
		       72c:   eb04 0080     add.w  r0, r4, r0, lsl #2
		       730:   a903          add    r1, sp, #12
		--------------------
	(     e5a,      b2c)	
		--------------------
		      ...
		  
		  00000e58 <app_error_fault_handler>:
		       e58:   b510          push   {r4, lr}
		->     e5a:   b672          cpsid  i
		       e5c:   f7ff fe66     bl b2c <nrf_log_panic>
		       e60:   f7ff fc16     bl 690 <nrf_log_frontend_dequeue>
		       e64:   2800          cmp    r0, #0
		       e66:   d1fb          bne.n  e60 <app_error_fault_handler+0x8>
		--------------------
	(     efa,     1036)	ret
		--------------------
		  
		  00000ef4 <app_util_critical_region_exit>:
		       ef4:   b508          push   {r3, lr}
		       ef6:   f7ff ffef     bl ed8 <app_util_enable_irq>
		->     efa:   bd08          pop    {r3, pc}
		  
		  00000efc <RTC1_IRQHandler>:
		       efc:   b508          push   {r3, lr}
		       efe:   4b03          ldr    r3, [pc, #12]  ; (f0c <RTC1_IRQHandler+0x10>)
		--------------------
	(    104e,     109a)	ret
		--------------------
		      1046:   4798          blx    r3
		      1048:   2300          movs   r3, #0
		      104a:   60a3          str    r3, [r4, #8]
		      104c:   bd10          pop    {r4, pc}
		->    104e:   4770          bx lr
		  
		  00001050 <nrf_fprintf>:
		      1050:   b40e          push   {r1, r2, r3}
		      1052:   b500          push   {lr}
		--------------------
	(    106c,      c06)	ret
		--------------------
		      1060:   f000 f87e     bl 1160 <nrf_fprintf_fmt>
		      1064:   b002          add    sp, #8
		      1066:   f85d eb04     ldr.w  lr, [sp], #4
		      106a:   b003          add    sp, #12
		->    106c:   4770          bx lr
		  
		  0000106e <buffer_add>:
		      106e:   b538          push   {r3, r4, r5, lr}
		      1070:   4604          mov    r4, r0
		--------------------
	(    106c,      d26)	ret
		--------------------
		      1060:   f000 f87e     bl 1160 <nrf_fprintf_fmt>
		      1064:   b002          add    sp, #8
		      1066:   f85d eb04     ldr.w  lr, [sp], #4
		      106a:   b003          add    sp, #12
		->    106c:   4770          bx lr
		  
		  0000106e <buffer_add>:
		      106e:   b538          push   {r3, r4, r5, lr}
		      1070:   4604          mov    r4, r0
		--------------------
	(    1158,     13d0)	ret
		--------------------
		      114e:   4648          mov    r0, r9
		      1150:   f7ff ff8d     bl 106e <buffer_add>
		      1154:   45c2          cmp    sl, r8
		      1156:   d1f7          bne.n  1148 <unsigned_print+0xac>
		->    1158:   e8bd 8ff8     ldmia.w    sp!, {r3, r4, r5, r6, r7, r8, r9, sl, fp, pc}
		      115c:   000030e4  .word   0x000030e4
		  
		  00001160 <nrf_fprintf_fmt>:
		      1160:   2900          cmp    r1, #0
		--------------------
	(    1534,     162c)	ret
		--------------------
		      152a:   4601          mov    r1, r0
		      152c:   4618          mov    r0, r3
		      152e:   f001 fc3d     bl 2dac <memcpy>
		      1532:   e7e9          b.n    1508 <memobj_op+0x54>
		->    1534:   e8bd 8ff8     ldmia.w    sp!, {r3, r4, r5, r6, r7, r8, r9, sl, fp, pc}
		  
		  00001538 <nrf_memobj_pool_init>:
		      1538:   b508          push   {r3, lr}
		      153a:   f7ff fd2b     bl f94 <nrf_balloc_init>
		--------------------
	(    15e8,      2fc)	ret
		--------------------
		      15de:   b508          push   {r3, lr}
		      15e0:   2101          movs   r1, #1
		      15e2:   3004          adds   r0, #4
		      15e4:   f7ff fcb6     bl f54 <nrf_atomic_u32_add>
		->    15e8:   bd08          pop    {r3, pc}
		  
		  000015ea <nrf_memobj_put>:
		      15ea:   b510          push   {r4, lr}
		      15ec:   4604          mov    r4, r0
		--------------------
	(    162e,      3b0)	ret
		--------------------
		      1624:   9200          str    r2, [sp, #0]
		      1626:   aa03          add    r2, sp, #12
		      1628:   f7ff ff44     bl 14b4 <memobj_op>
		      162c:   b005          add    sp, #20
		->    162e:   f85d fb04     ldr.w  pc, [sp], #4
		  
		  00001632 <nrf_ringbuf_init>:
		      1632:   6882          ldr    r2, [r0, #8]
		      1634:   2300          movs   r3, #0
		--------------------
	(    1dcc,     1dce)	dead
		--------------------
		  
		  00001dc8 <rx_byte>:
		      1dc8:   b082          sub    sp, #8
		      1dca:   698b          ldr    r3, [r1, #24]
		->    1dcc:   b183          cbz    r3, 1df0 <rx_byte+0x28>
		      1dce:   2300          movs   r3, #0
		      1dd0:   f8c0 3108     str.w  r3, [r0, #264]   ; 0x108
		      1dd4:   f8d0 3108     ldr.w  r3, [r0, #264]   ; 0x108
		      1dd8:   9301          str    r3, [sp, #4]
		--------------------
	(    1dcc,     1df0)	dead
		--------------------
		  
		  00001dc8 <rx_byte>:
		      1dc8:   b082          sub    sp, #8
		      1dca:   698b          ldr    r3, [r1, #24]
		->    1dcc:   b183          cbz    r3, 1df0 <rx_byte+0x28>
		      1dce:   2300          movs   r3, #0
		      1dd0:   f8c0 3108     str.w  r3, [r0, #264]   ; 0x108
		      1dd4:   f8d0 3108     ldr.w  r3, [r0, #264]   ; 0x108
		      1dd8:   9301          str    r3, [sp, #4]
		--------------------
	(    1e36,     1e8a)	dead
		--------------------
		      1e2a:   f413 7f00     tst.w  r3, #512 ; 0x200
		      1e2e:   d02c          beq.n  1e8a <nrfx_uart_0_irq_handler+0x6a>
		      1e30:   4b57          ldr    r3, [pc, #348] ; (1f90 <nrfx_uart_0_irq_handler+0x170>)
		      1e32:   f8d3 3124     ldr.w  r3, [r3, #292]   ; 0x124
		->    1e36:   b343          cbz    r3, 1e8a <nrfx_uart_0_irq_handler+0x6a>
		      1e38:   4b55          ldr    r3, [pc, #340] ; (1f90 <nrfx_uart_0_irq_handler+0x170>)
		      1e3a:   2200          movs   r2, #0
		      1e3c:   f8c3 2124     str.w  r2, [r3, #292]   ; 0x124
		      1e40:   f8d3 2124     ldr.w  r2, [r3, #292]   ; 0x124
		--------------------
	(    1e5c,     1e5e)	dead
		--------------------
		      1e52:   f893 3029     ldrb.w r3, [r3, #41]   ; 0x29
		      1e56:   b913          cbnz   r3, 1e5e <nrfx_uart_0_irq_handler+0x3e>
		      1e58:   4b4d          ldr    r3, [pc, #308] ; (1f90 <nrfx_uart_0_irq_handler+0x170>)
		      1e5a:   2201          movs   r2, #1
		->    1e5c:   605a          str    r2, [r3, #4]
		      1e5e:   2302          movs   r3, #2
		      1e60:   f88d 3008     strb.w r3, [sp, #8]
		      1e64:   4a4a          ldr    r2, [pc, #296] ; (1f90 <nrfx_uart_0_irq_handler+0x170>)
		      1e66:   f8d2 3480     ldr.w  r3, [r2, #1152]  ; 0x480
		--------------------
	(    1e9e,     1ea0)	dead
		--------------------
		      1e94:   d004          beq.n  1ea0 <nrfx_uart_0_irq_handler+0x80>
		      1e96:   4b3e          ldr    r3, [pc, #248] ; (1f90 <nrfx_uart_0_irq_handler+0x170>)
		      1e98:   f8d3 3108     ldr.w  r3, [r3, #264]   ; 0x108
		      1e9c:   2b00          cmp    r3, #0
		->    1e9e:   d132          bne.n  1f06 <nrfx_uart_0_irq_handler+0xe6>
		      1ea0:   4b3b          ldr    r3, [pc, #236] ; (1f90 <nrfx_uart_0_irq_handler+0x170>)
		      1ea2:   f8d3 311c     ldr.w  r3, [r3, #284]   ; 0x11c
		      1ea6:   b1ab          cbz    r3, 1ed4 <nrfx_uart_0_irq_handler+0xb4>
		      1ea8:   4b3a          ldr    r3, [pc, #232] ; (1f94 <nrfx_uart_0_irq_handler+0x174>)
		--------------------
	(    1ed2,     1ed4)	dead
		--------------------
		      1eca:   9b01          ldr    r3, [sp, #4]
		      1ecc:   4b31          ldr    r3, [pc, #196] ; (1f94 <nrfx_uart_0_irq_handler+0x174>)
		      1ece:   695b          ldr    r3, [r3, #20]
		      1ed0:   2b00          cmp    r3, #0
		->    1ed2:   d148          bne.n  1f66 <nrfx_uart_0_irq_handler+0x146>
		      1ed4:   4b2e          ldr    r3, [pc, #184] ; (1f90 <nrfx_uart_0_irq_handler+0x170>)
		      1ed6:   f8d3 3144     ldr.w  r3, [r3, #324]   ; 0x144
		      1eda:   b193          cbz    r3, 1f02 <nrfx_uart_0_irq_handler+0xe2>
		      1edc:   4b2c          ldr    r3, [pc, #176] ; (1f90 <nrfx_uart_0_irq_handler+0x170>)
		--------------------
	(    1ef2,     1ef4)	dead
		--------------------
		      1ee8:   9302          str    r3, [sp, #8]
		      1eea:   9b02          ldr    r3, [sp, #8]
		      1eec:   4b29          ldr    r3, [pc, #164] ; (1f94 <nrfx_uart_0_irq_handler+0x174>)
		      1eee:   f893 3029     ldrb.w r3, [r3, #41]   ; 0x29
		->    1ef2:   b113          cbz    r3, 1efa <nrfx_uart_0_irq_handler+0xda>
		      1ef4:   4b26          ldr    r3, [pc, #152] ; (1f90 <nrfx_uart_0_irq_handler+0x170>)
		      1ef6:   2201          movs   r2, #1
		      1ef8:   601a          str    r2, [r3, #0]
		      1efa:   4b26          ldr    r3, [pc, #152] ; (1f94 <nrfx_uart_0_irq_handler+0x174>)
		--------------------
	(    1ef2,     1efa)	dead
		--------------------
		      1ee8:   9302          str    r3, [sp, #8]
		      1eea:   9b02          ldr    r3, [sp, #8]
		      1eec:   4b29          ldr    r3, [pc, #164] ; (1f94 <nrfx_uart_0_irq_handler+0x174>)
		      1eee:   f893 3029     ldrb.w r3, [r3, #41]   ; 0x29
		->    1ef2:   b113          cbz    r3, 1efa <nrfx_uart_0_irq_handler+0xda>
		      1ef4:   4b26          ldr    r3, [pc, #152] ; (1f90 <nrfx_uart_0_irq_handler+0x170>)
		      1ef6:   2201          movs   r2, #1
		      1ef8:   601a          str    r2, [r3, #0]
		      1efa:   4b26          ldr    r3, [pc, #152] ; (1f94 <nrfx_uart_0_irq_handler+0x174>)
		--------------------
	(    1f22,     1f2a)	dead
		--------------------
		      1f18:   69e3          ldr    r3, [r4, #28]
		      1f1a:   b99b          cbnz   r3, 1f44 <nrfx_uart_0_irq_handler+0x124>
		      1f1c:   4b1d          ldr    r3, [pc, #116] ; (1f94 <nrfx_uart_0_irq_handler+0x174>)
		      1f1e:   f893 3029     ldrb.w r3, [r3, #41]   ; 0x29
		->    1f22:   b913          cbnz   r3, 1f2a <nrfx_uart_0_irq_handler+0x10a>
		      1f24:   4b1a          ldr    r3, [pc, #104] ; (1f90 <nrfx_uart_0_irq_handler+0x170>)
		      1f26:   2201          movs   r2, #1
		      1f28:   605a          str    r2, [r3, #4]
		      1f2a:   4b19          ldr    r3, [pc, #100] ; (1f90 <nrfx_uart_0_irq_handler+0x170>)
		--------------------

spi-o2: 20 | 201 | 3 dead | 16 ret | 1 nop
	(     246,      248)	nop
		--------------------
		  
		  00000240 <_stack_init>:
		       240:   f5a3 3a80     sub.w  sl, r3, #65536   ; 0x10000
		       244:   4770          bx lr
		->     246:   bf00          nop
		  
		  00000248 <_mainCRTStartup>:
		       248:   4b15          ldr    r3, [pc, #84]  ; (2a0 <_mainCRTStartup+0x58>)
		       24a:   2b00          cmp    r3, #0
		--------------------
	(     7d2,      a90)	ret
		--------------------
		       7ca:   1ac0          subs   r0, r0, r3
		       7cc:   bf18          it ne
		       7ce:   2001          movne  r0, #1
		       7d0:   b005          add    sp, #20
		->     7d2:   e8bd 83f0     ldmia.w    sp!, {r4, r5, r6, r7, r8, r9, pc}
		       7d6:   f7ff ff85     bl 6e4 <nrf_log_frontend_dequeue>
		       7da:   2800          cmp    r0, #0
		       7dc:   d0f3          beq.n  7c6 <nrf_log_frontend_dequeue+0xe2>
		       7de:   f7ff ff81     bl 6e4 <nrf_log_frontend_dequeue>
		--------------------
	(     7f8,      7e2)	ret
		--------------------
		       7f0:   441d          add    r5, r3
		       7f2:   e79a          b.n    72a <nrf_log_frontend_dequeue+0x46>
		       7f4:   60a6          str    r6, [r4, #8]
		       7f6:   b005          add    sp, #20
		->     7f8:   e8bd 83f0     ldmia.w    sp!, {r4, r5, r6, r7, r8, r9, pc}
		       7fc:   2000          movs   r0, #0
		       7fe:   b005          add    sp, #20
		       800:   e8bd 83f0     ldmia.w    sp!, {r4, r5, r6, r7, r8, r9, pc}
		       804:   f8bd 3006     ldrh.w r3, [sp, #6]
		--------------------
	(     a8a,      e7e)	ret
		--------------------
		       a80:   f845 4027     str.w  r4, [r5, r7, lsl #2]
		       a84:   782b          ldrb   r3, [r5, #0]
		       a86:   b90b          cbnz   r3, a8c <nrf_log_frontend_std_0+0x54>
		       a88:   b003          add    sp, #12
		->     a8a:   bdf0          pop    {r4, r5, r6, r7, pc}
		       a8c:   f7ff fe2a     bl 6e4 <nrf_log_frontend_dequeue>
		       a90:   2800          cmp    r0, #0
		       a92:   d0f9          beq.n  a88 <nrf_log_frontend_std_0+0x50>
		       a94:   f7ff fe26     bl 6e4 <nrf_log_frontend_dequeue>
		--------------------
	(     ecc,     1b84)	ret
		--------------------
		       ec4:   3b01          subs   r3, #1
		       ec6:   6013          str    r3, [r2, #0]
		       ec8:   b903          cbnz   r3, ecc <app_util_critical_region_exit+0xc>
		       eca:   b662          cpsie  i
		->     ecc:   4770          bx lr
		       ece:   bf00          nop
		       ed0:   20000620  .word   0x20000620
		  
		  00000ed4 <RTC1_IRQHandler>:
		--------------------
	(     efa,      9e8)	ret
		--------------------
		       eee:   460a          mov    r2, r1
		       ef0:   e843 2c00     strex  ip, r2, [r3]
		       ef4:   f09c 0f00     teq    ip, #0
		       ef8:   d1f7          bne.n  eea <nrf_atomic_u32_fetch_store+0x2>
		->     efa:   4770          bx lr
		  
		  00000efc <nrf_atomic_u32_add>:
		       efc:   4603          mov    r3, r0
		       efe:   e853 2f00     ldrex  r2, [r3]
		--------------------
	(    1024,     15f8)	ret
		--------------------
		      101c:   6900          ldr    r0, [r0, #16]
		      101e:   4798          blx    r3
		      1020:   2300          movs   r3, #0
		      1022:   60a3          str    r3, [r4, #8]
		->    1024:   bd10          pop    {r4, pc}
		      1026:   4770          bx lr
		  
		  00001028 <nrf_fprintf>:
		      1028:   b40e          push   {r1, r2, r3}
		--------------------
	(    1026,     1176)	ret
		--------------------
		      101e:   4798          blx    r3
		      1020:   2300          movs   r3, #0
		      1022:   60a3          str    r3, [r4, #8]
		      1024:   bd10          pop    {r4, pc}
		->    1026:   4770          bx lr
		  
		  00001028 <nrf_fprintf>:
		      1028:   b40e          push   {r1, r2, r3}
		      102a:   b500          push   {lr}
		--------------------
	(    1026,     153c)	ret
		--------------------
		      101e:   4798          blx    r3
		      1020:   2300          movs   r3, #0
		      1022:   60a3          str    r3, [r4, #8]
		      1024:   bd10          pop    {r4, pc}
		->    1026:   4770          bx lr
		  
		  00001028 <nrf_fprintf>:
		      1028:   b40e          push   {r1, r2, r3}
		      102a:   b500          push   {lr}
		--------------------
	(    1026,     1652)	ret
		--------------------
		      101e:   4798          blx    r3
		      1020:   2300          movs   r3, #0
		      1022:   60a3          str    r3, [r4, #8]
		      1024:   bd10          pop    {r4, pc}
		->    1026:   4770          bx lr
		  
		  00001028 <nrf_fprintf>:
		      1028:   b40e          push   {r1, r2, r3}
		      102a:   b500          push   {lr}
		--------------------
	(    1044,      be8)	ret
		--------------------
		      1038:   f000 f8ae     bl 1198 <nrf_fprintf_fmt>
		      103c:   b002          add    sp, #8
		      103e:   f85d eb04     ldr.w  lr, [sp], #4
		      1042:   b003          add    sp, #12
		->    1044:   4770          bx lr
		      1046:   bf00          nop
		  
		  00001048 <unsigned_print>:
		      1048:   e92d 4ff0     stmdb  sp!, {r4, r5, r6, r7, r8, r9, sl, fp, lr}
		--------------------
	(    1044,      c5e)	ret
		--------------------
		      1038:   f000 f8ae     bl 1198 <nrf_fprintf_fmt>
		      103c:   b002          add    sp, #8
		      103e:   f85d eb04     ldr.w  lr, [sp], #4
		      1042:   b003          add    sp, #12
		->    1044:   4770          bx lr
		      1046:   bf00          nop
		  
		  00001048 <unsigned_print>:
		      1048:   e92d 4ff0     stmdb  sp!, {r4, r5, r6, r7, r8, r9, sl, fp, lr}
		--------------------
	(    1044,      c8e)	ret
		--------------------
		      1038:   f000 f8ae     bl 1198 <nrf_fprintf_fmt>
		      103c:   b002          add    sp, #8
		      103e:   f85d eb04     ldr.w  lr, [sp], #4
		      1042:   b003          add    sp, #12
		->    1044:   4770          bx lr
		      1046:   bf00          nop
		  
		  00001048 <unsigned_print>:
		      1048:   e92d 4ff0     stmdb  sp!, {r4, r5, r6, r7, r8, r9, sl, fp, lr}
		--------------------
	(    16fc,     1822)	ret
		--------------------
		      16f2:   d1e8          bne.n  16c6 <memobj_op+0x4a>
		      16f4:   4619          mov    r1, r3
		      16f6:   f001 fc29     bl 2f4c <memcpy>
		      16fa:   e7e7          b.n    16cc <memobj_op+0x50>
		->    16fc:   e8bd 87f0     ldmia.w    sp!, {r4, r5, r6, r7, r8, r9, sl, pc}
		  
		  00001700 <nrf_memobj_pool_init>:
		      1700:   f7ff bc2c     b.w    f5c <nrf_balloc_init>
		  
		--------------------
	(    180c,      872)	ret
		--------------------
		      1802:   aa03          add    r2, sp, #12
		      1804:   9403          str    r4, [sp, #12]
		      1806:   f7ff ff39     bl 167c <memobj_op>
		      180a:   b005          add    sp, #20
		->    180c:   bd30          pop    {r4, r5, pc}
		      180e:   bf00          nop
		  
		  00001810 <nrf_memobj_read>:
		      1810:   b530          push   {r4, r5, lr}
		--------------------
	(    20d0,     20d2)	dead
		--------------------
		      20c8:   9202          str    r2, [sp, #8]
		      20ca:   9a02          ldr    r2, [sp, #8]
		      20cc:   695a          ldr    r2, [r3, #20]
		      20ce:   2a00          cmp    r2, #0
		->    20d0:   d09d          beq.n  200e <Heap_Size+0xe>
		      20d2:   e9d3 2101     ldrd   r2, r1, [r3, #4]
		      20d6:   695c          ldr    r4, [r3, #20]
		      20d8:   f88d 0018     strb.w r0, [sp, #24]
		      20dc:   e9cd 1407     strd   r1, r4, [sp, #28]
		--------------------
	(    20e8,     200e)	dead
		--------------------
		      20e0:   6158          str    r0, [r3, #20]
		      20e2:   6819          ldr    r1, [r3, #0]
		      20e4:   a806          add    r0, sp, #24
		      20e6:   4790          blx    r2
		->    20e8:   e791          b.n    200e <Heap_Size+0xe>
		      20ea:   f8c2 1108     str.w  r1, [r2, #264]   ; 0x108
		      20ee:   f8d2 0108     ldr.w  r0, [r2, #264]   ; 0x108
		      20f2:   9005          str    r0, [sp, #20]
		      20f4:   9805          ldr    r0, [sp, #20]
		--------------------
	(    2100,     2108)	dead
		--------------------
		      20f4:   9805          ldr    r0, [sp, #20]
		      20f6:   f8d2 2518     ldr.w  r2, [r2, #1304]  ; 0x518
		      20fa:   e7c7          b.n    208c <Heap_Size+0x8c>
		      20fc:   f893 2029     ldrb.w r2, [r3, #41]   ; 0x29
		->    2100:   b912          cbnz   r2, 2108 <Heap_Size+0x108>
		      2102:   4a0b          ldr    r2, [pc, #44]  ; (2130 <Heap_Size+0x130>)
		      2104:   2101          movs   r1, #1
		      2106:   6051          str    r1, [r2, #4]
		      2108:   4a09          ldr    r2, [pc, #36]  ; (2130 <Heap_Size+0x130>)
		--------------------
	(    2ed0,     2a7c)	ret
		--------------------
		      2ec8:   4402          add    r2, r0
		      2eca:   4603          mov    r3, r0
		      2ecc:   4293          cmp    r3, r2
		      2ece:   d100          bne.n  2ed2 <memset+0xa>
		->    2ed0:   4770          bx lr
		      2ed2:   f803 1b01     strb.w r1, [r3], #1
		      2ed6:   e7f9          b.n    2ecc <memset+0x4>
		  
		  00002ed8 <__libc_init_array>:
		--------------------
	(    2f76,     29e4)	ret
		--------------------
		      2f6e:   2a00          cmp    r2, #0
		      2f70:   d1fb          bne.n  2f6a <strlen+0x2>
		      2f72:   1a18          subs   r0, r3, r0
		      2f74:   3801          subs   r0, #1
		->    2f76:   4770          bx lr
		  
		  00002f78 <__register_exitproc>:
		      2f78:   e92d 43f8     stmdb  sp!, {r3, r4, r5, r6, r7, r8, r9, lr}
		      2f7c:   f8df 80b0     ldr.w  r8, [pc, #176]   ; 3030 <__register_exitproc+0xb8>
		--------------------

spi-o3: 20 | 196 | 
	(     73e,      a62)	ret
		--------------------
		       736:   1ac0          subs   r0, r0, r3
		       738:   bf18          it ne
		       73a:   2001          movne  r0, #1
		       73c:   b005          add    sp, #20
		->     73e:   e8bd 83f0     ldmia.w    sp!, {r4, r5, r6, r7, r8, r9, pc}
		       742:   880b          ldrh   r3, [r1, #0]
		       744:   3502          adds   r5, #2
		       746:   f3c3 1383     ubfx   r3, r3, #6, #4
		       74a:   441d          add    r5, r3
		--------------------
	(     75a,      96a)	ret
		--------------------
		       750:   b005          add    sp, #20
		       752:   e8bd 83f0     ldmia.w    sp!, {r4, r5, r6, r7, r8, r9, pc}
		       756:   2000          movs   r0, #0
		       758:   b005          add    sp, #20
		->     75a:   e8bd 83f0     ldmia.w    sp!, {r4, r5, r6, r7, r8, r9, pc}
		       75e:   f8bd 3006     ldrh.w r3, [sp, #6]
		       762:   4858          ldr    r0, [pc, #352] ; (8c4 <nrf_log_frontend_dequeue+0x240>)
		       764:   f3c3 1889     ubfx   r8, r3, #6, #10
		       768:   4645          mov    r5, r8
		--------------------
	(     eb8,      fcc)	ret
		--------------------
		       eb0:   3b01          subs   r3, #1
		       eb2:   6013          str    r3, [r2, #0]
		       eb4:   b903          cbnz   r3, eb8 <app_util_critical_region_exit+0xc>
		       eb6:   b662          cpsie  i
		->     eb8:   4770          bx lr
		       eba:   bf00          nop
		       ebc:   20000624  .word   0x20000624
		  
		  00000ec0 <RTC1_IRQHandler>:
		--------------------
	(     fc2,     1744)	ret
		--------------------
		       fb8:   710b          strb   r3, [r1, #4]
		       fba:   2000          movs   r0, #0
		       fbc:   f7ff ff76     bl eac <app_util_critical_region_exit>
		       fc0:   4620          mov    r0, r4
		->     fc2:   bd38          pop    {r3, r4, r5, pc}
		       fc4:   2400          movs   r4, #0
		       fc6:   2000          movs   r0, #0
		       fc8:   f7ff ff70     bl eac <app_util_critical_region_exit>
		       fcc:   4620          mov    r0, r4
		--------------------
	(     ffa,      ffc)	nop
		--------------------
		       fee:   701c          strb   r4, [r3, #0]
		       ff0:   e8bd 4038     ldmia.w    sp!, {r3, r4, r5, lr}
		       ff4:   2000          movs   r0, #0
		       ff6:   f7ff bf59     b.w    eac <app_util_critical_region_exit>
		->     ffa:   bf00          nop
		  
		  00000ffc <nrf_fprintf_buffer_flush>:
		       ffc:   6882          ldr    r2, [r0, #8]
		       ffe:   b142          cbz    r2, 1012 <nrf_fprintf_buffer_flush+0x16>
		--------------------
	(    1010,     1132)	ret
		--------------------
		      1008:   6900          ldr    r0, [r0, #16]
		      100a:   4798          blx    r3
		      100c:   2300          movs   r3, #0
		      100e:   60a3          str    r3, [r4, #8]
		->    1010:   bd10          pop    {r4, pc}
		      1012:   4770          bx lr
		  
		  00001014 <nrf_fprintf>:
		      1014:   b40e          push   {r1, r2, r3}
		--------------------
	(    1012,     1610)	ret
		--------------------
		      100a:   4798          blx    r3
		      100c:   2300          movs   r3, #0
		      100e:   60a3          str    r3, [r4, #8]
		      1010:   bd10          pop    {r4, pc}
		->    1012:   4770          bx lr
		  
		  00001014 <nrf_fprintf>:
		      1014:   b40e          push   {r1, r2, r3}
		      1016:   b500          push   {lr}
		--------------------
	(    1012,     16ce)	ret
		--------------------
		      100a:   4798          blx    r3
		      100c:   2300          movs   r3, #0
		      100e:   60a3          str    r3, [r4, #8]
		      1010:   bd10          pop    {r4, pc}
		->    1012:   4770          bx lr
		  
		  00001014 <nrf_fprintf>:
		      1014:   b40e          push   {r1, r2, r3}
		      1016:   b500          push   {lr}
		--------------------
	(    1030,      c2e)	ret
		--------------------
		      1024:   f000 f8b6     bl 1194 <nrf_fprintf_fmt>
		      1028:   b002          add    sp, #8
		      102a:   f85d eb04     ldr.w  lr, [sp], #4
		      102e:   b003          add    sp, #12
		->    1030:   4770          bx lr
		      1032:   bf00          nop
		  
		  00001034 <unsigned_print>:
		      1034:   e92d 4ff0     stmdb  sp!, {r4, r5, r6, r7, r8, r9, sl, fp, lr}
		--------------------
	(    1114,     13de)	ret
		--------------------
		      110a:   d214          bcs.n  1136 <unsigned_print+0x102>
		      110c:   f1b9 0f00     cmp.w  r9, #0
		      1110:   d1ef          bne.n  10f2 <unsigned_print+0xbe>
		      1112:   b003          add    sp, #12
		->    1114:   e8bd 8ff0     ldmia.w    sp!, {r4, r5, r6, r7, r8, r9, sl, fp, pc}
		      1118:   1c51          adds   r1, r2, #1
		      111a:   6833          ldr    r3, [r6, #0]
		      111c:   60b1          str    r1, [r6, #8]
		      111e:   f04f 010d     mov.w  r1, #13
		--------------------
	(    17dc,      380)	ret
		--------------------
		      17d2:   3501          adds   r5, #1
		      17d4:   f7ff fbfc     bl fd0 <nrf_balloc_free>
		      17d8:   42af          cmp    r7, r5
		      17da:   d8f6          bhi.n  17ca <nrf_memobj_put+0x36>
		->    17dc:   e8bd 81f0     ldmia.w    sp!, {r4, r5, r6, r7, r8, pc}
		      17e0:   6820          ldr    r0, [r4, #0]
		      17e2:   4621          mov    r1, r4
		      17e4:   e8bd 41f0     ldmia.w    sp!, {r4, r5, r6, r7, r8, lr}
		      17e8:   f7ff bbf2     b.w    fd0 <nrf_balloc_free>
		--------------------
	(    1850,      796)	ret
		--------------------
		      1848:   bf28          it cs
		      184a:   462e          movcs  r6, r5
		      184c:   2d00          cmp    r5, #0
		      184e:   d1ed          bne.n  182c <nrf_memobj_write+0x40>
		->    1850:   e8bd 83f8     ldmia.w    sp!, {r3, r4, r5, r6, r7, r8, r9, pc}
		  
		  00001854 <nrf_memobj_read>:
		      1854:   e92d 43f8     stmdb  sp!, {r3, r4, r5, r6, r7, r8, r9, lr}
		      1858:   4604          mov    r4, r0
		--------------------
	(    1ee2,     1fa4)	ret
		--------------------
		      1ed8:   601d          str    r5, [r3, #0]
		      1eda:   711a          strb   r2, [r3, #4]
		      1edc:   f7fe ffe6     bl eac <app_util_critical_region_exit>
		      1ee0:   4620          mov    r0, r4
		->    1ee2:   bd38          pop    {r3, r4, r5, pc}
		      1ee4:   2000          movs   r0, #0
		      1ee6:   bd38          pop    {r3, r4, r5, pc}
		      1ee8:   40002000  .word   0x40002000
		      1eec:   200006b4  .word   0x200006b4
		--------------------
	(    22cc,     23a0)	dead
		--------------------
		      22c2:   4a71          ldr    r2, [pc, #452] ; (2488 <nrfx_uart_0_irq_handler+0x1c8>)
		      22c4:   f8d2 3304     ldr.w  r3, [r2, #772]   ; 0x304
		      22c8:   0599          lsls   r1, r3, #22
		      22ca:   b08a          sub    sp, #40    ; 0x28
		->    22cc:   d568          bpl.n  23a0 <nrfx_uart_0_irq_handler+0xe0>
		      22ce:   f8d2 3124     ldr.w  r3, [r2, #292]   ; 0x124
		      22d2:   2b00          cmp    r3, #0
		      22d4:   d064          beq.n  23a0 <nrfx_uart_0_irq_handler+0xe0>
		      22d6:   2300          movs   r3, #0
		--------------------
	(    22f2,     22f8)	dead
		--------------------
		      22e6:   4b69          ldr    r3, [pc, #420] ; (248c <nrfx_uart_0_irq_handler+0x1cc>)
		      22e8:   9801          ldr    r0, [sp, #4]
		      22ea:   f8c2 1308     str.w  r1, [r2, #776]   ; 0x308
		      22ee:   f893 1029     ldrb.w r1, [r3, #41]   ; 0x29
		->    22f2:   b909          cbnz   r1, 22f8 <nrfx_uart_0_irq_handler+0x38>
		      22f4:   2101          movs   r1, #1
		      22f6:   6051          str    r1, [r2, #4]
		      22f8:   4963          ldr    r1, [pc, #396] ; (2488 <nrfx_uart_0_irq_handler+0x1c8>)
		      22fa:   2202          movs   r2, #2
		--------------------
	(    2320,     2322)	dead
		--------------------
		      2314:   ed83 7b06     vstr   d7, [r3, #24]
		      2318:   e9d3 1200     ldrd   r1, r2, [r3]
		      231c:   9007          str    r0, [sp, #28]
		      231e:   a806          add    r0, sp, #24
		->    2320:   4790          blx    r2
		      2322:   4a59          ldr    r2, [pc, #356] ; (2488 <nrfx_uart_0_irq_handler+0x1c8>)
		      2324:   f8d2 311c     ldr.w  r3, [r2, #284]   ; 0x11c
		      2328:   b1c3          cbz    r3, 235c <nrfx_uart_0_irq_handler+0x9c>
		      232a:   4b58          ldr    r3, [pc, #352] ; (248c <nrfx_uart_0_irq_handler+0x1cc>)
		--------------------
	(    247a,     2322)	dead
		--------------------
		      246e:   e9d3 1200     ldrd   r1, r2, [r3]
		      2472:   e9cd 0407     strd   r0, r4, [sp, #28]
		      2476:   a806          add    r0, sp, #24
		      2478:   4790          blx    r2
		->    247a:   e752          b.n    2322 <nrfx_uart_0_irq_handler+0x62>
		      247c:   f3af 8000     nop.w
		      ...
		      2488:   40002000  .word   0x40002000
		      248c:   200006e0  .word   0x200006e0
		--------------------
	(    32ae,      a82)	ret
		--------------------
		      32a4:   440a          add    r2, r1
		      32a6:   4291          cmp    r1, r2
		      32a8:   f100 33ff     add.w  r3, r0, #4294967295  ; 0xffffffff
		      32ac:   d100          bne.n  32b0 <memcpy+0xc>
		->    32ae:   4770          bx lr
		      32b0:   b510          push   {r4, lr}
		      32b2:   f811 4b01     ldrb.w r4, [r1], #1
		      32b6:   f803 4f01     strb.w r4, [r3, #1]!
		      32ba:   4291          cmp    r1, r2
		--------------------
	(    32be,     18a4)	ret
		--------------------
		      32b2:   f811 4b01     ldrb.w r4, [r1], #1
		      32b6:   f803 4f01     strb.w r4, [r3, #1]!
		      32ba:   4291          cmp    r1, r2
		      32bc:   d1f9          bne.n  32b2 <memcpy+0xe>
		->    32be:   bd10          pop    {r4, pc}
		  
		  000032c0 <strlen>:
		      32c0:   4603          mov    r3, r0
		      32c2:   f813 2b01     ldrb.w r2, [r3], #1
		--------------------
	(    32ce,     2d4c)	ret
		--------------------
		      32c6:   2a00          cmp    r2, #0
		      32c8:   d1fb          bne.n  32c2 <strlen+0x2>
		      32ca:   1a18          subs   r0, r3, r0
		      32cc:   3801          subs   r0, #1
		->    32ce:   4770          bx lr
		  
		  000032d0 <__register_exitproc>:
		      32d0:   e92d 43f8     stmdb  sp!, {r3, r4, r5, r6, r7, r8, r9, lr}
		      32d4:   f8df 80b0     ldr.w  r8, [pc, #176]   ; 3388 <__register_exitproc+0xb8>
		--------------------

timer-o0: 20 | 95 | 19 jt | 1 ret
	(     302,      3de)	ret
		--------------------
		       2f8:   4618          mov    r0, r3
		       2fa:   370c          adds   r7, #12
		       2fc:   46bd          mov    sp, r7
		       2fe:   f85d 7b04     ldr.w  r7, [sp], #4
		->     302:   4770          bx lr
		  
		  00000304 <nrf_gpio_cfg>:
		       304:   b580          push   {r7, lr}
		       306:   b084          sub    sp, #16
		--------------------
	(     e2e,      e48)	jt
		--------------------
		       e26:   3b03          subs   r3, #3
		       e28:   2b03          cmp    r3, #3
		       e2a:   d813          bhi.n  e54 <nrf52_errata_16+0x50>
		       e2c:   a201          add    r2, pc, #4 ; (adr r2, e34 <nrf52_errata_16+0x30>)
		->     e2e:   f852 f023     ldr.w  pc, [r2, r3, lsl #2]
		       e32:   bf00          nop
		       e34:   00000e45  .word   0x00000e45
		       e38:   00000e49  .word   0x00000e49
		       e3c:   00000e4d  .word   0x00000e4d
		--------------------
	(     e4e,      e5a)	jt
		--------------------
		       e46:   e008          b.n    e5a <nrf52_errata_16+0x56>
		       e48:   2300          movs   r3, #0
		       e4a:   e006          b.n    e5a <nrf52_errata_16+0x56>
		       e4c:   2300          movs   r3, #0
		->     e4e:   e004          b.n    e5a <nrf52_errata_16+0x56>
		       e50:   2300          movs   r3, #0
		       e52:   e002          b.n    e5a <nrf52_errata_16+0x56>
		       e54:   2300          movs   r3, #0
		       e56:   e000          b.n    e5a <nrf52_errata_16+0x56>
		--------------------
	(     ed2,      ede)	jt
		--------------------
		       eca:   e008          b.n    ede <nrf52_errata_31+0x6e>
		       ecc:   2301          movs   r3, #1
		       ece:   e006          b.n    ede <nrf52_errata_31+0x6e>
		       ed0:   2301          movs   r3, #1
		->     ed2:   e004          b.n    ede <nrf52_errata_31+0x6e>
		       ed4:   2301          movs   r3, #1
		       ed6:   e002          b.n    ede <nrf52_errata_31+0x6e>
		       ed8:   2301          movs   r3, #1
		       eda:   e000          b.n    ede <nrf52_errata_31+0x6e>
		--------------------
	(     ed6,      ede)	jt
		--------------------
		       ece:   e006          b.n    ede <nrf52_errata_31+0x6e>
		       ed0:   2301          movs   r3, #1
		       ed2:   e004          b.n    ede <nrf52_errata_31+0x6e>
		       ed4:   2301          movs   r3, #1
		->     ed6:   e002          b.n    ede <nrf52_errata_31+0x6e>
		       ed8:   2301          movs   r3, #1
		       eda:   e000          b.n    ede <nrf52_errata_31+0x6e>
		       edc:   2300          movs   r3, #0
		       ede:   4618          mov    r0, r3
		--------------------
	(     f26,      f48)	jt
		--------------------
		       f1e:   3b03          subs   r3, #3
		       f20:   2b03          cmp    r3, #3
		       f22:   d813          bhi.n  f4c <nrf52_errata_32+0x50>
		       f24:   a201          add    r2, pc, #4 ; (adr r2, f2c <nrf52_errata_32+0x30>)
		->     f26:   f852 f023     ldr.w  pc, [r2, r3, lsl #2]
		       f2a:   bf00          nop
		       f2c:   00000f3d  .word   0x00000f3d
		       f30:   00000f41  .word   0x00000f41
		       f34:   00000f45  .word   0x00000f45
		--------------------
	(     f46,      f52)	jt
		--------------------
		       f3e:   e008          b.n    f52 <nrf52_errata_32+0x56>
		       f40:   2300          movs   r3, #0
		       f42:   e006          b.n    f52 <nrf52_errata_32+0x56>
		       f44:   2300          movs   r3, #0
		->     f46:   e004          b.n    f52 <nrf52_errata_32+0x56>
		       f48:   2300          movs   r3, #0
		       f4a:   e002          b.n    f52 <nrf52_errata_32+0x56>
		       f4c:   2300          movs   r3, #0
		       f4e:   e000          b.n    f52 <nrf52_errata_32+0x56>
		--------------------
	(     fce,      fd6)	jt
		--------------------
		       fc6:   e006          b.n    fd6 <nrf52_errata_36+0x6e>
		       fc8:   2301          movs   r3, #1
		       fca:   e004          b.n    fd6 <nrf52_errata_36+0x6e>
		       fcc:   2301          movs   r3, #1
		->     fce:   e002          b.n    fd6 <nrf52_errata_36+0x6e>
		       fd0:   2301          movs   r3, #1
		       fd2:   e000          b.n    fd6 <nrf52_errata_36+0x6e>
		       fd4:   2300          movs   r3, #0
		       fd6:   4618          mov    r0, r3
		--------------------
	(    101e,     1038)	jt
		--------------------
		      1016:   3b03          subs   r3, #3
		      1018:   2b03          cmp    r3, #3
		      101a:   d813          bhi.n  1044 <nrf52_errata_37+0x50>
		      101c:   a201          add    r2, pc, #4 ; (adr r2, 1024 <nrf52_errata_37+0x30>)
		->    101e:   f852 f023     ldr.w  pc, [r2, r3, lsl #2]
		      1022:   bf00          nop
		      1024:   00001035  .word   0x00001035
		      1028:   00001039  .word   0x00001039
		      102c:   0000103d  .word   0x0000103d
		--------------------
	(    101e,     103c)	jt
		--------------------
		      1016:   3b03          subs   r3, #3
		      1018:   2b03          cmp    r3, #3
		      101a:   d813          bhi.n  1044 <nrf52_errata_37+0x50>
		      101c:   a201          add    r2, pc, #4 ; (adr r2, 1024 <nrf52_errata_37+0x30>)
		->    101e:   f852 f023     ldr.w  pc, [r2, r3, lsl #2]
		      1022:   bf00          nop
		      1024:   00001035  .word   0x00001035
		      1028:   00001039  .word   0x00001039
		      102c:   0000103d  .word   0x0000103d
		--------------------
	(    108a,     10a8)	jt
		--------------------
		      1082:   3b03          subs   r3, #3
		      1084:   2b03          cmp    r3, #3
		      1086:   d813          bhi.n  10b0 <nrf52_errata_57+0x50>
		      1088:   a201          add    r2, pc, #4 ; (adr r2, 1090 <nrf52_errata_57+0x30>)
		->    108a:   f852 f023     ldr.w  pc, [r2, r3, lsl #2]
		      108e:   bf00          nop
		      1090:   000010a1  .word   0x000010a1
		      1094:   000010a5  .word   0x000010a5
		      1098:   000010a9  .word   0x000010a9
		--------------------
	(    112a,     113a)	jt
		--------------------
		      1120:   00001131  .word   0x00001131
		      1124:   2300          movs   r3, #0
		      1126:   e008          b.n    113a <nrf52_errata_66+0x6e>
		      1128:   2300          movs   r3, #0
		->    112a:   e006          b.n    113a <nrf52_errata_66+0x6e>
		      112c:   2301          movs   r3, #1
		      112e:   e004          b.n    113a <nrf52_errata_66+0x6e>
		      1130:   2301          movs   r3, #1
		      1132:   e002          b.n    113a <nrf52_errata_66+0x6e>
		--------------------
	(    112e,     113a)	jt
		--------------------
		      1126:   e008          b.n    113a <nrf52_errata_66+0x6e>
		      1128:   2300          movs   r3, #0
		      112a:   e006          b.n    113a <nrf52_errata_66+0x6e>
		      112c:   2301          movs   r3, #1
		->    112e:   e004          b.n    113a <nrf52_errata_66+0x6e>
		      1130:   2301          movs   r3, #1
		      1132:   e002          b.n    113a <nrf52_errata_66+0x6e>
		      1134:   2301          movs   r3, #1
		      1136:   e000          b.n    113a <nrf52_errata_66+0x6e>
		--------------------
	(    119a,     11bc)	jt
		--------------------
		      1192:   3b03          subs   r3, #3
		      1194:   2b03          cmp    r3, #3
		      1196:   d813          bhi.n  11c0 <nrf52_errata_108+0x68>
		      1198:   a201          add    r2, pc, #4 ; (adr r2, 11a0 <nrf52_errata_108+0x48>)
		->    119a:   f852 f023     ldr.w  pc, [r2, r3, lsl #2]
		      119e:   bf00          nop
		      11a0:   000011b1  .word   0x000011b1
		      11a4:   000011b5  .word   0x000011b5
		      11a8:   000011b9  .word   0x000011b9
		--------------------
	(    11b2,     11c6)	jt
		--------------------
		      11a4:   000011b5  .word   0x000011b5
		      11a8:   000011b9  .word   0x000011b9
		      11ac:   000011bd  .word   0x000011bd
		      11b0:   2301          movs   r3, #1
		->    11b2:   e008          b.n    11c6 <nrf52_errata_108+0x6e>
		      11b4:   2301          movs   r3, #1
		      11b6:   e006          b.n    11c6 <nrf52_errata_108+0x6e>
		      11b8:   2301          movs   r3, #1
		      11ba:   e004          b.n    11c6 <nrf52_errata_108+0x6e>
		--------------------
	(    11be,     11c6)	jt
		--------------------
		      11b6:   e006          b.n    11c6 <nrf52_errata_108+0x6e>
		      11b8:   2301          movs   r3, #1
		      11ba:   e004          b.n    11c6 <nrf52_errata_108+0x6e>
		      11bc:   2301          movs   r3, #1
		->    11be:   e002          b.n    11c6 <nrf52_errata_108+0x6e>
		      11c0:   2301          movs   r3, #1
		      11c2:   e000          b.n    11c6 <nrf52_errata_108+0x6e>
		      11c4:   2300          movs   r3, #0
		      11c6:   4618          mov    r0, r3
		--------------------
	(    1226,     1244)	jt
		--------------------
		      121e:   3b03          subs   r3, #3
		      1220:   2b03          cmp    r3, #3
		      1222:   d813          bhi.n  124c <nrf52_errata_136+0x68>
		      1224:   a201          add    r2, pc, #4 ; (adr r2, 122c <nrf52_errata_136+0x48>)
		->    1226:   f852 f023     ldr.w  pc, [r2, r3, lsl #2]
		      122a:   bf00          nop
		      122c:   0000123d  .word   0x0000123d
		      1230:   00001241  .word   0x00001241
		      1234:   00001245  .word   0x00001245
		--------------------
	(    1242,     1252)	jt
		--------------------
		      1238:   00001249  .word   0x00001249
		      123c:   2301          movs   r3, #1
		      123e:   e008          b.n    1252 <nrf52_errata_136+0x6e>
		      1240:   2301          movs   r3, #1
		->    1242:   e006          b.n    1252 <nrf52_errata_136+0x6e>
		      1244:   2301          movs   r3, #1
		      1246:   e004          b.n    1252 <nrf52_errata_136+0x6e>
		      1248:   2301          movs   r3, #1
		      124a:   e002          b.n    1252 <nrf52_errata_136+0x6e>
		--------------------
	(    12ae,     12be)	jt
		--------------------
		      12a4:   000012b5  .word   0x000012b5
		      12a8:   2300          movs   r3, #0
		      12aa:   e008          b.n    12be <nrf52_errata_182+0x4e>
		      12ac:   2300          movs   r3, #0
		->    12ae:   e006          b.n    12be <nrf52_errata_182+0x4e>
		      12b0:   2300          movs   r3, #0
		      12b2:   e004          b.n    12be <nrf52_errata_182+0x4e>
		      12b4:   2301          movs   r3, #1
		      12b6:   e002          b.n    12be <nrf52_errata_182+0x4e>
		--------------------
	(    12b6,     12be)	jt
		--------------------
		      12ae:   e006          b.n    12be <nrf52_errata_182+0x4e>
		      12b0:   2300          movs   r3, #0
		      12b2:   e004          b.n    12be <nrf52_errata_182+0x4e>
		      12b4:   2301          movs   r3, #1
		->    12b6:   e002          b.n    12be <nrf52_errata_182+0x4e>
		      12b8:   2301          movs   r3, #1
		      12ba:   e000          b.n    12be <nrf52_errata_182+0x4e>
		      12bc:   2300          movs   r3, #0
		      12be:   4618          mov    r0, r3
		--------------------

timer-o1: 5 | 5 | 1 ret | 2 nop
	(     246,      248)	nop
		--------------------
		  
		  00000240 <_stack_init>:
		   240:   f5a3 3a80     sub.w  sl, r3, #65536   ; 0x10000
		   244:   4770          bx lr
		-> 246:   bf00          nop
		  
		  00000248 <_mainCRTStartup>:
		   248:   4b15          ldr    r3, [pc, #84]  ; (2a0 <_mainCRTStartup+0x58>)
		   24a:   2b00          cmp    r3, #0
		--------------------
	(     582,      584)	
		--------------------
		   57a:   2d04          cmp    r5, #4
		   57c:   d016          beq.n  5ac <TIMER0_IRQHandler+0x4c>
		   57e:   6823          ldr    r3, [r4, #0]
		   580:   2b00          cmp    r3, #0
		-> 582:   d0f8          beq.n  576 <TIMER0_IRQHandler+0x16>
		   584:   f8d7 3304     ldr.w  r3, [r7, #772]   ; 0x304
		   588:   fa06 f105     lsl.w  r1, r6, r5
		   58c:   4219          tst    r1, r3
		   58e:   d0f2          beq.n  576 <TIMER0_IRQHandler+0x16>
		--------------------
	(     774,      67c)	
		--------------------
		   76c:   d186          bne.n  67c <SystemInit+0x38>
		   76e:   4b88          ldr    r3, [pc, #544] ; (990 <SystemInit+0x34c>)
		   770:   4a88          ldr    r2, [pc, #544] ; (994 <SystemInit+0x350>)
		   772:   675a          str    r2, [r3, #116] ; 0x74
		-> 774:   e782          b.n    67c <SystemInit+0x38>
		   776:   f04f 4370     mov.w  r3, #4026531840  ; 0xf0000000
		   77a:   f8d3 3fe8     ldr.w  r3, [r3, #4072]  ; 0xfe8
		   77e:   f3c3 1303     ubfx   r3, r3, #4, #4
		   782:   2b03          cmp    r3, #3
		--------------------
	(     bd6,      bd8)	nop
		--------------------
		   bd0:   200000d0  .word   0x200000d0
		  
		  00000bd4 <_exit>:
		   bd4:   e7fe          b.n    bd4 <_exit>
		-> bd6:   bf00          nop
		  
		  00000bd8 <_init>:
		   bd8:   b5f8          push   {r3, r4, r5, r6, r7, lr}
		   bda:   bf00          nop
		--------------------
	(     bee,      bf0)	ret
		--------------------
		   be6:   bf00          nop
		   be8:   bcf8          pop    {r3, r4, r5, r6, r7}
		   bea:   bc08          pop    {r3}
		   bec:   469e          mov    lr, r3
		-> bee:   4770          bx lr
		  
		  00000bf0 <m_board_led_list>:
		   bf0:   1211 1413 0000 0603 0000 0000               ............
		  
		--------------------

timer-o2: 8 | 8 | 5 nop
	(     246,      248)	nop
		--------------------
		  
		  00000240 <_stack_init>:
		   240:   f5a3 3a80     sub.w  sl, r3, #65536   ; 0x10000
		   244:   4770          bx lr
		-> 246:   bf00          nop
		  
		  00000248 <_mainCRTStartup>:
		   248:   4b15          ldr    r3, [pc, #84]  ; (2a0 <_mainCRTStartup+0x58>)
		   24a:   2b00          cmp    r3, #0
		--------------------
	(     36e,      370)	nop
		--------------------
		   360:   f8c3 4508     str.w  r4, [r3, #1288]  ; 0x508
		   364:   f8c3 1508     str.w  r1, [r3, #1288]  ; 0x508
		   368:   f8c3 2508     str.w  r2, [r3, #1288]  ; 0x508
		   36c:   e7d3          b.n    316 <bsp_board_init+0x6>
		-> 36e:   bf00          nop
		  
		  00000370 <app_error_handler_bare>:
		   370:   b500          push   {lr}
		   372:   b085          sub    sp, #20
		--------------------
	(     38e,      390)	nop
		--------------------
		   382:   9303          str    r3, [sp, #12]
		   384:   f000 f804     bl 390 <app_error_fault_handler>
		   388:   b005          add    sp, #20
		   38a:   f85d fb04     ldr.w  pc, [sp], #4
		-> 38e:   bf00          nop
		  
		  00000390 <app_error_fault_handler>:
		   390:   b672          cpsid  i
		   392:   4b09          ldr    r3, [pc, #36]  ; (3b8 <app_error_fault_handler+0x28>)
		--------------------
	(     542,      544)	nop
		--------------------
		   538:   4770          bx lr
		   53a:   6803          ldr    r3, [r0, #0]
		   53c:   f8c3 4308     str.w  r4, [r3, #776]   ; 0x308
		   540:   e7f3          b.n    52a <nrfx_timer_extended_compare+0x4a>
		-> 542:   bf00          nop
		  
		  00000544 <TIMER0_IRQHandler>:
		   544:   e92d 41f0     stmdb  sp!, {r4, r5, r6, r7, r8, lr}
		   548:   4d11          ldr    r5, [pc, #68]  ; (590 <TIMER0_IRQHandler+0x4c>)
		--------------------
	(     560,      582)	
		--------------------
		   554:   f44f 3680     mov.w  r6, #65536   ; 0x10000
		   558:   682b          ldr    r3, [r5, #0]
		   55a:   fa06 f204     lsl.w  r2, r6, r4
		   55e:   3401          adds   r4, #1
		-> 560:   b17b          cbz    r3, 582 <TIMER0_IRQHandler+0x3e>
		   562:   f8d7 3304     ldr.w  r3, [r7, #772]   ; 0x304
		   566:   f5a5 4000     sub.w  r0, r5, #32768   ; 0x8000
		   56a:   421a          tst    r2, r3
		   56c:   f04f 0100     mov.w  r1, #0
		--------------------
	(     572,      574)	
		--------------------
		   566:   f5a5 4000     sub.w  r0, r5, #32768   ; 0x8000
		   56a:   421a          tst    r2, r3
		   56c:   f04f 0100     mov.w  r1, #0
		   570:   b280          uxth   r0, r0
		-> 572:   d006          beq.n  582 <TIMER0_IRQHandler+0x3e>
		   574:   6029          str    r1, [r5, #0]
		   576:   682b          ldr    r3, [r5, #0]
		   578:   9301          str    r3, [sp, #4]
		   57a:   e9d8 3100     ldrd   r3, r1, [r8]
		--------------------
	(     8e0,      656)	
		--------------------
		   8d6:   f43f aebe     beq.w  656 <SystemInit+0x3a>
		   8da:   4b17          ldr    r3, [pc, #92]  ; (938 <SystemInit+0x31c>)
		   8dc:   4a17          ldr    r2, [pc, #92]  ; (93c <SystemInit+0x320>)
		   8de:   675a          str    r2, [r3, #116] ; 0x74
		-> 8e0:   e6b9          b.n    656 <SystemInit+0x3a>
		   8e2:   4a17          ldr    r2, [pc, #92]  ; (940 <SystemInit+0x324>)
		   8e4:   5cd3          ldrb   r3, [r2, r3]
		   8e6:   2b00          cmp    r3, #0
		   8e8:   f43f af08     beq.w  6fc <SystemInit+0xe0>
		--------------------
	(     be2,      be4)	nop
		--------------------
		   bdc:   200000d0  .word   0x200000d0
		  
		  00000be0 <_exit>:
		   be0:   e7fe          b.n    be0 <_exit>
		-> be2:   bf00          nop
		  
		  00000be4 <_init>:
		   be4:   b5f8          push   {r3, r4, r5, r6, r7, lr}
		   be6:   bf00          nop
		--------------------

timer-o3: 7 | 7 | 4 nop
	(     246,      248)	nop
		--------------------
		  
		  00000240 <_stack_init>:
		   240:   f5a3 3a80     sub.w  sl, r3, #65536   ; 0x10000
		   244:   4770          bx lr
		-> 246:   bf00          nop
		  
		  00000248 <_mainCRTStartup>:
		   248:   4b15          ldr    r3, [pc, #84]  ; (2a0 <_mainCRTStartup+0x58>)
		   24a:   2b00          cmp    r3, #0
		--------------------
	(     38a,      38c)	nop
		--------------------
		   37e:   9303          str    r3, [sp, #12]
		   380:   f000 f804     bl 38c <app_error_fault_handler>
		   384:   b005          add    sp, #20
		   386:   f85d fb04     ldr.w  pc, [sp], #4
		-> 38a:   bf00          nop
		  
		  0000038c <app_error_fault_handler>:
		   38c:   b672          cpsid  i
		   38e:   4b09          ldr    r3, [pc, #36]  ; (3b4 <app_error_fault_handler+0x28>)
		--------------------
	(     53e,      540)	nop
		--------------------
		   534:   4770          bx lr
		   536:   6803          ldr    r3, [r0, #0]
		   538:   f8c3 4308     str.w  r4, [r3, #776]   ; 0x308
		   53c:   e7f3          b.n    526 <nrfx_timer_extended_compare+0x4a>
		-> 53e:   bf00          nop
		  
		  00000540 <TIMER0_IRQHandler>:
		   540:   e92d 41f0     stmdb  sp!, {r4, r5, r6, r7, r8, lr}
		   544:   4d11          ldr    r5, [pc, #68]  ; (58c <TIMER0_IRQHandler+0x4c>)
		--------------------
	(     55c,      57e)	
		--------------------
		   550:   f44f 3680     mov.w  r6, #65536   ; 0x10000
		   554:   682b          ldr    r3, [r5, #0]
		   556:   fa06 f204     lsl.w  r2, r6, r4
		   55a:   3401          adds   r4, #1
		-> 55c:   b17b          cbz    r3, 57e <TIMER0_IRQHandler+0x3e>
		   55e:   f8d7 3304     ldr.w  r3, [r7, #772]   ; 0x304
		   562:   f5a5 4000     sub.w  r0, r5, #32768   ; 0x8000
		   566:   421a          tst    r2, r3
		   568:   f04f 0100     mov.w  r1, #0
		--------------------
	(     56e,      570)	
		--------------------
		   562:   f5a5 4000     sub.w  r0, r5, #32768   ; 0x8000
		   566:   421a          tst    r2, r3
		   568:   f04f 0100     mov.w  r1, #0
		   56c:   b280          uxth   r0, r0
		-> 56e:   d006          beq.n  57e <TIMER0_IRQHandler+0x3e>
		   570:   6029          str    r1, [r5, #0]
		   572:   682b          ldr    r3, [r5, #0]
		   574:   9301          str    r3, [sp, #4]
		   576:   e9d8 3100     ldrd   r3, r1, [r8]
		--------------------
	(     8c4,      652)	
		--------------------
		   8ba:   f43f aeca     beq.w  652 <SystemInit+0x3a>
		   8be:   4b35          ldr    r3, [pc, #212] ; (994 <SystemInit+0x37c>)
		   8c0:   4a35          ldr    r2, [pc, #212] ; (998 <SystemInit+0x380>)
		   8c2:   675a          str    r2, [r3, #116] ; 0x74
		-> 8c4:   e6c5          b.n    652 <SystemInit+0x3a>
		   8c6:   f04f 4370     mov.w  r3, #4026531840  ; 0xf0000000
		   8ca:   f893 3fe0     ldrb.w r3, [r3, #4064] ; 0xfe0
		   8ce:   2b06          cmp    r3, #6
		   8d0:   f47f af03     bne.w  6da <SystemInit+0xc2>
		--------------------
	(     bce,      bd0)	nop
		--------------------
		   bc8:   200000d0  .word   0x200000d0
		  
		  00000bcc <_exit>:
		   bcc:   e7fe          b.n    bcc <_exit>
		-> bce:   bf00          nop
		  
		  00000bd0 <_init>:
		   bd0:   b5f8          push   {r3, r4, r5, r6, r7, lr}
		   bd2:   bf00          nop
		--------------------

twi_sensor-o0: 66 | 659 | 42 jt | 18 ret | 6 dead
	(     558,      640)	ret
		--------------------
		       550:   7013          strb   r3, [r2, #0]
		       552:   bf00          nop
		       554:   3730          adds   r7, #48   ; 0x30
		       556:   46bd          mov    sp, r7
		->     558:   bdb0          pop    {r4, r5, r7, pc}
		       55a:   bf00          nop
		       55c:   00005d7c  .word   0x00005d7c
		       560:   000004c9  .word   0x000004c9
		       564:   20000000  .word   0x20000000
		--------------------
	(     89c,      8ba)	jt
		--------------------
		       890:   000008a5  .word   0x000008a5
		       894:   000008ad  .word   0x000008ad
		       898:   2302          movs   r3, #2
		       89a:   73fb          strb   r3, [r7, #15]
		->     89c:   e00d          b.n    8ba <nrf_log_color_id_get+0x56>
		       89e:   2304          movs   r3, #4
		       8a0:   73fb          strb   r3, [r7, #15]
		       8a2:   e00a          b.n    8ba <nrf_log_color_id_get+0x56>
		       8a4:   68bb          ldr    r3, [r7, #8]
		--------------------
	(    1356,     135a)	jt
		--------------------
		      134e:   9300          str    r3, [sp, #0]
		      1350:   460b          mov    r3, r1
		      1352:   68f9          ldr    r1, [r7, #12]
		      1354:   6ab8          ldr    r0, [r7, #40]  ; 0x28
		->    1356:   f000 fac0     bl 18da <nrf_fprintf>
		      135a:   e048          b.n    13ee <nrf_log_std_entry_process+0x12a>
		      135c:   68bb          ldr    r3, [r7, #8]
		      135e:   6819          ldr    r1, [r3, #0]
		      1360:   68bb          ldr    r3, [r7, #8]
		--------------------
	(    13ae,     13b2)	jt
		--------------------
		      13a6:   4623          mov    r3, r4
		      13a8:   4602          mov    r2, r0
		      13aa:   68f9          ldr    r1, [r7, #12]
		      13ac:   6ab8          ldr    r0, [r7, #40]  ; 0x28
		->    13ae:   f000 fa94     bl 18da <nrf_fprintf>
		      13b2:   e01c          b.n    13ee <nrf_log_std_entry_process+0x12a>
		      13b4:   68bb          ldr    r3, [r7, #8]
		      13b6:   681c          ldr    r4, [r3, #0]
		      13b8:   68bb          ldr    r3, [r7, #8]
		--------------------
	(    1630,     102a)	ret
		--------------------
		      1626:   f7ff ffdb     bl 15e0 <app_util_enable_irq>
		      162a:   bf00          nop
		      162c:   3708          adds   r7, #8
		      162e:   46bd          mov    sp, r7
		->    1630:   bd80          pop    {r7, pc}
		  
		  00001632 <nrf_atomic_u32_fetch_store>:
		      1632:   b490          push   {r4, r7}
		      1634:   b086          sub    sp, #24
		--------------------
	(    1910,     1298)	ret
		--------------------
		      1906:   3714          adds   r7, #20
		      1908:   46bd          mov    sp, r7
		      190a:   e8bd 4080     ldmia.w    sp!, {r7, lr}
		      190e:   b003          add    sp, #12
		->    1910:   4770          bx lr
		  
		  00001912 <buffer_add>:
		      1912:   b580          push   {r7, lr}
		      1914:   b082          sub    sp, #8
		--------------------
	(    1910,     12a8)	ret
		--------------------
		      1906:   3714          adds   r7, #20
		      1908:   46bd          mov    sp, r7
		      190a:   e8bd 4080     ldmia.w    sp!, {r7, lr}
		      190e:   b003          add    sp, #12
		->    1910:   4770          bx lr
		  
		  00001912 <buffer_add>:
		      1912:   b580          push   {r7, lr}
		      1914:   b082          sub    sp, #8
		--------------------
	(    1910,     13b2)	ret
		--------------------
		      1906:   3714          adds   r7, #20
		      1908:   46bd          mov    sp, r7
		      190a:   e8bd 4080     ldmia.w    sp!, {r7, lr}
		      190e:   b003          add    sp, #12
		->    1910:   4770          bx lr
		  
		  00001912 <buffer_add>:
		      1912:   b580          push   {r7, lr}
		      1914:   b082          sub    sp, #8
		--------------------
	(    1910,     14ae)	ret
		--------------------
		      1906:   3714          adds   r7, #20
		      1908:   46bd          mov    sp, r7
		      190a:   e8bd 4080     ldmia.w    sp!, {r7, lr}
		      190e:   b003          add    sp, #12
		->    1910:   4770          bx lr
		  
		  00001912 <buffer_add>:
		      1912:   b580          push   {r7, lr}
		      1914:   b082          sub    sp, #8
		--------------------
	(    1910,     14b8)	ret
		--------------------
		      1906:   3714          adds   r7, #20
		      1908:   46bd          mov    sp, r7
		      190a:   e8bd 4080     ldmia.w    sp!, {r7, lr}
		      190e:   b003          add    sp, #12
		->    1910:   4770          bx lr
		  
		  00001912 <buffer_add>:
		      1912:   b580          push   {r7, lr}
		      1914:   b082          sub    sp, #8
		--------------------
	(    1958,     1c34)	ret
		--------------------
		      194e:   f7ff ffab     bl 18a8 <nrf_fprintf_buffer_flush>
		      1952:   bf00          nop
		      1954:   3708          adds   r7, #8
		      1956:   46bd          mov    sp, r7
		->    1958:   bd80          pop    {r7, pc}
		  
		  0000195a <string_print>:
		      195a:   b580          push   {r7, lr}
		      195c:   b086          sub    sp, #24
		--------------------
	(    198a,     1912)	jti
		--------------------
		      1982:   617b          str    r3, [r7, #20]
		      1984:   7cfb          ldrb   r3, [r7, #19]
		      1986:   4619          mov    r1, r3
		      1988:   68f8          ldr    r0, [r7, #12]
		->    198a:   f7ff ffc2     bl 1912 <buffer_add>
		      198e:   68bb          ldr    r3, [r7, #8]
		      1990:   781b          ldrb   r3, [r3, #0]
		      1992:   74fb          strb   r3, [r7, #19]
		      1994:   7cfb          ldrb   r3, [r7, #19]
		--------------------
	(    1998,     199a)	jti
		--------------------
		      1990:   781b          ldrb   r3, [r3, #0]
		      1992:   74fb          strb   r3, [r7, #19]
		      1994:   7cfb          ldrb   r3, [r7, #19]
		      1996:   2b00          cmp    r3, #0
		->    1998:   d1ee          bne.n  1978 <string_print+0x1e>
		      199a:   e006          b.n    19aa <string_print+0x50>
		      199c:   687b          ldr    r3, [r7, #4]
		      199e:   3b01          subs   r3, #1
		      19a0:   607b          str    r3, [r7, #4]
		--------------------
	(    19a6,     1912)	jti
		--------------------
		      199e:   3b01          subs   r3, #1
		      19a0:   607b          str    r3, [r7, #4]
		      19a2:   2120          movs   r1, #32
		      19a4:   68f8          ldr    r0, [r7, #12]
		->    19a6:   f7ff ffb4     bl 1912 <buffer_add>
		      19aa:   687a          ldr    r2, [r7, #4]
		      19ac:   697b          ldr    r3, [r7, #20]
		      19ae:   429a          cmp    r2, r3
		      19b0:   d92b          bls.n  1a0a <string_print+0xb0>
		--------------------
	(    19b0,     19b2)	jti
		--------------------
		      19a6:   f7ff ffb4     bl 1912 <buffer_add>
		      19aa:   687a          ldr    r2, [r7, #4]
		      19ac:   697b          ldr    r3, [r7, #20]
		      19ae:   429a          cmp    r2, r3
		->    19b0:   d92b          bls.n  1a0a <string_print+0xb0>
		      19b2:   687b          ldr    r3, [r7, #4]
		      19b4:   2b00          cmp    r3, #0
		      19b6:   d1f1          bne.n  199c <string_print+0x42>
		      19b8:   e027          b.n    1a0a <string_print+0xb0>
		--------------------
	(    19c2,     19c6)	jti
		--------------------
		      19ba:   68bb          ldr    r3, [r7, #8]
		      19bc:   2b00          cmp    r3, #0
		      19be:   d00b          beq.n  19d8 <string_print+0x7e>
		      19c0:   68b8          ldr    r0, [r7, #8]
		->    19c2:   f004 f90b     bl 5bdc <strlen>
		      19c6:   6178          str    r0, [r7, #20]
		      19c8:   e006          b.n    19d8 <string_print+0x7e>
		      19ca:   687b          ldr    r3, [r7, #4]
		      19cc:   3b01          subs   r3, #1
		--------------------
	(    19de,     19e0)	jti
		--------------------
		      19d4:   f7ff ff9d     bl 1912 <buffer_add>
		      19d8:   687a          ldr    r2, [r7, #4]
		      19da:   697b          ldr    r3, [r7, #20]
		      19dc:   429a          cmp    r2, r3
		->    19de:   d90e          bls.n  19fe <string_print+0xa4>
		      19e0:   687b          ldr    r3, [r7, #4]
		      19e2:   2b00          cmp    r3, #0
		      19e4:   d1f1          bne.n  19ca <string_print+0x70>
		      19e6:   e00a          b.n    19fe <string_print+0xa4>
		--------------------
	(    19e4,     19e6)	jti
		--------------------
		      19dc:   429a          cmp    r2, r3
		      19de:   d90e          bls.n  19fe <string_print+0xa4>
		      19e0:   687b          ldr    r3, [r7, #4]
		      19e2:   2b00          cmp    r3, #0
		->    19e4:   d1f1          bne.n  19ca <string_print+0x70>
		      19e6:   e00a          b.n    19fe <string_print+0xa4>
		      19e8:   68bb          ldr    r3, [r7, #8]
		      19ea:   3301          adds   r3, #1
		      19ec:   60bb          str    r3, [r7, #8]
		--------------------
	(    1a5e,     1a60)	jti
		--------------------
		      1a56:   2b00          cmp    r3, #0
		      1a58:   d11f          bne.n  1a9a <unsigned_print+0x86>
		      1a5a:   6abb          ldr    r3, [r7, #40]  ; 0x28
		      1a5c:   2b00          cmp    r3, #0
		->    1a5e:   d01c          beq.n  1a9a <unsigned_print+0x86>
		      1a60:   6afb          ldr    r3, [r7, #44]  ; 0x2c
		      1a62:   f003 0302     and.w  r3, r3, #2
		      1a66:   2b00          cmp    r3, #0
		      1a68:   d005          beq.n  1a76 <unsigned_print+0x62>
		--------------------
	(    1a74,     1a7a)	jti
		--------------------
		      1a6c:   2b00          cmp    r3, #0
		      1a6e:   d102          bne.n  1a76 <unsigned_print+0x62>
		      1a70:   2330          movs   r3, #48   ; 0x30
		      1a72:   75fb          strb   r3, [r7, #23]
		->    1a74:   e001          b.n    1a7a <unsigned_print+0x66>
		      1a76:   2320          movs   r3, #32
		      1a78:   75fb          strb   r3, [r7, #23]
		      1a7a:   e007          b.n    1a8c <unsigned_print+0x78>
		      1a7c:   6abb          ldr    r3, [r7, #40]  ; 0x28
		--------------------
	(    1abe,     1acc)	jti
		--------------------
		      1ab6:   693a          ldr    r2, [r7, #16]
		      1ab8:   687b          ldr    r3, [r7, #4]
		      1aba:   429a          cmp    r2, r3
		      1abc:   d200          bcs.n  1ac0 <unsigned_print+0xac>
		->    1abe:   e005          b.n    1acc <unsigned_print+0xb8>
		      1ac0:   69fb          ldr    r3, [r7, #28]
		      1ac2:   687a          ldr    r2, [r7, #4]
		      1ac4:   fb02 f303     mul.w  r3, r2, r3
		      1ac8:   61fb          str    r3, [r7, #28]
		--------------------
	(    1b12,     1b32)	jti
		--------------------
		      1b0a:   2b00          cmp    r3, #0
		      1b0c:   d011          beq.n  1b32 <unsigned_print+0x11e>
		      1b0e:   6abb          ldr    r3, [r7, #40]  ; 0x28
		      1b10:   2b00          cmp    r3, #0
		->    1b12:   d00e          beq.n  1b32 <unsigned_print+0x11e>
		      1b14:   e006          b.n    1b24 <unsigned_print+0x110>
		      1b16:   6abb          ldr    r3, [r7, #40]  ; 0x28
		      1b18:   3b01          subs   r3, #1
		      1b1a:   62bb          str    r3, [r7, #40]  ; 0x28
		--------------------
	(    1b38,     1edc)	jti
		--------------------
		      1b30:   d3f1          bcc.n  1b16 <unsigned_print+0x102>
		      1b32:   bf00          nop
		      1b34:   3720          adds   r7, #32
		      1b36:   46bd          mov    sp, r7
		->    1b38:   bd80          pop    {r7, pc}
		      1b3a:   bf00          nop
		      1b3c:   00005ea8  .word   0x00005ea8
		  
		  00001b40 <int_print>:
		--------------------
	(    1b74,     1b5e)	jti
		--------------------
		      1b6c:   617b          str    r3, [r7, #20]
		      1b6e:   687b          ldr    r3, [r7, #4]
		      1b70:   693a          ldr    r2, [r7, #16]
		      1b72:   429a          cmp    r2, r3
		->    1b74:   daf3          bge.n  1b5e <int_print+0x1e>
		      1b76:   683a          ldr    r2, [r7, #0]
		      1b78:   697b          ldr    r3, [r7, #20]
		      1b7a:   429a          cmp    r2, r3
		      1b7c:   d901          bls.n  1b82 <int_print+0x42>
		--------------------
	(    1b7c,     1b7e)	jti
		--------------------
		      1b74:   daf3          bge.n  1b5e <int_print+0x1e>
		      1b76:   683a          ldr    r2, [r7, #0]
		      1b78:   697b          ldr    r3, [r7, #20]
		      1b7a:   429a          cmp    r2, r3
		->    1b7c:   d901          bls.n  1b82 <int_print+0x42>
		      1b7e:   683b          ldr    r3, [r7, #0]
		      1b80:   617b          str    r3, [r7, #20]
		      1b82:   6a3b          ldr    r3, [r7, #32]
		      1b84:   2b00          cmp    r3, #0
		--------------------
	(    1b8c,     1b98)	jti
		--------------------
		      1b84:   2b00          cmp    r3, #0
		      1b86:   d00a          beq.n  1b9e <int_print+0x5e>
		      1b88:   68bb          ldr    r3, [r7, #8]
		      1b8a:   2b00          cmp    r3, #0
		->    1b8c:   db04          blt.n  1b98 <int_print+0x58>
		      1b8e:   6a7b          ldr    r3, [r7, #36]  ; 0x24
		      1b90:   f003 0304     and.w  r3, r3, #4
		      1b94:   2b00          cmp    r3, #0
		      1b96:   d002          beq.n  1b9e <int_print+0x5e>
		--------------------
	(    1bbc,     1bbe)	jti
		--------------------
		      1bb4:   2b00          cmp    r3, #0
		      1bb6:   d111          bne.n  1bdc <int_print+0x9c>
		      1bb8:   6a3b          ldr    r3, [r7, #32]
		      1bba:   2b00          cmp    r3, #0
		->    1bbc:   d00e          beq.n  1bdc <int_print+0x9c>
		      1bbe:   e006          b.n    1bce <int_print+0x8e>
		      1bc0:   6a3b          ldr    r3, [r7, #32]
		      1bc2:   3b01          subs   r3, #1
		      1bc4:   623b          str    r3, [r7, #32]
		--------------------
	(    1bda,     1bc0)	jti
		--------------------
		      1bd2:   d003          beq.n  1bdc <int_print+0x9c>
		      1bd4:   697a          ldr    r2, [r7, #20]
		      1bd6:   6a3b          ldr    r3, [r7, #32]
		      1bd8:   429a          cmp    r2, r3
		->    1bda:   d3f1          bcc.n  1bc0 <int_print+0x80>
		      1bdc:   68bb          ldr    r3, [r7, #8]
		      1bde:   2b00          cmp    r3, #0
		      1be0:   da07          bge.n  1bf2 <int_print+0xb2>
		      1be2:   68bb          ldr    r3, [r7, #8]
		--------------------
	(    1bec,     1bf0)	jti
		--------------------
		      1be4:   425b          negs   r3, r3
		      1be6:   60bb          str    r3, [r7, #8]
		      1be8:   212d          movs   r1, #45   ; 0x2d
		      1bea:   68f8          ldr    r0, [r7, #12]
		->    1bec:   f7ff fe91     bl 1912 <buffer_add>
		      1bf0:   e008          b.n    1c04 <int_print+0xc4>
		      1bf2:   6a7b          ldr    r3, [r7, #36]  ; 0x24
		      1bf4:   f003 0304     and.w  r3, r3, #4
		      1bf8:   2b00          cmp    r3, #0
		--------------------
	(    1c0c,     1c42)	jti
		--------------------
		      1c00:   f7ff fe87     bl 1912 <buffer_add>
		      1c04:   6a7b          ldr    r3, [r7, #36]  ; 0x24
		      1c06:   f003 0302     and.w  r3, r3, #2
		      1c0a:   2b00          cmp    r3, #0
		->    1c0c:   d019          beq.n  1c42 <int_print+0x102>
		      1c0e:   6a7b          ldr    r3, [r7, #36]  ; 0x24
		      1c10:   f003 0301     and.w  r3, r3, #1
		      1c14:   2b00          cmp    r3, #0
		      1c16:   d114          bne.n  1c42 <int_print+0x102>
		--------------------
	(    1c16,     1c18)	jti
		--------------------
		      1c0c:   d019          beq.n  1c42 <int_print+0x102>
		      1c0e:   6a7b          ldr    r3, [r7, #36]  ; 0x24
		      1c10:   f003 0301     and.w  r3, r3, #1
		      1c14:   2b00          cmp    r3, #0
		->    1c16:   d114          bne.n  1c42 <int_print+0x102>
		      1c18:   683b          ldr    r3, [r7, #0]
		      1c1a:   2b00          cmp    r3, #0
		      1c1c:   d111          bne.n  1c42 <int_print+0x102>
		      1c1e:   6a3b          ldr    r3, [r7, #32]
		--------------------
	(    1c52,     1a14)	jti
		--------------------
		      1c4a:   9300          str    r3, [sp, #0]
		      1c4c:   683b          ldr    r3, [r7, #0]
		      1c4e:   687a          ldr    r2, [r7, #4]
		      1c50:   68f8          ldr    r0, [r7, #12]
		->    1c52:   f7ff fedf     bl 1a14 <unsigned_print>
		      1c56:   bf00          nop
		      1c58:   3718          adds   r7, #24
		      1c5a:   46bd          mov    sp, r7
		      1c5c:   bd80          pop    {r7, pc}
		--------------------
	(    1eb4,     1eb8)	jti
		--------------------
		      1eac:   6a7b          ldr    r3, [r7, #36]  ; 0x24
		      1eae:   220a          movs   r2, #10
		      1eb0:   6ab9          ldr    r1, [r7, #40]  ; 0x28
		      1eb2:   68f8          ldr    r0, [r7, #12]
		->    1eb4:   f7ff fe44     bl 1b40 <int_print>
		      1eb8:   e051          b.n    1f5e <nrf_fprintf_fmt+0x2fe>
		      1eba:   687b          ldr    r3, [r7, #4]
		      1ebc:   681b          ldr    r3, [r3, #0]
		      1ebe:   1d19          adds   r1, r3, #4
		--------------------
	(    1f00,     1f5e)	jti
		--------------------
		      1ef6:   6a7b          ldr    r3, [r7, #36]  ; 0x24
		      1ef8:   2210          movs   r2, #16
		      1efa:   68f8          ldr    r0, [r7, #12]
		      1efc:   f7ff fd8a     bl 1a14 <unsigned_print>
		->    1f00:   e02d          b.n    1f5e <nrf_fprintf_fmt+0x2fe>
		      1f02:   687b          ldr    r3, [r7, #4]
		      1f04:   681b          ldr    r3, [r3, #0]
		      1f06:   1d19          adds   r1, r3, #4
		      1f08:   687a          ldr    r2, [r7, #4]
		--------------------
	(    20ca,     2040)	ret
		--------------------
		      20c2:   bf00          nop
		      20c4:   bf00          nop
		      20c6:   3728          adds   r7, #40   ; 0x28
		      20c8:   46bd          mov    sp, r7
		->    20ca:   bd80          pop    {r7, pc}
		  
		  000020cc <nrf_memobj_get>:
		      20cc:   b580          push   {r7, lr}
		      20ce:   b084          sub    sp, #16
		--------------------
	(    20ea,      300)	ret
		--------------------
		      20e0:   f7ff faf1     bl 16c6 <nrf_atomic_u32_add>
		      20e4:   bf00          nop
		      20e6:   3710          adds   r7, #16
		      20e8:   46bd          mov    sp, r7
		->    20ea:   bd80          pop    {r7, pc}
		  
		  000020ec <nrf_memobj_put>:
		      20ec:   b580          push   {r7, lr}
		      20ee:   b086          sub    sp, #24
		--------------------
	(    2334,     2426)	ret
		--------------------
		      232a:   f000 f83c     bl 23a6 <nrf_gpio_port_out_set>
		      232e:   bf00          nop
		      2330:   3710          adds   r7, #16
		      2332:   46bd          mov    sp, r7
		->    2334:   bd80          pop    {r7, pc}
		  
		  00002336 <nrf_gpio_pin_clear>:
		      2336:   b580          push   {r7, lr}
		      2338:   b084          sub    sp, #16
		--------------------
	(    2ace,     306c)	ret
		--------------------
		      2ac4:   bf00          nop
		      2ac6:   3714          adds   r7, #20
		      2ac8:   46bd          mov    sp, r7
		      2aca:   f85d 7b04     ldr.w  r7, [sp], #4
		->    2ace:   4770          bx lr
		  
		  00002ad0 <nrf_twim_rx_buffer_set>:
		      2ad0:   b480          push   {r7}
		      2ad2:   b085          sub    sp, #20
		--------------------
	(    2b14,     305c)	ret
		--------------------
		      2b0a:   bf00          nop
		      2b0c:   370c          adds   r7, #12
		      2b0e:   46bd          mov    sp, r7
		      2b10:   f85d 7b04     ldr.w  r7, [sp], #4
		->    2b14:   4770          bx lr
		  
		  00002b16 <nrf_twim_txd_amount_get>:
		      2b16:   b480          push   {r7}
		      2b18:   b083          sub    sp, #12
		--------------------
	(    2b14,     310a)	ret
		--------------------
		      2b0a:   bf00          nop
		      2b0c:   370c          adds   r7, #12
		      2b0e:   46bd          mov    sp, r7
		      2b10:   f85d 7b04     ldr.w  r7, [sp], #4
		->    2b14:   4770          bx lr
		  
		  00002b16 <nrf_twim_txd_amount_get>:
		      2b16:   b480          push   {r7}
		      2b18:   b083          sub    sp, #12
		--------------------
	(    2b2e,     2cca)	ret
		--------------------
		      2b24:   4618          mov    r0, r3
		      2b26:   370c          adds   r7, #12
		      2b28:   46bd          mov    sp, r7
		      2b2a:   f85d 7b04     ldr.w  r7, [sp], #4
		->    2b2e:   4770          bx lr
		  
		  00002b30 <nrf_twim_shorts_get>:
		      2b30:   b480          push   {r7}
		      2b32:   b083          sub    sp, #12
		--------------------
	(    2cde,     2d4c)	jt
		--------------------
		      2cd4:   683b          ldr    r3, [r7, #0]
		      2cd6:   689b          ldr    r3, [r3, #8]
		      2cd8:   f403 2380     and.w  r3, r3, #262144  ; 0x40000
		      2cdc:   2b00          cmp    r3, #0
		->    2cde:   d135          bne.n  2d4c <xfer_completeness_check+0xc0>
		      2ce0:   6878          ldr    r0, [r7, #4]
		      2ce2:   f7ff ff18     bl 2b16 <nrf_twim_txd_amount_get>
		      2ce6:   4602          mov    r2, r0
		      2ce8:   683b          ldr    r3, [r7, #0]
		--------------------
	(    2ce2,     2b16)	jt
		--------------------
		      2cd8:   f403 2380     and.w  r3, r3, #262144  ; 0x40000
		      2cdc:   2b00          cmp    r3, #0
		      2cde:   d135          bne.n  2d4c <xfer_completeness_check+0xc0>
		      2ce0:   6878          ldr    r0, [r7, #4]
		->    2ce2:   f7ff ff18     bl 2b16 <nrf_twim_txd_amount_get>
		      2ce6:   4602          mov    r2, r0
		      2ce8:   683b          ldr    r3, [r7, #0]
		      2cea:   695b          ldr    r3, [r3, #20]
		      2cec:   429a          cmp    r2, r3
		--------------------
	(    2d4e,     2d5a)	jt
		--------------------
		      2d46:   e007          b.n    2d58 <xfer_completeness_check+0xcc>
		      2d48:   bf00          nop
		      2d4a:   e006          b.n    2d5a <xfer_completeness_check+0xce>
		      2d4c:   bf00          nop
		->    2d4e:   e004          b.n    2d5a <xfer_completeness_check+0xce>
		      2d50:   bf00          nop
		      2d52:   e002          b.n    2d5a <xfer_completeness_check+0xce>
		      2d54:   bf00          nop
		      2d56:   e000          b.n    2d5a <xfer_completeness_check+0xce>
		--------------------
	(    303a,     303e)	jt
		--------------------
		      3030:   00003035  .word   0x00003035
		      3034:   687b          ldr    r3, [r7, #4]
		      3036:   691b          ldr    r3, [r3, #16]
		      3038:   4618          mov    r0, r3
		->    303a:   f7ff fc29     bl 2890 <nrfx_is_in_ram>
		      303e:   4603          mov    r3, r0
		      3040:   f083 0301     eor.w  r3, r3, #1
		      3044:   b2db          uxtb   r3, r3
		      3046:   2b00          cmp    r3, #0
		--------------------
	(    3118,     3196)	jt
		--------------------
		      310e:   609a          str    r2, [r3, #8]
		      3110:   2120          movs   r1, #32
		      3112:   68b8          ldr    r0, [r7, #8]
		      3114:   f7ff fc0b     bl 292e <nrf_twim_task_trigger>
		->    3118:   e03d          b.n    3196 <twim_xfer+0x27a>
		      311a:   687b          ldr    r3, [r7, #4]
		      311c:   68d9          ldr    r1, [r3, #12]
		      311e:   687b          ldr    r3, [r7, #4]
		      3120:   685b          ldr    r3, [r3, #4]
		--------------------
	(    3b5a,     3d90)	ret
		--------------------
		      3b50:   f7ff ffa2     bl 3a98 <nrf_gpio_cfg>
		      3b54:   bf00          nop
		      3b56:   3708          adds   r7, #8
		      3b58:   46bd          mov    sp, r7
		->    3b5a:   bd80          pop    {r7, pc}
		  
		  00003b5c <nrf_gpio_pin_set>:
		      3b5c:   b580          push   {r7, lr}
		      3b5e:   b084          sub    sp, #16
		--------------------
	(    4086,     408a)	dead
		--------------------
		      407a:   f7ff fcad     bl 39d8 <nrf_uart_rxd_get>
		      407e:   e013          b.n    40a8 <rx_byte+0x4c>
		      4080:   f44f 7184     mov.w  r1, #264 ; 0x108
		      4084:   6878          ldr    r0, [r7, #4]
		->    4086:   f7ff fb9f     bl 37c8 <nrf_uart_event_clear>
		      408a:   683b          ldr    r3, [r7, #0]
		      408c:   68da          ldr    r2, [r3, #12]
		      408e:   683b          ldr    r3, [r7, #0]
		      4090:   6a5b          ldr    r3, [r3, #36]  ; 0x24
		--------------------
	(    414e,     4152)	dead
		--------------------
		      4142:   6878          ldr    r0, [r7, #4]
		      4144:   f7ff fb40     bl 37c8 <nrf_uart_event_clear>
		      4148:   f44f 7101     mov.w  r1, #516 ; 0x204
		      414c:   6878          ldr    r0, [r7, #4]
		->    414e:   f7ff fb8b     bl 3868 <nrf_uart_int_disable>
		      4152:   683b          ldr    r3, [r7, #0]
		      4154:   f893 3029     ldrb.w r3, [r3, #41]   ; 0x29
		      4158:   f083 0301     eor.w  r3, r3, #1
		      415c:   b2db          uxtb   r3, r3
		--------------------
	(    41be,     4248)	dead
		--------------------
		      41b4:   6878          ldr    r0, [r7, #4]
		      41b6:   f7ff fb1e     bl 37f6 <nrf_uart_event_check>
		      41ba:   4603          mov    r3, r0
		      41bc:   2b00          cmp    r3, #0
		->    41be:   d043          beq.n  4248 <uart_irq_handler+0x134>
		      41c0:   6839          ldr    r1, [r7, #0]
		      41c2:   6878          ldr    r0, [r7, #4]
		      41c4:   f7ff ff4a     bl 405c <rx_byte>
		      41c8:   683b          ldr    r3, [r7, #0]
		--------------------
	(    41d2,     41d4)	dead
		--------------------
		      41ca:   699a          ldr    r2, [r3, #24]
		      41cc:   683b          ldr    r3, [r7, #0]
		      41ce:   6a5b          ldr    r3, [r3, #36]  ; 0x24
		      41d0:   429a          cmp    r2, r3
		->    41d2:   d139          bne.n  4248 <uart_irq_handler+0x134>
		      41d4:   683b          ldr    r3, [r7, #0]
		      41d6:   69db          ldr    r3, [r3, #28]
		      41d8:   2b00          cmp    r3, #0
		      41da:   d019          beq.n  4210 <uart_irq_handler+0xfc>
		--------------------
	(    4294,     4296)	dead
		--------------------
		      428a:   f7ff fa9d     bl 37c8 <nrf_uart_event_clear>
		      428e:   683b          ldr    r3, [r7, #0]
		      4290:   695b          ldr    r3, [r3, #20]
		      4292:   2b00          cmp    r3, #0
		->    4294:   d005          beq.n  42a2 <uart_irq_handler+0x18e>
		      4296:   683b          ldr    r3, [r7, #0]
		      4298:   695b          ldr    r3, [r3, #20]
		      429a:   4619          mov    r1, r3
		      429c:   6838          ldr    r0, [r7, #0]
		--------------------
	(    42a8,     37f6)	dead
		--------------------
		      429c:   6838          ldr    r0, [r7, #0]
		      429e:   f7ff ff1e     bl 40de <tx_done_event>
		      42a2:   f44f 71a2     mov.w  r1, #324 ; 0x144
		      42a6:   6878          ldr    r0, [r7, #4]
		->    42a8:   f7ff faa5     bl 37f6 <nrf_uart_event_check>
		      42ac:   4603          mov    r3, r0
		      42ae:   2b00          cmp    r3, #0
		      42b0:   d01c          beq.n  42ec <uart_irq_handler+0x1d8>
		      42b2:   f44f 71a2     mov.w  r1, #324 ; 0x144
		--------------------
	(    46b0,     4d10)	ret
		--------------------
		      46a6:   bf00          nop
		      46a8:   370c          adds   r7, #12
		      46aa:   46bd          mov    sp, r7
		      46ac:   f85d 7b04     ldr.w  r7, [sp], #4
		->    46b0:   4770          bx lr
		  
		  000046b2 <nrf_uarte_configure>:
		      46b2:   b480          push   {r7}
		      46b4:   b083          sub    sp, #12
		--------------------
	(    47e6,     492a)	ret
		--------------------
		      47dc:   f7ff ffc8     bl 4770 <nrf_gpio_cfg>
		      47e0:   bf00          nop
		      47e2:   3708          adds   r7, #8
		      47e4:   46bd          mov    sp, r7
		->    47e6:   bd80          pop    {r7, pc}
		  
		  000047e8 <nrf_gpio_cfg_input>:
		      47e8:   b580          push   {r7, lr}
		      47ea:   b084          sub    sp, #16
		--------------------
	(    52fa,     5318)	jt
		--------------------
		      52f2:   3b03          subs   r3, #3
		      52f4:   2b03          cmp    r3, #3
		      52f6:   d813          bhi.n  5320 <nrf52_errata_12+0x68>
		      52f8:   a201          add    r2, pc, #4 ; (adr r2, 5300 <nrf52_errata_12+0x48>)
		->    52fa:   f852 f023     ldr.w  pc, [r2, r3, lsl #2]
		      52fe:   bf00          nop
		      5300:   00005311  .word   0x00005311
		      5304:   00005315  .word   0x00005315
		      5308:   00005319  .word   0x00005319
		--------------------
	(    536e,     5384)	jt
		--------------------
		      5366:   3b03          subs   r3, #3
		      5368:   2b03          cmp    r3, #3
		      536a:   d813          bhi.n  5394 <nrf52_errata_16+0x50>
		      536c:   a201          add    r2, pc, #4 ; (adr r2, 5374 <nrf52_errata_16+0x30>)
		->    536e:   f852 f023     ldr.w  pc, [r2, r3, lsl #2]
		      5372:   bf00          nop
		      5374:   00005385  .word   0x00005385
		      5378:   00005389  .word   0x00005389
		      537c:   0000538d  .word   0x0000538d
		--------------------
	(    538a,     539a)	jt
		--------------------
		      5380:   00005391  .word   0x00005391
		      5384:   2301          movs   r3, #1
		      5386:   e008          b.n    539a <nrf52_errata_16+0x56>
		      5388:   2300          movs   r3, #0
		->    538a:   e006          b.n    539a <nrf52_errata_16+0x56>
		      538c:   2300          movs   r3, #0
		      538e:   e004          b.n    539a <nrf52_errata_16+0x56>
		      5390:   2300          movs   r3, #0
		      5392:   e002          b.n    539a <nrf52_errata_16+0x56>
		--------------------
	(    547e,     5492)	jt
		--------------------
		      5470:   00005481  .word   0x00005481
		      5474:   00005485  .word   0x00005485
		      5478:   00005489  .word   0x00005489
		      547c:   2301          movs   r3, #1
		->    547e:   e008          b.n    5492 <nrf52_errata_32+0x56>
		      5480:   2300          movs   r3, #0
		      5482:   e006          b.n    5492 <nrf52_errata_32+0x56>
		      5484:   2300          movs   r3, #0
		      5486:   e004          b.n    5492 <nrf52_errata_32+0x56>
		--------------------
	(    550e,     5516)	jt
		--------------------
		      5506:   e006          b.n    5516 <nrf52_errata_36+0x6e>
		      5508:   2301          movs   r3, #1
		      550a:   e004          b.n    5516 <nrf52_errata_36+0x6e>
		      550c:   2301          movs   r3, #1
		->    550e:   e002          b.n    5516 <nrf52_errata_36+0x6e>
		      5510:   2301          movs   r3, #1
		      5512:   e000          b.n    5516 <nrf52_errata_36+0x6e>
		      5514:   2300          movs   r3, #0
		      5516:   4618          mov    r0, r3
		--------------------
	(    55ea,     55f6)	jt
		--------------------
		      55e2:   e008          b.n    55f6 <nrf52_errata_57+0x56>
		      55e4:   2300          movs   r3, #0
		      55e6:   e006          b.n    55f6 <nrf52_errata_57+0x56>
		      55e8:   2300          movs   r3, #0
		->    55ea:   e004          b.n    55f6 <nrf52_errata_57+0x56>
		      55ec:   2300          movs   r3, #0
		      55ee:   e002          b.n    55f6 <nrf52_errata_57+0x56>
		      55f0:   2300          movs   r3, #0
		      55f2:   e000          b.n    55f6 <nrf52_errata_57+0x56>
		--------------------
	(    56da,     56f0)	jt
		--------------------
		      56d2:   3b03          subs   r3, #3
		      56d4:   2b03          cmp    r3, #3
		      56d6:   d813          bhi.n  5700 <nrf52_errata_108+0x68>
		      56d8:   a201          add    r2, pc, #4 ; (adr r2, 56e0 <nrf52_errata_108+0x48>)
		->    56da:   f852 f023     ldr.w  pc, [r2, r3, lsl #2]
		      56de:   bf00          nop
		      56e0:   000056f1  .word   0x000056f1
		      56e4:   000056f5  .word   0x000056f5
		      56e8:   000056f9  .word   0x000056f9
		--------------------
	(    56da,     56f8)	jt
		--------------------
		      56d2:   3b03          subs   r3, #3
		      56d4:   2b03          cmp    r3, #3
		      56d6:   d813          bhi.n  5700 <nrf52_errata_108+0x68>
		      56d8:   a201          add    r2, pc, #4 ; (adr r2, 56e0 <nrf52_errata_108+0x48>)
		->    56da:   f852 f023     ldr.w  pc, [r2, r3, lsl #2]
		      56de:   bf00          nop
		      56e0:   000056f1  .word   0x000056f1
		      56e4:   000056f5  .word   0x000056f5
		      56e8:   000056f9  .word   0x000056f9
		--------------------
	(    56da,     56fc)	jt
		--------------------
		      56d2:   3b03          subs   r3, #3
		      56d4:   2b03          cmp    r3, #3
		      56d6:   d813          bhi.n  5700 <nrf52_errata_108+0x68>
		      56d8:   a201          add    r2, pc, #4 ; (adr r2, 56e0 <nrf52_errata_108+0x48>)
		->    56da:   f852 f023     ldr.w  pc, [r2, r3, lsl #2]
		      56de:   bf00          nop
		      56e0:   000056f1  .word   0x000056f1
		      56e4:   000056f5  .word   0x000056f5
		      56e8:   000056f9  .word   0x000056f9
		--------------------
	(    5766,     577c)	jt
		--------------------
		      575e:   3b03          subs   r3, #3
		      5760:   2b03          cmp    r3, #3
		      5762:   d813          bhi.n  578c <nrf52_errata_136+0x68>
		      5764:   a201          add    r2, pc, #4 ; (adr r2, 576c <nrf52_errata_136+0x48>)
		->    5766:   f852 f023     ldr.w  pc, [r2, r3, lsl #2]
		      576a:   bf00          nop
		      576c:   0000577d  .word   0x0000577d
		      5770:   00005781  .word   0x00005781
		      5774:   00005785  .word   0x00005785
		--------------------
	(    57d2,     57e8)	jt
		--------------------
		      57ca:   3b03          subs   r3, #3
		      57cc:   2b03          cmp    r3, #3
		      57ce:   d813          bhi.n  57f8 <nrf52_errata_182+0x48>
		      57d0:   a201          add    r2, pc, #4 ; (adr r2, 57d8 <nrf52_errata_182+0x28>)
		->    57d2:   f852 f023     ldr.w  pc, [r2, r3, lsl #2]
		      57d6:   bf00          nop
		      57d8:   000057e9  .word   0x000057e9
		      57dc:   000057ed  .word   0x000057ed
		      57e0:   000057f1  .word   0x000057f1
		--------------------

twi_sensor-o1: 20 | 165 | 10 ret | 7 dead | 1 ft | 1 nop
	(     246,      248)	nop
		--------------------
		  
		  00000240 <_stack_init>:
		       240:   f5a3 3a80     sub.w  sl, r3, #65536   ; 0x10000
		       244:   4770          bx lr
		->     246:   bf00          nop
		  
		  00000248 <_mainCRTStartup>:
		       248:   4b15          ldr    r3, [pc, #84]  ; (2a0 <_mainCRTStartup+0x58>)
		       24a:   2b00          cmp    r3, #0
		--------------------
	(     b38,      bde)	ret
		--------------------
		       b2e:   490d          ldr    r1, [pc, #52]  ; (b64 <prefix_process+0x60>)
		       b30:   4628          mov    r0, r5
		       b32:   f000 fa07     bl f44 <nrf_fprintf>
		       b36:   b002          add    sp, #8
		->     b38:   bd70          pop    {r4, r5, r6, pc}
		       b3a:   4a0b          ldr    r2, [pc, #44]  ; (b68 <prefix_process+0x64>)
		       b3c:   9200          str    r2, [sp, #0]
		       b3e:   4a0b          ldr    r2, [pc, #44]  ; (b6c <prefix_process+0x68>)
		       b40:   490b          ldr    r1, [pc, #44]  ; (b70 <prefix_process+0x6c>)
		--------------------
	(     b98,      c02)	ret
		--------------------
		       b8c:   4620          mov    r0, r4
		       b8e:   f000 f9d9     bl f44 <nrf_fprintf>
		       b92:   4620          mov    r0, r4
		       b94:   f000 f9ca     bl f2c <nrf_fprintf_buffer_flush>
		->     b98:   bd10          pop    {r4, pc}
		       b9a:   4a07          ldr    r2, [pc, #28]  ; (bb8 <postfix_process+0x3c>)
		       b9c:   4907          ldr    r1, [pc, #28]  ; (bbc <postfix_process+0x40>)
		       b9e:   4620          mov    r0, r4
		       ba0:   f000 f9d0     bl f44 <nrf_fprintf>
		--------------------
	(     d66,      d6c)	
		--------------------
		       d60:   f85d fb04     ldr.w  pc, [sp], #4
		  
		  00000d64 <app_error_fault_handler>:
		       d64:   b510          push   {r4, lr}
		->     d66:   b672          cpsid  i
		       d68:   f7ff feb6     bl ad8 <nrf_log_panic>
		       d6c:   f7ff fc90     bl 690 <nrf_log_frontend_dequeue>
		       d70:   2800          cmp    r0, #0
		       d72:   d1fb          bne.n  d6c <app_error_fault_handler+0x8>
		--------------------
	(     dfe,      9a4)	ret
		--------------------
		  
		  00000df8 <app_util_critical_region_enter>:
		       df8:   b508          push   {r3, lr}
		       dfa:   f7ff ffeb     bl dd4 <app_util_disable_irq>
		->     dfe:   bd08          pop    {r3, pc}
		  
		  00000e00 <app_util_critical_region_exit>:
		       e00:   b508          push   {r3, lr}
		       e02:   f7ff ffef     bl de4 <app_util_enable_irq>
		--------------------
	(     e06,      7fe)	ret
		--------------------
		  
		  00000e00 <app_util_critical_region_exit>:
		       e00:   b508          push   {r3, lr}
		       e02:   f7ff ffef     bl de4 <app_util_enable_irq>
		->     e06:   bd08          pop    {r3, pc}
		  
		  00000e08 <nrf_atomic_u32_fetch_store>:
		       e08:   4603          mov    r3, r0
		       e0a:   e853 0f00     ldrex  r0, [r3]
		--------------------
	(     e5c,      906)	ret
		--------------------
		       e4e:   eb02 0001     add.w  r0, r2, r1
		       e52:   e843 0c00     strex  ip, r0, [r3]
		       e56:   f09c 0f00     teq    ip, #0
		       e5a:   d1f6          bne.n  e4a <nrf_atomic_u32_add+0x2>
		->     e5c:   4770          bx lr
		  
		  00000e5e <nrf_atomic_u32_sub>:
		       e5e:   4603          mov    r3, r0
		       e60:   e853 2f00     ldrex  r2, [r3]
		--------------------
	(     f42,      f8e)	ret
		--------------------
		       f3a:   4798          blx    r3
		       f3c:   2300          movs   r3, #0
		       f3e:   60a3          str    r3, [r4, #8]
		       f40:   bd10          pop    {r4, pc}
		->     f42:   4770          bx lr
		  
		  00000f44 <nrf_fprintf>:
		       f44:   b40e          push   {r1, r2, r3}
		       f46:   b500          push   {lr}
		--------------------
	(     f60,      c22)	ret
		--------------------
		       f54:   f000 f87e     bl 1054 <nrf_fprintf_fmt>
		       f58:   b002          add    sp, #8
		       f5a:   f85d eb04     ldr.w  lr, [sp], #4
		       f5e:   b003          add    sp, #12
		->     f60:   4770          bx lr
		  
		  00000f62 <buffer_add>:
		       f62:   b538          push   {r3, r4, r5, lr}
		       f64:   4604          mov    r4, r0
		--------------------
	(     f7e,     1048)	ret
		--------------------
		       f76:   68a2          ldr    r2, [r4, #8]
		       f78:   6863          ldr    r3, [r4, #4]
		       f7a:   429a          cmp    r2, r3
		       f7c:   d204          bcs.n  f88 <buffer_add+0x26>
		->     f7e:   bd38          pop    {r3, r4, r5, pc}
		       f80:   210d          movs   r1, #13
		       f82:   f7ff ffee     bl f62 <buffer_add>
		       f86:   e7f1          b.n    f6c <buffer_add+0xa>
		       f88:   4620          mov    r0, r4
		--------------------
	(     f7e,     138c)	ret
		--------------------
		       f76:   68a2          ldr    r2, [r4, #8]
		       f78:   6863          ldr    r3, [r4, #4]
		       f7a:   429a          cmp    r2, r3
		       f7c:   d204          bcs.n  f88 <buffer_add+0x26>
		->     f7e:   bd38          pop    {r3, r4, r5, pc}
		       f80:   210d          movs   r1, #13
		       f82:   f7ff ffee     bl f62 <buffer_add>
		       f86:   e7f1          b.n    f6c <buffer_add+0xa>
		       f88:   4620          mov    r0, r4
		--------------------
	(    1522,      374)	ret
		--------------------
		      1518:   9200          str    r2, [sp, #0]
		      151a:   aa03          add    r2, sp, #12
		      151c:   f7ff ff44     bl 13a8 <memobj_op>
		      1520:   b005          add    sp, #20
		->    1522:   f85d fb04     ldr.w  pc, [sp], #4
		  
		  00001526 <nrf_ringbuf_init>:
		      1526:   6882          ldr    r2, [r0, #8]
		      1528:   2300          movs   r3, #0
		--------------------
	(    177a,     177c)	ft
		--------------------
		  00001774 <UARTE0_UART0_IRQHandler>:
		      1774:   b508          push   {r3, lr}
		      1776:   4b02          ldr    r3, [pc, #8]   ; (1780 <UARTE0_UART0_IRQHandler+0xc>)
		      1778:   681b          ldr    r3, [r3, #0]
		->    177a:   4798          blx    r3
		      177c:   bd08          pop    {r3, pc}
		      177e:   bf00          nop
		      1780:   20000638  .word   0x20000638
		  
		--------------------
	(    1f8a,     1f76)	dead
		--------------------
		      1f7e:   f8d0 3108     ldr.w  r3, [r0, #264]   ; 0x108
		      1f82:   9300          str    r3, [sp, #0]
		      1f84:   9b00          ldr    r3, [sp, #0]
		      1f86:   f8d0 3518     ldr.w  r3, [r0, #1304]  ; 0x518
		->    1f8a:   e7f4          b.n    1f76 <rx_byte+0x24>
		  
		  00001f8c <rx_done_event>:
		      1f8c:   b500          push   {lr}
		      1f8e:   b085          sub    sp, #20
		--------------------
	(    1fde,     1fe6)	dead
		--------------------
		      1fd0:   f44f 7201     mov.w  r2, #516 ; 0x204
		      1fd4:   f8c3 2308     str.w  r2, [r3, #776]   ; 0x308
		      1fd8:   4b50          ldr    r3, [pc, #320] ; (211c <Heap_Size+0x11c>)
		      1fda:   f893 3029     ldrb.w r3, [r3, #41]   ; 0x29
		->    1fde:   b913          cbnz   r3, 1fe6 <nrfx_uart_0_irq_handler+0x3e>
		      1fe0:   4b4d          ldr    r3, [pc, #308] ; (2118 <Heap_Size+0x118>)
		      1fe2:   2201          movs   r2, #1
		      1fe4:   605a          str    r2, [r3, #4]
		      1fe6:   2302          movs   r3, #2
		--------------------
	(    200e,     2010)	dead
		--------------------
		      2006:   61da          str    r2, [r3, #28]
		      2008:   685a          ldr    r2, [r3, #4]
		      200a:   6819          ldr    r1, [r3, #0]
		      200c:   a802          add    r0, sp, #8
		->    200e:   4790          blx    r2
		      2010:   e00a          b.n    2028 <Heap_Size+0x28>
		      2012:   4b41          ldr    r3, [pc, #260] ; (2118 <Heap_Size+0x118>)
		      2014:   f8d3 3304     ldr.w  r3, [r3, #772]   ; 0x304
		      2018:   f013 0f04     tst.w  r3, #4
		--------------------
	(    209e,     20a0)	dead
		--------------------
		      2094:   f7ff ff5d     bl 1f52 <rx_byte>
		      2098:   6a63          ldr    r3, [r4, #36]  ; 0x24
		      209a:   69a2          ldr    r2, [r4, #24]
		      209c:   429a          cmp    r2, r3
		->    209e:   d1c3          bne.n  2028 <Heap_Size+0x28>
		      20a0:   69e3          ldr    r3, [r4, #28]
		      20a2:   b99b          cbnz   r3, 20cc <Heap_Size+0xcc>
		      20a4:   4b1d          ldr    r3, [pc, #116] ; (211c <Heap_Size+0x11c>)
		      20a6:   f893 3029     ldrb.w r3, [r3, #41]   ; 0x29
		--------------------
	(    20ca,     2028)	dead
		--------------------
		      20c0:   6183          str    r3, [r0, #24]
		      20c2:   6a41          ldr    r1, [r0, #36]  ; 0x24
		      20c4:   68c2          ldr    r2, [r0, #12]
		      20c6:   f7ff ff61     bl 1f8c <rx_done_event>
		->    20ca:   e7ad          b.n    2028 <Heap_Size+0x28>
		      20cc:   4620          mov    r0, r4
		      20ce:   68e2          ldr    r2, [r4, #12]
		      20d0:   6a61          ldr    r1, [r4, #36]  ; 0x24
		      20d2:   61a3          str    r3, [r4, #24]
		--------------------
	(    20de,     1f8c)	dead
		--------------------
		      20d6:   60e3          str    r3, [r4, #12]
		      20d8:   2300          movs   r3, #0
		      20da:   61e3          str    r3, [r4, #28]
		      20dc:   6263          str    r3, [r4, #36]  ; 0x24
		->    20de:   f7ff ff55     bl 1f8c <rx_done_event>
		      20e2:   e7a1          b.n    2028 <Heap_Size+0x28>
		      20e4:   490d          ldr    r1, [pc, #52]  ; (211c <Heap_Size+0x11c>)
		      20e6:   480c          ldr    r0, [pc, #48]  ; (2118 <Heap_Size+0x118>)
		      20e8:   f7ff ff21     bl 1f2e <tx_byte>
		--------------------
	(    2106,     205c)	dead
		--------------------
		      20fe:   685a          ldr    r2, [r3, #4]
		      2100:   6819          ldr    r1, [r3, #0]
		      2102:   a802          add    r0, sp, #8
		      2104:   4790          blx    r2
		->    2106:   e7a9          b.n    205c <Heap_Size+0x5c>
		      2108:   4804          ldr    r0, [pc, #16]  ; (211c <Heap_Size+0x11c>)
		      210a:   2300          movs   r3, #0
		      210c:   6183          str    r3, [r0, #24]
		      210e:   6a41          ldr    r1, [r0, #36]  ; 0x24
		--------------------

twi_sensor-o2: 20 | 189 | 6 dead | 14 ret
	(     7d2,      7da)	ret
		--------------------
		       7ca:   1ac0          subs   r0, r0, r3
		       7cc:   bf18          it ne
		       7ce:   2001          movne  r0, #1
		       7d0:   b005          add    sp, #20
		->     7d2:   e8bd 83f0     ldmia.w    sp!, {r4, r5, r6, r7, r8, r9, pc}
		       7d6:   f7ff ff85     bl 6e4 <nrf_log_frontend_dequeue>
		       7da:   2800          cmp    r0, #0
		       7dc:   d0f3          beq.n  7c6 <nrf_log_frontend_dequeue+0xe2>
		       7de:   f7ff ff81     bl 6e4 <nrf_log_frontend_dequeue>
		--------------------
	(     7d2,      998)	ret
		--------------------
		       7ca:   1ac0          subs   r0, r0, r3
		       7cc:   bf18          it ne
		       7ce:   2001          movne  r0, #1
		       7d0:   b005          add    sp, #20
		->     7d2:   e8bd 83f0     ldmia.w    sp!, {r4, r5, r6, r7, r8, r9, pc}
		       7d6:   f7ff ff85     bl 6e4 <nrf_log_frontend_dequeue>
		       7da:   2800          cmp    r0, #0
		       7dc:   d0f3          beq.n  7c6 <nrf_log_frontend_dequeue+0xe2>
		       7de:   f7ff ff81     bl 6e4 <nrf_log_frontend_dequeue>
		--------------------
	(     7d2,      a50)	ret
		--------------------
		       7ca:   1ac0          subs   r0, r0, r3
		       7cc:   bf18          it ne
		       7ce:   2001          movne  r0, #1
		       7d0:   b005          add    sp, #20
		->     7d2:   e8bd 83f0     ldmia.w    sp!, {r4, r5, r6, r7, r8, r9, pc}
		       7d6:   f7ff ff85     bl 6e4 <nrf_log_frontend_dequeue>
		       7da:   2800          cmp    r0, #0
		       7dc:   d0f3          beq.n  7c6 <nrf_log_frontend_dequeue+0xe2>
		       7de:   f7ff ff81     bl 6e4 <nrf_log_frontend_dequeue>
		--------------------
	(     7f8,      7da)	ret
		--------------------
		       7f0:   441d          add    r5, r3
		       7f2:   e79a          b.n    72a <nrf_log_frontend_dequeue+0x46>
		       7f4:   60a6          str    r6, [r4, #8]
		       7f6:   b005          add    sp, #20
		->     7f8:   e8bd 83f0     ldmia.w    sp!, {r4, r5, r6, r7, r8, r9, pc}
		       7fc:   2000          movs   r0, #0
		       7fe:   b005          add    sp, #20
		       800:   e8bd 83f0     ldmia.w    sp!, {r4, r5, r6, r7, r8, r9, pc}
		       804:   f8bd 3006     ldrh.w r3, [sp, #6]
		--------------------
	(     800,      998)	ret
		--------------------
		       7f6:   b005          add    sp, #20
		       7f8:   e8bd 83f0     ldmia.w    sp!, {r4, r5, r6, r7, r8, r9, pc}
		       7fc:   2000          movs   r0, #0
		       7fe:   b005          add    sp, #20
		->     800:   e8bd 83f0     ldmia.w    sp!, {r4, r5, r6, r7, r8, r9, pc}
		       804:   f8bd 3006     ldrh.w r3, [sp, #6]
		       808:   4857          ldr    r0, [pc, #348] ; (968 <nrf_log_frontend_dequeue+0x284>)
		       80a:   f3c3 1889     ubfx   r8, r3, #6, #10
		       80e:   4645          mov    r5, r8
		--------------------
	(     b38,      b88)	ret
		--------------------
		       b2e:   f000 fa0b     bl f48 <nrf_fprintf>
		       b32:   7a23          ldrb   r3, [r4, #8]
		       b34:   e7e1          b.n    afa <prefix_process.constprop.0+0x16>
		       b36:   b005          add    sp, #20
		->     b38:   bd30          pop    {r4, r5, pc}
		       b3a:   4908          ldr    r1, [pc, #32]  ; (b5c <prefix_process.constprop.0+0x78>)
		       b3c:   9100          str    r1, [sp, #0]
		       b3e:   4a08          ldr    r2, [pc, #32]  ; (b60 <prefix_process.constprop.0+0x7c>)
		       b40:   4908          ldr    r1, [pc, #32]  ; (b64 <prefix_process.constprop.0+0x80>)
		--------------------
	(     e30,      830)	ret
		--------------------
		       e22:   eb02 0001     add.w  r0, r2, r1
		       e26:   e843 0c00     strex  ip, r0, [r3]
		       e2a:   f09c 0f00     teq    ip, #0
		       e2e:   d1f6          bne.n  e1e <nrf_atomic_u32_add+0x2>
		->     e30:   4770          bx lr
		       e32:   bf00          nop
		  
		  00000e34 <nrf_atomic_u32_sub>:
		       e34:   4603          mov    r3, r0
		--------------------
	(     f02,     1670)	ret
		--------------------
		       ef8:   2400          movs   r4, #0
		       efa:   2000          movs   r0, #0
		       efc:   f7ff ff7a     bl df4 <app_util_critical_region_exit>
		       f00:   4620          mov    r0, r4
		->     f02:   bd38          pop    {r3, r4, r5, pc}
		  
		  00000f04 <nrf_balloc_free>:
		       f04:   b538          push   {r3, r4, r5, lr}
		       f06:   4605          mov    r5, r0
		--------------------
	(     f44,     13fe)	ret
		--------------------
		       f3c:   6900          ldr    r0, [r0, #16]
		       f3e:   4798          blx    r3
		       f40:   2300          movs   r3, #0
		       f42:   60a3          str    r3, [r4, #8]
		->     f44:   bd10          pop    {r4, pc}
		       f46:   4770          bx lr
		  
		  00000f48 <nrf_fprintf>:
		       f48:   b40e          push   {r1, r2, r3}
		--------------------
	(     f44,     145c)	ret
		--------------------
		       f3c:   6900          ldr    r0, [r0, #16]
		       f3e:   4798          blx    r3
		       f40:   2300          movs   r3, #0
		       f42:   60a3          str    r3, [r4, #8]
		->     f44:   bd10          pop    {r4, pc}
		       f46:   4770          bx lr
		  
		  00000f48 <nrf_fprintf>:
		       f48:   b40e          push   {r1, r2, r3}
		--------------------
	(     f46,     1096)	ret
		--------------------
		       f3e:   4798          blx    r3
		       f40:   2300          movs   r3, #0
		       f42:   60a3          str    r3, [r4, #8]
		       f44:   bd10          pop    {r4, pc}
		->     f46:   4770          bx lr
		  
		  00000f48 <nrf_fprintf>:
		       f48:   b40e          push   {r1, r2, r3}
		       f4a:   b500          push   {lr}
		--------------------
	(     f64,      b48)	ret
		--------------------
		       f58:   f000 f8ae     bl 10b8 <nrf_fprintf_fmt>
		       f5c:   b002          add    sp, #8
		       f5e:   f85d eb04     ldr.w  lr, [sp], #4
		       f62:   b003          add    sp, #12
		->     f64:   4770          bx lr
		       f66:   bf00          nop
		  
		  00000f68 <unsigned_print>:
		       f68:   e92d 4ff0     stmdb  sp!, {r4, r5, r6, r7, r8, r9, sl, fp, lr}
		--------------------
	(     f64,      ce4)	ret
		--------------------
		       f58:   f000 f8ae     bl 10b8 <nrf_fprintf_fmt>
		       f5c:   b002          add    sp, #8
		       f5e:   f85d eb04     ldr.w  lr, [sp], #4
		       f62:   b003          add    sp, #12
		->     f64:   4770          bx lr
		       f66:   bf00          nop
		  
		  00000f68 <unsigned_print>:
		       f68:   e92d 4ff0     stmdb  sp!, {r4, r5, r6, r7, r8, r9, sl, fp, lr}
		--------------------
	(    172c,      872)	ret
		--------------------
		      1722:   aa03          add    r2, sp, #12
		      1724:   9403          str    r4, [sp, #12]
		      1726:   f7ff ff39     bl 159c <memobj_op>
		      172a:   b005          add    sp, #20
		->    172c:   bd30          pop    {r4, r5, pc}
		      172e:   bf00          nop
		  
		  00001730 <nrf_memobj_read>:
		      1730:   b530          push   {r4, r5, lr}
		--------------------
	(    22b2,     22b4)	dead
		--------------------
		      22a6:   f8c2 1308     str.w  r1, [r2, #776]   ; 0x308
		      22aa:   f893 1029     ldrb.w r1, [r3, #41]   ; 0x29
		      22ae:   b909          cbnz   r1, 22b4 <nrfx_uart_0_irq_handler+0x38>
		      22b0:   2101          movs   r1, #1
		->    22b2:   6051          str    r1, [r2, #4]
		      22b4:   4a60          ldr    r2, [pc, #384] ; (2438 <nrfx_uart_0_irq_handler+0x1bc>)
		      22b6:   2102          movs   r1, #2
		      22b8:   f88d 1018     strb.w r1, [sp, #24]
		      22bc:   f8d2 1480     ldr.w  r1, [r2, #1152]  ; 0x480
		--------------------
	(    2398,     22dc)	dead
		--------------------
		      2390:   3201          adds   r2, #1
		      2392:   625a          str    r2, [r3, #36]  ; 0x24
		      2394:   6a5a          ldr    r2, [r3, #36]  ; 0x24
		      2396:   428a          cmp    r2, r1
		->    2398:   d1a0          bne.n  22dc <nrfx_uart_0_irq_handler+0x60>
		      239a:   69da          ldr    r2, [r3, #28]
		      239c:   2a00          cmp    r2, #0
		      239e:   d031          beq.n  2404 <nrfx_uart_0_irq_handler+0x188>
		      23a0:   619a          str    r2, [r3, #24]
		--------------------
	(    23c0,     23c2)	dead
		--------------------
		      23b6:   685c          ldr    r4, [r3, #4]
		      23b8:   6819          ldr    r1, [r3, #0]
		      23ba:   f88d 2018     strb.w r2, [sp, #24]
		      23be:   a806          add    r0, sp, #24
		->    23c0:   47a0          blx    r4
		      23c2:   e78b          b.n    22dc <nrfx_uart_0_irq_handler+0x60>
		      23c4:   4a1c          ldr    r2, [pc, #112] ; (2438 <nrfx_uart_0_irq_handler+0x1bc>)
		      23c6:   2000          movs   r0, #0
		      23c8:   f8c2 011c     str.w  r0, [r2, #284]   ; 0x11c
		--------------------
	(    23d8,     23da)	dead
		--------------------
		      23d0:   9202          str    r2, [sp, #8]
		      23d2:   9a02          ldr    r2, [sp, #8]
		      23d4:   695a          ldr    r2, [r3, #20]
		      23d6:   2a00          cmp    r2, #0
		->    23d8:   d09d          beq.n  2316 <nrfx_uart_0_irq_handler+0x9a>
		      23da:   e9d3 2101     ldrd   r2, r1, [r3, #4]
		      23de:   695c          ldr    r4, [r3, #20]
		      23e0:   f88d 0018     strb.w r0, [sp, #24]
		      23e4:   e9cd 1407     strd   r1, r4, [sp, #28]
		--------------------
	(    2408,     240a)	dead
		--------------------
		      23fc:   9805          ldr    r0, [sp, #20]
		      23fe:   f8d2 2518     ldr.w  r2, [r2, #1304]  ; 0x518
		      2402:   e7c7          b.n    2394 <nrfx_uart_0_irq_handler+0x118>
		      2404:   f893 2029     ldrb.w r2, [r3, #41]   ; 0x29
		->    2408:   b912          cbnz   r2, 2410 <nrfx_uart_0_irq_handler+0x194>
		      240a:   4a0b          ldr    r2, [pc, #44]  ; (2438 <nrfx_uart_0_irq_handler+0x1bc>)
		      240c:   2101          movs   r1, #1
		      240e:   6051          str    r1, [r2, #4]
		      2410:   4a09          ldr    r2, [pc, #36]  ; (2438 <nrfx_uart_0_irq_handler+0x1bc>)
		--------------------
	(    2432,     2434)	dead
		--------------------
		      2426:   6199          str    r1, [r3, #24]
		      2428:   f88d 2018     strb.w r2, [sp, #24]
		      242c:   a806          add    r0, sp, #24
		      242e:   e9d3 1200     ldrd   r1, r2, [r3]
		->    2432:   4790          blx    r2
		      2434:   e752          b.n    22dc <nrfx_uart_0_irq_handler+0x60>
		      2436:   bf00          nop
		      2438:   40002000  .word   0x40002000
		      243c:   20000674  .word   0x20000674
		--------------------

twi_sensor-o3: 20 | 188 | 7 dead | 13 ret
	(     75a,      96a)	ret
		--------------------
		       750:   b005          add    sp, #20
		       752:   e8bd 83f0     ldmia.w    sp!, {r4, r5, r6, r7, r8, r9, pc}
		       756:   2000          movs   r0, #0
		       758:   b005          add    sp, #20
		->     75a:   e8bd 83f0     ldmia.w    sp!, {r4, r5, r6, r7, r8, r9, pc}
		       75e:   f8bd 3006     ldrh.w r3, [sp, #6]
		       762:   4858          ldr    r0, [pc, #352] ; (8c4 <nrf_log_frontend_dequeue+0x240>)
		       764:   f3c3 1889     ubfx   r8, r3, #6, #10
		       768:   4645          mov    r5, r8
		--------------------
	(     e14,      8f6)	ret
		--------------------
		       e06:   eb02 0001     add.w  r0, r2, r1
		       e0a:   e843 0c00     strex  ip, r0, [r3]
		       e0e:   f09c 0f00     teq    ip, #0
		       e12:   d1f6          bne.n  e02 <nrf_atomic_u32_add+0x2>
		->     e14:   4770          bx lr
		       e16:   bf00          nop
		  
		  00000e18 <nrf_atomic_u32_sub>:
		       e18:   4603          mov    r3, r0
		--------------------
	(     f28,     13fe)	ret
		--------------------
		       f20:   6900          ldr    r0, [r0, #16]
		       f22:   4798          blx    r3
		       f24:   2300          movs   r3, #0
		       f26:   60a3          str    r3, [r4, #8]
		->     f28:   bd10          pop    {r4, pc}
		       f2a:   4770          bx lr
		  
		  00000f2c <nrf_fprintf>:
		       f2c:   b40e          push   {r1, r2, r3}
		--------------------
	(     f2a,     137a)	ret
		--------------------
		       f22:   4798          blx    r3
		       f24:   2300          movs   r3, #0
		       f26:   60a3          str    r3, [r4, #8]
		       f28:   bd10          pop    {r4, pc}
		->     f2a:   4770          bx lr
		  
		  00000f2c <nrf_fprintf>:
		       f2c:   b40e          push   {r1, r2, r3}
		       f2e:   b500          push   {lr}
		--------------------
	(     f2a,     13a8)	ret
		--------------------
		       f22:   4798          blx    r3
		       f24:   2300          movs   r3, #0
		       f26:   60a3          str    r3, [r4, #8]
		       f28:   bd10          pop    {r4, pc}
		->     f2a:   4770          bx lr
		  
		  00000f2c <nrf_fprintf>:
		       f2c:   b40e          push   {r1, r2, r3}
		       f2e:   b500          push   {lr}
		--------------------ret
	(     f2a,     13fe)	
		--------------------
		       f22:   4798          blx    r3
		       f24:   2300          movs   r3, #0
		       f26:   60a3          str    r3, [r4, #8]
		       f28:   bd10          pop    {r4, pc}
		->     f2a:   4770          bx lr
		  
		  00000f2c <nrf_fprintf>:
		       f2c:   b40e          push   {r1, r2, r3}
		       f2e:   b500          push   {lr}
		--------------------
	(     f2a,     1538)	ret
		--------------------
		       f22:   4798          blx    r3
		       f24:   2300          movs   r3, #0
		       f26:   60a3          str    r3, [r4, #8]
		       f28:   bd10          pop    {r4, pc}
		->     f2a:   4770          bx lr
		  
		  00000f2c <nrf_fprintf>:
		       f2c:   b40e          push   {r1, r2, r3}
		       f2e:   b500          push   {lr}
		--------------------
	(     f2a,     15f4)	ret
		--------------------
		       f22:   4798          blx    r3
		       f24:   2300          movs   r3, #0
		       f26:   60a3          str    r3, [r4, #8]
		       f28:   bd10          pop    {r4, pc}
		->     f2a:   4770          bx lr
		  
		  00000f2c <nrf_fprintf>:
		       f2c:   b40e          push   {r1, r2, r3}
		       f2e:   b500          push   {lr}
		--------------------
	(     f48,      bfa)	ret
		--------------------
		       f3c:   f000 f8b6     bl 10ac <nrf_fprintf_fmt>
		       f40:   b002          add    sp, #8
		       f42:   f85d eb04     ldr.w  lr, [sp], #4
		       f46:   b003          add    sp, #12
		->     f48:   4770          bx lr
		       f4a:   bf00          nop
		  
		  00000f4c <unsigned_print>:
		       f4c:   e92d 4ff0     stmdb  sp!, {r4, r5, r6, r7, r8, r9, sl, fp, lr}
		--------------------
	(     f48,      c10)	ret
		--------------------
		       f3c:   f000 f8b6     bl 10ac <nrf_fprintf_fmt>
		       f40:   b002          add    sp, #8
		       f42:   f85d eb04     ldr.w  lr, [sp], #4
		       f46:   b003          add    sp, #12
		->     f48:   4770          bx lr
		       f4a:   bf00          nop
		  
		  00000f4c <unsigned_print>:
		       f4c:   e92d 4ff0     stmdb  sp!, {r4, r5, r6, r7, r8, r9, sl, fp, lr}
		--------------------
	(    1a4e,     23d2)	ret
		--------------------
		      1a44:   b124          cbz    r4, 1a50 <nrfx_prs_acquire+0x20>
		      1a46:   2000          movs   r0, #0
		      1a48:   f7ff f9c6     bl dd8 <app_util_critical_region_exit>
		      1a4c:   2011          movs   r0, #17
		->    1a4e:   bd38          pop    {r3, r4, r5, pc}
		      1a50:   2201          movs   r2, #1
		      1a52:   4620          mov    r0, r4
		      1a54:   601d          str    r5, [r3, #0]
		      1a56:   711a          strb   r2, [r3, #4]
		--------------------
	(    1a62,     1d32)	ret
		--------------------
		      1a58:   f7ff f9be     bl dd8 <app_util_critical_region_exit>
		      1a5c:   4620          mov    r0, r4
		      1a5e:   bd38          pop    {r3, r4, r5, pc}
		      1a60:   2000          movs   r0, #0
		->    1a62:   bd38          pop    {r3, r4, r5, pc}
		      1a64:   40002000  .word   0x40002000
		      1a68:   2000063c  .word   0x2000063c
		  
		  00001a6c <nrfx_prs_release>:
		--------------------
	(    1f08,     2cb2)	ret
		--------------------
		      1efe:   68ab          ldr    r3, [r5, #8]
		      1f00:   f8c4 3304     str.w  r3, [r4, #772]   ; 0x304
		      1f04:   2000          movs   r0, #0
		      1f06:   b009          add    sp, #36    ; 0x24
		->    1f08:   e8bd 83f0     ldmia.w    sp!, {r4, r5, r6, r7, r8, r9, pc}
		      1f0c:   2010          movs   r0, #16
		      1f0e:   b009          add    sp, #36    ; 0x24
		      1f10:   e8bd 83f0     ldmia.w    sp!, {r4, r5, r6, r7, r8, r9, pc}
		      1f14:   05c3          lsls   r3, r0, #23
		--------------------
	(    2240,     2242)	dead
		--------------------
		      2236:   a806          add    r0, sp, #24
		      2238:   4790          blx    r2
		      223a:   4a59          ldr    r2, [pc, #356] ; (23a0 <nrfx_uart_0_irq_handler+0x1c8>)
		      223c:   f8d2 311c     ldr.w  r3, [r2, #284]   ; 0x11c
		->    2240:   b1c3          cbz    r3, 2274 <nrfx_uart_0_irq_handler+0x9c>
		      2242:   4b58          ldr    r3, [pc, #352] ; (23a4 <nrfx_uart_0_irq_handler+0x1cc>)
		      2244:   6958          ldr    r0, [r3, #20]
		      2246:   6a19          ldr    r1, [r3, #32]
		      2248:   4288          cmp    r0, r1
		--------------------
	(    2290,     2292)	dead
		--------------------
		      2284:   f8d2 0144     ldr.w  r0, [r2, #324]   ; 0x144
		      2288:   f893 1029     ldrb.w r1, [r3, #41]   ; 0x29
		      228c:   9000          str    r0, [sp, #0]
		      228e:   9800          ldr    r0, [sp, #0]
		->    2290:   b109          cbz    r1, 2296 <nrfx_uart_0_irq_handler+0xbe>
		      2292:   2101          movs   r1, #1
		      2294:   6011          str    r1, [r2, #0]
		      2296:   699a          ldr    r2, [r3, #24]
		      2298:   b162          cbz    r2, 22b4 <nrfx_uart_0_irq_handler+0xdc>
		--------------------
	(    22c0,     223a)	dead
		--------------------
		      22b6:   bd10          pop    {r4, pc}
		      22b8:   4a39          ldr    r2, [pc, #228] ; (23a0 <nrfx_uart_0_irq_handler+0x1c8>)
		      22ba:   f8d2 3304     ldr.w  r3, [r2, #772]   ; 0x304
		      22be:   075b          lsls   r3, r3, #29
		->    22c0:   d5bb          bpl.n  223a <nrfx_uart_0_irq_handler+0x62>
		      22c2:   f8d2 3108     ldr.w  r3, [r2, #264]   ; 0x108
		      22c6:   2b00          cmp    r3, #0
		      22c8:   d0b7          beq.n  223a <nrfx_uart_0_irq_handler+0x62>
		      22ca:   4b36          ldr    r3, [pc, #216] ; (23a4 <nrfx_uart_0_irq_handler+0x1cc>)
		--------------------
	(    22c0,     22c2)	dead
		--------------------
		      22b6:   bd10          pop    {r4, pc}
		      22b8:   4a39          ldr    r2, [pc, #228] ; (23a0 <nrfx_uart_0_irq_handler+0x1c8>)
		      22ba:   f8d2 3304     ldr.w  r3, [r2, #772]   ; 0x304
		      22be:   075b          lsls   r3, r3, #29
		->    22c0:   d5bb          bpl.n  223a <nrfx_uart_0_irq_handler+0x62>
		      22c2:   f8d2 3108     ldr.w  r3, [r2, #264]   ; 0x108
		      22c6:   2b00          cmp    r3, #0
		      22c8:   d0b7          beq.n  223a <nrfx_uart_0_irq_handler+0x62>
		      22ca:   4b36          ldr    r3, [pc, #216] ; (23a4 <nrfx_uart_0_irq_handler+0x1cc>)
		--------------------
	(    22fc,     2362)	dead
		--------------------
		      22f4:   428a          cmp    r2, r1
		      22f6:   d1a0          bne.n  223a <nrfx_uart_0_irq_handler+0x62>
		      22f8:   69da          ldr    r2, [r3, #28]
		      22fa:   2a00          cmp    r2, #0
		->    22fc:   d031          beq.n  2362 <nrfx_uart_0_irq_handler+0x18a>
		      22fe:   619a          str    r2, [r3, #24]
		      2300:   691a          ldr    r2, [r3, #16]
		      2302:   68d8          ldr    r0, [r3, #12]
		      2304:   6a5c          ldr    r4, [r3, #36]  ; 0x24
		--------------------
	(    234e,     2274)	dead
		--------------------
		      2346:   6158          str    r0, [r3, #20]
		      2348:   6819          ldr    r1, [r3, #0]
		      234a:   a806          add    r0, sp, #24
		      234c:   4790          blx    r2
		->    234e:   e791          b.n    2274 <nrfx_uart_0_irq_handler+0x9c>
		      2350:   f8c2 1108     str.w  r1, [r2, #264]   ; 0x108
		      2354:   f8d2 0108     ldr.w  r0, [r2, #264]   ; 0x108
		      2358:   9005          str    r0, [sp, #20]
		      235a:   9805          ldr    r0, [sp, #20]
		--------------------
	(    2366,     236e)	dead
		--------------------
		      235a:   9805          ldr    r0, [sp, #20]
		      235c:   f8d2 2518     ldr.w  r2, [r2, #1304]  ; 0x518
		      2360:   e7c7          b.n    22f2 <nrfx_uart_0_irq_handler+0x11a>
		      2362:   f893 2029     ldrb.w r2, [r3, #41]   ; 0x29
		->    2366:   b912          cbnz   r2, 236e <nrfx_uart_0_irq_handler+0x196>
		      2368:   4a0d          ldr    r2, [pc, #52]  ; (23a0 <nrfx_uart_0_irq_handler+0x1c8>)
		      236a:   2101          movs   r1, #1
		      236c:   6051          str    r1, [r2, #4]
		      236e:   4a0c          ldr    r2, [pc, #48]  ; (23a0 <nrfx_uart_0_irq_handler+0x1c8>)
		--------------------

uart-o0: 42 | 422 | 15 jt | 10 dead | 10 ret
	(     302,      3de)	ret
		--------------------
		       2f8:   4618          mov    r0, r3
		       2fa:   370c          adds   r7, #12
		       2fc:   46bd          mov    sp, r7
		       2fe:   f85d 7b04     ldr.w  r7, [sp], #4
		->     302:   4770          bx lr
		  
		  00000304 <nrf_gpio_cfg>:
		       304:   b580          push   {r7, lr}
		       306:   b084          sub    sp, #16
		--------------------
	(     3f6,      40e)	ret
		--------------------
		       3ec:   f000 f826     bl 43c <nrf_gpio_port_out_clear>
		       3f0:   bf00          nop
		       3f2:   3710          adds   r7, #16
		       3f4:   46bd          mov    sp, r7
		->     3f6:   bd80          pop    {r7, pc}
		  
		  000003f8 <nrf_gpio_pin_write>:
		       3f8:   b580          push   {r7, lr}
		       3fa:   b082          sub    sp, #8
		--------------------
	(     40a,      3ce)	
		--------------------
		       402:   683b          ldr    r3, [r7, #0]
		       404:   2b00          cmp    r3, #0
		       406:   d103          bne.n  410 <nrf_gpio_pin_write+0x18>
		       408:   6878          ldr    r0, [r7, #4]
		->     40a:   f7ff ffe0     bl 3ce <nrf_gpio_pin_clear>
		       40e:   e002          b.n    416 <nrf_gpio_pin_write+0x1e>
		       410:   6878          ldr    r0, [r7, #4]
		       412:   f7ff ffc7     bl 3a4 <nrf_gpio_pin_set>
		       416:   bf00          nop
		--------------------
	(     458,      3f0)	ret
		--------------------
		       44e:   bf00          nop
		       450:   370c          adds   r7, #12
		       452:   46bd          mov    sp, r7
		       454:   f85d 7b04     ldr.w  r7, [sp], #4
		->     458:   4770          bx lr
		      ...
		  
		  0000045c <bsp_board_led_off>:
		       45c:   b580          push   {r7, lr}
		--------------------
	(     bf2,      bf4)	dead
		--------------------
		       be8:   4618          mov    r0, r3
		       bea:   f7ff ff87     bl afc <app_uart_put>
		       bee:   697b          ldr    r3, [r7, #20]
		       bf0:   3301          adds   r3, #1
		->     bf2:   617b          str    r3, [r7, #20]
		       bf4:   697a          ldr    r2, [r7, #20]
		       bf6:   687b          ldr    r3, [r7, #4]
		       bf8:   429a          cmp    r2, r3
		       bfa:   dbf1          blt.n  be0 <_write+0x12>
		--------------------
	(     f4c,     19dc)	ret
		--------------------
		       f42:   bf00          nop
		       f44:   3714          adds   r7, #20
		       f46:   46bd          mov    sp, r7
		       f48:   f85d 7b04     ldr.w  r7, [sp], #4
		->     f4c:   4770          bx lr
		  
		  00000f4e <nrf_uart_event_check>:
		       f4e:   b480          push   {r7}
		       f50:   b083          sub    sp, #12
		--------------------
	(    18ec,     18ee)	dead
		--------------------
		      18e2:   683a          ldr    r2, [r7, #0]
		      18e4:   6811          ldr    r1, [r2, #0]
		      18e6:   f107 020c     add.w  r2, r7, #12
		      18ea:   4610          mov    r0, r2
		->    18ec:   4798          blx    r3
		      18ee:   e052          b.n    1996 <uart_irq_handler+0x134>
		      18f0:   2104          movs   r1, #4
		      18f2:   6878          ldr    r0, [r7, #4]
		      18f4:   f7ff fb4f     bl f96 <nrf_uart_int_enable_check>
		--------------------
	(    1920,     1922)	dead
		--------------------
		      1918:   699a          ldr    r2, [r3, #24]
		      191a:   683b          ldr    r3, [r7, #0]
		      191c:   6a5b          ldr    r3, [r3, #36]  ; 0x24
		      191e:   429a          cmp    r2, r3
		->    1920:   d139          bne.n  1996 <uart_irq_handler+0x134>
		      1922:   683b          ldr    r3, [r7, #0]
		      1924:   69db          ldr    r3, [r3, #28]
		      1926:   2b00          cmp    r3, #0
		      1928:   d019          beq.n  195e <uart_irq_handler+0xfc>
		--------------------
	(    196c,     196e)	dead
		--------------------
		      1960:   f893 3029     ldrb.w r3, [r3, #41]   ; 0x29
		      1964:   f083 0301     eor.w  r3, r3, #1
		      1968:   b2db          uxtb   r3, r3
		      196a:   2b00          cmp    r3, #0
		->    196c:   d003          beq.n  1976 <uart_irq_handler+0x114>
		      196e:   2104          movs   r1, #4
		      1970:   6878          ldr    r0, [r7, #4]
		      1972:   f7ff fb9b     bl 10ac <nrf_uart_task_trigger>
		      1976:   f44f 7101     mov.w  r1, #516 ; 0x204
		--------------------
	(    1a40,     1a50)	ret
		--------------------
		      1a36:   f7ff fee1     bl 17fc <rx_done_event>
		      1a3a:   bf00          nop
		      1a3c:   3728          adds   r7, #40   ; 0x28
		      1a3e:   46bd          mov    sp, r7
		->    1a40:   bd80          pop    {r7, pc}
		      ...
		  
		  00001a44 <nrfx_uart_0_irq_handler>:
		      1a44:   b580          push   {r7, lr}
		--------------------
	(    1bc4,     2388)	ret
		--------------------
		      1bba:   4618          mov    r0, r3
		      1bbc:   370c          adds   r7, #12
		      1bbe:   46bd          mov    sp, r7
		      1bc0:   f85d 7b04     ldr.w  r7, [sp], #4
		->    1bc4:   4770          bx lr
		  
		  00001bc6 <nrf_uarte_shorts_enable>:
		      1bc6:   b480          push   {r7}
		      1bc8:   b083          sub    sp, #12
		--------------------
	(    27da,     27f4)	jt
		--------------------
		      27d2:   3b03          subs   r3, #3
		      27d4:   2b03          cmp    r3, #3
		      27d6:   d813          bhi.n  2800 <nrf52_errata_16+0x50>
		      27d8:   a201          add    r2, pc, #4 ; (adr r2, 27e0 <nrf52_errata_16+0x30>)
		->    27da:   f852 f023     ldr.w  pc, [r2, r3, lsl #2]
		      27de:   bf00          nop
		      27e0:   000027f1  .word   0x000027f1
		      27e4:   000027f5  .word   0x000027f5
		      27e8:   000027f9  .word   0x000027f9
		--------------------
	(    27f2,     2806)	jt
		--------------------
		      27e4:   000027f5  .word   0x000027f5
		      27e8:   000027f9  .word   0x000027f9
		      27ec:   000027fd  .word   0x000027fd
		      27f0:   2301          movs   r3, #1
		->    27f2:   e008          b.n    2806 <nrf52_errata_16+0x56>
		      27f4:   2300          movs   r3, #0
		      27f6:   e006          b.n    2806 <nrf52_errata_16+0x56>
		      27f8:   2300          movs   r3, #0
		      27fa:   e004          b.n    2806 <nrf52_errata_16+0x56>
		--------------------
	(    27f6,     2806)	jt
		--------------------
		      27ec:   000027fd  .word   0x000027fd
		      27f0:   2301          movs   r3, #1
		      27f2:   e008          b.n    2806 <nrf52_errata_16+0x56>
		      27f4:   2300          movs   r3, #0
		->    27f6:   e006          b.n    2806 <nrf52_errata_16+0x56>
		      27f8:   2300          movs   r3, #0
		      27fa:   e004          b.n    2806 <nrf52_errata_16+0x56>
		      27fc:   2300          movs   r3, #0
		      27fe:   e002          b.n    2806 <nrf52_errata_16+0x56>
		--------------------
	(    27fe,     2806)	jt
		--------------------
		      27f6:   e006          b.n    2806 <nrf52_errata_16+0x56>
		      27f8:   2300          movs   r3, #0
		      27fa:   e004          b.n    2806 <nrf52_errata_16+0x56>
		      27fc:   2300          movs   r3, #0
		->    27fe:   e002          b.n    2806 <nrf52_errata_16+0x56>
		      2800:   2300          movs   r3, #0
		      2802:   e000          b.n    2806 <nrf52_errata_16+0x56>
		      2804:   2300          movs   r3, #0
		      2806:   4618          mov    r0, r3
		--------------------
	(    2876,     288a)	jt
		--------------------
		      2868:   00002879  .word   0x00002879
		      286c:   0000287d  .word   0x0000287d
		      2870:   00002881  .word   0x00002881
		      2874:   2301          movs   r3, #1
		->    2876:   e008          b.n    288a <nrf52_errata_31+0x6e>
		      2878:   2301          movs   r3, #1
		      287a:   e006          b.n    288a <nrf52_errata_31+0x6e>
		      287c:   2301          movs   r3, #1
		      287e:   e004          b.n    288a <nrf52_errata_31+0x6e>
		--------------------
	(    28d2,     28f0)	jt
		--------------------
		      28ca:   3b03          subs   r3, #3
		      28cc:   2b03          cmp    r3, #3
		      28ce:   d813          bhi.n  28f8 <nrf52_errata_32+0x50>
		      28d0:   a201          add    r2, pc, #4 ; (adr r2, 28d8 <nrf52_errata_32+0x30>)
		->    28d2:   f852 f023     ldr.w  pc, [r2, r3, lsl #2]
		      28d6:   bf00          nop
		      28d8:   000028e9  .word   0x000028e9
		      28dc:   000028ed  .word   0x000028ed
		      28e0:   000028f1  .word   0x000028f1
		--------------------
	(    28d2,     28f4)	jt
		--------------------
		      28ca:   3b03          subs   r3, #3
		      28cc:   2b03          cmp    r3, #3
		      28ce:   d813          bhi.n  28f8 <nrf52_errata_32+0x50>
		      28d0:   a201          add    r2, pc, #4 ; (adr r2, 28d8 <nrf52_errata_32+0x30>)
		->    28d2:   f852 f023     ldr.w  pc, [r2, r3, lsl #2]
		      28d6:   bf00          nop
		      28d8:   000028e9  .word   0x000028e9
		      28dc:   000028ed  .word   0x000028ed
		      28e0:   000028f1  .word   0x000028f1
		--------------------
	(    28ee,     28fe)	jt
		--------------------
		      28e4:   000028f5  .word   0x000028f5
		      28e8:   2301          movs   r3, #1
		      28ea:   e008          b.n    28fe <nrf52_errata_32+0x56>
		      28ec:   2300          movs   r3, #0
		->    28ee:   e006          b.n    28fe <nrf52_errata_32+0x56>
		      28f0:   2300          movs   r3, #0
		      28f2:   e004          b.n    28fe <nrf52_errata_32+0x56>
		      28f4:   2300          movs   r3, #0
		      28f6:   e002          b.n    28fe <nrf52_errata_32+0x56>
		--------------------
	(    2956,     2974)	jt
		--------------------
		      294e:   3b03          subs   r3, #3
		      2950:   2b03          cmp    r3, #3
		      2952:   d813          bhi.n  297c <nrf52_errata_36+0x68>
		      2954:   a201          add    r2, pc, #4 ; (adr r2, 295c <nrf52_errata_36+0x48>)
		->    2956:   f852 f023     ldr.w  pc, [r2, r3, lsl #2]
		      295a:   bf00          nop
		      295c:   0000296d  .word   0x0000296d
		      2960:   00002971  .word   0x00002971
		      2964:   00002975  .word   0x00002975
		--------------------
	(    296e,     2982)	jt
		--------------------
		      2960:   00002971  .word   0x00002971
		      2964:   00002975  .word   0x00002975
		      2968:   00002979  .word   0x00002979
		      296c:   2301          movs   r3, #1
		->    296e:   e008          b.n    2982 <nrf52_errata_36+0x6e>
		      2970:   2301          movs   r3, #1
		      2972:   e006          b.n    2982 <nrf52_errata_36+0x6e>
		      2974:   2301          movs   r3, #1
		      2976:   e004          b.n    2982 <nrf52_errata_36+0x6e>
		--------------------
	(    29ea,     29f6)	jt
		--------------------
		      29e2:   e008          b.n    29f6 <nrf52_errata_37+0x56>
		      29e4:   2300          movs   r3, #0
		      29e6:   e006          b.n    29f6 <nrf52_errata_37+0x56>
		      29e8:   2300          movs   r3, #0
		->    29ea:   e004          b.n    29f6 <nrf52_errata_37+0x56>
		      29ec:   2300          movs   r3, #0
		      29ee:   e002          b.n    29f6 <nrf52_errata_37+0x56>
		      29f0:   2300          movs   r3, #0
		      29f2:   e000          b.n    29f6 <nrf52_errata_37+0x56>
		--------------------
	(    2a36,     2a54)	jt
		--------------------
		      2a2e:   3b03          subs   r3, #3
		      2a30:   2b03          cmp    r3, #3
		      2a32:   d813          bhi.n  2a5c <nrf52_errata_57+0x50>
		      2a34:   a201          add    r2, pc, #4 ; (adr r2, 2a3c <nrf52_errata_57+0x30>)
		->    2a36:   f852 f023     ldr.w  pc, [r2, r3, lsl #2]
		      2a3a:   bf00          nop
		      2a3c:   00002a4d  .word   0x00002a4d
		      2a40:   00002a51  .word   0x00002a51
		      2a44:   00002a55  .word   0x00002a55
		--------------------
	(    2b46,     2b5c)	jt
		--------------------
		      2b3e:   3b03          subs   r3, #3
		      2b40:   2b03          cmp    r3, #3
		      2b42:   d813          bhi.n  2b6c <nrf52_errata_108+0x68>
		      2b44:   a201          add    r2, pc, #4 ; (adr r2, 2b4c <nrf52_errata_108+0x48>)
		->    2b46:   f852 f023     ldr.w  pc, [r2, r3, lsl #2]
		      2b4a:   bf00          nop
		      2b4c:   00002b5d  .word   0x00002b5d
		      2b50:   00002b61  .word   0x00002b61
		      2b54:   00002b65  .word   0x00002b65
		--------------------
	(    2b46,     2b68)	jt
		--------------------
		      2b3e:   3b03          subs   r3, #3
		      2b40:   2b03          cmp    r3, #3
		      2b42:   d813          bhi.n  2b6c <nrf52_errata_108+0x68>
		      2b44:   a201          add    r2, pc, #4 ; (adr r2, 2b4c <nrf52_errata_108+0x48>)
		->    2b46:   f852 f023     ldr.w  pc, [r2, r3, lsl #2]
		      2b4a:   bf00          nop
		      2b4c:   00002b5d  .word   0x00002b5d
		      2b50:   00002b61  .word   0x00002b61
		      2b54:   00002b65  .word   0x00002b65
		--------------------
	(    2b5e,     2b72)	jt
		--------------------
		      2b50:   00002b61  .word   0x00002b61
		      2b54:   00002b65  .word   0x00002b65
		      2b58:   00002b69  .word   0x00002b69
		      2b5c:   2301          movs   r3, #1
		->    2b5e:   e008          b.n    2b72 <nrf52_errata_108+0x6e>
		      2b60:   2301          movs   r3, #1
		      2b62:   e006          b.n    2b72 <nrf52_errata_108+0x6e>
		      2b64:   2301          movs   r3, #1
		      2b66:   e004          b.n    2b72 <nrf52_errata_108+0x6e>
		--------------------
	(    3126,     26de)	ret
		--------------------
		      311a:   f000 faa5     bl 3668 <_vfiprintf_r>
		      311e:   b003          add    sp, #12
		      3120:   f85d eb04     ldr.w  lr, [sp], #4
		      3124:   b004          add    sp, #16
		->    3126:   4770          bx lr
		      3128:   20000070  .word   0x20000070
		  
		  0000312c <__sread>:
		      312c:   b510          push   {r4, lr}
		--------------------
	(    318e,     3192)	dead
		--------------------
		  00003186 <__sseek>:
		      3186:   b510          push   {r4, lr}
		      3188:   460c          mov    r4, r1
		      318a:   f9b1 100e     ldrsh.w    r1, [r1, #14]
		->    318e:   f000 f829     bl 31e4 <_lseek_r>
		      3192:   1c43          adds   r3, r0, #1
		      3194:   89a3          ldrh   r3, [r4, #12]
		      3196:   bf15          itete  ne
		      3198:   6560          strne  r0, [r4, #84]    ; 0x54
		--------------------
	(    31f4,     4048)	dead
		--------------------
		      31ec:   4611          mov    r1, r2
		      31ee:   2200          movs   r2, #0
		      31f0:   602a          str    r2, [r5, #0]
		      31f2:   461a          mov    r2, r3
		->    31f4:   f000 ff28     bl 4048 <_lseek>
		      31f8:   1c43          adds   r3, r0, #1
		      31fa:   d102          bne.n  3202 <_lseek_r+0x1e>
		      31fc:   682b          ldr    r3, [r5, #0]
		      31fe:   b103          cbz    r3, 3202 <_lseek_r+0x1e>
		--------------------
	(    3224,     3226)	dead
		--------------------
		      321c:   1c43          adds   r3, r0, #1
		      321e:   d102          bne.n  3226 <_read_r+0x1e>
		      3220:   682b          ldr    r3, [r5, #0]
		      3222:   b103          cbz    r3, 3226 <_read_r+0x1e>
		->    3224:   6023          str    r3, [r4, #0]
		      3226:   bd38          pop    {r3, r4, r5, pc}
		      3228:   2000046c  .word   0x2000046c
		  
		  0000322c <_write_r>:
		--------------------
	(    323c,     3240)	dead
		--------------------
		      3234:   4611          mov    r1, r2
		      3236:   2200          movs   r2, #0
		      3238:   602a          str    r2, [r5, #0]
		      323a:   461a          mov    r2, r3
		->    323c:   f7fd fcc7     bl bce <_write>
		      3240:   1c43          adds   r3, r0, #1
		      3242:   d102          bne.n  324a <_write_r+0x1e>
		      3244:   682b          ldr    r3, [r5, #0]
		      3246:   b103          cbz    r3, 324a <_write_r+0x1e>
		--------------------
	(    32c2,     35f0)	ret
		--------------------
		  000032c0 <__retarget_lock_acquire_recursive>:
		      32c0:   4770          bx lr
		  
		  000032c2 <__retarget_lock_release_recursive>:
		->    32c2:   4770          bx lr
		  
		  000032c4 <__register_exitproc>:
		      32c4:   e92d 43f8     stmdb  sp!, {r3, r4, r5, r6, r7, r8, r9, lr}
		      32c8:   f8df 80b0     ldr.w  r8, [pc, #176]   ; 337c <__register_exitproc+0xb8>
		--------------------
	(    32c2,     3ce2)	ret
		--------------------
		  000032c0 <__retarget_lock_acquire_recursive>:
		      32c0:   4770          bx lr
		  
		  000032c2 <__retarget_lock_release_recursive>:
		->    32c2:   4770          bx lr
		  
		  000032c4 <__register_exitproc>:
		      32c4:   e92d 43f8     stmdb  sp!, {r3, r4, r5, r6, r7, r8, r9, lr}
		      32c8:   f8df 80b0     ldr.w  r8, [pc, #176]   ; 337c <__register_exitproc+0xb8>
		--------------------
	(    3482,     3484)	dead
		--------------------
		      347a:   6021          streq  r1, [r4, #0]
		      347c:   e7ed          b.n    345a <_free_r+0x22>
		      347e:   461a          mov    r2, r3
		      3480:   685b          ldr    r3, [r3, #4]
		->    3482:   b10b          cbz    r3, 3488 <_free_r+0x50>
		      3484:   42a3          cmp    r3, r4
		      3486:   d9fa          bls.n  347e <_free_r+0x46>
		      3488:   6811          ldr    r1, [r2, #0]
		      348a:   1855          adds   r5, r2, r1
		--------------------
	(    348e,     3490)	dead
		--------------------
		      3486:   d9fa          bls.n  347e <_free_r+0x46>
		      3488:   6811          ldr    r1, [r2, #0]
		      348a:   1855          adds   r5, r2, r1
		      348c:   42a5          cmp    r5, r4
		->    348e:   d10b          bne.n  34a8 <_free_r+0x70>
		      3490:   6824          ldr    r4, [r4, #0]
		      3492:   4421          add    r1, r4
		      3494:   1854          adds   r4, r2, r1
		      3496:   42a3          cmp    r3, r4
		--------------------
	(    350a,     358a)	ret
		--------------------
		      3500:   3001          adds   r0, #1
		      3502:   d101          bne.n  3508 <sbrk_aligned+0x38>
		      3504:   f04f 34ff     mov.w  r4, #4294967295  ; 0xffffffff
		      3508:   4620          mov    r0, r4
		->    350a:   bd70          pop    {r4, r5, r6, pc}
		      350c:   20000508  .word   0x20000508
		  
		  00003510 <_malloc_r>:
		      3510:   e92d 41f0     stmdb  sp!, {r4, r5, r6, r7, r8, lr}
		--------------------
	(    3a30,     3a32)	
		--------------------
		      3a26:   682b          ldr    r3, [r5, #0]
		      3a28:   0607          lsls   r7, r0, #24
		      3a2a:   f103 0104     add.w  r1, r3, #4
		      3a2e:   6029          str    r1, [r5, #0]
		->    3a30:   d501          bpl.n  3a36 <_printf_i+0xbe>
		      3a32:   681e          ldr    r6, [r3, #0]
		      3a34:   e003          b.n    3a3e <_printf_i+0xc6>
		      3a36:   0646          lsls   r6, r0, #25
		      3a38:   d5fb          bpl.n  3a32 <_printf_i+0xba>
		--------------------
	(    3a38,     3a32)	
		--------------------
		      3a30:   d501          bpl.n  3a36 <_printf_i+0xbe>
		      3a32:   681e          ldr    r6, [r3, #0]
		      3a34:   e003          b.n    3a3e <_printf_i+0xc6>
		      3a36:   0646          lsls   r6, r0, #25
		->    3a38:   d5fb          bpl.n  3a32 <_printf_i+0xba>
		      3a3a:   f9b3 6000     ldrsh.w    r6, [r3]
		      3a3e:   2e00          cmp    r6, #0
		      3a40:   da03          bge.n  3a4a <_printf_i+0xd2>
		      3a42:   232d          movs   r3, #45   ; 0x2d
		--------------------
	(    3a3a,     3a3e)	
		--------------------
		      3a32:   681e          ldr    r6, [r3, #0]
		      3a34:   e003          b.n    3a3e <_printf_i+0xc6>
		      3a36:   0646          lsls   r6, r0, #25
		      3a38:   d5fb          bpl.n  3a32 <_printf_i+0xba>
		->    3a3a:   f9b3 6000     ldrsh.w    r6, [r3]
		      3a3e:   2e00          cmp    r6, #0
		      3a40:   da03          bge.n  3a4a <_printf_i+0xd2>
		      3a42:   232d          movs   r3, #45   ; 0x2d
		      3a44:   4276          negs   r6, r6
		--------------------
	(    3b3e,     3b38)	
		--------------------
		      3b36:   d501          bpl.n  3b3c <_printf_i+0x1c4>
		      3b38:   6019          str    r1, [r3, #0]
		      3b3a:   e002          b.n    3b42 <_printf_i+0x1ca>
		      3b3c:   0670          lsls   r0, r6, #25
		->    3b3e:   d5fb          bpl.n  3b38 <_printf_i+0x1c0>
		      3b40:   8019          strh   r1, [r3, #0]
		      3b42:   2300          movs   r3, #0
		      3b44:   6123          str    r3, [r4, #16]
		      3b46:   4615          mov    r5, r2
		--------------------
	(    3cd6,     3d7a)	
		--------------------
		      3cce:   460c          mov    r4, r1
		      3cd0:   b913          cbnz   r3, 3cd8 <_fflush_r+0x10>
		      3cd2:   2500          movs   r5, #0
		      3cd4:   4628          mov    r0, r5
		->    3cd6:   bd38          pop    {r3, r4, r5, pc}
		      3cd8:   b118          cbz    r0, 3ce2 <_fflush_r+0x1a>
		      3cda:   6a03          ldr    r3, [r0, #32]
		      3cdc:   b90b          cbnz   r3, 3ce2 <_fflush_r+0x1a>
		      3cde:   f7ff f9dd     bl 309c <__sinit>
		--------------------
	(    3ee2,     3b5c)	
		--------------------
		      3ed8:   ea83 0301     eor.w  r3, r3, r1
		      3edc:   b113          cbz    r3, 3ee4 <memchr+0x74>
		      3ede:   d1f8          bne.n  3ed2 <memchr+0x62>
		      3ee0:   2000          movs   r0, #0
		->    3ee2:   4770          bx lr
		      3ee4:   3801          subs   r0, #1
		      3ee6:   4770          bx lr
		      3ee8:   2d00          cmp    r5, #0
		      3eea:   bf06          itte   eq
		--------------------

uart-o1: 26 | 259 | 4 jt | 21 dead | 1 ret
	(     77c,      772)	dead
		--------------------
		       770:   198d          adds   r5, r1, r6
		       772:   f814 0b01     ldrb.w r0, [r4], #1
		       776:   f7ff ffa1     bl 6bc <app_uart_put>
		       77a:   42a5          cmp    r5, r4
		->     77c:   d1f9          bne.n  772 <_write+0xa>
		       77e:   4630          mov    r0, r6
		       780:   bd70          pop    {r4, r5, r6, pc}
		  
		  00000782 <_read>:
		--------------------
	(     7f2,      7f4)	dead
		--------------------
		       7e6:   f853 3021     ldr.w  r3, [r3, r1, lsl #2]
		       7ea:   4a05          ldr    r2, [pc, #20]  ; (800 <uart_evt_handler+0x34>)
		       7ec:   f852 1021     ldr.w  r1, [r2, r1, lsl #2]
		       7f0:   4668          mov    r0, sp
		->     7f2:   4798          blx    r3
		       7f4:   b005          add    sp, #20
		       7f6:   f85d fb04     ldr.w  pc, [sp], #4
		       7fa:   bf00          nop
		       7fc:   200000d4  .word   0x200000d4
		--------------------
	(     97a,      9d6)	dead
		--------------------
		       96e:   b086          sub    sp, #24
		       970:   4b5a          ldr    r3, [pc, #360] ; (adc <nrfx_uart_0_irq_handler+0x170>)
		       972:   f8d3 3304     ldr.w  r3, [r3, #772]   ; 0x304
		       976:   f413 7f00     tst.w  r3, #512 ; 0x200
		->     97a:   d02c          beq.n  9d6 <nrfx_uart_0_irq_handler+0x6a>
		       97c:   4b57          ldr    r3, [pc, #348] ; (adc <nrfx_uart_0_irq_handler+0x170>)
		       97e:   f8d3 3124     ldr.w  r3, [r3, #292]   ; 0x124
		       982:   b343          cbz    r3, 9d6 <nrfx_uart_0_irq_handler+0x6a>
		       984:   4b55          ldr    r3, [pc, #340] ; (adc <nrfx_uart_0_irq_handler+0x170>)
		--------------------
	(     982,      984)	dead
		--------------------
		       976:   f413 7f00     tst.w  r3, #512 ; 0x200
		       97a:   d02c          beq.n  9d6 <nrfx_uart_0_irq_handler+0x6a>
		       97c:   4b57          ldr    r3, [pc, #348] ; (adc <nrfx_uart_0_irq_handler+0x170>)
		       97e:   f8d3 3124     ldr.w  r3, [r3, #292]   ; 0x124
		->     982:   b343          cbz    r3, 9d6 <nrfx_uart_0_irq_handler+0x6a>
		       984:   4b55          ldr    r3, [pc, #340] ; (adc <nrfx_uart_0_irq_handler+0x170>)
		       986:   2200          movs   r2, #0
		       988:   f8c3 2124     str.w  r2, [r3, #292]   ; 0x124
		       98c:   f8d3 2124     ldr.w  r2, [r3, #292]   ; 0x124
		--------------------
	(     9a2,      9aa)	dead
		--------------------
		       994:   f44f 7201     mov.w  r2, #516 ; 0x204
		       998:   f8c3 2308     str.w  r2, [r3, #776]   ; 0x308
		       99c:   4b50          ldr    r3, [pc, #320] ; (ae0 <nrfx_uart_0_irq_handler+0x174>)
		       99e:   f893 3029     ldrb.w r3, [r3, #41]   ; 0x29
		->     9a2:   b913          cbnz   r3, 9aa <nrfx_uart_0_irq_handler+0x3e>
		       9a4:   4b4d          ldr    r3, [pc, #308] ; (adc <nrfx_uart_0_irq_handler+0x170>)
		       9a6:   2201          movs   r2, #1
		       9a8:   605a          str    r2, [r3, #4]
		       9aa:   2302          movs   r3, #2
		--------------------
	(     9fc,      a08)	dead
		--------------------
		       9f4:   4b3a          ldr    r3, [pc, #232] ; (ae0 <nrfx_uart_0_irq_handler+0x174>)
		       9f6:   695a          ldr    r2, [r3, #20]
		       9f8:   6a1b          ldr    r3, [r3, #32]
		       9fa:   429a          cmp    r2, r3
		->     9fc:   d904          bls.n  a08 <nrfx_uart_0_irq_handler+0x9c>
		       9fe:   4b38          ldr    r3, [pc, #224] ; (ae0 <nrfx_uart_0_irq_handler+0x174>)
		       a00:   f893 3028     ldrb.w r3, [r3, #40]   ; 0x28
		       a04:   2b00          cmp    r3, #0
		       a06:   d04f          beq.n  aa8 <nrfx_uart_0_irq_handler+0x13c>
		--------------------
	(     a1e,      ab2)	dead
		--------------------
		       a16:   9b01          ldr    r3, [sp, #4]
		       a18:   4b31          ldr    r3, [pc, #196] ; (ae0 <nrfx_uart_0_irq_handler+0x174>)
		       a1a:   695b          ldr    r3, [r3, #20]
		       a1c:   2b00          cmp    r3, #0
		->     a1e:   d148          bne.n  ab2 <nrfx_uart_0_irq_handler+0x146>
		       a20:   4b2e          ldr    r3, [pc, #184] ; (adc <nrfx_uart_0_irq_handler+0x170>)
		       a22:   f8d3 3144     ldr.w  r3, [r3, #324]   ; 0x144
		       a26:   b193          cbz    r3, a4e <nrfx_uart_0_irq_handler+0xe2>
		       a28:   4b2c          ldr    r3, [pc, #176] ; (adc <nrfx_uart_0_irq_handler+0x170>)
		--------------------
	(     a6e,      a76)	dead
		--------------------
		       a64:   69e3          ldr    r3, [r4, #28]
		       a66:   b99b          cbnz   r3, a90 <nrfx_uart_0_irq_handler+0x124>
		       a68:   4b1d          ldr    r3, [pc, #116] ; (ae0 <nrfx_uart_0_irq_handler+0x174>)
		       a6a:   f893 3029     ldrb.w r3, [r3, #41]   ; 0x29
		->     a6e:   b913          cbnz   r3, a76 <nrfx_uart_0_irq_handler+0x10a>
		       a70:   4b1a          ldr    r3, [pc, #104] ; (adc <nrfx_uart_0_irq_handler+0x170>)
		       a72:   2201          movs   r2, #1
		       a74:   605a          str    r2, [r3, #4]
		       a76:   4b19          ldr    r3, [pc, #100] ; (adc <nrfx_uart_0_irq_handler+0x170>)
		--------------------
	(    189e,     2544)	dead
		--------------------
		      1896:   4b09          ldr    r3, [pc, #36]  ; (18bc <cleanup_stdio+0x38>)
		      1898:   4299          cmp    r1, r3
		      189a:   d002          beq.n  18a2 <cleanup_stdio+0x1e>
		      189c:   4620          mov    r0, r4
		->    189e:   f000 fe51     bl 2544 <_fflush_r>
		      18a2:   68e1          ldr    r1, [r4, #12]
		      18a4:   4b06          ldr    r3, [pc, #24]  ; (18c0 <cleanup_stdio+0x3c>)
		      18a6:   4299          cmp    r1, r3
		      18a8:   d004          beq.n  18b4 <cleanup_stdio+0x30>
		--------------------
	(    1954,     1958)	dead
		--------------------
		      194c:   4607          mov    r7, r0
		      194e:   4688          mov    r8, r1
		      1950:   4614          mov    r4, r2
		      1952:   2600          movs   r6, #0
		->    1954:   e9d4 9501     ldrd   r9, r5, [r4, #4]
		      1958:   f1b9 0901     subs.w r9, r9, #1
		      195c:   d505          bpl.n  196a <_fwalk_sglue+0x22>
		      195e:   6824          ldr    r4, [r4, #0]
		      1960:   2c00          cmp    r4, #0
		--------------------
	(    1976,     1978)	dead
		--------------------
		      196c:   2b01          cmp    r3, #1
		      196e:   d907          bls.n  1980 <_fwalk_sglue+0x38>
		      1970:   f9b5 300e     ldrsh.w    r3, [r5, #14]
		      1974:   3301          adds   r3, #1
		->    1976:   d003          beq.n  1980 <_fwalk_sglue+0x38>
		      1978:   4629          mov    r1, r5
		      197a:   4638          mov    r0, r7
		      197c:   47c0          blx    r8
		      197e:   4306          orrs   r6, r0
		--------------------
	(    197e,     1980)	dead
		--------------------
		      1976:   d003          beq.n  1980 <_fwalk_sglue+0x38>
		      1978:   4629          mov    r1, r5
		      197a:   4638          mov    r0, r7
		      197c:   47c0          blx    r8
		->    197e:   4306          orrs   r6, r0
		      1980:   3568          adds   r5, #104  ; 0x68
		      1982:   e7e9          b.n    1958 <_fwalk_sglue+0x10>
		  
		  00001984 <iprintf>:
		--------------------
	(    19b0,     1a84)	dead
		--------------------
		  000019a8 <__sread>:
		      19a8:   b510          push   {r4, lr}
		      19aa:   460c          mov    r4, r1
		      19ac:   f9b1 100e     ldrsh.w    r1, [r1, #14]
		->    19b0:   f000 f868     bl 1a84 <_read_r>
		      19b4:   2800          cmp    r0, #0
		      19b6:   bfab          itete  ge
		      19b8:   6d63          ldrge  r3, [r4, #84]    ; 0x54
		      19ba:   89a3          ldrhlt r3, [r4, #12]
		--------------------
	(    19da,     19dc)	dead
		--------------------
		      19d2:   05db          lsls   r3, r3, #23
		      19d4:   4605          mov    r5, r0
		      19d6:   460c          mov    r4, r1
		      19d8:   4616          mov    r6, r2
		->    19da:   d505          bpl.n  19e8 <__swrite+0x1e>
		      19dc:   f9b1 100e     ldrsh.w    r1, [r1, #14]
		      19e0:   2302          movs   r3, #2
		      19e2:   2200          movs   r2, #0
		      19e4:   f000 f83c     bl 1a60 <_lseek_r>
		--------------------
	(    1a52,     1a54)	dead
		--------------------
		      1a48:   4608          mov    r0, r1
		      1a4a:   602b          str    r3, [r5, #0]
		      1a4c:   f000 ff1c     bl 2888 <_close>
		      1a50:   1c43          adds   r3, r0, #1
		->    1a52:   d102          bne.n  1a5a <_close_r+0x1a>
		      1a54:   682b          ldr    r3, [r5, #0]
		      1a56:   b103          cbz    r3, 1a5a <_close_r+0x1a>
		      1a58:   6023          str    r3, [r4, #0]
		      1a5a:   bd38          pop    {r3, r4, r5, pc}
		--------------------
	(    1a56,     1a58)	dead
		--------------------
		      1a4c:   f000 ff1c     bl 2888 <_close>
		      1a50:   1c43          adds   r3, r0, #1
		      1a52:   d102          bne.n  1a5a <_close_r+0x1a>
		      1a54:   682b          ldr    r3, [r5, #0]
		->    1a56:   b103          cbz    r3, 1a5a <_close_r+0x1a>
		      1a58:   6023          str    r3, [r4, #0]
		      1a5a:   bd38          pop    {r3, r4, r5, pc}
		      1a5c:   20000470  .word   0x20000470
		  
		--------------------
	(    1a70,     1a74)	dead
		--------------------
		      1a68:   4611          mov    r1, r2
		      1a6a:   2200          movs   r2, #0
		      1a6c:   602a          str    r2, [r5, #0]
		      1a6e:   461a          mov    r2, r3
		->    1a70:   f000 ff22     bl 28b8 <_lseek>
		      1a74:   1c43          adds   r3, r0, #1
		      1a76:   d102          bne.n  1a7e <_lseek_r+0x1e>
		      1a78:   682b          ldr    r3, [r5, #0]
		      1a7a:   b103          cbz    r3, 1a7e <_lseek_r+0x1e>
		--------------------
	(    1a9e,     1aa2)	dead
		--------------------
		      1a94:   f7fe fe75     bl 782 <_read>
		      1a98:   1c43          adds   r3, r0, #1
		      1a9a:   d102          bne.n  1aa2 <_read_r+0x1e>
		      1a9c:   682b          ldr    r3, [r5, #0]
		->    1a9e:   b103          cbz    r3, 1aa2 <_read_r+0x1e>
		      1aa0:   6023          str    r3, [r4, #0]
		      1aa2:   bd38          pop    {r3, r4, r5, pc}
		      1aa4:   20000470  .word   0x20000470
		  
		--------------------
	(    1cd4,     1cd6)	dead
		--------------------
		      1cca:   f000 f8d5     bl 1e78 <__malloc_lock>
		      1cce:   4a1e          ldr    r2, [pc, #120] ; (1d48 <_free_r+0x94>)
		      1cd0:   9801          ldr    r0, [sp, #4]
		      1cd2:   6813          ldr    r3, [r2, #0]
		->    1cd4:   b933          cbnz   r3, 1ce4 <_free_r+0x30>
		      1cd6:   6063          str    r3, [r4, #4]
		      1cd8:   6014          str    r4, [r2, #0]
		      1cda:   b003          add    sp, #12
		      1cdc:   e8bd 4030     ldmia.w    sp!, {r4, r5, lr}
		--------------------
	(    1cfe,     1d00)	dead
		--------------------
		      1cf6:   6021          streq  r1, [r4, #0]
		      1cf8:   e7ed          b.n    1cd6 <_free_r+0x22>
		      1cfa:   461a          mov    r2, r3
		      1cfc:   685b          ldr    r3, [r3, #4]
		->    1cfe:   b10b          cbz    r3, 1d04 <_free_r+0x50>
		      1d00:   42a3          cmp    r3, r4
		      1d02:   d9fa          bls.n  1cfa <_free_r+0x46>
		      1d04:   6811          ldr    r1, [r2, #0]
		      1d06:   1855          adds   r5, r2, r1
		--------------------
	(    1d24,     1d2c)	dead
		--------------------
		      1d1c:   6053          str    r3, [r2, #4]
		      1d1e:   440c          add    r4, r1
		      1d20:   6014          str    r4, [r2, #0]
		      1d22:   e7da          b.n    1cda <_free_r+0x26>
		->    1d24:   d902          bls.n  1d2c <_free_r+0x78>
		      1d26:   230c          movs   r3, #12
		      1d28:   6003          str    r3, [r0, #0]
		      1d2a:   e7d6          b.n    1cda <_free_r+0x26>
		      1d2c:   6825          ldr    r5, [r4, #0]
		--------------------
	(    2230,     228c)	jt
		--------------------
		      2226:   f1a7 0363     sub.w  r3, r7, #99  ; 0x63
		      222a:   2b15          cmp    r3, #21
		      222c:   d8f6          bhi.n  221c <_printf_i+0x28>
		      222e:   a101          add    r1, pc, #4 ; (adr r1, 2234 <_printf_i+0x40>)
		->    2230:   f851 f023     ldr.w  pc, [r1, r3, lsl #2]
		      2234:   0000228d  .word   0x0000228d
		      2238:   000022a1  .word   0x000022a1
		      223c:   0000221d  .word   0x0000221d
		      2240:   0000221d  .word   0x0000221d
		--------------------
	(    22b4,     22b6)	jt
		--------------------
		      22ac:   d501          bpl.n  22b2 <_printf_i+0xbe>
		      22ae:   681e          ldr    r6, [r3, #0]
		      22b0:   e003          b.n    22ba <_printf_i+0xc6>
		      22b2:   0646          lsls   r6, r0, #25
		->    22b4:   d5fb          bpl.n  22ae <_printf_i+0xba>
		      22b6:   f9b3 6000     ldrsh.w    r6, [r3]
		      22ba:   2e00          cmp    r6, #0
		      22bc:   da03          bge.n  22c6 <_printf_i+0xd2>
		      22be:   232d          movs   r3, #45   ; 0x2d
		--------------------
	(    22bc,     22be)	jt
		--------------------
		      22b2:   0646          lsls   r6, r0, #25
		      22b4:   d5fb          bpl.n  22ae <_printf_i+0xba>
		      22b6:   f9b3 6000     ldrsh.w    r6, [r3]
		      22ba:   2e00          cmp    r6, #0
		->    22bc:   da03          bge.n  22c6 <_printf_i+0xd2>
		      22be:   232d          movs   r3, #45   ; 0x2d
		      22c0:   4276          negs   r6, r6
		      22c2:   f884 3043     strb.w r3, [r4, #67]   ; 0x43
		      22c6:   485a          ldr    r0, [pc, #360] ; (2430 <_printf_i+0x23c>)
		--------------------
	(    23d8,     23da)	jt
		--------------------
		      23ce:   6862          ldr    r2, [r4, #4]
		      23d0:   2100          movs   r1, #0
		      23d2:   4628          mov    r0, r5
		      23d4:   f000 f984     bl 26e0 <memchr>
		->    23d8:   b108          cbz    r0, 23de <_printf_i+0x1ea>
		      23da:   1b40          subs   r0, r0, r5
		      23dc:   6060          str    r0, [r4, #4]
		      23de:   6863          ldr    r3, [r4, #4]
		      23e0:   6123          str    r3, [r4, #16]
		--------------------
	(    26da,     1d7c)	ret
		--------------------
		      26d2:   d102          bne.n  26da <_sbrk_r+0x1a>
		      26d4:   682b          ldr    r3, [r5, #0]
		      26d6:   b103          cbz    r3, 26da <_sbrk_r+0x1a>
		      26d8:   6023          str    r3, [r4, #0]
		->    26da:   bd38          pop    {r3, r4, r5, pc}
		      26dc:   20000470  .word   0x20000470
		  
		  000026e0 <memchr>:
		      26e0:   f001 01ff     and.w  r1, r1, #255 ; 0xff
		--------------------

uart-o2: 26 | 261 | 6 jt | 15 dead | 4 ret | 1 nop
	(     4aa,     13b4)	dead
		--------------------
		       4a2:   4668          mov    r0, sp
		       4a4:   681b          ldr    r3, [r3, #0]
		       4a6:   4798          blx    r3
		       4a8:   b003          add    sp, #12
		->     4aa:   bd30          pop    {r4, r5, pc}
		       4ac:   4b1d          ldr    r3, [pc, #116] ; (524 <uart_event_handler+0x10c>)
		       4ae:   4a1e          ldr    r2, [pc, #120] ; (528 <uart_event_handler+0x110>)
		       4b0:   781b          ldrb   r3, [r3, #0]
		       4b2:   491e          ldr    r1, [pc, #120] ; (52c <uart_event_handler+0x114>)
		--------------------
	(     71e,      678)	dead
		--------------------
		       714:   dd07          ble.n  726 <_write+0x16>
		       716:   460c          mov    r4, r1
		       718:   198d          adds   r5, r1, r6
		       71a:   f814 0b01     ldrb.w r0, [r4], #1
		->     71e:   f7ff ffab     bl 678 <app_uart_put>
		       722:   42a5          cmp    r5, r4
		       724:   d1f9          bne.n  71a <_write+0xa>
		       726:   4630          mov    r0, r6
		       728:   bd70          pop    {r4, r5, r6, pc}
		--------------------
	(     870,      942)	dead
		--------------------
		       866:   4a6e          ldr    r2, [pc, #440] ; (a20 <nrfx_uart_0_irq_handler+0x1bc>)
		       868:   f8d2 3304     ldr.w  r3, [r2, #772]   ; 0x304
		       86c:   0599          lsls   r1, r3, #22
		       86e:   b08a          sub    sp, #40    ; 0x28
		->     870:   d567          bpl.n  942 <nrfx_uart_0_irq_handler+0xde>
		       872:   f8d2 3124     ldr.w  r3, [r2, #292]   ; 0x124
		       876:   2b00          cmp    r3, #0
		       878:   d063          beq.n  942 <nrfx_uart_0_irq_handler+0xde>
		       87a:   2300          movs   r3, #0
		--------------------
	(     904,      906)	dead
		--------------------
		       8f8:   6219          str    r1, [r3, #32]
		       8fa:   f8c2 051c     str.w  r0, [r2, #1308]  ; 0x51c
		       8fe:   4a48          ldr    r2, [pc, #288] ; (a20 <nrfx_uart_0_irq_handler+0x1bc>)
		       900:   f8d2 3144     ldr.w  r3, [r2, #324]   ; 0x144
		->     904:   b1db          cbz    r3, 93e <nrfx_uart_0_irq_handler+0xda>
		       906:   2100          movs   r1, #0
		       908:   4b46          ldr    r3, [pc, #280] ; (a24 <nrfx_uart_0_irq_handler+0x1c0>)
		       90a:   f8c2 1144     str.w  r1, [r2, #324]   ; 0x144
		       90e:   f8d2 0144     ldr.w  r0, [r2, #324]   ; 0x144
		--------------------
	(     94a,      94c)	dead
		--------------------
		       940:   bd10          pop    {r4, pc}
		       942:   4a37          ldr    r2, [pc, #220] ; (a20 <nrfx_uart_0_irq_handler+0x1bc>)
		       944:   f8d2 3304     ldr.w  r3, [r2, #772]   ; 0x304
		       948:   075b          lsls   r3, r3, #29
		->     94a:   d5bb          bpl.n  8c4 <nrfx_uart_0_irq_handler+0x60>
		       94c:   f8d2 3108     ldr.w  r3, [r2, #264]   ; 0x108
		       950:   2b00          cmp    r3, #0
		       952:   d0b7          beq.n  8c4 <nrfx_uart_0_irq_handler+0x60>
		       954:   4b33          ldr    r3, [pc, #204] ; (a24 <nrfx_uart_0_irq_handler+0x1c0>)
		--------------------
	(     9a8,      9aa)	dead
		--------------------
		       99e:   685c          ldr    r4, [r3, #4]
		       9a0:   6819          ldr    r1, [r3, #0]
		       9a2:   f88d 2018     strb.w r2, [sp, #24]
		       9a6:   a806          add    r0, sp, #24
		->     9a8:   47a0          blx    r4
		       9aa:   e78b          b.n    8c4 <nrfx_uart_0_irq_handler+0x60>
		       9ac:   4a1c          ldr    r2, [pc, #112] ; (a20 <nrfx_uart_0_irq_handler+0x1bc>)
		       9ae:   2000          movs   r0, #0
		       9b0:   f8c2 011c     str.w  r0, [r2, #284]   ; 0x11c
		--------------------
	(     9c0,      8fe)	dead
		--------------------
		       9b8:   9202          str    r2, [sp, #8]
		       9ba:   9a02          ldr    r2, [sp, #8]
		       9bc:   695a          ldr    r2, [r3, #20]
		       9be:   2a00          cmp    r2, #0
		->     9c0:   d09d          beq.n  8fe <nrfx_uart_0_irq_handler+0x9a>
		       9c2:   e9d3 2101     ldrd   r2, r1, [r3, #4]
		       9c6:   695c          ldr    r4, [r3, #20]
		       9c8:   f88d 0018     strb.w r0, [sp, #24]
		       9cc:   e9cd 1407     strd   r1, r4, [sp, #28]
		--------------------
	(     9f0,      9f2)	dead
		--------------------
		       9e4:   9805          ldr    r0, [sp, #20]
		       9e6:   f8d2 2518     ldr.w  r2, [r2, #1304]  ; 0x518
		       9ea:   e7c7          b.n    97c <nrfx_uart_0_irq_handler+0x118>
		       9ec:   f893 2029     ldrb.w r2, [r3, #41]   ; 0x29
		->     9f0:   b912          cbnz   r2, 9f8 <nrfx_uart_0_irq_handler+0x194>
		       9f2:   4a0b          ldr    r2, [pc, #44]  ; (a20 <nrfx_uart_0_irq_handler+0x1bc>)
		       9f4:   2101          movs   r1, #1
		       9f6:   6051          str    r1, [r2, #4]
		       9f8:   4a09          ldr    r2, [pc, #36]  ; (a20 <nrfx_uart_0_irq_handler+0x1bc>)
		--------------------
	(    190a,     190c)	dead
		--------------------
		      1900:   2b01          cmp    r3, #1
		      1902:   d907          bls.n  1914 <_fwalk_sglue+0x38>
		      1904:   f9b5 300e     ldrsh.w    r3, [r5, #14]
		      1908:   3301          adds   r3, #1
		->    190a:   d003          beq.n  1914 <_fwalk_sglue+0x38>
		      190c:   4629          mov    r1, r5
		      190e:   4638          mov    r0, r7
		      1910:   47c0          blx    r8
		      1912:   4306          orrs   r6, r0
		--------------------
	(    19e0,     2828)	dead
		--------------------
		      19d8:   2300          movs   r3, #0
		      19da:   4604          mov    r4, r0
		      19dc:   4608          mov    r0, r1
		      19de:   602b          str    r3, [r5, #0]
		->    19e0:   f000 ff22     bl 2828 <_close>
		      19e4:   1c43          adds   r3, r0, #1
		      19e6:   d102          bne.n  19ee <_close_r+0x1a>
		      19e8:   682b          ldr    r3, [r5, #0]
		      19ea:   b103          cbz    r3, 19ee <_close_r+0x1a>
		--------------------
	(    1a0a,     1a12)	dead
		--------------------
		      1a00:   602a          str    r2, [r5, #0]
		      1a02:   461a          mov    r2, r3
		      1a04:   f000 ff28     bl 2858 <_lseek>
		      1a08:   1c43          adds   r3, r0, #1
		->    1a0a:   d102          bne.n  1a12 <_lseek_r+0x1e>
		      1a0c:   682b          ldr    r3, [r5, #0]
		      1a0e:   b103          cbz    r3, 1a12 <_lseek_r+0x1e>
		      1a10:   6023          str    r3, [r4, #0]
		      1a12:   bd38          pop    {r3, r4, r5, pc}
		--------------------
	(    1ad2,     25b8)	ret
		--------------------
		  00001ad0 <__retarget_lock_acquire_recursive>:
		      1ad0:   4770          bx lr
		  
		  00001ad2 <__retarget_lock_release_recursive>:
		->    1ad2:   4770          bx lr
		  
		  00001ad4 <__register_exitproc>:
		      1ad4:   e92d 43f8     stmdb  sp!, {r3, r4, r5, r6, r7, r8, r9, lr}
		      1ad8:   f8df 80b0     ldr.w  r8, [pc, #176]   ; 1b8c <__register_exitproc+0xb8>
		--------------------
	(    1cb8,     1cc0)	dead
		--------------------
		      1cb0:   6053          str    r3, [r2, #4]
		      1cb2:   440c          add    r4, r1
		      1cb4:   6014          str    r4, [r2, #0]
		      1cb6:   e7da          b.n    1c6e <_free_r+0x26>
		->    1cb8:   d902          bls.n  1cc0 <_free_r+0x78>
		      1cba:   230c          movs   r3, #12
		      1cbc:   6003          str    r3, [r0, #0]
		      1cbe:   e7d6          b.n    1c6e <_free_r+0x26>
		      1cc0:   6825          ldr    r5, [r4, #0]
		--------------------
	(    1cd6,     1c6e)	dead
		--------------------
		      1cce:   bf04          itt    eq
		      1cd0:   1949          addeq  r1, r1, r5
		      1cd2:   6021          streq  r1, [r4, #0]
		      1cd4:   6054          str    r4, [r2, #4]
		->    1cd6:   e7ca          b.n    1c6e <_free_r+0x26>
		      1cd8:   b003          add    sp, #12
		      1cda:   bd30          pop    {r4, r5, pc}
		      1cdc:   20000508  .word   0x20000508
		  
		--------------------
	(    1d1a,     1d9a)	ret
		--------------------
		      1d10:   3001          adds   r0, #1
		      1d12:   d101          bne.n  1d18 <sbrk_aligned+0x38>
		      1d14:   f04f 34ff     mov.w  r4, #4294967295  ; 0xffffffff
		      1d18:   4620          mov    r0, r4
		->    1d1a:   bd70          pop    {r4, r5, r6, pc}
		      1d1c:   2000050c  .word   0x2000050c
		  
		  00001d20 <_malloc_r>:
		      1d20:   e92d 41f0     stmdb  sp!, {r4, r5, r6, r7, r8, lr}
		--------------------
	(    2248,     2242)	jt
		--------------------
		      2240:   d501          bpl.n  2246 <_printf_i+0xbe>
		      2242:   681e          ldr    r6, [r3, #0]
		      2244:   e003          b.n    224e <_printf_i+0xc6>
		      2246:   0646          lsls   r6, r0, #25
		->    2248:   d5fb          bpl.n  2242 <_printf_i+0xba>
		      224a:   f9b3 6000     ldrsh.w    r6, [r3]
		      224e:   2e00          cmp    r6, #0
		      2250:   da03          bge.n  225a <_printf_i+0xd2>
		      2252:   232d          movs   r3, #45   ; 0x2d
		--------------------
	(    226a,     226c)	jt
		--------------------
		      2262:   6820          ldr    r0, [r4, #0]
		      2264:   1d19          adds   r1, r3, #4
		      2266:   6029          str    r1, [r5, #0]
		      2268:   0605          lsls   r5, r0, #24
		->    226a:   d501          bpl.n  2270 <_printf_i+0xe8>
		      226c:   681e          ldr    r6, [r3, #0]
		      226e:   e002          b.n    2276 <_printf_i+0xee>
		      2270:   0641          lsls   r1, r0, #25
		      2272:   d5fb          bpl.n  226c <_printf_i+0xe4>
		--------------------
	(    2272,     226c)	jt
		--------------------
		      226a:   d501          bpl.n  2270 <_printf_i+0xe8>
		      226c:   681e          ldr    r6, [r3, #0]
		      226e:   e002          b.n    2276 <_printf_i+0xee>
		      2270:   0641          lsls   r1, r0, #25
		->    2272:   d5fb          bpl.n  226c <_printf_i+0xe4>
		      2274:   881e          ldrh   r6, [r3, #0]
		      2276:   4853          ldr    r0, [pc, #332] ; (23c4 <_printf_i+0x23c>)
		      2278:   2f6f          cmp    r7, #111   ; 0x6f
		      227a:   bf0c          ite    eq
		--------------------
	(    234e,     2348)	jt
		--------------------
		      2346:   d501          bpl.n  234c <_printf_i+0x1c4>
		      2348:   6019          str    r1, [r3, #0]
		      234a:   e002          b.n    2352 <_printf_i+0x1ca>
		      234c:   0670          lsls   r0, r6, #25
		->    234e:   d5fb          bpl.n  2348 <_printf_i+0x1c0>
		      2350:   8019          strh   r1, [r3, #0]
		      2352:   2300          movs   r3, #0
		      2354:   6123          str    r3, [r4, #16]
		      2356:   4615          mov    r5, r2
		--------------------
	(    2370,     2372)	jt
		--------------------
		      2366:   4628          mov    r0, r5
		      2368:   f000 f98a     bl 2680 <memchr>
		      236c:   b108          cbz    r0, 2372 <_printf_i+0x1ea>
		      236e:   1b40          subs   r0, r0, r5
		->    2370:   6060          str    r0, [r4, #4]
		      2372:   6863          ldr    r3, [r4, #4]
		      2374:   6123          str    r3, [r4, #16]
		      2376:   2300          movs   r3, #0
		      2378:   f884 3043     strb.w r3, [r4, #67]   ; 0x43
		--------------------
	(    2372,     2374)	jt
		--------------------
		      2368:   f000 f98a     bl 2680 <memchr>
		      236c:   b108          cbz    r0, 2372 <_printf_i+0x1ea>
		      236e:   1b40          subs   r0, r0, r5
		      2370:   6060          str    r0, [r4, #4]
		->    2372:   6863          ldr    r3, [r4, #4]
		      2374:   6123          str    r3, [r4, #16]
		      2376:   2300          movs   r3, #0
		      2378:   f884 3043     strb.w r3, [r4, #67]   ; 0x43
		      237c:   e7aa          b.n    22d4 <_printf_i+0x14c>
		--------------------
	(    24e6,     1828)	dead
		--------------------
		      24de:   460c          mov    r4, r1
		      24e0:   b913          cbnz   r3, 24e8 <_fflush_r+0x10>
		      24e2:   2500          movs   r5, #0
		      24e4:   4628          mov    r0, r5
		->    24e6:   bd38          pop    {r3, r4, r5, pc}
		      24e8:   b118          cbz    r0, 24f2 <_fflush_r+0x1a>
		      24ea:   6a03          ldr    r3, [r0, #32]
		      24ec:   b90b          cbnz   r3, 24f2 <_fflush_r+0x1a>
		      24ee:   f7ff f9dd     bl 18ac <__sinit>
		--------------------
	(    24e6,     258a)	dead
		--------------------
		      24de:   460c          mov    r4, r1
		      24e0:   b913          cbnz   r3, 24e8 <_fflush_r+0x10>
		      24e2:   2500          movs   r5, #0
		      24e4:   4628          mov    r0, r5
		->    24e6:   bd38          pop    {r3, r4, r5, pc}
		      24e8:   b118          cbz    r0, 24f2 <_fflush_r+0x1a>
		      24ea:   6a03          ldr    r3, [r0, #32]
		      24ec:   b90b          cbnz   r3, 24f2 <_fflush_r+0x1a>
		      24ee:   f7ff f9dd     bl 18ac <__sinit>
		--------------------
	(    2640,     2598)	ret
		--------------------
		      2636:   6923          ldr    r3, [r4, #16]
		      2638:   b943          cbnz   r3, 264c <__swsetup_r+0xa8>
		      263a:   f010 0080     ands.w r0, r0, #128    ; 0x80
		      263e:   d1c4          bne.n  25ca <__swsetup_r+0x26>
		->    2640:   bd38          pop    {r3, r4, r5, pc}
		      2642:   0781          lsls   r1, r0, #30
		      2644:   bf58          it pl
		      2646:   6963          ldrpl  r3, [r4, #20]
		      2648:   60a3          str    r3, [r4, #8]
		--------------------
	(    26f2,     236c)	ret
		--------------------
		      26e8:   ea83 0301     eor.w  r3, r3, r1
		      26ec:   b113          cbz    r3, 26f4 <memchr+0x74>
		      26ee:   d1f8          bne.n  26e2 <memchr+0x62>
		      26f0:   2000          movs   r0, #0
		->    26f2:   4770          bx lr
		      26f4:   3801          subs   r0, #1
		      26f6:   4770          bx lr
		      26f8:   2d00          cmp    r5, #0
		      26fa:   bf06          itte   eq
		--------------------
	(    271e,     2720)	nop
		--------------------
		      2716:   3001          addeq  r0, #1
		      2718:   bcf0          pop    {r4, r5, r6, r7}
		      271a:   3801          subs   r0, #1
		      271c:   4770          bx lr
		->    271e:   bf00          nop
		  
		  00002720 <__swhatbuf_r>:
		      2720:   b570          push   {r4, r5, r6, lr}
		      2722:   460c          mov    r4, r1
		--------------------

uart-o3: 26 | 260 | 4 jt | 16 dead | 4 ret | 1 nop
	(     3b6,      3b8)	nop
		--------------------
		       3ae:   2009          movs   r0, #9
		       3b0:   4770          bx lr
		       3b2:   200e          movs   r0, #14
		       3b4:   4770          bx lr
		->     3b6:   bf00          nop
		  
		  000003b8 <app_fifo_put>:
		       3b8:   b410          push   {r4}
		       3ba:   6884          ldr    r4, [r0, #8]
		--------------------
	(     4a6,     13cc)	dead
		--------------------
		       49e:   4668          mov    r0, sp
		       4a0:   681b          ldr    r3, [r3, #0]
		       4a2:   4798          blx    r3
		       4a4:   b003          add    sp, #12
		->     4a6:   bd30          pop    {r4, r5, pc}
		       4a8:   4b1d          ldr    r3, [pc, #116] ; (520 <uart_event_handler+0x10c>)
		       4aa:   4a1e          ldr    r2, [pc, #120] ; (524 <uart_event_handler+0x110>)
		       4ac:   781b          ldrb   r3, [r3, #0]
		       4ae:   491e          ldr    r1, [pc, #120] ; (528 <uart_event_handler+0x114>)
		--------------------
	(     710,      722)	dead
		--------------------
		  
		  0000070c <_write>:
		       70c:   b570          push   {r4, r5, r6, lr}
		       70e:   1e16          subs   r6, r2, #0
		->     710:   dd07          ble.n  722 <_write+0x16>
		       712:   460c          mov    r4, r1
		       714:   198d          adds   r5, r1, r6
		       716:   f814 0b01     ldrb.w r0, [r4], #1
		       71a:   f7ff ffab     bl 674 <app_uart_put>
		--------------------
	(     71a,      674)	dead
		--------------------
		       710:   dd07          ble.n  722 <_write+0x16>
		       712:   460c          mov    r4, r1
		       714:   198d          adds   r5, r1, r6
		       716:   f814 0b01     ldrb.w r0, [r4], #1
		->     71a:   f7ff ffab     bl 674 <app_uart_put>
		       71e:   42a5          cmp    r5, r4
		       720:   d1f9          bne.n  716 <_write+0xa>
		       722:   4630          mov    r0, r6
		       724:   bd70          pop    {r4, r5, r6, pc}
		--------------------
	(     72a,      72c)	dead
		--------------------
		       726:   bf00          nop
		  
		  00000728 <_read>:
		       728:   b510          push   {r4, lr}
		->     72a:   460c          mov    r4, r1
		       72c:   4620          mov    r0, r4
		       72e:   f7ff ff75     bl 61c <app_uart_get>
		       732:   2805          cmp    r0, #5
		       734:   d0fa          beq.n  72c <_read+0x4>
		--------------------
	(     856,      a5a)	ret
		--------------------
		       84c:   f7ff ff54     bl 6f8 <app_util_critical_region_exit>
		       850:   4620          mov    r0, r4
		       852:   bd38          pop    {r3, r4, r5, pc}
		       854:   2000          movs   r0, #0
		->     856:   bd38          pop    {r3, r4, r5, pc}
		       858:   40002000  .word   0x40002000
		       85c:   200000dc  .word   0x200000dc
		  
		  00000860 <nrfx_uart_0_irq_handler>:
		--------------------
	(     8de,      8e0)	dead
		--------------------
		       8d2:   d96a          bls.n  9aa <nrfx_uart_0_irq_handler+0x14a>
		       8d4:   f893 1028     ldrb.w r1, [r3, #40]   ; 0x28
		       8d8:   f001 00ff     and.w  r0, r1, #255 ; 0xff
		       8dc:   2900          cmp    r1, #0
		->     8de:   d164          bne.n  9aa <nrfx_uart_0_irq_handler+0x14a>
		       8e0:   f8c2 011c     str.w  r0, [r2, #284]   ; 0x11c
		       8e4:   f8d2 111c     ldr.w  r1, [r2, #284]   ; 0x11c
		       8e8:   9103          str    r1, [sp, #12]
		       8ea:   9903          ldr    r1, [sp, #12]
		--------------------
	(     920,      93c)	dead
		--------------------
		       918:   b109          cbz    r1, 91e <nrfx_uart_0_irq_handler+0xbe>
		       91a:   2101          movs   r1, #1
		       91c:   6011          str    r1, [r2, #0]
		       91e:   699a          ldr    r2, [r3, #24]
		->     920:   b162          cbz    r2, 93c <nrfx_uart_0_irq_handler+0xdc>
		       922:   68d8          ldr    r0, [r3, #12]
		       924:   6a5c          ldr    r4, [r3, #36]  ; 0x24
		       926:   2100          movs   r1, #0
		       928:   2201          movs   r2, #1
		--------------------
	(     958,      9d8)	dead
		--------------------
		       950:   d0b7          beq.n  8c2 <nrfx_uart_0_irq_handler+0x62>
		       952:   4b36          ldr    r3, [pc, #216] ; (a2c <nrfx_uart_0_irq_handler+0x1cc>)
		       954:   6999          ldr    r1, [r3, #24]
		       956:   2900          cmp    r1, #0
		->     958:   d03e          beq.n  9d8 <nrfx_uart_0_irq_handler+0x178>
		       95a:   2100          movs   r1, #0
		       95c:   f8c2 1108     str.w  r1, [r2, #264]   ; 0x108
		       960:   f8d2 1108     ldr.w  r1, [r2, #264]   ; 0x108
		       964:   9104          str    r1, [sp, #16]
		--------------------
	(     d0c,      4e8)	ret
		--------------------
		       d00:   f44f 7201     mov.w  r2, #516 ; 0x204
		       d04:   f8c3 2304     str.w  r2, [r3, #772]   ; 0x304
		       d08:   2000          movs   r0, #0
		       d0a:   b007          add    sp, #28
		->     d0c:   bd30          pop    {r4, r5, pc}
		       d0e:   619a          str    r2, [r3, #24]
		       d10:   60d9          str    r1, [r3, #12]
		       d12:   6258          str    r0, [r3, #36]  ; 0x24
		       d14:   61d8          str    r0, [r3, #28]
		--------------------
	(    183a,     24e0)	dead
		--------------------
		      1832:   4b09          ldr    r3, [pc, #36]  ; (1858 <cleanup_stdio+0x38>)
		      1834:   4299          cmp    r1, r3
		      1836:   d002          beq.n  183e <cleanup_stdio+0x1e>
		      1838:   4620          mov    r0, r4
		->    183a:   f000 fe51     bl 24e0 <_fflush_r>
		      183e:   68e1          ldr    r1, [r4, #12]
		      1840:   4b06          ldr    r3, [pc, #24]  ; (185c <cleanup_stdio+0x3c>)
		      1842:   4299          cmp    r1, r3
		      1844:   d004          beq.n  1850 <cleanup_stdio+0x30>
		--------------------
	(    190a,     191c)	dead
		--------------------
		      1900:   4630          mov    r0, r6
		      1902:   e8bd 83f8     ldmia.w    sp!, {r3, r4, r5, r6, r7, r8, r9, pc}
		      1906:   89ab          ldrh   r3, [r5, #12]
		      1908:   2b01          cmp    r3, #1
		->    190a:   d907          bls.n  191c <_fwalk_sglue+0x38>
		      190c:   f9b5 300e     ldrsh.w    r3, [r5, #14]
		      1910:   3301          adds   r3, #1
		      1912:   d003          beq.n  191c <_fwalk_sglue+0x38>
		      1914:   4629          mov    r1, r5
		--------------------
	(    193e,     13e2)	ret
		--------------------
		      1932:   f000 faa5     bl 1e80 <_vfiprintf_r>
		      1936:   b003          add    sp, #12
		      1938:   f85d eb04     ldr.w  lr, [sp], #4
		      193c:   b004          add    sp, #16
		->    193e:   4770          bx lr
		      1940:   20000070  .word   0x20000070
		  
		  00001944 <__sread>:
		      1944:   b510          push   {r4, lr}
		--------------------
	(    19c6,     19dc)	
		--------------------
		      19c0:   bd10          pop    {r4, pc}
		  
		  000019c2 <__sclose>:
		      19c2:   f9b1 100e     ldrsh.w    r1, [r1, #14]
		->    19c6:   f000 b809     b.w    19dc <_close_r>
		  
		  000019ca <memset>:
		      19ca:   4402          add    r2, r0
		      19cc:   4603          mov    r3, r0
		--------------------
	(    1a0c,     1a10)	dead
		--------------------
		      1a04:   4611          mov    r1, r2
		      1a06:   2200          movs   r2, #0
		      1a08:   602a          str    r2, [r5, #0]
		      1a0a:   461a          mov    r2, r3
		->    1a0c:   f000 ff24     bl 2858 <_lseek>
		      1a10:   1c43          adds   r3, r0, #1
		      1a12:   d102          bne.n  1a1a <_lseek_r+0x1e>
		      1a14:   682b          ldr    r3, [r5, #0]
		      1a16:   b103          cbz    r3, 1a1a <_lseek_r+0x1e>
		--------------------
	(    1a3a,     1a3e)	dead
		--------------------
		      1a30:   f7fe fe7a     bl 728 <_read>
		      1a34:   1c43          adds   r3, r0, #1
		      1a36:   d102          bne.n  1a3e <_read_r+0x1e>
		      1a38:   682b          ldr    r3, [r5, #0]
		->    1a3a:   b103          cbz    r3, 1a3e <_read_r+0x1e>
		      1a3c:   6023          str    r3, [r4, #0]
		      1a3e:   bd38          pop    {r3, r4, r5, pc}
		      1a40:   20000478  .word   0x20000478
		  
		--------------------
	(    1a3c,     1a3e)	dead
		--------------------
		      1a34:   1c43          adds   r3, r0, #1
		      1a36:   d102          bne.n  1a3e <_read_r+0x1e>
		      1a38:   682b          ldr    r3, [r5, #0]
		      1a3a:   b103          cbz    r3, 1a3e <_read_r+0x1e>
		->    1a3c:   6023          str    r3, [r4, #0]
		      1a3e:   bd38          pop    {r3, r4, r5, pc}
		      1a40:   20000478  .word   0x20000478
		  
		  00001a44 <_write_r>:
		--------------------
	(    1c66,     1e14)	dead
		--------------------
		      1c5c:   2b00          cmp    r3, #0
		      1c5e:   f1a1 0404     sub.w  r4, r1, #4
		      1c62:   bfb8          it lt
		      1c64:   18e4          addlt  r4, r4, r3
		->    1c66:   f000 f8d5     bl 1e14 <__malloc_lock>
		      1c6a:   4a1e          ldr    r2, [pc, #120] ; (1ce4 <_free_r+0x94>)
		      1c6c:   9801          ldr    r0, [sp, #4]
		      1c6e:   6813          ldr    r3, [r2, #0]
		      1c70:   b933          cbnz   r3, 1c80 <_free_r+0x30>
		--------------------
	(    1cb2,     1c76)	dead
		--------------------
		      1caa:   4421          add    r1, r4
		      1cac:   1854          adds   r4, r2, r1
		      1cae:   42a3          cmp    r3, r4
		      1cb0:   6011          str    r1, [r2, #0]
		->    1cb2:   d1e0          bne.n  1c76 <_free_r+0x26>
		      1cb4:   681c          ldr    r4, [r3, #0]
		      1cb6:   685b          ldr    r3, [r3, #4]
		      1cb8:   6053          str    r3, [r2, #4]
		      1cba:   440c          add    r4, r1
		--------------------
	(    1cc6,     1c76)	dead
		--------------------
		      1cbe:   e7da          b.n    1c76 <_free_r+0x26>
		      1cc0:   d902          bls.n  1cc8 <_free_r+0x78>
		      1cc2:   230c          movs   r3, #12
		      1cc4:   6003          str    r3, [r0, #0]
		->    1cc6:   e7d6          b.n    1c76 <_free_r+0x26>
		      1cc8:   6825          ldr    r5, [r4, #0]
		      1cca:   1961          adds   r1, r4, r5
		      1ccc:   428b          cmp    r3, r1
		      1cce:   bf04          itt    eq
		--------------------
	(    2286,     2288)	jt
		--------------------
		      227e:   4853          ldr    r0, [pc, #332] ; (23cc <_printf_i+0x23c>)
		      2280:   2f6f          cmp    r7, #111   ; 0x6f
		      2282:   bf0c          ite    eq
		      2284:   2308          moveq  r3, #8
		->    2286:   230a          movne  r3, #10
		      2288:   2100          movs   r1, #0
		      228a:   f884 1043     strb.w r1, [r4, #67]   ; 0x43
		      228e:   6865          ldr    r5, [r4, #4]
		      2290:   60a5          str    r5, [r4, #8]
		--------------------
	(    2352,     235a)	jt
		--------------------
		      234a:   0635          lsls   r5, r6, #24
		      234c:   681b          ldr    r3, [r3, #0]
		      234e:   d501          bpl.n  2354 <_printf_i+0x1c4>
		      2350:   6019          str    r1, [r3, #0]
		->    2352:   e002          b.n    235a <_printf_i+0x1ca>
		      2354:   0670          lsls   r0, r6, #25
		      2356:   d5fb          bpl.n  2350 <_printf_i+0x1c0>
		      2358:   8019          strh   r1, [r3, #0]
		      235a:   2300          movs   r3, #0
		--------------------
	(    2356,     2358)	jt
		--------------------
		      234e:   d501          bpl.n  2354 <_printf_i+0x1c4>
		      2350:   6019          str    r1, [r3, #0]
		      2352:   e002          b.n    235a <_printf_i+0x1ca>
		      2354:   0670          lsls   r0, r6, #25
		->    2356:   d5fb          bpl.n  2350 <_printf_i+0x1c0>
		      2358:   8019          strh   r1, [r3, #0]
		      235a:   2300          movs   r3, #0
		      235c:   6123          str    r3, [r4, #16]
		      235e:   4615          mov    r5, r2
		--------------------
	(    237a,     237c)	jt
		--------------------
		      2370:   f000 f986     bl 2680 <memchr>
		      2374:   b108          cbz    r0, 237a <_printf_i+0x1ea>
		      2376:   1b40          subs   r0, r0, r5
		      2378:   6060          str    r0, [r4, #4]
		->    237a:   6863          ldr    r3, [r4, #4]
		      237c:   6123          str    r3, [r4, #16]
		      237e:   2300          movs   r3, #0
		      2380:   f884 3043     strb.w r3, [r4, #67]   ; 0x43
		      2384:   e7aa          b.n    22dc <_printf_i+0x14c>
		--------------------
	(    24ee,     2592)	dead
		--------------------
		      24e6:   460c          mov    r4, r1
		      24e8:   b913          cbnz   r3, 24f0 <_fflush_r+0x10>
		      24ea:   2500          movs   r5, #0
		      24ec:   4628          mov    r0, r5
		->    24ee:   bd38          pop    {r3, r4, r5, pc}
		      24f0:   b118          cbz    r0, 24fa <_fflush_r+0x1a>
		      24f2:   6a03          ldr    r3, [r0, #32]
		      24f4:   b90b          cbnz   r3, 24fa <_fflush_r+0x1a>
		      24f6:   f7ff f9dd     bl 18b4 <__sinit>
		--------------------
	(    271c,     2374)	ret
		--------------------
		      2712:   f415 3fc0     tsteq.w    r5, #98304 ; 0x18000
		      2716:   3001          addeq  r0, #1
		      2718:   bcf0          pop    {r4, r5, r6, r7}
		      271a:   3801          subs   r0, #1
		->    271c:   4770          bx lr
		      271e:   bf00          nop
		  
		  00002720 <__swhatbuf_r>:
		      2720:   b570          push   {r4, r5, r6, lr}
		--------------------
