blinky-o0: 20 | 48
	(     216,      212)	
		--------------------
		       20c:   4804          ldr    r0, [pc, #16]  ; (220 <__do_global_dtors_aux+0x20>)
		       20e:   f3af 8000     nop.w
		       212:   2301          movs   r3, #1
		       214:   7023          strb   r3, [r4, #0]
		->     216:   bd10          pop    {r4, pc}
		       218:   20000010  .word   0x20000010
		       21c:   00000000  .word   0x00000000
		       220:   00001118  .word   0x00001118
		  
		--------------------
	(     2b8,      2b0)	
		--------------------
		       2b0:   4906          ldr    r1, [pc, #24]  ; (2cc <Reset_Handler+0x1c>)
		       2b2:   4a07          ldr    r2, [pc, #28]  ; (2d0 <Reset_Handler+0x20>)
		       2b4:   4b07          ldr    r3, [pc, #28]  ; (2d4 <Reset_Handler+0x24>)
		       2b6:   1a9b          subs   r3, r3, r2
		->     2b8:   dd03          ble.n  2c2 <Reset_Handler+0x12>
		       2ba:   3b04          subs   r3, #4
		       2bc:   58c8          ldr    r0, [r1, r3]
		       2be:   50d0          str    r0, [r2, r3]
		       2c0:   dcfb          bgt.n  2ba <Reset_Handler+0xa>
		--------------------
	(     4e0,      4dc)	
		--------------------
		       4d8:   3301          adds   r3, #1
		       4da:   607b          str    r3, [r7, #4]
		       4dc:   687b          ldr    r3, [r7, #4]
		       4de:   2b03          cmp    r3, #3
		->     4e0:   d9f6          bls.n  4d0 <bsp_board_leds_off+0xc>
		       4e2:   bf00          nop
		       4e4:   bf00          nop
		       4e6:   3708          adds   r7, #8
		       4e8:   46bd          mov    sp, r7
		--------------------
	(     606,      602)	
		--------------------
		       5fe:   e000          b.n    602 <nrf_delay_ms+0x26>
		       600:   bf00          nop
		       602:   3708          adds   r7, #8
		       604:   46bd          mov    sp, r7
		->     606:   bd80          pop    {r7, pc}
		  
		  00000608 <main>:
		       608:   b580          push   {r7, lr}
		       60a:   b082          sub    sp, #8
		--------------------
	(     69a,      696)	
		--------------------
		       692:   681b          ldr    r3, [r3, #0]
		       694:   603b          str    r3, [r7, #0]
		       696:   687b          ldr    r3, [r7, #4]
		       698:   2b06          cmp    r3, #6
		->     69a:   d119          bne.n  6d0 <nrf52_errata_12+0x6c>
		       69c:   683b          ldr    r3, [r7, #0]
		       69e:   3b03          subs   r3, #3
		       6a0:   2b03          cmp    r3, #3
		       6a2:   d813          bhi.n  6cc <nrf52_errata_12+0x68>
		--------------------
	(     750,      746)	
		--------------------
		       746:   4618          mov    r0, r3
		       748:   370c          adds   r7, #12
		       74a:   46bd          mov    sp, r7
		       74c:   f85d 7b04     ldr.w  r7, [sp], #4
		->     750:   4770          bx lr
		       752:   bf00          nop
		       754:   f0000fe0  .word   0xf0000fe0
		       758:   f0000fe8  .word   0xf0000fe8
		  
		--------------------
	(     792,      78e)	
		--------------------
		       78a:   681b          ldr    r3, [r3, #0]
		       78c:   603b          str    r3, [r7, #0]
		       78e:   687b          ldr    r3, [r7, #4]
		       790:   2b06          cmp    r3, #6
		->     792:   d119          bne.n  7c8 <nrf52_errata_31+0x6c>
		       794:   683b          ldr    r3, [r7, #0]
		       796:   3b03          subs   r3, #3
		       798:   2b03          cmp    r3, #3
		       79a:   d813          bhi.n  7c4 <nrf52_errata_31+0x68>
		--------------------
	(     88a,      886)	
		--------------------
		       882:   681b          ldr    r3, [r3, #0]
		       884:   603b          str    r3, [r7, #0]
		       886:   687b          ldr    r3, [r7, #4]
		       888:   2b06          cmp    r3, #6
		->     88a:   d119          bne.n  8c0 <nrf52_errata_36+0x6c>
		       88c:   683b          ldr    r3, [r7, #0]
		       88e:   3b03          subs   r3, #3
		       890:   2b03          cmp    r3, #3
		       892:   d813          bhi.n  8bc <nrf52_errata_36+0x68>
		--------------------
	(     8cc,      8c2)	
		--------------------
		       8c2:   4618          mov    r0, r3
		       8c4:   370c          adds   r7, #12
		       8c6:   46bd          mov    sp, r7
		       8c8:   f85d 7b04     ldr.w  r7, [sp], #4
		->     8cc:   4770          bx lr
		       8ce:   bf00          nop
		       8d0:   10000130  .word   0x10000130
		       8d4:   f0000fe0  .word   0xf0000fe0
		       8d8:   f0000fe8  .word   0xf0000fe8
		--------------------
	(     940,      936)	
		--------------------
		       936:   4618          mov    r0, r3
		       938:   370c          adds   r7, #12
		       93a:   46bd          mov    sp, r7
		       93c:   f85d 7b04     ldr.w  r7, [sp], #4
		->     940:   4770          bx lr
		       942:   bf00          nop
		       944:   f0000fe0  .word   0xf0000fe0
		       948:   f0000fe8  .word   0xf0000fe8
		  
		--------------------
	(     a7a,      a76)	
		--------------------
		       a72:   681b          ldr    r3, [r3, #0]
		       a74:   603b          str    r3, [r7, #0]
		       a76:   687b          ldr    r3, [r7, #4]
		       a78:   2b06          cmp    r3, #6
		->     a7a:   d119          bne.n  ab0 <nrf52_errata_108+0x6c>
		       a7c:   683b          ldr    r3, [r7, #0]
		       a7e:   3b03          subs   r3, #3
		       a80:   2b03          cmp    r3, #3
		       a82:   d813          bhi.n  aac <nrf52_errata_108+0x68>
		--------------------
	(     b48,      b3e)	
		--------------------
		       b3e:   4618          mov    r0, r3
		       b40:   370c          adds   r7, #12
		       b42:   46bd          mov    sp, r7
		       b44:   f85d 7b04     ldr.w  r7, [sp], #4
		->     b48:   4770          bx lr
		       b4a:   bf00          nop
		       b4c:   10000130  .word   0x10000130
		       b50:   f0000fe0  .word   0xf0000fe0
		       b54:   f0000fe8  .word   0xf0000fe8
		--------------------
	(     bb4,      baa)	
		--------------------
		       baa:   4618          mov    r0, r3
		       bac:   370c          adds   r7, #12
		       bae:   46bd          mov    sp, r7
		       bb0:   f85d 7b04     ldr.w  r7, [sp], #4
		->     bb4:   4770          bx lr
		       bb6:   bf00          nop
		       bb8:   10000130  .word   0x10000130
		       bbc:   10000134  .word   0x10000134
		  
		--------------------
	(     c20,      c20)	
		--------------------
		       c16:   0b5b          lsrs   r3, r3, #13
		       c18:   4a9a          ldr    r2, [pc, #616] ; (e84 <SystemInit+0x2a8>)
		       c1a:   f003 0307     and.w  r3, r3, #7
		       c1e:   6013          str    r3, [r2, #0]
		->     c20:   f7ff fde2     bl 7e8 <nrf52_errata_32>
		       c24:   4603          mov    r3, r0
		       c26:   2b00          cmp    r3, #0
		       c28:   d005          beq.n  c36 <SystemInit+0x5a>
		       c2a:   4b97          ldr    r3, [pc, #604] ; (e88 <SystemInit+0x2ac>)
		--------------------
	(     c36,      c36)	
		--------------------
		       c2c:   68db          ldr    r3, [r3, #12]
		       c2e:   4a96          ldr    r2, [pc, #600] ; (e88 <SystemInit+0x2ac>)
		       c30:   f023 7380     bic.w  r3, r3, #16777216    ; 0x1000000
		       c34:   60d3          str    r3, [r2, #12]
		->     c36:   f7ff fe0d     bl 854 <nrf52_errata_36>
		       c3a:   4603          mov    r3, r0
		       c3c:   2b00          cmp    r3, #0
		       c3e:   d00e          beq.n  c5e <SystemInit+0x82>
		       c40:   f04f 4380     mov.w  r3, #1073741824  ; 0x40000000
		--------------------
	(     c90,      c90)	
		--------------------
		       c88:   601a          str    r2, [r3, #0]
		       c8a:   4b84          ldr    r3, [pc, #528] ; (e9c <SystemInit+0x2c0>)
		       c8c:   223f          movs   r2, #63   ; 0x3f
		       c8e:   601a          str    r2, [r3, #0]
		->     c90:   f7ff fe92     bl 9b8 <nrf52_errata_66>
		       c94:   4603          mov    r3, r0
		       c96:   2b00          cmp    r3, #0
		       c98:   d076          beq.n  d88 <SystemInit+0x1ac>
		       c9a:   f04f 5380     mov.w  r3, #268435456   ; 0x10000000
		--------------------
	(     d9e,      d9e)	
		--------------------
		       d94:   681b          ldr    r3, [r3, #0]
		       d96:   4a44          ldr    r2, [pc, #272] ; (ea8 <SystemInit+0x2cc>)
		       d98:   f003 034f     and.w  r3, r3, #79  ; 0x4f
		       d9c:   6013          str    r3, [r2, #0]
		->     d9e:   f7ff fe97     bl ad0 <nrf52_errata_136>
		       da2:   4603          mov    r3, r0
		       da4:   2b00          cmp    r3, #0
		       da6:   d00d          beq.n  dc4 <SystemInit+0x1e8>
		       da8:   f04f 4380     mov.w  r3, #1073741824  ; 0x40000000
		--------------------
	(     f18,      f16)	
		--------------------
		       f10:   1b64          subs   r4, r4, r5
		       f12:   10a4          asrs   r4, r4, #2
		       f14:   2600          movs   r6, #0
		       f16:   42a6          cmp    r6, r4
		->     f18:   d105          bne.n  f26 <__libc_init_array+0x2e>
		       f1a:   bd70          pop    {r4, r5, r6, pc}
		       f1c:   f855 3b04     ldr.w  r3, [r5], #4
		       f20:   4798          blx    r3
		       f22:   3601          adds   r6, #1
		--------------------
	(     faa,      faa)	
		--------------------
		       f9c:   dd07          ble.n  fae <__register_exitproc+0x42>
		       f9e:   f8d8 0000     ldr.w  r0, [r8]
		       fa2:   f7ff ffe2     bl f6a <__retarget_lock_release_recursive>
		       fa6:   f04f 30ff     mov.w  r0, #4294967295  ; 0xffffffff
		->     faa:   e8bd 83f8     ldmia.w    sp!, {r3, r4, r5, r6, r7, r8, r9, pc}
		       fae:   b32e          cbz    r6, ffc <__register_exitproc+0x90>
		       fb0:   f8d4 0088     ldr.w  r0, [r4, #136]   ; 0x88
		       fb4:   b968          cbnz   r0, fd2 <__register_exitproc+0x66>
		       fb6:   4b1a          ldr    r3, [pc, #104] ; (1020 <__register_exitproc+0xb4>)
		--------------------
	(     ffc,      fd2)	
		--------------------
		       ff0:   bf02          ittt   eq
		       ff2:   f8d0 3104     ldreq.w    r3, [r0, #260] ; 0x104
		       ff6:   4313          orreq  r3, r2
		       ff8:   f8c0 3104     streq.w    r3, [r0, #260] ; 0x104
		->     ffc:   6863          ldr    r3, [r4, #4]
		       ffe:   f8d8 0000     ldr.w  r0, [r8]
		      1002:   1c5a          adds   r2, r3, #1
		      1004:   3302          adds   r3, #2
		      1006:   6062          str    r2, [r4, #4]
		--------------------

blinky-o1: 20 | 23
	(     216,      212)	
		--------------------
		   20c:   4804          ldr    r0, [pc, #16]  ; (220 <__do_global_dtors_aux+0x20>)
		   20e:   f3af 8000     nop.w
		   212:   2301          movs   r3, #1
		   214:   7023          strb   r3, [r4, #0]
		-> 216:   bd10          pop    {r4, pc}
		   218:   20000010  .word   0x20000010
		   21c:   00000000  .word   0x00000000
		   220:   00000978  .word   0x00000978
		  
		--------------------
	(     2b8,      2b0)	
		--------------------
		   2b0:   4906          ldr    r1, [pc, #24]  ; (2cc <Reset_Handler+0x1c>)
		   2b2:   4a07          ldr    r2, [pc, #28]  ; (2d0 <Reset_Handler+0x20>)
		   2b4:   4b07          ldr    r3, [pc, #28]  ; (2d4 <Reset_Handler+0x24>)
		   2b6:   1a9b          subs   r3, r3, r2
		-> 2b8:   dd03          ble.n  2c2 <Reset_Handler+0x12>
		   2ba:   3b04          subs   r3, #4
		   2bc:   58c8          ldr    r0, [r1, r3]
		   2be:   50d0          str    r0, [r2, r3]
		   2c0:   dcfb          bgt.n  2ba <Reset_Handler+0xa>
		--------------------
	(     3a2,      39e)	
		--------------------
		   396:   f045 0501     orr.w  r5, r5, #1
		   39a:   f44f 467a     mov.w  r6, #64000   ; 0xfa00
		   39e:   2700          movs   r7, #0
		   3a0:   4638          mov    r0, r7
		-> 3a2:   f7ff ffbd     bl 320 <bsp_board_led_invert>
		   3a6:   f44f 74fa     mov.w  r4, #500 ; 0x1f4
		   3aa:   4630          mov    r0, r6
		   3ac:   47a8          blx    r5
		   3ae:   3c01          subs   r4, #1
		--------------------
	(     3a2,      3a0)	
		--------------------
		   396:   f045 0501     orr.w  r5, r5, #1
		   39a:   f44f 467a     mov.w  r6, #64000   ; 0xfa00
		   39e:   2700          movs   r7, #0
		   3a0:   4638          mov    r0, r7
		-> 3a2:   f7ff ffbd     bl 320 <bsp_board_led_invert>
		   3a6:   f44f 74fa     mov.w  r4, #500 ; 0x1f4
		   3aa:   4630          mov    r0, r6
		   3ac:   47a8          blx    r5
		   3ae:   3c01          subs   r4, #1
		--------------------
	(     3ac,      3aa)	
		--------------------
		   3a0:   4638          mov    r0, r7
		   3a2:   f7ff ffbd     bl 320 <bsp_board_led_invert>
		   3a6:   f44f 74fa     mov.w  r4, #500 ; 0x1f4
		   3aa:   4630          mov    r0, r6
		-> 3ac:   47a8          blx    r5
		   3ae:   3c01          subs   r4, #1
		   3b0:   d1fb          bne.n  3aa <main+0x1e>
		   3b2:   3701          adds   r7, #1
		   3b4:   2f04          cmp    r7, #4
		--------------------
	(     3f6,      3ec)	
		--------------------
		   3e8:   f8c2 3540     str.w  r3, [r2, #1344]  ; 0x540
		   3ec:   f04f 4370     mov.w  r3, #4026531840  ; 0xf0000000
		   3f0:   f893 3fe0     ldrb.w r3, [r3, #4064] ; 0xfe0
		   3f4:   2b06          cmp    r3, #6
		-> 3f6:   d070          beq.n  4da <SystemInit+0x11a>
		   3f8:   f04f 5380     mov.w  r3, #268435456   ; 0x10000000
		   3fc:   f8d3 3130     ldr.w  r3, [r3, #304]   ; 0x130
		   400:   f1b3 3fff     cmp.w  r3, #4294967295  ; 0xffffffff
		   404:   bf04          itt    eq
		--------------------
	(     430,      426)	
		--------------------
		   422:   f8c2 353c     str.w  r3, [r2, #1340]  ; 0x53c
		   426:   f04f 4370     mov.w  r3, #4026531840  ; 0xf0000000
		   42a:   f893 3fe0     ldrb.w r3, [r3, #4064] ; 0xfe0
		   42e:   2b06          cmp    r3, #6
		-> 430:   d05f          beq.n  4f2 <SystemInit+0x132>
		   432:   f04f 5380     mov.w  r3, #268435456   ; 0x10000000
		   436:   f8d3 3130     ldr.w  r3, [r3, #304]   ; 0x130
		   43a:   f1b3 3fff     cmp.w  r3, #4294967295  ; 0xffffffff
		   43e:   bf04          itt    eq
		--------------------
	(     468,      45e)	
		--------------------
		   45a:   f8c3 2538     str.w  r2, [r3, #1336]  ; 0x538
		   45e:   f04f 4370     mov.w  r3, #4026531840  ; 0xf0000000
		   462:   f893 3fe0     ldrb.w r3, [r3, #4064] ; 0xfe0
		   466:   2b06          cmp    r3, #6
		-> 468:   d053          beq.n  512 <SystemInit+0x152>
		   46a:   f04f 5380     mov.w  r3, #268435456   ; 0x10000000
		   46e:   f8d3 2130     ldr.w  r2, [r3, #304]   ; 0x130
		   472:   f1b2 3fff     cmp.w  r2, #4294967295  ; 0xffffffff
		   476:   d075          beq.n  564 <SystemInit+0x1a4>
		--------------------
	(     490,      48e)	
		--------------------
		   482:   f000 80a4     beq.w  5ce <SystemInit+0x20e>
		   486:   f04f 5380     mov.w  r3, #268435456   ; 0x10000000
		   48a:   f8d3 3130     ldr.w  r3, [r3, #304]   ; 0x130
		   48e:   2b06          cmp    r3, #6
		-> 490:   d078          beq.n  584 <SystemInit+0x1c4>
		   492:   f04f 5380     mov.w  r3, #268435456   ; 0x10000000
		   496:   f8d3 3130     ldr.w  r3, [r3, #304]   ; 0x130
		   49a:   2b06          cmp    r3, #6
		   49c:   f000 80ea     beq.w  674 <SystemInit+0x2b4>
		--------------------
	(     5ac,      5aa)	
		--------------------
		   5a0:   d103          bne.n  5aa <SystemInit+0x1ea>
		   5a2:   f04f 4370     mov.w  r3, #4026531840  ; 0xf0000000
		   5a6:   f893 3fe0     ldrb.w r3, [r3, #4064] ; 0xfe0
		   5aa:   2b06          cmp    r3, #6
		-> 5ac:   f47f af71     bne.w  492 <SystemInit+0xd2>
		   5b0:   f04f 4380     mov.w  r3, #1073741824  ; 0x40000000
		   5b4:   f8d3 3400     ldr.w  r3, [r3, #1024]  ; 0x400
		   5b8:   f013 0f01     tst.w  r3, #1
		   5bc:   f43f af69     beq.w  492 <SystemInit+0xd2>
		--------------------
	(     66e,      662)	
		--------------------
		   65e:   f8c3 2570     str.w  r2, [r3, #1392]  ; 0x570
		   662:   f04f 5380     mov.w  r3, #268435456   ; 0x10000000
		   666:   f8d3 3130     ldr.w  r3, [r3, #304]   ; 0x130
		   66a:   f1b3 3fff     cmp.w  r3, #4294967295  ; 0xffffffff
		-> 66e:   f47f af0e     bne.w  48e <SystemInit+0xce>
		   672:   e781          b.n    578 <SystemInit+0x1b8>
		   674:   f04f 5380     mov.w  r3, #268435456   ; 0x10000000
		   678:   f8d3 3134     ldr.w  r3, [r3, #308]   ; 0x134
		   67c:   3b03          subs   r3, #3
		--------------------
	(     75e,      758)	
		--------------------
		  00000758 <memset>:
		   758:   4402          add    r2, r0
		   75a:   4603          mov    r3, r0
		   75c:   4293          cmp    r3, r2
		-> 75e:   d100          bne.n  762 <memset+0xa>
		   760:   4770          bx lr
		   762:   f803 1b01     strb.w r1, [r3], #1
		   766:   e7f9          b.n    75c <memset+0x4>
		  
		--------------------
	(     75e,      75c)	
		--------------------
		  00000758 <memset>:
		   758:   4402          add    r2, r0
		   75a:   4603          mov    r3, r0
		   75c:   4293          cmp    r3, r2
		-> 75e:   d100          bne.n  762 <memset+0xa>
		   760:   4770          bx lr
		   762:   f803 1b01     strb.w r1, [r3], #1
		   766:   e7f9          b.n    75c <memset+0x4>
		  
		--------------------
	(     760,      742)	
		--------------------
		   758:   4402          add    r2, r0
		   75a:   4603          mov    r3, r0
		   75c:   4293          cmp    r3, r2
		   75e:   d100          bne.n  762 <memset+0xa>
		-> 760:   4770          bx lr
		   762:   f803 1b01     strb.w r1, [r3], #1
		   766:   e7f9          b.n    75c <memset+0x4>
		  
		  00000768 <__libc_init_array>:
		--------------------
	(     776,      774)	
		--------------------
		   76e:   1b64          subs   r4, r4, r5
		   770:   10a4          asrs   r4, r4, #2
		   772:   2600          movs   r6, #0
		   774:   42a6          cmp    r6, r4
		-> 776:   d109          bne.n  78c <__libc_init_array+0x24>
		   778:   4d0b          ldr    r5, [pc, #44]  ; (7a8 <__libc_init_array+0x40>)
		   77a:   4c0c          ldr    r4, [pc, #48]  ; (7ac <__libc_init_array+0x44>)
		   77c:   f000 f8ea     bl 954 <_init>
		   780:   1b64          subs   r4, r4, r5
		--------------------
	(     788,      786)	
		--------------------
		   780:   1b64          subs   r4, r4, r5
		   782:   10a4          asrs   r4, r4, #2
		   784:   2600          movs   r6, #0
		   786:   42a6          cmp    r6, r4
		-> 788:   d105          bne.n  796 <__libc_init_array+0x2e>
		   78a:   bd70          pop    {r4, r5, r6, pc}
		   78c:   f855 3b04     ldr.w  r3, [r5], #4
		   790:   4798          blx    r3
		   792:   3601          adds   r6, #1
		--------------------
	(     7ba,      7ba)	
		--------------------
		   7b2:   4d07          ldr    r5, [pc, #28]  ; (7d0 <__libc_fini_array+0x20>)
		   7b4:   4c07          ldr    r4, [pc, #28]  ; (7d4 <__libc_fini_array+0x24>)
		   7b6:   1b64          subs   r4, r4, r5
		   7b8:   10a4          asrs   r4, r4, #2
		-> 7ba:   b91c          cbnz   r4, 7c4 <__libc_fini_array+0x14>
		   7bc:   e8bd 4038     ldmia.w    sp!, {r3, r4, r5, lr}
		   7c0:   f000 b8ce     b.w    960 <_fini>
		   7c4:   3c01          subs   r4, #1
		   7c6:   f855 3024     ldr.w  r3, [r5, r4, lsl #2]
		--------------------
	(     80c,      808)	
		--------------------
		   802:   681b          ldr    r3, [r3, #0]
		   804:   f8c4 3088     str.w  r3, [r4, #136]   ; 0x88
		   808:   6863          ldr    r3, [r4, #4]
		   80a:   2b1f          cmp    r3, #31
		-> 80c:   dd07          ble.n  81e <__register_exitproc+0x42>
		   80e:   f8d8 0000     ldr.w  r0, [r8]
		   812:   f7ff ffe2     bl 7da <__retarget_lock_release_recursive>
		   816:   f04f 30ff     mov.w  r0, #4294967295  ; 0xffffffff
		   81a:   e8bd 83f8     ldmia.w    sp!, {r3, r4, r5, r6, r7, r8, r9, pc}
		--------------------
	(     81a,      81a)	
		--------------------
		   80c:   dd07          ble.n  81e <__register_exitproc+0x42>
		   80e:   f8d8 0000     ldr.w  r0, [r8]
		   812:   f7ff ffe2     bl 7da <__retarget_lock_release_recursive>
		   816:   f04f 30ff     mov.w  r0, #4294967295  ; 0xffffffff
		-> 81a:   e8bd 83f8     ldmia.w    sp!, {r3, r4, r5, r6, r7, r8, r9, pc}
		   81e:   b32e          cbz    r6, 86c <__register_exitproc+0x90>
		   820:   f8d4 0088     ldr.w  r0, [r4, #136]   ; 0x88
		   824:   b968          cbnz   r0, 842 <__register_exitproc+0x66>
		   826:   4b1a          ldr    r3, [pc, #104] ; (890 <__register_exitproc+0xb4>)
		--------------------
	(     87c,      842)	
		--------------------
		   872:   1c5a          adds   r2, r3, #1
		   874:   3302          adds   r3, #2
		   876:   6062          str    r2, [r4, #4]
		   878:   f844 5023     str.w  r5, [r4, r3, lsl #2]
		-> 87c:   f7ff ffad     bl 7da <__retarget_lock_release_recursive>
		   880:   2000          movs   r0, #0
		   882:   e7ca          b.n    81a <__register_exitproc+0x3e>
		   884:   200000c0  .word   0x200000c0
		   888:   20000034  .word   0x20000034
		--------------------

blinky-o2: 20 | 25
	(     216,      212)	
		--------------------
		   20c:   4804          ldr    r0, [pc, #16]  ; (220 <__do_global_dtors_aux+0x20>)
		   20e:   f3af 8000     nop.w
		   212:   2301          movs   r3, #1
		   214:   7023          strb   r3, [r4, #0]
		-> 216:   bd10          pop    {r4, pc}
		   218:   20000010  .word   0x20000010
		   21c:   00000000  .word   0x00000000
		   220:   000009a4  .word   0x000009a4
		  
		--------------------
	(     216,      216)	
		--------------------
		   20c:   4804          ldr    r0, [pc, #16]  ; (220 <__do_global_dtors_aux+0x20>)
		   20e:   f3af 8000     nop.w
		   212:   2301          movs   r3, #1
		   214:   7023          strb   r3, [r4, #0]
		-> 216:   bd10          pop    {r4, pc}
		   218:   20000010  .word   0x20000010
		   21c:   00000000  .word   0x00000000
		   220:   000009a4  .word   0x000009a4
		  
		--------------------
	(     2b8,      2b0)	
		--------------------
		   2b0:   4906          ldr    r1, [pc, #24]  ; (2cc <Reset_Handler+0x1c>)
		   2b2:   4a07          ldr    r2, [pc, #28]  ; (2d0 <Reset_Handler+0x20>)
		   2b4:   4b07          ldr    r3, [pc, #28]  ; (2d4 <Reset_Handler+0x24>)
		   2b6:   1a9b          subs   r3, r3, r2
		-> 2b8:   dd03          ble.n  2c2 <Reset_Handler+0x12>
		   2ba:   3b04          subs   r3, #4
		   2bc:   58c8          ldr    r0, [r1, r3]
		   2be:   50d0          str    r0, [r2, r3]
		   2c0:   dcfb          bgt.n  2ba <Reset_Handler+0xa>
		--------------------
	(     382,      380)	
		--------------------
		   376:   f7ff ffcb     bl 310 <bsp_board_init>
		   37a:   f045 0501     orr.w  r5, r5, #1
		   37e:   2600          movs   r6, #0
		   380:   4630          mov    r0, r6
		-> 382:   f7ff ffb3     bl 2ec <bsp_board_led_invert>
		   386:   f44f 74fa     mov.w  r4, #500 ; 0x1f4
		   38a:   f44f 407a     mov.w  r0, #64000   ; 0xfa00
		   38e:   47a8          blx    r5
		   390:   3c01          subs   r4, #1
		--------------------
	(     410,      406)	
		--------------------
		   402:   f8c2 353c     str.w  r3, [r2, #1340]  ; 0x53c
		   406:   f04f 4370     mov.w  r3, #4026531840  ; 0xf0000000
		   40a:   f893 2fe0     ldrb.w r2, [r3, #4064] ; 0xfe0
		   40e:   2a06          cmp    r2, #6
		-> 410:   f000 8103     beq.w  61a <SystemInit+0x27a>
		   414:   f04f 5380     mov.w  r3, #268435456   ; 0x10000000
		   418:   f8d3 3130     ldr.w  r3, [r3, #304]   ; 0x130
		   41c:   1c5a          adds   r2, r3, #1
		   41e:   bf04          itt    eq
		--------------------
	(     44c,      43e)	
		--------------------
		   43e:   f04f 4370     mov.w  r3, #4026531840  ; 0xf0000000
		   442:   f893 2fe0     ldrb.w r2, [r3, #4064] ; 0xfe0
		   446:   f8d3 3fe8     ldr.w  r3, [r3, #4072]  ; 0xfe8
		   44a:   2a06          cmp    r2, #6
		-> 44c:   f000 80c5     beq.w  5da <SystemInit+0x23a>
		   450:   f04f 5280     mov.w  r2, #268435456   ; 0x10000000
		   454:   f8d2 3130     ldr.w  r3, [r2, #304]   ; 0x130
		   458:   1c5c          adds   r4, r3, #1
		   45a:   d02e          beq.n  4ba <SystemInit+0x11a>
		--------------------
	(     46e,      46c)	
		--------------------
		   462:   d034          beq.n  4ce <SystemInit+0x12e>
		   464:   f04f 5380     mov.w  r3, #268435456   ; 0x10000000
		   468:   f8d3 3130     ldr.w  r3, [r3, #304]   ; 0x130
		   46c:   2b06          cmp    r3, #6
		-> 46e:   f000 8097     beq.w  5a0 <SystemInit+0x200>
		   472:   f04f 5380     mov.w  r3, #268435456   ; 0x10000000
		   476:   e9d3 234c     ldrd   r2, r3, [r3, #304]    ; 0x130
		   47a:   2a06          cmp    r2, #6
		   47c:   f000 80a2     beq.w  5c4 <SystemInit+0x224>
		--------------------
	(     4d2,      4ce)	
		--------------------
		   4c8:   d1da          bne.n  480 <SystemInit+0xe0>
		   4ca:   f3c2 1203     ubfx   r2, r2, #4, #4
		   4ce:   3a03          subs   r2, #3
		   4d0:   2a03          cmp    r2, #3
		-> 4d2:   f240 80d5     bls.w  680 <SystemInit+0x2e0>
		   4d6:   f04f 5380     mov.w  r3, #268435456   ; 0x10000000
		   4da:   4a74          ldr    r2, [pc, #464] ; (6ac <SystemInit+0x30c>)
		   4dc:   f8d3 1404     ldr.w  r1, [r3, #1028]  ; 0x404
		   4e0:   f8c2 1520     str.w  r1, [r2, #1312]  ; 0x520
		--------------------
	(     56a,      568)	
		--------------------
		   55c:   f8d3 1444     ldr.w  r1, [r3, #1092]  ; 0x444
		   560:   f8d3 3130     ldr.w  r3, [r3, #304]   ; 0x130
		   564:   f8c2 1570     str.w  r1, [r2, #1392]  ; 0x570
		   568:   1c58          adds   r0, r3, #1
		-> 56a:   f000 808f     beq.w  68c <SystemInit+0x2ec>
		   56e:   2b06          cmp    r3, #6
		   570:   f47f af78     bne.w  464 <SystemInit+0xc4>
		   574:   f04f 5380     mov.w  r3, #268435456   ; 0x10000000
		   578:   f04f 4180     mov.w  r1, #1073741824  ; 0x40000000
		--------------------
	(     5fa,      5f6)	
		--------------------
		   5f0:   2103          movs   r1, #3
		   5f2:   f8c2 15a0     str.w  r1, [r2, #1440]  ; 0x5a0
		   5f6:   5cc3          ldrb   r3, [r0, r3]
		   5f8:   2b00          cmp    r3, #0
		-> 5fa:   f43f af29     beq.w  450 <SystemInit+0xb0>
		   5fe:   4b2e          ldr    r3, [pc, #184] ; (6b8 <SystemInit+0x318>)
		   600:   2405          movs   r4, #5
		   602:   2001          movs   r0, #1
		   604:   2100          movs   r1, #0
		--------------------
	(     772,      76c)	
		--------------------
		  0000076c <memset>:
		   76c:   4402          add    r2, r0
		   76e:   4603          mov    r3, r0
		   770:   4293          cmp    r3, r2
		-> 772:   d100          bne.n  776 <memset+0xa>
		   774:   4770          bx lr
		   776:   f803 1b01     strb.w r1, [r3], #1
		   77a:   e7f9          b.n    770 <memset+0x4>
		  
		--------------------
	(     772,      770)	
		--------------------
		  0000076c <memset>:
		   76c:   4402          add    r2, r0
		   76e:   4603          mov    r3, r0
		   770:   4293          cmp    r3, r2
		-> 772:   d100          bne.n  776 <memset+0xa>
		   774:   4770          bx lr
		   776:   f803 1b01     strb.w r1, [r3], #1
		   77a:   e7f9          b.n    770 <memset+0x4>
		  
		--------------------
	(     774,      756)	
		--------------------
		   76c:   4402          add    r2, r0
		   76e:   4603          mov    r3, r0
		   770:   4293          cmp    r3, r2
		   772:   d100          bne.n  776 <memset+0xa>
		-> 774:   4770          bx lr
		   776:   f803 1b01     strb.w r1, [r3], #1
		   77a:   e7f9          b.n    770 <memset+0x4>
		  
		  0000077c <__libc_init_array>:
		--------------------
	(     78a,      788)	
		--------------------
		   782:   1b64          subs   r4, r4, r5
		   784:   10a4          asrs   r4, r4, #2
		   786:   2600          movs   r6, #0
		   788:   42a6          cmp    r6, r4
		-> 78a:   d109          bne.n  7a0 <__libc_init_array+0x24>
		   78c:   4d0b          ldr    r5, [pc, #44]  ; (7bc <__libc_init_array+0x40>)
		   78e:   4c0c          ldr    r4, [pc, #48]  ; (7c0 <__libc_init_array+0x44>)
		   790:   f000 f8ea     bl 968 <_init>
		   794:   1b64          subs   r4, r4, r5
		--------------------
	(     79c,      79a)	
		--------------------
		   794:   1b64          subs   r4, r4, r5
		   796:   10a4          asrs   r4, r4, #2
		   798:   2600          movs   r6, #0
		   79a:   42a6          cmp    r6, r4
		-> 79c:   d105          bne.n  7aa <__libc_init_array+0x2e>
		   79e:   bd70          pop    {r4, r5, r6, pc}
		   7a0:   f855 3b04     ldr.w  r3, [r5], #4
		   7a4:   4798          blx    r3
		   7a6:   3601          adds   r6, #1
		--------------------
	(     7ce,      7ce)	
		--------------------
		   7c6:   4d07          ldr    r5, [pc, #28]  ; (7e4 <__libc_fini_array+0x20>)
		   7c8:   4c07          ldr    r4, [pc, #28]  ; (7e8 <__libc_fini_array+0x24>)
		   7ca:   1b64          subs   r4, r4, r5
		   7cc:   10a4          asrs   r4, r4, #2
		-> 7ce:   b91c          cbnz   r4, 7d8 <__libc_fini_array+0x14>
		   7d0:   e8bd 4038     ldmia.w    sp!, {r3, r4, r5, lr}
		   7d4:   f000 b8ce     b.w    974 <_fini>
		   7d8:   3c01          subs   r4, #1
		   7da:   f855 3024     ldr.w  r3, [r5, r4, lsl #2]
		--------------------
	(     820,      81c)	
		--------------------
		   816:   681b          ldr    r3, [r3, #0]
		   818:   f8c4 3088     str.w  r3, [r4, #136]   ; 0x88
		   81c:   6863          ldr    r3, [r4, #4]
		   81e:   2b1f          cmp    r3, #31
		-> 820:   dd07          ble.n  832 <__register_exitproc+0x42>
		   822:   f8d8 0000     ldr.w  r0, [r8]
		   826:   f7ff ffe2     bl 7ee <__retarget_lock_release_recursive>
		   82a:   f04f 30ff     mov.w  r0, #4294967295  ; 0xffffffff
		   82e:   e8bd 83f8     ldmia.w    sp!, {r3, r4, r5, r6, r7, r8, r9, pc}
		--------------------
	(     82e,      82e)	
		--------------------
		   820:   dd07          ble.n  832 <__register_exitproc+0x42>
		   822:   f8d8 0000     ldr.w  r0, [r8]
		   826:   f7ff ffe2     bl 7ee <__retarget_lock_release_recursive>
		   82a:   f04f 30ff     mov.w  r0, #4294967295  ; 0xffffffff
		-> 82e:   e8bd 83f8     ldmia.w    sp!, {r3, r4, r5, r6, r7, r8, r9, pc}
		   832:   b32e          cbz    r6, 880 <__register_exitproc+0x90>
		   834:   f8d4 0088     ldr.w  r0, [r4, #136]   ; 0x88
		   838:   b968          cbnz   r0, 856 <__register_exitproc+0x66>
		   83a:   4b1a          ldr    r3, [pc, #104] ; (8a4 <__register_exitproc+0xb4>)
		--------------------
	(     890,      856)	
		--------------------
		   886:   1c5a          adds   r2, r3, #1
		   888:   3302          adds   r3, #2
		   88a:   6062          str    r2, [r4, #4]
		   88c:   f844 5023     str.w  r5, [r4, r3, lsl #2]
		-> 890:   f7ff ffad     bl 7ee <__retarget_lock_release_recursive>
		   894:   2000          movs   r0, #0
		   896:   e7ca          b.n    82e <__register_exitproc+0x3e>
		   898:   200000c0  .word   0x200000c0
		   89c:   20000034  .word   0x20000034
		--------------------
	(     8ec,      8ea)	
		--------------------
		   8e0:   3501          adds   r5, #1
		   8e2:   eb04 0585     add.w  r5, r4, r5, lsl #2
		   8e6:   f107 0b80     add.w  fp, r7, #128 ; 0x80
		   8ea:   2e00          cmp    r6, #0
		-> 8ec:   dbed          blt.n  8ca <__call_exitprocs+0x1e>
		   8ee:   9b00          ldr    r3, [sp, #0]
		   8f0:   b143          cbz    r3, 904 <__call_exitprocs+0x58>
		   8f2:   b917          cbnz   r7, 8fa <__call_exitprocs+0x4e>
		   8f4:   3e01          subs   r6, #1
		--------------------

blinky-o3: 20 | 24
	(     216,      212)	
		--------------------
		   20c:   4804          ldr    r0, [pc, #16]  ; (220 <__do_global_dtors_aux+0x20>)
		   20e:   f3af 8000     nop.w
		   212:   2301          movs   r3, #1
		   214:   7023          strb   r3, [r4, #0]
		-> 216:   bd10          pop    {r4, pc}
		   218:   20000010  .word   0x20000010
		   21c:   00000000  .word   0x00000000
		   220:   00000984  .word   0x00000984
		  
		--------------------
	(     216,      216)	
		--------------------
		   20c:   4804          ldr    r0, [pc, #16]  ; (220 <__do_global_dtors_aux+0x20>)
		   20e:   f3af 8000     nop.w
		   212:   2301          movs   r3, #1
		   214:   7023          strb   r3, [r4, #0]
		-> 216:   bd10          pop    {r4, pc}
		   218:   20000010  .word   0x20000010
		   21c:   00000000  .word   0x00000000
		   220:   00000984  .word   0x00000984
		  
		--------------------
	(     2b8,      2b0)	
		--------------------
		   2b0:   4906          ldr    r1, [pc, #24]  ; (2cc <Reset_Handler+0x1c>)
		   2b2:   4a07          ldr    r2, [pc, #28]  ; (2d0 <Reset_Handler+0x20>)
		   2b4:   4b07          ldr    r3, [pc, #28]  ; (2d4 <Reset_Handler+0x24>)
		   2b6:   1a9b          subs   r3, r3, r2
		-> 2b8:   dd03          ble.n  2c2 <Reset_Handler+0x12>
		   2ba:   3b04          subs   r3, #4
		   2bc:   58c8          ldr    r0, [r1, r3]
		   2be:   50d0          str    r0, [r2, r3]
		   2c0:   dcfb          bgt.n  2ba <Reset_Handler+0xa>
		--------------------
	(     34e,      34c)	
		--------------------
		   340:   f8c3 4508     str.w  r4, [r3, #1288]  ; 0x508
		   344:   f8c3 1508     str.w  r1, [r3, #1288]  ; 0x508
		   348:   f8c3 2508     str.w  r2, [r3, #1288]  ; 0x508
		   34c:   0783          lsls   r3, r0, #30
		-> 34e:   d50a          bpl.n  366 <bsp_board_init+0x56>
		   350:   f04f 43a0     mov.w  r3, #1342177280  ; 0x50000000
		   354:   220c          movs   r2, #12
		   356:   f8c3 2734     str.w  r2, [r3, #1844]  ; 0x734
		   35a:   f8c3 2738     str.w  r2, [r3, #1848]  ; 0x738
		--------------------
	(     36a,      366)	
		--------------------
		   35a:   f8c3 2738     str.w  r2, [r3, #1848]  ; 0x738
		   35e:   f8c3 273c     str.w  r2, [r3, #1852]  ; 0x73c
		   362:   f8c3 2740     str.w  r2, [r3, #1856]  ; 0x740
		   366:   f85d 4b04     ldr.w  r4, [sp], #4
		-> 36a:   4770          bx lr
		  
		  0000036c <main>:
		   36c:   b570          push   {r4, r5, r6, lr}
		   36e:   2001          movs   r0, #1
		--------------------
	(     37e,      37a)	
		--------------------
		   372:   f7ff ffcd     bl 310 <bsp_board_init>
		   376:   f045 0501     orr.w  r5, r5, #1
		   37a:   2600          movs   r6, #0
		   37c:   4630          mov    r0, r6
		-> 37e:   f7ff ffb5     bl 2ec <bsp_board_led_invert>
		   382:   f44f 74fa     mov.w  r4, #500 ; 0x1f4
		   386:   f44f 407a     mov.w  r0, #64000   ; 0xfa00
		   38a:   47a8          blx    r5
		   38c:   3c01          subs   r4, #1
		--------------------
	(     37e,      37c)	
		--------------------
		   372:   f7ff ffcd     bl 310 <bsp_board_init>
		   376:   f045 0501     orr.w  r5, r5, #1
		   37a:   2600          movs   r6, #0
		   37c:   4630          mov    r0, r6
		-> 37e:   f7ff ffb5     bl 2ec <bsp_board_led_invert>
		   382:   f44f 74fa     mov.w  r4, #500 ; 0x1f4
		   386:   f44f 407a     mov.w  r0, #64000   ; 0xfa00
		   38a:   47a8          blx    r5
		   38c:   3c01          subs   r4, #1
		--------------------
	(     38a,      386)	
		--------------------
		   37c:   4630          mov    r0, r6
		   37e:   f7ff ffb5     bl 2ec <bsp_board_led_invert>
		   382:   f44f 74fa     mov.w  r4, #500 ; 0x1f4
		   386:   f44f 407a     mov.w  r0, #64000   ; 0xfa00
		-> 38a:   47a8          blx    r5
		   38c:   3c01          subs   r4, #1
		   38e:   d1fa          bne.n  386 <main+0x1a>
		   390:   3601          adds   r6, #1
		   392:   2e04          cmp    r6, #4
		--------------------
	(     3d2,      3c8)	
		--------------------
		   3c4:   f8c2 3540     str.w  r3, [r2, #1344]  ; 0x540
		   3c8:   f04f 4370     mov.w  r3, #4026531840  ; 0xf0000000
		   3cc:   f893 2fe0     ldrb.w r2, [r3, #4064] ; 0xfe0
		   3d0:   2a06          cmp    r2, #6
		-> 3d2:   f000 8129     beq.w  628 <SystemInit+0x28c>
		   3d6:   f04f 5380     mov.w  r3, #268435456   ; 0x10000000
		   3da:   f8d3 3130     ldr.w  r3, [r3, #304]   ; 0x130
		   3de:   1c5c          adds   r4, r3, #1
		   3e0:   bf04          itt    eq
		--------------------
	(     448,      43a)	
		--------------------
		   43a:   f04f 4370     mov.w  r3, #4026531840  ; 0xf0000000
		   43e:   f893 2fe0     ldrb.w r2, [r3, #4064] ; 0xfe0
		   442:   f8d3 3fe8     ldr.w  r3, [r3, #4072]  ; 0xfe8
		   446:   2a06          cmp    r2, #6
		-> 448:   f000 80b8     beq.w  5bc <SystemInit+0x220>
		   44c:   f04f 5280     mov.w  r2, #268435456   ; 0x10000000
		   450:   f8d2 3130     ldr.w  r3, [r2, #304]   ; 0x130
		   454:   1c59          adds   r1, r3, #1
		   456:   f000 809d     beq.w  594 <SystemInit+0x1f8>
		--------------------
	(     578,      574)	
		--------------------
		   56e:   d478          bmi.n  662 <SystemInit+0x2c6>
		   570:   f8d2 3134     ldr.w  r3, [r2, #308]   ; 0x134
		   574:   3b03          subs   r3, #3
		   576:   2b03          cmp    r3, #3
		-> 578:   d804          bhi.n  584 <SystemInit+0x1e8>
		   57a:   4a5f          ldr    r2, [pc, #380] ; (6f8 <SystemInit+0x35c>)
		   57c:   5cd3          ldrb   r3, [r2, r3]
		   57e:   2b00          cmp    r3, #0
		   580:   f43f af6d     beq.w  45e <SystemInit+0xc2>
		--------------------
	(     75e,      75c)	
		--------------------
		  00000758 <memset>:
		   758:   4402          add    r2, r0
		   75a:   4603          mov    r3, r0
		   75c:   4293          cmp    r3, r2
		-> 75e:   d100          bne.n  762 <memset+0xa>
		   760:   4770          bx lr
		   762:   f803 1b01     strb.w r1, [r3], #1
		   766:   e7f9          b.n    75c <memset+0x4>
		  
		--------------------
	(     760,      742)	
		--------------------
		   758:   4402          add    r2, r0
		   75a:   4603          mov    r3, r0
		   75c:   4293          cmp    r3, r2
		   75e:   d100          bne.n  762 <memset+0xa>
		-> 760:   4770          bx lr
		   762:   f803 1b01     strb.w r1, [r3], #1
		   766:   e7f9          b.n    75c <memset+0x4>
		  
		  00000768 <__libc_init_array>:
		--------------------
	(     776,      774)	
		--------------------
		   76e:   1b64          subs   r4, r4, r5
		   770:   10a4          asrs   r4, r4, #2
		   772:   2600          movs   r6, #0
		   774:   42a6          cmp    r6, r4
		-> 776:   d109          bne.n  78c <__libc_init_array+0x24>
		   778:   4d0b          ldr    r5, [pc, #44]  ; (7a8 <__libc_init_array+0x40>)
		   77a:   4c0c          ldr    r4, [pc, #48]  ; (7ac <__libc_init_array+0x44>)
		   77c:   f000 f8ea     bl 954 <_init>
		   780:   1b64          subs   r4, r4, r5
		--------------------
	(     7ba,      7ba)	
		--------------------
		   7b2:   4d07          ldr    r5, [pc, #28]  ; (7d0 <__libc_fini_array+0x20>)
		   7b4:   4c07          ldr    r4, [pc, #28]  ; (7d4 <__libc_fini_array+0x24>)
		   7b6:   1b64          subs   r4, r4, r5
		   7b8:   10a4          asrs   r4, r4, #2
		-> 7ba:   b91c          cbnz   r4, 7c4 <__libc_fini_array+0x14>
		   7bc:   e8bd 4038     ldmia.w    sp!, {r3, r4, r5, lr}
		   7c0:   f000 b8ce     b.w    960 <_fini>
		   7c4:   3c01          subs   r4, #1
		   7c6:   f855 3024     ldr.w  r3, [r5, r4, lsl #2]
		--------------------
	(     80c,      808)	
		--------------------
		   802:   681b          ldr    r3, [r3, #0]
		   804:   f8c4 3088     str.w  r3, [r4, #136]   ; 0x88
		   808:   6863          ldr    r3, [r4, #4]
		   80a:   2b1f          cmp    r3, #31
		-> 80c:   dd07          ble.n  81e <__register_exitproc+0x42>
		   80e:   f8d8 0000     ldr.w  r0, [r8]
		   812:   f7ff ffe2     bl 7da <__retarget_lock_release_recursive>
		   816:   f04f 30ff     mov.w  r0, #4294967295  ; 0xffffffff
		   81a:   e8bd 83f8     ldmia.w    sp!, {r3, r4, r5, r6, r7, r8, r9, pc}
		--------------------
	(     81a,      81a)	
		--------------------
		   80c:   dd07          ble.n  81e <__register_exitproc+0x42>
		   80e:   f8d8 0000     ldr.w  r0, [r8]
		   812:   f7ff ffe2     bl 7da <__retarget_lock_release_recursive>
		   816:   f04f 30ff     mov.w  r0, #4294967295  ; 0xffffffff
		-> 81a:   e8bd 83f8     ldmia.w    sp!, {r3, r4, r5, r6, r7, r8, r9, pc}
		   81e:   b32e          cbz    r6, 86c <__register_exitproc+0x90>
		   820:   f8d4 0088     ldr.w  r0, [r4, #136]   ; 0x88
		   824:   b968          cbnz   r0, 842 <__register_exitproc+0x66>
		   826:   4b1a          ldr    r3, [pc, #104] ; (890 <__register_exitproc+0xb4>)
		--------------------
	(     87c,      842)	
		--------------------
		   872:   1c5a          adds   r2, r3, #1
		   874:   3302          adds   r3, #2
		   876:   6062          str    r2, [r4, #4]
		   878:   f844 5023     str.w  r5, [r4, r3, lsl #2]
		-> 87c:   f7ff ffad     bl 7da <__retarget_lock_release_recursive>
		   880:   2000          movs   r0, #0
		   882:   e7ca          b.n    81a <__register_exitproc+0x3e>
		   884:   200000c0  .word   0x200000c0
		   888:   20000034  .word   0x20000034
		--------------------
	(     87c,      86c)	
		--------------------
		   872:   1c5a          adds   r2, r3, #1
		   874:   3302          adds   r3, #2
		   876:   6062          str    r2, [r4, #4]
		   878:   f844 5023     str.w  r5, [r4, r3, lsl #2]
		-> 87c:   f7ff ffad     bl 7da <__retarget_lock_release_recursive>
		   880:   2000          movs   r0, #0
		   882:   e7ca          b.n    81a <__register_exitproc+0x3e>
		   884:   200000c0  .word   0x200000c0
		   888:   20000034  .word   0x20000034
		--------------------
	(     8d8,      8d6)	
		--------------------
		   8cc:   3501          adds   r5, #1
		   8ce:   eb04 0585     add.w  r5, r4, r5, lsl #2
		   8d2:   f107 0b80     add.w  fp, r7, #128 ; 0x80
		   8d6:   2e00          cmp    r6, #0
		-> 8d8:   dbed          blt.n  8b6 <__call_exitprocs+0x1e>
		   8da:   9b00          ldr    r3, [sp, #0]
		   8dc:   b143          cbz    r3, 8f0 <__call_exitprocs+0x58>
		   8de:   b917          cbnz   r7, 8e6 <__call_exitprocs+0x4e>
		   8e0:   3e01          subs   r6, #1
		--------------------

gpiote-o0: 20 | 77
	(     c18,      c0e)	
		--------------------
		       c0e:   bf00          nop
		       c10:   370c          adds   r7, #12
		       c12:   46bd          mov    sp, r7
		       c14:   f85d 7b04     ldr.w  r7, [sp], #4
		->     c18:   4770          bx lr
		       c1a:   bf00          nop
		       c1c:   2000003c  .word   0x2000003c
		  
		  00000c20 <nrfx_gpiote_init>:
		--------------------
	(     c78,      c74)	
		--------------------
		       c70:   3301          adds   r3, #1
		       c72:   71fb          strb   r3, [r7, #7]
		       c74:   79fb          ldrb   r3, [r7, #7]
		       c76:   2b08          cmp    r3, #8
		->     c78:   d9f5          bls.n  c66 <nrfx_gpiote_init+0x46>
		       c7a:   2204          movs   r2, #4
		       c7c:   2100          movs   r1, #0
		       c7e:   4813          ldr    r0, [pc, #76]  ; (ccc <nrfx_gpiote_init+0xac>)
		       c80:   f001 fade     bl 2240 <memset>
		--------------------
	(     cc6,      cc0)	
		--------------------
		       cbe:   683b          ldr    r3, [r7, #0]
		       cc0:   4618          mov    r0, r3
		       cc2:   3708          adds   r7, #8
		       cc4:   46bd          mov    sp, r7
		->     cc6:   bd80          pop    {r7, pc}
		       cc8:   2000003c  .word   0x2000003c
		       ccc:   20000081  .word   0x20000081
		       cd0:   40006000  .word   0x40006000
		  
		--------------------
	(     ec8,      ebe)	
		--------------------
		       ec0:   3301          adds   r3, #1
		       ec2:   617b          str    r3, [r7, #20]
		       ec4:   697b          ldr    r3, [r7, #20]
		       ec6:   2b00          cmp    r3, #0
		->     ec8:   d0ab          beq.n  e22 <port_event_handle+0xe>
		       eca:   6878          ldr    r0, [r7, #4]
		       ecc:   f7ff ff81     bl dd2 <latch_pending_read_and_check>
		       ed0:   4603          mov    r3, r0
		       ed2:   2b00          cmp    r3, #0
		--------------------
	(     f42,      f3e)	
		--------------------
		       f3a:   3301          adds   r3, #1
		       f3c:   61bb          str    r3, [r7, #24]
		       f3e:   69bb          ldr    r3, [r7, #24]
		       f40:   2b07          cmp    r3, #7
		->     f42:   d9de          bls.n  f02 <GPIOTE_IRQHandler+0x1e>
		       f44:   f44f 70be     mov.w  r0, #380 ; 0x17c
		       f48:   f7ff fae4     bl 514 <nrf_gpiote_event_is_set>
		       f4c:   4603          mov    r3, r0
		       f4e:   2b00          cmp    r3, #0
		--------------------
	(    11ae,     11a6)	
		--------------------
		      11a6:   697b          ldr    r3, [r7, #20]
		      11a8:   4618          mov    r0, r3
		      11aa:   3718          adds   r7, #24
		      11ac:   46bd          mov    sp, r7
		->    11ae:   bd80          pop    {r7, pc}
		      11b0:   000fffff  .word   0x000fffff
		  
		  000011b4 <nrfx_ppi_channel_assign>:
		      11b4:   b580          push   {r7, lr}
		--------------------
	(    121e,     1218)	
		--------------------
		      1216:   697b          ldr    r3, [r7, #20]
		      1218:   4618          mov    r0, r3
		      121a:   3718          adds   r7, #24
		      121c:   46bd          mov    sp, r7
		->    121e:   bd80          pop    {r7, pc}
		  
		  00001220 <nrfx_ppi_channel_enable>:
		      1220:   b580          push   {r7, lr}
		      1222:   b084          sub    sp, #16
		--------------------
	(    12b8,     12ae)	
		--------------------
		      12ae:   bf00          nop
		      12b0:   370c          adds   r7, #12
		      12b2:   46bd          mov    sp, r7
		      12b4:   f85d 7b04     ldr.w  r7, [sp], #4
		->    12b8:   4770          bx lr
		      12ba:   bf00          nop
		      12bc:   e000e100  .word   0xe000e100
		  
		  000012c0 <__NVIC_SetPriority>:
		--------------------
	(    1aa8,     1a9e)	
		--------------------
		      1a9e:   4618          mov    r0, r3
		      1aa0:   370c          adds   r7, #12
		      1aa2:   46bd          mov    sp, r7
		      1aa4:   f85d 7b04     ldr.w  r7, [sp], #4
		->    1aa8:   4770          bx lr
		      1aaa:   bf00          nop
		      1aac:   f0000fe0  .word   0xf0000fe0
		      1ab0:   f0000fe8  .word   0xf0000fe8
		  
		--------------------
	(    1aea,     1ae6)	
		--------------------
		      1ae2:   681b          ldr    r3, [r3, #0]
		      1ae4:   603b          str    r3, [r7, #0]
		      1ae6:   687b          ldr    r3, [r7, #4]
		      1ae8:   2b06          cmp    r3, #6
		->    1aea:   d119          bne.n  1b20 <nrf52_errata_31+0x6c>
		      1aec:   683b          ldr    r3, [r7, #0]
		      1aee:   3b03          subs   r3, #3
		      1af0:   2b03          cmp    r3, #3
		      1af2:   d813          bhi.n  1b1c <nrf52_errata_31+0x68>
		--------------------
	(    1b2c,     1b22)	
		--------------------
		      1b22:   4618          mov    r0, r3
		      1b24:   370c          adds   r7, #12
		      1b26:   46bd          mov    sp, r7
		      1b28:   f85d 7b04     ldr.w  r7, [sp], #4
		->    1b2c:   4770          bx lr
		      1b2e:   bf00          nop
		      1b30:   10000130  .word   0x10000130
		      1b34:   f0000fe0  .word   0xf0000fe0
		      1b38:   f0000fe8  .word   0xf0000fe8
		--------------------
	(    1be2,     1bde)	
		--------------------
		      1bda:   681b          ldr    r3, [r3, #0]
		      1bdc:   603b          str    r3, [r7, #0]
		      1bde:   687b          ldr    r3, [r7, #4]
		      1be0:   2b06          cmp    r3, #6
		->    1be2:   d119          bne.n  1c18 <nrf52_errata_36+0x6c>
		      1be4:   683b          ldr    r3, [r7, #0]
		      1be6:   3b03          subs   r3, #3
		      1be8:   2b03          cmp    r3, #3
		      1bea:   d813          bhi.n  1c14 <nrf52_errata_36+0x68>
		--------------------
	(    1d46,     1d42)	
		--------------------
		      1d3e:   681b          ldr    r3, [r3, #0]
		      1d40:   603b          str    r3, [r7, #0]
		      1d42:   687b          ldr    r3, [r7, #4]
		      1d44:   2b06          cmp    r3, #6
		->    1d46:   d119          bne.n  1d7c <nrf52_errata_66+0x6c>
		      1d48:   683b          ldr    r3, [r7, #0]
		      1d4a:   3b03          subs   r3, #3
		      1d4c:   2b03          cmp    r3, #3
		      1d4e:   d813          bhi.n  1d78 <nrf52_errata_66+0x68>
		--------------------
	(    1d88,     1d7e)	
		--------------------
		      1d7e:   4618          mov    r0, r3
		      1d80:   370c          adds   r7, #12
		      1d82:   46bd          mov    sp, r7
		      1d84:   f85d 7b04     ldr.w  r7, [sp], #4
		->    1d88:   4770          bx lr
		      1d8a:   bf00          nop
		      1d8c:   10000130  .word   0x10000130
		      1d90:   f0000fe0  .word   0xf0000fe0
		      1d94:   f0000fe8  .word   0xf0000fe8
		--------------------
	(    1ea0,     1e96)	
		--------------------
		      1e96:   4618          mov    r0, r3
		      1e98:   370c          adds   r7, #12
		      1e9a:   46bd          mov    sp, r7
		      1e9c:   f85d 7b04     ldr.w  r7, [sp], #4
		->    1ea0:   4770          bx lr
		      1ea2:   bf00          nop
		      1ea4:   10000130  .word   0x10000130
		      1ea8:   f0000fe0  .word   0xf0000fe0
		      1eac:   f0000fe8  .word   0xf0000fe8
		--------------------
	(    1f50,     1f50)	
		--------------------
		      1f46:   0a1b          lsrs   r3, r3, #8
		      1f48:   4aa0          ldr    r2, [pc, #640] ; (21cc <Heap_Size+0x1cc>)
		      1f4a:   f003 031f     and.w  r3, r3, #31
		      1f4e:   6013          str    r3, [r2, #0]
		->    1f50:   f7ff fd7a     bl 1a48 <nrf52_errata_16>
		      1f54:   4603          mov    r3, r0
		      1f56:   2b00          cmp    r3, #0
		      1f58:   d002          beq.n  1f60 <SystemInit+0x2c>
		      1f5a:   4b9d          ldr    r3, [pc, #628] ; (21d0 <Heap_Size+0x1d0>)
		--------------------
	(    1f60,     1f60)	
		--------------------
		      1f58:   d002          beq.n  1f60 <SystemInit+0x2c>
		      1f5a:   4b9d          ldr    r3, [pc, #628] ; (21d0 <Heap_Size+0x1d0>)
		      1f5c:   4a9d          ldr    r2, [pc, #628] ; (21d4 <Heap_Size+0x1d4>)
		      1f5e:   601a          str    r2, [r3, #0]
		->    1f60:   f7ff fda8     bl 1ab4 <nrf52_errata_31>
		      1f64:   4603          mov    r3, r0
		      1f66:   2b00          cmp    r3, #0
		      1f68:   d006          beq.n  1f78 <SystemInit+0x44>
		      1f6a:   4b9b          ldr    r3, [pc, #620] ; (21d8 <Heap_Size+0x1d8>)
		--------------------
	(    1fc6,     1fc6)	
		--------------------
		      1fbe:   d002          beq.n  1fc6 <SystemInit+0x92>
		      1fc0:   4b88          ldr    r3, [pc, #544] ; (21e4 <Heap_Size+0x1e4>)
		      1fc2:   2203          movs   r2, #3
		      1fc4:   601a          str    r2, [r3, #0]
		->    1fc6:   f7ff fe6d     bl 1ca4 <nrf52_errata_57>
		      1fca:   4603          mov    r3, r0
		      1fcc:   2b00          cmp    r3, #0
		      1fce:   d00b          beq.n  1fe8 <SystemInit+0xb4>
		      1fd0:   4b85          ldr    r3, [pc, #532] ; (21e8 <Heap_Size+0x1e8>)
		--------------------
	(    2302,     2302)	
		--------------------
		      22f4:   dd07          ble.n  2306 <__register_exitproc+0x42>
		      22f6:   f8d8 0000     ldr.w  r0, [r8]
		      22fa:   f7ff ffe2     bl 22c2 <__retarget_lock_release_recursive>
		      22fe:   f04f 30ff     mov.w  r0, #4294967295  ; 0xffffffff
		->    2302:   e8bd 83f8     ldmia.w    sp!, {r3, r4, r5, r6, r7, r8, r9, pc}
		      2306:   b32e          cbz    r6, 2354 <__register_exitproc+0x90>
		      2308:   f8d4 0088     ldr.w  r0, [r4, #136]   ; 0x88
		      230c:   b968          cbnz   r0, 232a <__register_exitproc+0x66>
		      230e:   4b1a          ldr    r3, [pc, #104] ; (2378 <__register_exitproc+0xb4>)
		--------------------
	(    2364,     2354)	
		--------------------
		      235a:   1c5a          adds   r2, r3, #1
		      235c:   3302          adds   r3, #2
		      235e:   6062          str    r2, [r4, #4]
		      2360:   f844 5023     str.w  r5, [r4, r3, lsl #2]
		->    2364:   f7ff ffad     bl 22c2 <__retarget_lock_release_recursive>
		      2368:   2000          movs   r0, #0
		      236a:   e7ca          b.n    2302 <__register_exitproc+0x3e>
		      236c:   2000012c  .word   0x2000012c
		      2370:   200000a0  .word   0x200000a0
		--------------------

gpiote-o1: 20 | 32
	(     216,      212)	
		--------------------
		       20c:   4804          ldr    r0, [pc, #16]  ; (220 <__do_global_dtors_aux+0x20>)
		       20e:   f3af 8000     nop.w
		       212:   2301          movs   r3, #1
		       214:   7023          strb   r3, [r4, #0]
		->     216:   bd10          pop    {r4, pc}
		       218:   20000018  .word   0x20000018
		       21c:   00000000  .word   0x00000000
		       220:   00000ffc  .word   0x00000ffc
		  
		--------------------
	(     216,      216)	
		--------------------
		       20c:   4804          ldr    r0, [pc, #16]  ; (220 <__do_global_dtors_aux+0x20>)
		       20e:   f3af 8000     nop.w
		       212:   2301          movs   r3, #1
		       214:   7023          strb   r3, [r4, #0]
		->     216:   bd10          pop    {r4, pc}
		       218:   20000018  .word   0x20000018
		       21c:   00000000  .word   0x00000000
		       220:   00000ffc  .word   0x00000ffc
		  
		--------------------
	(     3dc,      3da)	
		--------------------
		       3d4:   2b20          cmp    r3, #32
		       3d6:   d1ee          bne.n  3b6 <nrfx_gpiote_init+0x12>
		       3d8:   2400          movs   r4, #0
		       3da:   b2e0          uxtb   r0, r4
		->     3dc:   f7ff ffd4     bl 388 <channel_free>
		       3e0:   3401          adds   r4, #1
		       3e2:   2c09          cmp    r4, #9
		       3e4:   d1f9          bne.n  3da <nrfx_gpiote_init+0x36>
		       3e6:   4c10          ldr    r4, [pc, #64]  ; (428 <nrfx_gpiote_init+0x84>)
		--------------------
	(     48c,      468)	
		--------------------
		       484:   4303          orrs   r3, r0
		       486:   548b          strb   r3, [r1, r2]
		       488:   2000          movs   r0, #0
		       48a:   bc30          pop    {r4, r5}
		->     48c:   4770          bx lr
		       48e:   4a21          ldr    r2, [pc, #132] ; (514 <nrfx_gpiote_out_init+0xe0>)
		       490:   2300          movs   r3, #0
		       492:   f852 4f04     ldr.w  r4, [r2, #4]!
		       496:   f1b4 3fff     cmp.w  r4, #4294967295  ; 0xffffffff
		--------------------
	(     48c,      48a)	
		--------------------
		       484:   4303          orrs   r3, r0
		       486:   548b          strb   r3, [r1, r2]
		       488:   2000          movs   r0, #0
		       48a:   bc30          pop    {r4, r5}
		->     48c:   4770          bx lr
		       48e:   4a21          ldr    r2, [pc, #132] ; (514 <nrfx_gpiote_out_init+0xe0>)
		       490:   2300          movs   r3, #0
		       492:   f852 4f04     ldr.w  r4, [r2, #4]!
		       496:   f1b4 3fff     cmp.w  r4, #4294967295  ; 0xffffffff
		--------------------
	(     49a,      492)	
		--------------------
		       48e:   4a21          ldr    r2, [pc, #132] ; (514 <nrfx_gpiote_out_init+0xe0>)
		       490:   2300          movs   r3, #0
		       492:   f852 4f04     ldr.w  r4, [r2, #4]!
		       496:   f1b4 3fff     cmp.w  r4, #4294967295  ; 0xffffffff
		->     49a:   d004          beq.n  4a6 <nrfx_gpiote_out_init+0x72>
		       49c:   3301          adds   r3, #1
		       49e:   2b08          cmp    r3, #8
		       4a0:   d1f7          bne.n  492 <nrfx_gpiote_out_init+0x5e>
		       4a2:   2004          movs   r0, #4
		--------------------
	(     74e,      74a)	
		--------------------
		       740:   f8c0 4510     str.w  r4, [r0, #1296]  ; 0x510
		       744:   f8c0 2514     str.w  r2, [r0, #1300]  ; 0x514
		       748:   2000          movs   r0, #0
		       74a:   f85d 4b04     ldr.w  r4, [sp], #4
		->     74e:   4770          bx lr
		       750:   200e          movs   r0, #14
		       752:   4770          bx lr
		       754:   200e          movs   r0, #14
		       756:   e7f8          b.n    74a <nrfx_ppi_channel_assign+0x2e>
		--------------------
	(     86c,      868)	
		--------------------
		       864:   721a          strb   r2, [r3, #8]
		       866:   2000          movs   r0, #0
		       868:   b002          add    sp, #8
		       86a:   bc30          pop    {r4, r5}
		->     86c:   4770          bx lr
		       86e:   f004 040f     and.w  r4, r4, #15
		       872:   0152          lsls   r2, r2, #5
		       874:   b2d2          uxtb   r2, r2
		       876:   4b04          ldr    r3, [pc, #16]  ; (888 <nrfx_timer_init+0xf8>)
		--------------------
	(     a7a,      a70)	
		--------------------
		       a6c:   f8c2 3540     str.w  r3, [r2, #1344]  ; 0x540
		       a70:   f04f 4370     mov.w  r3, #4026531840  ; 0xf0000000
		       a74:   f893 3fe0     ldrb.w r3, [r3, #4064] ; 0xfe0
		       a78:   2b06          cmp    r3, #6
		->     a7a:   d070          beq.n  b5e <SystemInit+0x11a>
		       a7c:   f04f 5380     mov.w  r3, #268435456   ; 0x10000000
		       a80:   f8d3 3130     ldr.w  r3, [r3, #304]   ; 0x130
		       a84:   f1b3 3fff     cmp.w  r3, #4294967295  ; 0xffffffff
		       a88:   bf04          itt    eq
		--------------------
	(     ab4,      aaa)	
		--------------------
		       aa6:   f8c2 353c     str.w  r3, [r2, #1340]  ; 0x53c
		       aaa:   f04f 4370     mov.w  r3, #4026531840  ; 0xf0000000
		       aae:   f893 3fe0     ldrb.w r3, [r3, #4064] ; 0xfe0
		       ab2:   2b06          cmp    r3, #6
		->     ab4:   d05f          beq.n  b76 <SystemInit+0x132>
		       ab6:   f04f 5380     mov.w  r3, #268435456   ; 0x10000000
		       aba:   f8d3 3130     ldr.w  r3, [r3, #304]   ; 0x130
		       abe:   f1b3 3fff     cmp.w  r3, #4294967295  ; 0xffffffff
		       ac2:   bf04          itt    eq
		--------------------
	(     c30,      c2e)	
		--------------------
		       c24:   d103          bne.n  c2e <SystemInit+0x1ea>
		       c26:   f04f 4370     mov.w  r3, #4026531840  ; 0xf0000000
		       c2a:   f893 3fe0     ldrb.w r3, [r3, #4064] ; 0xfe0
		       c2e:   2b06          cmp    r3, #6
		->     c30:   f47f af71     bne.w  b16 <SystemInit+0xd2>
		       c34:   f04f 4380     mov.w  r3, #1073741824  ; 0x40000000
		       c38:   f8d3 3400     ldr.w  r3, [r3, #1024]  ; 0x400
		       c3c:   f013 0f01     tst.w  r3, #1
		       c40:   f43f af69     beq.w  b16 <SystemInit+0xd2>
		--------------------
	(     de2,      ddc)	
		--------------------
		  00000ddc <memset>:
		       ddc:   4402          add    r2, r0
		       dde:   4603          mov    r3, r0
		       de0:   4293          cmp    r3, r2
		->     de2:   d100          bne.n  de6 <memset+0xa>
		       de4:   4770          bx lr
		       de6:   f803 1b01     strb.w r1, [r3], #1
		       dea:   e7f9          b.n    de0 <memset+0x4>
		  
		--------------------
	(     de2,      de0)	
		--------------------
		  00000ddc <memset>:
		       ddc:   4402          add    r2, r0
		       dde:   4603          mov    r3, r0
		       de0:   4293          cmp    r3, r2
		->     de2:   d100          bne.n  de6 <memset+0xa>
		       de4:   4770          bx lr
		       de6:   f803 1b01     strb.w r1, [r3], #1
		       dea:   e7f9          b.n    de0 <memset+0x4>
		  
		--------------------
	(     de4,      dc6)	
		--------------------
		       ddc:   4402          add    r2, r0
		       dde:   4603          mov    r3, r0
		       de0:   4293          cmp    r3, r2
		       de2:   d100          bne.n  de6 <memset+0xa>
		->     de4:   4770          bx lr
		       de6:   f803 1b01     strb.w r1, [r3], #1
		       dea:   e7f9          b.n    de0 <memset+0x4>
		  
		  00000dec <__libc_init_array>:
		--------------------
	(     e0c,      e0a)	
		--------------------
		       e04:   1b64          subs   r4, r4, r5
		       e06:   10a4          asrs   r4, r4, #2
		       e08:   2600          movs   r6, #0
		       e0a:   42a6          cmp    r6, r4
		->     e0c:   d105          bne.n  e1a <__libc_init_array+0x2e>
		       e0e:   bd70          pop    {r4, r5, r6, pc}
		       e10:   f855 3b04     ldr.w  r3, [r5], #4
		       e14:   4798          blx    r3
		       e16:   3601          adds   r6, #1
		--------------------
	(     e90,      e8c)	
		--------------------
		       e86:   681b          ldr    r3, [r3, #0]
		       e88:   f8c4 3088     str.w  r3, [r4, #136]   ; 0x88
		       e8c:   6863          ldr    r3, [r4, #4]
		       e8e:   2b1f          cmp    r3, #31
		->     e90:   dd07          ble.n  ea2 <__register_exitproc+0x42>
		       e92:   f8d8 0000     ldr.w  r0, [r8]
		       e96:   f7ff ffe2     bl e5e <__retarget_lock_release_recursive>
		       e9a:   f04f 30ff     mov.w  r0, #4294967295  ; 0xffffffff
		       e9e:   e8bd 83f8     ldmia.w    sp!, {r3, r4, r5, r6, r7, r8, r9, pc}
		--------------------
	(     e9e,      e9e)	
		--------------------
		       e90:   dd07          ble.n  ea2 <__register_exitproc+0x42>
		       e92:   f8d8 0000     ldr.w  r0, [r8]
		       e96:   f7ff ffe2     bl e5e <__retarget_lock_release_recursive>
		       e9a:   f04f 30ff     mov.w  r0, #4294967295  ; 0xffffffff
		->     e9e:   e8bd 83f8     ldmia.w    sp!, {r3, r4, r5, r6, r7, r8, r9, pc}
		       ea2:   b32e          cbz    r6, ef0 <__register_exitproc+0x90>
		       ea4:   f8d4 0088     ldr.w  r0, [r4, #136]   ; 0x88
		       ea8:   b968          cbnz   r0, ec6 <__register_exitproc+0x66>
		       eaa:   4b1a          ldr    r3, [pc, #104] ; (f14 <__register_exitproc+0xb4>)
		--------------------
	(     f00,      ec6)	
		--------------------
		       ef6:   1c5a          adds   r2, r3, #1
		       ef8:   3302          adds   r3, #2
		       efa:   6062          str    r2, [r4, #4]
		       efc:   f844 5023     str.w  r5, [r4, r3, lsl #2]
		->     f00:   f7ff ffad     bl e5e <__retarget_lock_release_recursive>
		       f04:   2000          movs   r0, #0
		       f06:   e7ca          b.n    e9e <__register_exitproc+0x3e>
		       f08:   2000012c  .word   0x2000012c
		       f0c:   200000a0  .word   0x200000a0
		--------------------
	(     f00,      ef0)	
		--------------------
		       ef6:   1c5a          adds   r2, r3, #1
		       ef8:   3302          adds   r3, #2
		       efa:   6062          str    r2, [r4, #4]
		       efc:   f844 5023     str.w  r5, [r4, r3, lsl #2]
		->     f00:   f7ff ffad     bl e5e <__retarget_lock_release_recursive>
		       f04:   2000          movs   r0, #0
		       f06:   e7ca          b.n    e9e <__register_exitproc+0x3e>
		       f08:   2000012c  .word   0x2000012c
		       f0c:   200000a0  .word   0x200000a0
		--------------------
	(     f5c,      f5a)	
		--------------------
		       f50:   3501          adds   r5, #1
		       f52:   eb04 0585     add.w  r5, r4, r5, lsl #2
		       f56:   f107 0b80     add.w  fp, r7, #128 ; 0x80
		       f5a:   2e00          cmp    r6, #0
		->     f5c:   dbed          blt.n  f3a <__call_exitprocs+0x1e>
		       f5e:   9b00          ldr    r3, [sp, #0]
		       f60:   b143          cbz    r3, f74 <__call_exitprocs+0x58>
		       f62:   b917          cbnz   r7, f6a <__call_exitprocs+0x4e>
		       f64:   3e01          subs   r6, #1
		--------------------

gpiote-o2: 20 | 29
	(     216,      216)	
		--------------------
		       20c:   4804          ldr    r0, [pc, #16]  ; (220 <__do_global_dtors_aux+0x20>)
		       20e:   f3af 8000     nop.w
		       212:   2301          movs   r3, #1
		       214:   7023          strb   r3, [r4, #0]
		->     216:   bd10          pop    {r4, pc}
		       218:   20000018  .word   0x20000018
		       21c:   00000000  .word   0x00000000
		       220:   00001018  .word   0x00001018
		  
		--------------------
	(     2b8,      2b0)	
		--------------------
		       2b0:   4906          ldr    r1, [pc, #24]  ; (2cc <Reset_Handler+0x1c>)
		       2b2:   4a07          ldr    r2, [pc, #28]  ; (2d0 <Reset_Handler+0x20>)
		       2b4:   4b07          ldr    r3, [pc, #28]  ; (2d4 <Reset_Handler+0x24>)
		       2b6:   1a9b          subs   r3, r3, r2
		->     2b8:   dd03          ble.n  2c2 <Reset_Handler+0x12>
		       2ba:   3b04          subs   r3, #4
		       2bc:   58c8          ldr    r0, [r1, r3]
		       2be:   50d0          str    r0, [r2, r3]
		       2c0:   dcfb          bgt.n  2ba <Reset_Handler+0xa>
		--------------------
	(     432,      42c)	
		--------------------
		       428:   1f2a          subs   r2, r5, #4
		       42a:   2300          movs   r3, #0
		       42c:   f852 4f04     ldr.w  r4, [r2, #4]!
		       430:   3401          adds   r4, #1
		->     432:   d024          beq.n  47e <nrfx_gpiote_out_init+0x6e>
		       434:   3301          adds   r3, #1
		       436:   2b08          cmp    r3, #8
		       438:   d1f8          bne.n  42c <nrfx_gpiote_out_init+0x1c>
		       43a:   2004          movs   r0, #4
		--------------------
	(     7ec,      7e0)	
		--------------------
		       7e0:   6802          ldr    r2, [r0, #0]
		       7e2:   f342 3307     sbfx   r3, r2, #12, #8
		       7e6:   2b00          cmp    r3, #0
		       7e8:   ea4f 3412     mov.w  r4, r2, lsr #12
		->     7ec:   db08          blt.n  800 <nrfx_timer_init+0x8c>
		       7ee:   4d20          ldr    r5, [pc, #128] ; (870 <nrfx_timer_init+0xfc>)
		       7f0:   095b          lsrs   r3, r3, #5
		       7f2:   f004 041f     and.w  r4, r4, #31
		       7f6:   2201          movs   r2, #1
		--------------------
	(     8ec,      8de)	
		--------------------
		       8e0:   f501 71a8     add.w  r1, r1, #336 ; 0x150
		       8e4:   f843 2021     str.w  r2, [r3, r1, lsl #2]
		       8e8:   b002          add    sp, #8
		       8ea:   bcf0          pop    {r4, r5, r6, r7}
		->     8ec:   4770          bx lr
		       8ee:   6803          ldr    r3, [r0, #0]
		       8f0:   f8c3 4308     str.w  r4, [r3, #776]   ; 0x308
		       8f4:   e7f3          b.n    8de <nrfx_timer_extended_compare+0x4a>
		       8f6:   bf00          nop
		--------------------
	(     914,      90c)	
		--------------------
		       908:   f44f 3680     mov.w  r6, #65536   ; 0x10000
		       90c:   682b          ldr    r3, [r5, #0]
		       90e:   fa06 f204     lsl.w  r2, r6, r4
		       912:   3401          adds   r4, #1
		->     914:   b17b          cbz    r3, 936 <TIMER0_IRQHandler+0x3e>
		       916:   f8d7 3304     ldr.w  r3, [r7, #772]   ; 0x304
		       91a:   f5a5 4000     sub.w  r0, r5, #32768   ; 0x8000
		       91e:   421a          tst    r2, r3
		       920:   f04f 0100     mov.w  r1, #0
		--------------------
	(     914,      936)	
		--------------------
		       908:   f44f 3680     mov.w  r6, #65536   ; 0x10000
		       90c:   682b          ldr    r3, [r5, #0]
		       90e:   fa06 f204     lsl.w  r2, r6, r4
		       912:   3401          adds   r4, #1
		->     914:   b17b          cbz    r3, 936 <TIMER0_IRQHandler+0x3e>
		       916:   f8d7 3304     ldr.w  r3, [r7, #772]   ; 0x304
		       91a:   f5a5 4000     sub.w  r0, r5, #32768   ; 0x8000
		       91e:   421a          tst    r2, r3
		       920:   f04f 0100     mov.w  r1, #0
		--------------------
	(     926,      928)	
		--------------------
		       91a:   f5a5 4000     sub.w  r0, r5, #32768   ; 0x8000
		       91e:   421a          tst    r2, r3
		       920:   f04f 0100     mov.w  r1, #0
		       924:   b280          uxth   r0, r0
		->     926:   d006          beq.n  936 <TIMER0_IRQHandler+0x3e>
		       928:   6029          str    r1, [r5, #0]
		       92a:   682b          ldr    r3, [r5, #0]
		       92c:   9301          str    r3, [sp, #4]
		       92e:   e9d8 3100     ldrd   r3, r1, [r8]
		--------------------
	(     a90,      a86)	
		--------------------
		       a82:   f8c2 353c     str.w  r3, [r2, #1340]  ; 0x53c
		       a86:   f04f 4370     mov.w  r3, #4026531840  ; 0xf0000000
		       a8a:   f893 2fe0     ldrb.w r2, [r3, #4064] ; 0xfe0
		       a8e:   2a06          cmp    r2, #6
		->     a90:   f000 8103     beq.w  c9a <SystemInit+0x27a>
		       a94:   f04f 5380     mov.w  r3, #268435456   ; 0x10000000
		       a98:   f8d3 3130     ldr.w  r3, [r3, #304]   ; 0x130
		       a9c:   1c5a          adds   r2, r3, #1
		       a9e:   bf04          itt    eq
		--------------------
	(     acc,      abe)	
		--------------------
		       abe:   f04f 4370     mov.w  r3, #4026531840  ; 0xf0000000
		       ac2:   f893 2fe0     ldrb.w r2, [r3, #4064] ; 0xfe0
		       ac6:   f8d3 3fe8     ldr.w  r3, [r3, #4072]  ; 0xfe8
		       aca:   2a06          cmp    r2, #6
		->     acc:   f000 80c5     beq.w  c5a <SystemInit+0x23a>
		       ad0:   f04f 5280     mov.w  r2, #268435456   ; 0x10000000
		       ad4:   f8d2 3130     ldr.w  r3, [r2, #304]   ; 0x130
		       ad8:   1c5c          adds   r4, r3, #1
		       ada:   d02e          beq.n  b3a <SystemInit+0x11a>
		--------------------
	(     aee,      aec)	
		--------------------
		       ae2:   d034          beq.n  b4e <SystemInit+0x12e>
		       ae4:   f04f 5380     mov.w  r3, #268435456   ; 0x10000000
		       ae8:   f8d3 3130     ldr.w  r3, [r3, #304]   ; 0x130
		       aec:   2b06          cmp    r3, #6
		->     aee:   f000 8097     beq.w  c20 <SystemInit+0x200>
		       af2:   f04f 5380     mov.w  r3, #268435456   ; 0x10000000
		       af6:   e9d3 234c     ldrd   r2, r3, [r3, #304]    ; 0x130
		       afa:   2a06          cmp    r2, #6
		       afc:   f000 80a2     beq.w  c44 <SystemInit+0x224>
		--------------------
	(     bea,      be8)	
		--------------------
		       bdc:   f8d3 1444     ldr.w  r1, [r3, #1092]  ; 0x444
		       be0:   f8d3 3130     ldr.w  r3, [r3, #304]   ; 0x130
		       be4:   f8c2 1570     str.w  r1, [r2, #1392]  ; 0x570
		       be8:   1c58          adds   r0, r3, #1
		->     bea:   f000 808f     beq.w  d0c <SystemInit+0x2ec>
		       bee:   2b06          cmp    r3, #6
		       bf0:   f47f af78     bne.w  ae4 <SystemInit+0xc4>
		       bf4:   f04f 5380     mov.w  r3, #268435456   ; 0x10000000
		       bf8:   f04f 4180     mov.w  r1, #1073741824  ; 0x40000000
		--------------------
	(     df2,      dec)	
		--------------------
		  00000dec <memset>:
		       dec:   4402          add    r2, r0
		       dee:   4603          mov    r3, r0
		       df0:   4293          cmp    r3, r2
		->     df2:   d100          bne.n  df6 <memset+0xa>
		       df4:   4770          bx lr
		       df6:   f803 1b01     strb.w r1, [r3], #1
		       dfa:   e7f9          b.n    df0 <memset+0x4>
		  
		--------------------
	(     df2,      df0)	
		--------------------
		  00000dec <memset>:
		       dec:   4402          add    r2, r0
		       dee:   4603          mov    r3, r0
		       df0:   4293          cmp    r3, r2
		->     df2:   d100          bne.n  df6 <memset+0xa>
		       df4:   4770          bx lr
		       df6:   f803 1b01     strb.w r1, [r3], #1
		       dfa:   e7f9          b.n    df0 <memset+0x4>
		  
		--------------------
	(     e1c,      e1a)	
		--------------------
		       e14:   1b64          subs   r4, r4, r5
		       e16:   10a4          asrs   r4, r4, #2
		       e18:   2600          movs   r6, #0
		       e1a:   42a6          cmp    r6, r4
		->     e1c:   d105          bne.n  e2a <__libc_init_array+0x2e>
		       e1e:   bd70          pop    {r4, r5, r6, pc}
		       e20:   f855 3b04     ldr.w  r3, [r5], #4
		       e24:   4798          blx    r3
		       e26:   3601          adds   r6, #1
		--------------------
	(     e4e,      e4e)	
		--------------------
		       e46:   4d07          ldr    r5, [pc, #28]  ; (e64 <__libc_fini_array+0x20>)
		       e48:   4c07          ldr    r4, [pc, #28]  ; (e68 <__libc_fini_array+0x24>)
		       e4a:   1b64          subs   r4, r4, r5
		       e4c:   10a4          asrs   r4, r4, #2
		->     e4e:   b91c          cbnz   r4, e58 <__libc_fini_array+0x14>
		       e50:   e8bd 4038     ldmia.w    sp!, {r3, r4, r5, lr}
		       e54:   f000 b8ce     b.w    ff4 <_fini>
		       e58:   3c01          subs   r4, #1
		       e5a:   f855 3024     ldr.w  r3, [r5, r4, lsl #2]
		--------------------
	(     ea0,      e9c)	
		--------------------
		       e96:   681b          ldr    r3, [r3, #0]
		       e98:   f8c4 3088     str.w  r3, [r4, #136]   ; 0x88
		       e9c:   6863          ldr    r3, [r4, #4]
		       e9e:   2b1f          cmp    r3, #31
		->     ea0:   dd07          ble.n  eb2 <__register_exitproc+0x42>
		       ea2:   f8d8 0000     ldr.w  r0, [r8]
		       ea6:   f7ff ffe2     bl e6e <__retarget_lock_release_recursive>
		       eaa:   f04f 30ff     mov.w  r0, #4294967295  ; 0xffffffff
		       eae:   e8bd 83f8     ldmia.w    sp!, {r3, r4, r5, r6, r7, r8, r9, pc}
		--------------------
	(     f10,      ed6)	
		--------------------
		       f06:   1c5a          adds   r2, r3, #1
		       f08:   3302          adds   r3, #2
		       f0a:   6062          str    r2, [r4, #4]
		       f0c:   f844 5023     str.w  r5, [r4, r3, lsl #2]
		->     f10:   f7ff ffad     bl e6e <__retarget_lock_release_recursive>
		       f14:   2000          movs   r0, #0
		       f16:   e7ca          b.n    eae <__register_exitproc+0x3e>
		       f18:   2000012c  .word   0x2000012c
		       f1c:   200000a0  .word   0x200000a0
		--------------------
	(     f10,      f00)	
		--------------------
		       f06:   1c5a          adds   r2, r3, #1
		       f08:   3302          adds   r3, #2
		       f0a:   6062          str    r2, [r4, #4]
		       f0c:   f844 5023     str.w  r5, [r4, r3, lsl #2]
		->     f10:   f7ff ffad     bl e6e <__retarget_lock_release_recursive>
		       f14:   2000          movs   r0, #0
		       f16:   e7ca          b.n    eae <__register_exitproc+0x3e>
		       f18:   2000012c  .word   0x2000012c
		       f1c:   200000a0  .word   0x200000a0
		--------------------
	(     f6c,      f6a)	
		--------------------
		       f60:   3501          adds   r5, #1
		       f62:   eb04 0585     add.w  r5, r4, r5, lsl #2
		       f66:   f107 0b80     add.w  fp, r7, #128 ; 0x80
		       f6a:   2e00          cmp    r6, #0
		->     f6c:   dbed          blt.n  f4a <__call_exitprocs+0x1e>
		       f6e:   9b00          ldr    r3, [sp, #0]
		       f70:   b143          cbz    r3, f84 <__call_exitprocs+0x58>
		       f72:   b917          cbnz   r7, f7a <__call_exitprocs+0x4e>
		       f74:   3e01          subs   r6, #1
		--------------------

gpiote-o3: 20 | 30
	(     216,      212)	
		--------------------
		       20c:   4804          ldr    r0, [pc, #16]  ; (220 <__do_global_dtors_aux+0x20>)
		       20e:   f3af 8000     nop.w
		       212:   2301          movs   r3, #1
		       214:   7023          strb   r3, [r4, #0]
		->     216:   bd10          pop    {r4, pc}
		       218:   20000018  .word   0x20000018
		       21c:   00000000  .word   0x00000000
		       220:   00001180  .word   0x00001180
		  
		--------------------
	(     504,      4b6)	
		--------------------
		       4fa:   4322          orrs   r2, r4
		       4fc:   f8c3 2510     str.w  r2, [r3, #1296]  ; 0x510
		       500:   784b          ldrb   r3, [r1, #1]
		       502:   2b01          cmp    r3, #1
		->     504:   d1bc          bne.n  480 <nrfx_gpiote_out_init+0x60>
		       506:   f04f 42a0     mov.w  r2, #1342177280  ; 0x50000000
		       50a:   4083          lsls   r3, r0
		       50c:   f8c2 3508     str.w  r3, [r2, #1288]  ; 0x508
		       510:   e7bc          b.n    48c <nrfx_gpiote_out_init+0x6c>
		--------------------
	(     592,      58a)	
		--------------------
		       588:   461e          mov    r6, r3
		       58a:   4b9f          ldr    r3, [pc, #636] ; (808 <GPIOTE_IRQHandler+0x294>)
		       58c:   f8d3 2104     ldr.w  r2, [r3, #260]   ; 0x104
		       590:   2a01          cmp    r2, #1
		->     592:   f000 8106     beq.w  7a2 <GPIOTE_IRQHandler+0x22e>
		       596:   4b9c          ldr    r3, [pc, #624] ; (808 <GPIOTE_IRQHandler+0x294>)
		       598:   f8d3 2108     ldr.w  r2, [r3, #264]   ; 0x108
		       59c:   2a01          cmp    r2, #1
		       59e:   f000 80f1     beq.w  784 <GPIOTE_IRQHandler+0x210>
		--------------------
	(     646,      630)	
		--------------------
		       638:   f103 4380     add.w  r3, r3, #1073741824  ; 0x40000000
		       63c:   4235          tst    r5, r6
		       63e:   f503 43c0     add.w  r3, r3, #24576   ; 0x6000
		       642:   ea4f 0545     mov.w  r5, r5, lsl #1
		->     646:   d00b          beq.n  660 <GPIOTE_IRQHandler+0xec>
		       648:   f8d3 0510     ldr.w  r0, [r3, #1296]  ; 0x510
		       64c:   f857 2024     ldr.w  r2, [r7, r4, lsl #2]
		       650:   f8d3 1510     ldr.w  r1, [r3, #1296]  ; 0x510
		       654:   f3c0 2004     ubfx   r0, r0, #8, #5
		--------------------
	(     646,      636)	
		--------------------
		       638:   f103 4380     add.w  r3, r3, #1073741824  ; 0x40000000
		       63c:   4235          tst    r5, r6
		       63e:   f503 43c0     add.w  r3, r3, #24576   ; 0x6000
		       642:   ea4f 0545     mov.w  r5, r5, lsl #1
		->     646:   d00b          beq.n  660 <GPIOTE_IRQHandler+0xec>
		       648:   f8d3 0510     ldr.w  r0, [r3, #1296]  ; 0x510
		       64c:   f857 2024     ldr.w  r2, [r7, r4, lsl #2]
		       650:   f8d3 1510     ldr.w  r1, [r3, #1296]  ; 0x510
		       654:   f3c0 2004     ubfx   r0, r0, #8, #5
		--------------------
	(     964,      958)	
		--------------------
		       958:   6802          ldr    r2, [r0, #0]
		       95a:   f342 3307     sbfx   r3, r2, #12, #8
		       95e:   2b00          cmp    r3, #0
		       960:   ea4f 3412     mov.w  r4, r2, lsr #12
		->     964:   db08          blt.n  978 <nrfx_timer_init+0x8c>
		       966:   4d20          ldr    r5, [pc, #128] ; (9e8 <nrfx_timer_init+0xfc>)
		       968:   095b          lsrs   r3, r3, #5
		       96a:   f004 041f     and.w  r4, r4, #31
		       96e:   2201          movs   r2, #1
		--------------------
	(     a8c,      aae)	
		--------------------
		       a80:   f44f 3680     mov.w  r6, #65536   ; 0x10000
		       a84:   682b          ldr    r3, [r5, #0]
		       a86:   fa06 f204     lsl.w  r2, r6, r4
		       a8a:   3401          adds   r4, #1
		->     a8c:   b17b          cbz    r3, aae <TIMER0_IRQHandler+0x3e>
		       a8e:   f8d7 3304     ldr.w  r3, [r7, #772]   ; 0x304
		       a92:   f5a5 4000     sub.w  r0, r5, #32768   ; 0x8000
		       a96:   421a          tst    r2, r3
		       a98:   f04f 0100     mov.w  r1, #0
		--------------------
	(     a9e,      aa0)	
		--------------------
		       a92:   f5a5 4000     sub.w  r0, r5, #32768   ; 0x8000
		       a96:   421a          tst    r2, r3
		       a98:   f04f 0100     mov.w  r1, #0
		       a9c:   b280          uxth   r0, r0
		->     a9e:   d006          beq.n  aae <TIMER0_IRQHandler+0x3e>
		       aa0:   6029          str    r1, [r5, #0]
		       aa2:   682b          ldr    r3, [r5, #0]
		       aa4:   9301          str    r3, [sp, #4]
		       aa6:   e9d8 3100     ldrd   r3, r1, [r8]
		--------------------
	(     c44,      c36)	
		--------------------
		       c36:   f04f 4370     mov.w  r3, #4026531840  ; 0xf0000000
		       c3a:   f893 2fe0     ldrb.w r2, [r3, #4064] ; 0xfe0
		       c3e:   f8d3 3fe8     ldr.w  r3, [r3, #4072]  ; 0xfe8
		       c42:   2a06          cmp    r2, #6
		->     c44:   f000 80b8     beq.w  db8 <SystemInit+0x220>
		       c48:   f04f 5280     mov.w  r2, #268435456   ; 0x10000000
		       c4c:   f8d2 3130     ldr.w  r3, [r2, #304]   ; 0x130
		       c50:   1c59          adds   r1, r3, #1
		       c52:   f000 809d     beq.w  d90 <SystemInit+0x1f8>
		--------------------
	(     d40,      d32)	
		--------------------
		       d34:   bf04          itt    eq
		       d36:   f04f 4370     moveq.w    r3, #4026531840    ; 0xf0000000
		       d3a:   f893 3fe0     ldrbeq.w   r3, [r3, #4064]   ; 0xfe0
		       d3e:   2b06          cmp    r3, #6
		->     d40:   d18b          bne.n  c5a <SystemInit+0xc2>
		       d42:   f04f 5280     mov.w  r2, #268435456   ; 0x10000000
		       d46:   f04f 4180     mov.w  r1, #1073741824  ; 0x40000000
		       d4a:   f8d2 3258     ldr.w  r3, [r2, #600]   ; 0x258
		       d4e:   f8d2 0130     ldr.w  r0, [r2, #304]   ; 0x130
		--------------------
	(     d74,      d70)	
		--------------------
		       d6a:   d478          bmi.n  e5e <SystemInit+0x2c6>
		       d6c:   f8d2 3134     ldr.w  r3, [r2, #308]   ; 0x134
		       d70:   3b03          subs   r3, #3
		       d72:   2b03          cmp    r3, #3
		->     d74:   d804          bhi.n  d80 <SystemInit+0x1e8>
		       d76:   4a5f          ldr    r2, [pc, #380] ; (ef4 <SystemInit+0x35c>)
		       d78:   5cd3          ldrb   r3, [r2, r3]
		       d7a:   2b00          cmp    r3, #0
		       d7c:   f43f af6d     beq.w  c5a <SystemInit+0xc2>
		--------------------
	(     dda,      dd4)	
		--------------------
		       dd0:   f8c2 15a0     str.w  r1, [r2, #1440]  ; 0x5a0
		       dd4:   4a4b          ldr    r2, [pc, #300] ; (f04 <SystemInit+0x36c>)
		       dd6:   5cd3          ldrb   r3, [r2, r3]
		       dd8:   2b00          cmp    r3, #0
		->     dda:   f43f af35     beq.w  c48 <SystemInit+0xb0>
		       dde:   4b4a          ldr    r3, [pc, #296] ; (f08 <SystemInit+0x370>)
		       de0:   2405          movs   r4, #5
		       de2:   2001          movs   r0, #1
		       de4:   2100          movs   r1, #0
		--------------------
	(     f5a,      f54)	
		--------------------
		  00000f54 <memset>:
		       f54:   4402          add    r2, r0
		       f56:   4603          mov    r3, r0
		       f58:   4293          cmp    r3, r2
		->     f5a:   d100          bne.n  f5e <memset+0xa>
		       f5c:   4770          bx lr
		       f5e:   f803 1b01     strb.w r1, [r3], #1
		       f62:   e7f9          b.n    f58 <memset+0x4>
		  
		--------------------
	(     f5c,      f3e)	
		--------------------
		       f54:   4402          add    r2, r0
		       f56:   4603          mov    r3, r0
		       f58:   4293          cmp    r3, r2
		       f5a:   d100          bne.n  f5e <memset+0xa>
		->     f5c:   4770          bx lr
		       f5e:   f803 1b01     strb.w r1, [r3], #1
		       f62:   e7f9          b.n    f58 <memset+0x4>
		  
		  00000f64 <__libc_init_array>:
		--------------------
	(     f72,      f70)	
		--------------------
		       f6a:   1b64          subs   r4, r4, r5
		       f6c:   10a4          asrs   r4, r4, #2
		       f6e:   2600          movs   r6, #0
		       f70:   42a6          cmp    r6, r4
		->     f72:   d109          bne.n  f88 <__libc_init_array+0x24>
		       f74:   4d0b          ldr    r5, [pc, #44]  ; (fa4 <__libc_init_array+0x40>)
		       f76:   4c0c          ldr    r4, [pc, #48]  ; (fa8 <__libc_init_array+0x44>)
		       f78:   f000 f8ea     bl 1150 <_init>
		       f7c:   1b64          subs   r4, r4, r5
		--------------------
	(     f84,      f82)	
		--------------------
		       f7c:   1b64          subs   r4, r4, r5
		       f7e:   10a4          asrs   r4, r4, #2
		       f80:   2600          movs   r6, #0
		       f82:   42a6          cmp    r6, r4
		->     f84:   d105          bne.n  f92 <__libc_init_array+0x2e>
		       f86:   bd70          pop    {r4, r5, r6, pc}
		       f88:   f855 3b04     ldr.w  r3, [r5], #4
		       f8c:   4798          blx    r3
		       f8e:   3601          adds   r6, #1
		--------------------
	(    1008,     1004)	
		--------------------
		       ffe:   681b          ldr    r3, [r3, #0]
		      1000:   f8c4 3088     str.w  r3, [r4, #136]   ; 0x88
		      1004:   6863          ldr    r3, [r4, #4]
		      1006:   2b1f          cmp    r3, #31
		->    1008:   dd07          ble.n  101a <__register_exitproc+0x42>
		      100a:   f8d8 0000     ldr.w  r0, [r8]
		      100e:   f7ff ffe2     bl fd6 <__retarget_lock_release_recursive>
		      1012:   f04f 30ff     mov.w  r0, #4294967295  ; 0xffffffff
		      1016:   e8bd 83f8     ldmia.w    sp!, {r3, r4, r5, r6, r7, r8, r9, pc}
		--------------------
	(    1016,     1016)	
		--------------------
		      1008:   dd07          ble.n  101a <__register_exitproc+0x42>
		      100a:   f8d8 0000     ldr.w  r0, [r8]
		      100e:   f7ff ffe2     bl fd6 <__retarget_lock_release_recursive>
		      1012:   f04f 30ff     mov.w  r0, #4294967295  ; 0xffffffff
		->    1016:   e8bd 83f8     ldmia.w    sp!, {r3, r4, r5, r6, r7, r8, r9, pc}
		      101a:   b32e          cbz    r6, 1068 <__register_exitproc+0x90>
		      101c:   f8d4 0088     ldr.w  r0, [r4, #136]   ; 0x88
		      1020:   b968          cbnz   r0, 103e <__register_exitproc+0x66>
		      1022:   4b1a          ldr    r3, [pc, #104] ; (108c <__register_exitproc+0xb4>)
		--------------------
	(    1078,     1068)	
		--------------------
		      106e:   1c5a          adds   r2, r3, #1
		      1070:   3302          adds   r3, #2
		      1072:   6062          str    r2, [r4, #4]
		      1074:   f844 5023     str.w  r5, [r4, r3, lsl #2]
		->    1078:   f7ff ffad     bl fd6 <__retarget_lock_release_recursive>
		      107c:   2000          movs   r0, #0
		      107e:   e7ca          b.n    1016 <__register_exitproc+0x3e>
		      1080:   20000130  .word   0x20000130
		      1084:   200000a4  .word   0x200000a4
		--------------------
	(    10d4,     10d2)	
		--------------------
		      10c8:   3501          adds   r5, #1
		      10ca:   eb04 0585     add.w  r5, r4, r5, lsl #2
		      10ce:   f107 0b80     add.w  fp, r7, #128 ; 0x80
		      10d2:   2e00          cmp    r6, #0
		->    10d4:   dbed          blt.n  10b2 <__call_exitprocs+0x1e>
		      10d6:   9b00          ldr    r3, [sp, #0]
		      10d8:   b143          cbz    r3, 10ec <__call_exitprocs+0x58>
		      10da:   b917          cbnz   r7, 10e2 <__call_exitprocs+0x4e>
		      10dc:   3e01          subs   r6, #1
		--------------------

i2s-o0: 20 | 160
	(     5c4,      5be)	
		--------------------
		       5bc:   bf00          nop
		       5be:   4b0a          ldr    r3, [pc, #40]  ; (5e8 <serial_tx+0x60>)
		       5c0:   781b          ldrb   r3, [r3, #0]
		       5c2:   2b00          cmp    r3, #0
		->     5c4:   d007          beq.n  5d6 <serial_tx+0x4e>
		       5c6:   4b06          ldr    r3, [pc, #24]  ; (5e0 <serial_tx+0x58>)
		       5c8:   781b          ldrb   r3, [r3, #0]
		       5ca:   b2db          uxtb   r3, r3
		       5cc:   f083 0301     eor.w  r3, r3, #1
		--------------------
	(     7ea,      7e4)	
		--------------------
		       7e2:   2300          movs   r3, #0
		       7e4:   4618          mov    r0, r3
		       7e6:   3718          adds   r7, #24
		       7e8:   46bd          mov    sp, r7
		->     7ea:   bd80          pop    {r7, pc}
		       7ec:   20000068  .word   0x20000068
		  
		  000007f0 <nrf_log_module_name_get>:
		       7f0:   b580          push   {r7, lr}
		--------------------
	(    1208,     12aa)	
		--------------------
		      11fe:   f000 fcd4     bl 1baa <nrf_fprintf>
		      1202:   bf00          nop
		      1204:   370c          adds   r7, #12
		      1206:   46bd          mov    sp, r7
		->    1208:   bd90          pop    {r4, r7, pc}
		      120a:   bf00          nop
		      120c:   00005aa4  .word   0x00005aa4
		      1210:   00005ab4  .word   0x00005ab4
		      1214:   00005aec  .word   0x00005aec
		--------------------
	(    1486,     1482)	
		--------------------
		      147e:   3301          adds   r3, #1
		      1480:   617b          str    r3, [r7, #20]
		      1482:   697b          ldr    r3, [r7, #20]
		      1484:   2b07          cmp    r3, #7
		->    1486:   d9d7          bls.n  1438 <nrf_log_hexdump_entry_process+0x6c>
		      1488:   2201          movs   r2, #1
		      148a:   6839          ldr    r1, [r7, #0]
		      148c:   6878          ldr    r0, [r7, #4]
		      148e:   f7ff fecb     bl 1228 <postfix_process>
		--------------------
	(    16fc,     16f8)	
		--------------------
		      16f4:   3301          adds   r3, #1
		      16f6:   607b          str    r3, [r7, #4]
		      16f8:   687b          ldr    r3, [r7, #4]
		      16fa:   2b03          cmp    r3, #3
		->    16fc:   d9f6          bls.n  16ec <bsp_board_leds_on+0xc>
		      16fe:   bf00          nop
		      1700:   bf00          nop
		      1702:   3708          adds   r7, #8
		      1704:   46bd          mov    sp, r7
		--------------------
	(    1abe,     1ab6)	
		--------------------
		      1ab6:   7bfb          ldrb   r3, [r7, #15]
		      1ab8:   1e5a          subs   r2, r3, #1
		      1aba:   73fa          strb   r2, [r7, #15]
		      1abc:   2b00          cmp    r3, #0
		->    1abe:   d1f3          bne.n  1aa8 <nrf_balloc_init+0x2a>
		      1ac0:   687b          ldr    r3, [r7, #4]
		      1ac2:   681b          ldr    r3, [r3, #0]
		      1ac4:   2200          movs   r2, #0
		      1ac6:   711a          strb   r2, [r3, #4]
		--------------------
	(    1fd0,     1fca)	
		--------------------
		      1fc6:   2300          movs   r3, #0
		      1fc8:   61fb          str    r3, [r7, #28]
		      1fca:   f897 302f     ldrb.w r3, [r7, #47]   ; 0x2f
		      1fce:   2b2a          cmp    r3, #42    ; 0x2a
		->    1fd0:   d10c          bne.n  1fec <nrf_fprintf_fmt+0xbc>
		      1fd2:   687b          ldr    r3, [r7, #4]
		      1fd4:   681b          ldr    r3, [r3, #0]
		      1fd6:   1d19          adds   r1, r3, #4
		      1fd8:   687a          ldr    r2, [r7, #4]
		--------------------
	(    2080,     207a)	
		--------------------
		      2074:   781b          ldrb   r3, [r3, #0]
		      2076:   f887 302f     strb.w r3, [r7, #47]   ; 0x2f
		      207a:   f897 302f     ldrb.w r3, [r7, #47]   ; 0x2f
		      207e:   2b6c          cmp    r3, #108   ; 0x6c
		->    2080:   d003          beq.n  208a <Heap_Size+0x8a>
		      2082:   f897 302f     ldrb.w r3, [r7, #47]   ; 0x2f
		      2086:   2b68          cmp    r3, #104   ; 0x68
		      2088:   d107          bne.n  209a <Heap_Size+0x9a>
		      208a:   68bb          ldr    r3, [r7, #8]
		--------------------
	(    2320,     231a)	
		--------------------
		      2318:   623b          str    r3, [r7, #32]
		      231a:   6a3a          ldr    r2, [r7, #32]
		      231c:   693b          ldr    r3, [r7, #16]
		      231e:   429a          cmp    r2, r3
		->    2320:   d3dd          bcc.n  22de <nrf_memobj_alloc+0x5e>
		      2322:   697b          ldr    r3, [r7, #20]
		      2324:   4618          mov    r0, r3
		      2326:   3728          adds   r7, #40   ; 0x28
		      2328:   46bd          mov    sp, r7
		--------------------
	(    232a,     2324)	
		--------------------
		      2322:   697b          ldr    r3, [r7, #20]
		      2324:   4618          mov    r0, r3
		      2326:   3728          adds   r7, #40   ; 0x28
		      2328:   46bd          mov    sp, r7
		->    232a:   bd80          pop    {r7, pc}
		  
		  0000232c <nrf_memobj_free>:
		      232c:   b580          push   {r7, lr}
		      232e:   b08a          sub    sp, #40    ; 0x28
		--------------------
	(    2360,     235a)	
		--------------------
		      2358:   627b          str    r3, [r7, #36]  ; 0x24
		      235a:   6a7a          ldr    r2, [r7, #36]  ; 0x24
		      235c:   697b          ldr    r3, [r7, #20]
		      235e:   429a          cmp    r2, r3
		->    2360:   d3f5          bcc.n  234e <nrf_memobj_free+0x22>
		      2362:   6a3b          ldr    r3, [r7, #32]
		      2364:   681b          ldr    r3, [r3, #0]
		      2366:   613b          str    r3, [r7, #16]
		      2368:   687b          ldr    r3, [r7, #4]
		--------------------
	(    2476,     2472)	
		--------------------
		      246e:   3b01          subs   r3, #1
		      2470:   63bb          str    r3, [r7, #56]  ; 0x38
		      2472:   6bbb          ldr    r3, [r7, #56]  ; 0x38
		      2474:   2b00          cmp    r3, #0
		->    2476:   d1f6          bne.n  2466 <memobj_op+0x72>
		      2478:   2300          movs   r3, #0
		      247a:   62fb          str    r3, [r7, #44]  ; 0x2c
		      247c:   69fa          ldr    r2, [r7, #28]
		      247e:   6b7b          ldr    r3, [r7, #52]  ; 0x34
		--------------------
	(    26e8,     26e0)	
		--------------------
		      26e0:   6b7b          ldr    r3, [r7, #52]  ; 0x34
		      26e2:   4618          mov    r0, r3
		      26e4:   3738          adds   r7, #56   ; 0x38
		      26e6:   46bd          mov    sp, r7
		->    26e8:   bdb0          pop    {r4, r5, r7, pc}
		      26ea:   bf00          nop
		      26ec:   20000674  .word   0x20000674
		      26f0:   20000678  .word   0x20000678
		      26f4:   2000067c  .word   0x2000067c
		--------------------
	(    2734,     272a)	
		--------------------
		      272a:   bf00          nop
		      272c:   370c          adds   r7, #12
		      272e:   46bd          mov    sp, r7
		      2730:   f85d 7b04     ldr.w  r7, [sp], #4
		->    2734:   4770          bx lr
		      2736:   bf00          nop
		      2738:   e000e100  .word   0xe000e100
		  
		  0000273c <__NVIC_SetPriority>:
		--------------------
	(    3158,     3152)	
		--------------------
		      3150:   693b          ldr    r3, [r7, #16]
		      3152:   4618          mov    r0, r3
		      3154:   3718          adds   r7, #24
		      3156:   46bd          mov    sp, r7
		->    3158:   bd80          pop    {r7, pc}
		  
		  0000315a <nrfx_prs_release>:
		      315a:   b580          push   {r7, lr}
		      315c:   b084          sub    sp, #16
		--------------------
	(    31b8,     31ae)	
		--------------------
		      31ae:   bf00          nop
		      31b0:   370c          adds   r7, #12
		      31b2:   46bd          mov    sp, r7
		      31b4:   f85d 7b04     ldr.w  r7, [sp], #4
		->    31b8:   4770          bx lr
		      31ba:   bf00          nop
		      31bc:   e000e100  .word   0xe000e100
		  
		  000031c0 <__NVIC_DisableIRQ>:
		--------------------
	(    4fd4,     4fca)	
		--------------------
		      4fca:   4618          mov    r0, r3
		      4fcc:   370c          adds   r7, #12
		      4fce:   46bd          mov    sp, r7
		      4fd0:   f85d 7b04     ldr.w  r7, [sp], #4
		->    4fd4:   4770          bx lr
		      4fd6:   bf00          nop
		      4fd8:   10000130  .word   0x10000130
		      4fdc:   f0000fe0  .word   0xf0000fe0
		      4fe0:   f0000fe8  .word   0xf0000fe8
		--------------------
	(    5696,     5696)	
		--------------------
		      568c:   681b          ldr    r3, [r3, #0]
		      568e:   4a44          ldr    r2, [pc, #272] ; (57a0 <SystemInit+0x2cc>)
		      5690:   f003 034f     and.w  r3, r3, #79  ; 0x4f
		      5694:   6013          str    r3, [r2, #0]
		->    5696:   f7ff fe97     bl 53c8 <nrf52_errata_136>
		      569a:   4603          mov    r3, r0
		      569c:   2b00          cmp    r3, #0
		      569e:   d00d          beq.n  56bc <SystemInit+0x1e8>
		      56a0:   f04f 4380     mov.w  r3, #1073741824  ; 0x40000000
		--------------------
	(    56bc,     56bc)	
		--------------------
		      56ae:   d005          beq.n  56bc <SystemInit+0x1e8>
		      56b0:   f04f 4380     mov.w  r3, #1073741824  ; 0x40000000
		      56b4:   f06f 0201     mvn.w  r2, #1
		      56b8:   f8c3 2400     str.w  r2, [r3, #1024]  ; 0x400
		->    56bc:   f7ff feca     bl 5454 <nrf52_errata_182>
		      56c0:   4603          mov    r3, r0
		      56c2:   2b00          cmp    r3, #0
		      56c4:   d005          beq.n  56d2 <SystemInit+0x1fe>
		      56c6:   4b37          ldr    r3, [pc, #220] ; (57a4 <SystemInit+0x2d0>)
		--------------------
	(    5810,     580e)	
		--------------------
		      5808:   1b64          subs   r4, r4, r5
		      580a:   10a4          asrs   r4, r4, #2
		      580c:   2600          movs   r6, #0
		      580e:   42a6          cmp    r6, r4
		->    5810:   d105          bne.n  581e <__libc_init_array+0x2e>
		      5812:   bd70          pop    {r4, r5, r6, pc}
		      5814:   f855 3b04     ldr.w  r3, [r5], #4
		      5818:   4798          blx    r3
		      581a:   3601          adds   r6, #1
		--------------------

i2s-o1: 20 | 103
	(     3ac,      39c)	
		--------------------
		       3a4:   463b          mov    r3, r7
		       3a6:   4622          mov    r2, r4
		       3a8:   a902          add    r1, sp, #8
		       3aa:   4630          mov    r0, r6
		->     3ac:   f001 f97e     bl 16ac <nrf_memobj_read>
		       3b0:   4427          add    r7, r4
		       3b2:   1b2d          subs   r5, r5, r4
		       3b4:   ab0e          add    r3, sp, #56    ; 0x38
		       3b6:   aa0b          add    r2, sp, #44    ; 0x2c
		--------------------
	(     572,      56a)	
		--------------------
		       566:   eb04 0080     add.w  r0, r4, r0, lsl #2
		       56a:   a903          add    r1, sp, #12
		       56c:   f7ff ffc6     bl 4fc <invalid_packets_omit>
		       570:   2800          cmp    r0, #0
		->     572:   d1f5          bne.n  560 <log_skip+0x24>
		       574:   9b03          ldr    r3, [sp, #12]
		       576:   4919          ldr    r1, [pc, #100] ; (5dc <log_skip+0xa0>)
		       578:   b2da          uxtb   r2, r3
		       57a:   eb01 0282     add.w  r2, r1, r2, lsl #2
		--------------------
	(     7d8,      7cc)	
		--------------------
		       7cc:   4b3a          ldr    r3, [pc, #232] ; (8b8 <nrf_log_frontend_dequeue+0x228>)
		       7ce:   f8d3 4410     ldr.w  r4, [r3, #1040]  ; 0x410
		       7d2:   f8d3 3418     ldr.w  r3, [r3, #1048]  ; 0x418
		       7d6:   2b00          cmp    r3, #0
		->     7d8:   d15a          bne.n  890 <nrf_log_frontend_dequeue+0x200>
		       7da:   2c00          cmp    r4, #0
		       7dc:   d160          bne.n  8a0 <nrf_log_frontend_dequeue+0x210>
		       7de:   4628          mov    r0, r5
		       7e0:   f000 ff4b     bl 167a <nrf_memobj_put>
		--------------------
	(     83e,      6ea)	
		--------------------
		       834:   4824          ldr    r0, [pc, #144] ; (8c8 <nrf_log_frontend_dequeue+0x238>)
		       836:   f000 fee7     bl 1608 <nrf_memobj_alloc>
		       83a:   4605          mov    r5, r0
		       83c:   2800          cmp    r0, #0
		->     83e:   f43f af54     beq.w  6ea <nrf_log_frontend_dequeue+0x5a>
		       842:   f000 ff14     bl 166e <nrf_memobj_get>
		       846:   2300          movs   r3, #0
		       848:   2208          movs   r2, #8
		       84a:   4669          mov    r1, sp
		--------------------
	(     87a,      866)	
		--------------------
		       870:   4623          mov    r3, r4
		       872:   463a          mov    r2, r7
		       874:   eb08 0181     add.w  r1, r8, r1, lsl #2
		       878:   4628          mov    r0, r5
		->     87a:   f000 ff0c     bl 1696 <nrf_memobj_write>
		       87e:   3404          adds   r4, #4
		       880:   3601          adds   r6, #1
		       882:   f8bd 3000     ldrh.w r3, [sp]
		       886:   f3c3 1383     ubfx   r3, r3, #6, #4
		--------------------
	(     f44,      f44)	
		--------------------
		       f3c:   619a          str    r2, [r3, #24]
		       f3e:   68da          ldr    r2, [r3, #12]
		       f40:   6852          ldr    r2, [r2, #4]
		       f42:   61da          str    r2, [r3, #28]
		->     f44:   b672          cpsid  i
		       f46:   f89d 3007     ldrb.w r3, [sp, #7]
		       f4a:   2b00          cmp    r3, #0
		       f4c:   d1fb          bne.n  f46 <app_error_save_and_stop+0x36>
		       f4e:   b662          cpsie  i
		--------------------
	(     ffc,      ffc)	
		--------------------
		       ff8:   4770          bx lr
		  
		  00000ffa <nrf_atomic_u32_sub>:
		       ffa:   4603          mov    r3, r0
		->     ffc:   e853 2f00     ldrex  r2, [r3]
		      1000:   eba2 0001     sub.w  r0, r2, r1
		      1004:   e843 0c00     strex  ip, r0, [r3]
		      1008:   f09c 0f00     teq    ip, #0
		      100c:   d1f6          bne.n  ffc <nrf_atomic_u32_sub+0x2>
		--------------------
	(    1216,     1212)	
		--------------------
		      120c:   f046 0601     orr.w  r6, r6, #1
		      1210:   3401          adds   r4, #1
		      1212:   7823          ldrb   r3, [r4, #0]
		      1214:   2b2d          cmp    r3, #45    ; 0x2d
		->    1216:   d0f9          beq.n  120c <nrf_fprintf_fmt+0x1c>
		      1218:   2b30          cmp    r3, #48    ; 0x30
		      121a:   d006          beq.n  122a <nrf_fprintf_fmt+0x3a>
		      121c:   2b2b          cmp    r3, #43    ; 0x2b
		      121e:   d008          beq.n  1232 <nrf_fprintf_fmt+0x42>
		--------------------
	(    1254,     1252)	
		--------------------
		      124a:   2b2e          cmp    r3, #46    ; 0x2e
		      124c:   d012          beq.n  1274 <nrf_fprintf_fmt+0x84>
		      124e:   f04f 0800     mov.w  r8, #0
		      1252:   7823          ldrb   r3, [r4, #0]
		->    1254:   e02c          b.n    12b0 <nrf_fprintf_fmt+0xc0>
		      1256:   eb05 0585     add.w  r5, r5, r5, lsl #2
		      125a:   eb03 0345     add.w  r3, r3, r5, lsl #1
		      125e:   f1a3 0530     sub.w  r5, r3, #48  ; 0x30
		      1262:   460c          mov    r4, r1
		--------------------
	(    132c,     1328)	
		--------------------
		      1322:   f7ff feec     bl 10fe <buffer_add>
		      1326:   3401          adds   r4, #1
		      1328:   7823          ldrb   r3, [r4, #0]
		      132a:   2b00          cmp    r3, #0
		->    132c:   f000 80fd     beq.w  152a <nrf_fprintf_fmt+0x33a>
		      1330:   f814 1b01     ldrb.w r1, [r4], #1
		      1334:   2900          cmp    r1, #0
		      1336:   f000 80f8     beq.w  152a <nrf_fprintf_fmt+0x33a>
		      133a:   2925          cmp    r1, #37    ; 0x25
		--------------------
	(    13b4,     13ae)	
		--------------------
		      13ac:   461c          mov    r4, r3
		      13ae:   3d01          subs   r5, #1
		      13b0:   2120          movs   r1, #32
		      13b2:   4638          mov    r0, r7
		->    13b4:   f7ff fea3     bl 10fe <buffer_add>
		      13b8:   42ac          cmp    r4, r5
		      13ba:   d1f8          bne.n  13ae <nrf_fprintf_fmt+0x1be>
		      13bc:   9c03          ldr    r4, [sp, #12]
		      13be:   9d02          ldr    r5, [sp, #8]
		--------------------
	(    13c4,     13c0)	
		--------------------
		      13ba:   d1f8          bne.n  13ae <nrf_fprintf_fmt+0x1be>
		      13bc:   9c03          ldr    r4, [sp, #12]
		      13be:   9d02          ldr    r5, [sp, #8]
		      13c0:   f1ba 0f00     cmp.w  sl, #0
		->    13c4:   db11          blt.n  13ea <nrf_fprintf_fmt+0x1fa>
		      13c6:   f016 0f04     tst.w  r6, #4
		      13ca:   d115          bne.n  13f8 <nrf_fprintf_fmt+0x208>
		      13cc:   f006 0303     and.w  r3, r6, #3
		      13d0:   2b02          cmp    r3, #2
		--------------------
	(    141c,     1416)	
		--------------------
		      1414:   461c          mov    r4, r3
		      1416:   3d01          subs   r5, #1
		      1418:   2130          movs   r1, #48   ; 0x30
		      141a:   4638          mov    r0, r7
		->    141c:   f7ff fe6f     bl 10fe <buffer_add>
		      1420:   42ac          cmp    r4, r5
		      1422:   d1f8          bne.n  1416 <nrf_fprintf_fmt+0x226>
		      1424:   9c03          ldr    r4, [sp, #12]
		      1426:   9d02          ldr    r5, [sp, #8]
		--------------------
	(    15f2,     15ec)	
		--------------------
		      15ea:   2500          movs   r5, #0
		      15ec:   4621          mov    r1, r4
		      15ee:   6824          ldr    r4, [r4, #0]
		      15f0:   4638          mov    r0, r7
		->    15f2:   f7ff fd55     bl 10a0 <nrf_balloc_free>
		      15f6:   3501          adds   r5, #1
		      15f8:   42ae          cmp    r6, r5
		      15fa:   d8f7          bhi.n  15ec <nrf_memobj_free+0x1c>
		      15fc:   bdf8          pop    {r3, r4, r5, r6, r7, pc}
		--------------------
	(    1810,     180e)	
		--------------------
		      1806:   bb05          cbnz   r5, 184a <nrfx_i2s_init+0x86>
		      1808:   2200          movs   r2, #0
		      180a:   f8c3 2510     str.w  r2, [r3, #1296]  ; 0x510
		      180e:   7983          ldrb   r3, [r0, #6]
		->    1810:   b313          cbz    r3, 1858 <nrfx_i2s_init+0x94>
		      1812:   7803          ldrb   r3, [r0, #0]
		      1814:   f04f 42a0     mov.w  r2, #1342177280  ; 0x50000000
		      1818:   f503 73e0     add.w  r3, r3, #448 ; 0x1c0
		      181c:   2400          movs   r4, #0
		--------------------
	(    2138,     212c)	
		--------------------
		      212e:   222c          movs   r2, #44   ; 0x2c
		      2130:   fb02 3307     mla    r3, r2, r7, r3
		      2134:   2200          movs   r2, #0
		      2136:   615a          str    r2, [r3, #20]
		->    2138:   e7e5          b.n    2106 <nrfx_uart_tx+0x4e>
		      213a:   4629          mov    r1, r5
		      213c:   4640          mov    r0, r8
		      213e:   f7ff fd77     bl 1c30 <tx_byte>
		      2142:   6a33          ldr    r3, [r6, #32]
		--------------------
	(    2438,     2436)	
		--------------------
		      242e:   461a          mov    r2, r3
		      2430:   2301          movs   r3, #1
		      2432:   f882 3020     strb.w r3, [r2, #32]
		      2436:   b007          add    sp, #28
		->    2438:   bdf0          pop    {r4, r5, r6, r7, pc}
		      243a:   68ab          ldr    r3, [r5, #8]
		      243c:   f1b3 3fff     cmp.w  r3, #4294967295  ; 0xffffffff
		      2440:   d006          beq.n  2450 <nrfx_uarte_init+0x16c>
		      2442:   f503 73e0     add.w  r3, r3, #448 ; 0x1c0
		--------------------
	(    2456,     2450)	
		--------------------
		      244a:   2100          movs   r1, #0
		      244c:   f842 1023     str.w  r1, [r2, r3, lsl #2]
		      2450:   68eb          ldr    r3, [r5, #12]
		      2452:   f1b3 3fff     cmp.w  r3, #4294967295  ; 0xffffffff
		->    2456:   d00c          beq.n  2472 <nrfx_uarte_init+0x18e>
		      2458:   2201          movs   r2, #1
		      245a:   fa02 f303     lsl.w  r3, r2, r3
		      245e:   f04f 42a0     mov.w  r2, #1342177280  ; 0x50000000
		      2462:   f8c2 3508     str.w  r3, [r2, #1288]  ; 0x508
		--------------------
	(    2d80,     2d7e)	
		--------------------
		      2d78:   1b64          subs   r4, r4, r5
		      2d7a:   10a4          asrs   r4, r4, #2
		      2d7c:   2600          movs   r6, #0
		      2d7e:   42a6          cmp    r6, r4
		->    2d80:   d105          bne.n  2d8e <__libc_init_array+0x2e>
		      2d82:   bd70          pop    {r4, r5, r6, pc}
		      2d84:   f855 3b04     ldr.w  r3, [r5], #4
		      2d88:   4798          blx    r3
		      2d8a:   3601          adds   r6, #1
		--------------------
	(    2ea0,     2e90)	
		--------------------
		      2e96:   1c5a          adds   r2, r3, #1
		      2e98:   3302          adds   r3, #2
		      2e9a:   6062          str    r2, [r4, #4]
		      2e9c:   f844 5023     str.w  r5, [r4, r3, lsl #2]
		->    2ea0:   f7ff ff97     bl 2dd2 <__retarget_lock_release_recursive>
		      2ea4:   2000          movs   r0, #0
		      2ea6:   e7ca          b.n    2e3e <__register_exitproc+0x3e>
		      2ea8:   20002760  .word   0x20002760
		      2eac:   200026d4  .word   0x200026d4
		--------------------

i2s-o2: 20 | 69
	(     596,      592)	
		--------------------
		       58c:   b108          cbz    r0, 592 <buf_prealloc+0x76>
		       58e:   f8c4 a008     str.w  sl, [r4, #8]
		       592:   4659          mov    r1, fp
		       594:   4630          mov    r0, r6
		->     596:   f000 fcff     bl f98 <nrf_atomic_u32_add>
		       59a:   e9d4 2301     ldrd   r2, r3, [r4, #4]
		       59e:   f503 7380     add.w  r3, r3, #256 ; 0x100
		       5a2:   1a9b          subs   r3, r3, r2
		       5a4:   429f          cmp    r7, r3
		--------------------
	(     5cc,      5c0)	
		--------------------
		       5c0:   1cd1          adds   r1, r2, #3
		       5c2:   eb04 0081     add.w  r0, r4, r1, lsl #2
		       5c6:   f814 1021     ldrb.w r1, [r4, r1, lsl #2]
		       5ca:   0749          lsls   r1, r1, #29
		->     5cc:   d5c1          bpl.n  552 <buf_prealloc+0x36>
		       5ce:   7801          ldrb   r1, [r0, #0]
		       5d0:   f001 0103     and.w  r1, r1, #3
		       5d4:   2901          cmp    r1, #1
		       5d6:   d00a          beq.n  5ee <buf_prealloc+0xd2>
		--------------------
	(     62e,      620)	
		--------------------
		       624:   4417          add    r7, r2
		       626:   2000          movs   r0, #0
		       628:   f844 1023     str.w  r1, [r4, r3, lsl #2]
		       62c:   6067          str    r7, [r4, #4]
		->     62e:   f000 fc9f     bl f70 <app_util_critical_region_exit>
		       632:   2001          movs   r0, #1
		       634:   b007          add    sp, #28
		       636:   e8bd 8ff0     ldmia.w    sp!, {r4, r5, r6, r7, r8, r9, sl, fp, pc}
		       63a:   ea4f 5989     mov.w  r9, r9, lsl #22
		--------------------
	(     7d2,      b00)	
		--------------------
		       7ca:   1ac0          subs   r0, r0, r3
		       7cc:   bf18          it ne
		       7ce:   2001          movne  r0, #1
		       7d0:   b005          add    sp, #20
		->     7d2:   e8bd 83f0     ldmia.w    sp!, {r4, r5, r6, r7, r8, r9, pc}
		       7d6:   f7ff ff85     bl 6e4 <nrf_log_frontend_dequeue>
		       7da:   2800          cmp    r0, #0
		       7dc:   d0f3          beq.n  7c6 <nrf_log_frontend_dequeue+0xe2>
		       7de:   f7ff ff81     bl 6e4 <nrf_log_frontend_dequeue>
		--------------------
	(     900,      8f2)	
		--------------------
		       8f6:   4643          mov    r3, r8
		       8f8:   2204          movs   r2, #4
		       8fa:   eb04 0181     add.w  r1, r4, r1, lsl #2
		       8fe:   4638          mov    r0, r7
		->     900:   f000 ffc8     bl 1894 <nrf_memobj_write>
		       904:   f8bd 3004     ldrh.w r3, [sp, #4]
		       908:   3601          adds   r6, #1
		       90a:   f3c3 1383     ubfx   r3, r3, #6, #4
		       90e:   eb09 0206     add.w  r2, r9, r6
		--------------------
	(     ea0,      e9c)	
		--------------------
		       e90:   f8c3 2738     str.w  r2, [r3, #1848]  ; 0x738
		       e94:   f8c3 273c     str.w  r2, [r3, #1852]  ; 0x73c
		       e98:   f8c3 2740     str.w  r2, [r3, #1856]  ; 0x740
		       e9c:   f85d 4b04     ldr.w  r4, [sp], #4
		->     ea0:   4770          bx lr
		       ea2:   f04f 43a0     mov.w  r3, #1342177280  ; 0x50000000
		       ea6:   2203          movs   r2, #3
		       ea8:   f44f 3100     mov.w  r1, #131072  ; 0x20000
		       eac:   f8c3 2744     str.w  r2, [r3, #1860]  ; 0x744
		--------------------
	(    17fe,     17fc)	
		--------------------
		      17f6:   1e79          subs   r1, r7, #1
		      17f8:   d017          beq.n  182a <nrf_memobj_alloc+0x8a>
		      17fa:   4622          mov    r2, r4
		      17fc:   3301          adds   r3, #1
		->    17fe:   4299          cmp    r1, r3
		      1800:   6812          ldr    r2, [r2, #0]
		      1802:   d1fb          bne.n  17fc <nrf_memobj_alloc+0x5c>
		      1804:   f8d2 8000     ldr.w  r8, [r2]
		      1808:   b15f          cbz    r7, 1822 <nrf_memobj_alloc+0x82>
		--------------------
	(    187c,     1876)	
		--------------------
		      1874:   6836          ldr    r6, [r6, #0]
		      1876:   4621          mov    r1, r4
		      1878:   4640          mov    r0, r8
		      187a:   3501          adds   r5, #1
		->    187c:   f7ff fc00     bl 1080 <nrf_balloc_free>
		      1880:   42af          cmp    r7, r5
		      1882:   d8f6          bhi.n  1872 <nrf_memobj_put+0x36>
		      1884:   e8bd 81f0     ldmia.w    sp!, {r4, r5, r6, r7, r8, pc}
		      1888:   6820          ldr    r0, [r4, #0]
		--------------------
	(    1d0c,     1d06)	
		--------------------
		      1d00:   f043 0220     orreq.w    r2, r3, #32
		      1d04:   7162          strbeq r2, [r4, #5]
		      1d06:   4b2a          ldr    r3, [pc, #168] ; (1db0 <I2S_IRQHandler+0x10c>)
		      1d08:   f8d3 2108     ldr.w  r2, [r3, #264]   ; 0x108
		->    1d0c:   b1ba          cbz    r2, 1d3e <I2S_IRQHandler+0x9a>
		      1d0e:   2500          movs   r5, #0
		      1d10:   f8c3 5108     str.w  r5, [r3, #264]   ; 0x108
		      1d14:   f8d3 2108     ldr.w  r2, [r3, #264]   ; 0x108
		      1d18:   9202          str    r2, [sp, #8]
		--------------------
	(    1d3c,     1d3a)	
		--------------------
		      1d34:   4798          blx    r3
		      1d36:   2301          movs   r3, #1
		      1d38:   7123          strb   r3, [r4, #4]
		      1d3a:   b004          add    sp, #16
		->    1d3c:   bd70          pop    {r4, r5, r6, pc}
		      1d3e:   7963          ldrb   r3, [r4, #5]
		      1d40:   f003 020f     and.w  r2, r3, #15
		      1d44:   2a0f          cmp    r2, #15
		      1d46:   d003          beq.n  1d50 <I2S_IRQHandler+0xac>
		--------------------
	(    2168,     215c)	
		--------------------
		      215c:   682a          ldr    r2, [r5, #0]
		      215e:   68a1          ldr    r1, [r4, #8]
		      2160:   f8c2 3508     str.w  r3, [r2, #1288]  ; 0x508
		      2164:   f8c2 1510     str.w  r1, [r2, #1296]  ; 0x510
		->    2168:   e781          b.n    206e <Heap_Size+0x6e>
		      216a:   bf00          nop
		      216c:   20000668  .word   0x20000668
		      2170:   00001e21  .word   0x00001e21
		      2174:   00020080  .word   0x00020080
		--------------------
	(    2b9e,     2b94)	
		--------------------
		      2b90:   f8c2 3540     str.w  r3, [r2, #1344]  ; 0x540
		      2b94:   f04f 4370     mov.w  r3, #4026531840  ; 0xf0000000
		      2b98:   f893 2fe0     ldrb.w r2, [r3, #4064] ; 0xfe0
		      2b9c:   2a06          cmp    r2, #6
		->    2b9e:   f000 8135     beq.w  2e0c <SystemInit+0x2a4>
		      2ba2:   f04f 5380     mov.w  r3, #268435456   ; 0x10000000
		      2ba6:   f8d3 3130     ldr.w  r3, [r3, #304]   ; 0x130
		      2baa:   1c59          adds   r1, r3, #1
		      2bac:   bf04          itt    eq
		--------------------
	(    2bd8,     2bce)	
		--------------------
		      2bca:   f8c2 353c     str.w  r3, [r2, #1340]  ; 0x53c
		      2bce:   f04f 4370     mov.w  r3, #4026531840  ; 0xf0000000
		      2bd2:   f893 2fe0     ldrb.w r2, [r3, #4064] ; 0xfe0
		      2bd6:   2a06          cmp    r2, #6
		->    2bd8:   f000 8103     beq.w  2de2 <SystemInit+0x27a>
		      2bdc:   f04f 5380     mov.w  r3, #268435456   ; 0x10000000
		      2be0:   f8d3 3130     ldr.w  r3, [r3, #304]   ; 0x130
		      2be4:   1c5a          adds   r2, r3, #1
		      2be6:   bf04          itt    eq
		--------------------
	(    2c36,     2c34)	
		--------------------
		      2c2a:   d034          beq.n  2c96 <SystemInit+0x12e>
		      2c2c:   f04f 5380     mov.w  r3, #268435456   ; 0x10000000
		      2c30:   f8d3 3130     ldr.w  r3, [r3, #304]   ; 0x130
		      2c34:   2b06          cmp    r3, #6
		->    2c36:   f000 8097     beq.w  2d68 <SystemInit+0x200>
		      2c3a:   f04f 5380     mov.w  r3, #268435456   ; 0x10000000
		      2c3e:   e9d3 234c     ldrd   r2, r3, [r3, #304]    ; 0x130
		      2c42:   2a06          cmp    r2, #6
		      2c44:   f000 80a2     beq.w  2d8c <SystemInit+0x224>
		--------------------
	(    2d32,     2d30)	
		--------------------
		      2d24:   f8d3 1444     ldr.w  r1, [r3, #1092]  ; 0x444
		      2d28:   f8d3 3130     ldr.w  r3, [r3, #304]   ; 0x130
		      2d2c:   f8c2 1570     str.w  r1, [r2, #1392]  ; 0x570
		      2d30:   1c58          adds   r0, r3, #1
		->    2d32:   f000 808f     beq.w  2e54 <SystemInit+0x2ec>
		      2d36:   2b06          cmp    r3, #6
		      2d38:   f47f af78     bne.w  2c2c <SystemInit+0xc4>
		      2d3c:   f04f 5380     mov.w  r3, #268435456   ; 0x10000000
		      2d40:   f04f 4180     mov.w  r1, #1073741824  ; 0x40000000
		--------------------
	(    2f3a,     2f38)	
		--------------------
		  00002f34 <memset>:
		      2f34:   4402          add    r2, r0
		      2f36:   4603          mov    r3, r0
		      2f38:   4293          cmp    r3, r2
		->    2f3a:   d100          bne.n  2f3e <memset+0xa>
		      2f3c:   4770          bx lr
		      2f3e:   f803 1b01     strb.w r1, [r3], #1
		      2f42:   e7f9          b.n    2f38 <memset+0x4>
		  
		--------------------
	(    2f52,     2f50)	
		--------------------
		      2f4a:   1b64          subs   r4, r4, r5
		      2f4c:   10a4          asrs   r4, r4, #2
		      2f4e:   2600          movs   r6, #0
		      2f50:   42a6          cmp    r6, r4
		->    2f52:   d109          bne.n  2f68 <__libc_init_array+0x24>
		      2f54:   4d0b          ldr    r5, [pc, #44]  ; (2f84 <__libc_init_array+0x40>)
		      2f56:   4c0c          ldr    r4, [pc, #48]  ; (2f88 <__libc_init_array+0x44>)
		      2f58:   f000 f900     bl 315c <_init>
		      2f5c:   1b64          subs   r4, r4, r5
		--------------------
	(    2f64,     2f62)	
		--------------------
		      2f5c:   1b64          subs   r4, r4, r5
		      2f5e:   10a4          asrs   r4, r4, #2
		      2f60:   2600          movs   r6, #0
		      2f62:   42a6          cmp    r6, r4
		->    2f64:   d105          bne.n  2f72 <__libc_init_array+0x2e>
		      2f66:   bd70          pop    {r4, r5, r6, pc}
		      2f68:   f855 3b04     ldr.w  r3, [r5], #4
		      2f6c:   4798          blx    r3
		      2f6e:   3601          adds   r6, #1
		--------------------
	(    2f96,     2f96)	
		--------------------
		      2f8e:   4d07          ldr    r5, [pc, #28]  ; (2fac <__libc_fini_array+0x20>)
		      2f90:   4c07          ldr    r4, [pc, #28]  ; (2fb0 <__libc_fini_array+0x24>)
		      2f92:   1b64          subs   r4, r4, r5
		      2f94:   10a4          asrs   r4, r4, #2
		->    2f96:   b91c          cbnz   r4, 2fa0 <__libc_fini_array+0x14>
		      2f98:   e8bd 4038     ldmia.w    sp!, {r3, r4, r5, lr}
		      2f9c:   f000 b8e4     b.w    3168 <_fini>
		      2fa0:   3c01          subs   r4, #1
		      2fa2:   f855 3024     ldr.w  r3, [r5, r4, lsl #2]
		--------------------
	(    3014,     3010)	
		--------------------
		      300a:   681b          ldr    r3, [r3, #0]
		      300c:   f8c4 3088     str.w  r3, [r4, #136]   ; 0x88
		      3010:   6863          ldr    r3, [r4, #4]
		      3012:   2b1f          cmp    r3, #31
		->    3014:   dd07          ble.n  3026 <__register_exitproc+0x42>
		      3016:   f8d8 0000     ldr.w  r0, [r8]
		      301a:   f7ff ffcc     bl 2fb6 <__retarget_lock_release_recursive>
		      301e:   f04f 30ff     mov.w  r0, #4294967295  ; 0xffffffff
		      3022:   e8bd 83f8     ldmia.w    sp!, {r3, r4, r5, r6, r7, r8, r9, pc}
		--------------------

i2s-o3: 20 | 62
	(     6d4,      6c8)	
		--------------------
		       6c8:   b2ea          uxtb   r2, r5
		       6ca:   f8d4 0418     ldr.w  r0, [r4, #1048]  ; 0x418
		       6ce:   1cd3          adds   r3, r2, #3
		       6d0:   eb04 0183     add.w  r1, r4, r3, lsl #2
		->     6d4:   b928          cbnz   r0, 6e2 <nrf_log_frontend_dequeue+0x5e>
		       6d6:   42ae          cmp    r6, r5
		       6d8:   d939          bls.n  74e <nrf_log_frontend_dequeue+0xca>
		       6da:   f814 3023     ldrb.w r3, [r4, r3, lsl #2]
		       6de:   075b          lsls   r3, r3, #29
		--------------------
	(     75a,      962)	
		--------------------
		       750:   b005          add    sp, #20
		       752:   e8bd 83f0     ldmia.w    sp!, {r4, r5, r6, r7, r8, r9, pc}
		       756:   2000          movs   r0, #0
		       758:   b005          add    sp, #20
		->     75a:   e8bd 83f0     ldmia.w    sp!, {r4, r5, r6, r7, r8, r9, pc}
		       75e:   f8bd 3006     ldrh.w r3, [sp, #6]
		       762:   4858          ldr    r0, [pc, #352] ; (8c4 <nrf_log_frontend_dequeue+0x240>)
		       764:   f3c3 1889     ubfx   r8, r3, #6, #10
		       768:   4645          mov    r5, r8
		--------------------
	(     878,      86a)	
		--------------------
		       86e:   4643          mov    r3, r8
		       870:   2204          movs   r2, #4
		       872:   eb04 0181     add.w  r1, r4, r1, lsl #2
		       876:   4638          mov    r0, r7
		->     878:   f001 f82a     bl 18d0 <nrf_memobj_write>
		       87c:   f8bd 3004     ldrh.w r3, [sp, #4]
		       880:   3601          adds   r6, #1
		       882:   f3c3 1383     ubfx   r3, r3, #6, #4
		       886:   eb09 0206     add.w  r2, r9, r6
		--------------------
	(     f0e,      f0a)	
		--------------------
		       efe:   f8c3 2738     str.w  r2, [r3, #1848]  ; 0x738
		       f02:   f8c3 273c     str.w  r2, [r3, #1852]  ; 0x73c
		       f06:   f8c3 2740     str.w  r2, [r3, #1856]  ; 0x740
		       f0a:   f85d 4b04     ldr.w  r4, [sp], #4
		->     f0e:   4770          bx lr
		  
		  00000f10 <app_error_handler_bare>:
		       f10:   b500          push   {lr}
		       f12:   b085          sub    sp, #20
		--------------------
	(     fb0,      802)	
		--------------------
		       fa8:   3b01          subs   r3, #1
		       faa:   6013          str    r3, [r2, #0]
		       fac:   b903          cbnz   r3, fb0 <app_util_critical_region_exit+0xc>
		       fae:   b662          cpsie  i
		->     fb0:   4770          bx lr
		       fb2:   bf00          nop
		       fb4:   2000063c  .word   0x2000063c
		  
		  00000fb8 <nrf_atomic_u32_fetch_store>:
		--------------------
	(    1862,     1860)	
		--------------------
		      185a:   42af          cmp    r7, r5
		      185c:   d8f6          bhi.n  184c <nrf_memobj_alloc+0x70>
		      185e:   2400          movs   r4, #0
		      1860:   4620          mov    r0, r4
		->    1862:   e8bd 81f0     ldmia.w    sp!, {r4, r5, r6, r7, r8, pc}
		      1866:   6820          ldr    r0, [r4, #0]
		      1868:   4621          mov    r1, r4
		      186a:   f7ff fc23     bl 10b4 <nrf_balloc_free>
		      186e:   e7f6          b.n    185e <nrf_memobj_alloc+0x82>
		--------------------
	(    188c,      802)	
		--------------------
		      1880:   3004          adds   r0, #4
		      1882:   f7ff fbaf     bl fe4 <nrf_atomic_u32_sub>
		      1886:   f010 03ff     ands.w r3, r0, #255    ; 0xff
		      188a:   d001          beq.n  1890 <nrf_memobj_put+0x18>
		->    188c:   e8bd 81f0     ldmia.w    sp!, {r4, r5, r6, r7, r8, pc}
		      1890:   7967          ldrb   r7, [r4, #5]
		      1892:   1e79          subs   r1, r7, #1
		      1894:   d016          beq.n  18c4 <nrf_memobj_put+0x4c>
		      1896:   4622          mov    r2, r4
		--------------------
	(    18b8,     18b2)	
		--------------------
		      18b0:   6836          ldr    r6, [r6, #0]
		      18b2:   4621          mov    r1, r4
		      18b4:   4640          mov    r0, r8
		      18b6:   3501          adds   r5, #1
		->    18b8:   f7ff fbfc     bl 10b4 <nrf_balloc_free>
		      18bc:   42af          cmp    r7, r5
		      18be:   d8f6          bhi.n  18ae <nrf_memobj_put+0x36>
		      18c0:   e8bd 81f0     ldmia.w    sp!, {r4, r5, r6, r7, r8, pc}
		      18c4:   6820          ldr    r0, [r4, #0]
		--------------------
	(    191c,     1910)	
		--------------------
		      1912:   1bad          subs   r5, r5, r6
		      1914:   4632          mov    r2, r6
		      1916:   eb08 0109     add.w  r1, r8, r9
		      191a:   4420          add    r0, r4
		->    191c:   f001 fbde     bl 30dc <memcpy>
		      1920:   42af          cmp    r7, r5
		      1922:   44b1          add    r9, r6
		      1924:   6824          ldr    r4, [r4, #0]
		      1926:   463e          mov    r6, r7
		--------------------
	(    1e18,     1e16)	
		--------------------
		      1e10:   4798          blx    r3
		      1e12:   2301          movs   r3, #1
		      1e14:   7123          strb   r3, [r4, #4]
		      1e16:   b004          add    sp, #16
		->    1e18:   bd70          pop    {r4, r5, r6, pc}
		      1e1a:   7963          ldrb   r3, [r4, #5]
		      1e1c:   f003 020f     and.w  r2, r3, #15
		      1e20:   2a0f          cmp    r2, #15
		      1e22:   d003          beq.n  1e2c <I2S_IRQHandler+0xac>
		--------------------
	(    1e84,     1e86)	
		--------------------
		      1e7a:   e9c4 6602     strd   r6, r6, [r4, #8]
		      1e7e:   6823          ldr    r3, [r4, #0]
		      1e80:   2101          movs   r1, #1
		      1e82:   4628          mov    r0, r5
		->    1e84:   4798          blx    r3
		      1e86:   b004          add    sp, #16
		      1e88:   bd70          pop    {r4, r5, r6, pc}
		      1e8a:   bf00          nop
		      1e8c:   40025000  .word   0x40025000
		--------------------
	(    2122,     211e)	
		--------------------
		      2118:   2203          movs   r2, #3
		      211a:   f841 2023     str.w  r2, [r1, r3, lsl #2]
		      211e:   6863          ldr    r3, [r4, #4]
		      2120:   1c5a          adds   r2, r3, #1
		->    2122:   d006          beq.n  2132 <nrfx_uart_init+0x62>
		      2124:   f503 73e0     add.w  r3, r3, #448 ; 0x1c0
		      2128:   f04f 42a0     mov.w  r2, #1342177280  ; 0x50000000
		      212c:   2100          movs   r1, #0
		      212e:   f842 1023     str.w  r1, [r2, r3, lsl #2]
		--------------------
	(    21f0,     21d0)	
		--------------------
		      21e4:   f886 3029     strb.w r3, [r6, #41]   ; 0x29
		      21e8:   6173          str    r3, [r6, #20]
		      21ea:   f886 202a     strb.w r2, [r6, #42]   ; 0x2a
		      21ee:   b002          add    sp, #8
		->    21f0:   e8bd 81f0     ldmia.w    sp!, {r4, r5, r6, r7, r8, pc}
		      21f4:   2011          movs   r0, #17
		      21f6:   b002          add    sp, #8
		      21f8:   e8bd 81f0     ldmia.w    sp!, {r4, r5, r6, r7, r8, pc}
		      21fc:   2008          movs   r0, #8
		--------------------
	(    26bc,     26b0)	
		--------------------
		      26b0:   6822          ldr    r2, [r4, #0]
		      26b2:   f342 3307     sbfx   r3, r2, #12, #8
		      26b6:   2b00          cmp    r3, #0
		      26b8:   ea4f 3112     mov.w  r1, r2, lsr #12
		->    26bc:   db08          blt.n  26d0 <nrfx_uarte_init+0x138>
		      26be:   4d28          ldr    r5, [pc, #160] ; (2760 <nrfx_uarte_init+0x1c8>)
		      26c0:   095b          lsrs   r3, r3, #5
		      26c2:   f001 011f     and.w  r1, r1, #31
		      26c6:   2201          movs   r2, #1
		--------------------
	(    26ec,     26d0)	
		--------------------
		      26e0:   f8c2 1500     str.w  r1, [r2, #1280]  ; 0x500
		      26e4:   e9c6 3306     strd   r3, r3, [r6, #24]
		      26e8:   6173          str    r3, [r6, #20]
		      26ea:   b007          add    sp, #28
		->    26ec:   e8bd 83f0     ldmia.w    sp!, {r4, r5, r6, r7, r8, r9, pc}
		      26f0:   2011          movs   r0, #17
		      26f2:   b007          add    sp, #28
		      26f4:   e8bd 83f0     ldmia.w    sp!, {r4, r5, r6, r7, r8, r9, pc}
		      26f8:   2008          movs   r0, #8
		--------------------
	(    2d48,     2d3a)	
		--------------------
		      2d3a:   f04f 4370     mov.w  r3, #4026531840  ; 0xf0000000
		      2d3e:   f893 2fe0     ldrb.w r2, [r3, #4064] ; 0xfe0
		      2d42:   f8d3 3fe8     ldr.w  r3, [r3, #4072]  ; 0xfe8
		      2d46:   2a06          cmp    r2, #6
		->    2d48:   f000 80b8     beq.w  2ebc <SystemInit+0x220>
		      2d4c:   f04f 5280     mov.w  r2, #268435456   ; 0x10000000
		      2d50:   f8d2 3130     ldr.w  r3, [r2, #304]   ; 0x130
		      2d54:   1c59          adds   r1, r3, #1
		      2d56:   f000 809d     beq.w  2e94 <SystemInit+0x1f8>
		--------------------
	(    2e44,     2e36)	
		--------------------
		      2e38:   bf04          itt    eq
		      2e3a:   f04f 4370     moveq.w    r3, #4026531840    ; 0xf0000000
		      2e3e:   f893 3fe0     ldrbeq.w   r3, [r3, #4064]   ; 0xfe0
		      2e42:   2b06          cmp    r3, #6
		->    2e44:   d18b          bne.n  2d5e <SystemInit+0xc2>
		      2e46:   f04f 5280     mov.w  r2, #268435456   ; 0x10000000
		      2e4a:   f04f 4180     mov.w  r1, #1073741824  ; 0x40000000
		      2e4e:   f8d2 3258     ldr.w  r3, [r2, #600]   ; 0x258
		      2e52:   f8d2 0130     ldr.w  r0, [r2, #304]   ; 0x130
		--------------------
	(    305e,     3058)	
		--------------------
		  00003058 <memset>:
		      3058:   4402          add    r2, r0
		      305a:   4603          mov    r3, r0
		      305c:   4293          cmp    r3, r2
		->    305e:   d100          bne.n  3062 <memset+0xa>
		      3060:   4770          bx lr
		      3062:   f803 1b01     strb.w r1, [r3], #1
		      3066:   e7f9          b.n    305c <memset+0x4>
		  
		--------------------
	(    305e,     305c)	
		--------------------
		  00003058 <memset>:
		      3058:   4402          add    r2, r0
		      305a:   4603          mov    r3, r0
		      305c:   4293          cmp    r3, r2
		->    305e:   d100          bne.n  3062 <memset+0xa>
		      3060:   4770          bx lr
		      3062:   f803 1b01     strb.w r1, [r3], #1
		      3066:   e7f9          b.n    305c <memset+0x4>
		  
		--------------------
	(    3060,     3042)	
		--------------------
		      3058:   4402          add    r2, r0
		      305a:   4603          mov    r3, r0
		      305c:   4293          cmp    r3, r2
		      305e:   d100          bne.n  3062 <memset+0xa>
		->    3060:   4770          bx lr
		      3062:   f803 1b01     strb.w r1, [r3], #1
		      3066:   e7f9          b.n    305c <memset+0x4>
		  
		  00003068 <__libc_init_array>:
		--------------------

saadc-o0: 20 | 145
	(     346,      342)	
		--------------------
		       33e:   e000          b.n    342 <nrf_delay_ms+0x26>
		       340:   bf00          nop
		       342:   3708          adds   r7, #8
		       344:   46bd          mov    sp, r7
		->     346:   bd80          pop    {r7, pc}
		  
		  00000348 <nrf_log_backend_rtt_init>:
		       348:   b580          push   {r7, lr}
		       34a:   af00          add    r7, sp, #0
		--------------------
	(     a88,      a82)	
		--------------------
		       a80:   627b          str    r3, [r7, #36]  ; 0x24
		       a82:   6a3a          ldr    r2, [r7, #32]
		       a84:   6a7b          ldr    r3, [r7, #36]  ; 0x24
		       a86:   429a          cmp    r2, r3
		->     a88:   d8e6          bhi.n  a58 <buf_prealloc+0x3c>
		       a8a:   7ffb          ldrb   r3, [r7, #31]
		       a8c:   2b00          cmp    r3, #0
		       a8e:   d03b          beq.n  b08 <buf_prealloc+0xec>
		       a90:   2300          movs   r3, #0
		--------------------
	(     b0a,      ae0)	
		--------------------
		       b02:   4413          add    r3, r2
		       b04:   4a04          ldr    r2, [pc, #16]  ; (b18 <buf_prealloc+0xfc>)
		       b06:   6053          str    r3, [r2, #4]
		       b08:   2000          movs   r0, #0
		->     b0a:   f000 fd13     bl 1534 <app_util_critical_region_exit>
		       b0e:   7ffb          ldrb   r3, [r7, #31]
		       b10:   4618          mov    r0, r3
		       b12:   3728          adds   r7, #40   ; 0x28
		       b14:   46bd          mov    sp, r7
		--------------------
	(     ec8,      eba)	
		--------------------
		       ec0:   b2db          uxtb   r3, r3
		       ec2:   461a          mov    r2, r3
		       ec4:   6d7b          ldr    r3, [r7, #84]  ; 0x54
		       ec6:   4293          cmp    r3, r2
		->     ec8:   d3e2          bcc.n  e90 <nrf_log_frontend_dequeue+0x270>
		       eca:   6dfb          ldr    r3, [r7, #92]  ; 0x5c
		       ecc:   2b00          cmp    r3, #0
		       ece:   d039          beq.n  f44 <nrf_log_frontend_dequeue+0x324>
		       ed0:   4b2e          ldr    r3, [pc, #184] ; (f8c <nrf_log_frontend_dequeue+0x36c>)
		--------------------
	(     f08,      f02)	
		--------------------
		       efc:   2301          movs   r3, #1
		       efe:   f887 304f     strb.w r3, [r7, #79]   ; 0x4f
		       f02:   f897 304f     ldrb.w r3, [r7, #79]   ; 0x4f
		       f06:   2b00          cmp    r3, #0
		->     f08:   d003          beq.n  f12 <nrf_log_frontend_dequeue+0x2f2>
		       f0a:   6df9          ldr    r1, [r7, #92]  ; 0x5c
		       f0c:   6d38          ldr    r0, [r7, #80]  ; 0x50
		       f0e:   f7ff fb4d     bl 5ac <nrf_log_backend_put>
		       f12:   6d3b          ldr    r3, [r7, #80]  ; 0x50
		--------------------
	(     f3e,      f3c)	
		--------------------
		       f36:   693b          ldr    r3, [r7, #16]
		       f38:   4a14          ldr    r2, [pc, #80]  ; (f8c <nrf_log_frontend_dequeue+0x36c>)
		       f3a:   6093          str    r3, [r2, #8]
		       f3c:   2000          movs   r0, #0
		->     f3e:   f000 faf9     bl 1534 <app_util_critical_region_exit>
		       f42:   e019          b.n    f78 <nrf_log_frontend_dequeue+0x358>
		       f44:   4b11          ldr    r3, [pc, #68]  ; (f8c <nrf_log_frontend_dequeue+0x36c>)
		       f46:   f8d3 3410     ldr.w  r3, [r3, #1040]  ; 0x410
		       f4a:   64bb          str    r3, [r7, #72]  ; 0x48
		--------------------
	(     fd8,      fd4)	
		--------------------
		       fd0:   681b          ldr    r3, [r3, #0]
		       fd2:   60bb          str    r3, [r7, #8]
		       fd4:   68bb          ldr    r3, [r7, #8]
		       fd6:   2b00          cmp    r3, #0
		->     fd8:   d1ed          bne.n  fb6 <backend_id_assign+0x1a>
		       fda:   79fb          ldrb   r3, [r7, #7]
		       fdc:   2b00          cmp    r3, #0
		       fde:   d001          beq.n  fe4 <backend_id_assign+0x48>
		       fe0:   68fb          ldr    r3, [r7, #12]
		--------------------
	(    106a,     1062)	
		--------------------
		      1062:   68fb          ldr    r3, [r7, #12]
		      1064:   4618          mov    r0, r3
		      1066:   3710          adds   r7, #16
		      1068:   46bd          mov    sp, r7
		->    106a:   bd80          pop    {r7, pc}
		      106c:   2000021c  .word   0x2000021c
		  
		  00001070 <nrf_log_panic>:
		      1070:   b580          push   {r7, lr}
		--------------------
	(    1f68,     1f62)	
		--------------------
		      1f60:   623b          str    r3, [r7, #32]
		      1f62:   6a3a          ldr    r2, [r7, #32]
		      1f64:   693b          ldr    r3, [r7, #16]
		      1f66:   429a          cmp    r2, r3
		->    1f68:   d3dd          bcc.n  1f26 <nrf_memobj_alloc+0x5e>
		      1f6a:   697b          ldr    r3, [r7, #20]
		      1f6c:   4618          mov    r0, r3
		      1f6e:   3728          adds   r7, #40   ; 0x28
		      1f70:   46bd          mov    sp, r7
		--------------------
	(    1fd8,     1fd2)	
		--------------------
		      1fd0:   627b          str    r3, [r7, #36]  ; 0x24
		      1fd2:   7efb          ldrb   r3, [r7, #27]
		      1fd4:   6a7a          ldr    r2, [r7, #36]  ; 0x24
		      1fd6:   429a          cmp    r2, r3
		->    1fd8:   d3ef          bcc.n  1fba <nrf_memobj_free+0x46>
		      1fda:   bf00          nop
		      1fdc:   bf00          nop
		      1fde:   3728          adds   r7, #40   ; 0x28
		      1fe0:   46bd          mov    sp, r7
		--------------------
	(    27a2,     2d1e)	
		--------------------
		      2798:   bf00          nop
		      279a:   370c          adds   r7, #12
		      279c:   46bd          mov    sp, r7
		      279e:   f85d 7b04     ldr.w  r7, [sp], #4
		->    27a2:   4770          bx lr
		      27a4:   40007000  .word   0x40007000
		  
		  000027a8 <nrf_saadc_int_disable>:
		      27a8:   b480          push   {r7}
		--------------------
	(    2c08,     2c02)	
		--------------------
		      2c00:   68fb          ldr    r3, [r7, #12]
		      2c02:   4618          mov    r0, r3
		      2c04:   3710          adds   r7, #16
		      2c06:   46bd          mov    sp, r7
		->    2c08:   bd80          pop    {r7, pc}
		      2c0a:   bf00          nop
		      2c0c:   20000660  .word   0x20000660
		  
		  00002c10 <nrfx_saadc_channel_init>:
		--------------------
	(    3d78,     3d6e)	
		--------------------
		      3d6e:   4618          mov    r0, r3
		      3d70:   370c          adds   r7, #12
		      3d72:   46bd          mov    sp, r7
		      3d74:   f85d 7b04     ldr.w  r7, [sp], #4
		->    3d78:   4770          bx lr
		      3d7a:   bf00          nop
		      3d7c:   f0000fe0  .word   0xf0000fe0
		      3d80:   f0000fe8  .word   0xf0000fe8
		  
		--------------------
	(    3e26,     3e22)	
		--------------------
		      3e1e:   681b          ldr    r3, [r3, #0]
		      3e20:   603b          str    r3, [r7, #0]
		      3e22:   687b          ldr    r3, [r7, #4]
		      3e24:   2b06          cmp    r3, #6
		->    3e26:   d119          bne.n  3e5c <nrf52_errata_66+0x6c>
		      3e28:   683b          ldr    r3, [r7, #0]
		      3e2a:   3b03          subs   r3, #3
		      3e2c:   2b03          cmp    r3, #3
		      3e2e:   d813          bhi.n  3e58 <nrf52_errata_66+0x68>
		--------------------
	(    3ef4,     3eea)	
		--------------------
		      3eea:   4618          mov    r0, r3
		      3eec:   370c          adds   r7, #12
		      3eee:   46bd          mov    sp, r7
		      3ef0:   f85d 7b04     ldr.w  r7, [sp], #4
		->    3ef4:   4770          bx lr
		      3ef6:   bf00          nop
		      3ef8:   10000130  .word   0x10000130
		      3efc:   f0000fe0  .word   0xf0000fe0
		      3f00:   f0000fe8  .word   0xf0000fe8
		--------------------
	(    4040,     4040)	
		--------------------
		      4038:   d002          beq.n  4040 <SystemInit+0x2c>
		      403a:   4b9d          ldr    r3, [pc, #628] ; (42b0 <SystemInit+0x29c>)
		      403c:   4a9d          ldr    r2, [pc, #628] ; (42b4 <SystemInit+0x2a0>)
		      403e:   601a          str    r2, [r3, #0]
		->    4040:   f7ff fda8     bl 3b94 <nrf52_errata_31>
		      4044:   4603          mov    r3, r0
		      4046:   2b00          cmp    r3, #0
		      4048:   d006          beq.n  4058 <SystemInit+0x44>
		      404a:   4b9b          ldr    r3, [pc, #620] ; (42b8 <SystemInit+0x2a4>)
		--------------------
	(    41d6,     41d6)	
		--------------------
		      41cc:   681b          ldr    r3, [r3, #0]
		      41ce:   4a44          ldr    r2, [pc, #272] ; (42e0 <SystemInit+0x2cc>)
		      41d0:   f003 034f     and.w  r3, r3, #79  ; 0x4f
		      41d4:   6013          str    r3, [r2, #0]
		->    41d6:   f7ff fe97     bl 3f08 <nrf52_errata_136>
		      41da:   4603          mov    r3, r0
		      41dc:   2b00          cmp    r3, #0
		      41de:   d00d          beq.n  41fc <SystemInit+0x1e8>
		      41e0:   f04f 4380     mov.w  r3, #1073741824  ; 0x40000000
		--------------------
	(    4328,     430a)	
		--------------------
		      4320:   4402          add    r2, r0
		      4322:   4603          mov    r3, r0
		      4324:   4293          cmp    r3, r2
		      4326:   d100          bne.n  432a <memset+0xa>
		->    4328:   4770          bx lr
		      432a:   f803 1b01     strb.w r1, [r3], #1
		      432e:   e7f9          b.n    4324 <memset+0x4>
		  
		  00004330 <__libc_init_array>:
		--------------------
	(    433e,     433c)	
		--------------------
		      4336:   1b64          subs   r4, r4, r5
		      4338:   10a4          asrs   r4, r4, #2
		      433a:   2600          movs   r6, #0
		      433c:   42a6          cmp    r6, r4
		->    433e:   d109          bne.n  4354 <__libc_init_array+0x24>
		      4340:   4d0b          ldr    r5, [pc, #44]  ; (4370 <__libc_init_array+0x40>)
		      4342:   4c0c          ldr    r4, [pc, #48]  ; (4374 <__libc_init_array+0x44>)
		      4344:   f000 f908     bl 4558 <_init>
		      4348:   1b64          subs   r4, r4, r5
		--------------------
	(    4350,     434e)	
		--------------------
		      4348:   1b64          subs   r4, r4, r5
		      434a:   10a4          asrs   r4, r4, #2
		      434c:   2600          movs   r6, #0
		      434e:   42a6          cmp    r6, r4
		->    4350:   d105          bne.n  435e <__libc_init_array+0x2e>
		      4352:   bd70          pop    {r4, r5, r6, pc}
		      4354:   f855 3b04     ldr.w  r3, [r5], #4
		      4358:   4798          blx    r3
		      435a:   3601          adds   r6, #1
		--------------------

saadc-o1: 20 | 85
	(     216,      212)	
		--------------------
		       20c:   4804          ldr    r0, [pc, #16]  ; (220 <__do_global_dtors_aux+0x20>)
		       20e:   f3af 8000     nop.w
		       212:   2301          movs   r3, #1
		       214:   7023          strb   r3, [r4, #0]
		->     216:   bd10          pop    {r4, pc}
		       218:   20000018  .word   0x20000018
		       21c:   00000000  .word   0x00000000
		       220:   000028b4  .word   0x000028b4
		  
		--------------------
	(     69e,      69c)	
		--------------------
		       694:   b2c0          uxtb   r0, r0
		       696:   3003          adds   r0, #3
		       698:   eb04 0080     add.w  r0, r4, r0, lsl #2
		       69c:   a903          add    r1, sp, #12
		->     69e:   f7ff fee3     bl 468 <invalid_packets_omit>
		       6a2:   2800          cmp    r0, #0
		       6a4:   d0c1          beq.n  62a <nrf_log_frontend_dequeue+0x2e>
		       6a6:   f8d4 3418     ldr.w  r3, [r4, #1048]  ; 0x418
		       6aa:   2b00          cmp    r3, #0
		--------------------
	(     7aa,      656)	
		--------------------
		       7a0:   4824          ldr    r0, [pc, #144] ; (834 <nrf_log_frontend_dequeue+0x238>)
		       7a2:   f000 fe19     bl 13d8 <nrf_memobj_alloc>
		       7a6:   4605          mov    r5, r0
		       7a8:   2800          cmp    r0, #0
		->     7aa:   f43f af54     beq.w  656 <nrf_log_frontend_dequeue+0x5a>
		       7ae:   f000 fe46     bl 143e <nrf_memobj_get>
		       7b2:   2300          movs   r3, #0
		       7b4:   2208          movs   r2, #8
		       7b6:   4669          mov    r1, sp
		--------------------
	(     862,      85e)	
		--------------------
		       858:   f204 451c     addw   r5, r4, #1052 ; 0x41c
		       85c:   2701          movs   r7, #1
		       85e:   4639          mov    r1, r7
		       860:   4628          mov    r0, r5
		->     862:   f000 faa7     bl db4 <nrf_atomic_u32_add>
		       866:   f7ff fe1f     bl 4a8 <log_skip>
		       86a:   4601          mov    r1, r0
		       86c:   4628          mov    r0, r5
		       86e:   f000 faa1     bl db4 <nrf_atomic_u32_add>
		--------------------
	(     a04,      9fe)	
		--------------------
		       9fc:   460b          mov    r3, r1
		       9fe:   68db          ldr    r3, [r3, #12]
		       a00:   791a          ldrb   r2, [r3, #4]
		       a02:   4282          cmp    r2, r0
		->     a04:   d0f6          beq.n  9f4 <nrf_log_backend_add+0x1c>
		       a06:   681b          ldr    r3, [r3, #0]
		       a08:   2b00          cmp    r3, #0
		       a0a:   d1f8          bne.n  9fe <nrf_log_backend_add+0x26>
		       a0c:   f1b0 3fff     cmp.w  r0, #4294967295  ; 0xffffffff
		--------------------
	(     f5c,      f5a)	
		--------------------
		       f54:   45c2          cmp    sl, r8
		       f56:   d1f7          bne.n  f48 <unsigned_print+0x4c>
		       f58:   46c2          mov    sl, r8
		       f5a:   2401          movs   r4, #1
		->     f5c:   e007          b.n    f6e <unsigned_print+0x72>
		       f5e:   f04f 0801     mov.w  r8, #1
		       f62:   e7df          b.n    f24 <unsigned_print+0x28>
		       f64:   2420          movs   r4, #32
		       f66:   e7ed          b.n    f44 <unsigned_print+0x48>
		--------------------
	(     fe6,      fe2)	
		--------------------
		       fdc:   f046 0601     orr.w  r6, r6, #1
		       fe0:   3401          adds   r4, #1
		       fe2:   7823          ldrb   r3, [r4, #0]
		       fe4:   2b2d          cmp    r3, #45    ; 0x2d
		->     fe6:   d0f9          beq.n  fdc <nrf_fprintf_fmt+0x1c>
		       fe8:   2b30          cmp    r3, #48    ; 0x30
		       fea:   d006          beq.n  ffa <nrf_fprintf_fmt+0x3a>
		       fec:   2b2b          cmp    r3, #43    ; 0x2b
		       fee:   d008          beq.n  1002 <nrf_fprintf_fmt+0x42>
		--------------------
	(    10fc,     10f8)	
		--------------------
		      10f2:   f7ff feec     bl ece <buffer_add>
		      10f6:   3401          adds   r4, #1
		      10f8:   7823          ldrb   r3, [r4, #0]
		      10fa:   2b00          cmp    r3, #0
		->    10fc:   f000 80fd     beq.w  12fa <nrf_fprintf_fmt+0x33a>
		      1100:   f814 1b01     ldrb.w r1, [r4], #1
		      1104:   2900          cmp    r1, #0
		      1106:   f000 80f8     beq.w  12fa <nrf_fprintf_fmt+0x33a>
		      110a:   2925          cmp    r1, #37    ; 0x25
		--------------------
	(    1184,     117e)	
		--------------------
		      117c:   461c          mov    r4, r3
		      117e:   3d01          subs   r5, #1
		      1180:   2120          movs   r1, #32
		      1182:   4638          mov    r0, r7
		->    1184:   f7ff fea3     bl ece <buffer_add>
		      1188:   42ac          cmp    r4, r5
		      118a:   d1f8          bne.n  117e <nrf_fprintf_fmt+0x1be>
		      118c:   9c03          ldr    r4, [sp, #12]
		      118e:   9d02          ldr    r5, [sp, #8]
		--------------------
	(    1194,     1190)	
		--------------------
		      118a:   d1f8          bne.n  117e <nrf_fprintf_fmt+0x1be>
		      118c:   9c03          ldr    r4, [sp, #12]
		      118e:   9d02          ldr    r5, [sp, #8]
		      1190:   f1ba 0f00     cmp.w  sl, #0
		->    1194:   db11          blt.n  11ba <nrf_fprintf_fmt+0x1fa>
		      1196:   f016 0f04     tst.w  r6, #4
		      119a:   d115          bne.n  11c8 <nrf_fprintf_fmt+0x208>
		      119c:   f006 0303     and.w  r3, r6, #3
		      11a0:   2b02          cmp    r3, #2
		--------------------
	(    1414,     1410)	
		--------------------
		      140c:   4604          mov    r4, r0
		      140e:   2500          movs   r5, #0
		      1410:   46a1          mov    r9, r4
		      1412:   4638          mov    r0, r7
		->    1414:   f7ff fd0a     bl e2c <nrf_balloc_alloc>
		      1418:   4604          mov    r4, r0
		      141a:   b148          cbz    r0, 1430 <nrf_memobj_alloc+0x58>
		      141c:   7973          ldrb   r3, [r6, #5]
		      141e:   3301          adds   r3, #1
		--------------------
	(    143a,     1438)	
		--------------------
		      1430:   4630          mov    r0, r6
		      1432:   f7ff ffb5     bl 13a0 <nrf_memobj_free>
		      1436:   4626          mov    r6, r4
		      1438:   4630          mov    r0, r6
		->    143a:   e8bd 83f8     ldmia.w    sp!, {r3, r4, r5, r6, r7, r8, r9, pc}
		  
		  0000143e <nrf_memobj_get>:
		      143e:   b508          push   {r3, lr}
		      1440:   2101          movs   r1, #1
		--------------------
	(    1794,     178c)	
		--------------------
		      1788:   f884 302f     strb.w r3, [r4, #47]   ; 0x2f
		      178c:   4b20          ldr    r3, [pc, #128] ; (1810 <SAADC_IRQHandler+0x1ec>)
		      178e:   f893 302e     ldrb.w r3, [r3, #46]   ; 0x2e
		      1792:   2b00          cmp    r3, #0
		->    1794:   f47f af62     bne.w  165c <SAADC_IRQHandler+0x38>
		      1798:   4b1c          ldr    r3, [pc, #112] ; (180c <SAADC_IRQHandler+0x1e8>)
		      179a:   f8d3 3110     ldr.w  r3, [r3, #272]   ; 0x110
		      179e:   b17b          cbz    r3, 17c0 <SAADC_IRQHandler+0x19c>
		      17a0:   4b1a          ldr    r3, [pc, #104] ; (180c <SAADC_IRQHandler+0x1e8>)
		--------------------
	(    18ae,     189e)	
		--------------------
		      18a2:   f8c3 2500     str.w  r2, [r3, #1280]  ; 0x500
		      18a6:   2000          movs   r0, #0
		      18a8:   b005          add    sp, #20
		      18aa:   f85d 4b04     ldr.w  r4, [sp], #4
		->    18ae:   4770          bx lr
		      18b0:   2008          movs   r0, #8
		      18b2:   4770          bx lr
		      18b4:   20000624  .word   0x20000624
		      18b8:   40007000  .word   0x40007000
		--------------------
	(    19f6,     19f4)	
		--------------------
		      19ea:   f8c3 062c     str.w  r0, [r3, #1580]  ; 0x62c
		      19ee:   f8c3 2630     str.w  r2, [r3, #1584]  ; 0x630
		      19f2:   2000          movs   r0, #0
		      19f4:   b002          add    sp, #8
		->    19f6:   4770          bx lr
		      19f8:   4b1c          ldr    r3, [pc, #112] ; (1a6c <nrfx_saadc_buffer_convert+0xc8>)
		      19fa:   f8c3 2304     str.w  r2, [r3, #772]   ; 0x304
		      19fe:   2011          movs   r0, #17
		      1a00:   4770          bx lr
		--------------------
	(    1ffa,     1ff0)	
		--------------------
		      1fec:   f8c2 3540     str.w  r3, [r2, #1344]  ; 0x540
		      1ff0:   f04f 4370     mov.w  r3, #4026531840  ; 0xf0000000
		      1ff4:   f893 3fe0     ldrb.w r3, [r3, #4064] ; 0xfe0
		      1ff8:   2b06          cmp    r3, #6
		->    1ffa:   d070          beq.n  20de <Heap_Size+0xde>
		      1ffc:   f04f 5380     mov.w  r3, #268435456   ; 0x10000000
		      2000:   f8d3 3130     ldr.w  r3, [r3, #304]   ; 0x130
		      2004:   f1b3 3fff     cmp.w  r3, #4294967295  ; 0xffffffff
		      2008:   bf04          itt    eq
		--------------------
	(    2362,     2360)	
		--------------------
		  0000235c <memset>:
		      235c:   4402          add    r2, r0
		      235e:   4603          mov    r3, r0
		      2360:   4293          cmp    r3, r2
		->    2362:   d100          bne.n  2366 <memset+0xa>
		      2364:   4770          bx lr
		      2366:   f803 1b01     strb.w r1, [r3], #1
		      236a:   e7f9          b.n    2360 <memset+0x4>
		  
		--------------------
	(    238c,     238a)	
		--------------------
		      2384:   1b64          subs   r4, r4, r5
		      2386:   10a4          asrs   r4, r4, #2
		      2388:   2600          movs   r6, #0
		      238a:   42a6          cmp    r6, r4
		->    238c:   d105          bne.n  239a <__libc_init_array+0x2e>
		      238e:   bd70          pop    {r4, r5, r6, pc}
		      2390:   f855 3b04     ldr.w  r3, [r5], #4
		      2394:   4798          blx    r3
		      2396:   3601          adds   r6, #1
		--------------------
	(    23be,     23be)	
		--------------------
		      23b6:   4d07          ldr    r5, [pc, #28]  ; (23d4 <__libc_fini_array+0x20>)
		      23b8:   4c07          ldr    r4, [pc, #28]  ; (23d8 <__libc_fini_array+0x24>)
		      23ba:   1b64          subs   r4, r4, r5
		      23bc:   10a4          asrs   r4, r4, #2
		->    23be:   b91c          cbnz   r4, 23c8 <__libc_fini_array+0x14>
		      23c0:   e8bd 4038     ldmia.w    sp!, {r3, r4, r5, lr}
		      23c4:   f000 b8ec     b.w    25a0 <_fini>
		      23c8:   3c01          subs   r4, #1
		      23ca:   f855 3024     ldr.w  r3, [r5, r4, lsl #2]
		--------------------
	(    245a,     245a)	
		--------------------
		      244c:   dd07          ble.n  245e <__register_exitproc+0x42>
		      244e:   f8d8 0000     ldr.w  r0, [r8]
		      2452:   f7ff ffc4     bl 23de <__retarget_lock_release_recursive>
		      2456:   f04f 30ff     mov.w  r0, #4294967295  ; 0xffffffff
		->    245a:   e8bd 83f8     ldmia.w    sp!, {r3, r4, r5, r6, r7, r8, r9, pc}
		      245e:   b32e          cbz    r6, 24ac <__register_exitproc+0x90>
		      2460:   f8d4 0088     ldr.w  r0, [r4, #136]   ; 0x88
		      2464:   b968          cbnz   r0, 2482 <__register_exitproc+0x66>
		      2466:   4b1a          ldr    r3, [pc, #104] ; (24d0 <__register_exitproc+0xb4>)
		--------------------

saadc-o2: 20 | 81
	(     216,      212)	
		--------------------
		       20c:   4804          ldr    r0, [pc, #16]  ; (220 <__do_global_dtors_aux+0x20>)
		       20e:   f3af 8000     nop.w
		       212:   2301          movs   r3, #1
		       214:   7023          strb   r3, [r4, #0]
		->     216:   bd10          pop    {r4, pc}
		       218:   20000018  .word   0x20000018
		       21c:   00000000  .word   0x00000000
		       220:   00002af4  .word   0x00002af4
		  
		--------------------
	(     3e2,      3d2)	
		--------------------
		       3da:   463b          mov    r3, r7
		       3dc:   4622          mov    r2, r4
		       3de:   a90e          add    r1, sp, #56    ; 0x38
		       3e0:   4630          mov    r0, r6
		->     3e2:   f001 f949     bl 1678 <nrf_memobj_read>
		       3e6:   1b2d          subs   r5, r5, r4
		       3e8:   ab08          add    r3, sp, #32
		       3ea:   aa02          add    r2, sp, #8
		       3ec:   4621          mov    r1, r4
		--------------------
	(     67e,      672)	
		--------------------
		       672:   b2ea          uxtb   r2, r5
		       674:   f8d4 0418     ldr.w  r0, [r4, #1048]  ; 0x418
		       678:   1cd3          adds   r3, r2, #3
		       67a:   eb04 0183     add.w  r1, r4, r3, lsl #2
		->     67e:   b928          cbnz   r0, 68c <nrf_log_frontend_dequeue+0x60>
		       680:   42ae          cmp    r6, r5
		       682:   d95b          bls.n  73c <nrf_log_frontend_dequeue+0x110>
		       684:   f814 3023     ldrb.w r3, [r4, r3, lsl #2]
		       688:   075b          lsls   r3, r3, #29
		--------------------
	(     70c,      70a)	
		--------------------
		       700:   0293          lsls   r3, r2, #10
		       702:   f043 0311     orr.w  r3, r3, #17
		       706:   f844 3025     str.w  r3, [r4, r5, lsl #2]
		       70a:   7823          ldrb   r3, [r4, #0]
		->     70c:   b93b          cbnz   r3, 71e <nrf_log_frontend_dequeue+0xf2>
		       70e:   e9d4 3001     ldrd   r3, r0, [r4, #4]
		       712:   1ac0          subs   r0, r0, r3
		       714:   bf18          it ne
		       716:   2001          movne  r0, #1
		--------------------
	(     cba,     1ff6)	
		--------------------
		       cae:   e9cd 1101     strd   r1, r1, [sp, #4]
		       cb2:   9303          str    r3, [sp, #12]
		       cb4:   f000 f804     bl cc0 <app_error_fault_handler>
		       cb8:   b005          add    sp, #20
		->     cba:   f85d fb04     ldr.w  pc, [sp], #4
		       cbe:   bf00          nop
		  
		  00000cc0 <app_error_fault_handler>:
		       cc0:   b510          push   {r4, lr}
		--------------------
	(     f02,      efa)	
		--------------------
		       ef4:   e003          b.n    efe <unsigned_print+0x4e>
		       ef6:   f10a 3aff     add.w  sl, sl, #4294967295  ; 0xffffffff
		       efa:   fb06 f404     mul.w  r4, r6, r4
		       efe:   f1ba 0f01     cmp.w  sl, #1
		->     f02:   d8f8          bhi.n  ef6 <unsigned_print+0x46>
		       f04:   fbb7 f3f4     udiv   r3, r7, r4
		       f08:   429e          cmp    r6, r3
		       f0a:   d9f6          bls.n  efa <unsigned_print+0x4a>
		       f0c:   f8df a0ec     ldr.w  sl, [pc, #236]   ; ffc <unsigned_print+0x14c>
		--------------------
	(     fbc,      fb4)	
		--------------------
		       fb2:   2420          movs   r4, #32
		       fb4:   68aa          ldr    r2, [r5, #8]
		       fb6:   45c8          cmp    r8, r9
		       fb8:   f102 0101     add.w  r1, r2, #1
		->     fbc:   d299          bcs.n  ef2 <unsigned_print+0x42>
		       fbe:   682b          ldr    r3, [r5, #0]
		       fc0:   60a9          str    r1, [r5, #8]
		       fc2:   549c          strb   r4, [r3, r2]
		       fc4:   e9d5 3201     ldrd   r3, r2, [r5, #4]
		--------------------
	(    1092,     108c)	
		--------------------
		      1086:   e001          b.n    108c <nrf_fprintf_fmt+0x8c>
		      1088:   f814 2f01     ldrb.w r2, [r4, #1]!
		      108c:   f002 01fb     and.w  r1, r2, #251 ; 0xfb
		      1090:   2968          cmp    r1, #104   ; 0x68
		->    1092:   d0f9          beq.n  1088 <nrf_fprintf_fmt+0x88>
		      1094:   2a25          cmp    r2, #37    ; 0x25
		      1096:   f000 815d     beq.w  1354 <nrf_fprintf_fmt+0x354>
		      109a:   3a58          subs   r2, #88   ; 0x58
		      109c:   b2d1          uxtb   r1, r2
		--------------------
	(    140c,     1404)	
		--------------------
		      1402:   202d          movs   r0, #45   ; 0x2d
		      1404:   5450          strb   r0, [r2, r1]
		      1406:   e9d5 2101     ldrd   r2, r1, [r5, #4]
		      140a:   4291          cmp    r1, r2
		->    140c:   f4ff af0b     bcc.w  1226 <nrf_fprintf_fmt+0x226>
		      1410:   4628          mov    r0, r5
		      1412:   9303          str    r3, [sp, #12]
		      1414:   f7ff fd30     bl e78 <nrf_fprintf_buffer_flush>
		      1418:   9b03          ldr    r3, [sp, #12]
		--------------------
	(    18b6,     18b4)	
		--------------------
		      18ae:   9305          str    r3, [sp, #20]
		      18b0:   9b05          ldr    r3, [sp, #20]
		      18b2:   743a          strb   r2, [r7, #16]
		      18b4:   b008          add    sp, #32
		->    18b6:   e8bd 81f0     ldmia.w    sp!, {r4, r5, r6, r7, r8, pc}
		      18ba:   f897 302f     ldrb.w r3, [r7, #47]   ; 0x2f
		      18be:   2b00          cmp    r3, #0
		      18c0:   d14e          bne.n  1960 <SAADC_IRQHandler+0x144>
		      18c2:   4b3f          ldr    r3, [pc, #252] ; (19c0 <SAADC_IRQHandler+0x1a4>)
		--------------------
	(    1bd2,     1fa2)	
		--------------------
		      1bca:   6015          str    r5, [r2, #0]
		      1bcc:   4620          mov    r0, r4
		      1bce:   b003          add    sp, #12
		      1bd0:   bc70          pop    {r4, r5, r6}
		->    1bd2:   4770          bx lr
		      1bd4:   8359          strh   r1, [r3, #26]
		      1bd6:   f893 302d     ldrb.w r3, [r3, #45]   ; 0x2d
		      1bda:   f8c2 3630     str.w  r3, [r2, #1584]  ; 0x630
		      1bde:   4630          mov    r0, r6
		--------------------
	(    1be4,     1fa2)	
		--------------------
		      1bda:   f8c2 3630     str.w  r3, [r2, #1584]  ; 0x630
		      1bde:   4630          mov    r0, r6
		      1be0:   b003          add    sp, #12
		      1be2:   bc70          pop    {r4, r5, r6}
		->    1be4:   4770          bx lr
		      1be6:   68dc          ldr    r4, [r3, #12]
		      1be8:   b134          cbz    r4, 1bf8 <nrfx_saadc_buffer_convert+0x78>
		      1bea:   2302          movs   r3, #2
		      1bec:   2011          movs   r0, #17
		--------------------
	(    1bf6,     1f7e)	
		--------------------
		      1bec:   2011          movs   r0, #17
		      1bee:   f8c2 3304     str.w  r3, [r2, #772]   ; 0x304
		      1bf2:   b003          add    sp, #12
		      1bf4:   bc70          pop    {r4, r5, r6}
		->    1bf6:   4770          bx lr
		      1bf8:   f893 402e     ldrb.w r4, [r3, #46]   ; 0x2e
		      1bfc:   60d8          str    r0, [r3, #12]
		      1bfe:   8319          strh   r1, [r3, #24]
		      1c00:   b13c          cbz    r4, 1c12 <nrfx_saadc_buffer_convert+0x92>
		--------------------
	(    1bf6,     1fb2)	
		--------------------
		      1bec:   2011          movs   r0, #17
		      1bee:   f8c2 3304     str.w  r3, [r2, #772]   ; 0x304
		      1bf2:   b003          add    sp, #12
		      1bf4:   bc70          pop    {r4, r5, r6}
		->    1bf6:   4770          bx lr
		      1bf8:   f893 402e     ldrb.w r4, [r3, #46]   ; 0x2e
		      1bfc:   60d8          str    r0, [r3, #12]
		      1bfe:   8319          strh   r1, [r3, #24]
		      1c00:   b13c          cbz    r4, 1c12 <nrfx_saadc_buffer_convert+0x92>
		--------------------
	(    1de8,     1de0)	
		--------------------
		      1ddc:   f44f 3680     mov.w  r6, #65536   ; 0x10000
		      1de0:   682b          ldr    r3, [r5, #0]
		      1de2:   fa06 f204     lsl.w  r2, r6, r4
		      1de6:   3401          adds   r4, #1
		->    1de8:   b17b          cbz    r3, 1e0a <TIMER0_IRQHandler+0x3e>
		      1dea:   f8d7 3304     ldr.w  r3, [r7, #772]   ; 0x304
		      1dee:   f5a5 4000     sub.w  r0, r5, #32768   ; 0x8000
		      1df2:   421a          tst    r2, r3
		      1df4:   f04f 0100     mov.w  r1, #0
		--------------------
	(    21fa,     21f0)	
		--------------------
		      21ec:   f8c2 3540     str.w  r3, [r2, #1344]  ; 0x540
		      21f0:   f04f 4370     mov.w  r3, #4026531840  ; 0xf0000000
		      21f4:   f893 2fe0     ldrb.w r2, [r3, #4064] ; 0xfe0
		      21f8:   2a06          cmp    r2, #6
		->    21fa:   f000 8135     beq.w  2468 <SystemInit+0x2a4>
		      21fe:   f04f 5380     mov.w  r3, #268435456   ; 0x10000000
		      2202:   f8d3 3130     ldr.w  r3, [r3, #304]   ; 0x130
		      2206:   1c59          adds   r1, r3, #1
		      2208:   bf04          itt    eq
		--------------------
	(    2270,     2262)	
		--------------------
		      2262:   f04f 4370     mov.w  r3, #4026531840  ; 0xf0000000
		      2266:   f893 2fe0     ldrb.w r2, [r3, #4064] ; 0xfe0
		      226a:   f8d3 3fe8     ldr.w  r3, [r3, #4072]  ; 0xfe8
		      226e:   2a06          cmp    r2, #6
		->    2270:   f000 80c5     beq.w  23fe <SystemInit+0x23a>
		      2274:   f04f 5280     mov.w  r2, #268435456   ; 0x10000000
		      2278:   f8d2 3130     ldr.w  r3, [r2, #304]   ; 0x130
		      227c:   1c5c          adds   r4, r3, #1
		      227e:   d02e          beq.n  22de <SystemInit+0x11a>
		--------------------
	(    25f2,     25f2)	
		--------------------
		      25ea:   4d07          ldr    r5, [pc, #28]  ; (2608 <__libc_fini_array+0x20>)
		      25ec:   4c07          ldr    r4, [pc, #28]  ; (260c <__libc_fini_array+0x24>)
		      25ee:   1b64          subs   r4, r4, r5
		      25f0:   10a4          asrs   r4, r4, #2
		->    25f2:   b91c          cbnz   r4, 25fc <__libc_fini_array+0x14>
		      25f4:   e8bd 4038     ldmia.w    sp!, {r3, r4, r5, lr}
		      25f8:   f000 b8ec     b.w    27d4 <_fini>
		      25fc:   3c01          subs   r4, #1
		      25fe:   f855 3024     ldr.w  r3, [r5, r4, lsl #2]
		--------------------
	(    26f0,     26b6)	
		--------------------
		      26e6:   1c5a          adds   r2, r3, #1
		      26e8:   3302          adds   r3, #2
		      26ea:   6062          str    r2, [r4, #4]
		      26ec:   f844 5023     str.w  r5, [r4, r3, lsl #2]
		->    26f0:   f7ff ff8f     bl 2612 <__retarget_lock_release_recursive>
		      26f4:   2000          movs   r0, #0
		      26f6:   e7ca          b.n    268e <__register_exitproc+0x3e>
		      26f8:   20000998  .word   0x20000998
		      26fc:   2000090c  .word   0x2000090c
		--------------------
	(    274c,     274a)	
		--------------------
		      2740:   3501          adds   r5, #1
		      2742:   eb04 0585     add.w  r5, r4, r5, lsl #2
		      2746:   f107 0b80     add.w  fp, r7, #128 ; 0x80
		      274a:   2e00          cmp    r6, #0
		->    274c:   dbed          blt.n  272a <__call_exitprocs+0x1e>
		      274e:   9b00          ldr    r3, [sp, #0]
		      2750:   b143          cbz    r3, 2764 <__call_exitprocs+0x58>
		      2752:   b917          cbnz   r7, 275a <__call_exitprocs+0x4e>
		      2754:   3e01          subs   r6, #1
		--------------------

saadc-o3: 20 | 83
	(     2b8,      2b0)	
		--------------------
		       2b0:   4906          ldr    r1, [pc, #24]  ; (2cc <Reset_Handler+0x1c>)
		       2b2:   4a07          ldr    r2, [pc, #28]  ; (2d0 <Reset_Handler+0x20>)
		       2b4:   4b07          ldr    r3, [pc, #28]  ; (2d4 <Reset_Handler+0x24>)
		       2b6:   1a9b          subs   r3, r3, r2
		->     2b8:   dd03          ble.n  2c2 <Reset_Handler+0x12>
		       2ba:   3b04          subs   r3, #4
		       2bc:   58c8          ldr    r0, [r1, r3]
		       2be:   50d0          str    r0, [r2, r3]
		       2c0:   dcfb          bgt.n  2ba <Reset_Handler+0xa>
		--------------------
	(     32e,      326)	
		--------------------
		       324:   2500          movs   r5, #0
		       326:   4622          mov    r2, r4
		       328:   eb08 0105     add.w  r1, r8, r5
		       32c:   2000          movs   r0, #0
		->     32e:   f001 fec3     bl 20b8 <SEGGER_RTT_WriteNoLock>
		       332:   4603          mov    r3, r0
		       334:   1ae4          subs   r4, r4, r3
		       336:   f44f 407a     mov.w  r0, #64000   ; 0xfa00
		       33a:   441d          add    r5, r3
		--------------------
	(     582,      57c)	
		--------------------
		       578:   d1f8          bne.n  56c <nrf_log_module_name_get+0x14>
		       57a:   4618          mov    r0, r3
		       57c:   f855 0030     ldr.w  r0, [r5, r0, lsl #3]
		       580:   bc30          pop    {r4, r5}
		->     582:   4770          bx lr
		       584:   4d04          ldr    r5, [pc, #16]  ; (598 <nrf_log_module_name_get+0x40>)
		       586:   e7f9          b.n    57c <nrf_log_module_name_get+0x24>
		       588:   2000          movs   r0, #0
		       58a:   bc30          pop    {r4, r5}
		--------------------
	(     582,      580)	
		--------------------
		       578:   d1f8          bne.n  56c <nrf_log_module_name_get+0x14>
		       57a:   4618          mov    r0, r3
		       57c:   f855 0030     ldr.w  r0, [r5, r0, lsl #3]
		       580:   bc30          pop    {r4, r5}
		->     582:   4770          bx lr
		       584:   4d04          ldr    r5, [pc, #16]  ; (598 <nrf_log_module_name_get+0x40>)
		       586:   e7f9          b.n    57c <nrf_log_module_name_get+0x24>
		       588:   2000          movs   r0, #0
		       58a:   bc30          pop    {r4, r5}
		--------------------
	(     648,      63e)	
		--------------------
		       63c:   68db          ldr    r3, [r3, #12]
		       63e:   2902          cmp    r1, #2
		       640:   e9cd 2301     strd   r2, r3, [sp, #4]
		       644:   f105 0602     add.w  r6, r5, #2
		->     648:   d02d          beq.n  6a6 <nrf_log_frontend_dequeue+0xda>
		       64a:   2901          cmp    r1, #1
		       64c:   f000 8088     beq.w  760 <nrf_log_frontend_dequeue+0x194>
		       650:   f8d4 5410     ldr.w  r5, [r4, #1040]  ; 0x410
		       654:   b13d          cbz    r5, 666 <nrf_log_frontend_dequeue+0x9a>
		--------------------
	(     726,      71c)	
		--------------------
		       718:   eb06 0698     add.w  r6, r6, r8, lsr #2
		       71c:   f8d4 3418     ldr.w  r3, [r4, #1048]  ; 0x418
		       720:   f8d4 5410     ldr.w  r5, [r4, #1040]  ; 0x410
		       724:   2b00          cmp    r3, #0
		->     726:   d159          bne.n  7dc <nrf_log_frontend_dequeue+0x210>
		       728:   b165          cbz    r5, 744 <nrf_log_frontend_dequeue+0x178>
		       72a:   68eb          ldr    r3, [r5, #12]
		       72c:   795a          ldrb   r2, [r3, #5]
		       72e:   4628          mov    r0, r5
		--------------------
	(     c9e,     207e)	
		--------------------
		       c92:   e9cd 1101     strd   r1, r1, [sp, #4]
		       c96:   9303          str    r3, [sp, #12]
		       c98:   f000 f804     bl ca4 <app_error_fault_handler>
		       c9c:   b005          add    sp, #20
		->     c9e:   f85d fb04     ldr.w  pc, [sp], #4
		       ca2:   bf00          nop
		  
		  00000ca4 <app_error_fault_handler>:
		       ca4:   b510          push   {r4, lr}
		--------------------
	(     e1c,      e1a)	
		--------------------
		       e14:   429a          cmp    r2, r3
		       e16:   d200          bcs.n  e1a <nrf_balloc_alloc+0x36>
		       e18:   710b          strb   r3, [r1, #4]
		       e1a:   2000          movs   r0, #0
		->     e1c:   f7ff ff80     bl d20 <app_util_critical_region_exit>
		       e20:   4620          mov    r0, r4
		       e22:   bd38          pop    {r3, r4, r5, pc}
		       e24:   2400          movs   r4, #0
		       e26:   2000          movs   r0, #0
		--------------------
	(     ede,      ed6)	
		--------------------
		       ed2:   d167          bne.n  fa4 <unsigned_print+0x110>
		       ed4:   68b2          ldr    r2, [r6, #8]
		       ed6:   f1ba 0f01     cmp.w  sl, #1
		       eda:   f04f 0401     mov.w  r4, #1
		->     ede:   d906          bls.n  eee <unsigned_print+0x5a>
		       ee0:   f10a 3aff     add.w  sl, sl, #4294967295  ; 0xffffffff
		       ee4:   f1ba 0f01     cmp.w  sl, #1
		       ee8:   fb05 f404     mul.w  r4, r5, r4
		       eec:   d8f8          bhi.n  ee0 <unsigned_print+0x4c>
		--------------------
	(     f24,      f18)	
		--------------------
		       f14:   fbb7 f3f3     udiv   r3, r7, r3
		       f18:   f81a b003     ldrb.w fp, [sl, r3]
		       f1c:   f1bb 0f0a     cmp.w  fp, #10
		       f20:   fb04 7713     mls    r7, r4, r3, r7
		->     f24:   d028          beq.n  f78 <unsigned_print+0xe4>
		       f26:   6833          ldr    r3, [r6, #0]
		       f28:   1c51          adds   r1, r2, #1
		       f2a:   60b1          str    r1, [r6, #8]
		       f2c:   f803 b002     strb.w fp, [r3, r2]
		--------------------
	(     f58,      f52)	
		--------------------
		       f4e:   d010          beq.n  f72 <unsigned_print+0xde>
		       f50:   2420          movs   r4, #32
		       f52:   45c8          cmp    r8, r9
		       f54:   f109 39ff     add.w  r9, r9, #4294967295  ; 0xffffffff
		->     f58:   d20b          bcs.n  f72 <unsigned_print+0xde>
		       f5a:   68b3          ldr    r3, [r6, #8]
		       f5c:   6832          ldr    r2, [r6, #0]
		       f5e:   1c59          adds   r1, r3, #1
		       f60:   60b1          str    r1, [r6, #8]
		--------------------
	(    1464,     145c)	
		--------------------
		      145a:   202d          movs   r0, #45   ; 0x2d
		      145c:   5450          strb   r0, [r2, r1]
		      145e:   e9d6 2101     ldrd   r2, r1, [r6, #4]
		      1462:   4291          cmp    r1, r2
		->    1464:   f4ff aedf     bcc.w  1226 <nrf_fprintf_fmt+0x232>
		      1468:   4630          mov    r0, r6
		      146a:   9303          str    r3, [sp, #12]
		      146c:   f7ff fcf6     bl e5c <nrf_fprintf_buffer_flush>
		      1470:   9b03          ldr    r3, [sp, #12]
		--------------------
	(    1634,     162e)	
		--------------------
		      162c:   6836          ldr    r6, [r6, #0]
		      162e:   4621          mov    r1, r4
		      1630:   4640          mov    r0, r8
		      1632:   3501          adds   r5, #1
		->    1634:   f7ff fbfc     bl e30 <nrf_balloc_free>
		      1638:   42af          cmp    r7, r5
		      163a:   d8f6          bhi.n  162a <nrf_memobj_put+0x36>
		      163c:   e8bd 81f0     ldmia.w    sp!, {r4, r5, r6, r7, r8, pc}
		      1640:   6820          ldr    r0, [r4, #0]
		--------------------
	(    19c8,     1996)	
		--------------------
		      19bc:   08db          lsrs   r3, r3, #3
		      19be:   a805          add    r0, sp, #20
		      19c0:   ea26 0601     bic.w  r6, r6, r1
		      19c4:   f1be 0f00     cmp.w  lr, #0
		->    19c8:   d00b          beq.n  19e2 <SAADC_IRQHandler+0x13a>
		      19ca:   6014          str    r4, [r2, #0]
		      19cc:   6812          ldr    r2, [r2, #0]
		      19ce:   9204          str    r2, [sp, #16]
		      19d0:   f88d 3018     strb.w r3, [sp, #24]
		--------------------
	(    1bb0,     1b26)	
		--------------------
		      1ba4:   f8c0 4514     str.w  r4, [r0, #1300]  ; 0x514
		      1ba8:   f8c0 3510     str.w  r3, [r0, #1296]  ; 0x510
		      1bac:   790b          ldrb   r3, [r1, #4]
		      1bae:   2b01          cmp    r3, #1
		->    1bb0:   d903          bls.n  1bba <nrfx_saadc_channel_init+0xbe>
		      1bb2:   2000          movs   r0, #0
		      1bb4:   f85d 4b04     ldr.w  r4, [sp], #4
		      1bb8:   4770          bx lr
		      1bba:   2301          movs   r3, #1
		--------------------
	(    1c6c,     202a)	
		--------------------
		      1c62:   f8c2 3630     str.w  r3, [r2, #1584]  ; 0x630
		      1c66:   4630          mov    r0, r6
		      1c68:   b003          add    sp, #12
		      1c6a:   bc70          pop    {r4, r5, r6}
		->    1c6c:   4770          bx lr
		      1c6e:   68dc          ldr    r4, [r3, #12]
		      1c70:   b134          cbz    r4, 1c80 <nrfx_saadc_buffer_convert+0x78>
		      1c72:   2302          movs   r3, #2
		      1c74:   2011          movs   r0, #17
		--------------------
	(    1e48,     1e3a)	
		--------------------
		      1e3c:   f501 71a8     add.w  r1, r1, #336 ; 0x150
		      1e40:   f843 2021     str.w  r2, [r3, r1, lsl #2]
		      1e44:   b002          add    sp, #8
		      1e46:   bcf0          pop    {r4, r5, r6, r7}
		->    1e48:   4770          bx lr
		      1e4a:   6803          ldr    r3, [r0, #0]
		      1e4c:   f8c3 4308     str.w  r4, [r3, #776]   ; 0x308
		      1e50:   e7f3          b.n    1e3a <nrfx_timer_extended_compare+0x4a>
		      1e52:   bf00          nop
		--------------------
	(    1e70,     1e92)	
		--------------------
		      1e64:   f44f 3680     mov.w  r6, #65536   ; 0x10000
		      1e68:   682b          ldr    r3, [r5, #0]
		      1e6a:   fa06 f204     lsl.w  r2, r6, r4
		      1e6e:   3401          adds   r4, #1
		->    1e70:   b17b          cbz    r3, 1e92 <TIMER0_IRQHandler+0x3e>
		      1e72:   f8d7 3304     ldr.w  r3, [r7, #772]   ; 0x304
		      1e76:   f5a5 4000     sub.w  r0, r5, #32768   ; 0x8000
		      1e7a:   421a          tst    r2, r3
		      1e7c:   f04f 0100     mov.w  r1, #0
		--------------------
	(    2478,     246a)	
		--------------------
		      246c:   bf04          itt    eq
		      246e:   f04f 4370     moveq.w    r3, #4026531840    ; 0xf0000000
		      2472:   f893 3fe0     ldrbeq.w   r3, [r3, #4064]   ; 0xfe0
		      2476:   2b06          cmp    r3, #6
		->    2478:   d18b          bne.n  2392 <SystemInit+0xc2>
		      247a:   f04f 5280     mov.w  r2, #268435456   ; 0x10000000
		      247e:   f04f 4180     mov.w  r1, #1073741824  ; 0x40000000
		      2482:   f8d2 3258     ldr.w  r3, [r2, #600]   ; 0x258
		      2486:   f8d2 0130     ldr.w  r0, [r2, #304]   ; 0x130
		--------------------
	(    27ec,     27dc)	
		--------------------
		      27e2:   1c5a          adds   r2, r3, #1
		      27e4:   3302          adds   r3, #2
		      27e6:   6062          str    r2, [r4, #4]
		      27e8:   f844 5023     str.w  r5, [r4, r3, lsl #2]
		->    27ec:   f7ff ff8f     bl 270e <__retarget_lock_release_recursive>
		      27f0:   2000          movs   r0, #0
		      27f2:   e7ca          b.n    278a <__register_exitproc+0x3e>
		      27f4:   2000099c  .word   0x2000099c
		      27f8:   20000910  .word   0x20000910
		--------------------

simple_timer-o0: 20 | 68
	(     216,      216)	
		--------------------
		       20c:   4804          ldr    r0, [pc, #16]  ; (220 <__do_global_dtors_aux+0x20>)
		       20e:   f3af 8000     nop.w
		       212:   2301          movs   r3, #1
		       214:   7023          strb   r3, [r4, #0]
		->     216:   bd10          pop    {r4, pc}
		       218:   20000010  .word   0x20000010
		       21c:   00000000  .word   0x00000000
		       220:   00001ff8  .word   0x00001ff8
		  
		--------------------
	(     558,      554)	
		--------------------
		       550:   3301          adds   r3, #1
		       552:   607b          str    r3, [r7, #4]
		       554:   687b          ldr    r3, [r7, #4]
		       556:   2b03          cmp    r3, #3
		->     558:   d9f2          bls.n  540 <bsp_board_leds_init+0xc>
		       55a:   f7ff ffc5     bl 4e8 <bsp_board_leds_off>
		       55e:   bf00          nop
		       560:   3708          adds   r7, #8
		       562:   46bd          mov    sp, r7
		--------------------
	(     794,      790)	
		--------------------
		       78c:   2202          movs   r2, #2
		       78e:   701a          strb   r2, [r3, #0]
		       790:   2300          movs   r3, #0
		       792:   4618          mov    r0, r3
		->     794:   bd80          pop    {r7, pc}
		       796:   bf00          nop
		       798:   20000038  .word   0x20000038
		       79c:   00001fe0  .word   0x00001fe0
		  
		--------------------
	(     af0,      aec)	
		--------------------
		       ae8:   3301          adds   r3, #1
		       aea:   60fb          str    r3, [r7, #12]
		       aec:   68fb          ldr    r3, [r7, #12]
		       aee:   2b00          cmp    r3, #0
		->     af0:   d0f0          beq.n  ad4 <latch_pending_read_and_check+0x18>
		       af2:   2300          movs   r3, #0
		       af4:   4618          mov    r0, r3
		       af6:   3710          adds   r7, #16
		       af8:   46bd          mov    sp, r7
		--------------------
	(     bb0,      ba6)	
		--------------------
		       ba8:   3301          adds   r3, #1
		       baa:   617b          str    r3, [r7, #20]
		       bac:   697b          ldr    r3, [r7, #20]
		       bae:   2b03          cmp    r3, #3
		->     bb0:   d9ab          bls.n  b0a <port_event_handle+0xe>
		       bb2:   6878          ldr    r0, [r7, #4]
		       bb4:   f7ff ff82     bl abc <latch_pending_read_and_check>
		       bb8:   4603          mov    r3, r0
		       bba:   2b00          cmp    r3, #0
		--------------------
	(     c2a,      c14)	
		--------------------
		       c22:   3301          adds   r3, #1
		       c24:   61bb          str    r3, [r7, #24]
		       c26:   69bb          ldr    r3, [r7, #24]
		       c28:   2b07          cmp    r3, #7
		->     c2a:   d9de          bls.n  bea <GPIOTE_IRQHandler+0x1e>
		       c2c:   f44f 70be     mov.w  r0, #380 ; 0x17c
		       c30:   f7ff fdc4     bl 7bc <nrf_gpiote_event_is_set>
		       c34:   4603          mov    r3, r0
		       c36:   2b00          cmp    r3, #0
		--------------------
	(     c2a,      c26)	
		--------------------
		       c22:   3301          adds   r3, #1
		       c24:   61bb          str    r3, [r7, #24]
		       c26:   69bb          ldr    r3, [r7, #24]
		       c28:   2b07          cmp    r3, #7
		->     c2a:   d9de          bls.n  bea <GPIOTE_IRQHandler+0x1e>
		       c2c:   f44f 70be     mov.w  r0, #380 ; 0x17c
		       c30:   f7ff fdc4     bl 7bc <nrf_gpiote_event_is_set>
		       c34:   4603          mov    r3, r0
		       c36:   2b00          cmp    r3, #0
		--------------------
	(     cac,      ca8)	
		--------------------
		       ca4:   3301          adds   r3, #1
		       ca6:   61bb          str    r3, [r7, #24]
		       ca8:   69bb          ldr    r3, [r7, #24]
		       caa:   2b07          cmp    r3, #7
		->     cac:   d9dc          bls.n  c68 <GPIOTE_IRQHandler+0x9c>
		       cae:   69fb          ldr    r3, [r7, #28]
		       cb0:   2b00          cmp    r3, #0
		       cb2:   da03          bge.n  cbc <GPIOTE_IRQHandler+0xf0>
		       cb4:   463b          mov    r3, r7
		--------------------
	(    15b8,     15ae)	
		--------------------
		      15ae:   4618          mov    r0, r3
		      15b0:   370c          adds   r7, #12
		      15b2:   46bd          mov    sp, r7
		      15b4:   f85d 7b04     ldr.w  r7, [sp], #4
		->    15b8:   4770          bx lr
		      15ba:   bf00          nop
		      15bc:   10000130  .word   0x10000130
		      15c0:   f0000fe0  .word   0xf0000fe0
		      15c4:   f0000fe8  .word   0xf0000fe8
		--------------------
	(    162c,     1622)	
		--------------------
		      1622:   4618          mov    r0, r3
		      1624:   370c          adds   r7, #12
		      1626:   46bd          mov    sp, r7
		      1628:   f85d 7b04     ldr.w  r7, [sp], #4
		->    162c:   4770          bx lr
		      162e:   bf00          nop
		      1630:   f0000fe0  .word   0xf0000fe0
		      1634:   f0000fe8  .word   0xf0000fe8
		  
		--------------------
	(    166e,     166a)	
		--------------------
		      1666:   681b          ldr    r3, [r3, #0]
		      1668:   603b          str    r3, [r7, #0]
		      166a:   687b          ldr    r3, [r7, #4]
		      166c:   2b06          cmp    r3, #6
		->    166e:   d119          bne.n  16a4 <nrf52_errata_31+0x6c>
		      1670:   683b          ldr    r3, [r7, #0]
		      1672:   3b03          subs   r3, #3
		      1674:   2b03          cmp    r3, #3
		      1676:   d813          bhi.n  16a0 <nrf52_errata_31+0x68>
		--------------------
	(    1766,     1762)	
		--------------------
		      175e:   681b          ldr    r3, [r3, #0]
		      1760:   603b          str    r3, [r7, #0]
		      1762:   687b          ldr    r3, [r7, #4]
		      1764:   2b06          cmp    r3, #6
		->    1766:   d119          bne.n  179c <nrf52_errata_36+0x6c>
		      1768:   683b          ldr    r3, [r7, #0]
		      176a:   3b03          subs   r3, #3
		      176c:   2b03          cmp    r3, #3
		      176e:   d813          bhi.n  1798 <nrf52_errata_36+0x68>
		--------------------
	(    190c,     1902)	
		--------------------
		      1902:   4618          mov    r0, r3
		      1904:   370c          adds   r7, #12
		      1906:   46bd          mov    sp, r7
		      1908:   f85d 7b04     ldr.w  r7, [sp], #4
		->    190c:   4770          bx lr
		      190e:   bf00          nop
		      1910:   10000130  .word   0x10000130
		      1914:   f0000fe0  .word   0xf0000fe0
		      1918:   f0000fe8  .word   0xf0000fe8
		--------------------
	(    1a24,     1a1a)	
		--------------------
		      1a1a:   4618          mov    r0, r3
		      1a1c:   370c          adds   r7, #12
		      1a1e:   46bd          mov    sp, r7
		      1a20:   f85d 7b04     ldr.w  r7, [sp], #4
		->    1a24:   4770          bx lr
		      1a26:   bf00          nop
		      1a28:   10000130  .word   0x10000130
		      1a2c:   f0000fe0  .word   0xf0000fe0
		      1a30:   f0000fe8  .word   0xf0000fe8
		--------------------
	(    1a90,     1a86)	
		--------------------
		      1a86:   4618          mov    r0, r3
		      1a88:   370c          adds   r7, #12
		      1a8a:   46bd          mov    sp, r7
		      1a8c:   f85d 7b04     ldr.w  r7, [sp], #4
		->    1a90:   4770          bx lr
		      1a92:   bf00          nop
		      1a94:   10000130  .word   0x10000130
		      1a98:   10000134  .word   0x10000134
		  
		--------------------
	(    1ad4,     1ad4)	
		--------------------
		      1aca:   0a1b          lsrs   r3, r3, #8
		      1acc:   4aa0          ldr    r2, [pc, #640] ; (1d50 <SystemInit+0x298>)
		      1ace:   f003 031f     and.w  r3, r3, #31
		      1ad2:   6013          str    r3, [r2, #0]
		->    1ad4:   f7ff fd7a     bl 15cc <nrf52_errata_16>
		      1ad8:   4603          mov    r3, r0
		      1ada:   2b00          cmp    r3, #0
		      1adc:   d002          beq.n  1ae4 <SystemInit+0x2c>
		      1ade:   4b9d          ldr    r3, [pc, #628] ; (1d54 <SystemInit+0x29c>)
		--------------------
	(    1afc,     1afc)	
		--------------------
		      1af2:   0b5b          lsrs   r3, r3, #13
		      1af4:   4a9a          ldr    r2, [pc, #616] ; (1d60 <SystemInit+0x2a8>)
		      1af6:   f003 0307     and.w  r3, r3, #7
		      1afa:   6013          str    r3, [r2, #0]
		->    1afc:   f7ff fde2     bl 16c4 <nrf52_errata_32>
		      1b00:   4603          mov    r3, r0
		      1b02:   2b00          cmp    r3, #0
		      1b04:   d005          beq.n  1b12 <SystemInit+0x5a>
		      1b06:   4b97          ldr    r3, [pc, #604] ; (1d64 <SystemInit+0x2ac>)
		--------------------
	(    1ca0,     1ca0)	
		--------------------
		      1c92:   d005          beq.n  1ca0 <SystemInit+0x1e8>
		      1c94:   f04f 4380     mov.w  r3, #1073741824  ; 0x40000000
		      1c98:   f06f 0201     mvn.w  r2, #1
		      1c9c:   f8c3 2400     str.w  r2, [r3, #1024]  ; 0x400
		->    1ca0:   f7ff feca     bl 1a38 <nrf52_errata_182>
		      1ca4:   4603          mov    r3, r0
		      1ca6:   2b00          cmp    r3, #0
		      1ca8:   d005          beq.n  1cb6 <SystemInit+0x1fe>
		      1caa:   4b37          ldr    r3, [pc, #220] ; (1d88 <SystemInit+0x2d0>)
		--------------------
	(    1dca,     1dc8)	
		--------------------
		  00001dc4 <memset>:
		      1dc4:   4402          add    r2, r0
		      1dc6:   4603          mov    r3, r0
		      1dc8:   4293          cmp    r3, r2
		->    1dca:   d100          bne.n  1dce <memset+0xa>
		      1dcc:   4770          bx lr
		      1dce:   f803 1b01     strb.w r1, [r3], #1
		      1dd2:   e7f9          b.n    1dc8 <memset+0x4>
		  
		--------------------
	(    1de2,     1de0)	
		--------------------
		      1dda:   1b64          subs   r4, r4, r5
		      1ddc:   10a4          asrs   r4, r4, #2
		      1dde:   2600          movs   r6, #0
		      1de0:   42a6          cmp    r6, r4
		->    1de2:   d109          bne.n  1df8 <__libc_init_array+0x24>
		      1de4:   4d0b          ldr    r5, [pc, #44]  ; (1e14 <__libc_init_array+0x40>)
		      1de6:   4c0c          ldr    r4, [pc, #48]  ; (1e18 <__libc_init_array+0x44>)
		      1de8:   f000 f8ea     bl 1fc0 <_init>
		      1dec:   1b64          subs   r4, r4, r5
		--------------------

simple_timer-o1: 20 | 34
	(     216,      212)	
		--------------------
		       20c:   4804          ldr    r0, [pc, #16]  ; (220 <__do_global_dtors_aux+0x20>)
		       20e:   f3af 8000     nop.w
		       212:   2301          movs   r3, #1
		       214:   7023          strb   r3, [r4, #0]
		->     216:   bd10          pop    {r4, pc}
		       218:   20000010  .word   0x20000010
		       21c:   00000000  .word   0x00000000
		       220:   00001008  .word   0x00001008
		  
		--------------------
	(     216,      216)	
		--------------------
		       20c:   4804          ldr    r0, [pc, #16]  ; (220 <__do_global_dtors_aux+0x20>)
		       20e:   f3af 8000     nop.w
		       212:   2301          movs   r3, #1
		       214:   7023          strb   r3, [r4, #0]
		->     216:   bd10          pop    {r4, pc}
		       218:   20000010  .word   0x20000010
		       21c:   00000000  .word   0x00000000
		       220:   00001008  .word   0x00001008
		  
		--------------------
	(     3ba,      8be)	
		--------------------
		       3ae:   aa01          add    r2, sp, #4
		       3b0:   f244 0001     movw   r0, #16385    ; 0x4001
		       3b4:   f000 fb0a     bl 9cc <app_error_fault_handler>
		       3b8:   b005          add    sp, #20
		->     3ba:   f85d fb04     ldr.w  pc, [sp], #4
		      ...
		  
		  000003c0 <app_simple_timer_event_handler>:
		       3c0:   f5b0 7fa0     cmp.w  r0, #320 ; 0x140
		--------------------
	(     424,      422)	
		--------------------
		       41c:   4b04          ldr    r3, [pc, #16]  ; (430 <app_simple_timer_init+0x3c>)
		       41e:   2201          movs   r2, #1
		       420:   701a          strb   r2, [r3, #0]
		       422:   b003          add    sp, #12
		->     424:   f85d fb04     ldr.w  pc, [sp], #4
		       428:   000003c1  .word   0x000003c1
		       42c:   00000ff4  .word   0x00000ff4
		       430:   2000002d  .word   0x2000002d
		  
		--------------------
	(     440,      4cc)	
		--------------------
		       438:   781b          ldrb   r3, [r3, #0]
		       43a:   2b03          cmp    r3, #3
		       43c:   d001          beq.n  442 <app_simple_timer_stop+0xe>
		       43e:   2000          movs   r0, #0
		->     440:   bd08          pop    {r3, pc}
		       442:   4804          ldr    r0, [pc, #16]  ; (454 <app_simple_timer_stop+0x20>)
		       444:   f000 f9b8     bl 7b8 <nrfx_timer_pause>
		       448:   4b01          ldr    r3, [pc, #4]   ; (450 <app_simple_timer_stop+0x1c>)
		       44a:   2202          movs   r2, #2
		--------------------
	(     47c,      476)	
		--------------------
		       472:   f44f 7880     mov.w  r8, #256 ; 0x100
		       476:   4b1f          ldr    r3, [pc, #124] ; (4f4 <app_simple_timer_start+0x9c>)
		       478:   7819          ldrb   r1, [r3, #0]
		       47a:   2900          cmp    r1, #0
		->     47c:   d037          beq.n  4ee <app_simple_timer_start+0x96>
		       47e:   2903          cmp    r1, #3
		       480:   d022          beq.n  4c8 <app_simple_timer_start+0x70>
		       482:   4b1c          ldr    r3, [pc, #112] ; (4f4 <app_simple_timer_start+0x9c>)
		       484:   781b          ldrb   r3, [r3, #0]
		--------------------
	(     70a,      700)	
		--------------------
		       700:   6803          ldr    r3, [r0, #0]
		       702:   0b1a          lsrs   r2, r3, #12
		       704:   f343 3307     sbfx   r3, r3, #12, #8
		       708:   2b00          cmp    r3, #0
		->     70a:   db08          blt.n  71e <nrfx_timer_init+0x86>
		       70c:   095b          lsrs   r3, r3, #5
		       70e:   f002 021f     and.w  r2, r2, #31
		       712:   2401          movs   r4, #1
		       714:   fa04 f202     lsl.w  r2, r4, r2
		--------------------
	(     7fa,      7ec)	
		--------------------
		       7ee:   f501 71a8     add.w  r1, r1, #336 ; 0x150
		       7f2:   f843 2021     str.w  r2, [r3, r1, lsl #2]
		       7f6:   b003          add    sp, #12
		       7f8:   bc70          pop    {r4, r5, r6}
		->     7fa:   4770          bx lr
		       7fc:   6803          ldr    r3, [r0, #0]
		       7fe:   f8c3 4308     str.w  r4, [r3, #776]   ; 0x308
		       802:   e7f3          b.n    7ec <nrfx_timer_compare+0x24>
		  
		--------------------
	(     856,      858)	
		--------------------
		       84e:   2d04          cmp    r5, #4
		       850:   d016          beq.n  880 <TIMER1_IRQHandler+0x4c>
		       852:   6823          ldr    r3, [r4, #0]
		       854:   2b00          cmp    r3, #0
		->     856:   d0f8          beq.n  84a <TIMER1_IRQHandler+0x16>
		       858:   f8d7 3304     ldr.w  r3, [r7, #772]   ; 0x304
		       85c:   fa06 f105     lsl.w  r1, r6, r5
		       860:   4219          tst    r1, r3
		       862:   d0f2          beq.n  84a <TIMER1_IRQHandler+0x16>
		--------------------
	(     9e4,      9de)	
		--------------------
		       9d8:   f44f 467a     mov.w  r6, #64000   ; 0xfa00
		       9dc:   2700          movs   r7, #0
		       9de:   f44f 747a     mov.w  r4, #1000    ; 0x3e8
		       9e2:   4630          mov    r0, r6
		->     9e4:   47a8          blx    r5
		       9e6:   3c01          subs   r4, #1
		       9e8:   d1fb          bne.n  9e2 <app_error_fault_handler+0x16>
		       9ea:   4638          mov    r0, r7
		       9ec:   f7ff fca4     bl 338 <bsp_board_led_invert>
		--------------------
	(     9e4,      9e2)	
		--------------------
		       9d8:   f44f 467a     mov.w  r6, #64000   ; 0xfa00
		       9dc:   2700          movs   r7, #0
		       9de:   f44f 747a     mov.w  r4, #1000    ; 0x3e8
		       9e2:   4630          mov    r0, r6
		->     9e4:   47a8          blx    r5
		       9e6:   3c01          subs   r4, #1
		       9e8:   d1fb          bne.n  9e2 <app_error_fault_handler+0x16>
		       9ea:   4638          mov    r0, r7
		       9ec:   f7ff fca4     bl 338 <bsp_board_led_invert>
		--------------------
	(     a26,      a24)	
		--------------------
		       a1a:   4d09          ldr    r5, [pc, #36]  ; (a40 <main+0x44>)
		       a1c:   f045 0501     orr.w  r5, r5, #1
		       a20:   f44f 467a     mov.w  r6, #64000   ; 0xfa00
		       a24:   4630          mov    r0, r6
		->     a26:   47a8          blx    r5
		       a28:   3c01          subs   r4, #1
		       a2a:   d1fb          bne.n  a24 <main+0x28>
		       a2c:   2000          movs   r0, #0
		       a2e:   f7ff ff4d     bl 8cc <state_machine_state_change>
		--------------------
	(     aec,      ae2)	
		--------------------
		       ade:   f8c3 2538     str.w  r2, [r3, #1336]  ; 0x538
		       ae2:   f04f 4370     mov.w  r3, #4026531840  ; 0xf0000000
		       ae6:   f893 3fe0     ldrb.w r3, [r3, #4064] ; 0xfe0
		       aea:   2b06          cmp    r3, #6
		->     aec:   d053          beq.n  b96 <SystemInit+0x152>
		       aee:   f04f 5380     mov.w  r3, #268435456   ; 0x10000000
		       af2:   f8d3 2130     ldr.w  r2, [r3, #304]   ; 0x130
		       af6:   f1b2 3fff     cmp.w  r2, #4294967295  ; 0xffffffff
		       afa:   d075          beq.n  be8 <SystemInit+0x1a4>
		--------------------
	(     b14,      b12)	
		--------------------
		       b06:   f000 80a4     beq.w  c52 <SystemInit+0x20e>
		       b0a:   f04f 5380     mov.w  r3, #268435456   ; 0x10000000
		       b0e:   f8d3 3130     ldr.w  r3, [r3, #304]   ; 0x130
		       b12:   2b06          cmp    r3, #6
		->     b14:   d078          beq.n  c08 <SystemInit+0x1c4>
		       b16:   f04f 5380     mov.w  r3, #268435456   ; 0x10000000
		       b1a:   f8d3 3130     ldr.w  r3, [r3, #304]   ; 0x130
		       b1e:   2b06          cmp    r3, #6
		       b20:   f000 80ea     beq.w  cf8 <SystemInit+0x2b4>
		--------------------
	(     c30,      c2e)	
		--------------------
		       c24:   d103          bne.n  c2e <SystemInit+0x1ea>
		       c26:   f04f 4370     mov.w  r3, #4026531840  ; 0xf0000000
		       c2a:   f893 3fe0     ldrb.w r3, [r3, #4064] ; 0xfe0
		       c2e:   2b06          cmp    r3, #6
		->     c30:   f47f af71     bne.w  b16 <SystemInit+0xd2>
		       c34:   f04f 4380     mov.w  r3, #1073741824  ; 0x40000000
		       c38:   f8d3 3400     ldr.w  r3, [r3, #1024]  ; 0x400
		       c3c:   f013 0f01     tst.w  r3, #1
		       c40:   f43f af69     beq.w  b16 <SystemInit+0xd2>
		--------------------
	(     de2,      ddc)	
		--------------------
		  00000ddc <memset>:
		       ddc:   4402          add    r2, r0
		       dde:   4603          mov    r3, r0
		       de0:   4293          cmp    r3, r2
		->     de2:   d100          bne.n  de6 <memset+0xa>
		       de4:   4770          bx lr
		       de6:   f803 1b01     strb.w r1, [r3], #1
		       dea:   e7f9          b.n    de0 <memset+0x4>
		  
		--------------------
	(     de4,      dc6)	
		--------------------
		       ddc:   4402          add    r2, r0
		       dde:   4603          mov    r3, r0
		       de0:   4293          cmp    r3, r2
		       de2:   d100          bne.n  de6 <memset+0xa>
		->     de4:   4770          bx lr
		       de6:   f803 1b01     strb.w r1, [r3], #1
		       dea:   e7f9          b.n    de0 <memset+0x4>
		  
		  00000dec <__libc_init_array>:
		--------------------
	(     dfa,      df8)	
		--------------------
		       df2:   1b64          subs   r4, r4, r5
		       df4:   10a4          asrs   r4, r4, #2
		       df6:   2600          movs   r6, #0
		       df8:   42a6          cmp    r6, r4
		->     dfa:   d109          bne.n  e10 <__libc_init_array+0x24>
		       dfc:   4d0b          ldr    r5, [pc, #44]  ; (e2c <__libc_init_array+0x40>)
		       dfe:   4c0c          ldr    r4, [pc, #48]  ; (e30 <__libc_init_array+0x44>)
		       e00:   f000 f8ea     bl fd8 <_init>
		       e04:   1b64          subs   r4, r4, r5
		--------------------
	(     e0c,      e0a)	
		--------------------
		       e04:   1b64          subs   r4, r4, r5
		       e06:   10a4          asrs   r4, r4, #2
		       e08:   2600          movs   r6, #0
		       e0a:   42a6          cmp    r6, r4
		->     e0c:   d105          bne.n  e1a <__libc_init_array+0x2e>
		       e0e:   bd70          pop    {r4, r5, r6, pc}
		       e10:   f855 3b04     ldr.w  r3, [r5], #4
		       e14:   4798          blx    r3
		       e16:   3601          adds   r6, #1
		--------------------
	(     f5c,      f5a)	
		--------------------
		       f50:   3501          adds   r5, #1
		       f52:   eb04 0585     add.w  r5, r4, r5, lsl #2
		       f56:   f107 0b80     add.w  fp, r7, #128 ; 0x80
		       f5a:   2e00          cmp    r6, #0
		->     f5c:   dbed          blt.n  f3a <__call_exitprocs+0x1e>
		       f5e:   9b00          ldr    r3, [sp, #0]
		       f60:   b143          cbz    r3, f74 <__call_exitprocs+0x58>
		       f62:   b917          cbnz   r7, f6a <__call_exitprocs+0x4e>
		       f64:   3e01          subs   r6, #1
		--------------------

simple_timer-o2: 20 | 37
	(     216,      212)	
		--------------------
		       20c:   4804          ldr    r0, [pc, #16]  ; (220 <__do_global_dtors_aux+0x20>)
		       20e:   f3af 8000     nop.w
		       212:   2301          movs   r3, #1
		       214:   7023          strb   r3, [r4, #0]
		->     216:   bd10          pop    {r4, pc}
		       218:   20000010  .word   0x20000010
		       21c:   00000000  .word   0x00000000
		       220:   000010e4  .word   0x000010e4
		  
		--------------------
	(     2b8,      2b0)	
		--------------------
		       2b0:   4906          ldr    r1, [pc, #24]  ; (2cc <Reset_Handler+0x1c>)
		       2b2:   4a07          ldr    r2, [pc, #28]  ; (2d0 <Reset_Handler+0x20>)
		       2b4:   4b07          ldr    r3, [pc, #28]  ; (2d4 <Reset_Handler+0x24>)
		       2b6:   1a9b          subs   r3, r3, r2
		->     2b8:   dd03          ble.n  2c2 <Reset_Handler+0x12>
		       2ba:   3b04          subs   r3, #4
		       2bc:   58c8          ldr    r0, [r1, r3]
		       2be:   50d0          str    r0, [r2, r3]
		       2c0:   dcfb          bgt.n  2ba <Reset_Handler+0xa>
		--------------------
	(     582,      572)	
		--------------------
		       574:   f103 4380     add.w  r3, r3, #1073741824  ; 0x40000000
		       578:   422e          tst    r6, r5
		       57a:   f503 43c0     add.w  r3, r3, #24576   ; 0x6000
		       57e:   ea4f 0545     mov.w  r5, r5, lsl #1
		->     582:   d00b          beq.n  59c <GPIOTE_IRQHandler+0x84>
		       584:   f8d3 0510     ldr.w  r0, [r3, #1296]  ; 0x510
		       588:   f857 2024     ldr.w  r2, [r7, r4, lsl #2]
		       58c:   f8d3 1510     ldr.w  r1, [r3, #1296]  ; 0x510
		       590:   f3c0 2004     ubfx   r0, r0, #8, #5
		--------------------
	(     5e4,      5de)	
		--------------------
		       5d8:   4d31          ldr    r5, [pc, #196] ; (6a0 <GPIOTE_IRQHandler+0x188>)
		       5da:   f04f 0801     mov.w  r8, #1
		       5de:   f915 0f01     ldrsb.w    r0, [r5, #1]!
		       5e2:   1c43          adds   r3, r0, #1
		->     5e4:   d03a          beq.n  65c <GPIOTE_IRQHandler+0x144>
		       5e6:   f3c0 02c2     ubfx   r2, r0, #3, #3
		       5ea:   f102 0310     add.w  r3, r2, #16
		       5ee:   eb0d 0203     add.w  r2, sp, r3
		       5f2:   f000 0307     and.w  r3, r0, #7
		--------------------
	(     71c,      710)	
		--------------------
		       710:   6802          ldr    r2, [r0, #0]
		       712:   f342 3307     sbfx   r3, r2, #12, #8
		       716:   2b00          cmp    r3, #0
		       718:   ea4f 3412     mov.w  r4, r2, lsr #12
		->     71c:   db08          blt.n  730 <nrfx_timer_init+0x8c>
		       71e:   4d20          ldr    r5, [pc, #128] ; (7a0 <nrfx_timer_init+0xfc>)
		       720:   095b          lsrs   r3, r3, #5
		       722:   f004 041f     and.w  r4, r4, #31
		       726:   2201          movs   r2, #1
		--------------------
	(     780,      730)	
		--------------------
		       774:   f8c0 3510     str.w  r3, [r0, #1296]  ; 0x510
		       778:   2000          movs   r0, #0
		       77a:   f888 4008     strb.w r4, [r8, #8]
		       77e:   b002          add    sp, #8
		->     780:   e8bd 81f0     ldmia.w    sp!, {r4, r5, r6, r7, r8, pc}
		       784:   4c07          ldr    r4, [pc, #28]  ; (7a4 <nrfx_timer_init+0x100>)
		       786:   f002 020f     and.w  r2, r2, #15
		       78a:   015b          lsls   r3, r3, #5
		       78c:   b2db          uxtb   r3, r3
		--------------------
	(     834,      826)	
		--------------------
		       828:   f501 71a8     add.w  r1, r1, #336 ; 0x150
		       82c:   f843 2021     str.w  r2, [r3, r1, lsl #2]
		       830:   b002          add    sp, #8
		       832:   bcf0          pop    {r4, r5, r6, r7}
		->     834:   4770          bx lr
		       836:   6803          ldr    r3, [r0, #0]
		       838:   f8c3 4308     str.w  r4, [r3, #776]   ; 0x308
		       83c:   e7f3          b.n    826 <nrfx_timer_extended_compare+0x4a>
		       83e:   bf00          nop
		--------------------
	(     a6c,      a6c)	
		--------------------
		       a64:   b1f2          cbz    r2, aa4 <main+0x78>
		       a66:   2d01          cmp    r5, #1
		       a68:   d009          beq.n  a7e <main+0x52>
		       a6a:   7818          ldrb   r0, [r3, #0]
		->     a6c:   f7ff fca2     bl 3b4 <app_error_handler_bare>
		       a70:   bf20          wfe
		       a72:   bf40          sev
		       a74:   bf20          wfe
		       a76:   e7fb          b.n    a70 <main+0x44>
		--------------------
	(     b16,      b0c)	
		--------------------
		       b08:   f8c2 3540     str.w  r3, [r2, #1344]  ; 0x540
		       b0c:   f04f 4370     mov.w  r3, #4026531840  ; 0xf0000000
		       b10:   f893 2fe0     ldrb.w r2, [r3, #4064] ; 0xfe0
		       b14:   2a06          cmp    r2, #6
		->     b16:   f000 8135     beq.w  d84 <SystemInit+0x2a4>
		       b1a:   f04f 5380     mov.w  r3, #268435456   ; 0x10000000
		       b1e:   f8d3 3130     ldr.w  r3, [r3, #304]   ; 0x130
		       b22:   1c59          adds   r1, r3, #1
		       b24:   bf04          itt    eq
		--------------------
	(     b50,      b46)	
		--------------------
		       b42:   f8c2 353c     str.w  r3, [r2, #1340]  ; 0x53c
		       b46:   f04f 4370     mov.w  r3, #4026531840  ; 0xf0000000
		       b4a:   f893 2fe0     ldrb.w r2, [r3, #4064] ; 0xfe0
		       b4e:   2a06          cmp    r2, #6
		->     b50:   f000 8103     beq.w  d5a <SystemInit+0x27a>
		       b54:   f04f 5380     mov.w  r3, #268435456   ; 0x10000000
		       b58:   f8d3 3130     ldr.w  r3, [r3, #304]   ; 0x130
		       b5c:   1c5a          adds   r2, r3, #1
		       b5e:   bf04          itt    eq
		--------------------
	(     b8c,      b7e)	
		--------------------
		       b7e:   f04f 4370     mov.w  r3, #4026531840  ; 0xf0000000
		       b82:   f893 2fe0     ldrb.w r2, [r3, #4064] ; 0xfe0
		       b86:   f8d3 3fe8     ldr.w  r3, [r3, #4072]  ; 0xfe8
		       b8a:   2a06          cmp    r2, #6
		->     b8c:   f000 80c5     beq.w  d1a <SystemInit+0x23a>
		       b90:   f04f 5280     mov.w  r2, #268435456   ; 0x10000000
		       b94:   f8d2 3130     ldr.w  r3, [r2, #304]   ; 0x130
		       b98:   1c5c          adds   r4, r3, #1
		       b9a:   d02e          beq.n  bfa <SystemInit+0x11a>
		--------------------
	(     bae,      bac)	
		--------------------
		       ba2:   d034          beq.n  c0e <SystemInit+0x12e>
		       ba4:   f04f 5380     mov.w  r3, #268435456   ; 0x10000000
		       ba8:   f8d3 3130     ldr.w  r3, [r3, #304]   ; 0x130
		       bac:   2b06          cmp    r3, #6
		->     bae:   f000 8097     beq.w  ce0 <SystemInit+0x200>
		       bb2:   f04f 5380     mov.w  r3, #268435456   ; 0x10000000
		       bb6:   e9d3 234c     ldrd   r2, r3, [r3, #304]    ; 0x130
		       bba:   2a06          cmp    r2, #6
		       bbc:   f000 80a2     beq.w  d04 <SystemInit+0x224>
		--------------------
	(     c12,      c0e)	
		--------------------
		       c08:   d1da          bne.n  bc0 <SystemInit+0xe0>
		       c0a:   f3c2 1203     ubfx   r2, r2, #4, #4
		       c0e:   3a03          subs   r2, #3
		       c10:   2a03          cmp    r2, #3
		->     c12:   f240 80d5     bls.w  dc0 <SystemInit+0x2e0>
		       c16:   f04f 5380     mov.w  r3, #268435456   ; 0x10000000
		       c1a:   4a74          ldr    r2, [pc, #464] ; (dec <SystemInit+0x30c>)
		       c1c:   f8d3 1404     ldr.w  r1, [r3, #1028]  ; 0x404
		       c20:   f8c2 1520     str.w  r1, [r2, #1312]  ; 0x520
		--------------------
	(     d3a,      d36)	
		--------------------
		       d30:   2103          movs   r1, #3
		       d32:   f8c2 15a0     str.w  r1, [r2, #1440]  ; 0x5a0
		       d36:   5cc3          ldrb   r3, [r0, r3]
		       d38:   2b00          cmp    r3, #0
		->     d3a:   f43f af29     beq.w  b90 <SystemInit+0xb0>
		       d3e:   4b2e          ldr    r3, [pc, #184] ; (df8 <SystemInit+0x318>)
		       d40:   2405          movs   r4, #5
		       d42:   2001          movs   r0, #1
		       d44:   2100          movs   r1, #0
		--------------------
	(     eca,      ec8)	
		--------------------
		       ec2:   1b64          subs   r4, r4, r5
		       ec4:   10a4          asrs   r4, r4, #2
		       ec6:   2600          movs   r6, #0
		       ec8:   42a6          cmp    r6, r4
		->     eca:   d109          bne.n  ee0 <__libc_init_array+0x24>
		       ecc:   4d0b          ldr    r5, [pc, #44]  ; (efc <__libc_init_array+0x40>)
		       ece:   4c0c          ldr    r4, [pc, #48]  ; (f00 <__libc_init_array+0x44>)
		       ed0:   f000 f8ea     bl 10a8 <_init>
		       ed4:   1b64          subs   r4, r4, r5
		--------------------
	(     edc,      eda)	
		--------------------
		       ed4:   1b64          subs   r4, r4, r5
		       ed6:   10a4          asrs   r4, r4, #2
		       ed8:   2600          movs   r6, #0
		       eda:   42a6          cmp    r6, r4
		->     edc:   d105          bne.n  eea <__libc_init_array+0x2e>
		       ede:   bd70          pop    {r4, r5, r6, pc}
		       ee0:   f855 3b04     ldr.w  r3, [r5], #4
		       ee4:   4798          blx    r3
		       ee6:   3601          adds   r6, #1
		--------------------
	(     f0e,      f0e)	
		--------------------
		       f06:   4d07          ldr    r5, [pc, #28]  ; (f24 <__libc_fini_array+0x20>)
		       f08:   4c07          ldr    r4, [pc, #28]  ; (f28 <__libc_fini_array+0x24>)
		       f0a:   1b64          subs   r4, r4, r5
		       f0c:   10a4          asrs   r4, r4, #2
		->     f0e:   b91c          cbnz   r4, f18 <__libc_fini_array+0x14>
		       f10:   e8bd 4038     ldmia.w    sp!, {r3, r4, r5, lr}
		       f14:   f000 b8ce     b.w    10b4 <_fini>
		       f18:   3c01          subs   r4, #1
		       f1a:   f855 3024     ldr.w  r3, [r5, r4, lsl #2]
		--------------------
	(     f60,      f5c)	
		--------------------
		       f56:   681b          ldr    r3, [r3, #0]
		       f58:   f8c4 3088     str.w  r3, [r4, #136]   ; 0x88
		       f5c:   6863          ldr    r3, [r4, #4]
		       f5e:   2b1f          cmp    r3, #31
		->     f60:   dd07          ble.n  f72 <__register_exitproc+0x42>
		       f62:   f8d8 0000     ldr.w  r0, [r8]
		       f66:   f7ff ffe2     bl f2e <__retarget_lock_release_recursive>
		       f6a:   f04f 30ff     mov.w  r0, #4294967295  ; 0xffffffff
		       f6e:   e8bd 83f8     ldmia.w    sp!, {r3, r4, r5, r6, r7, r8, r9, pc}
		--------------------
	(     f6e,      f6e)	
		--------------------
		       f60:   dd07          ble.n  f72 <__register_exitproc+0x42>
		       f62:   f8d8 0000     ldr.w  r0, [r8]
		       f66:   f7ff ffe2     bl f2e <__retarget_lock_release_recursive>
		       f6a:   f04f 30ff     mov.w  r0, #4294967295  ; 0xffffffff
		->     f6e:   e8bd 83f8     ldmia.w    sp!, {r3, r4, r5, r6, r7, r8, r9, pc}
		       f72:   b32e          cbz    r6, fc0 <__register_exitproc+0x90>
		       f74:   f8d4 0088     ldr.w  r0, [r4, #136]   ; 0x88
		       f78:   b968          cbnz   r0, f96 <__register_exitproc+0x66>
		       f7a:   4b1a          ldr    r3, [pc, #104] ; (fe4 <__register_exitproc+0xb4>)
		--------------------
	(     fd0,      f96)	
		--------------------
		       fc6:   1c5a          adds   r2, r3, #1
		       fc8:   3302          adds   r3, #2
		       fca:   6062          str    r2, [r4, #4]
		       fcc:   f844 5023     str.w  r5, [r4, r3, lsl #2]
		->     fd0:   f7ff ffad     bl f2e <__retarget_lock_release_recursive>
		       fd4:   2000          movs   r0, #0
		       fd6:   e7ca          b.n    f6e <__register_exitproc+0x3e>
		       fd8:   2000014c  .word   0x2000014c
		       fdc:   200000c0  .word   0x200000c0
		--------------------

simple_timer-o3: 20 | 39
	(     216,      212)	
		--------------------
		       20c:   4804          ldr    r0, [pc, #16]  ; (220 <__do_global_dtors_aux+0x20>)
		       20e:   f3af 8000     nop.w
		       212:   2301          movs   r3, #1
		       214:   7023          strb   r3, [r4, #0]
		->     216:   bd10          pop    {r4, pc}
		       218:   20000010  .word   0x20000010
		       21c:   00000000  .word   0x00000000
		       220:   00001384  .word   0x00001384
		  
		--------------------
	(     2b8,      2b0)	
		--------------------
		       2b0:   4906          ldr    r1, [pc, #24]  ; (2cc <Reset_Handler+0x1c>)
		       2b2:   4a07          ldr    r2, [pc, #28]  ; (2d0 <Reset_Handler+0x20>)
		       2b4:   4b07          ldr    r3, [pc, #28]  ; (2d4 <Reset_Handler+0x24>)
		       2b6:   1a9b          subs   r3, r3, r2
		->     2b8:   dd03          ble.n  2c2 <Reset_Handler+0x12>
		       2ba:   3b04          subs   r3, #4
		       2bc:   58c8          ldr    r0, [r1, r3]
		       2be:   50d0          str    r0, [r2, r3]
		       2c0:   dcfb          bgt.n  2ba <Reset_Handler+0xa>
		--------------------
	(     392,      390)	
		--------------------
		       384:   f8c3 4508     str.w  r4, [r3, #1288]  ; 0x508
		       388:   f8c3 1508     str.w  r1, [r3, #1288]  ; 0x508
		       38c:   f8c3 2508     str.w  r2, [r3, #1288]  ; 0x508
		       390:   0783          lsls   r3, r0, #30
		->     392:   d50a          bpl.n  3aa <bsp_board_init+0x56>
		       394:   f04f 43a0     mov.w  r3, #1342177280  ; 0x50000000
		       398:   220c          movs   r2, #12
		       39a:   f8c3 2734     str.w  r2, [r3, #1844]  ; 0x734
		       39e:   f8c3 2738     str.w  r2, [r3, #1848]  ; 0x738
		--------------------
	(     3ae,      3aa)	
		--------------------
		       39e:   f8c3 2738     str.w  r2, [r3, #1848]  ; 0x738
		       3a2:   f8c3 273c     str.w  r2, [r3, #1852]  ; 0x73c
		       3a6:   f8c3 2740     str.w  r2, [r3, #1856]  ; 0x740
		       3aa:   f85d 4b04     ldr.w  r4, [sp], #4
		->     3ae:   4770          bx lr
		  
		  000003b0 <app_error_handler_bare>:
		       3b0:   b500          push   {lr}
		       3b2:   b085          sub    sp, #20
		--------------------
	(     4be,      4bc)	
		--------------------
		       4b4:   f000 fae4     bl a80 <nrfx_timer_pause>
		       4b8:   2302          movs   r3, #2
		       4ba:   703b          strb   r3, [r7, #0]
		       4bc:   4804          ldr    r0, [pc, #16]  ; (4d0 <app_simple_timer_start+0x9c>)
		->     4be:   f000 fae3     bl a88 <nrfx_timer_clear>
		       4c2:   e7cc          b.n    45e <app_simple_timer_start+0x2a>
		       4c4:   200e          movs   r0, #14
		       4c6:   4770          bx lr
		       4c8:   2000002d  .word   0x2000002d
		--------------------
	(     532,      52a)	
		--------------------
		       528:   461e          mov    r6, r3
		       52a:   4b19          ldr    r3, [pc, #100] ; (590 <GPIOTE_IRQHandler+0x7c>)
		       52c:   f8d3 2104     ldr.w  r2, [r3, #260]   ; 0x104
		       530:   2a01          cmp    r2, #1
		->     532:   f000 81cf     beq.w  8d4 <GPIOTE_IRQHandler+0x3c0>
		       536:   4b16          ldr    r3, [pc, #88]  ; (590 <GPIOTE_IRQHandler+0x7c>)
		       538:   f8d3 2108     ldr.w  r2, [r3, #264]   ; 0x108
		       53c:   2a01          cmp    r2, #1
		       53e:   f000 81b8     beq.w  8b2 <GPIOTE_IRQHandler+0x39e>
		--------------------
	(     5ea,      5d0)	
		--------------------
		       5dc:   f103 4380     add.w  r3, r3, #1073741824  ; 0x40000000
		       5e0:   422e          tst    r6, r5
		       5e2:   f503 43c0     add.w  r3, r3, #24576   ; 0x6000
		       5e6:   ea4f 0545     mov.w  r5, r5, lsl #1
		->     5ea:   d00b          beq.n  604 <GPIOTE_IRQHandler+0xf0>
		       5ec:   f8d3 0510     ldr.w  r0, [r3, #1296]  ; 0x510
		       5f0:   f857 2024     ldr.w  r2, [r7, r4, lsl #2]
		       5f4:   f8d3 1510     ldr.w  r1, [r3, #1296]  ; 0x510
		       5f8:   f3c0 2004     ubfx   r0, r0, #8, #5
		--------------------
	(     5ea,      5d4)	
		--------------------
		       5dc:   f103 4380     add.w  r3, r3, #1073741824  ; 0x40000000
		       5e0:   422e          tst    r6, r5
		       5e2:   f503 43c0     add.w  r3, r3, #24576   ; 0x6000
		       5e6:   ea4f 0545     mov.w  r5, r5, lsl #1
		->     5ea:   d00b          beq.n  604 <GPIOTE_IRQHandler+0xf0>
		       5ec:   f8d3 0510     ldr.w  r0, [r3, #1296]  ; 0x510
		       5f0:   f857 2024     ldr.w  r2, [r7, r4, lsl #2]
		       5f4:   f8d3 1510     ldr.w  r1, [r3, #1296]  ; 0x510
		       5f8:   f3c0 2004     ubfx   r0, r0, #8, #5
		--------------------
	(     61c,      616)	
		--------------------
		       610:   2501          movs   r5, #1
		       612:   f04f 46a0     mov.w  r6, #1342177280  ; 0x50000000
		       616:   f994 3050     ldrsb.w    r3, [r4, #80]  ; 0x50
		       61a:   1c5f          adds   r7, r3, #1
		->     61c:   d03d          beq.n  69a <GPIOTE_IRQHandler+0x186>
		       61e:   f3c3 02c2     ubfx   r2, r3, #3, #3
		       622:   3210          adds   r2, #16
		       624:   446a          add    r2, sp
		       626:   b2d9          uxtb   r1, r3
		--------------------
	(     9d0,      9c4)	
		--------------------
		       9c4:   6802          ldr    r2, [r0, #0]
		       9c6:   f342 3307     sbfx   r3, r2, #12, #8
		       9ca:   2b00          cmp    r3, #0
		       9cc:   ea4f 3412     mov.w  r4, r2, lsr #12
		->     9d0:   db08          blt.n  9e4 <nrfx_timer_init+0x8c>
		       9d2:   4d20          ldr    r5, [pc, #128] ; (a54 <nrfx_timer_init+0xfc>)
		       9d4:   095b          lsrs   r3, r3, #5
		       9d6:   f004 041f     and.w  r4, r4, #31
		       9da:   2201          movs   r2, #1
		--------------------
	(     b10,      b32)	
		--------------------
		       b04:   f44f 3680     mov.w  r6, #65536   ; 0x10000
		       b08:   682b          ldr    r3, [r5, #0]
		       b0a:   fa06 f204     lsl.w  r2, r6, r4
		       b0e:   3401          adds   r4, #1
		->     b10:   b17b          cbz    r3, b32 <TIMER1_IRQHandler+0x3e>
		       b12:   f8d7 3304     ldr.w  r3, [r7, #772]   ; 0x304
		       b16:   f505 40e0     add.w  r0, r5, #28672   ; 0x7000
		       b1a:   421a          tst    r2, r3
		       b1c:   f04f 0100     mov.w  r1, #0
		--------------------
	(     cc8,      cc4)	
		--------------------
		       cb8:   f7ff fb24     bl 304 <bsp_board_leds_off>
		       cbc:   f045 0501     orr.w  r5, r5, #1
		       cc0:   f44f 747a     mov.w  r4, #1000    ; 0x3e8
		       cc4:   f44f 407a     mov.w  r0, #64000   ; 0xfa00
		->     cc8:   47a8          blx    r5
		       cca:   3c01          subs   r4, #1
		       ccc:   d1fa          bne.n  cc4 <app_error_fault_handler+0x10>
		       cce:   4620          mov    r0, r4
		       cd0:   f7ff fb2e     bl 330 <bsp_board_led_invert>
		--------------------
	(     e40,      e32)	
		--------------------
		       e32:   f04f 4370     mov.w  r3, #4026531840  ; 0xf0000000
		       e36:   f893 2fe0     ldrb.w r2, [r3, #4064] ; 0xfe0
		       e3a:   f8d3 3fe8     ldr.w  r3, [r3, #4072]  ; 0xfe8
		       e3e:   2a06          cmp    r2, #6
		->     e40:   f000 80b8     beq.w  fb4 <SystemInit+0x220>
		       e44:   f04f 5280     mov.w  r2, #268435456   ; 0x10000000
		       e48:   f8d2 3130     ldr.w  r3, [r2, #304]   ; 0x130
		       e4c:   1c59          adds   r1, r3, #1
		       e4e:   f000 809d     beq.w  f8c <SystemInit+0x1f8>
		--------------------
	(     f70,      f6c)	
		--------------------
		       f66:   d478          bmi.n  105a <SystemInit+0x2c6>
		       f68:   f8d2 3134     ldr.w  r3, [r2, #308]   ; 0x134
		       f6c:   3b03          subs   r3, #3
		       f6e:   2b03          cmp    r3, #3
		->     f70:   d804          bhi.n  f7c <SystemInit+0x1e8>
		       f72:   4a5f          ldr    r2, [pc, #380] ; (10f0 <SystemInit+0x35c>)
		       f74:   5cd3          ldrb   r3, [r2, r3]
		       f76:   2b00          cmp    r3, #0
		       f78:   f43f af6d     beq.w  e56 <SystemInit+0xc2>
		--------------------
	(     fd6,      fd0)	
		--------------------
		       fcc:   f8c2 15a0     str.w  r1, [r2, #1440]  ; 0x5a0
		       fd0:   4a4b          ldr    r2, [pc, #300] ; (1100 <SystemInit+0x36c>)
		       fd2:   5cd3          ldrb   r3, [r2, r3]
		       fd4:   2b00          cmp    r3, #0
		->     fd6:   f43f af35     beq.w  e44 <SystemInit+0xb0>
		       fda:   4b4a          ldr    r3, [pc, #296] ; (1104 <SystemInit+0x370>)
		       fdc:   2405          movs   r4, #5
		       fde:   2001          movs   r0, #1
		       fe0:   2100          movs   r1, #0
		--------------------
	(    1156,     1150)	
		--------------------
		  00001150 <memset>:
		      1150:   4402          add    r2, r0
		      1152:   4603          mov    r3, r0
		      1154:   4293          cmp    r3, r2
		->    1156:   d100          bne.n  115a <memset+0xa>
		      1158:   4770          bx lr
		      115a:   f803 1b01     strb.w r1, [r3], #1
		      115e:   e7f9          b.n    1154 <memset+0x4>
		  
		--------------------
	(    1158,     113a)	
		--------------------
		      1150:   4402          add    r2, r0
		      1152:   4603          mov    r3, r0
		      1154:   4293          cmp    r3, r2
		      1156:   d100          bne.n  115a <memset+0xa>
		->    1158:   4770          bx lr
		      115a:   f803 1b01     strb.w r1, [r3], #1
		      115e:   e7f9          b.n    1154 <memset+0x4>
		  
		  00001160 <__libc_init_array>:
		--------------------
	(    1180,     117e)	
		--------------------
		      1178:   1b64          subs   r4, r4, r5
		      117a:   10a4          asrs   r4, r4, #2
		      117c:   2600          movs   r6, #0
		      117e:   42a6          cmp    r6, r4
		->    1180:   d105          bne.n  118e <__libc_init_array+0x2e>
		      1182:   bd70          pop    {r4, r5, r6, pc}
		      1184:   f855 3b04     ldr.w  r3, [r5], #4
		      1188:   4798          blx    r3
		      118a:   3601          adds   r6, #1
		--------------------
	(    1212,     1212)	
		--------------------
		      1204:   dd07          ble.n  1216 <__register_exitproc+0x42>
		      1206:   f8d8 0000     ldr.w  r0, [r8]
		      120a:   f7ff ffe2     bl 11d2 <__retarget_lock_release_recursive>
		      120e:   f04f 30ff     mov.w  r0, #4294967295  ; 0xffffffff
		->    1212:   e8bd 83f8     ldmia.w    sp!, {r3, r4, r5, r6, r7, r8, r9, pc}
		      1216:   b32e          cbz    r6, 1264 <__register_exitproc+0x90>
		      1218:   f8d4 0088     ldr.w  r0, [r4, #136]   ; 0x88
		      121c:   b968          cbnz   r0, 123a <__register_exitproc+0x66>
		      121e:   4b1a          ldr    r3, [pc, #104] ; (1288 <__register_exitproc+0xb4>)
		--------------------
	(    12d0,     12ce)	
		--------------------
		      12c4:   3501          adds   r5, #1
		      12c6:   eb04 0585     add.w  r5, r4, r5, lsl #2
		      12ca:   f107 0b80     add.w  fp, r7, #128 ; 0x80
		      12ce:   2e00          cmp    r6, #0
		->    12d0:   dbed          blt.n  12ae <__call_exitprocs+0x1e>
		      12d2:   9b00          ldr    r3, [sp, #0]
		      12d4:   b143          cbz    r3, 12e8 <__call_exitprocs+0x58>
		      12d6:   b917          cbnz   r7, 12de <__call_exitprocs+0x4e>
		      12d8:   3e01          subs   r6, #1
		--------------------

spi-o0: 20 | 161
	(     822,      81c)	
		--------------------
		       81a:   2300          movs   r3, #0
		       81c:   4618          mov    r0, r3
		       81e:   3718          adds   r7, #24
		       820:   46bd          mov    sp, r7
		->     822:   bd80          pop    {r7, pc}
		       824:   20000070  .word   0x20000070
		  
		  00000828 <nrf_log_module_name_get>:
		       828:   b580          push   {r7, lr}
		--------------------
	(     85e,      858)	
		--------------------
		       856:   2300          movs   r3, #0
		       858:   4618          mov    r0, r3
		       85a:   3710          adds   r7, #16
		       85c:   46bd          mov    sp, r7
		->     85e:   bd80          pop    {r7, pc}
		       860:   0000615c  .word   0x0000615c
		  
		  00000864 <nrf_log_color_id_get>:
		       864:   b480          push   {r7}
		--------------------
	(    126a,     1264)	
		--------------------
		      1262:   68fb          ldr    r3, [r7, #12]
		      1264:   4618          mov    r0, r3
		      1266:   3710          adds   r7, #16
		      1268:   46bd          mov    sp, r7
		->    126a:   bd80          pop    {r7, pc}
		      126c:   20000238  .word   0x20000238
		  
		  00001270 <nrf_log_panic>:
		      1270:   b580          push   {r7, lr}
		--------------------
	(    129e,     129a)	
		--------------------
		      1296:   681b          ldr    r3, [r3, #0]
		      1298:   607b          str    r3, [r7, #4]
		      129a:   687b          ldr    r3, [r7, #4]
		      129c:   2b00          cmp    r3, #0
		->    129e:   d1f2          bne.n  1286 <nrf_log_panic+0x16>
		      12a0:   bf00          nop
		      12a2:   bf00          nop
		      12a4:   3708          adds   r7, #8
		      12a6:   46bd          mov    sp, r7
		--------------------
	(    1892,     188e)	
		--------------------
		      188a:   3301          adds   r3, #1
		      188c:   607b          str    r3, [r7, #4]
		      188e:   687b          ldr    r3, [r7, #4]
		      1890:   2b03          cmp    r3, #3
		->    1892:   d9f1          bls.n  1878 <bsp_board_buttons_init+0xc>
		      1894:   bf00          nop
		      1896:   bf00          nop
		      1898:   3708          adds   r7, #8
		      189a:   46bd          mov    sp, r7
		--------------------
	(    1cce,     1d48)	
		--------------------
		      1cc6:   e000          b.n    1cca <nrf_fprintf_buffer_flush+0x2c>
		      1cc8:   bf00          nop
		      1cca:   3708          adds   r7, #8
		      1ccc:   46bd          mov    sp, r7
		->    1cce:   bd80          pop    {r7, pc}
		  
		  00001cd0 <nrf_fprintf>:
		      1cd0:   b40e          push   {r1, r2, r3}
		      1cd2:   b580          push   {r7, lr}
		--------------------
	(    2484,     247e)	
		--------------------
		      247c:   627b          str    r3, [r7, #36]  ; 0x24
		      247e:   6a7a          ldr    r2, [r7, #36]  ; 0x24
		      2480:   697b          ldr    r3, [r7, #20]
		      2482:   429a          cmp    r2, r3
		->    2484:   d3f5          bcc.n  2472 <nrf_memobj_free+0x22>
		      2486:   6a3b          ldr    r3, [r7, #32]
		      2488:   681b          ldr    r3, [r3, #0]
		      248a:   613b          str    r3, [r7, #16]
		      248c:   687b          ldr    r3, [r7, #4]
		--------------------
	(    2d8e,     2d8a)	
		--------------------
		      2d86:   3301          adds   r3, #1
		      2d88:   617b          str    r3, [r7, #20]
		      2d8a:   697b          ldr    r3, [r7, #20]
		      2d8c:   2b07          cmp    r3, #7
		->    2d8e:   d9de          bls.n  2d4e <GPIOTE_IRQHandler+0x1e>
		      2d90:   f44f 70be     mov.w  r0, #380 ; 0x17c
		      2d94:   f7ff fdc4     bl 2920 <nrf_gpiote_event_is_set>
		      2d98:   4603          mov    r3, r0
		      2d9a:   2b00          cmp    r3, #0
		--------------------
	(    2ea2,     2ea0)	
		--------------------
		      2e9a:   68fb          ldr    r3, [r7, #12]
		      2e9c:   2201          movs   r2, #1
		      2e9e:   711a          strb   r2, [r3, #4]
		      2ea0:   2000          movs   r0, #0
		->    2ea2:   f7fe fda7     bl 19f4 <app_util_critical_region_exit>
		      2ea6:   7dfb          ldrb   r3, [r7, #23]
		      2ea8:   2b00          cmp    r3, #0
		      2eaa:   d003          beq.n  2eb4 <nrfx_prs_acquire+0x50>
		      2eac:   2311          movs   r3, #17
		--------------------
	(    3564,     355e)	
		--------------------
		      355c:   697b          ldr    r3, [r7, #20]
		      355e:   4618          mov    r0, r3
		      3560:   3728          adds   r7, #40   ; 0x28
		      3562:   46bd          mov    sp, r7
		->    3564:   bd80          pop    {r7, pc}
		      3566:   bf00          nop
		      3568:   200006f0  .word   0x200006f0
		      356c:   00005fd8  .word   0x00005fd8
		  
		--------------------
	(    3740,     373a)	
		--------------------
		      3738:   697b          ldr    r3, [r7, #20]
		      373a:   4618          mov    r0, r3
		      373c:   3718          adds   r7, #24
		      373e:   46bd          mov    sp, r7
		->    3740:   bd80          pop    {r7, pc}
		      ...
		  
		  00003744 <nrfx_spim_xfer>:
		      3744:   b590          push   {r4, r7, lr}
		--------------------
	(    4542,     4538)	
		--------------------
		      4538:   bf00          nop
		      453a:   370c          adds   r7, #12
		      453c:   46bd          mov    sp, r7
		      453e:   f85d 7b04     ldr.w  r7, [sp], #4
		->    4542:   4770          bx lr
		      4544:   e000e100  .word   0xe000e100
		  
		  00004548 <__NVIC_SetPriority>:
		      4548:   b480          push   {r7}
		--------------------
	(    4d02,     4cfc)	
		--------------------
		      4cfa:   697b          ldr    r3, [r7, #20]
		      4cfc:   4618          mov    r0, r3
		      4cfe:   3718          adds   r7, #24
		      4d00:   46bd          mov    sp, r7
		->    4d02:   bd80          pop    {r7, pc}
		      4d04:   20000740  .word   0x20000740
		      4d08:   00005ff0  .word   0x00005ff0
		  
		  00004d0c <nrfx_uarte_uninit>:
		--------------------
	(    5470,     5466)	
		--------------------
		      5466:   4618          mov    r0, r3
		      5468:   370c          adds   r7, #12
		      546a:   46bd          mov    sp, r7
		      546c:   f85d 7b04     ldr.w  r7, [sp], #4
		->    5470:   4770          bx lr
		      5472:   bf00          nop
		      5474:   f0000fe0  .word   0xf0000fe0
		      5478:   f0000fe8  .word   0xf0000fe8
		  
		--------------------
	(    54b2,     54ae)	
		--------------------
		      54aa:   681b          ldr    r3, [r3, #0]
		      54ac:   603b          str    r3, [r7, #0]
		      54ae:   687b          ldr    r3, [r7, #4]
		      54b0:   2b06          cmp    r3, #6
		->    54b2:   d119          bne.n  54e8 <nrf52_errata_31+0x6c>
		      54b4:   683b          ldr    r3, [r7, #0]
		      54b6:   3b03          subs   r3, #3
		      54b8:   2b03          cmp    r3, #3
		      54ba:   d813          bhi.n  54e4 <nrf52_errata_31+0x68>
		--------------------
	(    54f4,     54ea)	
		--------------------
		      54ea:   4618          mov    r0, r3
		      54ec:   370c          adds   r7, #12
		      54ee:   46bd          mov    sp, r7
		      54f0:   f85d 7b04     ldr.w  r7, [sp], #4
		->    54f4:   4770          bx lr
		      54f6:   bf00          nop
		      54f8:   10000130  .word   0x10000130
		      54fc:   f0000fe0  .word   0xf0000fe0
		      5500:   f0000fe8  .word   0xf0000fe8
		--------------------
	(    5918,     5918)	
		--------------------
		      590e:   0a1b          lsrs   r3, r3, #8
		      5910:   4aa0          ldr    r2, [pc, #640] ; (5b94 <SystemInit+0x298>)
		      5912:   f003 031f     and.w  r3, r3, #31
		      5916:   6013          str    r3, [r2, #0]
		->    5918:   f7ff fd7a     bl 5410 <nrf52_errata_16>
		      591c:   4603          mov    r3, r0
		      591e:   2b00          cmp    r3, #0
		      5920:   d002          beq.n  5928 <SystemInit+0x2c>
		      5922:   4b9d          ldr    r3, [pc, #628] ; (5b98 <SystemInit+0x29c>)
		--------------------
	(    5aa8,     5aa8)	
		--------------------
		      5a9a:   f04f 5380     mov.w  r3, #268435456   ; 0x10000000
		      5a9e:   4a48          ldr    r2, [pc, #288] ; (5bc0 <SystemInit+0x2c4>)
		      5aa0:   f8d3 3444     ldr.w  r3, [r3, #1092]  ; 0x444
		      5aa4:   f8c2 3570     str.w  r3, [r2, #1392]  ; 0x570
		->    5aa8:   f7ff fe5c     bl 5764 <nrf52_errata_108>
		      5aac:   4603          mov    r3, r0
		      5aae:   2b00          cmp    r3, #0
		      5ab0:   d005          beq.n  5abe <SystemInit+0x1c2>
		      5ab2:   4b44          ldr    r3, [pc, #272] ; (5bc4 <SystemInit+0x2c8>)
		--------------------
	(    5b10,     5afa)	
		--------------------
		      5b02:   f443 0370     orr.w  r3, r3, #15728640    ; 0xf00000
		      5b06:   f8c2 3088     str.w  r3, [r2, #136]   ; 0x88
		      5b0a:   f3bf 8f4f     dsb    sy
		      5b0e:   bf00          nop
		->    5b10:   f3bf 8f6f     isb    sy
		      5b14:   bf00          nop
		      5b16:   f04f 2310     mov.w  r3, #268439552   ; 0x10001000
		      5b1a:   f8d3 3200     ldr.w  r3, [r3, #512]   ; 0x200
		      5b1e:   2b00          cmp    r3, #0
		--------------------
	(    5c38,     5c36)	
		--------------------
		      5c30:   1b64          subs   r4, r4, r5
		      5c32:   10a4          asrs   r4, r4, #2
		      5c34:   2600          movs   r6, #0
		      5c36:   42a6          cmp    r6, r4
		->    5c38:   d105          bne.n  5c46 <__libc_init_array+0x2e>
		      5c3a:   bd70          pop    {r4, r5, r6, pc}
		      5c3c:   f855 3b04     ldr.w  r3, [r5], #4
		      5c40:   4798          blx    r3
		      5c42:   3601          adds   r6, #1
		--------------------

spi-o1: 20 | 118
	(     3ac,      39c)	
		--------------------
		       3a4:   463b          mov    r3, r7
		       3a6:   4622          mov    r2, r4
		       3a8:   a902          add    r1, sp, #8
		       3aa:   4630          mov    r0, r6
		->     3ac:   f001 f936     bl 161c <nrf_memobj_read>
		       3b0:   4427          add    r7, r4
		       3b2:   1b2d          subs   r5, r5, r4
		       3b4:   ab0e          add    r3, sp, #56    ; 0x38
		       3b6:   aa0b          add    r2, sp, #44    ; 0x2c
		--------------------
	(     642,      63c)	
		--------------------
		       638:   4770          bx lr
		       63a:   4618          mov    r0, r3
		       63c:   4b02          ldr    r3, [pc, #8]   ; (648 <nrf_log_module_name_get+0x38>)
		       63e:   f853 0030     ldr.w  r0, [r3, r0, lsl #3]
		->     642:   4770          bx lr
		       644:   000032e8  .word   0x000032e8
		       648:   000032a0  .word   0x000032a0
		       64c:   20000034  .word   0x20000034
		  
		--------------------
	(     83e,      6ea)	
		--------------------
		       834:   4824          ldr    r0, [pc, #144] ; (8c8 <nrf_log_frontend_dequeue+0x238>)
		       836:   f000 fe9f     bl 1578 <nrf_memobj_alloc>
		       83a:   4605          mov    r5, r0
		       83c:   2800          cmp    r0, #0
		->     83e:   f43f af54     beq.w  6ea <nrf_log_frontend_dequeue+0x5a>
		       842:   f000 fecc     bl 15de <nrf_memobj_get>
		       846:   2300          movs   r3, #0
		       848:   2208          movs   r2, #8
		       84a:   4669          mov    r1, sp
		--------------------
	(     83e,      842)	
		--------------------
		       834:   4824          ldr    r0, [pc, #144] ; (8c8 <nrf_log_frontend_dequeue+0x238>)
		       836:   f000 fe9f     bl 1578 <nrf_memobj_alloc>
		       83a:   4605          mov    r5, r0
		       83c:   2800          cmp    r0, #0
		->     83e:   f43f af54     beq.w  6ea <nrf_log_frontend_dequeue+0x5a>
		       842:   f000 fecc     bl 15de <nrf_memobj_get>
		       846:   2300          movs   r3, #0
		       848:   2208          movs   r2, #8
		       84a:   4669          mov    r1, sp
		--------------------
	(     e52,      4b6)	
		--------------------
		       e46:   aa01          add    r2, sp, #4
		       e48:   f244 0001     movw   r0, #16385    ; 0x4001
		       e4c:   f000 f804     bl e58 <app_error_fault_handler>
		       e50:   b005          add    sp, #20
		->     e52:   f85d fb04     ldr.w  pc, [sp], #4
		      ...
		  
		  00000e58 <app_error_fault_handler>:
		       e58:   b510          push   {r4, lr}
		--------------------
	(    1004,     1002)	
		--------------------
		       ffc:   4299          cmp    r1, r3
		       ffe:   d200          bcs.n  1002 <nrf_balloc_alloc+0x36>
		      1000:   7113          strb   r3, [r2, #4]
		      1002:   2000          movs   r0, #0
		->    1004:   f7ff ff76     bl ef4 <app_util_critical_region_exit>
		      1008:   4628          mov    r0, r5
		      100a:   bd38          pop    {r3, r4, r5, pc}
		      100c:   2500          movs   r5, #0
		      100e:   e7f8          b.n    1002 <nrf_balloc_alloc+0x36>
		--------------------
	(    1110,     110a)	
		--------------------
		      1106:   e7ed          b.n    10e4 <unsigned_print+0x48>
		      1108:   3e01          subs   r6, #1
		      110a:   fb05 f404     mul.w  r4, r5, r4
		      110e:   2e01          cmp    r6, #1
		->    1110:   d8fa          bhi.n  1108 <unsigned_print+0x6c>
		      1112:   fbb7 f3f4     udiv   r3, r7, r4
		      1116:   429d          cmp    r5, r3
		      1118:   d9f7          bls.n  110a <unsigned_print+0x6e>
		      111a:   4e10          ldr    r6, [pc, #64]  ; (115c <unsigned_print+0xc0>)
		--------------------
	(    1110,     110e)	
		--------------------
		      1106:   e7ed          b.n    10e4 <unsigned_print+0x48>
		      1108:   3e01          subs   r6, #1
		      110a:   fb05 f404     mul.w  r4, r5, r4
		      110e:   2e01          cmp    r6, #1
		->    1110:   d8fa          bhi.n  1108 <unsigned_print+0x6c>
		      1112:   fbb7 f3f4     udiv   r3, r7, r4
		      1116:   429d          cmp    r5, r3
		      1118:   d9f7          bls.n  110a <unsigned_print+0x6e>
		      111a:   4e10          ldr    r6, [pc, #64]  ; (115c <unsigned_print+0xc0>)
		--------------------
	(    1128,     111c)	
		--------------------
		      111c:   fbb7 f3f4     udiv   r3, r7, r4
		      1120:   fb04 7713     mls    r7, r4, r3, r7
		      1124:   5cf1          ldrb   r1, [r6, r3]
		      1126:   4648          mov    r0, r9
		->    1128:   f7ff ffa1     bl 106e <buffer_add>
		      112c:   4623          mov    r3, r4
		      112e:   fbb4 f4f5     udiv   r4, r4, r5
		      1132:   42ab          cmp    r3, r5
		      1134:   d2f2          bcs.n  111c <unsigned_print+0x80>
		--------------------
	(    11bc,     11b8)	
		--------------------
		      11b4:   681d          ldr    r5, [r3, #0]
		      11b6:   3401          adds   r4, #1
		      11b8:   7823          ldrb   r3, [r4, #0]
		      11ba:   2b2e          cmp    r3, #46    ; 0x2e
		->    11bc:   d012          beq.n  11e4 <nrf_fprintf_fmt+0x84>
		      11be:   f04f 0800     mov.w  r8, #0
		      11c2:   7823          ldrb   r3, [r4, #0]
		      11c4:   e02c          b.n    1220 <nrf_fprintf_fmt+0xc0>
		      11c6:   eb05 0585     add.w  r5, r5, r5, lsl #2
		--------------------
	(    197e,     1980)	
		--------------------
		  00001978 <UARTE0_UART0_IRQHandler>:
		      1978:   b508          push   {r3, lr}
		      197a:   4b02          ldr    r3, [pc, #8]   ; (1984 <UARTE0_UART0_IRQHandler+0xc>)
		      197c:   681b          ldr    r3, [r3, #0]
		->    197e:   4798          blx    r3
		      1980:   bd08          pop    {r3, pc}
		      1982:   bf00          nop
		      1984:   200006b0  .word   0x200006b0
		  
		--------------------
	(    19b2,     1a76)	
		--------------------
		      19a8:   f7ff faa4     bl ef4 <app_util_critical_region_exit>
		      19ac:   2000          movs   r0, #0
		      19ae:   bd10          pop    {r4, pc}
		      19b0:   2000          movs   r0, #0
		->    19b2:   4770          bx lr
		      19b4:   2000          movs   r0, #0
		      19b6:   f7ff fa9d     bl ef4 <app_util_critical_region_exit>
		      19ba:   2011          movs   r0, #17
		      19bc:   e7f7          b.n    19ae <nrfx_prs_acquire+0x26>
		--------------------
	(    1c9c,     1c96)	
		--------------------
		      1c8e:   f04f 42a0     mov.w  r2, #1342177280  ; 0x50000000
		      1c92:   f8c2 3508     str.w  r3, [r2, #1288]  ; 0x508
		      1c96:   682b          ldr    r3, [r5, #0]
		      1c98:   f8de 2000     ldr.w  r2, [lr]
		->    1c9c:   b122          cbz    r2, 1ca8 <nrfx_spim_xfer+0x80>
		      1c9e:   f002 4160     and.w  r1, r2, #3758096384  ; 0xe0000000
		      1ca2:   f1b1 5f00     cmp.w  r1, #536870912   ; 0x20000000
		      1ca6:   d148          bne.n  1d3a <nrfx_spim_xfer+0x112>
		      1ca8:   f8de 1008     ldr.w  r1, [lr, #8]
		--------------------
	(    24ae,     24a8)	
		--------------------
		      24a2:   2103          movs   r1, #3
		      24a4:   f842 1023     str.w  r1, [r2, r3, lsl #2]
		      24a8:   686b          ldr    r3, [r5, #4]
		      24aa:   f1b3 3fff     cmp.w  r3, #4294967295  ; 0xffffffff
		->    24ae:   d006          beq.n  24be <nrfx_uarte_init+0x66>
		      24b0:   f503 73e0     add.w  r3, r3, #448 ; 0x1c0
		      24b4:   f04f 42a0     mov.w  r2, #1342177280  ; 0x50000000
		      24b8:   2100          movs   r1, #0
		      24ba:   f842 1023     str.w  r1, [r2, r3, lsl #2]
		--------------------
	(    24e4,     24be)	
		--------------------
		      24d8:   f8c3 150c     str.w  r1, [r3, #1292]  ; 0x50c
		      24dc:   f8c3 2514     str.w  r2, [r3, #1300]  ; 0x514
		      24e0:   7d2b          ldrb   r3, [r5, #20]
		      24e2:   2b01          cmp    r3, #1
		->    24e4:   d063          beq.n  25ae <nrfx_uarte_init+0x156>
		      24e6:   4b49          ldr    r3, [pc, #292] ; (260c <nrfx_uarte_init+0x1b4>)
		      24e8:   eb06 02c6     add.w  r2, r6, r6, lsl #3
		      24ec:   eb03 0182     add.w  r1, r3, r2, lsl #2
		      24f0:   604f          str    r7, [r1, #4]
		--------------------
	(    25ac,     2588)	
		--------------------
		      25a2:   461a          mov    r2, r3
		      25a4:   2301          movs   r3, #1
		      25a6:   f882 3020     strb.w r3, [r2, #32]
		      25aa:   b007          add    sp, #28
		->    25ac:   bdf0          pop    {r4, r5, r6, r7, pc}
		      25ae:   68ab          ldr    r3, [r5, #8]
		      25b0:   f1b3 3fff     cmp.w  r3, #4294967295  ; 0xffffffff
		      25b4:   d006          beq.n  25c4 <nrfx_uarte_init+0x16c>
		      25b6:   f503 73e0     add.w  r3, r3, #448 ; 0x1c0
		--------------------
	(    2706,     2702)	
		--------------------
		      26f8:   f04f 43a0     mov.w  r3, #1342177280  ; 0x50000000
		      26fc:   2202          movs   r2, #2
		      26fe:   f843 202c     str.w  r2, [r3, ip, lsl #2]
		      2702:   f1b7 3fff     cmp.w  r7, #4294967295  ; 0xffffffff
		->    2706:   d006          beq.n  2716 <nrfx_uarte_uninit+0xf6>
		      2708:   f507 77e0     add.w  r7, r7, #448 ; 0x1c0
		      270c:   f04f 43a0     mov.w  r3, #1342177280  ; 0x50000000
		      2710:   2202          movs   r2, #2
		      2712:   f843 2027     str.w  r2, [r3, r7, lsl #2]
		--------------------
	(    2a38,     2a2e)	
		--------------------
		      2a2a:   f8c3 2538     str.w  r2, [r3, #1336]  ; 0x538
		      2a2e:   f04f 4370     mov.w  r3, #4026531840  ; 0xf0000000
		      2a32:   f893 3fe0     ldrb.w r3, [r3, #4064] ; 0xfe0
		      2a36:   2b06          cmp    r3, #6
		->    2a38:   d053          beq.n  2ae2 <SystemInit+0x152>
		      2a3a:   f04f 5380     mov.w  r3, #268435456   ; 0x10000000
		      2a3e:   f8d3 2130     ldr.w  r2, [r3, #304]   ; 0x130
		      2a42:   f1b2 3fff     cmp.w  r2, #4294967295  ; 0xffffffff
		      2a46:   d075          beq.n  2b34 <SystemInit+0x1a4>
		--------------------
	(    2a60,     2a5e)	
		--------------------
		      2a52:   f000 80a4     beq.w  2b9e <SystemInit+0x20e>
		      2a56:   f04f 5380     mov.w  r3, #268435456   ; 0x10000000
		      2a5a:   f8d3 3130     ldr.w  r3, [r3, #304]   ; 0x130
		      2a5e:   2b06          cmp    r3, #6
		->    2a60:   d078          beq.n  2b54 <SystemInit+0x1c4>
		      2a62:   f04f 5380     mov.w  r3, #268435456   ; 0x10000000
		      2a66:   f8d3 3130     ldr.w  r3, [r3, #304]   ; 0x130
		      2a6a:   2b06          cmp    r3, #6
		      2a6c:   f000 80ea     beq.w  2c44 <SystemInit+0x2b4>
		--------------------
	(    2c3e,     2c32)	
		--------------------
		      2c2e:   f8c3 2570     str.w  r2, [r3, #1392]  ; 0x570
		      2c32:   f04f 5380     mov.w  r3, #268435456   ; 0x10000000
		      2c36:   f8d3 3130     ldr.w  r3, [r3, #304]   ; 0x130
		      2c3a:   f1b3 3fff     cmp.w  r3, #4294967295  ; 0xffffffff
		->    2c3e:   f47f af0e     bne.w  2a5e <SystemInit+0xce>
		      2c42:   e781          b.n    2b48 <SystemInit+0x1b8>
		      2c44:   f04f 5380     mov.w  r3, #268435456   ; 0x10000000
		      2c48:   f8d3 3134     ldr.w  r3, [r3, #308]   ; 0x134
		      2c4c:   3b03          subs   r3, #3
		--------------------

spi-o2: 20 | 68
	(     216,      212)	
		--------------------
		       20c:   4804          ldr    r0, [pc, #16]  ; (220 <__do_global_dtors_aux+0x20>)
		       20e:   f3af 8000     nop.w
		       212:   2301          movs   r3, #1
		       214:   7023          strb   r3, [r4, #0]
		->     216:   bd10          pop    {r4, pc}
		       218:   20000034  .word   0x20000034
		       21c:   00000000  .word   0x00000000
		       220:   00003448  .word   0x00003448
		  
		--------------------
	(     900,      8f2)	
		--------------------
		       8f6:   4643          mov    r3, r8
		       8f8:   2204          movs   r2, #4
		       8fa:   eb04 0181     add.w  r1, r4, r1, lsl #2
		       8fe:   4638          mov    r0, r7
		->     900:   f000 ff7a     bl 17f8 <nrf_memobj_write>
		       904:   f8bd 3004     ldrh.w r3, [sp, #4]
		       908:   3601          adds   r6, #1
		       90a:   f3c3 1383     ubfx   r3, r3, #6, #4
		       90e:   eb09 0206     add.w  r2, r9, r6
		--------------------
	(     aae,      aae)	
		--------------------
		       aa4:   b430          push   {r4, r5}
		       aa6:   4d16          ldr    r5, [pc, #88]  ; (b00 <nrf_log_backend_add+0x5c>)
		       aa8:   f8d5 4410     ldr.w  r4, [r5, #1040]  ; 0x410
		       aac:   2100          movs   r1, #0
		->     aae:   b17c          cbz    r4, ad0 <nrf_log_backend_add+0x2c>
		       ab0:   4623          mov    r3, r4
		       ab2:   e001          b.n    ab8 <nrf_log_backend_add+0x14>
		       ab4:   681b          ldr    r3, [r3, #0]
		       ab6:   b15b          cbz    r3, ad0 <nrf_log_backend_add+0x2c>
		--------------------
	(     de8,      de4)	
		--------------------
		       dd8:   f8c3 2738     str.w  r2, [r3, #1848]  ; 0x738
		       ddc:   f8c3 273c     str.w  r2, [r3, #1852]  ; 0x73c
		       de0:   f8c3 2740     str.w  r2, [r3, #1856]  ; 0x740
		       de4:   f85d 4b04     ldr.w  r4, [sp], #4
		->     de8:   4770          bx lr
		       dea:   f04f 43a0     mov.w  r3, #1342177280  ; 0x50000000
		       dee:   2203          movs   r2, #3
		       df0:   f44f 3100     mov.w  r1, #131072  ; 0x20000
		       df4:   f8c3 2744     str.w  r2, [r3, #1860]  ; 0x744
		--------------------
	(     ecc,      fd4)	
		--------------------
		       ec4:   3b01          subs   r3, #1
		       ec6:   6013          str    r3, [r2, #0]
		       ec8:   b903          cbnz   r3, ecc <app_util_critical_region_exit+0xc>
		       eca:   b662          cpsie  i
		->     ecc:   4770          bx lr
		       ece:   bf00          nop
		       ed0:   20000620  .word   0x20000620
		  
		  00000ed4 <RTC1_IRQHandler>:
		--------------------
	(     fd0,      fce)	
		--------------------
		       fc8:   429a          cmp    r2, r3
		       fca:   d200          bcs.n  fce <nrf_balloc_alloc+0x36>
		       fcc:   710b          strb   r3, [r1, #4]
		       fce:   2000          movs   r0, #0
		->     fd0:   f7ff ff76     bl ec0 <app_util_critical_region_exit>
		       fd4:   4620          mov    r0, r4
		       fd6:   bd38          pop    {r3, r4, r5, pc}
		       fd8:   2400          movs   r4, #0
		       fda:   2000          movs   r0, #0
		--------------------
	(    178a,     1788)	
		--------------------
		      1782:   42af          cmp    r7, r5
		      1784:   d8f6          bhi.n  1774 <nrf_memobj_alloc+0x70>
		      1786:   2400          movs   r4, #0
		      1788:   4620          mov    r0, r4
		->    178a:   e8bd 81f0     ldmia.w    sp!, {r4, r5, r6, r7, r8, pc}
		      178e:   6820          ldr    r0, [r4, #0]
		      1790:   4621          mov    r1, r4
		      1792:   f7ff fc27     bl fe4 <nrf_balloc_free>
		      1796:   e7f6          b.n    1786 <nrf_memobj_alloc+0x82>
		--------------------
	(    17e0,     17da)	
		--------------------
		      17d8:   6836          ldr    r6, [r6, #0]
		      17da:   4621          mov    r1, r4
		      17dc:   4640          mov    r0, r8
		      17de:   3501          adds   r5, #1
		->    17e0:   f7ff fc00     bl fe4 <nrf_balloc_free>
		      17e4:   42af          cmp    r7, r5
		      17e6:   d8f6          bhi.n  17d6 <nrf_memobj_put+0x36>
		      17e8:   e8bd 81f0     ldmia.w    sp!, {r4, r5, r6, r7, r8, pc}
		      17ec:   6820          ldr    r0, [r4, #0]
		--------------------
	(    1a9c,     1a96)	
		--------------------
		      1a90:   4d31          ldr    r5, [pc, #196] ; (1b58 <GPIOTE_IRQHandler+0x188>)
		      1a92:   f04f 0801     mov.w  r8, #1
		      1a96:   f915 0f01     ldrsb.w    r0, [r5, #1]!
		      1a9a:   1c43          adds   r3, r0, #1
		->    1a9c:   d03a          beq.n  1b14 <GPIOTE_IRQHandler+0x144>
		      1a9e:   f3c0 02c2     ubfx   r2, r0, #3, #3
		      1aa2:   f102 0310     add.w  r3, r2, #16
		      1aa6:   eb0d 0203     add.w  r2, sp, r3
		      1aaa:   f000 0307     and.w  r3, r0, #7
		--------------------
	(    1db2,     1da2)	
		--------------------
		      1daa:   2301          movs   r3, #1
		      1dac:   776a          strb   r2, [r5, #29]
		      1dae:   772b          strb   r3, [r5, #28]
		      1db0:   b003          add    sp, #12
		->    1db2:   e8bd 8ff0     ldmia.w    sp!, {r4, r5, r6, r7, r8, r9, sl, fp, pc}
		      1db6:   2008          movs   r0, #8
		      1db8:   b003          add    sp, #12
		      1dba:   e8bd 8ff0     ldmia.w    sp!, {r4, r5, r6, r7, r8, r9, sl, fp, pc}
		      1dbe:   f894 c002     ldrb.w ip, [r4, #2]
		--------------------
	(    1e6c,     1e50)	
		--------------------
		      1e5c:   f897 a01f     ldrb.w sl, [r7, #31]
		      1e60:   f107 090c     add.w  r9, r7, #12
		      1e64:   f1ba 0fff     cmp.w  sl, #255 ; 0xff
		      1e68:   e889 000f     stmia.w    r9, {r0, r1, r2, r3}
		->    1e6c:   d009          beq.n  1e82 <nrfx_spim_xfer+0x66>
		      1e6e:   7fbb          ldrb   r3, [r7, #30]
		      1e70:   2b00          cmp    r3, #0
		      1e72:   d062          beq.n  1f3a <nrfx_spim_xfer+0x11e>
		      1e74:   2301          movs   r3, #1
		--------------------
	(    1e88,     1e82)	
		--------------------
		      1e7a:   fa03 f30a     lsl.w  r3, r3, sl
		      1e7e:   f8c2 3508     str.w  r3, [r2, #1288]  ; 0x508
		      1e82:   f8dc 2000     ldr.w  r2, [ip]
		      1e86:   6833          ldr    r3, [r6, #0]
		->    1e88:   b122          cbz    r2, 1e94 <nrfx_spim_xfer+0x78>
		      1e8a:   f002 4160     and.w  r1, r2, #3758096384  ; 0xe0000000
		      1e8e:   f1b1 5f00     cmp.w  r1, #536870912   ; 0x20000000
		      1e92:   d15a          bne.n  1f4a <nrfx_spim_xfer+0x12e>
		      1e94:   f8dc 1008     ldr.w  r1, [ip, #8]
		--------------------
	(    277e,     277a)	
		--------------------
		      2774:   2100          movs   r1, #0
		      2776:   f842 1023     str.w  r1, [r2, r3, lsl #2]
		      277a:   68eb          ldr    r3, [r5, #12]
		      277c:   1c5a          adds   r2, r3, #1
		->    277e:   d00d          beq.n  279c <nrfx_uarte_init+0x1ac>
		      2780:   f04f 41a0     mov.w  r1, #1342177280  ; 0x50000000
		      2784:   2201          movs   r2, #1
		      2786:   fa02 f303     lsl.w  r3, r2, r3
		      278a:   f8c1 3508     str.w  r3, [r1, #1288]  ; 0x508
		--------------------
	(    27a8,     279c)	
		--------------------
		      279c:   6822          ldr    r2, [r4, #0]
		      279e:   68a9          ldr    r1, [r5, #8]
		      27a0:   f8c2 3508     str.w  r3, [r2, #1288]  ; 0x508
		      27a4:   f8c2 1510     str.w  r1, [r2, #1296]  ; 0x510
		->    27a8:   e76a          b.n    2680 <nrfx_uarte_init+0x90>
		      27aa:   bf00          nop
		      27ac:   20000708  .word   0x20000708
		      27b0:   00002485  .word   0x00002485
		      27b4:   00420310  .word   0x00420310
		--------------------
	(    2ab0,     2aac)	
		--------------------
		      2aa4:   d1fb          bne.n  2a9e <main+0x92>
		      2aa6:   f7fe f97b     bl da0 <bsp_board_led_invert>
		      2aaa:   24c8          movs   r4, #200  ; 0xc8
		      2aac:   f44f 407a     mov.w  r0, #64000   ; 0xfa00
		->    2ab0:   47b0          blx    r6
		      2ab2:   3c01          subs   r4, #1
		      2ab4:   d1fa          bne.n  2aac <main+0xa0>
		      2ab6:   e7dc          b.n    2a72 <main+0x66>
		      2ab8:   f7fe f9b4     bl e24 <app_error_handler_bare>
		--------------------
	(    2b6c,     2b62)	
		--------------------
		      2b5e:   f8c2 353c     str.w  r3, [r2, #1340]  ; 0x53c
		      2b62:   f04f 4370     mov.w  r3, #4026531840  ; 0xf0000000
		      2b66:   f893 2fe0     ldrb.w r2, [r3, #4064] ; 0xfe0
		      2b6a:   2a06          cmp    r2, #6
		->    2b6c:   f000 8103     beq.w  2d76 <SystemInit+0x27a>
		      2b70:   f04f 5380     mov.w  r3, #268435456   ; 0x10000000
		      2b74:   f8d3 3130     ldr.w  r3, [r3, #304]   ; 0x130
		      2b78:   1c5a          adds   r2, r3, #1
		      2b7a:   bf04          itt    eq
		--------------------
	(    2ed0,     2eb2)	
		--------------------
		      2ec8:   4402          add    r2, r0
		      2eca:   4603          mov    r3, r0
		      2ecc:   4293          cmp    r3, r2
		      2ece:   d100          bne.n  2ed2 <memset+0xa>
		->    2ed0:   4770          bx lr
		      2ed2:   f803 1b01     strb.w r1, [r3], #1
		      2ed6:   e7f9          b.n    2ecc <memset+0x4>
		  
		  00002ed8 <__libc_init_array>:
		--------------------
	(    2ee6,     2ee4)	
		--------------------
		      2ede:   1b64          subs   r4, r4, r5
		      2ee0:   10a4          asrs   r4, r4, #2
		      2ee2:   2600          movs   r6, #0
		      2ee4:   42a6          cmp    r6, r4
		->    2ee6:   d109          bne.n  2efc <__libc_init_array+0x24>
		      2ee8:   4d0b          ldr    r5, [pc, #44]  ; (2f18 <__libc_init_array+0x40>)
		      2eea:   4c0c          ldr    r4, [pc, #48]  ; (2f1c <__libc_init_array+0x44>)
		      2eec:   f000 f900     bl 30f0 <_init>
		      2ef0:   1b64          subs   r4, r4, r5
		--------------------
	(    2ef8,     2ef6)	
		--------------------
		      2ef0:   1b64          subs   r4, r4, r5
		      2ef2:   10a4          asrs   r4, r4, #2
		      2ef4:   2600          movs   r6, #0
		      2ef6:   42a6          cmp    r6, r4
		->    2ef8:   d105          bne.n  2f06 <__libc_init_array+0x2e>
		      2efa:   bd70          pop    {r4, r5, r6, pc}
		      2efc:   f855 3b04     ldr.w  r3, [r5], #4
		      2f00:   4798          blx    r3
		      2f02:   3601          adds   r6, #1
		--------------------
	(    2ffc,     2fde)	
		--------------------
		      2ff0:   4313          orrs   r3, r2
		      2ff2:   f8c0 3100     str.w  r3, [r0, #256]   ; 0x100
		      2ff6:   2e02          cmp    r6, #2
		      2ff8:   f8c1 7080     str.w  r7, [r1, #128]   ; 0x80
		->    2ffc:   bf02          ittt   eq
		      2ffe:   f8d0 3104     ldreq.w    r3, [r0, #260] ; 0x104
		      3002:   4313          orreq  r3, r2
		      3004:   f8c0 3104     streq.w    r3, [r0, #260] ; 0x104
		      3008:   6863          ldr    r3, [r4, #4]
		--------------------

spi-o3: 20 | 65
	(     6d4,      6c8)	
		--------------------
		       6c8:   b2ea          uxtb   r2, r5
		       6ca:   f8d4 0418     ldr.w  r0, [r4, #1048]  ; 0x418
		       6ce:   1cd3          adds   r3, r2, #3
		       6d0:   eb04 0183     add.w  r1, r4, r3, lsl #2
		->     6d4:   b928          cbnz   r0, 6e2 <nrf_log_frontend_dequeue+0x5e>
		       6d6:   42ae          cmp    r6, r5
		       6d8:   d939          bls.n  74e <nrf_log_frontend_dequeue+0xca>
		       6da:   f814 3023     ldrb.w r3, [r4, r3, lsl #2]
		       6de:   075b          lsls   r3, r3, #29
		--------------------
	(     a9e,      a9e)	
		--------------------
		       a94:   b430          push   {r4, r5}
		       a96:   4d16          ldr    r5, [pc, #88]  ; (af0 <nrf_log_backend_add+0x5c>)
		       a98:   f8d5 4410     ldr.w  r4, [r5, #1040]  ; 0x410
		       a9c:   2100          movs   r1, #0
		->     a9e:   b17c          cbz    r4, ac0 <nrf_log_backend_add+0x2c>
		       aa0:   4623          mov    r3, r4
		       aa2:   e001          b.n    aa8 <nrf_log_backend_add+0x14>
		       aa4:   681b          ldr    r3, [r3, #0]
		       aa6:   b15b          cbz    r3, ac0 <nrf_log_backend_add+0x2c>
		--------------------
	(     df2,      df0)	
		--------------------
		       de4:   f8c3 4508     str.w  r4, [r3, #1288]  ; 0x508
		       de8:   f8c3 1508     str.w  r1, [r3, #1288]  ; 0x508
		       dec:   f8c3 2508     str.w  r2, [r3, #1288]  ; 0x508
		       df0:   0783          lsls   r3, r0, #30
		->     df2:   d50a          bpl.n  e0a <bsp_board_init+0x56>
		       df4:   f04f 43a0     mov.w  r3, #1342177280  ; 0x50000000
		       df8:   220c          movs   r2, #12
		       dfa:   f8c3 2734     str.w  r2, [r3, #1844]  ; 0x734
		       dfe:   f8c3 2738     str.w  r2, [r3, #1848]  ; 0x738
		--------------------
	(    1772,     176c)	
		--------------------
		      176a:   6836          ldr    r6, [r6, #0]
		      176c:   4621          mov    r1, r4
		      176e:   4640          mov    r0, r8
		      1770:   3501          adds   r5, #1
		->    1772:   f7ff fc2d     bl fd0 <nrf_balloc_free>
		      1776:   42af          cmp    r7, r5
		      1778:   d8f6          bhi.n  1768 <nrf_memobj_alloc+0x70>
		      177a:   2400          movs   r4, #0
		      177c:   4620          mov    r0, r4
		--------------------
	(    1b3a,     1b24)	
		--------------------
		      1b2c:   f103 4380     add.w  r3, r3, #1073741824  ; 0x40000000
		      1b30:   422e          tst    r6, r5
		      1b32:   f503 43c0     add.w  r3, r3, #24576   ; 0x6000
		      1b36:   ea4f 0545     mov.w  r5, r5, lsl #1
		->    1b3a:   d00b          beq.n  1b54 <GPIOTE_IRQHandler+0xf0>
		      1b3c:   f8d3 0510     ldr.w  r0, [r3, #1296]  ; 0x510
		      1b40:   f857 2024     ldr.w  r2, [r7, r4, lsl #2]
		      1b44:   f8d3 1510     ldr.w  r1, [r3, #1296]  ; 0x510
		      1b48:   f3c0 2004     ubfx   r0, r0, #8, #5
		--------------------
	(    1b6c,     1b66)	
		--------------------
		      1b60:   2501          movs   r5, #1
		      1b62:   f04f 46a0     mov.w  r6, #1342177280  ; 0x50000000
		      1b66:   f994 3050     ldrsb.w    r3, [r4, #80]  ; 0x50
		      1b6a:   1c5f          adds   r7, r3, #1
		->    1b6c:   d03d          beq.n  1bea <GPIOTE_IRQHandler+0x186>
		      1b6e:   f3c3 02c2     ubfx   r2, r3, #3, #3
		      1b72:   3210          adds   r2, #16
		      1b74:   446a          add    r2, sp
		      1b76:   b2d9          uxtb   r1, r3
		--------------------
	(    208e,     204e)	
		--------------------
		      2086:   3a00          subs   r2, #0
		      2088:   bf18          it ne
		      208a:   2201          movne  r2, #1
		      208c:   2902          cmp    r1, #2
		->    208e:   d060          beq.n  2152 <Heap_Size+0x152>
		      2090:   2903          cmp    r1, #3
		      2092:   d05b          beq.n  214c <Heap_Size+0x14c>
		      2094:   2901          cmp    r1, #1
		      2096:   d056          beq.n  2146 <Heap_Size+0x146>
		--------------------
	(    208e,     206e)	
		--------------------
		      2086:   3a00          subs   r2, #0
		      2088:   bf18          it ne
		      208a:   2201          movne  r2, #1
		      208c:   2902          cmp    r1, #2
		->    208e:   d060          beq.n  2152 <Heap_Size+0x152>
		      2090:   2903          cmp    r1, #3
		      2092:   d05b          beq.n  214c <Heap_Size+0x14c>
		      2094:   2901          cmp    r1, #1
		      2096:   d056          beq.n  2146 <Heap_Size+0x146>
		--------------------
	(    20da,     20ce)	
		--------------------
		      20ce:   682a          ldr    r2, [r5, #0]
		      20d0:   f342 3107     sbfx   r1, r2, #12, #8
		      20d4:   2900          cmp    r1, #0
		      20d6:   ea4f 3212     mov.w  r2, r2, lsr #12
		->    20da:   db08          blt.n  20ee <Heap_Size+0xee>
		      20dc:   4d20          ldr    r5, [pc, #128] ; (2160 <Heap_Size+0x160>)
		      20de:   0949          lsrs   r1, r1, #5
		      20e0:   2401          movs   r4, #1
		      20e2:   f002 021f     and.w  r2, r2, #31
		--------------------
	(    20fe,     20ee)	
		--------------------
		      20f6:   2301          movs   r3, #1
		      20f8:   7772          strb   r2, [r6, #29]
		      20fa:   7733          strb   r3, [r6, #28]
		      20fc:   b003          add    sp, #12
		->    20fe:   e8bd 8ff0     ldmia.w    sp!, {r4, r5, r6, r7, r8, r9, sl, fp, pc}
		      2102:   2008          movs   r0, #8
		      2104:   b003          add    sp, #12
		      2106:   e8bd 8ff0     ldmia.w    sp!, {r4, r5, r6, r7, r8, r9, sl, fp, pc}
		      210a:   f894 c002     ldrb.w ip, [r4, #2]
		--------------------
	(    257c,     2570)	
		--------------------
		      2570:   682b          ldr    r3, [r5, #0]
		      2572:   f343 3207     sbfx   r2, r3, #12, #8
		      2576:   2a00          cmp    r2, #0
		      2578:   ea4f 3113     mov.w  r1, r3, lsr #12
		->    257c:   db08          blt.n  2590 <nrfx_uart_init+0x100>
		      257e:   4c29          ldr    r4, [pc, #164] ; (2624 <nrfx_uart_init+0x194>)
		      2580:   0952          lsrs   r2, r2, #5
		      2582:   f001 011f     and.w  r1, r1, #31
		      2586:   2301          movs   r3, #1
		--------------------
	(    25b0,     258e)	
		--------------------
		      25a4:   f886 3029     strb.w r3, [r6, #41]   ; 0x29
		      25a8:   6173          str    r3, [r6, #20]
		      25aa:   f886 202a     strb.w r2, [r6, #42]   ; 0x2a
		      25ae:   b002          add    sp, #8
		->    25b0:   e8bd 81f0     ldmia.w    sp!, {r4, r5, r6, r7, r8, pc}
		      25b4:   2011          movs   r0, #17
		      25b6:   b002          add    sp, #8
		      25b8:   e8bd 81f0     ldmia.w    sp!, {r4, r5, r6, r7, r8, pc}
		      25bc:   2008          movs   r0, #8
		--------------------
	(    25ea,     25e6)	
		--------------------
		      25e0:   2100          movs   r1, #0
		      25e2:   f842 1023     str.w  r1, [r2, r3, lsl #2]
		      25e6:   68e3          ldr    r3, [r4, #12]
		      25e8:   1c5a          adds   r2, r3, #1
		->    25ea:   d00d          beq.n  2608 <nrfx_uart_init+0x178>
		      25ec:   f04f 41a0     mov.w  r1, #1342177280  ; 0x50000000
		      25f0:   2201          movs   r2, #1
		      25f2:   fa02 f303     lsl.w  r3, r2, r3
		      25f6:   f8c1 3508     str.w  r3, [r1, #1288]  ; 0x508
		--------------------
	(    29b0,     29ac)	
		--------------------
		      29a6:   2203          movs   r2, #3
		      29a8:   f841 2023     str.w  r2, [r1, r3, lsl #2]
		      29ac:   686b          ldr    r3, [r5, #4]
		      29ae:   1c5a          adds   r2, r3, #1
		->    29b0:   d006          beq.n  29c0 <nrfx_uarte_init+0x68>
		      29b2:   f503 73e0     add.w  r3, r3, #448 ; 0x1c0
		      29b6:   f04f 42a0     mov.w  r2, #1342177280  ; 0x50000000
		      29ba:   2100          movs   r1, #0
		      29bc:   f842 1023     str.w  r1, [r2, r3, lsl #2]
		--------------------
	(    2aac,     2a8e)	
		--------------------
		      2aa0:   f8c2 1500     str.w  r1, [r2, #1280]  ; 0x500
		      2aa4:   e9c6 3306     strd   r3, r3, [r6, #24]
		      2aa8:   6173          str    r3, [r6, #20]
		      2aaa:   b007          add    sp, #28
		->    2aac:   e8bd 83f0     ldmia.w    sp!, {r4, r5, r6, r7, r8, r9, pc}
		      2ab0:   2011          movs   r0, #17
		      2ab2:   b007          add    sp, #28
		      2ab4:   e8bd 83f0     ldmia.w    sp!, {r4, r5, r6, r7, r8, r9, pc}
		      2ab8:   2008          movs   r0, #8
		--------------------
	(    2de0,     2dda)	
		--------------------
		      2dd6:   f04f 0900     mov.w  r9, #0
		      2dda:   2207          movs   r2, #7
		      2ddc:   2100          movs   r1, #0
		      2dde:   4640          mov    r0, r8
		->    2de0:   f000 fa1e     bl 3220 <memset>
		      2de4:   481c          ldr    r0, [pc, #112] ; (2e58 <main+0xe4>)
		      2de6:   f885 9000     strb.w r9, [r5]
		      2dea:   2200          movs   r2, #0
		      2dec:   a904          add    r1, sp, #16
		--------------------
	(    3228,     320a)	
		--------------------
		      3220:   4402          add    r2, r0
		      3222:   4603          mov    r3, r0
		      3224:   4293          cmp    r3, r2
		      3226:   d100          bne.n  322a <memset+0xa>
		->    3228:   4770          bx lr
		      322a:   f803 1b01     strb.w r1, [r3], #1
		      322e:   e7f9          b.n    3224 <memset+0x4>
		  
		  00003230 <__libc_init_array>:
		--------------------
	(    323e,     323c)	
		--------------------
		      3236:   1b64          subs   r4, r4, r5
		      3238:   10a4          asrs   r4, r4, #2
		      323a:   2600          movs   r6, #0
		      323c:   42a6          cmp    r6, r4
		->    323e:   d109          bne.n  3254 <__libc_init_array+0x24>
		      3240:   4d0b          ldr    r5, [pc, #44]  ; (3270 <__libc_init_array+0x40>)
		      3242:   4c0c          ldr    r4, [pc, #48]  ; (3274 <__libc_init_array+0x44>)
		      3244:   f000 f900     bl 3448 <_init>
		      3248:   1b64          subs   r4, r4, r5
		--------------------
	(    3250,     324e)	
		--------------------
		      3248:   1b64          subs   r4, r4, r5
		      324a:   10a4          asrs   r4, r4, #2
		      324c:   2600          movs   r6, #0
		      324e:   42a6          cmp    r6, r4
		->    3250:   d105          bne.n  325e <__libc_init_array+0x2e>
		      3252:   bd70          pop    {r4, r5, r6, pc}
		      3254:   f855 3b04     ldr.w  r3, [r5], #4
		      3258:   4798          blx    r3
		      325a:   3601          adds   r6, #1
		--------------------
	(    3370,     3336)	
		--------------------
		      3366:   1c5a          adds   r2, r3, #1
		      3368:   3302          adds   r3, #2
		      336a:   6062          str    r2, [r4, #4]
		      336c:   f844 5023     str.w  r5, [r4, r3, lsl #2]
		->    3370:   f7ff ff97     bl 32a2 <__retarget_lock_release_recursive>
		      3374:   2000          movs   r0, #0
		      3376:   e7ca          b.n    330e <__register_exitproc+0x3e>
		      3378:   200007d4  .word   0x200007d4
		      337c:   20000748  .word   0x20000748
		--------------------

timer-o0: 20 | 53
	(     216,      212)	
		--------------------
		       20c:   4804          ldr    r0, [pc, #16]  ; (220 <__do_global_dtors_aux+0x20>)
		       20e:   f3af 8000     nop.w
		       212:   2301          movs   r3, #1
		       214:   7023          strb   r3, [r4, #0]
		->     216:   bd10          pop    {r4, pc}
		       218:   20000010  .word   0x20000010
		       21c:   00000000  .word   0x00000000
		       220:   00001828  .word   0x00001828
		  
		--------------------
	(     49e,      3f0)	
		--------------------
		       494:   bf00          nop
		       496:   370c          adds   r7, #12
		       498:   46bd          mov    sp, r7
		       49a:   f85d 7b04     ldr.w  r7, [sp], #4
		->     49e:   4770          bx lr
		  
		  000004a0 <bsp_board_led_off>:
		       4a0:   b580          push   {r7, lr}
		       4a2:   b082          sub    sp, #8
		--------------------
	(     4e0,      4dc)	
		--------------------
		       4d8:   3301          adds   r3, #1
		       4da:   607b          str    r3, [r7, #4]
		       4dc:   687b          ldr    r3, [r7, #4]
		       4de:   2b03          cmp    r3, #3
		->     4e0:   d9f6          bls.n  4d0 <bsp_board_leds_off+0xc>
		       4e2:   bf00          nop
		       4e4:   bf00          nop
		       4e6:   3708          adds   r7, #8
		       4e8:   46bd          mov    sp, r7
		--------------------
	(     6b2,      6a8)	
		--------------------
		       6a8:   bf00          nop
		       6aa:   370c          adds   r7, #12
		       6ac:   46bd          mov    sp, r7
		       6ae:   f85d 7b04     ldr.w  r7, [sp], #4
		->     6b2:   4770          bx lr
		       6b4:   e000e100  .word   0xe000e100
		       6b8:   e000ed00  .word   0xe000ed00
		  
		  000006bc <nrfx_get_irq_number>:
		--------------------
	(     a14,      a0e)	
		--------------------
		       a0c:   69bb          ldr    r3, [r7, #24]
		       a0e:   4618          mov    r0, r3
		       a10:   3724          adds   r7, #36   ; 0x24
		       a12:   46bd          mov    sp, r7
		->     a14:   bd90          pop    {r4, r7, pc}
		       a16:   bf00          nop
		       a18:   2000002c  .word   0x2000002c
		  
		  00000a1c <nrfx_timer_enable>:
		--------------------
	(     b7c,      b76)	
		--------------------
		       b74:   75fb          strb   r3, [r7, #23]
		       b76:   7dfa          ldrb   r2, [r7, #23]
		       b78:   79fb          ldrb   r3, [r7, #7]
		       b7a:   429a          cmp    r2, r3
		->     b7c:   d3d2          bcc.n  b24 <irq_handler+0x14>
		       b7e:   bf00          nop
		       b80:   bf00          nop
		       b82:   3718          adds   r7, #24
		       b84:   46bd          mov    sp, r7
		--------------------
	(     dae,      daa)	
		--------------------
		       da6:   681b          ldr    r3, [r3, #0]
		       da8:   603b          str    r3, [r7, #0]
		       daa:   687b          ldr    r3, [r7, #4]
		       dac:   2b06          cmp    r3, #6
		->     dae:   d119          bne.n  de4 <nrf52_errata_12+0x6c>
		       db0:   683b          ldr    r3, [r7, #0]
		       db2:   3b03          subs   r3, #3
		       db4:   2b03          cmp    r3, #3
		       db6:   d813          bhi.n  de0 <nrf52_errata_12+0x68>
		--------------------
	(     e64,      e5a)	
		--------------------
		       e5a:   4618          mov    r0, r3
		       e5c:   370c          adds   r7, #12
		       e5e:   46bd          mov    sp, r7
		       e60:   f85d 7b04     ldr.w  r7, [sp], #4
		->     e64:   4770          bx lr
		       e66:   bf00          nop
		       e68:   f0000fe0  .word   0xf0000fe0
		       e6c:   f0000fe8  .word   0xf0000fe8
		  
		--------------------
	(     ea6,      ea2)	
		--------------------
		       e9e:   681b          ldr    r3, [r3, #0]
		       ea0:   603b          str    r3, [r7, #0]
		       ea2:   687b          ldr    r3, [r7, #4]
		       ea4:   2b06          cmp    r3, #6
		->     ea6:   d119          bne.n  edc <nrf52_errata_31+0x6c>
		       ea8:   683b          ldr    r3, [r7, #0]
		       eaa:   3b03          subs   r3, #3
		       eac:   2b03          cmp    r3, #3
		       eae:   d813          bhi.n  ed8 <nrf52_errata_31+0x68>
		--------------------
	(    125c,     1252)	
		--------------------
		      1252:   4618          mov    r0, r3
		      1254:   370c          adds   r7, #12
		      1256:   46bd          mov    sp, r7
		      1258:   f85d 7b04     ldr.w  r7, [sp], #4
		->    125c:   4770          bx lr
		      125e:   bf00          nop
		      1260:   10000130  .word   0x10000130
		      1264:   f0000fe0  .word   0xf0000fe0
		      1268:   f0000fe8  .word   0xf0000fe8
		--------------------
	(    12c8,     12be)	
		--------------------
		      12be:   4618          mov    r0, r3
		      12c0:   370c          adds   r7, #12
		      12c2:   46bd          mov    sp, r7
		      12c4:   f85d 7b04     ldr.w  r7, [sp], #4
		->    12c8:   4770          bx lr
		      12ca:   bf00          nop
		      12cc:   10000130  .word   0x10000130
		      12d0:   10000134  .word   0x10000134
		  
		--------------------
	(    134a,     134a)	
		--------------------
		      1340:   68db          ldr    r3, [r3, #12]
		      1342:   4a96          ldr    r2, [pc, #600] ; (159c <SystemInit+0x2ac>)
		      1344:   f023 7380     bic.w  r3, r3, #16777216    ; 0x1000000
		      1348:   60d3          str    r3, [r2, #12]
		->    134a:   f7ff fe0d     bl f68 <nrf52_errata_36>
		      134e:   4603          mov    r3, r0
		      1350:   2b00          cmp    r3, #0
		      1352:   d00e          beq.n  1372 <SystemInit+0x82>
		      1354:   f04f 4380     mov.w  r3, #1073741824  ; 0x40000000
		--------------------
	(    1372,     1372)	
		--------------------
		      1364:   f8c3 2110     str.w  r2, [r3, #272]   ; 0x110
		      1368:   f04f 4380     mov.w  r3, #1073741824  ; 0x40000000
		      136c:   2200          movs   r2, #0
		      136e:   f8c3 2538     str.w  r2, [r3, #1336]  ; 0x538
		->    1372:   f7ff fe3f     bl ff4 <nrf52_errata_37>
		      1376:   4603          mov    r3, r0
		      1378:   2b00          cmp    r3, #0
		      137a:   d002          beq.n  1382 <SystemInit+0x92>
		      137c:   4b88          ldr    r3, [pc, #544] ; (15a0 <SystemInit+0x2b0>)
		--------------------
	(    1504,     14ee)	
		--------------------
		      14f6:   f443 0370     orr.w  r3, r3, #15728640    ; 0xf00000
		      14fa:   f8c2 3088     str.w  r3, [r2, #136]   ; 0x88
		      14fe:   f3bf 8f4f     dsb    sy
		      1502:   bf00          nop
		->    1504:   f3bf 8f6f     isb    sy
		      1508:   bf00          nop
		      150a:   f04f 2310     mov.w  r3, #268439552   ; 0x10001000
		      150e:   f8d3 3200     ldr.w  r3, [r3, #512]   ; 0x200
		      1512:   2b00          cmp    r3, #0
		--------------------
	(    1602,     15fc)	
		--------------------
		  000015fc <memset>:
		      15fc:   4402          add    r2, r0
		      15fe:   4603          mov    r3, r0
		      1600:   4293          cmp    r3, r2
		->    1602:   d100          bne.n  1606 <memset+0xa>
		      1604:   4770          bx lr
		      1606:   f803 1b01     strb.w r1, [r3], #1
		      160a:   e7f9          b.n    1600 <memset+0x4>
		  
		--------------------
	(    1602,     1600)	
		--------------------
		  000015fc <memset>:
		      15fc:   4402          add    r2, r0
		      15fe:   4603          mov    r3, r0
		      1600:   4293          cmp    r3, r2
		->    1602:   d100          bne.n  1606 <memset+0xa>
		      1604:   4770          bx lr
		      1606:   f803 1b01     strb.w r1, [r3], #1
		      160a:   e7f9          b.n    1600 <memset+0x4>
		  
		--------------------
	(    16be,     16be)	
		--------------------
		      16b0:   dd07          ble.n  16c2 <__register_exitproc+0x42>
		      16b2:   f8d8 0000     ldr.w  r0, [r8]
		      16b6:   f7ff ffe2     bl 167e <__retarget_lock_release_recursive>
		      16ba:   f04f 30ff     mov.w  r0, #4294967295  ; 0xffffffff
		->    16be:   e8bd 83f8     ldmia.w    sp!, {r3, r4, r5, r6, r7, r8, r9, pc}
		      16c2:   b32e          cbz    r6, 1710 <__register_exitproc+0x90>
		      16c4:   f8d4 0088     ldr.w  r0, [r4, #136]   ; 0x88
		      16c8:   b968          cbnz   r0, 16e6 <__register_exitproc+0x66>
		      16ca:   4b1a          ldr    r3, [pc, #104] ; (1734 <__register_exitproc+0xb4>)
		--------------------
	(    1720,     16e6)	
		--------------------
		      1716:   1c5a          adds   r2, r3, #1
		      1718:   3302          adds   r3, #2
		      171a:   6062          str    r2, [r4, #4]
		      171c:   f844 5023     str.w  r5, [r4, r3, lsl #2]
		->    1720:   f7ff ffad     bl 167e <__retarget_lock_release_recursive>
		      1724:   2000          movs   r0, #0
		      1726:   e7ca          b.n    16be <__register_exitproc+0x3e>
		      1728:   200000d0  .word   0x200000d0
		      172c:   20000044  .word   0x20000044
		--------------------
	(    1720,     1710)	
		--------------------
		      1716:   1c5a          adds   r2, r3, #1
		      1718:   3302          adds   r3, #2
		      171a:   6062          str    r2, [r4, #4]
		      171c:   f844 5023     str.w  r5, [r4, r3, lsl #2]
		->    1720:   f7ff ffad     bl 167e <__retarget_lock_release_recursive>
		      1724:   2000          movs   r0, #0
		      1726:   e7ca          b.n    16be <__register_exitproc+0x3e>
		      1728:   200000d0  .word   0x200000d0
		      172c:   20000044  .word   0x20000044
		--------------------
	(    177c,     177a)	
		--------------------
		      1770:   3501          adds   r5, #1
		      1772:   eb04 0585     add.w  r5, r4, r5, lsl #2
		      1776:   f107 0b80     add.w  fp, r7, #128 ; 0x80
		      177a:   2e00          cmp    r6, #0
		->    177c:   dbed          blt.n  175a <__call_exitprocs+0x1e>
		      177e:   9b00          ldr    r3, [sp, #0]
		      1780:   b143          cbz    r3, 1794 <__call_exitprocs+0x58>
		      1782:   b917          cbnz   r7, 178a <__call_exitprocs+0x4e>
		      1784:   3e01          subs   r6, #1
		--------------------

timer-o1: 20 | 25
	(     216,      212)	
		--------------------
		   20c:   4804          ldr    r0, [pc, #16]  ; (220 <__do_global_dtors_aux+0x20>)
		   20e:   f3af 8000     nop.w
		   212:   2301          movs   r3, #1
		   214:   7023          strb   r3, [r4, #0]
		-> 216:   bd10          pop    {r4, pc}
		   218:   20000010  .word   0x20000010
		   21c:   00000000  .word   0x00000000
		   220:   00000c04  .word   0x00000c04
		  
		--------------------
	(     216,      216)	
		--------------------
		   20c:   4804          ldr    r0, [pc, #16]  ; (220 <__do_global_dtors_aux+0x20>)
		   20e:   f3af 8000     nop.w
		   212:   2301          movs   r3, #1
		   214:   7023          strb   r3, [r4, #0]
		-> 216:   bd10          pop    {r4, pc}
		   218:   20000010  .word   0x20000010
		   21c:   00000000  .word   0x00000000
		   220:   00000c04  .word   0x00000c04
		  
		--------------------
	(     4b8,      462)	
		--------------------
		   4b0:   721a          strb   r2, [r3, #8]
		   4b2:   2000          movs   r0, #0
		   4b4:   b002          add    sp, #8
		   4b6:   bc30          pop    {r4, r5}
		-> 4b8:   4770          bx lr
		   4ba:   f004 040f     and.w  r4, r4, #15
		   4be:   0152          lsls   r2, r2, #5
		   4c0:   b2d2          uxtb   r2, r2
		   4c2:   4b04          ldr    r3, [pc, #16]  ; (4d4 <nrfx_timer_init+0xf8>)
		--------------------
	(     4b8,      4b4)	
		--------------------
		   4b0:   721a          strb   r2, [r3, #8]
		   4b2:   2000          movs   r0, #0
		   4b4:   b002          add    sp, #8
		   4b6:   bc30          pop    {r4, r5}
		-> 4b8:   4770          bx lr
		   4ba:   f004 040f     and.w  r4, r4, #15
		   4be:   0152          lsls   r2, r2, #5
		   4c0:   b2d2          uxtb   r2, r2
		   4c2:   4b04          ldr    r3, [pc, #16]  ; (4d4 <nrfx_timer_init+0xf8>)
		--------------------
	(     526,      518)	
		--------------------
		   51a:   f501 71a8     add.w  r1, r1, #336 ; 0x150
		   51e:   f843 2021     str.w  r2, [r3, r1, lsl #2]
		   522:   b003          add    sp, #12
		   524:   bc70          pop    {r4, r5, r6}
		-> 526:   4770          bx lr
		   528:   6803          ldr    r3, [r0, #0]
		   52a:   f8c3 4308     str.w  r4, [r3, #776]   ; 0x308
		   52e:   e7f3          b.n    518 <nrfx_timer_compare+0x24>
		  
		--------------------
	(     582,      584)	
		--------------------
		   57a:   2d04          cmp    r5, #4
		   57c:   d016          beq.n  5ac <TIMER0_IRQHandler+0x4c>
		   57e:   6823          ldr    r3, [r4, #0]
		   580:   2b00          cmp    r3, #0
		-> 582:   d0f8          beq.n  576 <TIMER0_IRQHandler+0x16>
		   584:   f8d7 3304     ldr.w  r3, [r7, #772]   ; 0x304
		   588:   fa06 f105     lsl.w  r1, r6, r5
		   58c:   4219          tst    r1, r3
		   58e:   d0f2          beq.n  576 <TIMER0_IRQHandler+0x16>
		--------------------
	(     67a,      670)	
		--------------------
		   66c:   f8c2 3540     str.w  r3, [r2, #1344]  ; 0x540
		   670:   f04f 4370     mov.w  r3, #4026531840  ; 0xf0000000
		   674:   f893 3fe0     ldrb.w r3, [r3, #4064] ; 0xfe0
		   678:   2b06          cmp    r3, #6
		-> 67a:   d070          beq.n  75e <SystemInit+0x11a>
		   67c:   f04f 5380     mov.w  r3, #268435456   ; 0x10000000
		   680:   f8d3 3130     ldr.w  r3, [r3, #304]   ; 0x130
		   684:   f1b3 3fff     cmp.w  r3, #4294967295  ; 0xffffffff
		   688:   bf04          itt    eq
		--------------------
	(     6b4,      6aa)	
		--------------------
		   6a6:   f8c2 353c     str.w  r3, [r2, #1340]  ; 0x53c
		   6aa:   f04f 4370     mov.w  r3, #4026531840  ; 0xf0000000
		   6ae:   f893 3fe0     ldrb.w r3, [r3, #4064] ; 0xfe0
		   6b2:   2b06          cmp    r3, #6
		-> 6b4:   d05f          beq.n  776 <SystemInit+0x132>
		   6b6:   f04f 5380     mov.w  r3, #268435456   ; 0x10000000
		   6ba:   f8d3 3130     ldr.w  r3, [r3, #304]   ; 0x130
		   6be:   f1b3 3fff     cmp.w  r3, #4294967295  ; 0xffffffff
		   6c2:   bf04          itt    eq
		--------------------
	(     6ec,      6e2)	
		--------------------
		   6de:   f8c3 2538     str.w  r2, [r3, #1336]  ; 0x538
		   6e2:   f04f 4370     mov.w  r3, #4026531840  ; 0xf0000000
		   6e6:   f893 3fe0     ldrb.w r3, [r3, #4064] ; 0xfe0
		   6ea:   2b06          cmp    r3, #6
		-> 6ec:   d053          beq.n  796 <SystemInit+0x152>
		   6ee:   f04f 5380     mov.w  r3, #268435456   ; 0x10000000
		   6f2:   f8d3 2130     ldr.w  r2, [r3, #304]   ; 0x130
		   6f6:   f1b2 3fff     cmp.w  r2, #4294967295  ; 0xffffffff
		   6fa:   d075          beq.n  7e8 <SystemInit+0x1a4>
		--------------------
	(     714,      712)	
		--------------------
		   706:   f000 80a4     beq.w  852 <SystemInit+0x20e>
		   70a:   f04f 5380     mov.w  r3, #268435456   ; 0x10000000
		   70e:   f8d3 3130     ldr.w  r3, [r3, #304]   ; 0x130
		   712:   2b06          cmp    r3, #6
		-> 714:   d078          beq.n  808 <SystemInit+0x1c4>
		   716:   f04f 5380     mov.w  r3, #268435456   ; 0x10000000
		   71a:   f8d3 3130     ldr.w  r3, [r3, #304]   ; 0x130
		   71e:   2b06          cmp    r3, #6
		   720:   f000 80ea     beq.w  8f8 <SystemInit+0x2b4>
		--------------------
	(     830,      82e)	
		--------------------
		   824:   d103          bne.n  82e <SystemInit+0x1ea>
		   826:   f04f 4370     mov.w  r3, #4026531840  ; 0xf0000000
		   82a:   f893 3fe0     ldrb.w r3, [r3, #4064] ; 0xfe0
		   82e:   2b06          cmp    r3, #6
		-> 830:   f47f af71     bne.w  716 <SystemInit+0xd2>
		   834:   f04f 4380     mov.w  r3, #1073741824  ; 0x40000000
		   838:   f8d3 3400     ldr.w  r3, [r3, #1024]  ; 0x400
		   83c:   f013 0f01     tst.w  r3, #1
		   840:   f43f af69     beq.w  716 <SystemInit+0xd2>
		--------------------
	(     9e2,      9dc)	
		--------------------
		  000009dc <memset>:
		   9dc:   4402          add    r2, r0
		   9de:   4603          mov    r3, r0
		   9e0:   4293          cmp    r3, r2
		-> 9e2:   d100          bne.n  9e6 <memset+0xa>
		   9e4:   4770          bx lr
		   9e6:   f803 1b01     strb.w r1, [r3], #1
		   9ea:   e7f9          b.n    9e0 <memset+0x4>
		  
		--------------------
	(     9e2,      9e0)	
		--------------------
		  000009dc <memset>:
		   9dc:   4402          add    r2, r0
		   9de:   4603          mov    r3, r0
		   9e0:   4293          cmp    r3, r2
		-> 9e2:   d100          bne.n  9e6 <memset+0xa>
		   9e4:   4770          bx lr
		   9e6:   f803 1b01     strb.w r1, [r3], #1
		   9ea:   e7f9          b.n    9e0 <memset+0x4>
		  
		--------------------
	(     9fa,      9f8)	
		--------------------
		   9f2:   1b64          subs   r4, r4, r5
		   9f4:   10a4          asrs   r4, r4, #2
		   9f6:   2600          movs   r6, #0
		   9f8:   42a6          cmp    r6, r4
		-> 9fa:   d109          bne.n  a10 <__libc_init_array+0x24>
		   9fc:   4d0b          ldr    r5, [pc, #44]  ; (a2c <__libc_init_array+0x40>)
		   9fe:   4c0c          ldr    r4, [pc, #48]  ; (a30 <__libc_init_array+0x44>)
		   a00:   f000 f8ea     bl bd8 <_init>
		   a04:   1b64          subs   r4, r4, r5
		--------------------
	(     a0c,      a0a)	
		--------------------
		   a04:   1b64          subs   r4, r4, r5
		   a06:   10a4          asrs   r4, r4, #2
		   a08:   2600          movs   r6, #0
		   a0a:   42a6          cmp    r6, r4
		-> a0c:   d105          bne.n  a1a <__libc_init_array+0x2e>
		   a0e:   bd70          pop    {r4, r5, r6, pc}
		   a10:   f855 3b04     ldr.w  r3, [r5], #4
		   a14:   4798          blx    r3
		   a16:   3601          adds   r6, #1
		--------------------
	(     a90,      a8c)	
		--------------------
		   a86:   681b          ldr    r3, [r3, #0]
		   a88:   f8c4 3088     str.w  r3, [r4, #136]   ; 0x88
		   a8c:   6863          ldr    r3, [r4, #4]
		   a8e:   2b1f          cmp    r3, #31
		-> a90:   dd07          ble.n  aa2 <__register_exitproc+0x42>
		   a92:   f8d8 0000     ldr.w  r0, [r8]
		   a96:   f7ff ffe2     bl a5e <__retarget_lock_release_recursive>
		   a9a:   f04f 30ff     mov.w  r0, #4294967295  ; 0xffffffff
		   a9e:   e8bd 83f8     ldmia.w    sp!, {r3, r4, r5, r6, r7, r8, r9, pc}
		--------------------
	(     a9e,      a9e)	
		--------------------
		   a90:   dd07          ble.n  aa2 <__register_exitproc+0x42>
		   a92:   f8d8 0000     ldr.w  r0, [r8]
		   a96:   f7ff ffe2     bl a5e <__retarget_lock_release_recursive>
		   a9a:   f04f 30ff     mov.w  r0, #4294967295  ; 0xffffffff
		-> a9e:   e8bd 83f8     ldmia.w    sp!, {r3, r4, r5, r6, r7, r8, r9, pc}
		   aa2:   b32e          cbz    r6, af0 <__register_exitproc+0x90>
		   aa4:   f8d4 0088     ldr.w  r0, [r4, #136]   ; 0x88
		   aa8:   b968          cbnz   r0, ac6 <__register_exitproc+0x66>
		   aaa:   4b1a          ldr    r3, [pc, #104] ; (b14 <__register_exitproc+0xb4>)
		--------------------
	(     b00,      ac6)	
		--------------------
		   af6:   1c5a          adds   r2, r3, #1
		   af8:   3302          adds   r3, #2
		   afa:   6062          str    r2, [r4, #4]
		   afc:   f844 5023     str.w  r5, [r4, r3, lsl #2]
		-> b00:   f7ff ffad     bl a5e <__retarget_lock_release_recursive>
		   b04:   2000          movs   r0, #0
		   b06:   e7ca          b.n    a9e <__register_exitproc+0x3e>
		   b08:   200000d0  .word   0x200000d0
		   b0c:   20000044  .word   0x20000044
		--------------------
	(     b00,      af0)	
		--------------------
		   af6:   1c5a          adds   r2, r3, #1
		   af8:   3302          adds   r3, #2
		   afa:   6062          str    r2, [r4, #4]
		   afc:   f844 5023     str.w  r5, [r4, r3, lsl #2]
		-> b00:   f7ff ffad     bl a5e <__retarget_lock_release_recursive>
		   b04:   2000          movs   r0, #0
		   b06:   e7ca          b.n    a9e <__register_exitproc+0x3e>
		   b08:   200000d0  .word   0x200000d0
		   b0c:   20000044  .word   0x20000044
		--------------------
	(     b5c,      b5a)	
		--------------------
		   b50:   3501          adds   r5, #1
		   b52:   eb04 0585     add.w  r5, r4, r5, lsl #2
		   b56:   f107 0b80     add.w  fp, r7, #128 ; 0x80
		   b5a:   2e00          cmp    r6, #0
		-> b5c:   dbed          blt.n  b3a <__call_exitprocs+0x1e>
		   b5e:   9b00          ldr    r3, [sp, #0]
		   b60:   b143          cbz    r3, b74 <__call_exitprocs+0x58>
		   b62:   b917          cbnz   r7, b6a <__call_exitprocs+0x4e>
		   b64:   3e01          subs   r6, #1
		--------------------

timer-o2: 20 | 29
	(     2b8,      2b0)	
		--------------------
		   2b0:   4906          ldr    r1, [pc, #24]  ; (2cc <Reset_Handler+0x1c>)
		   2b2:   4a07          ldr    r2, [pc, #28]  ; (2d0 <Reset_Handler+0x20>)
		   2b4:   4b07          ldr    r3, [pc, #28]  ; (2d4 <Reset_Handler+0x24>)
		   2b6:   1a9b          subs   r3, r3, r2
		-> 2b8:   dd03          ble.n  2c2 <Reset_Handler+0x12>
		   2ba:   3b04          subs   r3, #4
		   2bc:   58c8          ldr    r0, [r1, r3]
		   2be:   50d0          str    r0, [r2, r3]
		   2c0:   dcfb          bgt.n  2ba <Reset_Handler+0xa>
		--------------------
	(     334,      330)	
		--------------------
		   324:   f8c3 2738     str.w  r2, [r3, #1848]  ; 0x738
		   328:   f8c3 273c     str.w  r2, [r3, #1852]  ; 0x73c
		   32c:   f8c3 2740     str.w  r2, [r3, #1856]  ; 0x740
		   330:   f85d 4b04     ldr.w  r4, [sp], #4
		-> 334:   4770          bx lr
		   336:   f04f 43a0     mov.w  r3, #1342177280  ; 0x50000000
		   33a:   2203          movs   r2, #3
		   33c:   f44f 3100     mov.w  r1, #131072  ; 0x20000
		   340:   f8c3 2744     str.w  r2, [r3, #1860]  ; 0x744
		--------------------
	(     438,      42c)	
		--------------------
		   42c:   6802          ldr    r2, [r0, #0]
		   42e:   f342 3307     sbfx   r3, r2, #12, #8
		   432:   2b00          cmp    r3, #0
		   434:   ea4f 3412     mov.w  r4, r2, lsr #12
		-> 438:   db08          blt.n  44c <nrfx_timer_init+0x8c>
		   43a:   4d20          ldr    r5, [pc, #128] ; (4bc <nrfx_timer_init+0xfc>)
		   43c:   095b          lsrs   r3, r3, #5
		   43e:   f004 041f     and.w  r4, r4, #31
		   442:   2201          movs   r2, #1
		--------------------
	(     538,      52a)	
		--------------------
		   52c:   f501 71a8     add.w  r1, r1, #336 ; 0x150
		   530:   f843 2021     str.w  r2, [r3, r1, lsl #2]
		   534:   b002          add    sp, #8
		   536:   bcf0          pop    {r4, r5, r6, r7}
		-> 538:   4770          bx lr
		   53a:   6803          ldr    r3, [r0, #0]
		   53c:   f8c3 4308     str.w  r4, [r3, #776]   ; 0x308
		   540:   e7f3          b.n    52a <nrfx_timer_extended_compare+0x4a>
		   542:   bf00          nop
		--------------------
	(     560,      582)	
		--------------------
		   554:   f44f 3680     mov.w  r6, #65536   ; 0x10000
		   558:   682b          ldr    r3, [r5, #0]
		   55a:   fa06 f204     lsl.w  r2, r6, r4
		   55e:   3401          adds   r4, #1
		-> 560:   b17b          cbz    r3, 582 <TIMER0_IRQHandler+0x3e>
		   562:   f8d7 3304     ldr.w  r3, [r7, #772]   ; 0x304
		   566:   f5a5 4000     sub.w  r0, r5, #32768   ; 0x8000
		   56a:   421a          tst    r2, r3
		   56c:   f04f 0100     mov.w  r1, #0
		--------------------
	(     652,      648)	
		--------------------
		   644:   f8c2 3540     str.w  r3, [r2, #1344]  ; 0x540
		   648:   f04f 4370     mov.w  r3, #4026531840  ; 0xf0000000
		   64c:   f893 2fe0     ldrb.w r2, [r3, #4064] ; 0xfe0
		   650:   2a06          cmp    r2, #6
		-> 652:   f000 8135     beq.w  8c0 <SystemInit+0x2a4>
		   656:   f04f 5380     mov.w  r3, #268435456   ; 0x10000000
		   65a:   f8d3 3130     ldr.w  r3, [r3, #304]   ; 0x130
		   65e:   1c59          adds   r1, r3, #1
		   660:   bf04          itt    eq
		--------------------
	(     68c,      682)	
		--------------------
		   67e:   f8c2 353c     str.w  r3, [r2, #1340]  ; 0x53c
		   682:   f04f 4370     mov.w  r3, #4026531840  ; 0xf0000000
		   686:   f893 2fe0     ldrb.w r2, [r3, #4064] ; 0xfe0
		   68a:   2a06          cmp    r2, #6
		-> 68c:   f000 8103     beq.w  896 <SystemInit+0x27a>
		   690:   f04f 5380     mov.w  r3, #268435456   ; 0x10000000
		   694:   f8d3 3130     ldr.w  r3, [r3, #304]   ; 0x130
		   698:   1c5a          adds   r2, r3, #1
		   69a:   bf04          itt    eq
		--------------------
	(     6c8,      6ba)	
		--------------------
		   6ba:   f04f 4370     mov.w  r3, #4026531840  ; 0xf0000000
		   6be:   f893 2fe0     ldrb.w r2, [r3, #4064] ; 0xfe0
		   6c2:   f8d3 3fe8     ldr.w  r3, [r3, #4072]  ; 0xfe8
		   6c6:   2a06          cmp    r2, #6
		-> 6c8:   f000 80c5     beq.w  856 <SystemInit+0x23a>
		   6cc:   f04f 5280     mov.w  r2, #268435456   ; 0x10000000
		   6d0:   f8d2 3130     ldr.w  r3, [r2, #304]   ; 0x130
		   6d4:   1c5c          adds   r4, r3, #1
		   6d6:   d02e          beq.n  736 <SystemInit+0x11a>
		--------------------
	(     6ea,      6e8)	
		--------------------
		   6de:   d034          beq.n  74a <SystemInit+0x12e>
		   6e0:   f04f 5380     mov.w  r3, #268435456   ; 0x10000000
		   6e4:   f8d3 3130     ldr.w  r3, [r3, #304]   ; 0x130
		   6e8:   2b06          cmp    r3, #6
		-> 6ea:   f000 8097     beq.w  81c <SystemInit+0x200>
		   6ee:   f04f 5380     mov.w  r3, #268435456   ; 0x10000000
		   6f2:   e9d3 234c     ldrd   r2, r3, [r3, #304]    ; 0x130
		   6f6:   2a06          cmp    r2, #6
		   6f8:   f000 80a2     beq.w  840 <SystemInit+0x224>
		--------------------
	(     74e,      74a)	
		--------------------
		   744:   d1da          bne.n  6fc <SystemInit+0xe0>
		   746:   f3c2 1203     ubfx   r2, r2, #4, #4
		   74a:   3a03          subs   r2, #3
		   74c:   2a03          cmp    r2, #3
		-> 74e:   f240 80d5     bls.w  8fc <SystemInit+0x2e0>
		   752:   f04f 5380     mov.w  r3, #268435456   ; 0x10000000
		   756:   4a74          ldr    r2, [pc, #464] ; (928 <SystemInit+0x30c>)
		   758:   f8d3 1404     ldr.w  r1, [r3, #1028]  ; 0x404
		   75c:   f8c2 1520     str.w  r1, [r2, #1312]  ; 0x520
		--------------------
	(     7e6,      7e4)	
		--------------------
		   7d8:   f8d3 1444     ldr.w  r1, [r3, #1092]  ; 0x444
		   7dc:   f8d3 3130     ldr.w  r3, [r3, #304]   ; 0x130
		   7e0:   f8c2 1570     str.w  r1, [r2, #1392]  ; 0x570
		   7e4:   1c58          adds   r0, r3, #1
		-> 7e6:   f000 808f     beq.w  908 <SystemInit+0x2ec>
		   7ea:   2b06          cmp    r3, #6
		   7ec:   f47f af78     bne.w  6e0 <SystemInit+0xc4>
		   7f0:   f04f 5380     mov.w  r3, #268435456   ; 0x10000000
		   7f4:   f04f 4180     mov.w  r1, #1073741824  ; 0x40000000
		--------------------
	(     9ee,      9e8)	
		--------------------
		  000009e8 <memset>:
		   9e8:   4402          add    r2, r0
		   9ea:   4603          mov    r3, r0
		   9ec:   4293          cmp    r3, r2
		-> 9ee:   d100          bne.n  9f2 <memset+0xa>
		   9f0:   4770          bx lr
		   9f2:   f803 1b01     strb.w r1, [r3], #1
		   9f6:   e7f9          b.n    9ec <memset+0x4>
		  
		--------------------
	(     9f0,      9d2)	
		--------------------
		   9e8:   4402          add    r2, r0
		   9ea:   4603          mov    r3, r0
		   9ec:   4293          cmp    r3, r2
		   9ee:   d100          bne.n  9f2 <memset+0xa>
		-> 9f0:   4770          bx lr
		   9f2:   f803 1b01     strb.w r1, [r3], #1
		   9f6:   e7f9          b.n    9ec <memset+0x4>
		  
		  000009f8 <__libc_init_array>:
		--------------------
	(     a06,      a04)	
		--------------------
		   9fe:   1b64          subs   r4, r4, r5
		   a00:   10a4          asrs   r4, r4, #2
		   a02:   2600          movs   r6, #0
		   a04:   42a6          cmp    r6, r4
		-> a06:   d109          bne.n  a1c <__libc_init_array+0x24>
		   a08:   4d0b          ldr    r5, [pc, #44]  ; (a38 <__libc_init_array+0x40>)
		   a0a:   4c0c          ldr    r4, [pc, #48]  ; (a3c <__libc_init_array+0x44>)
		   a0c:   f000 f8ea     bl be4 <_init>
		   a10:   1b64          subs   r4, r4, r5
		--------------------
	(     a18,      a16)	
		--------------------
		   a10:   1b64          subs   r4, r4, r5
		   a12:   10a4          asrs   r4, r4, #2
		   a14:   2600          movs   r6, #0
		   a16:   42a6          cmp    r6, r4
		-> a18:   d105          bne.n  a26 <__libc_init_array+0x2e>
		   a1a:   bd70          pop    {r4, r5, r6, pc}
		   a1c:   f855 3b04     ldr.w  r3, [r5], #4
		   a20:   4798          blx    r3
		   a22:   3601          adds   r6, #1
		--------------------
	(     a4a,      a4a)	
		--------------------
		   a42:   4d07          ldr    r5, [pc, #28]  ; (a60 <__libc_fini_array+0x20>)
		   a44:   4c07          ldr    r4, [pc, #28]  ; (a64 <__libc_fini_array+0x24>)
		   a46:   1b64          subs   r4, r4, r5
		   a48:   10a4          asrs   r4, r4, #2
		-> a4a:   b91c          cbnz   r4, a54 <__libc_fini_array+0x14>
		   a4c:   e8bd 4038     ldmia.w    sp!, {r3, r4, r5, lr}
		   a50:   f000 b8ce     b.w    bf0 <_fini>
		   a54:   3c01          subs   r4, #1
		   a56:   f855 3024     ldr.w  r3, [r5, r4, lsl #2]
		--------------------
	(     a9c,      a98)	
		--------------------
		   a92:   681b          ldr    r3, [r3, #0]
		   a94:   f8c4 3088     str.w  r3, [r4, #136]   ; 0x88
		   a98:   6863          ldr    r3, [r4, #4]
		   a9a:   2b1f          cmp    r3, #31
		-> a9c:   dd07          ble.n  aae <__register_exitproc+0x42>
		   a9e:   f8d8 0000     ldr.w  r0, [r8]
		   aa2:   f7ff ffe2     bl a6a <__retarget_lock_release_recursive>
		   aa6:   f04f 30ff     mov.w  r0, #4294967295  ; 0xffffffff
		   aaa:   e8bd 83f8     ldmia.w    sp!, {r3, r4, r5, r6, r7, r8, r9, pc}
		--------------------
	(     aaa,      aaa)	
		--------------------
		   a9c:   dd07          ble.n  aae <__register_exitproc+0x42>
		   a9e:   f8d8 0000     ldr.w  r0, [r8]
		   aa2:   f7ff ffe2     bl a6a <__retarget_lock_release_recursive>
		   aa6:   f04f 30ff     mov.w  r0, #4294967295  ; 0xffffffff
		-> aaa:   e8bd 83f8     ldmia.w    sp!, {r3, r4, r5, r6, r7, r8, r9, pc}
		   aae:   b32e          cbz    r6, afc <__register_exitproc+0x90>
		   ab0:   f8d4 0088     ldr.w  r0, [r4, #136]   ; 0x88
		   ab4:   b968          cbnz   r0, ad2 <__register_exitproc+0x66>
		   ab6:   4b1a          ldr    r3, [pc, #104] ; (b20 <__register_exitproc+0xb4>)
		--------------------
	(     b0c,      ad2)	
		--------------------
		   b02:   1c5a          adds   r2, r3, #1
		   b04:   3302          adds   r3, #2
		   b06:   6062          str    r2, [r4, #4]
		   b08:   f844 5023     str.w  r5, [r4, r3, lsl #2]
		-> b0c:   f7ff ffad     bl a6a <__retarget_lock_release_recursive>
		   b10:   2000          movs   r0, #0
		   b12:   e7ca          b.n    aaa <__register_exitproc+0x3e>
		   b14:   200000d0  .word   0x200000d0
		   b18:   20000044  .word   0x20000044
		--------------------
	(     b68,      b66)	
		--------------------
		   b5c:   3501          adds   r5, #1
		   b5e:   eb04 0585     add.w  r5, r4, r5, lsl #2
		   b62:   f107 0b80     add.w  fp, r7, #128 ; 0x80
		   b66:   2e00          cmp    r6, #0
		-> b68:   dbed          blt.n  b46 <__call_exitprocs+0x1e>
		   b6a:   9b00          ldr    r3, [sp, #0]
		   b6c:   b143          cbz    r3, b80 <__call_exitprocs+0x58>
		   b6e:   b917          cbnz   r7, b76 <__call_exitprocs+0x4e>
		   b70:   3e01          subs   r6, #1
		--------------------

timer-o3: 20 | 29
	(     216,      216)	
		--------------------
		   20c:   4804          ldr    r0, [pc, #16]  ; (220 <__do_global_dtors_aux+0x20>)
		   20e:   f3af 8000     nop.w
		   212:   2301          movs   r3, #1
		   214:   7023          strb   r3, [r4, #0]
		-> 216:   bd10          pop    {r4, pc}
		   218:   20000010  .word   0x20000010
		   21c:   00000000  .word   0x00000000
		   220:   00000c08  .word   0x00000c08
		  
		--------------------
	(     2b8,      2b0)	
		--------------------
		   2b0:   4906          ldr    r1, [pc, #24]  ; (2cc <Reset_Handler+0x1c>)
		   2b2:   4a07          ldr    r2, [pc, #28]  ; (2d0 <Reset_Handler+0x20>)
		   2b4:   4b07          ldr    r3, [pc, #28]  ; (2d4 <Reset_Handler+0x24>)
		   2b6:   1a9b          subs   r3, r3, r2
		-> 2b8:   dd03          ble.n  2c2 <Reset_Handler+0x12>
		   2ba:   3b04          subs   r3, #4
		   2bc:   58c8          ldr    r0, [r1, r3]
		   2be:   50d0          str    r0, [r2, r3]
		   2c0:   dcfb          bgt.n  2ba <Reset_Handler+0xa>
		--------------------
	(     3fe,      3ea)	
		--------------------
		   3f2:   3201          adds   r2, #1
		   3f4:   f844 600c     str.w  r6, [r4, ip]
		   3f8:   f854 500c     ldr.w  r5, [r4, ip]
		   3fc:   7944          ldrb   r4, [r0, #5]
		-> 3fe:   9501          str    r5, [sp, #4]
		   400:   b2d3          uxtb   r3, r2
		   402:   429c          cmp    r4, r3
		   404:   9d01          ldr    r5, [sp, #4]
		   406:   d8f0          bhi.n  3ea <nrfx_timer_init+0x2e>
		--------------------
	(     434,      428)	
		--------------------
		   428:   6802          ldr    r2, [r0, #0]
		   42a:   f342 3307     sbfx   r3, r2, #12, #8
		   42e:   2b00          cmp    r3, #0
		   430:   ea4f 3412     mov.w  r4, r2, lsr #12
		-> 434:   db08          blt.n  448 <nrfx_timer_init+0x8c>
		   436:   4d20          ldr    r5, [pc, #128] ; (4b8 <nrfx_timer_init+0xfc>)
		   438:   095b          lsrs   r3, r3, #5
		   43a:   f004 041f     and.w  r4, r4, #31
		   43e:   2201          movs   r2, #1
		--------------------
	(     498,      448)	
		--------------------
		   48c:   f8c0 3510     str.w  r3, [r0, #1296]  ; 0x510
		   490:   2000          movs   r0, #0
		   492:   f888 4008     strb.w r4, [r8, #8]
		   496:   b002          add    sp, #8
		-> 498:   e8bd 81f0     ldmia.w    sp!, {r4, r5, r6, r7, r8, pc}
		   49c:   4c07          ldr    r4, [pc, #28]  ; (4bc <nrfx_timer_init+0x100>)
		   49e:   f002 020f     and.w  r2, r2, #15
		   4a2:   015b          lsls   r3, r3, #5
		   4a4:   b2db          uxtb   r3, r3
		--------------------
	(     55c,      57e)	
		--------------------
		   550:   f44f 3680     mov.w  r6, #65536   ; 0x10000
		   554:   682b          ldr    r3, [r5, #0]
		   556:   fa06 f204     lsl.w  r2, r6, r4
		   55a:   3401          adds   r4, #1
		-> 55c:   b17b          cbz    r3, 57e <TIMER0_IRQHandler+0x3e>
		   55e:   f8d7 3304     ldr.w  r3, [r7, #772]   ; 0x304
		   562:   f5a5 4000     sub.w  r0, r5, #32768   ; 0x8000
		   566:   421a          tst    r2, r3
		   568:   f04f 0100     mov.w  r1, #0
		--------------------
	(     56e,      570)	
		--------------------
		   562:   f5a5 4000     sub.w  r0, r5, #32768   ; 0x8000
		   566:   421a          tst    r2, r3
		   568:   f04f 0100     mov.w  r1, #0
		   56c:   b280          uxth   r0, r0
		-> 56e:   d006          beq.n  57e <TIMER0_IRQHandler+0x3e>
		   570:   6029          str    r1, [r5, #0]
		   572:   682b          ldr    r3, [r5, #0]
		   574:   9301          str    r3, [sp, #4]
		   576:   e9d8 3100     ldrd   r3, r1, [r8]
		--------------------
	(     64e,      644)	
		--------------------
		   640:   f8c2 3540     str.w  r3, [r2, #1344]  ; 0x540
		   644:   f04f 4370     mov.w  r3, #4026531840  ; 0xf0000000
		   648:   f893 2fe0     ldrb.w r2, [r3, #4064] ; 0xfe0
		   64c:   2a06          cmp    r2, #6
		-> 64e:   f000 8129     beq.w  8a4 <SystemInit+0x28c>
		   652:   f04f 5380     mov.w  r3, #268435456   ; 0x10000000
		   656:   f8d3 3130     ldr.w  r3, [r3, #304]   ; 0x130
		   65a:   1c5c          adds   r4, r3, #1
		   65c:   bf04          itt    eq
		--------------------
	(     688,      67e)	
		--------------------
		   67a:   f8c2 353c     str.w  r3, [r2, #1340]  ; 0x53c
		   67e:   f04f 4370     mov.w  r3, #4026531840  ; 0xf0000000
		   682:   f893 2fe0     ldrb.w r2, [r3, #4064] ; 0xfe0
		   686:   2a06          cmp    r2, #6
		-> 688:   f000 80f7     beq.w  87a <SystemInit+0x262>
		   68c:   f04f 5380     mov.w  r3, #268435456   ; 0x10000000
		   690:   f8d3 3130     ldr.w  r3, [r3, #304]   ; 0x130
		   694:   1c58          adds   r0, r3, #1
		   696:   bf04          itt    eq
		--------------------
	(     7c0,      7b2)	
		--------------------
		   7b4:   bf04          itt    eq
		   7b6:   f04f 4370     moveq.w    r3, #4026531840    ; 0xf0000000
		   7ba:   f893 3fe0     ldrbeq.w   r3, [r3, #4064]   ; 0xfe0
		   7be:   2b06          cmp    r3, #6
		-> 7c0:   d18b          bne.n  6da <SystemInit+0xc2>
		   7c2:   f04f 5280     mov.w  r2, #268435456   ; 0x10000000
		   7c6:   f04f 4180     mov.w  r1, #1073741824  ; 0x40000000
		   7ca:   f8d2 3258     ldr.w  r3, [r2, #600]   ; 0x258
		   7ce:   f8d2 0130     ldr.w  r0, [r2, #304]   ; 0x130
		--------------------
	(     7f4,      7f0)	
		--------------------
		   7ea:   d478          bmi.n  8de <SystemInit+0x2c6>
		   7ec:   f8d2 3134     ldr.w  r3, [r2, #308]   ; 0x134
		   7f0:   3b03          subs   r3, #3
		   7f2:   2b03          cmp    r3, #3
		-> 7f4:   d804          bhi.n  800 <SystemInit+0x1e8>
		   7f6:   4a5f          ldr    r2, [pc, #380] ; (974 <SystemInit+0x35c>)
		   7f8:   5cd3          ldrb   r3, [r2, r3]
		   7fa:   2b00          cmp    r3, #0
		   7fc:   f43f af6d     beq.w  6da <SystemInit+0xc2>
		--------------------
	(     85a,      854)	
		--------------------
		   850:   f8c2 15a0     str.w  r1, [r2, #1440]  ; 0x5a0
		   854:   4a4b          ldr    r2, [pc, #300] ; (984 <SystemInit+0x36c>)
		   856:   5cd3          ldrb   r3, [r2, r3]
		   858:   2b00          cmp    r3, #0
		-> 85a:   f43f af35     beq.w  6c8 <SystemInit+0xb0>
		   85e:   4b4a          ldr    r3, [pc, #296] ; (988 <SystemInit+0x370>)
		   860:   2405          movs   r4, #5
		   862:   2001          movs   r0, #1
		   864:   2100          movs   r1, #0
		--------------------
	(     9da,      9d4)	
		--------------------
		  000009d4 <memset>:
		   9d4:   4402          add    r2, r0
		   9d6:   4603          mov    r3, r0
		   9d8:   4293          cmp    r3, r2
		-> 9da:   d100          bne.n  9de <memset+0xa>
		   9dc:   4770          bx lr
		   9de:   f803 1b01     strb.w r1, [r3], #1
		   9e2:   e7f9          b.n    9d8 <memset+0x4>
		  
		--------------------
	(     9dc,      9be)	
		--------------------
		   9d4:   4402          add    r2, r0
		   9d6:   4603          mov    r3, r0
		   9d8:   4293          cmp    r3, r2
		   9da:   d100          bne.n  9de <memset+0xa>
		-> 9dc:   4770          bx lr
		   9de:   f803 1b01     strb.w r1, [r3], #1
		   9e2:   e7f9          b.n    9d8 <memset+0x4>
		  
		  000009e4 <__libc_init_array>:
		--------------------
	(     a04,      a02)	
		--------------------
		   9fc:   1b64          subs   r4, r4, r5
		   9fe:   10a4          asrs   r4, r4, #2
		   a00:   2600          movs   r6, #0
		   a02:   42a6          cmp    r6, r4
		-> a04:   d105          bne.n  a12 <__libc_init_array+0x2e>
		   a06:   bd70          pop    {r4, r5, r6, pc}
		   a08:   f855 3b04     ldr.w  r3, [r5], #4
		   a0c:   4798          blx    r3
		   a0e:   3601          adds   r6, #1
		--------------------
	(     a88,      a84)	
		--------------------
		   a7e:   681b          ldr    r3, [r3, #0]
		   a80:   f8c4 3088     str.w  r3, [r4, #136]   ; 0x88
		   a84:   6863          ldr    r3, [r4, #4]
		   a86:   2b1f          cmp    r3, #31
		-> a88:   dd07          ble.n  a9a <__register_exitproc+0x42>
		   a8a:   f8d8 0000     ldr.w  r0, [r8]
		   a8e:   f7ff ffe2     bl a56 <__retarget_lock_release_recursive>
		   a92:   f04f 30ff     mov.w  r0, #4294967295  ; 0xffffffff
		   a96:   e8bd 83f8     ldmia.w    sp!, {r3, r4, r5, r6, r7, r8, r9, pc}
		--------------------
	(     a96,      a96)	
		--------------------
		   a88:   dd07          ble.n  a9a <__register_exitproc+0x42>
		   a8a:   f8d8 0000     ldr.w  r0, [r8]
		   a8e:   f7ff ffe2     bl a56 <__retarget_lock_release_recursive>
		   a92:   f04f 30ff     mov.w  r0, #4294967295  ; 0xffffffff
		-> a96:   e8bd 83f8     ldmia.w    sp!, {r3, r4, r5, r6, r7, r8, r9, pc}
		   a9a:   b32e          cbz    r6, ae8 <__register_exitproc+0x90>
		   a9c:   f8d4 0088     ldr.w  r0, [r4, #136]   ; 0x88
		   aa0:   b968          cbnz   r0, abe <__register_exitproc+0x66>
		   aa2:   4b1a          ldr    r3, [pc, #104] ; (b0c <__register_exitproc+0xb4>)
		--------------------
	(     af8,      abe)	
		--------------------
		   aee:   1c5a          adds   r2, r3, #1
		   af0:   3302          adds   r3, #2
		   af2:   6062          str    r2, [r4, #4]
		   af4:   f844 5023     str.w  r5, [r4, r3, lsl #2]
		-> af8:   f7ff ffad     bl a56 <__retarget_lock_release_recursive>
		   afc:   2000          movs   r0, #0
		   afe:   e7ca          b.n    a96 <__register_exitproc+0x3e>
		   b00:   200000d0  .word   0x200000d0
		   b04:   20000044  .word   0x20000044
		--------------------
	(     af8,      ae8)	
		--------------------
		   aee:   1c5a          adds   r2, r3, #1
		   af0:   3302          adds   r3, #2
		   af2:   6062          str    r2, [r4, #4]
		   af4:   f844 5023     str.w  r5, [r4, r3, lsl #2]
		-> af8:   f7ff ffad     bl a56 <__retarget_lock_release_recursive>
		   afc:   2000          movs   r0, #0
		   afe:   e7ca          b.n    a96 <__register_exitproc+0x3e>
		   b00:   200000d0  .word   0x200000d0
		   b04:   20000044  .word   0x20000044
		--------------------
	(     b54,      b52)	
		--------------------
		   b48:   3501          adds   r5, #1
		   b4a:   eb04 0585     add.w  r5, r4, r5, lsl #2
		   b4e:   f107 0b80     add.w  fp, r7, #128 ; 0x80
		   b52:   2e00          cmp    r6, #0
		-> b54:   dbed          blt.n  b32 <__call_exitprocs+0x1e>
		   b56:   9b00          ldr    r3, [sp, #0]
		   b58:   b143          cbz    r3, b6c <__call_exitprocs+0x58>
		   b5a:   b917          cbnz   r7, b62 <__call_exitprocs+0x4e>
		   b5c:   3e01          subs   r6, #1
		--------------------

twi_sensor-o0: 22 | 220
	(     792,      78c)	
		--------------------
		       78a:   2300          movs   r3, #0
		       78c:   4618          mov    r0, r3
		       78e:   3710          adds   r7, #16
		       790:   46bd          mov    sp, r7
		->     792:   bd80          pop    {r7, pc}
		       794:   20000230  .word   0x20000230
		       798:   00006094  .word   0x00006094
		       79c:   00005dbc  .word   0x00005dbc
		       7a0:   00006084  .word   0x00006084
		--------------------
	(     a0e,      a0c)	
		--------------------
		       a06:   613b          str    r3, [r7, #16]
		       a08:   e000          b.n    a0c <log_skip+0xcc>
		       a0a:   bf00          nop
		       a0c:   4808          ldr    r0, [pc, #32]  ; (a30 <log_skip+0xf0>)
		->     a0e:   f000 fe99     bl 1744 <nrf_atomic_flag_clear_fetch>
		       a12:   6178          str    r0, [r7, #20]
		       a14:   697b          ldr    r3, [r7, #20]
		       a16:   2b00          cmp    r3, #0
		       a18:   d002          beq.n  a20 <log_skip+0xe0>
		--------------------
	(     c6a,      c64)	
		--------------------
		       c62:   61bb          str    r3, [r7, #24]
		       c64:   69ba          ldr    r2, [r7, #24]
		       c66:   683b          ldr    r3, [r7, #0]
		       c68:   429a          cmp    r2, r3
		->     c6a:   d3e9          bcc.n  c40 <std_n+0x34>
		       c6c:   693a          ldr    r2, [r7, #16]
		       c6e:   697b          ldr    r3, [r7, #20]
		       c70:   9300          str    r3, [sp, #0]
		       c72:   4613          mov    r3, r2
		--------------------
	(    1152,     114c)	
		--------------------
		      114a:   68fb          ldr    r3, [r7, #12]
		      114c:   4618          mov    r0, r3
		      114e:   3710          adds   r7, #16
		      1150:   46bd          mov    sp, r7
		->    1152:   bd80          pop    {r7, pc}
		      1154:   20000230  .word   0x20000230
		  
		  00001158 <nrf_log_panic>:
		      1158:   b580          push   {r7, lr}
		--------------------
	(    161a,      b22)	
		--------------------
		      1610:   f7ff ffd6     bl 15c0 <app_util_disable_irq>
		      1614:   bf00          nop
		      1616:   3708          adds   r7, #8
		      1618:   46bd          mov    sp, r7
		->    161a:   bd80          pop    {r7, pc}
		  
		  0000161c <app_util_critical_region_exit>:
		      161c:   b580          push   {r7, lr}
		      161e:   b082          sub    sp, #8
		--------------------
	(    17ee,     17e6)	
		--------------------
		      17e6:   7bfb          ldrb   r3, [r7, #15]
		      17e8:   1e5a          subs   r2, r3, #1
		      17ea:   73fa          strb   r2, [r7, #15]
		      17ec:   2b00          cmp    r3, #0
		->    17ee:   d1f3          bne.n  17d8 <nrf_balloc_init+0x2a>
		      17f0:   687b          ldr    r3, [r7, #4]
		      17f2:   681b          ldr    r3, [r3, #0]
		      17f4:   2200          movs   r2, #0
		      17f6:   711a          strb   r2, [r3, #4]
		--------------------
	(    1958,     19fe)	
		--------------------
		      194e:   f7ff ffab     bl 18a8 <nrf_fprintf_buffer_flush>
		      1952:   bf00          nop
		      1954:   3708          adds   r7, #8
		      1956:   46bd          mov    sp, r7
		->    1958:   bd80          pop    {r7, pc}
		  
		  0000195a <string_print>:
		      195a:   b580          push   {r7, lr}
		      195c:   b086          sub    sp, #24
		--------------------
	(    198a,     1912)	
		--------------------
		      1982:   617b          str    r3, [r7, #20]
		      1984:   7cfb          ldrb   r3, [r7, #19]
		      1986:   4619          mov    r1, r3
		      1988:   68f8          ldr    r0, [r7, #12]
		->    198a:   f7ff ffc2     bl 1912 <buffer_add>
		      198e:   68bb          ldr    r3, [r7, #8]
		      1990:   781b          ldrb   r3, [r3, #0]
		      1992:   74fb          strb   r3, [r7, #19]
		      1994:   7cfb          ldrb   r3, [r7, #19]
		--------------------
	(    19a6,     19aa)	
		--------------------
		      199e:   3b01          subs   r3, #1
		      19a0:   607b          str    r3, [r7, #4]
		      19a2:   2120          movs   r1, #32
		      19a4:   68f8          ldr    r0, [r7, #12]
		->    19a6:   f7ff ffb4     bl 1912 <buffer_add>
		      19aa:   687a          ldr    r2, [r7, #4]
		      19ac:   697b          ldr    r3, [r7, #20]
		      19ae:   429a          cmp    r2, r3
		      19b0:   d92b          bls.n  1a0a <string_print+0xb0>
		--------------------
	(    19be,     19d8)	
		--------------------
		      19b6:   d1f1          bne.n  199c <string_print+0x42>
		      19b8:   e027          b.n    1a0a <string_print+0xb0>
		      19ba:   68bb          ldr    r3, [r7, #8]
		      19bc:   2b00          cmp    r3, #0
		->    19be:   d00b          beq.n  19d8 <string_print+0x7e>
		      19c0:   68b8          ldr    r0, [r7, #8]
		      19c2:   f004 f90b     bl 5bdc <strlen>
		      19c6:   6178          str    r0, [r7, #20]
		      19c8:   e006          b.n    19d8 <string_print+0x7e>
		--------------------
	(    19e6,     19fe)	
		--------------------
		      19de:   d90e          bls.n  19fe <string_print+0xa4>
		      19e0:   687b          ldr    r3, [r7, #4]
		      19e2:   2b00          cmp    r3, #0
		      19e4:   d1f1          bne.n  19ca <string_print+0x70>
		->    19e6:   e00a          b.n    19fe <string_print+0xa4>
		      19e8:   68bb          ldr    r3, [r7, #8]
		      19ea:   3301          adds   r3, #1
		      19ec:   60bb          str    r3, [r7, #8]
		      19ee:   697b          ldr    r3, [r7, #20]
		--------------------
	(    1df0,     1f02)	
		--------------------
		      1de6:   3b58          subs   r3, #88   ; 0x58
		      1de8:   2b20          cmp    r3, #32
		      1dea:   f200 80b7     bhi.w  1f5c <nrf_fprintf_fmt+0x2fc>
		      1dee:   a201          add    r2, pc, #4 ; (adr r2, 1df4 <nrf_fprintf_fmt+0x194>)
		->    1df0:   f852 f023     ldr.w  pc, [r2, r3, lsl #2]
		      1df4:   00001edf  .word   0x00001edf
		      1df8:   00001f5d  .word   0x00001f5d
		      1dfc:   00001f5d  .word   0x00001f5d
		      1e00:   00001f5d  .word   0x00001f5d
		--------------------
	(    1f64,     1f5e)	
		--------------------
		      1f5c:   bf00          nop
		      1f5e:   68bb          ldr    r3, [r7, #8]
		      1f60:   3301          adds   r3, #1
		      1f62:   60bb          str    r3, [r7, #8]
		->    1f64:   e005          b.n    1f72 <nrf_fprintf_fmt+0x312>
		      1f66:   f897 302f     ldrb.w r3, [r7, #47]   ; 0x2f
		      1f6a:   4619          mov    r1, r3
		      1f6c:   68f8          ldr    r0, [r7, #12]
		      1f6e:   f7ff fcd0     bl 1912 <buffer_add>
		--------------------
	(    2050,     204a)	
		--------------------
		      2048:   623b          str    r3, [r7, #32]
		      204a:   6a3a          ldr    r2, [r7, #32]
		      204c:   693b          ldr    r3, [r7, #16]
		      204e:   429a          cmp    r2, r3
		->    2050:   d3dd          bcc.n  200e <Heap_Size+0xe>
		      2052:   697b          ldr    r3, [r7, #20]
		      2054:   4618          mov    r0, r3
		      2056:   3728          adds   r7, #40   ; 0x28
		      2058:   46bd          mov    sp, r7
		--------------------
	(    221c,     2218)	
		--------------------
		      2214:   4613          movcs  r3, r2
		      2216:   62bb          str    r3, [r7, #40]  ; 0x28
		      2218:   6b3b          ldr    r3, [r7, #48]  ; 0x30
		      221a:   2b00          cmp    r3, #0
		->    221c:   d1d1          bne.n  21c2 <memobj_op+0x9e>
		      221e:   bf00          nop
		      2220:   bf00          nop
		      2222:   3740          adds   r7, #64   ; 0x40
		      2224:   46bd          mov    sp, r7
		--------------------
	(    26ac,     26a6)	
		--------------------
		      26a2:   e000          b.n    26a6 <nrf_drv_uart_init+0x72>
		      26a4:   2200          movs   r2, #0
		      26a6:   f107 0310     add.w  r3, r7, #16
		      26aa:   4619          mov    r1, r3
		->    26ac:   f002 f9f4     bl 4a98 <nrfx_uarte_init>
		      26b0:   6378          str    r0, [r7, #52]  ; 0x34
		      26b2:   e015          b.n    26e0 <nrf_drv_uart_init+0xac>
		      26b4:   68fb          ldr    r3, [r7, #12]
		      26b6:   781b          ldrb   r3, [r3, #0]
		--------------------
	(    26e8,     26e0)	
		--------------------
		      26e0:   6b7b          ldr    r3, [r7, #52]  ; 0x34
		      26e2:   4618          mov    r0, r3
		      26e4:   3738          adds   r7, #56   ; 0x38
		      26e6:   46bd          mov    sp, r7
		->    26e8:   bdb0          pop    {r4, r5, r7, pc}
		      26ea:   bf00          nop
		      26ec:   20000664  .word   0x20000664
		      26f0:   20000668  .word   0x20000668
		      26f4:   2000066c  .word   0x2000066c
		--------------------
	(    2708,     270a)	
		--------------------
		      2700:   b580          push   {r7, lr}
		      2702:   af00          add    r7, sp, #0
		      2704:   4b01          ldr    r3, [pc, #4]   ; (270c <UARTE0_UART0_IRQHandler+0xc>)
		      2706:   681b          ldr    r3, [r3, #0]
		->    2708:   4798          blx    r3
		      270a:   bd80          pop    {r7, pc}
		      270c:   20000670  .word   0x20000670
		  
		  00002710 <prs_box_get>:
		--------------------
	(    31d2,     31ca)	
		--------------------
		      31c8:   609a          str    r2, [r3, #8]
		      31ca:   683b          ldr    r3, [r7, #0]
		      31cc:   f003 0340     and.w  r3, r3, #64  ; 0x40
		      31d0:   2b00          cmp    r3, #0
		->    31d2:   d105          bne.n  31e0 <twim_xfer+0x2c4>
		      31d4:   68fb          ldr    r3, [r7, #12]
		      31d6:   689b          ldr    r3, [r3, #8]
		      31d8:   f043 0202     orr.w  r2, r3, #2
		      31dc:   68fb          ldr    r3, [r7, #12]
		--------------------
	(    401e,     4016)	
		--------------------
		      4016:   697b          ldr    r3, [r7, #20]
		      4018:   4618          mov    r0, r3
		      401a:   3718          adds   r7, #24
		      401c:   46bd          mov    sp, r7
		->    401e:   bd80          pop    {r7, pc}
		      4020:   200006ac  .word   0x200006ac
		  
		  00004024 <nrfx_uart_tx_in_progress>:
		      4024:   b480          push   {r7}
		--------------------
	(    4340,     4336)	
		--------------------
		      4336:   bf00          nop
		      4338:   370c          adds   r7, #12
		      433a:   46bd          mov    sp, r7
		      433c:   f85d 7b04     ldr.w  r7, [sp], #4
		->    4340:   4770          bx lr
		      4342:   bf00          nop
		      4344:   e000e100  .word   0xe000e100
		  
		  00004348 <__NVIC_DisableIRQ>:
		--------------------
	(    5428,     541e)	
		--------------------
		      541e:   4618          mov    r0, r3
		      5420:   370c          adds   r7, #12
		      5422:   46bd          mov    sp, r7
		      5424:   f85d 7b04     ldr.w  r7, [sp], #4
		->    5428:   4770          bx lr
		      542a:   bf00          nop
		      542c:   10000130  .word   0x10000130
		      5430:   f0000fe0  .word   0xf0000fe0
		      5434:   f0000fe8  .word   0xf0000fe8
		--------------------

twi_sensor-o1: 20 | 119
	(     7fa,      7f8)	
		--------------------
		       7f2:   4b31          ldr    r3, [pc, #196] ; (8b8 <nrf_log_frontend_dequeue+0x228>)
		       7f4:   9a03          ldr    r2, [sp, #12]
		       7f6:   609a          str    r2, [r3, #8]
		       7f8:   2000          movs   r0, #0
		->     7fa:   f000 fb01     bl e00 <app_util_critical_region_exit>
		       7fe:   e78a          b.n    716 <nrf_log_frontend_dequeue+0x86>
		       800:   b2e1          uxtb   r1, r4
		       802:   3103          adds   r1, #3
		       804:   2308          movs   r3, #8
		--------------------
	(     ad0,      acc)	
		--------------------
		       ac4:   601c          str    r4, [r3, #0]
		       ac6:   e001          b.n    acc <nrf_log_backend_add+0x60>
		       ac8:   f04f 30ff     mov.w  r0, #4294967295  ; 0xffffffff
		       acc:   f85d 4b04     ldr.w  r4, [sp], #4
		->     ad0:   4770          bx lr
		       ad2:   bf00          nop
		       ad4:   20000160  .word   0x20000160
		  
		  00000ad8 <nrf_log_panic>:
		--------------------
	(     ef8,      ef6)	
		--------------------
		       ef0:   4299          cmp    r1, r3
		       ef2:   d200          bcs.n  ef6 <nrf_balloc_alloc+0x36>
		       ef4:   7113          strb   r3, [r2, #4]
		       ef6:   2000          movs   r0, #0
		->     ef8:   f7ff ff82     bl e00 <app_util_critical_region_exit>
		       efc:   4628          mov    r0, r5
		       efe:   bd38          pop    {r3, r4, r5, pc}
		       f00:   2500          movs   r5, #0
		       f02:   e7f8          b.n    ef6 <nrf_balloc_alloc+0x36>
		--------------------
	(    10d4,     10c6)	
		--------------------
		      10c8:   f811 3b01     ldrb.w r3, [r1], #1
		      10cc:   f1a3 0230     sub.w  r2, r3, #48  ; 0x30
		      10d0:   b2d2          uxtb   r2, r2
		      10d2:   2a09          cmp    r2, #9
		->    10d4:   d9f1          bls.n  10ba <nrf_fprintf_fmt+0x66>
		      10d6:   e7e9          b.n    10ac <nrf_fprintf_fmt+0x58>
		      10d8:   1c61          adds   r1, r4, #1
		      10da:   7863          ldrb   r3, [r4, #1]
		      10dc:   f1a3 0230     sub.w  r2, r3, #48  ; 0x30
		--------------------
	(    1332,     132c)	
		--------------------
		      1328:   f04f 0a20     mov.w  sl, #32
		      132c:   3d01          subs   r5, #1
		      132e:   4651          mov    r1, sl
		      1330:   4638          mov    r0, r7
		->    1332:   f7ff fe16     bl f62 <buffer_add>
		      1336:   42b5          cmp    r5, r6
		      1338:   d1f8          bne.n  132c <nrf_fprintf_fmt+0x2d8>
		      133a:   f898 1000     ldrb.w r1, [r8]
		      133e:   2900          cmp    r1, #0
		--------------------
	(    14a8,     14a4)	
		--------------------
		      14a0:   4604          mov    r4, r0
		      14a2:   2500          movs   r5, #0
		      14a4:   46a1          mov    r9, r4
		      14a6:   4638          mov    r0, r7
		->    14a8:   f7ff fd0a     bl ec0 <nrf_balloc_alloc>
		      14ac:   4604          mov    r4, r0
		      14ae:   b148          cbz    r0, 14c4 <nrf_memobj_alloc+0x58>
		      14b0:   7973          ldrb   r3, [r6, #5]
		      14b2:   3301          adds   r3, #1
		--------------------
	(    1c5e,     1eb4)	
		--------------------
		      1c50:   e12c          b.n    1eac <nrfx_twim_xfer+0x344>
		      1c52:   f8dc 3010     ldr.w  r3, [ip, #16]
		      1c56:   f003 4360     and.w  r3, r3, #3758096384  ; 0xe0000000
		      1c5a:   f1b3 5f00     cmp.w  r3, #536870912   ; 0x20000000
		->    1c5e:   f040 8129     bne.w  1eb4 <nrfx_twim_xfer+0x34c>
		      1c62:   f44f 7380     mov.w  r3, #256 ; 0x100
		      1c66:   f8c4 3200     str.w  r3, [r4, #512]   ; 0x200
		      1c6a:   f8dc 3004     ldr.w  r3, [ip, #4]
		      1c6e:   f8dc 200c     ldr.w  r2, [ip, #12]
		--------------------
	(    1c94,     1c8a)	
		--------------------
		      1c8a:   6223          str    r3, [r4, #32]
		      1c8c:   60a3          str    r3, [r4, #8]
		      1c8e:   f8d4 3150     ldr.w  r3, [r4, #336]   ; 0x150
		      1c92:   2b00          cmp    r3, #0
		->    1c94:   d0fb          beq.n  1c8e <nrfx_twim_xfer+0x126>
		      1c96:   2600          movs   r6, #0
		      1c98:   f8c4 6150     str.w  r6, [r4, #336]   ; 0x150
		      1c9c:   f8d4 3150     ldr.w  r3, [r4, #336]   ; 0x150
		      1ca0:   9301          str    r3, [sp, #4]
		--------------------
	(    1d48,     1d3c)	
		--------------------
		      1d3e:   6223          str    r3, [r4, #32]
		      1d40:   2308          movs   r3, #8
		      1d42:   2600          movs   r6, #0
		      1d44:   f015 0f08     tst.w  r5, #8
		->    1d48:   d105          bne.n  1d56 <nrfx_twim_xfer+0x1ee>
		      1d4a:   f89c 2000     ldrb.w r2, [ip]
		      1d4e:   2a03          cmp    r2, #3
		      1d50:   bf1c          itt    ne
		      1d52:   2201          movne  r2, #1
		--------------------
	(    1d48,     1d40)	
		--------------------
		      1d3e:   6223          str    r3, [r4, #32]
		      1d40:   2308          movs   r3, #8
		      1d42:   2600          movs   r6, #0
		      1d44:   f015 0f08     tst.w  r5, #8
		->    1d48:   d105          bne.n  1d56 <nrfx_twim_xfer+0x1ee>
		      1d4a:   f89c 2000     ldrb.w r2, [ip]
		      1d4e:   2a03          cmp    r2, #3
		      1d50:   bf1c          itt    ne
		      1d52:   2201          movne  r2, #1
		--------------------
	(    1d7a,     1d74)	
		--------------------
		      1d6e:   fb02 330e     mla    r3, r2, lr, r3
		      1d72:   2200          movs   r2, #0
		      1d74:   609a          str    r2, [r3, #8]
		      1d76:   f015 0f40     tst.w  r5, #64  ; 0x40
		->    1d7a:   d107          bne.n  1d8c <nrfx_twim_xfer+0x224>
		      1d7c:   4b32          ldr    r3, [pc, #200] ; (1e48 <nrfx_twim_xfer+0x2e0>)
		      1d7e:   2234          movs   r2, #52   ; 0x34
		      1d80:   fb02 330e     mla    r3, r2, lr, r3
		      1d84:   689a          ldr    r2, [r3, #8]
		--------------------
	(    1d7a,     1d76)	
		--------------------
		      1d6e:   fb02 330e     mla    r3, r2, lr, r3
		      1d72:   2200          movs   r2, #0
		      1d74:   609a          str    r2, [r3, #8]
		      1d76:   f015 0f40     tst.w  r5, #64  ; 0x40
		->    1d7a:   d107          bne.n  1d8c <nrfx_twim_xfer+0x224>
		      1d7c:   4b32          ldr    r3, [pc, #200] ; (1e48 <nrfx_twim_xfer+0x2e0>)
		      1d7e:   2234          movs   r2, #52   ; 0x34
		      1d80:   fb02 330e     mla    r3, r2, lr, r3
		      1d84:   689a          ldr    r2, [r3, #8]
		--------------------
	(    1da2,     1d8c)	
		--------------------
		      1d96:   f442 7200     orr.w  r2, r2, #512 ; 0x200
		      1d9a:   609a          str    r2, [r3, #8]
		      1d9c:   689b          ldr    r3, [r3, #8]
		      1d9e:   f8c4 3304     str.w  r3, [r4, #772]   ; 0x304
		->    1da2:   e083          b.n    1eac <nrfx_twim_xfer+0x344>
		      1da4:   f44f 7300     mov.w  r3, #512 ; 0x200
		      1da8:   f8c4 3200     str.w  r3, [r4, #512]   ; 0x200
		      1dac:   4b26          ldr    r3, [pc, #152] ; (1e48 <nrfx_twim_xfer+0x2e0>)
		      1dae:   2234          movs   r2, #52   ; 0x34
		--------------------
	(    233e,     233a)	
		--------------------
		      2330:   f04f 43a0     mov.w  r3, #1342177280  ; 0x50000000
		      2334:   2202          movs   r2, #2
		      2336:   f843 2027     str.w  r2, [r3, r7, lsl #2]
		      233a:   f1b6 3fff     cmp.w  r6, #4294967295  ; 0xffffffff
		->    233e:   d006          beq.n  234e <nrfx_uart_uninit+0x96>
		      2340:   f506 76e0     add.w  r6, r6, #448 ; 0x1c0
		      2344:   f04f 43a0     mov.w  r3, #1342177280  ; 0x50000000
		      2348:   2202          movs   r2, #2
		      234a:   f843 2026     str.w  r2, [r3, r6, lsl #2]
		--------------------
	(    2734,     2710)	
		--------------------
		      272a:   461a          mov    r2, r3
		      272c:   2301          movs   r3, #1
		      272e:   f882 3020     strb.w r3, [r2, #32]
		      2732:   b007          add    sp, #28
		->    2734:   bdf0          pop    {r4, r5, r6, r7, pc}
		      2736:   68ab          ldr    r3, [r5, #8]
		      2738:   f1b3 3fff     cmp.w  r3, #4294967295  ; 0xffffffff
		      273c:   d006          beq.n  274c <nrfx_uarte_init+0x16c>
		      273e:   f503 73e0     add.w  r3, r3, #448 ; 0x1c0
		--------------------
	(    2752,     274c)	
		--------------------
		      2746:   2100          movs   r1, #0
		      2748:   f842 1023     str.w  r1, [r2, r3, lsl #2]
		      274c:   68eb          ldr    r3, [r5, #12]
		      274e:   f1b3 3fff     cmp.w  r3, #4294967295  ; 0xffffffff
		->    2752:   d00c          beq.n  276e <nrfx_uarte_init+0x18e>
		      2754:   2201          movs   r2, #1
		      2756:   fa02 f303     lsl.w  r3, r2, r3
		      275a:   f04f 42a0     mov.w  r2, #1342177280  ; 0x50000000
		      275e:   f8c2 3508     str.w  r3, [r2, #1288]  ; 0x508
		--------------------
	(    28a2,     289e)	
		--------------------
		      2894:   f04f 43a0     mov.w  r3, #1342177280  ; 0x50000000
		      2898:   2202          movs   r2, #2
		      289a:   f843 2027     str.w  r2, [r3, r7, lsl #2]
		      289e:   f1b6 3fff     cmp.w  r6, #4294967295  ; 0xffffffff
		->    28a2:   d006          beq.n  28b2 <nrfx_uarte_uninit+0x10a>
		      28a4:   f506 76e0     add.w  r6, r6, #448 ; 0x1c0
		      28a8:   f04f 43a0     mov.w  r3, #1342177280  ; 0x50000000
		      28ac:   2202          movs   r2, #2
		      28ae:   f843 2026     str.w  r2, [r3, r6, lsl #2]
		--------------------
	(    2bec,     2be2)	
		--------------------
		      2bde:   f8c3 2538     str.w  r2, [r3, #1336]  ; 0x538
		      2be2:   f04f 4370     mov.w  r3, #4026531840  ; 0xf0000000
		      2be6:   f893 3fe0     ldrb.w r3, [r3, #4064] ; 0xfe0
		      2bea:   2b06          cmp    r3, #6
		->    2bec:   d053          beq.n  2c96 <SystemInit+0x152>
		      2bee:   f04f 5380     mov.w  r3, #268435456   ; 0x10000000
		      2bf2:   f8d3 2130     ldr.w  r2, [r3, #304]   ; 0x130
		      2bf6:   f1b2 3fff     cmp.w  r2, #4294967295  ; 0xffffffff
		      2bfa:   d075          beq.n  2ce8 <SystemInit+0x1a4>
		--------------------
	(    2ee2,     2edc)	
		--------------------
		  00002edc <memset>:
		      2edc:   4402          add    r2, r0
		      2ede:   4603          mov    r3, r0
		      2ee0:   4293          cmp    r3, r2
		->    2ee2:   d100          bne.n  2ee6 <memset+0xa>
		      2ee4:   4770          bx lr
		      2ee6:   f803 1b01     strb.w r1, [r3], #1
		      2eea:   e7f9          b.n    2ee0 <memset+0x4>
		  
		--------------------
	(    2ee2,     2ee0)	
		--------------------
		  00002edc <memset>:
		      2edc:   4402          add    r2, r0
		      2ede:   4603          mov    r3, r0
		      2ee0:   4293          cmp    r3, r2
		->    2ee2:   d100          bne.n  2ee6 <memset+0xa>
		      2ee4:   4770          bx lr
		      2ee6:   f803 1b01     strb.w r1, [r3], #1
		      2eea:   e7f9          b.n    2ee0 <memset+0x4>
		  
		--------------------

twi_sensor-o2: 20 | 80
	(     900,      8f2)	
		--------------------
		       8f6:   4643          mov    r3, r8
		       8f8:   2204          movs   r2, #4
		       8fa:   eb04 0181     add.w  r1, r4, r1, lsl #2
		       8fe:   4638          mov    r0, r7
		->     900:   f000 ff0a     bl 1718 <nrf_memobj_write>
		       904:   f8bd 3004     ldrh.w r3, [sp, #4]
		       908:   3601          adds   r6, #1
		       90a:   f3c3 1383     ubfx   r3, r3, #6, #4
		       90e:   eb09 0206     add.w  r2, r9, r6
		--------------------
	(     a66,      a66)	
		--------------------
		       a5c:   b430          push   {r4, r5}
		       a5e:   4d16          ldr    r5, [pc, #88]  ; (ab8 <nrf_log_backend_add+0x5c>)
		       a60:   f8d5 4410     ldr.w  r4, [r5, #1040]  ; 0x410
		       a64:   2100          movs   r1, #0
		->     a66:   b17c          cbz    r4, a88 <nrf_log_backend_add+0x2c>
		       a68:   4623          mov    r3, r4
		       a6a:   e001          b.n    a70 <nrf_log_backend_add+0x14>
		       a6c:   681b          ldr    r3, [r3, #0]
		       a6e:   b15b          cbz    r3, a88 <nrf_log_backend_add+0x2c>
		--------------------
	(     e00,      93e)	
		--------------------
		       df8:   3b01          subs   r3, #1
		       dfa:   6013          str    r3, [r2, #0]
		       dfc:   b903          cbnz   r3, e00 <app_util_critical_region_exit+0xc>
		       dfe:   b662          cpsie  i
		->     e00:   4770          bx lr
		       e02:   bf00          nop
		       e04:   20000618  .word   0x20000618
		  
		  00000e08 <nrf_atomic_u32_fetch_store>:
		--------------------
	(    16aa,     16a8)	
		--------------------
		      16a2:   42af          cmp    r7, r5
		      16a4:   d8f6          bhi.n  1694 <nrf_memobj_alloc+0x70>
		      16a6:   2400          movs   r4, #0
		      16a8:   4620          mov    r0, r4
		->    16aa:   e8bd 81f0     ldmia.w    sp!, {r4, r5, r6, r7, r8, pc}
		      16ae:   6820          ldr    r0, [r4, #0]
		      16b0:   4621          mov    r1, r4
		      16b2:   f7ff fc27     bl f04 <nrf_balloc_free>
		      16b6:   e7f6          b.n    16a6 <nrf_memobj_alloc+0x82>
		--------------------
	(    1700,     16fa)	
		--------------------
		      16f8:   6836          ldr    r6, [r6, #0]
		      16fa:   4621          mov    r1, r4
		      16fc:   4640          mov    r0, r8
		      16fe:   3501          adds   r5, #1
		->    1700:   f7ff fc00     bl f04 <nrf_balloc_free>
		      1704:   42af          cmp    r7, r5
		      1706:   d8f6          bhi.n  16f6 <nrf_memobj_put+0x36>
		      1708:   e8bd 81f0     ldmia.w    sp!, {r4, r5, r6, r7, r8, pc}
		      170c:   6820          ldr    r0, [r4, #0]
		--------------------
	(    1b56,     1b56)	
		--------------------
		      1b48:   f8cc 3020     str.w  r3, [ip, #32]
		      1b4c:   f8cc 3008     str.w  r3, [ip, #8]
		      1b50:   f8dc 3150     ldr.w  r3, [ip, #336]   ; 0x150
		      1b54:   2b00          cmp    r3, #0
		->    1b56:   d0fb          beq.n  1b50 <twim_xfer+0xfc>
		      1b58:   2600          movs   r6, #0
		      1b5a:   f8cc 6150     str.w  r6, [ip, #336]   ; 0x150
		      1b5e:   f8dc 3150     ldr.w  r3, [ip, #336]   ; 0x150
		      1b62:   9306          str    r3, [sp, #24]
		--------------------
	(    1b7c,     1b6a)	
		--------------------
		      1b6e:   f8cc 3548     str.w  r3, [ip, #1352]  ; 0x548
		      1b72:   f44f 2380     mov.w  r3, #262144  ; 0x40000
		      1b76:   f8ce 3008     str.w  r3, [lr, #8]
		      1b7a:   2308          movs   r3, #8
		->    1b7c:   e015          b.n    1baa <twim_xfer+0x156>
		      1b7e:   686b          ldr    r3, [r5, #4]
		      1b80:   68ea          ldr    r2, [r5, #12]
		      1b82:   f8cc 2544     str.w  r2, [ip, #1348]  ; 0x544
		      1b86:   f8cc 3548     str.w  r3, [ip, #1352]  ; 0x548
		--------------------
	(    1c68,     1c64)	
		--------------------
		      1c5c:   b00b          add    sp, #44    ; 0x2c
		      1c5e:   e8bd 83f0     ldmia.w    sp!, {r4, r5, r6, r7, r8, r9, pc}
		      1c62:   2501          movs   r5, #1
		      1c64:   f8dc 3148     ldr.w  r3, [ip, #328]   ; 0x148
		->    1c68:   b9cb          cbnz   r3, 1c9e <twim_xfer+0x24a>
		      1c6a:   f8dc 3104     ldr.w  r3, [ip, #260]   ; 0x104
		      1c6e:   b9cb          cbnz   r3, 1ca4 <twim_xfer+0x250>
		      1c70:   f8dc 1124     ldr.w  r1, [ip, #292]   ; 0x124
		      1c74:   2900          cmp    r1, #0
		--------------------
	(    1e26,     1e1a)	
		--------------------
		      1e1a:   4a48          ldr    r2, [pc, #288] ; (1f3c <SPIM0_SPIS0_TWIM0_TWIS0_SPI0_TWI0_IRQHandler+0x1fc>)
		      1e1c:   f8d2 34c4     ldr.w  r3, [r2, #1220]  ; 0x4c4
		      1e20:   f8c2 34c4     str.w  r3, [r2, #1220]  ; 0x4c4
		      1e24:   0798          lsls   r0, r3, #30
		->    1e26:   d560          bpl.n  1eea <SPIM0_SPIS0_TWIM0_TWIS0_SPI0_TWI0_IRQHandler+0x1aa>
		      1e28:   2301          movs   r3, #1
		      1e2a:   f88d 3018     strb.w r3, [sp, #24]
		      1e2e:   b115          cbz    r5, 1e36 <SPIM0_SPIS0_TWIM0_TWIS0_SPI0_TWI0_IRQHandler+0xf6>
		      1e30:   f894 302e     ldrb.w r3, [r4, #46]   ; 0x2e
		--------------------
	(    1e60,     1e5a)	
		--------------------
		      1e56:   d54b          bpl.n  1ef0 <SPIM0_SPIS0_TWIM0_TWIS0_SPI0_TWI0_IRQHandler+0x1b0>
		      1e58:   2302          movs   r3, #2
		      1e5a:   f88d 3018     strb.w r3, [sp, #24]
		      1e5e:   2e00          cmp    r6, #0
		->    1e60:   d1e5          bne.n  1e2e <SPIM0_SPIS0_TWIM0_TWIS0_SPI0_TWI0_IRQHandler+0xee>
		      1e62:   2300          movs   r3, #0
		      1e64:   f884 302f     strb.w r3, [r4, #47]   ; 0x2f
		      1e68:   e7e1          b.n    1e2e <SPIM0_SPIS0_TWIM0_TWIS0_SPI0_TWI0_IRQHandler+0xee>
		      1e6a:   2301          movs   r3, #1
		--------------------
	(    1ef2,     1ef0)	
		--------------------
		      1eea:   075a          lsls   r2, r3, #29
		      1eec:   d421          bmi.n  1f32 <SPIM0_SPIS0_TWIM0_TWIS0_SPI0_TWI0_IRQHandler+0x1f2>
		      1eee:   2601          movs   r6, #1
		      1ef0:   07df          lsls   r7, r3, #31
		->    1ef2:   d416          bmi.n  1f22 <SPIM0_SPIS0_TWIM0_TWIS0_SPI0_TWI0_IRQHandler+0x1e2>
		      1ef4:   f894 302e     ldrb.w r3, [r4, #46]   ; 0x2e
		      1ef8:   009b          lsls   r3, r3, #2
		      1efa:   b2db          uxtb   r3, r3
		      1efc:   e7ad          b.n    1e5a <SPIM0_SPIS0_TWIM0_TWIS0_SPI0_TWI0_IRQHandler+0x11a>
		--------------------
	(    1ffa,     1ff0)	
		--------------------
		      1ff0:   682b          ldr    r3, [r5, #0]
		      1ff2:   0b1a          lsrs   r2, r3, #12
		      1ff4:   f343 3307     sbfx   r3, r3, #12, #8
		      1ff8:   2b00          cmp    r3, #0
		->    1ffa:   db08          blt.n  200e <Heap_Size+0xe>
		      1ffc:   4c0f          ldr    r4, [pc, #60]  ; (203c <Heap_Size+0x3c>)
		      1ffe:   095b          lsrs   r3, r3, #5
		      2000:   2101          movs   r1, #1
		      2002:   f002 021f     and.w  r2, r2, #31
		--------------------
	(    2950,     294c)	
		--------------------
		      2946:   2203          movs   r2, #3
		      2948:   f841 2023     str.w  r2, [r1, r3, lsl #2]
		      294c:   686b          ldr    r3, [r5, #4]
		      294e:   1c5a          adds   r2, r3, #1
		->    2950:   d006          beq.n  2960 <nrfx_uarte_init+0x68>
		      2952:   f503 73e0     add.w  r3, r3, #448 ; 0x1c0
		      2956:   f04f 42a0     mov.w  r2, #1342177280  ; 0x50000000
		      295a:   2100          movs   r1, #0
		      295c:   f842 1023     str.w  r1, [r2, r3, lsl #2]
		--------------------
	(    2df2,     2dee)	
		--------------------
		      2de2:   f7ff ff8d     bl 2d00 <LM75B_set_mode>
		      2de6:   f046 0601     orr.w  r6, r6, #1
		      2dea:   f44f 74fa     mov.w  r4, #500 ; 0x1f4
		      2dee:   f44f 407a     mov.w  r0, #64000   ; 0xfa00
		->    2df2:   47b0          blx    r6
		      2df4:   3c01          subs   r4, #1
		      2df6:   d1fa          bne.n  2dee <main+0x4a>
		      2df8:   bf20          wfe
		      2dfa:   782b          ldrb   r3, [r5, #0]
		--------------------
	(    2e7a,     2e70)	
		--------------------
		      2e6c:   f8c2 3540     str.w  r3, [r2, #1344]  ; 0x540
		      2e70:   f04f 4370     mov.w  r3, #4026531840  ; 0xf0000000
		      2e74:   f893 2fe0     ldrb.w r2, [r3, #4064] ; 0xfe0
		      2e78:   2a06          cmp    r2, #6
		->    2e7a:   f000 8135     beq.w  30e8 <SystemInit+0x2a4>
		      2e7e:   f04f 5380     mov.w  r3, #268435456   ; 0x10000000
		      2e82:   f8d3 3130     ldr.w  r3, [r3, #304]   ; 0x130
		      2e86:   1c59          adds   r1, r3, #1
		      2e88:   bf04          itt    eq
		--------------------
	(    3216,     3214)	
		--------------------
		  00003210 <memset>:
		      3210:   4402          add    r2, r0
		      3212:   4603          mov    r3, r0
		      3214:   4293          cmp    r3, r2
		->    3216:   d100          bne.n  321a <memset+0xa>
		      3218:   4770          bx lr
		      321a:   f803 1b01     strb.w r1, [r3], #1
		      321e:   e7f9          b.n    3214 <memset+0x4>
		  
		--------------------
	(    3272,     3272)	
		--------------------
		      326a:   4d07          ldr    r5, [pc, #28]  ; (3288 <__libc_fini_array+0x20>)
		      326c:   4c07          ldr    r4, [pc, #28]  ; (328c <__libc_fini_array+0x24>)
		      326e:   1b64          subs   r4, r4, r5
		      3270:   10a4          asrs   r4, r4, #2
		->    3272:   b91c          cbnz   r4, 327c <__libc_fini_array+0x14>
		      3274:   e8bd 4038     ldmia.w    sp!, {r3, r4, r5, lr}
		      3278:   f000 b8e4     b.w    3444 <_fini>
		      327c:   3c01          subs   r4, #1
		      327e:   f855 3024     ldr.w  r3, [r5, r4, lsl #2]
		--------------------
	(    32fe,     32fe)	
		--------------------
		      32f0:   dd07          ble.n  3302 <__register_exitproc+0x42>
		      32f2:   f8d8 0000     ldr.w  r0, [r8]
		      32f6:   f7ff ffcc     bl 3292 <__retarget_lock_release_recursive>
		      32fa:   f04f 30ff     mov.w  r0, #4294967295  ; 0xffffffff
		->    32fe:   e8bd 83f8     ldmia.w    sp!, {r3, r4, r5, r6, r7, r8, r9, pc}
		      3302:   b32e          cbz    r6, 3350 <__register_exitproc+0x90>
		      3304:   f8d4 0088     ldr.w  r0, [r4, #136]   ; 0x88
		      3308:   b968          cbnz   r0, 3326 <__register_exitproc+0x66>
		      330a:   4b1a          ldr    r3, [pc, #104] ; (3374 <__register_exitproc+0xb4>)
		--------------------
	(    3360,     3350)	
		--------------------
		      3356:   1c5a          adds   r2, r3, #1
		      3358:   3302          adds   r3, #2
		      335a:   6062          str    r2, [r4, #4]
		      335c:   f844 5023     str.w  r5, [r4, r3, lsl #2]
		->    3360:   f7ff ff97     bl 3292 <__retarget_lock_release_recursive>
		      3364:   2000          movs   r0, #0
		      3366:   e7ca          b.n    32fe <__register_exitproc+0x3e>
		      3368:   2000075c  .word   0x2000075c
		      336c:   200006d0  .word   0x200006d0
		--------------------
	(    33bc,     33ba)	
		--------------------
		      33b0:   3501          adds   r5, #1
		      33b2:   eb04 0585     add.w  r5, r4, r5, lsl #2
		      33b6:   f107 0b80     add.w  fp, r7, #128 ; 0x80
		      33ba:   2e00          cmp    r6, #0
		->    33bc:   dbed          blt.n  339a <__call_exitprocs+0x1e>
		      33be:   9b00          ldr    r3, [sp, #0]
		      33c0:   b143          cbz    r3, 33d4 <__call_exitprocs+0x58>
		      33c2:   b917          cbnz   r7, 33ca <__call_exitprocs+0x4e>
		      33c4:   3e01          subs   r6, #1
		--------------------

twi_sensor-o3: 20 | 63
	(     de4,      802)	
		--------------------
		       ddc:   3b01          subs   r3, #1
		       dde:   6013          str    r3, [r2, #0]
		       de0:   b903          cbnz   r3, de4 <app_util_critical_region_exit+0xc>
		       de2:   b662          cpsie  i
		->     de4:   4770          bx lr
		       de6:   bf00          nop
		       de8:   2000061c  .word   0x2000061c
		  
		  00000dec <nrf_atomic_u32_fetch_store>:
		--------------------
	(    168a,     1684)	
		--------------------
		      1682:   6836          ldr    r6, [r6, #0]
		      1684:   4621          mov    r1, r4
		      1686:   4640          mov    r0, r8
		      1688:   3501          adds   r5, #1
		->    168a:   f7ff fc2d     bl ee8 <nrf_balloc_free>
		      168e:   42af          cmp    r7, r5
		      1690:   d8f6          bhi.n  1680 <nrf_memobj_alloc+0x70>
		      1692:   2400          movs   r4, #0
		      1694:   4620          mov    r0, r4
		--------------------
	(    1696,     1694)	
		--------------------
		      168e:   42af          cmp    r7, r5
		      1690:   d8f6          bhi.n  1680 <nrf_memobj_alloc+0x70>
		      1692:   2400          movs   r4, #0
		      1694:   4620          mov    r0, r4
		->    1696:   e8bd 81f0     ldmia.w    sp!, {r4, r5, r6, r7, r8, pc}
		      169a:   6820          ldr    r0, [r4, #0]
		      169c:   4621          mov    r1, r4
		      169e:   f7ff fc23     bl ee8 <nrf_balloc_free>
		      16a2:   e7f6          b.n    1692 <nrf_memobj_alloc+0x82>
		--------------------
	(    18e8,     18da)	
		--------------------
		      18de:   6862          ldr    r2, [r4, #4]
		      18e0:   40d3          lsrs   r3, r2
		      18e2:   07db          lsls   r3, r3, #31
		      18e4:   f44f 7080     mov.w  r0, #256 ; 0x100
		->    18e8:   d422          bmi.n  1930 <nrf_drv_twi_init+0xec>
		      18ea:   6823          ldr    r3, [r4, #0]
		      18ec:   fa09 f303     lsl.w  r3, r9, r3
		      18f0:   f8c5 350c     str.w  r3, [r5, #1292]  ; 0x50c
		      18f4:   47b8          blx    r7
		--------------------
	(    1be2,     1be2)	
		--------------------
		      1bd8:   0798          lsls   r0, r3, #30
		      1bda:   d560          bpl.n  1c9e <SPIM0_SPIS0_TWIM0_TWIS0_SPI0_TWI0_IRQHandler+0x1aa>
		      1bdc:   2301          movs   r3, #1
		      1bde:   f88d 3018     strb.w r3, [sp, #24]
		->    1be2:   b115          cbz    r5, 1bea <SPIM0_SPIS0_TWIM0_TWIS0_SPI0_TWI0_IRQHandler+0xf6>
		      1be4:   f894 302e     ldrb.w r3, [r4, #46]   ; 0x2e
		      1be8:   b11b          cbz    r3, 1bf2 <SPIM0_SPIS0_TWIM0_TWIS0_SPI0_TWI0_IRQHandler+0xfe>
		      1bea:   e9d4 3100     ldrd   r3, r1, [r4]
		      1bee:   a806          add    r0, sp, #24
		--------------------
	(    1bfc,     1bfa)	
		--------------------
		      1bf2:   b00d          add    sp, #52    ; 0x34
		      1bf4:   bdf0          pop    {r4, r5, r6, r7, pc}
		      1bf6:   f894 6030     ldrb.w r6, [r4, #48]   ; 0x30
		      1bfa:   4a3d          ldr    r2, [pc, #244] ; (1cf0 <SPIM0_SPIS0_TWIM0_TWIS0_SPI0_TWI0_IRQHandler+0x1fc>)
		->    1bfc:   f8d2 34c4     ldr.w  r3, [r2, #1220]  ; 0x4c4
		      1c00:   f8c2 34c4     str.w  r3, [r2, #1220]  ; 0x4c4
		      1c04:   0799          lsls   r1, r3, #30
		      1c06:   d40a          bmi.n  1c1e <SPIM0_SPIS0_TWIM0_TWIS0_SPI0_TWI0_IRQHandler+0x12a>
		      1c08:   075a          lsls   r2, r3, #29
		--------------------
	(    1c52,     1c4a)	
		--------------------
		      1c48:   615a          str    r2, [r3, #20]
		      1c4a:   2301          movs   r3, #1
		      1c4c:   f884 302e     strb.w r3, [r4, #46]   ; 0x2e
		      1c50:   b00d          add    sp, #52    ; 0x34
		->    1c52:   bdf0          pop    {r4, r5, r6, r7, pc}
		      1c54:   4b2a          ldr    r3, [pc, #168] ; (1d00 <SPIM0_SPIS0_TWIM0_TWIS0_SPI0_TWI0_IRQHandler+0x20c>)
		      1c56:   4a29          ldr    r2, [pc, #164] ; (1cfc <SPIM0_SPIS0_TWIM0_TWIS0_SPI0_TWI0_IRQHandler+0x208>)
		      1c58:   f8c5 6200     str.w  r6, [r5, #512]   ; 0x200
		      1c5c:   60a6          str    r6, [r4, #8]
		--------------------
	(    1ca6,     1ca4)	
		--------------------
		      1c9e:   075a          lsls   r2, r3, #29
		      1ca0:   d421          bmi.n  1ce6 <SPIM0_SPIS0_TWIM0_TWIS0_SPI0_TWI0_IRQHandler+0x1f2>
		      1ca2:   2601          movs   r6, #1
		      1ca4:   07df          lsls   r7, r3, #31
		->    1ca6:   d416          bmi.n  1cd6 <SPIM0_SPIS0_TWIM0_TWIS0_SPI0_TWI0_IRQHandler+0x1e2>
		      1ca8:   f894 302e     ldrb.w r3, [r4, #46]   ; 0x2e
		      1cac:   009b          lsls   r3, r3, #2
		      1cae:   b2db          uxtb   r3, r3
		      1cb0:   e7ad          b.n    1c0e <SPIM0_SPIS0_TWIM0_TWIS0_SPI0_TWI0_IRQHandler+0x11a>
		--------------------
	(    2502,     24fe)	
		--------------------
		      24f8:   2100          movs   r1, #0
		      24fa:   f842 1023     str.w  r1, [r2, r3, lsl #2]
		      24fe:   68e3          ldr    r3, [r4, #12]
		      2500:   1c5a          adds   r2, r3, #1
		->    2502:   d00d          beq.n  2520 <nrfx_uart_init+0x178>
		      2504:   f04f 41a0     mov.w  r1, #1342177280  ; 0x50000000
		      2508:   2201          movs   r2, #1
		      250a:   fa02 f303     lsl.w  r3, r2, r3
		      250e:   f8c1 3508     str.w  r3, [r1, #1288]  ; 0x508
		--------------------
	(    28c8,     28c4)	
		--------------------
		      28be:   2203          movs   r2, #3
		      28c0:   f841 2023     str.w  r2, [r1, r3, lsl #2]
		      28c4:   686b          ldr    r3, [r5, #4]
		      28c6:   1c5a          adds   r2, r3, #1
		->    28c8:   d006          beq.n  28d8 <nrfx_uarte_init+0x68>
		      28ca:   f503 73e0     add.w  r3, r3, #448 ; 0x1c0
		      28ce:   f04f 42a0     mov.w  r2, #1342177280  ; 0x50000000
		      28d2:   2100          movs   r1, #0
		      28d4:   f842 1023     str.w  r1, [r2, r3, lsl #2]
		--------------------
	(    2994,     2988)	
		--------------------
		      2988:   6822          ldr    r2, [r4, #0]
		      298a:   f342 3307     sbfx   r3, r2, #12, #8
		      298e:   2b00          cmp    r3, #0
		      2990:   ea4f 3112     mov.w  r1, r2, lsr #12
		->    2994:   db08          blt.n  29a8 <nrfx_uarte_init+0x138>
		      2996:   4d28          ldr    r5, [pc, #160] ; (2a38 <nrfx_uarte_init+0x1c8>)
		      2998:   095b          lsrs   r3, r3, #5
		      299a:   f001 011f     and.w  r1, r1, #31
		      299e:   2201          movs   r2, #1
		--------------------
	(    29c4,     29a6)	
		--------------------
		      29b8:   f8c2 1500     str.w  r1, [r2, #1280]  ; 0x500
		      29bc:   e9c6 3306     strd   r3, r3, [r6, #24]
		      29c0:   6173          str    r3, [r6, #20]
		      29c2:   b007          add    sp, #28
		->    29c4:   e8bd 83f0     ldmia.w    sp!, {r4, r5, r6, r7, r8, r9, pc}
		      29c8:   2011          movs   r0, #17
		      29ca:   b007          add    sp, #28
		      29cc:   e8bd 83f0     ldmia.w    sp!, {r4, r5, r6, r7, r8, r9, pc}
		      29d0:   2008          movs   r0, #8
		--------------------
	(    2e3c,     2e32)	
		--------------------
		      2e2e:   f8c2 353c     str.w  r3, [r2, #1340]  ; 0x53c
		      2e32:   f04f 4370     mov.w  r3, #4026531840  ; 0xf0000000
		      2e36:   f893 2fe0     ldrb.w r2, [r3, #4064] ; 0xfe0
		      2e3a:   2a06          cmp    r2, #6
		->    2e3c:   f000 80f7     beq.w  302e <SystemInit+0x262>
		      2e40:   f04f 5380     mov.w  r3, #268435456   ; 0x10000000
		      2e44:   f8d3 3130     ldr.w  r3, [r3, #304]   ; 0x130
		      2e48:   1c58          adds   r0, r3, #1
		      2e4a:   bf04          itt    eq
		--------------------
	(    2e78,     2e6a)	
		--------------------
		      2e6a:   f04f 4370     mov.w  r3, #4026531840  ; 0xf0000000
		      2e6e:   f893 2fe0     ldrb.w r2, [r3, #4064] ; 0xfe0
		      2e72:   f8d3 3fe8     ldr.w  r3, [r3, #4072]  ; 0xfe8
		      2e76:   2a06          cmp    r2, #6
		->    2e78:   f000 80b8     beq.w  2fec <SystemInit+0x220>
		      2e7c:   f04f 5280     mov.w  r2, #268435456   ; 0x10000000
		      2e80:   f8d2 3130     ldr.w  r3, [r2, #304]   ; 0x130
		      2e84:   1c59          adds   r1, r3, #1
		      2e86:   f000 809d     beq.w  2fc4 <SystemInit+0x1f8>
		--------------------
	(    2fa8,     2fa4)	
		--------------------
		      2f9e:   d478          bmi.n  3092 <SystemInit+0x2c6>
		      2fa0:   f8d2 3134     ldr.w  r3, [r2, #308]   ; 0x134
		      2fa4:   3b03          subs   r3, #3
		      2fa6:   2b03          cmp    r3, #3
		->    2fa8:   d804          bhi.n  2fb4 <SystemInit+0x1e8>
		      2faa:   4a5f          ldr    r2, [pc, #380] ; (3128 <SystemInit+0x35c>)
		      2fac:   5cd3          ldrb   r3, [r2, r3]
		      2fae:   2b00          cmp    r3, #0
		      2fb0:   f43f af6d     beq.w  2e8e <SystemInit+0xc2>
		--------------------
	(    3190,     3172)	
		--------------------
		      3188:   4402          add    r2, r0
		      318a:   4603          mov    r3, r0
		      318c:   4293          cmp    r3, r2
		      318e:   d100          bne.n  3192 <memset+0xa>
		->    3190:   4770          bx lr
		      3192:   f803 1b01     strb.w r1, [r3], #1
		      3196:   e7f9          b.n    318c <memset+0x4>
		  
		  00003198 <__libc_init_array>:
		--------------------
	(    31a6,     31a4)	
		--------------------
		      319e:   1b64          subs   r4, r4, r5
		      31a0:   10a4          asrs   r4, r4, #2
		      31a2:   2600          movs   r6, #0
		      31a4:   42a6          cmp    r6, r4
		->    31a6:   d109          bne.n  31bc <__libc_init_array+0x24>
		      31a8:   4d0b          ldr    r5, [pc, #44]  ; (31d8 <__libc_init_array+0x40>)
		      31aa:   4c0c          ldr    r4, [pc, #48]  ; (31dc <__libc_init_array+0x44>)
		      31ac:   f000 f900     bl 33b0 <_init>
		      31b0:   1b64          subs   r4, r4, r5
		--------------------
	(    31b8,     31b6)	
		--------------------
		      31b0:   1b64          subs   r4, r4, r5
		      31b2:   10a4          asrs   r4, r4, #2
		      31b4:   2600          movs   r6, #0
		      31b6:   42a6          cmp    r6, r4
		->    31b8:   d105          bne.n  31c6 <__libc_init_array+0x2e>
		      31ba:   bd70          pop    {r4, r5, r6, pc}
		      31bc:   f855 3b04     ldr.w  r3, [r5], #4
		      31c0:   4798          blx    r3
		      31c2:   3601          adds   r6, #1
		--------------------
	(    3268,     3264)	
		--------------------
		      325e:   681b          ldr    r3, [r3, #0]
		      3260:   f8c4 3088     str.w  r3, [r4, #136]   ; 0x88
		      3264:   6863          ldr    r3, [r4, #4]
		      3266:   2b1f          cmp    r3, #31
		->    3268:   dd07          ble.n  327a <__register_exitproc+0x42>
		      326a:   f8d8 0000     ldr.w  r0, [r8]
		      326e:   f7ff ffcc     bl 320a <__retarget_lock_release_recursive>
		      3272:   f04f 30ff     mov.w  r0, #4294967295  ; 0xffffffff
		      3276:   e8bd 83f8     ldmia.w    sp!, {r3, r4, r5, r6, r7, r8, r9, pc}
		--------------------
	(    32d8,     329e)	
		--------------------
		      32ce:   1c5a          adds   r2, r3, #1
		      32d0:   3302          adds   r3, #2
		      32d2:   6062          str    r2, [r4, #4]
		      32d4:   f844 5023     str.w  r5, [r4, r3, lsl #2]
		->    32d8:   f7ff ff97     bl 320a <__retarget_lock_release_recursive>
		      32dc:   2000          movs   r0, #0
		      32de:   e7ca          b.n    3276 <__register_exitproc+0x3e>
		      32e0:   20000764  .word   0x20000764
		      32e4:   200006d8  .word   0x200006d8
		--------------------

uart-o0: 20 | 167
	(     302,      3de)	
		--------------------
		       2f8:   4618          mov    r0, r3
		       2fa:   370c          adds   r7, #12
		       2fc:   46bd          mov    sp, r7
		       2fe:   f85d 7b04     ldr.w  r7, [sp], #4
		->     302:   4770          bx lr
		  
		  00000304 <nrf_gpio_cfg>:
		       304:   b580          push   {r7, lr}
		       306:   b084          sub    sp, #16
		--------------------
	(     3ec,      43c)	
		--------------------
		       3e2:   2201          movs   r2, #1
		       3e4:   fa02 f303     lsl.w  r3, r2, r3
		       3e8:   4619          mov    r1, r3
		       3ea:   68f8          ldr    r0, [r7, #12]
		->     3ec:   f000 f826     bl 43c <nrf_gpio_port_out_clear>
		       3f0:   bf00          nop
		       3f2:   3710          adds   r7, #16
		       3f4:   46bd          mov    sp, r7
		       3f6:   bd80          pop    {r7, pc}
		--------------------
	(     72c,      726)	
		--------------------
		       724:   2305          movs   r3, #5
		       726:   4618          mov    r0, r3
		       728:   3708          adds   r7, #8
		       72a:   46bd          mov    sp, r7
		->     72c:   bd80          pop    {r7, pc}
		      ...
		  
		  00000730 <nrf_drv_uart_tx>:
		       730:   b580          push   {r7, lr}
		--------------------
	(     e68,      e5e)	
		--------------------
		       e5e:   bf00          nop
		       e60:   370c          adds   r7, #12
		       e62:   46bd          mov    sp, r7
		       e64:   f85d 7b04     ldr.w  r7, [sp], #4
		->     e68:   4770          bx lr
		       e6a:   bf00          nop
		       e6c:   e000e100  .word   0xe000e100
		  
		  00000e70 <__NVIC_SetPriority>:
		--------------------
	(    1576,     1570)	
		--------------------
		      156e:   697b          ldr    r3, [r7, #20]
		      1570:   4618          mov    r0, r3
		      1572:   3718          adds   r7, #24
		      1574:   46bd          mov    sp, r7
		->    1576:   bd80          pop    {r7, pc}
		      1578:   200000e0  .word   0x200000e0
		  
		  0000157c <nrfx_uart_tx_in_progress>:
		      157c:   b480          push   {r7}
		--------------------
	(    26b2,     26ae)	
		--------------------
		      26a8:   f000 fd2e     bl 3108 <iprintf>
		      26ac:   bf00          nop
		      26ae:   1dfb          adds   r3, r7, #7
		      26b0:   4618          mov    r0, r3
		->    26b2:   f7fe f9f5     bl aa0 <app_uart_get>
		      26b6:   4603          mov    r3, r0
		      26b8:   2b00          cmp    r3, #0
		      26ba:   d1f8          bne.n  26ae <main+0x5e>
		      26bc:   bf00          nop
		--------------------
	(    279c,     2792)	
		--------------------
		      2792:   4618          mov    r0, r3
		      2794:   370c          adds   r7, #12
		      2796:   46bd          mov    sp, r7
		      2798:   f85d 7b04     ldr.w  r7, [sp], #4
		->    279c:   4770          bx lr
		      279e:   bf00          nop
		      27a0:   10000130  .word   0x10000130
		      27a4:   f0000fe0  .word   0xf0000fe0
		      27a8:   f0000fe8  .word   0xf0000fe8
		--------------------
	(    2a00,     29f6)	
		--------------------
		      29f6:   4618          mov    r0, r3
		      29f8:   370c          adds   r7, #12
		      29fa:   46bd          mov    sp, r7
		      29fc:   f85d 7b04     ldr.w  r7, [sp], #4
		->    2a00:   4770          bx lr
		      2a02:   bf00          nop
		      2a04:   f0000fe0  .word   0xf0000fe0
		      2a08:   f0000fe8  .word   0xf0000fe8
		  
		--------------------
	(    2a6c,     2a62)	
		--------------------
		      2a62:   4618          mov    r0, r3
		      2a64:   370c          adds   r7, #12
		      2a66:   46bd          mov    sp, r7
		      2a68:   f85d 7b04     ldr.w  r7, [sp], #4
		->    2a6c:   4770          bx lr
		      2a6e:   bf00          nop
		      2a70:   f0000fe0  .word   0xf0000fe0
		      2a74:   f0000fe8  .word   0xf0000fe8
		  
		--------------------
	(    2b3a,     2b36)	
		--------------------
		      2b32:   681b          ldr    r3, [r3, #0]
		      2b34:   603b          str    r3, [r7, #0]
		      2b36:   687b          ldr    r3, [r7, #4]
		      2b38:   2b06          cmp    r3, #6
		->    2b3a:   d119          bne.n  2b70 <nrf52_errata_108+0x6c>
		      2b3c:   683b          ldr    r3, [r7, #0]
		      2b3e:   3b03          subs   r3, #3
		      2b40:   2b03          cmp    r3, #3
		      2b42:   d813          bhi.n  2b6c <nrf52_errata_108+0x68>
		--------------------
	(    2bfe,     2bfe)	
		--------------------
		      2bf6:   e002          b.n    2bfe <nrf52_errata_136+0x6e>
		      2bf8:   2301          movs   r3, #1
		      2bfa:   e000          b.n    2bfe <nrf52_errata_136+0x6e>
		      2bfc:   2300          movs   r3, #0
		->    2bfe:   4618          mov    r0, r3
		      2c00:   370c          adds   r7, #12
		      2c02:   46bd          mov    sp, r7
		      2c04:   f85d 7b04     ldr.w  r7, [sp], #4
		      2c08:   4770          bx lr
		--------------------
	(    30e0,     30e2)	
		--------------------
		      30d4:   4614          mov    r4, r2
		      30d6:   2600          movs   r6, #0
		      30d8:   e9d4 9501     ldrd   r9, r5, [r4, #4]
		      30dc:   f1b9 0901     subs.w r9, r9, #1
		->    30e0:   d505          bpl.n  30ee <_fwalk_sglue+0x22>
		      30e2:   6824          ldr    r4, [r4, #0]
		      30e4:   2c00          cmp    r4, #0
		      30e6:   d1f7          bne.n  30d8 <_fwalk_sglue+0xc>
		      30e8:   4630          mov    r0, r6
		--------------------
	(    3100,     3cc8)	
		--------------------
		      30f8:   3301          adds   r3, #1
		      30fa:   d003          beq.n  3104 <_fwalk_sglue+0x38>
		      30fc:   4629          mov    r1, r5
		      30fe:   4638          mov    r0, r7
		->    3100:   47c0          blx    r8
		      3102:   4306          orrs   r6, r0
		      3104:   3568          adds   r5, #104  ; 0x68
		      3106:   e7e9          b.n    30dc <_fwalk_sglue+0x10>
		  
		--------------------
	(    3664,     38fe)	
		--------------------
		      365a:   4630          mov    r0, r6
		      365c:   f7ff ffda     bl 3614 <__sfputc_r>
		      3660:   1c43          adds   r3, r0, #1
		      3662:   d1f3          bne.n  364c <__sfputs_r+0xa>
		->    3664:   bdf8          pop    {r3, r4, r5, r6, r7, pc}
		      ...
		  
		  00003668 <_vfiprintf_r>:
		      3668:   e92d 4ff0     stmdb  sp!, {r4, r5, r6, r7, r8, r9, sl, fp, lr}
		--------------------
	(    36e8,     36e2)	
		--------------------
		      36dc:   f04f 0901     mov.w  r9, #1
		      36e0:   4623          mov    r3, r4
		      36e2:   469a          mov    sl, r3
		      36e4:   f813 2b01     ldrb.w r2, [r3], #1
		->    36e8:   b10a          cbz    r2, 36ee <_vfiprintf_r+0x86>
		      36ea:   2a25          cmp    r2, #37    ; 0x25
		      36ec:   d1f9          bne.n  36e2 <_vfiprintf_r+0x7a>
		      36ee:   ebba 0b04     subs.w fp, sl, r4
		      36f2:   d00b          beq.n  370c <_vfiprintf_r+0xa4>
		--------------------
	(    37a6,     37a2)	
		--------------------
		      379e:   bfb8          it lt
		      37a0:   9204          strlt  r2, [sp, #16]
		      37a2:   7823          ldrb   r3, [r4, #0]
		      37a4:   2b2e          cmp    r3, #46    ; 0x2e
		->    37a6:   d10c          bne.n  37c2 <_vfiprintf_r+0x15a>
		      37a8:   7863          ldrb   r3, [r4, #1]
		      37aa:   2b2a          cmp    r3, #42    ; 0x2a
		      37ac:   d134          bne.n  3818 <_vfiprintf_r+0x1b0>
		      37ae:   9b03          ldr    r3, [sp, #12]
		--------------------
	(    3ade,     3adc)	
		--------------------
		      3ad4:   3001          adds   r0, #1
		      3ad6:   d14a          bne.n  3b6e <_printf_i+0x1f6>
		      3ad8:   f04f 30ff     mov.w  r0, #4294967295  ; 0xffffffff
		      3adc:   b004          add    sp, #16
		->    3ade:   e8bd 87f0     ldmia.w    sp!, {r4, r5, r6, r7, r8, r9, sl, pc}
		      3ae2:   6823          ldr    r3, [r4, #0]
		      3ae4:   f043 0320     orr.w  r3, r3, #32
		      3ae8:   6023          str    r3, [r4, #0]
		      3aea:   4833          ldr    r0, [pc, #204] ; (3bb8 <_printf_i+0x240>)
		--------------------
	(    3c0e,     3c04)	
		--------------------
		      3c06:   4602          mov    r2, r0
		      3c08:   6ae6          ldr    r6, [r4, #44]  ; 0x2c
		      3c0a:   6a21          ldr    r1, [r4, #32]
		      3c0c:   4628          mov    r0, r5
		->    3c0e:   47b0          blx    r6
		      3c10:   1c43          adds   r3, r0, #1
		      3c12:   89a3          ldrh   r3, [r4, #12]
		      3c14:   d106          bne.n  3c24 <__sflush_r+0x68>
		      3c16:   6829          ldr    r1, [r5, #0]
		--------------------
	(    3c9a,     3c96)	
		--------------------
		      3c8e:   2300          movne  r3, #0
		      3c90:   eba6 0807     sub.w  r8, r6, r7
		      3c94:   608b          str    r3, [r1, #8]
		      3c96:   f1b8 0f00     cmp.w  r8, #0
		->    3c9a:   dd9c          ble.n  3bd6 <__sflush_r+0x1a>
		      3c9c:   6a21          ldr    r1, [r4, #32]
		      3c9e:   6aa6          ldr    r6, [r4, #40]  ; 0x28
		      3ca0:   4643          mov    r3, r8
		      3ca2:   463a          mov    r2, r7
		--------------------
	(    3f0c,     3f08)	
		--------------------
		      3f02:   f415 3fc0     tsteq.w    r5, #98304 ; 0x18000
		      3f06:   3001          addeq  r0, #1
		      3f08:   bcf0          pop    {r4, r5, r6, r7}
		      3f0a:   3801          subs   r0, #1
		->    3f0c:   4770          bx lr
		      3f0e:   bf00          nop
		  
		  00003f10 <__swhatbuf_r>:
		      3f10:   b570          push   {r4, r5, r6, lr}
		--------------------

uart-o1: 20 | 119
	(     216,      212)	
		--------------------
		       20c:   4804          ldr    r0, [pc, #16]  ; (220 <__do_global_dtors_aux+0x20>)
		       20e:   f3af 8000     nop.w
		       212:   2301          movs   r3, #1
		       214:   7023          strb   r3, [r4, #0]
		->     216:   bd10          pop    {r4, pc}
		       218:   20000080  .word   0x20000080
		       21c:   00000000  .word   0x00000000
		       220:   00002998  .word   0x00002998
		  
		--------------------
	(     d6a,      d60)	
		--------------------
		       d60:   4b3f          ldr    r3, [pc, #252] ; (e60 <nrfx_uart_rx+0x120>)
		       d62:   242c          movs   r4, #44   ; 0x2c
		       d64:   fb04 3306     mla    r3, r4, r6, r3
		       d68:   699b          ldr    r3, [r3, #24]
		->     d6a:   b31b          cbz    r3, db4 <nrfx_uart_rx+0x74>
		       d6c:   4b3c          ldr    r3, [pc, #240] ; (e60 <nrfx_uart_rx+0x120>)
		       d6e:   fb04 3306     mla    r3, r4, r6, r3
		       d72:   69db          ldr    r3, [r3, #28]
		       d74:   b9ab          cbnz   r3, da2 <nrfx_uart_rx+0x62>
		--------------------
	(    1070,     104a)	
		--------------------
		      1064:   f8c3 150c     str.w  r1, [r3, #1292]  ; 0x50c
		      1068:   f8c3 2514     str.w  r2, [r3, #1300]  ; 0x514
		      106c:   7d2b          ldrb   r3, [r5, #20]
		      106e:   2b01          cmp    r3, #1
		->    1070:   d063          beq.n  113a <nrfx_uarte_init+0x156>
		      1072:   4b49          ldr    r3, [pc, #292] ; (1198 <nrfx_uarte_init+0x1b4>)
		      1074:   eb06 02c6     add.w  r2, r6, r6, lsl #3
		      1078:   eb03 0182     add.w  r1, r3, r2, lsl #2
		      107c:   604f          str    r7, [r1, #4]
		--------------------
	(    1100,     10f6)	
		--------------------
		      10f6:   6823          ldr    r3, [r4, #0]
		      10f8:   0b1a          lsrs   r2, r3, #12
		      10fa:   f343 3307     sbfx   r3, r3, #12, #8
		      10fe:   2b00          cmp    r3, #0
		->    1100:   db08          blt.n  1114 <nrfx_uarte_init+0x130>
		      1102:   095b          lsrs   r3, r3, #5
		      1104:   f002 021f     and.w  r2, r2, #31
		      1108:   2101          movs   r1, #1
		      110a:   fa01 f202     lsl.w  r2, r1, r2
		--------------------
	(    173a,     172e)	
		--------------------
		      172a:   f8c3 2570     str.w  r2, [r3, #1392]  ; 0x570
		      172e:   f04f 5380     mov.w  r3, #268435456   ; 0x10000000
		      1732:   f8d3 3130     ldr.w  r3, [r3, #304]   ; 0x130
		      1736:   f1b3 3fff     cmp.w  r3, #4294967295  ; 0xffffffff
		->    173a:   f47f af0e     bne.w  155a <SystemInit+0xce>
		      173e:   e781          b.n    1644 <SystemInit+0x1b8>
		      1740:   f04f 5380     mov.w  r3, #268435456   ; 0x10000000
		      1744:   f8d3 3134     ldr.w  r3, [r3, #308]   ; 0x134
		      1748:   3b03          subs   r3, #3
		--------------------
	(    1814,     186c)	
		--------------------
		      180a:   f000 f9f7     bl 1bfc <__call_exitprocs>
		      180e:   4b04          ldr    r3, [pc, #16]  ; (1820 <exit+0x20>)
		      1810:   681b          ldr    r3, [r3, #0]
		      1812:   b103          cbz    r3, 1816 <exit+0x16>
		->    1814:   4798          blx    r3
		      1816:   4620          mov    r0, r4
		      1818:   f001 f864     bl 28e4 <_exit>
		      181c:   00001bfd  .word   0x00001bfd
		      1820:   2000046c  .word   0x2000046c
		--------------------
	(    1962,     1964)	
		--------------------
		      1958:   f1b9 0901     subs.w r9, r9, #1
		      195c:   d505          bpl.n  196a <_fwalk_sglue+0x22>
		      195e:   6824          ldr    r4, [r4, #0]
		      1960:   2c00          cmp    r4, #0
		->    1962:   d1f7          bne.n  1954 <_fwalk_sglue+0xc>
		      1964:   4630          mov    r0, r6
		      1966:   e8bd 83f8     ldmia.w    sp!, {r3, r4, r5, r6, r7, r8, r9, pc}
		      196a:   89ab          ldrh   r3, [r5, #12]
		      196c:   2b01          cmp    r3, #1
		--------------------
	(    1b7e,     1b7e)	
		--------------------
		      1b70:   dd07          ble.n  1b82 <__register_exitproc+0x42>
		      1b72:   f8d8 0000     ldr.w  r0, [r8]
		      1b76:   f7ff ffe2     bl 1b3e <__retarget_lock_release_recursive>
		      1b7a:   f04f 30ff     mov.w  r0, #4294967295  ; 0xffffffff
		->    1b7e:   e8bd 83f8     ldmia.w    sp!, {r3, r4, r5, r6, r7, r8, r9, pc}
		      1b82:   b32e          cbz    r6, 1bd0 <__register_exitproc+0x90>
		      1b84:   f8d4 0088     ldr.w  r0, [r4, #136]   ; 0x88
		      1b88:   b968          cbnz   r0, 1ba6 <__register_exitproc+0x66>
		      1b8a:   4b1a          ldr    r3, [pc, #104] ; (1bf4 <__register_exitproc+0xb4>)
		--------------------
	(    1db0,     1dae)	
		--------------------
		      1da8:   230c          movs   r3, #12
		      1daa:   603b          str    r3, [r7, #0]
		      1dac:   2600          movs   r6, #0
		      1dae:   4630          mov    r0, r6
		->    1db0:   e8bd 81f0     ldmia.w    sp!, {r4, r5, r6, r7, r8, pc}
		      1db4:   4e2f          ldr    r6, [pc, #188] ; (1e74 <_malloc_r+0xe8>)
		      1db6:   f000 f85f     bl 1e78 <__malloc_lock>
		      1dba:   6833          ldr    r3, [r6, #0]
		      1dbc:   461c          mov    r4, r3
		--------------------
	(    1dbe,     1dbe)	
		--------------------
		      1db4:   4e2f          ldr    r6, [pc, #188] ; (1e74 <_malloc_r+0xe8>)
		      1db6:   f000 f85f     bl 1e78 <__malloc_lock>
		      1dba:   6833          ldr    r3, [r6, #0]
		      1dbc:   461c          mov    r4, r3
		->    1dbe:   bb44          cbnz   r4, 1e12 <_malloc_r+0x86>
		      1dc0:   4629          mov    r1, r5
		      1dc2:   4638          mov    r0, r7
		      1dc4:   f7ff ffc2     bl 1d4c <sbrk_aligned>
		      1dc8:   1c43          adds   r3, r0, #1
		--------------------
	(    1eca,     1ec8)	
		--------------------
		      1ec2:   460f          mov    r7, r1
		      1ec4:   4614          mov    r4, r2
		      1ec6:   18d5          adds   r5, r2, r3
		      1ec8:   42ac          cmp    r4, r5
		->    1eca:   d101          bne.n  1ed0 <__sfputs_r+0x12>
		      1ecc:   2000          movs   r0, #0
		      1ece:   e007          b.n    1ee0 <__sfputs_r+0x22>
		      1ed0:   f814 1b01     ldrb.w r1, [r4], #1
		      1ed4:   463a          mov    r2, r7
		--------------------
	(    2088,     2082)	
		--------------------
		      2080:   9303          str    r3, [sp, #12]
		      2082:   9b09          ldr    r3, [sp, #36]  ; 0x24
		      2084:   443b          add    r3, r7
		      2086:   9309          str    r3, [sp, #36]  ; 0x24
		->    2088:   e768          b.n    1f5c <_vfiprintf_r+0x78>
		      208a:   fb0c 3202     mla    r2, ip, r2, r3
		      208e:   460c          mov    r4, r1
		      2090:   2001          movs   r0, #1
		      2092:   e7a6          b.n    1fe2 <_vfiprintf_r+0xfe>
		--------------------
	(    2150,     213e)	
		--------------------
		      2146:   3302          addmi  r3, #2
		      2148:   6033          strmi  r3, [r6, #0]
		      214a:   6825          ldr    r5, [r4, #0]
		      214c:   f015 0506     ands.w r5, r5, #6
		->    2150:   d106          bne.n  2160 <_printf_common+0x48>
		      2152:   f104 0a19     add.w  sl, r4, #25
		      2156:   68e3          ldr    r3, [r4, #12]
		      2158:   6832          ldr    r2, [r6, #0]
		      215a:   1a9b          subs   r3, r3, r2
		--------------------
	(    235a,     2358)	
		--------------------
		      2350:   3001          adds   r0, #1
		      2352:   d14a          bne.n  23ea <_printf_i+0x1f6>
		      2354:   f04f 30ff     mov.w  r0, #4294967295  ; 0xffffffff
		      2358:   b004          add    sp, #16
		->    235a:   e8bd 87f0     ldmia.w    sp!, {r4, r5, r6, r7, r8, r9, sl, pc}
		      235e:   6823          ldr    r3, [r4, #0]
		      2360:   f043 0320     orr.w  r3, r3, #32
		      2364:   6023          str    r3, [r4, #0]
		      2366:   4833          ldr    r0, [pc, #204] ; (2434 <_printf_i+0x240>)
		--------------------
	(    2422,     241a)	
		--------------------
		      241a:   68e3          ldr    r3, [r4, #12]
		      241c:   9903          ldr    r1, [sp, #12]
		      241e:   1a5b          subs   r3, r3, r1
		      2420:   42ab          cmp    r3, r5
		->    2422:   dcf2          bgt.n  240a <_printf_i+0x216>
		      2424:   e7eb          b.n    23fe <_printf_i+0x20a>
		      2426:   2500          movs   r5, #0
		      2428:   f104 0619     add.w  r6, r4, #25
		      242c:   e7f5          b.n    241a <_printf_i+0x226>
		--------------------
	(    2454,     2454)	
		--------------------
		      244c:   6c0b          ldr    r3, [r1, #64]  ; 0x40
		      244e:   2b00          cmp    r3, #0
		      2450:   dc02          bgt.n  2458 <__sflush_r+0x20>
		      2452:   2000          movs   r0, #0
		->    2454:   e8bd 81f0     ldmia.w    sp!, {r4, r5, r6, r7, r8, pc}
		      2458:   6ae6          ldr    r6, [r4, #44]  ; 0x2c
		      245a:   2e00          cmp    r6, #0
		      245c:   d0f9          beq.n  2452 <__sflush_r+0x1a>
		      245e:   2300          movs   r3, #0
		--------------------
	(    248a,     2480)	
		--------------------
		      2482:   4602          mov    r2, r0
		      2484:   6ae6          ldr    r6, [r4, #44]  ; 0x2c
		      2486:   6a21          ldr    r1, [r4, #32]
		      2488:   4628          mov    r0, r5
		->    248a:   47b0          blx    r6
		      248c:   1c43          adds   r3, r0, #1
		      248e:   89a3          ldrh   r3, [r4, #12]
		      2490:   d106          bne.n  24a0 <__sflush_r+0x68>
		      2492:   6829          ldr    r1, [r5, #0]
		--------------------
	(    24f6,     24f0)	
		--------------------
		      24ec:   e7b1          b.n    2452 <__sflush_r+0x1a>
		      24ee:   89a3          ldrh   r3, [r4, #12]
		      24f0:   f043 0340     orr.w  r3, r3, #64  ; 0x40
		      24f4:   81a3          strh   r3, [r4, #12]
		->    24f6:   e7ad          b.n    2454 <__sflush_r+0x1c>
		      24f8:   690f          ldr    r7, [r1, #16]
		      24fa:   2f00          cmp    r7, #0
		      24fc:   d0a9          beq.n  2452 <__sflush_r+0x1a>
		      24fe:   0793          lsls   r3, r2, #30
		--------------------
	(    2676,     266c)	
		--------------------
		      266c:   89a3          ldrh   r3, [r4, #12]
		      266e:   f043 0308     orr.w  r3, r3, #8
		      2672:   81a3          strh   r3, [r4, #12]
		      2674:   6923          ldr    r3, [r4, #16]
		->    2676:   b94b          cbnz   r3, 268c <__swsetup_r+0x7c>
		      2678:   89a3          ldrh   r3, [r4, #12]
		      267a:   f403 7320     and.w  r3, r3, #640 ; 0x280
		      267e:   f5b3 7f00     cmp.w  r3, #512 ; 0x200
		      2682:   d003          beq.n  268c <__swsetup_r+0x7c>
		--------------------
	(    26a4,     26a2)	
		--------------------
		      269c:   6963          ldr    r3, [r4, #20]
		      269e:   425b          negs   r3, r3
		      26a0:   61a3          str    r3, [r4, #24]
		      26a2:   6923          ldr    r3, [r4, #16]
		->    26a4:   b943          cbnz   r3, 26b8 <__swsetup_r+0xa8>
		      26a6:   f010 0080     ands.w r0, r0, #128    ; 0x80
		      26aa:   d1c4          bne.n  2636 <__swsetup_r+0x26>
		      26ac:   bd38          pop    {r3, r4, r5, pc}
		      26ae:   0781          lsls   r1, r0, #30
		--------------------

uart-o2: 20 | 115
	(     b82,      b7e)	
		--------------------
		       b78:   2100          movs   r1, #0
		       b7a:   f842 1023     str.w  r1, [r2, r3, lsl #2]
		       b7e:   68e3          ldr    r3, [r4, #12]
		       b80:   1c5a          adds   r2, r3, #1
		->     b82:   d00d          beq.n  ba0 <nrfx_uart_init+0x178>
		       b84:   f04f 41a0     mov.w  r1, #1342177280  ; 0x50000000
		       b88:   2201          movs   r2, #1
		       b8a:   fa02 f303     lsl.w  r3, r2, r3
		       b8e:   f8c1 3508     str.w  r3, [r1, #1288]  ; 0x508
		--------------------
	(     d00,      cfe)	
		--------------------
		       cf4:   f44f 7201     mov.w  r2, #516 ; 0x204
		       cf8:   f8c3 2304     str.w  r2, [r3, #772]   ; 0x304
		       cfc:   2000          movs   r0, #0
		       cfe:   b007          add    sp, #28
		->     d00:   bd30          pop    {r4, r5, pc}
		       d02:   619a          str    r2, [r3, #24]
		       d04:   60d9          str    r1, [r3, #12]
		       d06:   6258          str    r0, [r3, #36]  ; 0x24
		       d08:   61d8          str    r0, [r3, #28]
		--------------------
	(    10cc,     10ae)	
		--------------------
		      10c0:   f8c2 1500     str.w  r1, [r2, #1280]  ; 0x500
		      10c4:   e9c6 3306     strd   r3, r3, [r6, #24]
		      10c8:   6173          str    r3, [r6, #20]
		      10ca:   b007          add    sp, #28
		->    10cc:   e8bd 83f0     ldmia.w    sp!, {r4, r5, r6, r7, r8, r9, pc}
		      10d0:   2011          movs   r0, #17
		      10d2:   b007          add    sp, #28
		      10d4:   e8bd 83f0     ldmia.w    sp!, {r4, r5, r6, r7, r8, r9, pc}
		      10d8:   2008          movs   r0, #8
		--------------------
	(    151e,     151a)	
		--------------------
		      1514:   d1da          bne.n  14cc <SystemInit+0xe0>
		      1516:   f3c2 1203     ubfx   r2, r2, #4, #4
		      151a:   3a03          subs   r2, #3
		      151c:   2a03          cmp    r2, #3
		->    151e:   f240 80d5     bls.w  16cc <SystemInit+0x2e0>
		      1522:   f04f 5380     mov.w  r3, #268435456   ; 0x10000000
		      1526:   4a74          ldr    r2, [pc, #464] ; (16f8 <SystemInit+0x30c>)
		      1528:   f8d3 1404     ldr.w  r1, [r3, #1028]  ; 0x404
		      152c:   f8c2 1520     str.w  r1, [r2, #1312]  ; 0x520
		--------------------
	(    18f0,     18ec)	
		--------------------
		      18e4:   4614          mov    r4, r2
		      18e6:   2600          movs   r6, #0
		      18e8:   e9d4 9501     ldrd   r9, r5, [r4, #4]
		      18ec:   f1b9 0901     subs.w r9, r9, #1
		->    18f0:   d505          bpl.n  18fe <_fwalk_sglue+0x22>
		      18f2:   6824          ldr    r4, [r4, #0]
		      18f4:   2c00          cmp    r4, #0
		      18f6:   d1f7          bne.n  18e8 <_fwalk_sglue+0xc>
		      18f8:   4630          mov    r0, r6
		--------------------
	(    1916,     18ec)	
		--------------------
		      190e:   4638          mov    r0, r7
		      1910:   47c0          blx    r8
		      1912:   4306          orrs   r6, r0
		      1914:   3568          adds   r5, #104  ; 0x68
		->    1916:   e7e9          b.n    18ec <_fwalk_sglue+0x10>
		  
		  00001918 <iprintf>:
		      1918:   b40f          push   {r0, r1, r2, r3}
		      191a:   b507          push   {r0, r1, r2, lr}
		--------------------
	(    1916,     1914)	
		--------------------
		      190e:   4638          mov    r0, r7
		      1910:   47c0          blx    r8
		      1912:   4306          orrs   r6, r0
		      1914:   3568          adds   r5, #104  ; 0x68
		->    1916:   e7e9          b.n    18ec <_fwalk_sglue+0x10>
		  
		  00001918 <iprintf>:
		      1918:   b40f          push   {r0, r1, r2, r3}
		      191a:   b507          push   {r0, r1, r2, lr}
		--------------------
	(    1a6e,     1a6c)	
		--------------------
		      1a66:   1b64          subs   r4, r4, r5
		      1a68:   10a4          asrs   r4, r4, #2
		      1a6a:   2600          movs   r6, #0
		      1a6c:   42a6          cmp    r6, r4
		->    1a6e:   d109          bne.n  1a84 <__libc_init_array+0x24>
		      1a70:   4d0b          ldr    r5, [pc, #44]  ; (1aa0 <__libc_init_array+0x40>)
		      1a72:   4c0c          ldr    r4, [pc, #48]  ; (1aa4 <__libc_init_array+0x44>)
		      1a74:   f000 ff08     bl 2888 <_init>
		      1a78:   1b64          subs   r4, r4, r5
		--------------------
	(    1ab2,     1ab2)	
		--------------------
		      1aaa:   4d07          ldr    r5, [pc, #28]  ; (1ac8 <__libc_fini_array+0x20>)
		      1aac:   4c07          ldr    r4, [pc, #28]  ; (1acc <__libc_fini_array+0x24>)
		      1aae:   1b64          subs   r4, r4, r5
		      1ab0:   10a4          asrs   r4, r4, #2
		->    1ab2:   b91c          cbnz   r4, 1abc <__libc_fini_array+0x14>
		      1ab4:   e8bd 4038     ldmia.w    sp!, {r3, r4, r5, lr}
		      1ab8:   f000 beec     b.w    2894 <_fini>
		      1abc:   3c01          subs   r4, #1
		      1abe:   f855 3024     ldr.w  r3, [r5, r4, lsl #2]
		--------------------
	(    1cf6,     1cf2)	
		--------------------
		      1cec:   f000 fcb2     bl 2654 <_sbrk_r>
		      1cf0:   6030          str    r0, [r6, #0]
		      1cf2:   4621          mov    r1, r4
		      1cf4:   4628          mov    r0, r5
		->    1cf6:   f000 fcad     bl 2654 <_sbrk_r>
		      1cfa:   1c43          adds   r3, r0, #1
		      1cfc:   d00a          beq.n  1d14 <sbrk_aligned+0x34>
		      1cfe:   1cc4          adds   r4, r0, #3
		      1d00:   f024 0403     bic.w  r4, r4, #3
		--------------------
	(    1d68,     1d66)	
		--------------------
		      1d60:   d14f          bne.n  1e02 <_malloc_r+0xe2>
		      1d62:   6834          ldr    r4, [r6, #0]
		      1d64:   4626          mov    r6, r4
		      1d66:   2e00          cmp    r6, #0
		->    1d68:   d142          bne.n  1df0 <_malloc_r+0xd0>
		      1d6a:   2c00          cmp    r4, #0
		      1d6c:   d043          beq.n  1df6 <_malloc_r+0xd6>
		      1d6e:   6823          ldr    r3, [r4, #0]
		      1d70:   4631          mov    r1, r6
		--------------------
	(    1ec2,     1ec0)	
		--------------------
		      1eb8:   07dc          lsls   r4, r3, #31
		      1eba:   d504          bpl.n  1ec6 <_vfiprintf_r+0x4e>
		      1ebc:   f04f 30ff     mov.w  r0, #4294967295  ; 0xffffffff
		      1ec0:   b01d          add    sp, #116   ; 0x74
		->    1ec2:   e8bd 8ff0     ldmia.w    sp!, {r4, r5, r6, r7, r8, r9, sl, fp, pc}
		      1ec6:   89ab          ldrh   r3, [r5, #12]
		      1ec8:   0598          lsls   r0, r3, #22
		      1eca:   d4f7          bmi.n  1ebc <_vfiprintf_r+0x44>
		      1ecc:   6da8          ldr    r0, [r5, #88]  ; 0x58
		--------------------
	(    1ef8,     1ef2)	
		--------------------
		      1eec:   f04f 0901     mov.w  r9, #1
		      1ef0:   4623          mov    r3, r4
		      1ef2:   469a          mov    sl, r3
		      1ef4:   f813 2b01     ldrb.w r2, [r3], #1
		->    1ef8:   b10a          cbz    r2, 1efe <_vfiprintf_r+0x86>
		      1efa:   2a25          cmp    r2, #37    ; 0x25
		      1efc:   d1f9          bne.n  1ef2 <_vfiprintf_r+0x7a>
		      1efe:   ebba 0b04     subs.w fp, sl, r4
		      1f02:   d00b          beq.n  1f1c <_vfiprintf_r+0xa4>
		--------------------
	(    1f48,     1f3e)	
		--------------------
		      1f3e:   4654          mov    r4, sl
		      1f40:   2205          movs   r2, #5
		      1f42:   f814 1b01     ldrb.w r1, [r4], #1
		      1f46:   4854          ldr    r0, [pc, #336] ; (2098 <Heap_Size+0x98>)
		->    1f48:   f000 fb9a     bl 2680 <memchr>
		      1f4c:   9a04          ldr    r2, [sp, #16]
		      1f4e:   b9d8          cbnz   r0, 1f88 <_vfiprintf_r+0x110>
		      1f50:   06d1          lsls   r1, r2, #27
		      1f52:   bf44          itt    mi
		--------------------
	(    201c,     2016)	
		--------------------
		      2014:   9303          str    r3, [sp, #12]
		      2016:   9b09          ldr    r3, [sp, #36]  ; 0x24
		      2018:   443b          add    r3, r7
		      201a:   9309          str    r3, [sp, #36]  ; 0x24
		->    201c:   e768          b.n    1ef0 <_vfiprintf_r+0x78>
		      201e:   fb0c 3202     mla    r2, ip, r2, r3
		      2022:   460c          mov    r4, r1
		      2024:   2001          movs   r0, #1
		      2026:   e7a6          b.n    1f76 <_vfiprintf_r+0xfe>
		--------------------
	(    2066,     2062)	
		--------------------
		      205c:   4630          mov    r0, r6
		      205e:   f3af 8000     nop.w
		      2062:   4607          mov    r7, r0
		      2064:   1c78          adds   r0, r7, #1
		->    2066:   d1d6          bne.n  2016 <Heap_Size+0x16>
		      2068:   6e6b          ldr    r3, [r5, #100] ; 0x64
		      206a:   07d9          lsls   r1, r3, #31
		      206c:   d405          bmi.n  207a <Heap_Size+0x7a>
		      206e:   89ab          ldrh   r3, [r5, #12]
		--------------------
	(    20f2,     20ea)	
		--------------------
		      20ea:   68e3          ldr    r3, [r4, #12]
		      20ec:   6832          ldr    r2, [r6, #0]
		      20ee:   1a9b          subs   r3, r3, r2
		      20f0:   42ab          cmp    r3, r5
		->    20f2:   dc26          bgt.n  2142 <_printf_common+0x96>
		      20f4:   f894 2043     ldrb.w r2, [r4, #67]   ; 0x43
		      20f8:   1e13          subs   r3, r2, #0
		      20fa:   6822          ldr    r2, [r4, #0]
		      20fc:   bf18          it ne
		--------------------
	(    22e0,     22d4)	
		--------------------
		      22d8:   464b          mov    r3, r9
		      22da:   aa03          add    r2, sp, #12
		      22dc:   4621          mov    r1, r4
		      22de:   4640          mov    r0, r8
		->    22e0:   f7ff fee4     bl 20ac <_printf_common>
		      22e4:   3001          adds   r0, #1
		      22e6:   d14a          bne.n  237e <_printf_i+0x1f6>
		      22e8:   f04f 30ff     mov.w  r0, #4294967295  ; 0xffffffff
		      22ec:   b004          add    sp, #16
		--------------------
	(    232e,     232c)	
		--------------------
		      2324:   6823          ldr    r3, [r4, #0]
		      2326:   f023 0320     bic.w  r3, r3, #32
		      232a:   6023          str    r3, [r4, #0]
		      232c:   2310          movs   r3, #16
		->    232e:   e7a7          b.n    2280 <_printf_i+0xf8>
		      2330:   4824          ldr    r0, [pc, #144] ; (23c4 <_printf_i+0x23c>)
		      2332:   e7e4          b.n    22fe <_printf_i+0x176>
		      2334:   4615          mov    r5, r2
		      2336:   e7bd          b.n    22b4 <_printf_i+0x12c>
		--------------------
	(    2450,     244a)	
		--------------------
		      2448:   6560          str    r0, [r4, #84]  ; 0x54
		      244a:   6b61          ldr    r1, [r4, #52]  ; 0x34
		      244c:   602f          str    r7, [r5, #0]
		      244e:   2900          cmp    r1, #0
		->    2450:   d0c9          beq.n  23e6 <__sflush_r+0x1a>
		      2452:   f104 0344     add.w  r3, r4, #68  ; 0x44
		      2456:   4299          cmp    r1, r3
		      2458:   d002          beq.n  2460 <__sflush_r+0x94>
		      245a:   4628          mov    r0, r5
		--------------------

uart-o3: 20 | 114
	(     216,      212)	
		--------------------
		       20c:   4804          ldr    r0, [pc, #16]  ; (220 <__do_global_dtors_aux+0x20>)
		       20e:   f3af 8000     nop.w
		       212:   2301          movs   r3, #1
		       214:   7023          strb   r3, [r4, #0]
		->     216:   bd10          pop    {r4, pc}
		       218:   20000080  .word   0x20000080
		       21c:   00000000  .word   0x00000000
		       220:   00002940  .word   0x00002940
		  
		--------------------
	(     2b8,      2b0)	
		--------------------
		       2b0:   4906          ldr    r1, [pc, #24]  ; (2cc <Reset_Handler+0x1c>)
		       2b2:   4a07          ldr    r2, [pc, #28]  ; (2d0 <Reset_Handler+0x20>)
		       2b4:   4b07          ldr    r3, [pc, #28]  ; (2d4 <Reset_Handler+0x24>)
		       2b6:   1a9b          subs   r3, r3, r2
		->     2b8:   dd03          ble.n  2c2 <Reset_Handler+0x12>
		       2ba:   3b04          subs   r3, #4
		       2bc:   58c8          ldr    r0, [r1, r3]
		       2be:   50d0          str    r0, [r2, r3]
		       2c0:   dcfb          bgt.n  2ba <Reset_Handler+0xa>
		--------------------
	(     ab8,      a92)	
		--------------------
		       aac:   f8c3 2514     str.w  r2, [r3, #1300]  ; 0x514
		       ab0:   f8c3 150c     str.w  r1, [r3, #1292]  ; 0x50c
		       ab4:   7d23          ldrb   r3, [r4, #20]
		       ab6:   2b01          cmp    r3, #1
		->     ab8:   d05b          beq.n  b72 <nrfx_uart_init+0x142>
		       aba:   232c          movs   r3, #44   ; 0x2c
		       abc:   fb03 f308     mul.w  r3, r3, r8
		       ac0:   18f2          adds   r2, r6, r3
		       ac2:   6057          str    r7, [r2, #4]
		--------------------
	(     cfa,      cf2)	
		--------------------
		       cf0:   61da          str    r2, [r3, #28]
		       cf2:   222c          movs   r2, #44   ; 0x2c
		       cf4:   fb02 520e     mla    r2, r2, lr, r5
		       cf8:   6853          ldr    r3, [r2, #4]
		->     cfa:   b353          cbz    r3, d52 <nrfx_uart_rx+0x96>
		       cfc:   f8dc 3000     ldr.w  r3, [ip]
		       d00:   f44f 7201     mov.w  r2, #516 ; 0x204
		       d04:   f8c3 2304     str.w  r2, [r3, #772]   ; 0x304
		       d08:   2000          movs   r0, #0
		--------------------
	(     d72,      d66)	
		--------------------
		       d62:   f8dc 3000     ldr.w  r3, [ip]
		       d66:   f8d3 1124     ldr.w  r1, [r3, #292]   ; 0x124
		       d6a:   f8d3 4108     ldr.w  r4, [r3, #264]   ; 0x108
		       d6e:   f8d3 0144     ldr.w  r0, [r3, #324]   ; 0x144
		->     d72:   b954          cbnz   r4, d8a <nrfx_uart_rx+0xce>
		       d74:   2800          cmp    r0, #0
		       d76:   d134          bne.n  de2 <nrfx_uart_rx+0x126>
		       d78:   2900          cmp    r1, #0
		       d7a:   d0f4          beq.n  d66 <nrfx_uart_rx+0xaa>
		--------------------
	(    10b4,     10a8)	
		--------------------
		      10a8:   6822          ldr    r2, [r4, #0]
		      10aa:   f342 3307     sbfx   r3, r2, #12, #8
		      10ae:   2b00          cmp    r3, #0
		      10b0:   ea4f 3112     mov.w  r1, r2, lsr #12
		->    10b4:   db08          blt.n  10c8 <nrfx_uarte_init+0x138>
		      10b6:   4d28          ldr    r5, [pc, #160] ; (1158 <nrfx_uarte_init+0x1c8>)
		      10b8:   095b          lsrs   r3, r3, #5
		      10ba:   f001 011f     and.w  r1, r1, #31
		      10be:   2201          movs   r2, #1
		--------------------
	(    1148,     113c)	
		--------------------
		      113c:   6822          ldr    r2, [r4, #0]
		      113e:   68a9          ldr    r1, [r5, #8]
		      1140:   f8c2 3508     str.w  r3, [r2, #1288]  ; 0x508
		      1144:   f8c2 1510     str.w  r1, [r2, #1296]  ; 0x510
		->    1148:   e76a          b.n    1020 <nrfx_uarte_init+0x90>
		      114a:   bf00          nop
		      114c:   20000118  .word   0x20000118
		      1150:   00000e19  .word   0x00000e19
		      1154:   00420310  .word   0x00420310
		--------------------
	(    1262,     125a)	
		--------------------
		      1256:   f8c5 7308     str.w  r7, [r5, #776]   ; 0x308
		      125a:   4463          add    r3, ip
		      125c:   eb04 0383     add.w  r3, r4, r3, lsl #2
		      1260:   699d          ldr    r5, [r3, #24]
		->    1262:   bb5d          cbnz   r5, 12bc <nrfx_uarte_rx+0x90>
		      1264:   619a          str    r2, [r3, #24]
		      1266:   61dd          str    r5, [r3, #28]
		      1268:   60d9          str    r1, [r3, #12]
		      126a:   6803          ldr    r3, [r0, #0]
		--------------------
	(    18f8,     1906)	
		--------------------
		      18ec:   4614          mov    r4, r2
		      18ee:   2600          movs   r6, #0
		      18f0:   e9d4 9501     ldrd   r9, r5, [r4, #4]
		      18f4:   f1b9 0901     subs.w r9, r9, #1
		->    18f8:   d505          bpl.n  1906 <_fwalk_sglue+0x22>
		      18fa:   6824          ldr    r4, [r4, #0]
		      18fc:   2c00          cmp    r4, #0
		      18fe:   d1f7          bne.n  18f0 <_fwalk_sglue+0xc>
		      1900:   4630          mov    r0, r6
		--------------------
	(    190a,     191c)	
		--------------------
		      1900:   4630          mov    r0, r6
		      1902:   e8bd 83f8     ldmia.w    sp!, {r3, r4, r5, r6, r7, r8, r9, pc}
		      1906:   89ab          ldrh   r3, [r5, #12]
		      1908:   2b01          cmp    r3, #1
		->    190a:   d907          bls.n  191c <_fwalk_sglue+0x38>
		      190c:   f9b5 300e     ldrsh.w    r3, [r5, #14]
		      1910:   3301          adds   r3, #1
		      1912:   d003          beq.n  191c <_fwalk_sglue+0x38>
		      1914:   4629          mov    r1, r5
		--------------------
	(    19d0,     19ce)	
		--------------------
		  000019ca <memset>:
		      19ca:   4402          add    r2, r0
		      19cc:   4603          mov    r3, r0
		      19ce:   4293          cmp    r3, r2
		->    19d0:   d100          bne.n  19d4 <memset+0xa>
		      19d2:   4770          bx lr
		      19d4:   f803 1b01     strb.w r1, [r3], #1
		      19d8:   e7f9          b.n    19ce <memset+0x4>
		      ...
		--------------------
	(    1d4c,     1d4a)	
		--------------------
		      1d44:   230c          movs   r3, #12
		      1d46:   603b          str    r3, [r7, #0]
		      1d48:   2600          movs   r6, #0
		      1d4a:   4630          mov    r0, r6
		->    1d4c:   e8bd 81f0     ldmia.w    sp!, {r4, r5, r6, r7, r8, pc}
		      1d50:   4e2f          ldr    r6, [pc, #188] ; (1e10 <_malloc_r+0xe8>)
		      1d52:   f000 f85f     bl 1e14 <__malloc_lock>
		      1d56:   6833          ldr    r3, [r6, #0]
		      1d58:   461c          mov    r4, r3
		--------------------
	(    1e7c,     2116)	
		--------------------
		      1e72:   4630          mov    r0, r6
		      1e74:   f7ff ffda     bl 1e2c <__sfputc_r>
		      1e78:   1c43          adds   r3, r0, #1
		      1e7a:   d1f3          bne.n  1e64 <__sfputs_r+0xa>
		->    1e7c:   bdf8          pop    {r3, r4, r5, r6, r7, pc}
		      ...
		  
		  00001e80 <_vfiprintf_r>:
		      1e80:   e92d 4ff0     stmdb  sp!, {r4, r5, r6, r7, r8, r9, sl, fp, lr}
		--------------------
	(    1f88,     1f7e)	
		--------------------
		      1f7e:   4621          mov    r1, r4
		      1f80:   f811 3b01     ldrb.w r3, [r1], #1
		      1f84:   3b30          subs   r3, #48   ; 0x30
		      1f86:   2b09          cmp    r3, #9
		->    1f88:   d94d          bls.n  2026 <Heap_Size+0x26>
		      1f8a:   b1b0          cbz    r0, 1fba <_vfiprintf_r+0x13a>
		      1f8c:   9207          str    r2, [sp, #28]
		      1f8e:   e014          b.n    1fba <_vfiprintf_r+0x13a>
		      1f90:   eba0 0308     sub.w  r3, r0, r8
		--------------------
	(    1fbe,     1fba)	
		--------------------
		      1fb6:   bfb8          it lt
		      1fb8:   9204          strlt  r2, [sp, #16]
		      1fba:   7823          ldrb   r3, [r4, #0]
		      1fbc:   2b2e          cmp    r3, #46    ; 0x2e
		->    1fbe:   d10c          bne.n  1fda <_vfiprintf_r+0x15a>
		      1fc0:   7863          ldrb   r3, [r4, #1]
		      1fc2:   2b2a          cmp    r3, #42    ; 0x2a
		      1fc4:   d134          bne.n  2030 <Heap_Size+0x30>
		      1fc6:   9b03          ldr    r3, [sp, #12]
		--------------------
	(    2024,     201e)	
		--------------------
		      201c:   9303          str    r3, [sp, #12]
		      201e:   9b09          ldr    r3, [sp, #36]  ; 0x24
		      2020:   443b          add    r3, r7
		      2022:   9309          str    r3, [sp, #36]  ; 0x24
		->    2024:   e768          b.n    1ef8 <_vfiprintf_r+0x78>
		      2026:   fb0c 3202     mla    r2, ip, r2, r3
		      202a:   460c          mov    r4, r1
		      202c:   2001          movs   r0, #1
		      202e:   e7a6          b.n    1f7e <_vfiprintf_r+0xfe>
		--------------------
	(    24b2,     24ae)	
		--------------------
		      24a6:   2300          movne  r3, #0
		      24a8:   eba6 0807     sub.w  r8, r6, r7
		      24ac:   608b          str    r3, [r1, #8]
		      24ae:   f1b8 0f00     cmp.w  r8, #0
		->    24b2:   dd9c          ble.n  23ee <__sflush_r+0x1a>
		      24b4:   6a21          ldr    r1, [r4, #32]
		      24b6:   6aa6          ldr    r6, [r4, #40]  ; 0x28
		      24b8:   4643          mov    r3, r8
		      24ba:   463a          mov    r2, r7
		--------------------
	(    24ee,     24ec)	
		--------------------
		      24e6:   460c          mov    r4, r1
		      24e8:   b913          cbnz   r3, 24f0 <_fflush_r+0x10>
		      24ea:   2500          movs   r5, #0
		      24ec:   4628          mov    r0, r5
		->    24ee:   bd38          pop    {r3, r4, r5, pc}
		      24f0:   b118          cbz    r0, 24fa <_fflush_r+0x1a>
		      24f2:   6a03          ldr    r3, [r0, #32]
		      24f4:   b90b          cbnz   r3, 24fa <_fflush_r+0x1a>
		      24f6:   f7ff f9dd     bl 18b4 <__sinit>
		--------------------
	(    274c,     2744)	
		--------------------
		      2744:   2000          movs   r0, #0
		      2746:   6031          str    r1, [r6, #0]
		      2748:   602b          str    r3, [r5, #0]
		      274a:   b016          add    sp, #88    ; 0x58
		->    274c:   bd70          pop    {r4, r5, r6, pc}
		      274e:   466a          mov    r2, sp
		      2750:   f000 f848     bl 27e4 <_fstat_r>
		      2754:   2800          cmp    r0, #0
		      2756:   dbec          blt.n  2732 <__swhatbuf_r+0x12>
		--------------------
	(    2822,     2822)	
		--------------------
		      281a:   d102          bne.n  2822 <_isatty_r+0x1a>
		      281c:   682b          ldr    r3, [r5, #0]
		      281e:   b103          cbz    r3, 2822 <_isatty_r+0x1a>
		      2820:   6023          str    r3, [r4, #0]
		->    2822:   bd38          pop    {r3, r4, r5, pc}
		      2824:   20000478  .word   0x20000478
		  
		  00002828 <_close>:
		      2828:   4b02          ldr    r3, [pc, #8]   ; (2834 <_close+0xc>)
		--------------------
