blinky-o0: 20 | 110 | 20 jt
	(     6a6,      6bc)	jt
		--------------------
		       69e:   3b03          subs   r3, #3
		       6a0:   2b03          cmp    r3, #3
		       6a2:   d813          bhi.n  6cc <nrf52_errata_12+0x68>
		       6a4:   a201          add    r2, pc, #4 ; (adr r2, 6ac <nrf52_errata_12+0x48>)
		->     6a6:   f852 f023     ldr.w  pc, [r2, r3, lsl #2]
		       6aa:   bf00          nop
		       6ac:   000006bd  .word   0x000006bd
		       6b0:   000006c1  .word   0x000006c1
		       6b4:   000006c5  .word   0x000006c5
		--------------------
	(     6c6,      6d2)	jt
		--------------------
		       6be:   e008          b.n    6d2 <nrf52_errata_12+0x6e>
		       6c0:   2301          movs   r3, #1
		       6c2:   e006          b.n    6d2 <nrf52_errata_12+0x6e>
		       6c4:   2301          movs   r3, #1
		->     6c6:   e004          b.n    6d2 <nrf52_errata_12+0x6e>
		       6c8:   2301          movs   r3, #1
		       6ca:   e002          b.n    6d2 <nrf52_errata_12+0x6e>
		       6cc:   2301          movs   r3, #1
		       6ce:   e000          b.n    6d2 <nrf52_errata_12+0x6e>
		--------------------jt
	(     71a,      730)	
		--------------------
		       712:   3b03          subs   r3, #3
		       714:   2b03          cmp    r3, #3
		       716:   d813          bhi.n  740 <nrf52_errata_16+0x50>
		       718:   a201          add    r2, pc, #4 ; (adr r2, 720 <nrf52_errata_16+0x30>)
		->     71a:   f852 f023     ldr.w  pc, [r2, r3, lsl #2]
		       71e:   bf00          nop
		       720:   00000731  .word   0x00000731
		       724:   00000735  .word   0x00000735
		       728:   00000739  .word   0x00000739
		--------------------
	(     71a,      734)	jt
		--------------------
		       712:   3b03          subs   r3, #3
		       714:   2b03          cmp    r3, #3
		       716:   d813          bhi.n  740 <nrf52_errata_16+0x50>
		       718:   a201          add    r2, pc, #4 ; (adr r2, 720 <nrf52_errata_16+0x30>)
		->     71a:   f852 f023     ldr.w  pc, [r2, r3, lsl #2]
		       71e:   bf00          nop
		       720:   00000731  .word   0x00000731
		       724:   00000735  .word   0x00000735
		       728:   00000739  .word   0x00000739
		--------------------
	(     79e,      7c0)	jt
		--------------------
		       796:   3b03          subs   r3, #3
		       798:   2b03          cmp    r3, #3
		       79a:   d813          bhi.n  7c4 <nrf52_errata_31+0x68>
		       79c:   a201          add    r2, pc, #4 ; (adr r2, 7a4 <nrf52_errata_31+0x48>)
		->     79e:   f852 f023     ldr.w  pc, [r2, r3, lsl #2]
		       7a2:   bf00          nop
		       7a4:   000007b5  .word   0x000007b5
		       7a8:   000007b9  .word   0x000007b9
		       7ac:   000007bd  .word   0x000007bd
		--------------------
	(     812,      828)	jt
		--------------------
		       80a:   3b03          subs   r3, #3
		       80c:   2b03          cmp    r3, #3
		       80e:   d813          bhi.n  838 <nrf52_errata_32+0x50>
		       810:   a201          add    r2, pc, #4 ; (adr r2, 818 <nrf52_errata_32+0x30>)
		->     812:   f852 f023     ldr.w  pc, [r2, r3, lsl #2]
		       816:   bf00          nop
		       818:   00000829  .word   0x00000829
		       81c:   0000082d  .word   0x0000082d
		       820:   00000831  .word   0x00000831
		--------------------
	(     896,      8b8)	jt
		--------------------
		       88e:   3b03          subs   r3, #3
		       890:   2b03          cmp    r3, #3
		       892:   d813          bhi.n  8bc <nrf52_errata_36+0x68>
		       894:   a201          add    r2, pc, #4 ; (adr r2, 89c <nrf52_errata_36+0x48>)
		->     896:   f852 f023     ldr.w  pc, [r2, r3, lsl #2]
		       89a:   bf00          nop
		       89c:   000008ad  .word   0x000008ad
		       8a0:   000008b1  .word   0x000008b1
		       8a4:   000008b5  .word   0x000008b5
		--------------------
	(     896,      8bc)	jt
		--------------------
		       88e:   3b03          subs   r3, #3
		       890:   2b03          cmp    r3, #3
		       892:   d813          bhi.n  8bc <nrf52_errata_36+0x68>
		       894:   a201          add    r2, pc, #4 ; (adr r2, 89c <nrf52_errata_36+0x48>)
		->     896:   f852 f023     ldr.w  pc, [r2, r3, lsl #2]
		       89a:   bf00          nop
		       89c:   000008ad  .word   0x000008ad
		       8a0:   000008b1  .word   0x000008b1
		       8a4:   000008b5  .word   0x000008b5
		--------------------
	(     90a,      928)	jt
		--------------------
		       902:   3b03          subs   r3, #3
		       904:   2b03          cmp    r3, #3
		       906:   d813          bhi.n  930 <nrf52_errata_37+0x50>
		       908:   a201          add    r2, pc, #4 ; (adr r2, 910 <nrf52_errata_37+0x30>)
		->     90a:   f852 f023     ldr.w  pc, [r2, r3, lsl #2]
		       90e:   bf00          nop
		       910:   00000921  .word   0x00000921
		       914:   00000925  .word   0x00000925
		       918:   00000929  .word   0x00000929
		--------------------
	(     90a,      930)	jt
		--------------------
		       902:   3b03          subs   r3, #3
		       904:   2b03          cmp    r3, #3
		       906:   d813          bhi.n  930 <nrf52_errata_37+0x50>
		       908:   a201          add    r2, pc, #4 ; (adr r2, 910 <nrf52_errata_37+0x30>)
		->     90a:   f852 f023     ldr.w  pc, [r2, r3, lsl #2]
		       90e:   bf00          nop
		       910:   00000921  .word   0x00000921
		       914:   00000925  .word   0x00000925
		       918:   00000929  .word   0x00000929
		--------------------
	(     974,      976)	jt
		--------------------
		       96c:   683b          ldr    r3, [r7, #0]
		       96e:   3b03          subs   r3, #3
		       970:   2b03          cmp    r3, #3
		       972:   d813          bhi.n  99c <nrf52_errata_57+0x50>
		->     974:   a201          add    r2, pc, #4 ; (adr r2, 97c <nrf52_errata_57+0x30>)
		       976:   f852 f023     ldr.w  pc, [r2, r3, lsl #2]
		       97a:   bf00          nop
		       97c:   0000098d  .word   0x0000098d
		       980:   00000991  .word   0x00000991
		--------------------
	(     976,      990)	jt
		--------------------
		       96e:   3b03          subs   r3, #3
		       970:   2b03          cmp    r3, #3
		       972:   d813          bhi.n  99c <nrf52_errata_57+0x50>
		       974:   a201          add    r2, pc, #4 ; (adr r2, 97c <nrf52_errata_57+0x30>)
		->     976:   f852 f023     ldr.w  pc, [r2, r3, lsl #2]
		       97a:   bf00          nop
		       97c:   0000098d  .word   0x0000098d
		       980:   00000991  .word   0x00000991
		       984:   00000995  .word   0x00000995
		--------------------
	(     9fa,      a20)	jt
		--------------------
		       9f2:   3b03          subs   r3, #3
		       9f4:   2b03          cmp    r3, #3
		       9f6:   d813          bhi.n  a20 <nrf52_errata_66+0x68>
		       9f8:   a201          add    r2, pc, #4 ; (adr r2, a00 <nrf52_errata_66+0x48>)
		->     9fa:   f852 f023     ldr.w  pc, [r2, r3, lsl #2]
		       9fe:   bf00          nop
		       a00:   00000a11  .word   0x00000a11
		       a04:   00000a15  .word   0x00000a15
		       a08:   00000a19  .word   0x00000a19
		--------------------
	(     a86,      a9c)	jt
		--------------------
		       a7e:   3b03          subs   r3, #3
		       a80:   2b03          cmp    r3, #3
		       a82:   d813          bhi.n  aac <nrf52_errata_108+0x68>
		       a84:   a201          add    r2, pc, #4 ; (adr r2, a8c <nrf52_errata_108+0x48>)
		->     a86:   f852 f023     ldr.w  pc, [r2, r3, lsl #2]
		       a8a:   bf00          nop
		       a8c:   00000a9d  .word   0x00000a9d
		       a90:   00000aa1  .word   0x00000aa1
		       a94:   00000aa5  .word   0x00000aa5
		--------------------
	(     a86,      aa0)	jt
		--------------------
		       a7e:   3b03          subs   r3, #3
		       a80:   2b03          cmp    r3, #3
		       a82:   d813          bhi.n  aac <nrf52_errata_108+0x68>
		       a84:   a201          add    r2, pc, #4 ; (adr r2, a8c <nrf52_errata_108+0x48>)
		->     a86:   f852 f023     ldr.w  pc, [r2, r3, lsl #2]
		       a8a:   bf00          nop
		       a8c:   00000a9d  .word   0x00000a9d
		       a90:   00000aa1  .word   0x00000aa1
		       a94:   00000aa5  .word   0x00000aa5
		--------------------
	(     a86,      aac)	jt
		--------------------
		       a7e:   3b03          subs   r3, #3
		       a80:   2b03          cmp    r3, #3
		       a82:   d813          bhi.n  aac <nrf52_errata_108+0x68>
		       a84:   a201          add    r2, pc, #4 ; (adr r2, a8c <nrf52_errata_108+0x48>)
		->     a86:   f852 f023     ldr.w  pc, [r2, r3, lsl #2]
		       a8a:   bf00          nop
		       a8c:   00000a9d  .word   0x00000a9d
		       a90:   00000aa1  .word   0x00000aa1
		       a94:   00000aa5  .word   0x00000aa5
		--------------------
	(     aa2,      ab2)	jt
		--------------------
		       a98:   00000aa9  .word   0x00000aa9
		       a9c:   2301          movs   r3, #1
		       a9e:   e008          b.n    ab2 <nrf52_errata_108+0x6e>
		       aa0:   2301          movs   r3, #1
		->     aa2:   e006          b.n    ab2 <nrf52_errata_108+0x6e>
		       aa4:   2301          movs   r3, #1
		       aa6:   e004          b.n    ab2 <nrf52_errata_108+0x6e>
		       aa8:   2301          movs   r3, #1
		       aaa:   e002          b.n    ab2 <nrf52_errata_108+0x6e>
		--------------------
	(     b12,      b30)	jt
		--------------------
		       b0a:   3b03          subs   r3, #3
		       b0c:   2b03          cmp    r3, #3
		       b0e:   d813          bhi.n  b38 <nrf52_errata_136+0x68>
		       b10:   a201          add    r2, pc, #4 ; (adr r2, b18 <nrf52_errata_136+0x48>)
		->     b12:   f852 f023     ldr.w  pc, [r2, r3, lsl #2]
		       b16:   bf00          nop
		       b18:   00000b29  .word   0x00000b29
		       b1c:   00000b2d  .word   0x00000b2d
		       b20:   00000b31  .word   0x00000b31
		--------------------
	(     b7e,      b94)	jt
		--------------------
		       b76:   3b03          subs   r3, #3
		       b78:   2b03          cmp    r3, #3
		       b7a:   d813          bhi.n  ba4 <nrf52_errata_182+0x48>
		       b7c:   a201          add    r2, pc, #4 ; (adr r2, b84 <nrf52_errata_182+0x28>)
		->     b7e:   f852 f023     ldr.w  pc, [r2, r3, lsl #2]
		       b82:   bf00          nop
		       b84:   00000b95  .word   0x00000b95
		       b88:   00000b99  .word   0x00000b99
		       b8c:   00000b9d  .word   0x00000b9d
		--------------------
	(     b96,      baa)	jt
		--------------------
		       b88:   00000b99  .word   0x00000b99
		       b8c:   00000b9d  .word   0x00000b9d
		       b90:   00000ba1  .word   0x00000ba1
		       b94:   2300          movs   r3, #0
		->     b96:   e008          b.n    baa <nrf52_errata_182+0x4e>
		       b98:   2300          movs   r3, #0
		       b9a:   e006          b.n    baa <nrf52_errata_182+0x4e>
		       b9c:   2300          movs   r3, #0
		       b9e:   e004          b.n    baa <nrf52_errata_182+0x4e>
		--------------------

blinky-o1: 1 | 1
	(     4f0,      3f8)	
		--------------------
		   4e8:   d186          bne.n  3f8 <SystemInit+0x38>
		   4ea:   4b88          ldr    r3, [pc, #544] ; (70c <SystemInit+0x34c>)
		   4ec:   4a88          ldr    r2, [pc, #544] ; (710 <SystemInit+0x350>)
		   4ee:   675a          str    r2, [r3, #116] ; 0x74
		-> 4f0:   e782          b.n    3f8 <SystemInit+0x38>
		   4f2:   f04f 4370     mov.w  r3, #4026531840  ; 0xf0000000
		   4f6:   f8d3 3fe8     ldr.w  r3, [r3, #4072]  ; 0xfe8
		   4fa:   f3c3 1303     ubfx   r3, r3, #4, #4
		   4fe:   2b03          cmp    r3, #3
		--------------------

blinky-o2: 1 | 1
	(     664,      3da)	
		--------------------
		   65a:   f43f aebe     beq.w  3da <SystemInit+0x3a>
		   65e:   4b17          ldr    r3, [pc, #92]  ; (6bc <SystemInit+0x31c>)
		   660:   4a17          ldr    r2, [pc, #92]  ; (6c0 <SystemInit+0x320>)
		   662:   675a          str    r2, [r3, #116] ; 0x74
		-> 664:   e6b9          b.n    3da <SystemInit+0x3a>
		   666:   4a17          ldr    r2, [pc, #92]  ; (6c4 <SystemInit+0x324>)
		   668:   5cd3          ldrb   r3, [r2, r3]
		   66a:   2b00          cmp    r3, #0
		   66c:   f43f af08     beq.w  480 <SystemInit+0xe0>
		--------------------

blinky-o3: 1 | 1
	(     648,      3d6)	
		--------------------
		   63e:   f43f aeca     beq.w  3d6 <SystemInit+0x3a>
		   642:   4b35          ldr    r3, [pc, #212] ; (718 <SystemInit+0x37c>)
		   644:   4a35          ldr    r2, [pc, #212] ; (71c <SystemInit+0x380>)
		   646:   675a          str    r2, [r3, #116] ; 0x74
		-> 648:   e6c5          b.n    3d6 <SystemInit+0x3a>
		   64a:   f04f 4370     mov.w  r3, #4026531840  ; 0xf0000000
		   64e:   f893 3fe0     ldrb.w r3, [r3, #4064] ; 0xfe0
		   652:   2b06          cmp    r3, #6
		   654:   f47f af03     bne.w  45e <SystemInit+0xc2>
		--------------------

gpiote-o0: 20 | 112 | 16 jt
	(    19fc,     19fe)	
		--------------------
		      19f4:   683b          ldr    r3, [r7, #0]
		      19f6:   3b03          subs   r3, #3
		      19f8:   2b03          cmp    r3, #3
		      19fa:   d813          bhi.n  1a24 <nrf52_errata_12+0x68>
		->    19fc:   a201          add    r2, pc, #4 ; (adr r2, 1a04 <nrf52_errata_12+0x48>)
		      19fe:   f852 f023     ldr.w  pc, [r2, r3, lsl #2]
		      1a02:   bf00          nop
		      1a04:   00001a15  .word   0x00001a15
		      1a08:   00001a19  .word   0x00001a19
		--------------------
	(    19fe,     1a1c)	jt
		--------------------
		      19f6:   3b03          subs   r3, #3
		      19f8:   2b03          cmp    r3, #3
		      19fa:   d813          bhi.n  1a24 <nrf52_errata_12+0x68>
		      19fc:   a201          add    r2, pc, #4 ; (adr r2, 1a04 <nrf52_errata_12+0x48>)
		->    19fe:   f852 f023     ldr.w  pc, [r2, r3, lsl #2]
		      1a02:   bf00          nop
		      1a04:   00001a15  .word   0x00001a15
		      1a08:   00001a19  .word   0x00001a19
		      1a0c:   00001a1d  .word   0x00001a1d
		--------------------
	(    1a22,     1a2a)	jt
		--------------------
		      1a1a:   e006          b.n    1a2a <nrf52_errata_12+0x6e>
		      1a1c:   2301          movs   r3, #1
		      1a1e:   e004          b.n    1a2a <nrf52_errata_12+0x6e>
		      1a20:   2301          movs   r3, #1
		->    1a22:   e002          b.n    1a2a <nrf52_errata_12+0x6e>
		      1a24:   2301          movs   r3, #1
		      1a26:   e000          b.n    1a2a <nrf52_errata_12+0x6e>
		      1a28:   2300          movs   r3, #0
		      1a2a:   4618          mov    r0, r3
		--------------------
	(    1a72,     1a88)	jt
		--------------------
		      1a6a:   3b03          subs   r3, #3
		      1a6c:   2b03          cmp    r3, #3
		      1a6e:   d813          bhi.n  1a98 <nrf52_errata_16+0x50>
		      1a70:   a201          add    r2, pc, #4 ; (adr r2, 1a78 <nrf52_errata_16+0x30>)
		->    1a72:   f852 f023     ldr.w  pc, [r2, r3, lsl #2]
		      1a76:   bf00          nop
		      1a78:   00001a89  .word   0x00001a89
		      1a7c:   00001a8d  .word   0x00001a8d
		      1a80:   00001a91  .word   0x00001a91
		--------------------
	(    1af6,     1b10)	jt
		--------------------
		      1aee:   3b03          subs   r3, #3
		      1af0:   2b03          cmp    r3, #3
		      1af2:   d813          bhi.n  1b1c <nrf52_errata_31+0x68>
		      1af4:   a201          add    r2, pc, #4 ; (adr r2, 1afc <nrf52_errata_31+0x48>)
		->    1af6:   f852 f023     ldr.w  pc, [r2, r3, lsl #2]
		      1afa:   bf00          nop
		      1afc:   00001b0d  .word   0x00001b0d
		      1b00:   00001b11  .word   0x00001b11
		      1b04:   00001b15  .word   0x00001b15
		--------------------
	(    1b6a,     1b80)	jt
		--------------------
		      1b62:   3b03          subs   r3, #3
		      1b64:   2b03          cmp    r3, #3
		      1b66:   d813          bhi.n  1b90 <nrf52_errata_32+0x50>
		      1b68:   a201          add    r2, pc, #4 ; (adr r2, 1b70 <nrf52_errata_32+0x30>)
		->    1b6a:   f852 f023     ldr.w  pc, [r2, r3, lsl #2]
		      1b6e:   bf00          nop
		      1b70:   00001b81  .word   0x00001b81
		      1b74:   00001b85  .word   0x00001b85
		      1b78:   00001b89  .word   0x00001b89
		--------------------
	(    1b86,     1b96)	jt
		--------------------
		      1b7c:   00001b8d  .word   0x00001b8d
		      1b80:   2301          movs   r3, #1
		      1b82:   e008          b.n    1b96 <nrf52_errata_32+0x56>
		      1b84:   2300          movs   r3, #0
		->    1b86:   e006          b.n    1b96 <nrf52_errata_32+0x56>
		      1b88:   2300          movs   r3, #0
		      1b8a:   e004          b.n    1b96 <nrf52_errata_32+0x56>
		      1b8c:   2300          movs   r3, #0
		      1b8e:   e002          b.n    1b96 <nrf52_errata_32+0x56>
		--------------------
	(    1b8e,     1b96)	jt
		--------------------
		      1b86:   e006          b.n    1b96 <nrf52_errata_32+0x56>
		      1b88:   2300          movs   r3, #0
		      1b8a:   e004          b.n    1b96 <nrf52_errata_32+0x56>
		      1b8c:   2300          movs   r3, #0
		->    1b8e:   e002          b.n    1b96 <nrf52_errata_32+0x56>
		      1b90:   2300          movs   r3, #0
		      1b92:   e000          b.n    1b96 <nrf52_errata_32+0x56>
		      1b94:   2300          movs   r3, #0
		      1b96:   4618          mov    r0, r3
		--------------------
	(    1bee,     1c0c)	jt
		--------------------
		      1be6:   3b03          subs   r3, #3
		      1be8:   2b03          cmp    r3, #3
		      1bea:   d813          bhi.n  1c14 <nrf52_errata_36+0x68>
		      1bec:   a201          add    r2, pc, #4 ; (adr r2, 1bf4 <nrf52_errata_36+0x48>)
		->    1bee:   f852 f023     ldr.w  pc, [r2, r3, lsl #2]
		      1bf2:   bf00          nop
		      1bf4:   00001c05  .word   0x00001c05
		      1bf8:   00001c09  .word   0x00001c09
		      1bfc:   00001c0d  .word   0x00001c0d
		--------------------
	(    1bee,     1c14)	jt
		--------------------
		      1be6:   3b03          subs   r3, #3
		      1be8:   2b03          cmp    r3, #3
		      1bea:   d813          bhi.n  1c14 <nrf52_errata_36+0x68>
		      1bec:   a201          add    r2, pc, #4 ; (adr r2, 1bf4 <nrf52_errata_36+0x48>)
		->    1bee:   f852 f023     ldr.w  pc, [r2, r3, lsl #2]
		      1bf2:   bf00          nop
		      1bf4:   00001c05  .word   0x00001c05
		      1bf8:   00001c09  .word   0x00001c09
		      1bfc:   00001c0d  .word   0x00001c0d
		--------------------
	(    1c60,     1c62)	
		--------------------
		      1c58:   683b          ldr    r3, [r7, #0]
		      1c5a:   3b03          subs   r3, #3
		      1c5c:   2b03          cmp    r3, #3
		      1c5e:   d813          bhi.n  1c88 <nrf52_errata_37+0x50>
		->    1c60:   a201          add    r2, pc, #4 ; (adr r2, 1c68 <nrf52_errata_37+0x30>)
		      1c62:   f852 f023     ldr.w  pc, [r2, r3, lsl #2]
		      1c66:   bf00          nop
		      1c68:   00001c79  .word   0x00001c79
		      1c6c:   00001c7d  .word   0x00001c7d
		--------------------
	(    1cce,     1cf4)	jt
		--------------------
		      1cc6:   3b03          subs   r3, #3
		      1cc8:   2b03          cmp    r3, #3
		      1cca:   d813          bhi.n  1cf4 <nrf52_errata_57+0x50>
		      1ccc:   a201          add    r2, pc, #4 ; (adr r2, 1cd4 <nrf52_errata_57+0x30>)
		->    1cce:   f852 f023     ldr.w  pc, [r2, r3, lsl #2]
		      1cd2:   bf00          nop
		      1cd4:   00001ce5  .word   0x00001ce5
		      1cd8:   00001ce9  .word   0x00001ce9
		      1cdc:   00001ced  .word   0x00001ced
		--------------------
	(    1d50,     1d52)	
		--------------------
		      1d48:   683b          ldr    r3, [r7, #0]
		      1d4a:   3b03          subs   r3, #3
		      1d4c:   2b03          cmp    r3, #3
		      1d4e:   d813          bhi.n  1d78 <nrf52_errata_66+0x68>
		->    1d50:   a201          add    r2, pc, #4 ; (adr r2, 1d58 <nrf52_errata_66+0x48>)
		      1d52:   f852 f023     ldr.w  pc, [r2, r3, lsl #2]
		      1d56:   bf00          nop
		      1d58:   00001d69  .word   0x00001d69
		      1d5c:   00001d6d  .word   0x00001d6d
		--------------------
	(    1d6e,     1d7e)	jt
		--------------------
		      1d64:   00001d75  .word   0x00001d75
		      1d68:   2300          movs   r3, #0
		      1d6a:   e008          b.n    1d7e <nrf52_errata_66+0x6e>
		      1d6c:   2300          movs   r3, #0
		->    1d6e:   e006          b.n    1d7e <nrf52_errata_66+0x6e>
		      1d70:   2301          movs   r3, #1
		      1d72:   e004          b.n    1d7e <nrf52_errata_66+0x6e>
		      1d74:   2301          movs   r3, #1
		      1d76:   e002          b.n    1d7e <nrf52_errata_66+0x6e>
		--------------------
	(    1d72,     1d7e)	jt
		--------------------
		      1d6a:   e008          b.n    1d7e <nrf52_errata_66+0x6e>
		      1d6c:   2300          movs   r3, #0
		      1d6e:   e006          b.n    1d7e <nrf52_errata_66+0x6e>
		      1d70:   2301          movs   r3, #1
		->    1d72:   e004          b.n    1d7e <nrf52_errata_66+0x6e>
		      1d74:   2301          movs   r3, #1
		      1d76:   e002          b.n    1d7e <nrf52_errata_66+0x6e>
		      1d78:   2301          movs   r3, #1
		      1d7a:   e000          b.n    1d7e <nrf52_errata_66+0x6e>
		--------------------
	(    1e68,     1e6a)	
		--------------------
		      1e60:   683b          ldr    r3, [r7, #0]
		      1e62:   3b03          subs   r3, #3
		      1e64:   2b03          cmp    r3, #3
		      1e66:   d813          bhi.n  1e90 <nrf52_errata_136+0x68>
		->    1e68:   a201          add    r2, pc, #4 ; (adr r2, 1e70 <nrf52_errata_136+0x48>)
		      1e6a:   f852 f023     ldr.w  pc, [r2, r3, lsl #2]
		      1e6e:   bf00          nop
		      1e70:   00001e81  .word   0x00001e81
		      1e74:   00001e85  .word   0x00001e85
		--------------------
	(    1e6a,     1e80)	jt
		--------------------
		      1e62:   3b03          subs   r3, #3
		      1e64:   2b03          cmp    r3, #3
		      1e66:   d813          bhi.n  1e90 <nrf52_errata_136+0x68>
		      1e68:   a201          add    r2, pc, #4 ; (adr r2, 1e70 <nrf52_errata_136+0x48>)
		->    1e6a:   f852 f023     ldr.w  pc, [r2, r3, lsl #2]
		      1e6e:   bf00          nop
		      1e70:   00001e81  .word   0x00001e81
		      1e74:   00001e85  .word   0x00001e85
		      1e78:   00001e89  .word   0x00001e89
		--------------------
	(    1e86,     1e96)	jt
		--------------------
		      1e7c:   00001e8d  .word   0x00001e8d
		      1e80:   2301          movs   r3, #1
		      1e82:   e008          b.n    1e96 <nrf52_errata_136+0x6e>
		      1e84:   2301          movs   r3, #1
		->    1e86:   e006          b.n    1e96 <nrf52_errata_136+0x6e>
		      1e88:   2301          movs   r3, #1
		      1e8a:   e004          b.n    1e96 <nrf52_errata_136+0x6e>
		      1e8c:   2301          movs   r3, #1
		      1e8e:   e002          b.n    1e96 <nrf52_errata_136+0x6e>
		--------------------
	(    1ed6,     1eec)	jt
		--------------------
		      1ece:   3b03          subs   r3, #3
		      1ed0:   2b03          cmp    r3, #3
		      1ed2:   d813          bhi.n  1efc <nrf52_errata_182+0x48>
		      1ed4:   a201          add    r2, pc, #4 ; (adr r2, 1edc <nrf52_errata_182+0x28>)
		->    1ed6:   f852 f023     ldr.w  pc, [r2, r3, lsl #2]
		      1eda:   bf00          nop
		      1edc:   00001eed  .word   0x00001eed
		      1ee0:   00001ef1  .word   0x00001ef1
		      1ee4:   00001ef5  .word   0x00001ef5
		--------------------
	(    1ed6,     1ef8)	jt
		--------------------
		      1ece:   3b03          subs   r3, #3
		      1ed0:   2b03          cmp    r3, #3
		      1ed2:   d813          bhi.n  1efc <nrf52_errata_182+0x48>
		      1ed4:   a201          add    r2, pc, #4 ; (adr r2, 1edc <nrf52_errata_182+0x28>)
		->    1ed6:   f852 f023     ldr.w  pc, [r2, r3, lsl #2]
		      1eda:   bf00          nop
		      1edc:   00001eed  .word   0x00001eed
		      1ee0:   00001ef1  .word   0x00001ef1
		      1ee4:   00001ef5  .word   0x00001ef5
		--------------------

gpiote-o1: 2 | 2
	(     316,      318)	
		--------------------
		       30a:   4b0a          ldr    r3, [pc, #40]  ; (334 <app_error_fault_handler+0x2c>)
		       30c:   f8d3 30f0     ldr.w  r3, [r3, #240]   ; 0xf0
		       310:   f013 0f01     tst.w  r3, #1
		       314:   d000          beq.n  318 <app_error_fault_handler+0x10>
		->     316:   be00          bkpt   0x0000
		       318:   f3bf 8f4f     dsb    sy
		       31c:   4905          ldr    r1, [pc, #20]  ; (334 <app_error_fault_handler+0x2c>)
		       31e:   68ca          ldr    r2, [r1, #12]
		       320:   f402 62e0     and.w  r2, r2, #1792    ; 0x700
		--------------------
	(     b74,      a7c)	
		--------------------
		       b6c:   d186          bne.n  a7c <SystemInit+0x38>
		       b6e:   4b88          ldr    r3, [pc, #544] ; (d90 <SystemInit+0x34c>)
		       b70:   4a88          ldr    r2, [pc, #544] ; (d94 <SystemInit+0x350>)
		       b72:   675a          str    r2, [r3, #116] ; 0x74
		->     b74:   e782          b.n    a7c <SystemInit+0x38>
		       b76:   f04f 4370     mov.w  r3, #4026531840  ; 0xf0000000
		       b7a:   f8d3 3fe8     ldr.w  r3, [r3, #4072]  ; 0xfe8
		       b7e:   f3c3 1303     ubfx   r3, r3, #4, #4
		       b82:   2b03          cmp    r3, #3
		--------------------

gpiote-o2: 4 | 4
	(     318,      31a)	
		--------------------
		       30e:   4b09          ldr    r3, [pc, #36]  ; (334 <app_error_fault_handler+0x28>)
		       310:   f8d3 30f0     ldr.w  r3, [r3, #240]   ; 0xf0
		       314:   07db          lsls   r3, r3, #31
		       316:   d500          bpl.n  31a <app_error_fault_handler+0xe>
		->     318:   be00          bkpt   0x0000
		       31a:   f3bf 8f4f     dsb    sy
		       31e:   4905          ldr    r1, [pc, #20]  ; (334 <app_error_fault_handler+0x28>)
		       320:   4b05          ldr    r3, [pc, #20]  ; (338 <app_error_fault_handler+0x2c>)
		       322:   68ca          ldr    r2, [r1, #12]
		--------------------
	(     914,      936)	
		--------------------
		       908:   f44f 3680     mov.w  r6, #65536   ; 0x10000
		       90c:   682b          ldr    r3, [r5, #0]
		       90e:   fa06 f204     lsl.w  r2, r6, r4
		       912:   3401          adds   r4, #1
		->     914:   b17b          cbz    r3, 936 <TIMER0_IRQHandler+0x3e>
		       916:   f8d7 3304     ldr.w  r3, [r7, #772]   ; 0x304
		       91a:   f5a5 4000     sub.w  r0, r5, #32768   ; 0x8000
		       91e:   421a          tst    r2, r3
		       920:   f04f 0100     mov.w  r1, #0
		--------------------
	(     926,      928)	
		--------------------
		       91a:   f5a5 4000     sub.w  r0, r5, #32768   ; 0x8000
		       91e:   421a          tst    r2, r3
		       920:   f04f 0100     mov.w  r1, #0
		       924:   b280          uxth   r0, r0
		->     926:   d006          beq.n  936 <TIMER0_IRQHandler+0x3e>
		       928:   6029          str    r1, [r5, #0]
		       92a:   682b          ldr    r3, [r5, #0]
		       92c:   9301          str    r3, [sp, #4]
		       92e:   e9d8 3100     ldrd   r3, r1, [r8]
		--------------------
	(     ce4,      a5a)	
		--------------------
		       cda:   f43f aebe     beq.w  a5a <SystemInit+0x3a>
		       cde:   4b17          ldr    r3, [pc, #92]  ; (d3c <SystemInit+0x31c>)
		       ce0:   4a17          ldr    r2, [pc, #92]  ; (d40 <SystemInit+0x320>)
		       ce2:   675a          str    r2, [r3, #116] ; 0x74
		->     ce4:   e6b9          b.n    a5a <SystemInit+0x3a>
		       ce6:   4a17          ldr    r2, [pc, #92]  ; (d44 <SystemInit+0x324>)
		       ce8:   5cd3          ldrb   r3, [r2, r3]
		       cea:   2b00          cmp    r3, #0
		       cec:   f43f af08     beq.w  b00 <SystemInit+0xe0>
		--------------------

gpiote-o3: 4 | 4
	(     318,      31a)	
		--------------------
		       30e:   4b09          ldr    r3, [pc, #36]  ; (334 <app_error_fault_handler+0x28>)
		       310:   f8d3 30f0     ldr.w  r3, [r3, #240]   ; 0xf0
		       314:   07db          lsls   r3, r3, #31
		       316:   d500          bpl.n  31a <app_error_fault_handler+0xe>
		->     318:   be00          bkpt   0x0000
		       31a:   f3bf 8f4f     dsb    sy
		       31e:   4905          ldr    r1, [pc, #20]  ; (334 <app_error_fault_handler+0x28>)
		       320:   4b05          ldr    r3, [pc, #20]  ; (338 <app_error_fault_handler+0x2c>)
		       322:   68ca          ldr    r2, [r1, #12]
		--------------------
	(     a8c,      aae)	
		--------------------
		       a80:   f44f 3680     mov.w  r6, #65536   ; 0x10000
		       a84:   682b          ldr    r3, [r5, #0]
		       a86:   fa06 f204     lsl.w  r2, r6, r4
		       a8a:   3401          adds   r4, #1
		->     a8c:   b17b          cbz    r3, aae <TIMER0_IRQHandler+0x3e>
		       a8e:   f8d7 3304     ldr.w  r3, [r7, #772]   ; 0x304
		       a92:   f5a5 4000     sub.w  r0, r5, #32768   ; 0x8000
		       a96:   421a          tst    r2, r3
		       a98:   f04f 0100     mov.w  r1, #0
		--------------------
	(     a9e,      aa0)	
		--------------------
		       a92:   f5a5 4000     sub.w  r0, r5, #32768   ; 0x8000
		       a96:   421a          tst    r2, r3
		       a98:   f04f 0100     mov.w  r1, #0
		       a9c:   b280          uxth   r0, r0
		->     a9e:   d006          beq.n  aae <TIMER0_IRQHandler+0x3e>
		       aa0:   6029          str    r1, [r5, #0]
		       aa2:   682b          ldr    r3, [r5, #0]
		       aa4:   9301          str    r3, [sp, #4]
		       aa6:   e9d8 3100     ldrd   r3, r1, [r8]
		--------------------
	(     e44,      bd2)	
		--------------------
		       e3a:   f43f aeca     beq.w  bd2 <SystemInit+0x3a>
		       e3e:   4b35          ldr    r3, [pc, #212] ; (f14 <SystemInit+0x37c>)
		       e40:   4a35          ldr    r2, [pc, #212] ; (f18 <SystemInit+0x380>)
		       e42:   675a          str    r2, [r3, #116] ; 0x74
		->     e44:   e6c5          b.n    bd2 <SystemInit+0x3a>
		       e46:   f04f 4370     mov.w  r3, #4026531840  ; 0xf0000000
		       e4a:   f893 3fe0     ldrb.w r3, [r3, #4064] ; 0xfe0
		       e4e:   2b06          cmp    r3, #6
		       e50:   f47f af03     bne.w  c5a <SystemInit+0xc2>
		--------------------

i2s-o0: 56 | 562 | 28 jt | 26 dead
	(     636,      63a)	dead
		--------------------
		       62e:   b082          sub    sp, #8
		       630:   af00          add    r7, sp, #0
		       632:   6078          str    r0, [r7, #4]
		       634:   4804          ldr    r0, [pc, #16]  ; (648 <nrf_log_backend_uart_panic_set+0x1c>)
		->     636:   f7ff fef3     bl 420 <nrf_drv_uart_uninit>
		       63a:   2000          movs   r0, #0
		       63c:   f7ff ff54     bl 4e8 <uart_init>
		       640:   bf00          nop
		       642:   3708          adds   r7, #8
		--------------------
	(    12b2,     12ee)	jt
		--------------------
		      12aa:   687b          ldr    r3, [r7, #4]
		      12ac:   2b06          cmp    r3, #6
		      12ae:   d87f          bhi.n  13b0 <nrf_log_std_entry_process+0x128>
		      12b0:   a201          add    r2, pc, #4 ; (adr r2, 12b8 <nrf_log_std_entry_process+0x30>)
		->    12b2:   f852 f023     ldr.w  pc, [r2, r3, lsl #2]
		      12b6:   bf00          nop
		      12b8:   000012d5  .word   0x000012d5
		      12bc:   000012df  .word   0x000012df
		      12c0:   000012ef  .word   0x000012ef
		--------------------
	(    12b2,     1378)	jt
		--------------------
		      12aa:   687b          ldr    r3, [r7, #4]
		      12ac:   2b06          cmp    r3, #6
		      12ae:   d87f          bhi.n  13b0 <nrf_log_std_entry_process+0x128>
		      12b0:   a201          add    r2, pc, #4 ; (adr r2, 12b8 <nrf_log_std_entry_process+0x30>)
		->    12b2:   f852 f023     ldr.w  pc, [r2, r3, lsl #2]
		      12b6:   bf00          nop
		      12b8:   000012d5  .word   0x000012d5
		      12bc:   000012df  .word   0x000012df
		      12c0:   000012ef  .word   0x000012ef
		--------------------
	(    1300,     13b2)	jt
		--------------------
		      12f6:   681b          ldr    r3, [r3, #0]
		      12f8:   68f9          ldr    r1, [r7, #12]
		      12fa:   6ab8          ldr    r0, [r7, #40]  ; 0x28
		      12fc:   f000 fc55     bl 1baa <nrf_fprintf>
		->    1300:   e057          b.n    13b2 <nrf_log_std_entry_process+0x12a>
		      1302:   68bb          ldr    r3, [r7, #8]
		      1304:   681a          ldr    r2, [r3, #0]
		      1306:   68bb          ldr    r3, [r7, #8]
		      1308:   3304          adds   r3, #4
		--------------------
	(    13aa,     1baa)	jt
		--------------------
		      13a2:   462b          mov    r3, r5
		      13a4:   4622          mov    r2, r4
		      13a6:   68f9          ldr    r1, [r7, #12]
		      13a8:   6ab8          ldr    r0, [r7, #40]  ; 0x28
		->    13aa:   f000 fbfe     bl 1baa <nrf_fprintf>
		      13ae:   e000          b.n    13b2 <nrf_log_std_entry_process+0x12a>
		      13b0:   bf00          nop
		      13b2:   2200          movs   r2, #0
		      13b4:   6ab9          ldr    r1, [r7, #40]  ; 0x28
		--------------------
	(    1c44,     1c46)	jti
		--------------------
		      1c3a:   617b          str    r3, [r7, #20]
		      1c3c:   683b          ldr    r3, [r7, #0]
		      1c3e:   f003 0301     and.w  r3, r3, #1
		      1c42:   2b00          cmp    r3, #0
		->    1c44:   d021          beq.n  1c8a <string_print+0x60>
		      1c46:   e00a          b.n    1c5e <string_print+0x34>
		      1c48:   68bb          ldr    r3, [r7, #8]
		      1c4a:   3301          adds   r3, #1
		      1c4c:   60bb          str    r3, [r7, #8]
		--------------------
	(    1c68,     1c48)	jti
		--------------------
		      1c60:   781b          ldrb   r3, [r3, #0]
		      1c62:   74fb          strb   r3, [r7, #19]
		      1c64:   7cfb          ldrb   r3, [r7, #19]
		      1c66:   2b00          cmp    r3, #0
		->    1c68:   d1ee          bne.n  1c48 <string_print+0x1e>
		      1c6a:   e006          b.n    1c7a <string_print+0x50>
		      1c6c:   687b          ldr    r3, [r7, #4]
		      1c6e:   3b01          subs   r3, #1
		      1c70:   607b          str    r3, [r7, #4]
		--------------------
	(    1c86,     1c6c)	jti
		--------------------
		      1c7e:   429a          cmp    r2, r3
		      1c80:   d92b          bls.n  1cda <string_print+0xb0>
		      1c82:   687b          ldr    r3, [r7, #4]
		      1c84:   2b00          cmp    r3, #0
		->    1c86:   d1f1          bne.n  1c6c <string_print+0x42>
		      1c88:   e027          b.n    1cda <string_print+0xb0>
		      1c8a:   68bb          ldr    r3, [r7, #8]
		      1c8c:   2b00          cmp    r3, #0
		      1c8e:   d00b          beq.n  1ca8 <string_print+0x7e>
		--------------------
	(    1c8e,     1c90)	jti
		--------------------
		      1c86:   d1f1          bne.n  1c6c <string_print+0x42>
		      1c88:   e027          b.n    1cda <string_print+0xb0>
		      1c8a:   68bb          ldr    r3, [r7, #8]
		      1c8c:   2b00          cmp    r3, #0
		->    1c8e:   d00b          beq.n  1ca8 <string_print+0x7e>
		      1c90:   68b8          ldr    r0, [r7, #8]
		      1c92:   f003 fdf5     bl 5880 <strlen>
		      1c96:   6178          str    r0, [r7, #20]
		      1c98:   e006          b.n    1ca8 <string_print+0x7e>
		--------------------
	(    1d44,     1d4a)	jti
		--------------------
		      1d3c:   2b00          cmp    r3, #0
		      1d3e:   d102          bne.n  1d46 <unsigned_print+0x62>
		      1d40:   2330          movs   r3, #48   ; 0x30
		      1d42:   75fb          strb   r3, [r7, #23]
		->    1d44:   e001          b.n    1d4a <unsigned_print+0x66>
		      1d46:   2320          movs   r3, #32
		      1d48:   75fb          strb   r3, [r7, #23]
		      1d4a:   e007          b.n    1d5c <unsigned_print+0x78>
		      1d4c:   6abb          ldr    r3, [r7, #40]  ; 0x28
		--------------------
	(    1d8c,     1d8e)	jti
		--------------------
		      1d84:   613b          str    r3, [r7, #16]
		      1d86:   693a          ldr    r2, [r7, #16]
		      1d88:   687b          ldr    r3, [r7, #4]
		      1d8a:   429a          cmp    r2, r3
		->    1d8c:   d200          bcs.n  1d90 <unsigned_print+0xac>
		      1d8e:   e005          b.n    1d9c <unsigned_print+0xb8>
		      1d90:   69fb          ldr    r3, [r7, #28]
		      1d92:   687a          ldr    r2, [r7, #4]
		      1d94:   fb02 f303     mul.w  r3, r2, r3
		--------------------
	(    1ddc,     1dde)	jti
		--------------------
		      1dd2:   d1e3          bne.n  1d9c <unsigned_print+0xb8>
		      1dd4:   6afb          ldr    r3, [r7, #44]  ; 0x2c
		      1dd6:   f003 0301     and.w  r3, r3, #1
		      1dda:   2b00          cmp    r3, #0
		->    1ddc:   d011          beq.n  1e02 <unsigned_print+0x11e>
		      1dde:   6abb          ldr    r3, [r7, #40]  ; 0x28
		      1de0:   2b00          cmp    r3, #0
		      1de2:   d00e          beq.n  1e02 <unsigned_print+0x11e>
		      1de4:   e006          b.n    1df4 <unsigned_print+0x110>
		--------------------
	(    1e76,     1e7e)	jti
		--------------------
		      1e6c:   623b          str    r3, [r7, #32]
		      1e6e:   6a7b          ldr    r3, [r7, #36]  ; 0x24
		      1e70:   f003 0302     and.w  r3, r3, #2
		      1e74:   2b00          cmp    r3, #0
		->    1e76:   d002          beq.n  1e7e <int_print+0x6e>
		      1e78:   683b          ldr    r3, [r7, #0]
		      1e7a:   2b00          cmp    r3, #0
		      1e7c:   d016          beq.n  1eac <int_print+0x9c>
		      1e7e:   6a7b          ldr    r3, [r7, #36]  ; 0x24
		--------------------
	(    1ee6,     1ee8)	jti
		--------------------
		      1edc:   d019          beq.n  1f12 <int_print+0x102>
		      1ede:   6a7b          ldr    r3, [r7, #36]  ; 0x24
		      1ee0:   f003 0301     and.w  r3, r3, #1
		      1ee4:   2b00          cmp    r3, #0
		->    1ee6:   d114          bne.n  1f12 <int_print+0x102>
		      1ee8:   683b          ldr    r3, [r7, #0]
		      1eea:   2b00          cmp    r3, #0
		      1eec:   d111          bne.n  1f12 <int_print+0x102>
		      1eee:   6a3b          ldr    r3, [r7, #32]
		--------------------
	(    1ee6,     1f12)	jti
		--------------------
		      1edc:   d019          beq.n  1f12 <int_print+0x102>
		      1ede:   6a7b          ldr    r3, [r7, #36]  ; 0x24
		      1ee0:   f003 0301     and.w  r3, r3, #1
		      1ee4:   2b00          cmp    r3, #0
		->    1ee6:   d114          bne.n  1f12 <int_print+0x102>
		      1ee8:   683b          ldr    r3, [r7, #0]
		      1eea:   2b00          cmp    r3, #0
		      1eec:   d111          bne.n  1f12 <int_print+0x102>
		      1eee:   6a3b          ldr    r3, [r7, #32]
		--------------------
	(    1ef2,     1ef4)	jti
		--------------------
		      1eea:   2b00          cmp    r3, #0
		      1eec:   d111          bne.n  1f12 <int_print+0x102>
		      1eee:   6a3b          ldr    r3, [r7, #32]
		      1ef0:   2b00          cmp    r3, #0
		->    1ef2:   d00e          beq.n  1f12 <int_print+0x102>
		      1ef4:   e006          b.n    1f04 <int_print+0xf4>
		      1ef6:   6a3b          ldr    r3, [r7, #32]
		      1ef8:   3b01          subs   r3, #1
		      1efa:   623b          str    r3, [r7, #32]
		--------------------
	(    1f08,     1f12)	jti
		--------------------
		      1efe:   68f8          ldr    r0, [r7, #12]
		      1f00:   f7ff fe6f     bl 1be2 <buffer_add>
		      1f04:   6a3b          ldr    r3, [r7, #32]
		      1f06:   2b00          cmp    r3, #0
		->    1f08:   d003          beq.n  1f12 <int_print+0x102>
		      1f0a:   697a          ldr    r2, [r7, #20]
		      1f0c:   6a3b          ldr    r3, [r7, #32]
		      1f0e:   429a          cmp    r2, r3
		      1f10:   d3f1          bcc.n  1ef6 <int_print+0xe6>
		--------------------
	(    2160,     1be2)	jt
		--------------------
		      2158:   75fb          strb   r3, [r7, #23]
		      215a:   7dfb          ldrb   r3, [r7, #23]
		      215c:   4619          mov    r1, r3
		      215e:   68f8          ldr    r0, [r7, #12]
		->    2160:   f7ff fd3f     bl 1be2 <buffer_add>
		      2164:   e063          b.n    222e <Heap_Size+0x22e>
		      2166:   687b          ldr    r3, [r7, #4]
		      2168:   681b          ldr    r3, [r3, #0]
		      216a:   1d19          adds   r1, r3, #4
		--------------------
	(    21e8,     21ec)	jt
		--------------------
		      21e0:   6a3b          ldr    r3, [r7, #32]
		      21e2:   69fa          ldr    r2, [r7, #28]
		      21e4:   69b9          ldr    r1, [r7, #24]
		      21e6:   68f8          ldr    r0, [r7, #12]
		->    21e8:   f7ff fd1f     bl 1c2a <string_print>
		      21ec:   e01f          b.n    222e <Heap_Size+0x22e>
		      21ee:   687b          ldr    r3, [r7, #4]
		      21f0:   681b          ldr    r3, [r3, #0]
		      21f2:   1d19          adds   r1, r3, #4
		--------------------
	(    34d8,     349e)	dead
		--------------------
		      34cc:   6078          str    r0, [r7, #4]
		      34ce:   f04f 32ff     mov.w  r2, #4294967295  ; 0xffffffff
		      34d2:   f04f 31ff     mov.w  r1, #4294967295  ; 0xffffffff
		      34d6:   6878          ldr    r0, [r7, #4]
		->    34d8:   f7ff ffe1     bl 349e <nrf_uart_hwfc_pins_set>
		      34dc:   bf00          nop
		      34de:   3708          adds   r7, #8
		      34e0:   46bd          mov    sp, r7
		      34e2:   bd80          pop    {r7, pc}
		--------------------
	(    34d8,     34dc)	dead
		--------------------
		      34cc:   6078          str    r0, [r7, #4]
		      34ce:   f04f 32ff     mov.w  r2, #4294967295  ; 0xffffffff
		      34d2:   f04f 31ff     mov.w  r1, #4294967295  ; 0xffffffff
		      34d6:   6878          ldr    r0, [r7, #4]
		->    34d8:   f7ff ffe1     bl 349e <nrf_uart_hwfc_pins_set>
		      34dc:   bf00          nop
		      34de:   3708          adds   r7, #8
		      34e0:   46bd          mov    sp, r7
		      34e2:   bd80          pop    {r7, pc}
		--------------------
	(    37f4,     3374)	dead
		--------------------
		      37ec:   687b          ldr    r3, [r7, #4]
		      37ee:   681b          ldr    r3, [r3, #0]
		      37f0:   4908          ldr    r1, [pc, #32]  ; (3814 <interrupts_disable+0x30>)
		      37f2:   4618          mov    r0, r3
		->    37f4:   f7ff fdbe     bl 3374 <nrf_uart_int_disable>
		      37f8:   687b          ldr    r3, [r7, #4]
		      37fa:   681b          ldr    r3, [r3, #0]
		      37fc:   4618          mov    r0, r3
		      37fe:   f7ff fd2d     bl 325c <nrfx_get_irq_number>
		--------------------
	(    3826,     382a)	dead
		--------------------
		      381e:   6078          str    r0, [r7, #4]
		      3820:   687b          ldr    r3, [r7, #4]
		      3822:   681b          ldr    r3, [r3, #0]
		      3824:   4618          mov    r0, r3
		->    3826:   f7ff fe06     bl 3436 <nrf_uart_tx_pin_get>
		      382a:   6178          str    r0, [r7, #20]
		      382c:   687b          ldr    r3, [r7, #4]
		      382e:   681b          ldr    r3, [r3, #0]
		      3830:   4618          mov    r0, r3
		--------------------
	(    3894,     3896)	dead
		--------------------
		      3888:   68b8          ldr    r0, [r7, #8]
		      388a:   f7ff fedb     bl 3644 <nrf_gpio_cfg_default>
		      388e:   68fb          ldr    r3, [r7, #12]
		      3890:   f1b3 3fff     cmp.w  r3, #4294967295  ; 0xffffffff
		->    3894:   d002          beq.n  389c <pins_to_default+0x84>
		      3896:   68f8          ldr    r0, [r7, #12]
		      3898:   f7ff fed4     bl 3644 <nrf_gpio_cfg_default>
		      389c:   bf00          nop
		      389e:   3718          adds   r7, #24
		--------------------
	(    3996,     399a)	dead
		--------------------
		      398e:   685b          ldr    r3, [r3, #4]
		      3990:   2b00          cmp    r3, #0
		      3992:   d002          beq.n  399a <nrfx_uart_uninit+0x32>
		      3994:   6878          ldr    r0, [r7, #4]
		->    3996:   f7ff ff25     bl 37e4 <interrupts_disable>
		      399a:   6878          ldr    r0, [r7, #4]
		      399c:   f7ff ff3c     bl 3818 <pins_to_default>
		      39a0:   687b          ldr    r3, [r7, #4]
		      39a2:   681b          ldr    r3, [r3, #0]
		--------------------
	(    3b78,     3b7a)	dead
		--------------------
		      3b70:   6039          str    r1, [r7, #0]
		      3b72:   683b          ldr    r3, [r7, #0]
		      3b74:   699b          ldr    r3, [r3, #24]
		      3b76:   2b00          cmp    r3, #0
		->    3b78:   d108          bne.n  3b8c <rx_byte+0x24>
		      3b7a:   f44f 7184     mov.w  r1, #264 ; 0x108
		      3b7e:   6878          ldr    r0, [r7, #4]
		      3b80:   f7ff fba8     bl 32d4 <nrf_uart_event_clear>
		      3b84:   6878          ldr    r0, [r7, #4]
		--------------------
	(    3c30,     334a)	dead
		--------------------
		      3c26:   6078          str    r0, [r7, #4]
		      3c28:   6039          str    r1, [r7, #0]
		      3c2a:   f44f 7100     mov.w  r1, #512 ; 0x200
		      3c2e:   6878          ldr    r0, [r7, #4]
		->    3c30:   f7ff fb8b     bl 334a <nrf_uart_int_enable_check>
		      3c34:   4603          mov    r3, r0
		      3c36:   2b00          cmp    r3, #0
		      3c38:   d039          beq.n  3cae <uart_irq_handler+0x8e>
		      3c3a:   f44f 7192     mov.w  r1, #292 ; 0x124
		--------------------
	(    3c50,     32d4)	dead
		--------------------
		      3c46:   2b00          cmp    r3, #0
		      3c48:   d031          beq.n  3cae <uart_irq_handler+0x8e>
		      3c4a:   f44f 7192     mov.w  r1, #292 ; 0x124
		      3c4e:   6878          ldr    r0, [r7, #4]
		->    3c50:   f7ff fb40     bl 32d4 <nrf_uart_event_clear>
		      3c54:   f44f 7101     mov.w  r1, #516 ; 0x204
		      3c58:   6878          ldr    r0, [r7, #4]
		      3c5a:   f7ff fb8b     bl 3374 <nrf_uart_int_disable>
		      3c5e:   683b          ldr    r3, [r7, #0]
		--------------------
	(    3c5a,     3374)	dead
		--------------------
		      3c4e:   6878          ldr    r0, [r7, #4]
		      3c50:   f7ff fb40     bl 32d4 <nrf_uart_event_clear>
		      3c54:   f44f 7101     mov.w  r1, #516 ; 0x204
		      3c58:   6878          ldr    r0, [r7, #4]
		->    3c5a:   f7ff fb8b     bl 3374 <nrf_uart_int_disable>
		      3c5e:   683b          ldr    r3, [r7, #0]
		      3c60:   f893 3029     ldrb.w r3, [r3, #41]   ; 0x29
		      3c64:   f083 0301     eor.w  r3, r3, #1
		      3c68:   b2db          uxtb   r3, r3
		--------------------
	(    3cb2,     334a)	dead
		--------------------
		      3caa:   4798          blx    r3
		      3cac:   e052          b.n    3d54 <uart_irq_handler+0x134>
		      3cae:   2104          movs   r1, #4
		      3cb0:   6878          ldr    r0, [r7, #4]
		->    3cb2:   f7ff fb4a     bl 334a <nrf_uart_int_enable_check>
		      3cb6:   4603          mov    r3, r0
		      3cb8:   2b00          cmp    r3, #0
		      3cba:   d04b          beq.n  3d54 <uart_irq_handler+0x134>
		      3cbc:   f44f 7184     mov.w  r1, #264 ; 0x108
		--------------------
	(    3cd0,     3cd4)	dead
		--------------------
		      3cc8:   2b00          cmp    r3, #0
		      3cca:   d043          beq.n  3d54 <uart_irq_handler+0x134>
		      3ccc:   6839          ldr    r1, [r7, #0]
		      3cce:   6878          ldr    r0, [r7, #4]
		->    3cd0:   f7ff ff4a     bl 3b68 <rx_byte>
		      3cd4:   683b          ldr    r3, [r7, #0]
		      3cd6:   699a          ldr    r2, [r3, #24]
		      3cd8:   683b          ldr    r3, [r7, #0]
		      3cda:   6a5b          ldr    r3, [r3, #36]  ; 0x24
		--------------------
	(    3d5a,     3302)	dead
		--------------------
		      3d4e:   6838          ldr    r0, [r7, #0]
		      3d50:   f7ff ff33     bl 3bba <rx_done_event>
		      3d54:   f44f 718e     mov.w  r1, #284 ; 0x11c
		      3d58:   6878          ldr    r0, [r7, #4]
		->    3d5a:   f7ff fad2     bl 3302 <nrf_uart_event_check>
		      3d5e:   4603          mov    r3, r0
		      3d60:   2b00          cmp    r3, #0
		      3d62:   d024          beq.n  3dae <uart_irq_handler+0x18e>
		      3d64:   683b          ldr    r3, [r7, #0]
		--------------------
	(    3da0,     3dae)	dead
		--------------------
		      3d96:   f7ff fa9d     bl 32d4 <nrf_uart_event_clear>
		      3d9a:   683b          ldr    r3, [r7, #0]
		      3d9c:   695b          ldr    r3, [r3, #20]
		      3d9e:   2b00          cmp    r3, #0
		->    3da0:   d005          beq.n  3dae <uart_irq_handler+0x18e>
		      3da2:   683b          ldr    r3, [r7, #0]
		      3da4:   695b          ldr    r3, [r3, #20]
		      3da6:   4619          mov    r1, r3
		      3da8:   6838          ldr    r0, [r7, #0]
		--------------------
	(    40e2,     40e6)	dead
		--------------------
		      40d6:   6078          str    r0, [r7, #4]
		      40d8:   f04f 32ff     mov.w  r2, #4294967295  ; 0xffffffff
		      40dc:   f04f 31ff     mov.w  r1, #4294967295  ; 0xffffffff
		      40e0:   6878          ldr    r0, [r7, #4]
		->    40e2:   f7ff ffe1     bl 40a8 <nrf_uarte_txrx_pins_set>
		      40e6:   bf00          nop
		      40e8:   3708          adds   r7, #8
		      40ea:   46bd          mov    sp, r7
		      40ec:   bd80          pop    {r7, pc}
		--------------------
	(    4334,     4338)	dead
		--------------------
		      432c:   2300          movs   r3, #0
		      432e:   2201          movs   r2, #1
		      4330:   2100          movs   r1, #0
		      4332:   6878          ldr    r0, [r7, #4]
		->    4334:   f7ff ffa2     bl 427c <nrf_gpio_cfg>
		      4338:   bf00          nop
		      433a:   3708          adds   r7, #8
		      433c:   46bd          mov    sp, r7
		      433e:   bd80          pop    {r7, pc}
		--------------------
	(    44fe,     4502)	dead
		--------------------
		      44f4:   f7ff fd9a     bl 402c <nrf_uarte_int_disable>
		      44f8:   687b          ldr    r3, [r7, #4]
		      44fa:   681b          ldr    r3, [r3, #0]
		      44fc:   4618          mov    r0, r3
		->    44fe:   f7ff fd0a     bl 3f16 <nrfx_get_irq_number>
		      4502:   4603          mov    r3, r0
		      4504:   4618          mov    r0, r3
		      4506:   f7ff fd34     bl 3f72 <_NRFX_IRQ_DISABLE>
		      450a:   bf00          nop
		--------------------
	(    4532,     4108)	dead
		--------------------
		      452a:   6178          str    r0, [r7, #20]
		      452c:   687b          ldr    r3, [r7, #4]
		      452e:   681b          ldr    r3, [r3, #0]
		      4530:   4618          mov    r0, r3
		->    4532:   f7ff fde9     bl 4108 <nrf_uarte_rx_pin_get>
		      4536:   6138          str    r0, [r7, #16]
		      4538:   687b          ldr    r3, [r7, #4]
		      453a:   681b          ldr    r3, [r3, #0]
		      453c:   4618          mov    r0, r3
		--------------------
	(    4560,     417e)	dead
		--------------------
		      4556:   f7ff fdbb     bl 40d0 <nrf_uarte_txrx_pins_disconnect>
		      455a:   687b          ldr    r3, [r7, #4]
		      455c:   681b          ldr    r3, [r3, #0]
		      455e:   4618          mov    r0, r3
		->    4560:   f7ff fe0d     bl 417e <nrf_uarte_hwfc_pins_disconnect>
		      4564:   697b          ldr    r3, [r7, #20]
		      4566:   f1b3 3fff     cmp.w  r3, #4294967295  ; 0xffffffff
		      456a:   d002          beq.n  4572 <pins_to_default+0x5a>
		      456c:   6978          ldr    r0, [r7, #20]
		--------------------
	(    456a,     456c)	dead
		--------------------
		      455e:   4618          mov    r0, r3
		      4560:   f7ff fe0d     bl 417e <nrf_uarte_hwfc_pins_disconnect>
		      4564:   697b          ldr    r3, [r7, #20]
		      4566:   f1b3 3fff     cmp.w  r3, #4294967295  ; 0xffffffff
		->    456a:   d002          beq.n  4572 <pins_to_default+0x5a>
		      456c:   6978          ldr    r0, [r7, #20]
		      456e:   f7ff fed5     bl 431c <nrf_gpio_cfg_default>
		      4572:   693b          ldr    r3, [r7, #16]
		      4574:   f1b3 3fff     cmp.w  r3, #4294967295  ; 0xffffffff
		--------------------
	(    46ae,     46b2)	dead
		--------------------
		      46a4:   68b8          ldr    r0, [r7, #8]
		      46a6:   f7ff fc72     bl 3f8e <nrf_uarte_event_clear>
		      46aa:   2104          movs   r1, #4
		      46ac:   68b8          ldr    r0, [r7, #8]
		->    46ae:   f7ff fd75     bl 419c <nrf_uarte_task_trigger>
		      46b2:   f44f 71ac     mov.w  r1, #344 ; 0x158
		      46b6:   68b8          ldr    r0, [r7, #8]
		      46b8:   f7ff fc69     bl 3f8e <nrf_uarte_event_clear>
		      46bc:   210c          movs   r1, #12
		--------------------
	(    46ea,     46ee)	dead
		--------------------
		      46e0:   2b00          cmp    r3, #0
		      46e2:   d00a          beq.n  46fa <nrfx_uarte_uninit+0x9a>
		      46e4:   f44f 71a2     mov.w  r1, #324 ; 0x144
		      46e8:   68b8          ldr    r0, [r7, #8]
		->    46ea:   f7ff fc67     bl 3fbc <nrf_uarte_event_check>
		      46ee:   4603          mov    r3, r0
		      46f0:   f083 0301     eor.w  r3, r3, #1
		      46f4:   b2db          uxtb   r3, r3
		      46f6:   2b00          cmp    r3, #0
		--------------------
	(    46fc,     408c)	dead
		--------------------
		      46f4:   b2db          uxtb   r3, r3
		      46f6:   2b00          cmp    r3, #0
		      46f8:   d1e5          bne.n  46c6 <nrfx_uarte_uninit+0x66>
		      46fa:   68b8          ldr    r0, [r7, #8]
		->    46fc:   f7ff fcc6     bl 408c <nrf_uarte_disable>
		      4700:   6878          ldr    r0, [r7, #4]
		      4702:   f7ff ff09     bl 4518 <pins_to_default>
		      4706:   68b8          ldr    r0, [r7, #8]
		      4708:   f7fe fd27     bl 315a <nrfx_prs_release>
		--------------------
	(    4702,     4518)	dead
		--------------------
		      46f8:   d1e5          bne.n  46c6 <nrfx_uarte_uninit+0x66>
		      46fa:   68b8          ldr    r0, [r7, #8]
		      46fc:   f7ff fcc6     bl 408c <nrf_uarte_disable>
		      4700:   6878          ldr    r0, [r7, #4]
		->    4702:   f7ff ff09     bl 4518 <pins_to_default>
		      4706:   68b8          ldr    r0, [r7, #8]
		      4708:   f7fe fd27     bl 315a <nrfx_prs_release>
		      470c:   68fb          ldr    r3, [r7, #12]
		      470e:   2200          movs   r2, #0
		--------------------
	(    4708,     315a)	dead
		--------------------
		      46fc:   f7ff fcc6     bl 408c <nrf_uarte_disable>
		      4700:   6878          ldr    r0, [r7, #4]
		      4702:   f7ff ff09     bl 4518 <pins_to_default>
		      4706:   68b8          ldr    r0, [r7, #8]
		->    4708:   f7fe fd27     bl 315a <nrfx_prs_release>
		      470c:   68fb          ldr    r3, [r7, #12]
		      470e:   2200          movs   r2, #0
		      4710:   f883 2020     strb.w r2, [r3, #32]
		      4714:   68fb          ldr    r3, [r7, #12]
		--------------------
	(    4f9e,     4fb8)	jt
		--------------------
		      4f96:   3b03          subs   r3, #3
		      4f98:   2b03          cmp    r3, #3
		      4f9a:   d813          bhi.n  4fc4 <nrf52_errata_12+0x68>
		      4f9c:   a201          add    r2, pc, #4 ; (adr r2, 4fa4 <nrf52_errata_12+0x48>)
		->    4f9e:   f852 f023     ldr.w  pc, [r2, r3, lsl #2]
		      4fa2:   bf00          nop
		      4fa4:   00004fb5  .word   0x00004fb5
		      4fa8:   00004fb9  .word   0x00004fb9
		      4fac:   00004fbd  .word   0x00004fbd
		--------------------
	(    4fba,     4fca)	jt
		--------------------
		      4fb0:   00004fc1  .word   0x00004fc1
		      4fb4:   2301          movs   r3, #1
		      4fb6:   e008          b.n    4fca <nrf52_errata_12+0x6e>
		      4fb8:   2301          movs   r3, #1
		->    4fba:   e006          b.n    4fca <nrf52_errata_12+0x6e>
		      4fbc:   2301          movs   r3, #1
		      4fbe:   e004          b.n    4fca <nrf52_errata_12+0x6e>
		      4fc0:   2301          movs   r3, #1
		      4fc2:   e002          b.n    4fca <nrf52_errata_12+0x6e>
		--------------------
	(    4fc2,     4fca)	jt
		--------------------
		      4fba:   e006          b.n    4fca <nrf52_errata_12+0x6e>
		      4fbc:   2301          movs   r3, #1
		      4fbe:   e004          b.n    4fca <nrf52_errata_12+0x6e>
		      4fc0:   2301          movs   r3, #1
		->    4fc2:   e002          b.n    4fca <nrf52_errata_12+0x6e>
		      4fc4:   2301          movs   r3, #1
		      4fc6:   e000          b.n    4fca <nrf52_errata_12+0x6e>
		      4fc8:   2300          movs   r3, #0
		      4fca:   4618          mov    r0, r3
		--------------------
	(    50ba,     50c2)	jt
		--------------------
		      50b2:   e006          b.n    50c2 <nrf52_errata_31+0x6e>
		      50b4:   2301          movs   r3, #1
		      50b6:   e004          b.n    50c2 <nrf52_errata_31+0x6e>
		      50b8:   2301          movs   r3, #1
		->    50ba:   e002          b.n    50c2 <nrf52_errata_31+0x6e>
		      50bc:   2301          movs   r3, #1
		      50be:   e000          b.n    50c2 <nrf52_errata_31+0x6e>
		      50c0:   2300          movs   r3, #0
		      50c2:   4618          mov    r0, r3
		--------------------
	(    510a,     512c)	jt
		--------------------
		      5102:   3b03          subs   r3, #3
		      5104:   2b03          cmp    r3, #3
		      5106:   d813          bhi.n  5130 <nrf52_errata_32+0x50>
		      5108:   a201          add    r2, pc, #4 ; (adr r2, 5110 <nrf52_errata_32+0x30>)
		->    510a:   f852 f023     ldr.w  pc, [r2, r3, lsl #2]
		      510e:   bf00          nop
		      5110:   00005121  .word   0x00005121
		      5114:   00005125  .word   0x00005125
		      5118:   00005129  .word   0x00005129
		--------------------
	(    512a,     5136)	jt
		--------------------
		      5122:   e008          b.n    5136 <nrf52_errata_32+0x56>
		      5124:   2300          movs   r3, #0
		      5126:   e006          b.n    5136 <nrf52_errata_32+0x56>
		      5128:   2300          movs   r3, #0
		->    512a:   e004          b.n    5136 <nrf52_errata_32+0x56>
		      512c:   2300          movs   r3, #0
		      512e:   e002          b.n    5136 <nrf52_errata_32+0x56>
		      5130:   2300          movs   r3, #0
		      5132:   e000          b.n    5136 <nrf52_errata_32+0x56>
		--------------------
	(    526e,     528c)	jt
		--------------------
		      5266:   3b03          subs   r3, #3
		      5268:   2b03          cmp    r3, #3
		      526a:   d813          bhi.n  5294 <nrf52_errata_57+0x50>
		      526c:   a201          add    r2, pc, #4 ; (adr r2, 5274 <nrf52_errata_57+0x30>)
		->    526e:   f852 f023     ldr.w  pc, [r2, r3, lsl #2]
		      5272:   bf00          nop
		      5274:   00005285  .word   0x00005285
		      5278:   00005289  .word   0x00005289
		      527c:   0000528d  .word   0x0000528d
		--------------------
	(    526e,     5290)	jt
		--------------------
		      5266:   3b03          subs   r3, #3
		      5268:   2b03          cmp    r3, #3
		      526a:   d813          bhi.n  5294 <nrf52_errata_57+0x50>
		      526c:   a201          add    r2, pc, #4 ; (adr r2, 5274 <nrf52_errata_57+0x30>)
		->    526e:   f852 f023     ldr.w  pc, [r2, r3, lsl #2]
		      5272:   bf00          nop
		      5274:   00005285  .word   0x00005285
		      5278:   00005289  .word   0x00005289
		      527c:   0000528d  .word   0x0000528d
		--------------------
	(    5312,     531e)	jt
		--------------------
		      530a:   e008          b.n    531e <nrf52_errata_66+0x6e>
		      530c:   2300          movs   r3, #0
		      530e:   e006          b.n    531e <nrf52_errata_66+0x6e>
		      5310:   2301          movs   r3, #1
		->    5312:   e004          b.n    531e <nrf52_errata_66+0x6e>
		      5314:   2301          movs   r3, #1
		      5316:   e002          b.n    531e <nrf52_errata_66+0x6e>
		      5318:   2301          movs   r3, #1
		      531a:   e000          b.n    531e <nrf52_errata_66+0x6e>
		--------------------
	(    537c,     537e)	
		--------------------
		      5374:   683b          ldr    r3, [r7, #0]
		      5376:   3b03          subs   r3, #3
		      5378:   2b03          cmp    r3, #3
		      537a:   d813          bhi.n  53a4 <nrf52_errata_108+0x68>
		->    537c:   a201          add    r2, pc, #4 ; (adr r2, 5384 <nrf52_errata_108+0x48>)
		      537e:   f852 f023     ldr.w  pc, [r2, r3, lsl #2]
		      5382:   bf00          nop
		      5384:   00005395  .word   0x00005395
		      5388:   00005399  .word   0x00005399
		--------------------
	(    540a,     5430)	jt
		--------------------
		      5402:   3b03          subs   r3, #3
		      5404:   2b03          cmp    r3, #3
		      5406:   d813          bhi.n  5430 <nrf52_errata_136+0x68>
		      5408:   a201          add    r2, pc, #4 ; (adr r2, 5410 <nrf52_errata_136+0x48>)
		->    540a:   f852 f023     ldr.w  pc, [r2, r3, lsl #2]
		      540e:   bf00          nop
		      5410:   00005421  .word   0x00005421
		      5414:   00005425  .word   0x00005425
		      5418:   00005429  .word   0x00005429
		--------------------
	(    5888,     588a)	
		--------------------
		  00005880 <strlen>:
		      5880:   4603          mov    r3, r0
		      5882:   f813 2b01     ldrb.w r2, [r3], #1
		      5886:   2a00          cmp    r2, #0
		->    5888:   d1fb          bne.n  5882 <strlen+0x2>
		      588a:   1a18          subs   r0, r3, r0
		      588c:   3801          subs   r0, #1
		      588e:   4770          bx lr
		  
		--------------------

i2s-o1: 20 | 126 | 17 dead | 1 ft
	(     302,      304)	
		--------------------
		       2f8:   f001 f9b9     bl 166e <nrf_memobj_get>
		       2fc:   950e          str    r5, [sp, #56]  ; 0x38
		       2fe:   940f          str    r4, [sp, #60]  ; 0x3c
		       300:   2400          movs   r4, #0
		->     302:   9410          str    r4, [sp, #64]  ; 0x40
		       304:   f88d 4044     strb.w r4, [sp, #68]   ; 0x44
		       308:   9412          str    r4, [sp, #72]  ; 0x48
		       30a:   9b1a          ldr    r3, [sp, #104] ; 0x68
		       30c:   9313          str    r3, [sp, #76]  ; 0x4c
		--------------------
	(     432,      442)	dead
		--------------------
		       42a:   4b08          ldr    r3, [pc, #32]  ; (44c <nrf_log_backend_uart_panic_set+0x24>)
		       42c:   781b          ldrb   r3, [r3, #0]
		       42e:   4a08          ldr    r2, [pc, #32]  ; (450 <nrf_log_backend_uart_panic_set+0x28>)
		       430:   5cd3          ldrb   r3, [r2, r3]
		->     432:   b133          cbz    r3, 442 <nrf_log_backend_uart_panic_set+0x1a>
		       434:   4807          ldr    r0, [pc, #28]  ; (454 <nrf_log_backend_uart_panic_set+0x2c>)
		       436:   f002 f839     bl 24ac <nrfx_uarte_uninit>
		       43a:   2000          movs   r0, #0
		       43c:   f7ff ffcc     bl 3d8 <uart_init>
		--------------------
	(     436,      43a)	dead
		--------------------
		       42e:   4a08          ldr    r2, [pc, #32]  ; (450 <nrf_log_backend_uart_panic_set+0x28>)
		       430:   5cd3          ldrb   r3, [r2, r3]
		       432:   b133          cbz    r3, 442 <nrf_log_backend_uart_panic_set+0x1a>
		       434:   4807          ldr    r0, [pc, #28]  ; (454 <nrf_log_backend_uart_panic_set+0x2c>)
		->     436:   f002 f839     bl 24ac <nrfx_uarte_uninit>
		       43a:   2000          movs   r0, #0
		       43c:   f7ff ffcc     bl 3d8 <uart_init>
		       440:   bd08          pop    {r3, pc}
		       442:   4805          ldr    r0, [pc, #20]  ; (458 <nrf_log_backend_uart_panic_set+0x30>)
		--------------------
	(    1bbc,     1bbe)	ft
		--------------------
		      1bb4:   715a          strb   r2, [r3, #5]
		      1bb6:   681b          ldr    r3, [r3, #0]
		      1bb8:   2101          movs   r1, #1
		      1bba:   4620          mov    r0, r4
		->    1bbc:   4798          blx    r3
		      1bbe:   e7b1          b.n    1b24 <I2S_IRQHandler+0x94>
		      1bc0:   40025000  .word   0x40025000
		      1bc4:   20000648  .word   0x20000648
		  
		--------------------
	(    1c24,     1c26)	
		--------------------
		      1c1c:   d103          bne.n  1c26 <nrfx_prs_release+0xe>
		      1c1e:   4b03          ldr    r3, [pc, #12]  ; (1c2c <nrfx_prs_release+0x14>)
		      1c20:   2200          movs   r2, #0
		      1c22:   601a          str    r2, [r3, #0]
		->    1c24:   711a          strb   r2, [r3, #4]
		      1c26:   4770          bx lr
		      1c28:   40002000  .word   0x40002000
		      1c2c:   20000660  .word   0x20000660
		  
		--------------------
	(    1c58,     1c7c)	dead
		--------------------
		  
		  00001c54 <rx_byte>:
		      1c54:   b082          sub    sp, #8
		      1c56:   698b          ldr    r3, [r1, #24]
		->    1c58:   b183          cbz    r3, 1c7c <rx_byte+0x28>
		      1c5a:   2300          movs   r3, #0
		      1c5c:   f8c0 3108     str.w  r3, [r0, #264]   ; 0x108
		      1c60:   f8d0 3108     ldr.w  r3, [r0, #264]   ; 0x108
		      1c64:   9301          str    r3, [sp, #4]
		--------------------
	(    1cba,     1cbc)	dead
		--------------------
		      1cae:   b086          sub    sp, #24
		      1cb0:   4b5a          ldr    r3, [pc, #360] ; (1e1c <nrfx_uart_0_irq_handler+0x170>)
		      1cb2:   f8d3 3304     ldr.w  r3, [r3, #772]   ; 0x304
		      1cb6:   f413 7f00     tst.w  r3, #512 ; 0x200
		->    1cba:   d02c          beq.n  1d16 <nrfx_uart_0_irq_handler+0x6a>
		      1cbc:   4b57          ldr    r3, [pc, #348] ; (1e1c <nrfx_uart_0_irq_handler+0x170>)
		      1cbe:   f8d3 3124     ldr.w  r3, [r3, #292]   ; 0x124
		      1cc2:   b343          cbz    r3, 1d16 <nrfx_uart_0_irq_handler+0x6a>
		      1cc4:   4b55          ldr    r3, [pc, #340] ; (1e1c <nrfx_uart_0_irq_handler+0x170>)
		--------------------
	(    1ce2,     1ce4)	dead
		--------------------
		      1cd4:   f44f 7201     mov.w  r2, #516 ; 0x204
		      1cd8:   f8c3 2308     str.w  r2, [r3, #776]   ; 0x308
		      1cdc:   4b50          ldr    r3, [pc, #320] ; (1e20 <nrfx_uart_0_irq_handler+0x174>)
		      1cde:   f893 3029     ldrb.w r3, [r3, #41]   ; 0x29
		->    1ce2:   b913          cbnz   r3, 1cea <nrfx_uart_0_irq_handler+0x3e>
		      1ce4:   4b4d          ldr    r3, [pc, #308] ; (1e1c <nrfx_uart_0_irq_handler+0x170>)
		      1ce6:   2201          movs   r2, #1
		      1ce8:   605a          str    r2, [r3, #4]
		      1cea:   2302          movs   r3, #2
		--------------------
	(    1d3c,     1d48)	dead
		--------------------
		      1d34:   4b3a          ldr    r3, [pc, #232] ; (1e20 <nrfx_uart_0_irq_handler+0x174>)
		      1d36:   695a          ldr    r2, [r3, #20]
		      1d38:   6a1b          ldr    r3, [r3, #32]
		      1d3a:   429a          cmp    r2, r3
		->    1d3c:   d904          bls.n  1d48 <nrfx_uart_0_irq_handler+0x9c>
		      1d3e:   4b38          ldr    r3, [pc, #224] ; (1e20 <nrfx_uart_0_irq_handler+0x174>)
		      1d40:   f893 3028     ldrb.w r3, [r3, #40]   ; 0x28
		      1d44:   2b00          cmp    r3, #0
		      1d46:   d04f          beq.n  1de8 <nrfx_uart_0_irq_handler+0x13c>
		--------------------
	(    1da6,     1da8)	dead
		--------------------
		      1d9e:   69a2          ldr    r2, [r4, #24]
		      1da0:   429a          cmp    r2, r3
		      1da2:   d1c3          bne.n  1d2c <nrfx_uart_0_irq_handler+0x80>
		      1da4:   69e3          ldr    r3, [r4, #28]
		->    1da6:   b99b          cbnz   r3, 1dd0 <nrfx_uart_0_irq_handler+0x124>
		      1da8:   4b1d          ldr    r3, [pc, #116] ; (1e20 <nrfx_uart_0_irq_handler+0x174>)
		      1daa:   f893 3029     ldrb.w r3, [r3, #41]   ; 0x29
		      1dae:   b913          cbnz   r3, 1db6 <nrfx_uart_0_irq_handler+0x10a>
		      1db0:   4b1a          ldr    r3, [pc, #104] ; (1e1c <nrfx_uart_0_irq_handler+0x170>)
		--------------------
	(    1dae,     1db6)	dead
		--------------------
		      1da4:   69e3          ldr    r3, [r4, #28]
		      1da6:   b99b          cbnz   r3, 1dd0 <nrfx_uart_0_irq_handler+0x124>
		      1da8:   4b1d          ldr    r3, [pc, #116] ; (1e20 <nrfx_uart_0_irq_handler+0x174>)
		      1daa:   f893 3029     ldrb.w r3, [r3, #41]   ; 0x29
		->    1dae:   b913          cbnz   r3, 1db6 <nrfx_uart_0_irq_handler+0x10a>
		      1db0:   4b1a          ldr    r3, [pc, #104] ; (1e1c <nrfx_uart_0_irq_handler+0x170>)
		      1db2:   2201          movs   r2, #1
		      1db4:   605a          str    r2, [r3, #4]
		      1db6:   4b19          ldr    r3, [pc, #100] ; (1e1c <nrfx_uart_0_irq_handler+0x170>)
		--------------------
	(    1de2,     1c8e)	dead
		--------------------
		      1dda:   60e3          str    r3, [r4, #12]
		      1ddc:   2300          movs   r3, #0
		      1dde:   61e3          str    r3, [r4, #28]
		      1de0:   6263          str    r3, [r4, #36]  ; 0x24
		->    1de2:   f7ff ff54     bl 1c8e <rx_done_event>
		      1de6:   e7a1          b.n    1d2c <nrfx_uart_0_irq_handler+0x80>
		      1de8:   490d          ldr    r1, [pc, #52]  ; (1e20 <nrfx_uart_0_irq_handler+0x174>)
		      1dea:   480c          ldr    r0, [pc, #48]  ; (1e1c <nrfx_uart_0_irq_handler+0x170>)
		      1dec:   f7ff ff20     bl 1c30 <tx_byte>
		--------------------
	(    1e08,     1e0a)	dead
		--------------------
		      1e00:   615a          str    r2, [r3, #20]
		      1e02:   685a          ldr    r2, [r3, #4]
		      1e04:   6819          ldr    r1, [r3, #0]
		      1e06:   a802          add    r0, sp, #8
		->    1e08:   4790          blx    r2
		      1e0a:   e7a9          b.n    1d60 <nrfx_uart_0_irq_handler+0xb4>
		      1e0c:   4804          ldr    r0, [pc, #16]  ; (1e20 <nrfx_uart_0_irq_handler+0x174>)
		      1e0e:   2300          movs   r3, #0
		      1e10:   6183          str    r3, [r0, #24]
		--------------------
	(    1e0a,     1d60)	dead
		--------------------
		      1e02:   685a          ldr    r2, [r3, #4]
		      1e04:   6819          ldr    r1, [r3, #0]
		      1e06:   a802          add    r0, sp, #8
		      1e08:   4790          blx    r2
		->    1e0a:   e7a9          b.n    1d60 <nrfx_uart_0_irq_handler+0xb4>
		      1e0c:   4804          ldr    r0, [pc, #16]  ; (1e20 <nrfx_uart_0_irq_handler+0x174>)
		      1e0e:   2300          movs   r3, #0
		      1e10:   6183          str    r3, [r0, #24]
		      1e12:   6a41          ldr    r1, [r0, #36]  ; 0x24
		--------------------
	(    203a,     203e)	dead
		--------------------
		      202e:   d006          beq.n  203e <Heap_Size+0x3e>
		      2030:   f507 77e0     add.w  r7, r7, #448 ; 0x1c0
		      2034:   f04f 43a0     mov.w  r3, #1342177280  ; 0x50000000
		      2038:   2202          movs   r2, #2
		->    203a:   f843 2027     str.w  r2, [r3, r7, lsl #2]
		      203e:   f1b6 3fff     cmp.w  r6, #4294967295  ; 0xffffffff
		      2042:   d006          beq.n  2052 <Heap_Size+0x52>
		      2044:   f506 76e0     add.w  r6, r6, #448 ; 0x1c0
		      2048:   f04f 43a0     mov.w  r3, #1342177280  ; 0x50000000
		--------------------
	(    204e,     2052)	dead
		--------------------
		      2042:   d006          beq.n  2052 <Heap_Size+0x52>
		      2044:   f506 76e0     add.w  r6, r6, #448 ; 0x1c0
		      2048:   f04f 43a0     mov.w  r3, #1342177280  ; 0x50000000
		      204c:   2202          movs   r2, #2
		->    204e:   f843 2026     str.w  r2, [r3, r6, lsl #2]
		      2052:   f1b5 3fff     cmp.w  r5, #4294967295  ; 0xffffffff
		      2056:   d006          beq.n  2066 <Heap_Size+0x66>
		      2058:   f505 75e0     add.w  r5, r5, #448 ; 0x1c0
		      205c:   f04f 43a0     mov.w  r3, #1342177280  ; 0x50000000
		--------------------
	(    2076,     207a)	dead
		--------------------
		      206a:   d006          beq.n  207a <Heap_Size+0x7a>
		      206c:   f501 71e0     add.w  r1, r1, #448 ; 0x1c0
		      2070:   f04f 43a0     mov.w  r3, #1342177280  ; 0x50000000
		      2074:   2202          movs   r2, #2
		->    2076:   f843 2021     str.w  r2, [r3, r1, lsl #2]
		      207a:   6800          ldr    r0, [r0, #0]
		      207c:   f7ff fdcc     bl 1c18 <nrfx_prs_release>
		      2080:   4b04          ldr    r3, [pc, #16]  ; (2094 <Heap_Size+0x94>)
		      2082:   222c          movs   r2, #44   ; 0x2c
		--------------------
	(    207c,     2080)	dead
		--------------------
		      2070:   f04f 43a0     mov.w  r3, #1342177280  ; 0x50000000
		      2074:   2202          movs   r2, #2
		      2076:   f843 2021     str.w  r2, [r3, r1, lsl #2]
		      207a:   6800          ldr    r0, [r0, #0]
		->    207c:   f7ff fdcc     bl 1c18 <nrfx_prs_release>
		      2080:   4b04          ldr    r3, [pc, #16]  ; (2094 <Heap_Size+0x94>)
		      2082:   222c          movs   r2, #44   ; 0x2c
		      2084:   fb02 3304     mla    r3, r2, r4, r3
		      2088:   2200          movs   r2, #0
		--------------------
	(    24c2,     24c4)	dead
		--------------------
		      24b6:   eb04 02c4     add.w  r2, r4, r4, lsl #3
		      24ba:   4b4a          ldr    r3, [pc, #296] ; (25e4 <nrfx_uarte_uninit+0x138>)
		      24bc:   eb03 0382     add.w  r3, r3, r2, lsl #2
		      24c0:   685b          ldr    r3, [r3, #4]
		->    24c2:   b1b3          cbz    r3, 24f2 <nrfx_uarte_uninit+0x46>
		      24c4:   4b48          ldr    r3, [pc, #288] ; (25e8 <nrfx_uarte_uninit+0x13c>)
		      24c6:   f8c0 3308     str.w  r3, [r0, #776]   ; 0x308
		      24ca:   680b          ldr    r3, [r1, #0]
		      24cc:   0b1a          lsrs   r2, r3, #12
		--------------------
	(    24c2,     24f2)	dead
		--------------------
		      24b6:   eb04 02c4     add.w  r2, r4, r4, lsl #3
		      24ba:   4b4a          ldr    r3, [pc, #296] ; (25e4 <nrfx_uarte_uninit+0x138>)
		      24bc:   eb03 0382     add.w  r3, r3, r2, lsl #2
		      24c0:   685b          ldr    r3, [r3, #4]
		->    24c2:   b1b3          cbz    r3, 24f2 <nrfx_uarte_uninit+0x46>
		      24c4:   4b48          ldr    r3, [pc, #288] ; (25e8 <nrfx_uarte_uninit+0x13c>)
		      24c6:   f8c0 3308     str.w  r3, [r0, #776]   ; 0x308
		      24ca:   680b          ldr    r3, [r1, #0]
		      24cc:   0b1a          lsrs   r2, r3, #12
		--------------------

i2s-o2: 20 | 118 | 19 dead
	(     486,      48a)	dead
		--------------------
		       47e:   701a          strb   r2, [r3, #0]
		       480:   b008          add    sp, #32
		       482:   bd10          pop    {r4, pc}
		       484:   300c          adds   r0, #12
		->     486:   f001 fe7b     bl 2180 <nrfx_uart_uninit>
		       48a:   e7e5          b.n    458 <nrf_log_backend_uart_panic_set+0x14>
		       48c:   f000 fd26     bl edc <app_error_handler_bare>
		       490:   4b05          ldr    r3, [pc, #20]  ; (4a8 <nrf_log_backend_uart_panic_set+0x64>)
		       492:   2200          movs   r2, #0
		--------------------
	(     48a,      458)	dead
		--------------------
		       480:   b008          add    sp, #32
		       482:   bd10          pop    {r4, pc}
		       484:   300c          adds   r0, #12
		       486:   f001 fe7b     bl 2180 <nrfx_uart_uninit>
		->     48a:   e7e5          b.n    458 <nrf_log_backend_uart_panic_set+0x14>
		       48c:   f000 fd26     bl edc <app_error_handler_bare>
		       490:   4b05          ldr    r3, [pc, #20]  ; (4a8 <nrf_log_backend_uart_panic_set+0x64>)
		       492:   2200          movs   r2, #0
		       494:   701a          strb   r2, [r3, #0]
		--------------------
	(     48c,      490)	dead
		--------------------
		       482:   bd10          pop    {r4, pc}
		       484:   300c          adds   r0, #12
		       486:   f001 fe7b     bl 2180 <nrfx_uart_uninit>
		       48a:   e7e5          b.n    458 <nrf_log_backend_uart_panic_set+0x14>
		->     48c:   f000 fd26     bl edc <app_error_handler_bare>
		       490:   4b05          ldr    r3, [pc, #20]  ; (4a8 <nrf_log_backend_uart_panic_set+0x64>)
		       492:   2200          movs   r2, #0
		       494:   701a          strb   r2, [r3, #0]
		       496:   b008          add    sp, #32
		--------------------
	(    1e14,     1e16)	
		--------------------
		      1e0c:   d103          bne.n  1e16 <nrfx_prs_release+0xe>
		      1e0e:   4b03          ldr    r3, [pc, #12]  ; (1e1c <nrfx_prs_release+0x14>)
		      1e10:   2200          movs   r2, #0
		      1e12:   601a          str    r2, [r3, #0]
		->    1e14:   711a          strb   r2, [r3, #4]
		      1e16:   4770          bx lr
		      1e18:   40002000  .word   0x40002000
		      1e1c:   20000660  .word   0x20000660
		  
		--------------------
	(    1e34,     1e36)	dead
		--------------------
		      1e2a:   b08a          sub    sp, #40    ; 0x28
		      1e2c:   d567          bpl.n  1efe <nrfx_uart_0_irq_handler+0xde>
		      1e2e:   f8d2 3124     ldr.w  r3, [r2, #292]   ; 0x124
		      1e32:   2b00          cmp    r3, #0
		->    1e34:   d063          beq.n  1efe <nrfx_uart_0_irq_handler+0xde>
		      1e36:   2300          movs   r3, #0
		      1e38:   f8c2 3124     str.w  r3, [r2, #292]   ; 0x124
		      1e3c:   f8d2 3124     ldr.w  r3, [r2, #292]   ; 0x124
		      1e40:   9301          str    r3, [sp, #4]
		--------------------
	(    1e34,     1efe)	dead
		--------------------
		      1e2a:   b08a          sub    sp, #40    ; 0x28
		      1e2c:   d567          bpl.n  1efe <nrfx_uart_0_irq_handler+0xde>
		      1e2e:   f8d2 3124     ldr.w  r3, [r2, #292]   ; 0x124
		      1e32:   2b00          cmp    r3, #0
		->    1e34:   d063          beq.n  1efe <nrfx_uart_0_irq_handler+0xde>
		      1e36:   2300          movs   r3, #0
		      1e38:   f8c2 3124     str.w  r3, [r2, #292]   ; 0x124
		      1e3c:   f8d2 3124     ldr.w  r3, [r2, #292]   ; 0x124
		      1e40:   9301          str    r3, [sp, #4]
		--------------------
	(    1e52,     1e54)	dead
		--------------------
		      1e46:   4b66          ldr    r3, [pc, #408] ; (1fe0 <nrfx_uart_0_irq_handler+0x1c0>)
		      1e48:   9801          ldr    r0, [sp, #4]
		      1e4a:   f8c2 1308     str.w  r1, [r2, #776]   ; 0x308
		      1e4e:   f893 1029     ldrb.w r1, [r3, #41]   ; 0x29
		->    1e52:   b909          cbnz   r1, 1e58 <nrfx_uart_0_irq_handler+0x38>
		      1e54:   2101          movs   r1, #1
		      1e56:   6051          str    r1, [r2, #4]
		      1e58:   4a60          ldr    r2, [pc, #384] ; (1fdc <nrfx_uart_0_irq_handler+0x1bc>)
		      1e5a:   2102          movs   r1, #2
		--------------------
	(    1e90,     1f68)	dead
		--------------------
		      1e88:   4b55          ldr    r3, [pc, #340] ; (1fe0 <nrfx_uart_0_irq_handler+0x1c0>)
		      1e8a:   6958          ldr    r0, [r3, #20]
		      1e8c:   6a19          ldr    r1, [r3, #32]
		      1e8e:   4288          cmp    r0, r1
		->    1e90:   d96a          bls.n  1f68 <nrfx_uart_0_irq_handler+0x148>
		      1e92:   f893 1028     ldrb.w r1, [r3, #40]   ; 0x28
		      1e96:   f001 00ff     and.w  r0, r1, #255 ; 0xff
		      1e9a:   2900          cmp    r1, #0
		      1e9c:   d164          bne.n  1f68 <nrfx_uart_0_irq_handler+0x148>
		--------------------
	(    1ec0,     1ec2)	dead
		--------------------
		      1eb4:   6219          str    r1, [r3, #32]
		      1eb6:   f8c2 051c     str.w  r0, [r2, #1308]  ; 0x51c
		      1eba:   4a48          ldr    r2, [pc, #288] ; (1fdc <nrfx_uart_0_irq_handler+0x1bc>)
		      1ebc:   f8d2 3144     ldr.w  r3, [r2, #324]   ; 0x144
		->    1ec0:   b1db          cbz    r3, 1efa <nrfx_uart_0_irq_handler+0xda>
		      1ec2:   2100          movs   r1, #0
		      1ec4:   4b46          ldr    r3, [pc, #280] ; (1fe0 <nrfx_uart_0_irq_handler+0x1c0>)
		      1ec6:   f8c2 1144     str.w  r1, [r2, #324]   ; 0x144
		      1eca:   f8d2 0144     ldr.w  r0, [r2, #324]   ; 0x144
		--------------------
	(    1ed6,     1ed8)	dead
		--------------------
		      1eca:   f8d2 0144     ldr.w  r0, [r2, #324]   ; 0x144
		      1ece:   f893 1029     ldrb.w r1, [r3, #41]   ; 0x29
		      1ed2:   9000          str    r0, [sp, #0]
		      1ed4:   9800          ldr    r0, [sp, #0]
		->    1ed6:   b109          cbz    r1, 1edc <nrfx_uart_0_irq_handler+0xbc>
		      1ed8:   2101          movs   r1, #1
		      1eda:   6011          str    r1, [r2, #0]
		      1edc:   699a          ldr    r2, [r3, #24]
		      1ede:   b162          cbz    r2, 1efa <nrfx_uart_0_irq_handler+0xda>
		--------------------
	(    21ac,     21ae)	dead
		--------------------
		      21a0:   6803          ldr    r3, [r0, #0]
		      21a2:   f343 3207     sbfx   r2, r3, #12, #8
		      21a6:   2a00          cmp    r2, #0
		      21a8:   ea4f 3113     mov.w  r1, r3, lsr #12
		->    21ac:   db0d          blt.n  21ca <nrfx_uart_uninit+0x4a>
		      21ae:   0952          lsrs   r2, r2, #5
		      21b0:   4d29          ldr    r5, [pc, #164] ; (2258 <nrfx_uart_uninit+0xd8>)
		      21b2:   f001 011f     and.w  r1, r1, #31
		      21b6:   3220          adds   r2, #32
		--------------------
	(    21f2,     21f4)	dead
		--------------------
		      21e6:   6803          ldr    r3, [r0, #0]
		      21e8:   4594          cmp    ip, r2
		      21ea:   f8c3 2508     str.w  r2, [r3, #1288]  ; 0x508
		      21ee:   f8c3 2510     str.w  r2, [r3, #1296]  ; 0x510
		->    21f2:   d006          beq.n  2202 <nrfx_uart_uninit+0x82>
		      21f4:   f50c 7ce0     add.w  ip, ip, #448 ; 0x1c0
		      21f8:   f04f 43a0     mov.w  r3, #1342177280  ; 0x50000000
		      21fc:   2202          movs   r2, #2
		      21fe:   f843 202c     str.w  r2, [r3, ip, lsl #2]
		--------------------
	(    21f2,     2202)	dead
		--------------------
		      21e6:   6803          ldr    r3, [r0, #0]
		      21e8:   4594          cmp    ip, r2
		      21ea:   f8c3 2508     str.w  r2, [r3, #1288]  ; 0x508
		      21ee:   f8c3 2510     str.w  r2, [r3, #1296]  ; 0x510
		->    21f2:   d006          beq.n  2202 <nrfx_uart_uninit+0x82>
		      21f4:   f50c 7ce0     add.w  ip, ip, #448 ; 0x1c0
		      21f8:   f04f 43a0     mov.w  r3, #1342177280  ; 0x50000000
		      21fc:   2202          movs   r2, #2
		      21fe:   f843 202c     str.w  r2, [r3, ip, lsl #2]
		--------------------
	(    223a,     1e08)	dead
		--------------------
		      222e:   f501 71e0     add.w  r1, r1, #448 ; 0x1c0
		      2232:   2202          movs   r2, #2
		      2234:   f843 2021     str.w  r2, [r3, r1, lsl #2]
		      2238:   6800          ldr    r0, [r0, #0]
		->    223a:   f7ff fde5     bl 1e08 <nrfx_prs_release>
		      223e:   232c          movs   r3, #44   ; 0x2c
		      2240:   fb03 4406     mla    r4, r3, r6, r4
		      2244:   2300          movs   r3, #0
		      2246:   f884 302a     strb.w r3, [r4, #42]   ; 0x2a
		--------------------
	(    2686,     2688)	dead
		--------------------
		      267e:   685b          ldr    r3, [r3, #4]
		      2680:   6800          ldr    r0, [r0, #0]
		      2682:   b082          sub    sp, #8
		      2684:   00ee          lsls   r6, r5, #3
		->    2686:   b1c3          cbz    r3, 26ba <nrfx_uarte_uninit+0x4e>
		      2688:   4b46          ldr    r3, [pc, #280] ; (27a4 <nrfx_uarte_uninit+0x138>)
		      268a:   f8c0 3308     str.w  r3, [r0, #776]   ; 0x308
		      268e:   680b          ldr    r3, [r1, #0]
		      2690:   f343 3207     sbfx   r2, r3, #12, #8
		--------------------
	(    26e0,     26e2)	dead
		--------------------
		      26d6:   f8d0 3144     ldr.w  r3, [r0, #324]   ; 0x144
		      26da:   9300          str    r3, [sp, #0]
		      26dc:   9b00          ldr    r3, [sp, #0]
		      26de:   2301          movs   r3, #1
		->    26e0:   6043          str    r3, [r0, #4]
		      26e2:   2300          movs   r3, #0
		      26e4:   f8c0 3158     str.w  r3, [r0, #344]   ; 0x158
		      26e8:   f8d0 3158     ldr.w  r3, [r0, #344]   ; 0x158
		      26ec:   9301          str    r3, [sp, #4]
		--------------------
	(    2704,     270e)	dead
		--------------------
		      26fa:   699a          ldr    r2, [r3, #24]
		      26fc:   f8d0 3158     ldr.w  r3, [r0, #344]   ; 0x158
		      2700:   2b00          cmp    r3, #0
		      2702:   d0fb          beq.n  26fc <nrfx_uarte_uninit+0x90>
		->    2704:   b11a          cbz    r2, 270e <nrfx_uarte_uninit+0xa2>
		      2706:   f8d0 3144     ldr.w  r3, [r0, #324]   ; 0x144
		      270a:   2b00          cmp    r3, #0
		      270c:   d0f6          beq.n  26fc <nrfx_uarte_uninit+0x90>
		      270e:   2300          movs   r3, #0
		--------------------
	(    274a,     274e)	dead
		--------------------
		      273e:   d006          beq.n  274e <nrfx_uarte_uninit+0xe2>
		      2740:   f508 78e0     add.w  r8, r8, #448 ; 0x1c0
		      2744:   f04f 43a0     mov.w  r3, #1342177280  ; 0x50000000
		      2748:   2202          movs   r2, #2
		->    274a:   f843 2028     str.w  r2, [r3, r8, lsl #2]
		      274e:   f1be 3fff     cmp.w  lr, #4294967295  ; 0xffffffff
		      2752:   d006          beq.n  2762 <nrfx_uarte_uninit+0xf6>
		      2754:   f50e 7ee0     add.w  lr, lr, #448 ; 0x1c0
		      2758:   f04f 43a0     mov.w  r3, #1342177280  ; 0x50000000
		--------------------
	(    2788,     1e08)	dead
		--------------------
		      277a:   f507 77e0     add.w  r7, r7, #448 ; 0x1c0
		      277e:   f04f 43a0     mov.w  r3, #1342177280  ; 0x50000000
		      2782:   2202          movs   r2, #2
		      2784:   f843 2027     str.w  r2, [r3, r7, lsl #2]
		->    2788:   f7ff fb3e     bl 1e08 <nrfx_prs_release>
		      278c:   442e          add    r6, r5
		      278e:   eb04 0486     add.w  r4, r4, r6, lsl #2
		      2792:   2300          movs   r3, #0
		      2794:   f884 3020     strb.w r3, [r4, #32]
		--------------------
	(    2788,     278c)	dead
		--------------------
		      277a:   f507 77e0     add.w  r7, r7, #448 ; 0x1c0
		      277e:   f04f 43a0     mov.w  r3, #1342177280  ; 0x50000000
		      2782:   2202          movs   r2, #2
		      2784:   f843 2027     str.w  r2, [r3, r7, lsl #2]
		->    2788:   f7ff fb3e     bl 1e08 <nrfx_prs_release>
		      278c:   442e          add    r6, r5
		      278e:   eb04 0486     add.w  r4, r4, r6, lsl #2
		      2792:   2300          movs   r3, #0
		      2794:   f884 3020     strb.w r3, [r4, #32]
		--------------------

i2s-o3: 20 | 118 | 18 dead
	(     202,      204)	
		--------------------
		      ...
		  
		  00000200 <__do_global_dtors_aux>:
		       200:   b510          push   {r4, lr}
		->     202:   4c05          ldr    r4, [pc, #20]  ; (218 <__do_global_dtors_aux+0x18>)
		       204:   7823          ldrb   r3, [r4, #0]
		       206:   b933          cbnz   r3, 216 <__do_global_dtors_aux+0x16>
		       208:   4b04          ldr    r3, [pc, #16]  ; (21c <__do_global_dtors_aux+0x1c>)
		       20a:   b113          cbz    r3, 212 <__do_global_dtors_aux+0x12>
		--------------------
	(     450,      452)	dead
		--------------------
		       448:   4a15          ldr    r2, [pc, #84]  ; (4a0 <nrf_log_backend_uart_panic_set+0x5c>)
		       44a:   7803          ldrb   r3, [r0, #0]
		       44c:   5cd3          ldrb   r3, [r2, r3]
		       44e:   b088          sub    sp, #32
		->     450:   b1c3          cbz    r3, 484 <nrf_log_backend_uart_panic_set+0x40>
		       452:   3004          adds   r0, #4
		       454:   f002 f988     bl 2768 <nrfx_uarte_uninit>
		       458:   4c12          ldr    r4, [pc, #72]  ; (4a4 <nrf_log_backend_uart_panic_set+0x60>)
		       45a:   cc0f          ldmia  r4!, {r0, r1, r2, r3}
		--------------------
	(    1e2a,     1e2c)	
		--------------------
		      1e22:   d003          beq.n  1e2c <I2S_IRQHandler+0xac>
		      1e24:   07d8          lsls   r0, r3, #31
		      1e26:   d415          bmi.n  1e54 <I2S_IRQHandler+0xd4>
		      1e28:   0719          lsls   r1, r3, #28
		->    1e2a:   d513          bpl.n  1e54 <I2S_IRQHandler+0xd4>
		      1e2c:   7962          ldrb   r2, [r4, #5]
		      1e2e:   f022 020c     bic.w  r2, r2, #12
		      1e32:   f012 0620     ands.w r6, r2, #32
		      1e36:   4613          mov    r3, r2
		--------------------
	(    1f32,     1f38)	dead
		--------------------
		      1f26:   4b69          ldr    r3, [pc, #420] ; (20cc <Heap_Size+0xcc>)
		      1f28:   9801          ldr    r0, [sp, #4]
		      1f2a:   f8c2 1308     str.w  r1, [r2, #776]   ; 0x308
		      1f2e:   f893 1029     ldrb.w r1, [r3, #41]   ; 0x29
		->    1f32:   b909          cbnz   r1, 1f38 <nrfx_uart_0_irq_handler+0x38>
		      1f34:   2101          movs   r1, #1
		      1f36:   6051          str    r1, [r2, #4]
		      1f38:   4963          ldr    r1, [pc, #396] ; (20c8 <Heap_Size+0xc8>)
		      1f3a:   2202          movs   r2, #2
		--------------------
	(    1f7e,     1f80)	dead
		--------------------
		      1f72:   d96a          bls.n  204a <Heap_Size+0x4a>
		      1f74:   f893 1028     ldrb.w r1, [r3, #40]   ; 0x28
		      1f78:   f001 00ff     and.w  r0, r1, #255 ; 0xff
		      1f7c:   2900          cmp    r1, #0
		->    1f7e:   d164          bne.n  204a <Heap_Size+0x4a>
		      1f80:   f8c2 011c     str.w  r0, [r2, #284]   ; 0x11c
		      1f84:   f8d2 111c     ldr.w  r1, [r2, #284]   ; 0x11c
		      1f88:   9103          str    r1, [sp, #12]
		      1f8a:   9903          ldr    r1, [sp, #12]
		--------------------
	(    1fb8,     1fbe)	dead
		--------------------
		      1fac:   f8d2 0144     ldr.w  r0, [r2, #324]   ; 0x144
		      1fb0:   f893 1029     ldrb.w r1, [r3, #41]   ; 0x29
		      1fb4:   9000          str    r0, [sp, #0]
		      1fb6:   9800          ldr    r0, [sp, #0]
		->    1fb8:   b109          cbz    r1, 1fbe <nrfx_uart_0_irq_handler+0xbe>
		      1fba:   2101          movs   r1, #1
		      1fbc:   6011          str    r1, [r2, #0]
		      1fbe:   699a          ldr    r2, [r3, #24]
		      1fc0:   b162          cbz    r2, 1fdc <nrfx_uart_0_irq_handler+0xdc>
		--------------------
	(    2018,     201a)	dead
		--------------------
		      2010:   5442          strb   r2, [r0, r1]
		      2012:   6a5a          ldr    r2, [r3, #36]  ; 0x24
		      2014:   6999          ldr    r1, [r3, #24]
		      2016:   3201          adds   r2, #1
		->    2018:   625a          str    r2, [r3, #36]  ; 0x24
		      201a:   6a5a          ldr    r2, [r3, #36]  ; 0x24
		      201c:   428a          cmp    r2, r1
		      201e:   d1a0          bne.n  1f62 <nrfx_uart_0_irq_handler+0x62>
		      2020:   69da          ldr    r2, [r3, #28]
		--------------------
	(    201e,     1f62)	dead
		--------------------
		      2016:   3201          adds   r2, #1
		      2018:   625a          str    r2, [r3, #36]  ; 0x24
		      201a:   6a5a          ldr    r2, [r3, #36]  ; 0x24
		      201c:   428a          cmp    r2, r1
		->    201e:   d1a0          bne.n  1f62 <nrfx_uart_0_irq_handler+0x62>
		      2020:   69da          ldr    r2, [r3, #28]
		      2022:   2a00          cmp    r2, #0
		      2024:   d031          beq.n  208a <Heap_Size+0x8a>
		      2026:   619a          str    r2, [r3, #24]
		--------------------
	(    20b8,     20ba)	dead
		--------------------
		      20aa:   f88d 2018     strb.w r2, [sp, #24]
		      20ae:   e9d3 1200     ldrd   r1, r2, [r3]
		      20b2:   e9cd 0407     strd   r0, r4, [sp, #28]
		      20b6:   a806          add    r0, sp, #24
		->    20b8:   4790          blx    r2
		      20ba:   e752          b.n    1f62 <nrfx_uart_0_irq_handler+0x62>
		      20bc:   f3af 8000     nop.w
		      ...
		      20c8:   40002000  .word   0x40002000
		--------------------
	(    20ba,     1f62)	dead
		--------------------
		      20ae:   e9d3 1200     ldrd   r1, r2, [r3]
		      20b2:   e9cd 0407     strd   r0, r4, [sp, #28]
		      20b6:   a806          add    r0, sp, #24
		      20b8:   4790          blx    r2
		->    20ba:   e752          b.n    1f62 <nrfx_uart_0_irq_handler+0x62>
		      20bc:   f3af 8000     nop.w
		      ...
		      20c8:   40002000  .word   0x40002000
		      20cc:   20000670  .word   0x20000670
		--------------------
	(    22de,     22e0)	dead
		--------------------
		      22d2:   6803          ldr    r3, [r0, #0]
		      22d4:   4594          cmp    ip, r2
		      22d6:   f8c3 2508     str.w  r2, [r3, #1288]  ; 0x508
		      22da:   f8c3 2510     str.w  r2, [r3, #1296]  ; 0x510
		->    22de:   d006          beq.n  22ee <nrfx_uart_uninit+0x82>
		      22e0:   f50c 7ce0     add.w  ip, ip, #448 ; 0x1c0
		      22e4:   f04f 43a0     mov.w  r3, #1342177280  ; 0x50000000
		      22e8:   2202          movs   r2, #2
		      22ea:   f843 202c     str.w  r2, [r3, ip, lsl #2]
		--------------------
	(    2302,     2312)	dead
		--------------------
		      22f6:   f04f 43a0     mov.w  r3, #1342177280  ; 0x50000000
		      22fa:   2202          movs   r2, #2
		      22fc:   f843 2027     str.w  r2, [r3, r7, lsl #2]
		      2300:   1c6a          adds   r2, r5, #1
		->    2302:   d006          beq.n  2312 <nrfx_uart_uninit+0xa6>
		      2304:   f505 75e0     add.w  r5, r5, #448 ; 0x1c0
		      2308:   f04f 43a0     mov.w  r3, #1342177280  ; 0x50000000
		      230c:   2202          movs   r2, #2
		      230e:   f843 2025     str.w  r2, [r3, r5, lsl #2]
		--------------------
	(    2314,     2324)	dead
		--------------------
		      2308:   f04f 43a0     mov.w  r3, #1342177280  ; 0x50000000
		      230c:   2202          movs   r2, #2
		      230e:   f843 2025     str.w  r2, [r3, r5, lsl #2]
		      2312:   1c4b          adds   r3, r1, #1
		->    2314:   d006          beq.n  2324 <nrfx_uart_uninit+0xb8>
		      2316:   f04f 43a0     mov.w  r3, #1342177280  ; 0x50000000
		      231a:   f501 71e0     add.w  r1, r1, #448 ; 0x1c0
		      231e:   2202          movs   r2, #2
		      2320:   f843 2021     str.w  r2, [r3, r1, lsl #2]
		--------------------
	(    2796,     2798)	dead
		--------------------
		      278a:   680b          ldr    r3, [r1, #0]
		      278c:   f343 3207     sbfx   r2, r3, #12, #8
		      2790:   2a00          cmp    r2, #0
		      2792:   ea4f 3313     mov.w  r3, r3, lsr #12
		->    2796:   db0e          blt.n  27b6 <nrfx_uarte_uninit+0x4e>
		      2798:   0952          lsrs   r2, r2, #5
		      279a:   f8df c108     ldr.w  ip, [pc, #264]   ; 28a4 <nrfx_uarte_uninit+0x13c>
		      279e:   3220          adds   r2, #32
		      27a0:   2701          movs   r7, #1
		--------------------
	(    2796,     27b6)	dead
		--------------------
		      278a:   680b          ldr    r3, [r1, #0]
		      278c:   f343 3207     sbfx   r2, r3, #12, #8
		      2790:   2a00          cmp    r2, #0
		      2792:   ea4f 3313     mov.w  r3, r3, lsr #12
		->    2796:   db0e          blt.n  27b6 <nrfx_uarte_uninit+0x4e>
		      2798:   0952          lsrs   r2, r2, #5
		      279a:   f8df c108     ldr.w  ip, [pc, #264]   ; 28a4 <nrfx_uarte_uninit+0x13c>
		      279e:   3220          adds   r2, #32
		      27a0:   2701          movs   r7, #1
		--------------------
	(    283a,     283c)	dead
		--------------------
		      282e:   680b          ldr    r3, [r1, #0]
		      2830:   4590          cmp    r8, r2
		      2832:   f8c3 2508     str.w  r2, [r3, #1288]  ; 0x508
		      2836:   f8c3 2510     str.w  r2, [r3, #1296]  ; 0x510
		->    283a:   d006          beq.n  284a <nrfx_uarte_uninit+0xe2>
		      283c:   f508 78e0     add.w  r8, r8, #448 ; 0x1c0
		      2840:   f04f 43a0     mov.w  r3, #1342177280  ; 0x50000000
		      2844:   2202          movs   r2, #2
		      2846:   f843 2028     str.w  r2, [r3, r8, lsl #2]
		--------------------
	(    283a,     284a)	dead
		--------------------
		      282e:   680b          ldr    r3, [r1, #0]
		      2830:   4590          cmp    r8, r2
		      2832:   f8c3 2508     str.w  r2, [r3, #1288]  ; 0x508
		      2836:   f8c3 2510     str.w  r2, [r3, #1296]  ; 0x510
		->    283a:   d006          beq.n  284a <nrfx_uarte_uninit+0xe2>
		      283c:   f508 78e0     add.w  r8, r8, #448 ; 0x1c0
		      2840:   f04f 43a0     mov.w  r3, #1342177280  ; 0x50000000
		      2844:   2202          movs   r2, #2
		      2846:   f843 2028     str.w  r2, [r3, r8, lsl #2]
		--------------------
	(    2846,     284a)	dead
		--------------------
		      283a:   d006          beq.n  284a <nrfx_uarte_uninit+0xe2>
		      283c:   f508 78e0     add.w  r8, r8, #448 ; 0x1c0
		      2840:   f04f 43a0     mov.w  r3, #1342177280  ; 0x50000000
		      2844:   2202          movs   r2, #2
		->    2846:   f843 2028     str.w  r2, [r3, r8, lsl #2]
		      284a:   f1be 3fff     cmp.w  lr, #4294967295  ; 0xffffffff
		      284e:   d006          beq.n  285e <nrfx_uarte_uninit+0xf6>
		      2850:   f50e 7ee0     add.w  lr, lr, #448 ; 0x1c0
		      2854:   f04f 43a0     mov.w  r3, #1342177280  ; 0x50000000
		--------------------
	(    284e,     2850)	dead
		--------------------
		      2840:   f04f 43a0     mov.w  r3, #1342177280  ; 0x50000000
		      2844:   2202          movs   r2, #2
		      2846:   f843 2028     str.w  r2, [r3, r8, lsl #2]
		      284a:   f1be 3fff     cmp.w  lr, #4294967295  ; 0xffffffff
		->    284e:   d006          beq.n  285e <nrfx_uarte_uninit+0xf6>
		      2850:   f50e 7ee0     add.w  lr, lr, #448 ; 0x1c0
		      2854:   f04f 43a0     mov.w  r3, #1342177280  ; 0x50000000
		      2858:   2202          movs   r2, #2
		      285a:   f843 202e     str.w  r2, [r3, lr, lsl #2]
		--------------------
	(    2880,     2884)	dead
		--------------------
		      2874:   d006          beq.n  2884 <nrfx_uarte_uninit+0x11c>
		      2876:   f507 77e0     add.w  r7, r7, #448 ; 0x1c0
		      287a:   f04f 43a0     mov.w  r3, #1342177280  ; 0x50000000
		      287e:   2202          movs   r2, #2
		->    2880:   f843 2027     str.w  r2, [r3, r7, lsl #2]
		      2884:   f7ff fb2e     bl 1ee4 <nrfx_prs_release>
		      2888:   442e          add    r6, r5
		      288a:   eb04 0486     add.w  r4, r4, r6, lsl #2
		      288e:   2300          movs   r3, #0
		--------------------

saadc-o0: 32 | 323 | 31 jt
	(    122c,     1230)	jt
		--------------------
		      1220:   0000129d  .word   0x0000129d
		      1224:   000012cd  .word   0x000012cd
		      1228:   68f9          ldr    r1, [r7, #12]
		      122a:   6ab8          ldr    r0, [r7, #40]  ; 0x28
		->    122c:   f000 fae1     bl 17f2 <nrf_fprintf>
		      1230:   e069          b.n    1306 <nrf_log_std_entry_process+0x12a>
		      1232:   68bb          ldr    r3, [r7, #8]
		      1234:   681b          ldr    r3, [r3, #0]
		      1236:   461a          mov    r2, r3
		--------------------
	(    123c,     1240)	jt
		--------------------
		      1234:   681b          ldr    r3, [r3, #0]
		      1236:   461a          mov    r2, r3
		      1238:   68f9          ldr    r1, [r7, #12]
		      123a:   6ab8          ldr    r0, [r7, #40]  ; 0x28
		->    123c:   f000 fad9     bl 17f2 <nrf_fprintf>
		      1240:   e061          b.n    1306 <nrf_log_std_entry_process+0x12a>
		      1242:   68bb          ldr    r3, [r7, #8]
		      1244:   681a          ldr    r2, [r3, #0]
		      1246:   68bb          ldr    r3, [r7, #8]
		--------------------
	(    123c,     17f2)	jt
		--------------------
		      1234:   681b          ldr    r3, [r3, #0]
		      1236:   461a          mov    r2, r3
		      1238:   68f9          ldr    r1, [r7, #12]
		      123a:   6ab8          ldr    r0, [r7, #40]  ; 0x28
		->    123c:   f000 fad9     bl 17f2 <nrf_fprintf>
		      1240:   e061          b.n    1306 <nrf_log_std_entry_process+0x12a>
		      1242:   68bb          ldr    r3, [r7, #8]
		      1244:   681a          ldr    r2, [r3, #0]
		      1246:   68bb          ldr    r3, [r7, #8]
		--------------------
	(    14a8,     14aa)	jt
		--------------------
		      149e:   681b          ldr    r3, [r3, #0]
		      14a0:   f003 0301     and.w  r3, r3, #1
		      14a4:   2b00          cmp    r3, #0
		      14a6:   d000          beq.n  14aa <app_error_fault_handler+0x42>
		->    14a8:   be00          bkpt   0x0000
		      14aa:   4a06          ldr    r2, [pc, #24]  ; (14c4 <app_error_fault_handler+0x5c>)
		      14ac:   4b06          ldr    r3, [pc, #24]  ; (14c8 <app_error_fault_handler+0x60>)
		      14ae:   1ad3          subs   r3, r2, r3
		      14b0:   08db          lsrs   r3, r3, #3
		--------------------
	(    18c8,     1922)	jti
		--------------------
		      18be:   f7ff ffb4     bl 182a <buffer_add>
		      18c2:   687a          ldr    r2, [r7, #4]
		      18c4:   697b          ldr    r3, [r7, #20]
		      18c6:   429a          cmp    r2, r3
		->    18c8:   d92b          bls.n  1922 <string_print+0xb0>
		      18ca:   687b          ldr    r3, [r7, #4]
		      18cc:   2b00          cmp    r3, #0
		      18ce:   d1f1          bne.n  18b4 <string_print+0x42>
		      18d0:   e027          b.n    1922 <string_print+0xb0>
		--------------------
	(    18d0,     1922)	jti
		--------------------
		      18c8:   d92b          bls.n  1922 <string_print+0xb0>
		      18ca:   687b          ldr    r3, [r7, #4]
		      18cc:   2b00          cmp    r3, #0
		      18ce:   d1f1          bne.n  18b4 <string_print+0x42>
		->    18d0:   e027          b.n    1922 <string_print+0xb0>
		      18d2:   68bb          ldr    r3, [r7, #8]
		      18d4:   2b00          cmp    r3, #0
		      18d6:   d00b          beq.n  18f0 <string_print+0x7e>
		      18d8:   68b8          ldr    r0, [r7, #8]
		--------------------
	(    18ec,     182a)	jti
		--------------------
		      18e4:   3b01          subs   r3, #1
		      18e6:   607b          str    r3, [r7, #4]
		      18e8:   2120          movs   r1, #32
		      18ea:   68f8          ldr    r0, [r7, #12]
		->    18ec:   f7ff ff9d     bl 182a <buffer_add>
		      18f0:   687a          ldr    r2, [r7, #4]
		      18f2:   697b          ldr    r3, [r7, #20]
		      18f4:   429a          cmp    r2, r3
		      18f6:   d90e          bls.n  1916 <string_print+0xa4>
		--------------------
	(    1962,     1964)	jti
		--------------------
		      195a:   d2f3          bcs.n  1944 <unsigned_print+0x18>
		      195c:   683a          ldr    r2, [r7, #0]
		      195e:   69bb          ldr    r3, [r7, #24]
		      1960:   429a          cmp    r2, r3
		->    1962:   d901          bls.n  1968 <unsigned_print+0x3c>
		      1964:   683b          ldr    r3, [r7, #0]
		      1966:   61bb          str    r3, [r7, #24]
		      1968:   6afb          ldr    r3, [r7, #44]  ; 0x2c
		      196a:   f003 0301     and.w  r3, r3, #1
		--------------------
	(    1970,     19b2)	jti
		--------------------
		      1966:   61bb          str    r3, [r7, #24]
		      1968:   6afb          ldr    r3, [r7, #44]  ; 0x2c
		      196a:   f003 0301     and.w  r3, r3, #1
		      196e:   2b00          cmp    r3, #0
		->    1970:   d11f          bne.n  19b2 <unsigned_print+0x86>
		      1972:   6abb          ldr    r3, [r7, #40]  ; 0x28
		      1974:   2b00          cmp    r3, #0
		      1976:   d01c          beq.n  19b2 <unsigned_print+0x86>
		      1978:   6afb          ldr    r3, [r7, #44]  ; 0x2c
		--------------------
	(    19a0,     182a)	jti
		--------------------
		      1998:   62bb          str    r3, [r7, #40]  ; 0x28
		      199a:   7dfb          ldrb   r3, [r7, #23]
		      199c:   4619          mov    r1, r3
		      199e:   68f8          ldr    r0, [r7, #12]
		->    19a0:   f7ff ff43     bl 182a <buffer_add>
		      19a4:   6abb          ldr    r3, [r7, #40]  ; 0x28
		      19a6:   2b00          cmp    r3, #0
		      19a8:   d003          beq.n  19b2 <unsigned_print+0x86>
		      19aa:   69ba          ldr    r2, [r7, #24]
		--------------------
	(    1a48,     1a2e)	jti
		--------------------
		      1a40:   d003          beq.n  1a4a <unsigned_print+0x11e>
		      1a42:   69ba          ldr    r2, [r7, #24]
		      1a44:   6abb          ldr    r3, [r7, #40]  ; 0x28
		      1a46:   429a          cmp    r2, r3
		->    1a48:   d3f1          bcc.n  1a2e <unsigned_print+0x102>
		      1a4a:   bf00          nop
		      1a4c:   3720          adds   r7, #32
		      1a4e:   46bd          mov    sp, r7
		      1a50:   bd80          pop    {r7, pc}
		--------------------
	(    1a48,     1a4a)	jti
		--------------------
		      1a40:   d003          beq.n  1a4a <unsigned_print+0x11e>
		      1a42:   69ba          ldr    r2, [r7, #24]
		      1a44:   6abb          ldr    r3, [r7, #40]  ; 0x28
		      1a46:   429a          cmp    r2, r3
		->    1a48:   d3f1          bcc.n  1a2e <unsigned_print+0x102>
		      1a4a:   bf00          nop
		      1a4c:   3720          adds   r7, #32
		      1a4e:   46bd          mov    sp, r7
		      1a50:   bd80          pop    {r7, pc}
		--------------------
	(    1abe,     1ac6)	jti
		--------------------
		      1ab4:   623b          str    r3, [r7, #32]
		      1ab6:   6a7b          ldr    r3, [r7, #36]  ; 0x24
		      1ab8:   f003 0302     and.w  r3, r3, #2
		      1abc:   2b00          cmp    r3, #0
		->    1abe:   d002          beq.n  1ac6 <int_print+0x6e>
		      1ac0:   683b          ldr    r3, [r7, #0]
		      1ac2:   2b00          cmp    r3, #0
		      1ac4:   d016          beq.n  1af4 <int_print+0x9c>
		      1ac6:   6a7b          ldr    r3, [r7, #36]  ; 0x24
		--------------------
	(    1b24,     1b5a)	jti
		--------------------
		      1b18:   f7ff fe87     bl 182a <buffer_add>
		      1b1c:   6a7b          ldr    r3, [r7, #36]  ; 0x24
		      1b1e:   f003 0302     and.w  r3, r3, #2
		      1b22:   2b00          cmp    r3, #0
		->    1b24:   d019          beq.n  1b5a <int_print+0x102>
		      1b26:   6a7b          ldr    r3, [r7, #36]  ; 0x24
		      1b28:   f003 0301     and.w  r3, r3, #1
		      1b2c:   2b00          cmp    r3, #0
		      1b2e:   d114          bne.n  1b5a <int_print+0x102>
		--------------------
	(    1b6a,     1b6e)	jti
		--------------------
		      1b62:   9300          str    r3, [sp, #0]
		      1b64:   683b          ldr    r3, [r7, #0]
		      1b66:   687a          ldr    r2, [r7, #4]
		      1b68:   68f8          ldr    r0, [r7, #12]
		->    1b6a:   f7ff fedf     bl 192c <unsigned_print>
		      1b6e:   bf00          nop
		      1b70:   3718          adds   r7, #24
		      1b72:   46bd          mov    sp, r7
		      1b74:   bd80          pop    {r7, pc}
		--------------------
	(    1d08,     1e74)	jt
		--------------------
		      1cfe:   3b58          subs   r3, #88   ; 0x58
		      1d00:   2b20          cmp    r3, #32
		      1d02:   f200 80b7     bhi.w  1e74 <nrf_fprintf_fmt+0x2fc>
		      1d06:   a201          add    r2, pc, #4 ; (adr r2, 1d0c <nrf_fprintf_fmt+0x194>)
		->    1d08:   f852 f023     ldr.w  pc, [r2, r3, lsl #2]
		      1d0c:   00001df7  .word   0x00001df7
		      1d10:   00001e75  .word   0x00001e75
		      1d14:   00001e75  .word   0x00001e75
		      1d18:   00001e75  .word   0x00001e75
		--------------------
	(    1e30,     1872)	jti
		--------------------
		      1e28:   6a3b          ldr    r3, [r7, #32]
		      1e2a:   69fa          ldr    r2, [r7, #28]
		      1e2c:   69b9          ldr    r1, [r7, #24]
		      1e2e:   68f8          ldr    r0, [r7, #12]
		->    1e30:   f7ff fd1f     bl 1872 <string_print>
		      1e34:   e01f          b.n    1e76 <nrf_fprintf_fmt+0x2fe>
		      1e36:   687b          ldr    r3, [r7, #4]
		      1e38:   681b          ldr    r3, [r3, #0]
		      1e3a:   1d19          adds   r1, r3, #4
		--------------------
	(    1e64,     192c)	jti
		--------------------
		      1e5c:   9300          str    r3, [sp, #0]
		      1e5e:   2308          movs   r3, #8
		      1e60:   2210          movs   r2, #16
		      1e62:   68f8          ldr    r0, [r7, #12]
		->    1e64:   f7ff fd62     bl 192c <unsigned_print>
		      1e68:   e005          b.n    1e76 <nrf_fprintf_fmt+0x2fe>
		      1e6a:   2125          movs   r1, #37   ; 0x25
		      1e6c:   68f8          ldr    r0, [r7, #12]
		      1e6e:   f7ff fcdc     bl 182a <buffer_add>
		--------------------
	(    3afa,     3b0a)	jt
		--------------------
		      3af0:   00003b01  .word   0x00003b01
		      3af4:   2301          movs   r3, #1
		      3af6:   e008          b.n    3b0a <nrf52_errata_12+0x6e>
		      3af8:   2301          movs   r3, #1
		->    3afa:   e006          b.n    3b0a <nrf52_errata_12+0x6e>
		      3afc:   2301          movs   r3, #1
		      3afe:   e004          b.n    3b0a <nrf52_errata_12+0x6e>
		      3b00:   2301          movs   r3, #1
		      3b02:   e002          b.n    3b0a <nrf52_errata_12+0x6e>
		--------------------
	(    3afe,     3b0a)	jt
		--------------------
		      3af6:   e008          b.n    3b0a <nrf52_errata_12+0x6e>
		      3af8:   2301          movs   r3, #1
		      3afa:   e006          b.n    3b0a <nrf52_errata_12+0x6e>
		      3afc:   2301          movs   r3, #1
		->    3afe:   e004          b.n    3b0a <nrf52_errata_12+0x6e>
		      3b00:   2301          movs   r3, #1
		      3b02:   e002          b.n    3b0a <nrf52_errata_12+0x6e>
		      3b04:   2301          movs   r3, #1
		      3b06:   e000          b.n    3b0a <nrf52_errata_12+0x6e>
		--------------------
	(    3bd6,     3bf0)	jt
		--------------------
		      3bce:   3b03          subs   r3, #3
		      3bd0:   2b03          cmp    r3, #3
		      3bd2:   d813          bhi.n  3bfc <nrf52_errata_31+0x68>
		      3bd4:   a201          add    r2, pc, #4 ; (adr r2, 3bdc <nrf52_errata_31+0x48>)
		->    3bd6:   f852 f023     ldr.w  pc, [r2, r3, lsl #2]
		      3bda:   bf00          nop
		      3bdc:   00003bed  .word   0x00003bed
		      3be0:   00003bf1  .word   0x00003bf1
		      3be4:   00003bf5  .word   0x00003bf5
		--------------------
	(    3bfa,     3c02)	jt
		--------------------
		      3bf2:   e006          b.n    3c02 <nrf52_errata_31+0x6e>
		      3bf4:   2301          movs   r3, #1
		      3bf6:   e004          b.n    3c02 <nrf52_errata_31+0x6e>
		      3bf8:   2301          movs   r3, #1
		->    3bfa:   e002          b.n    3c02 <nrf52_errata_31+0x6e>
		      3bfc:   2301          movs   r3, #1
		      3bfe:   e000          b.n    3c02 <nrf52_errata_31+0x6e>
		      3c00:   2300          movs   r3, #0
		      3c02:   4618          mov    r0, r3
		--------------------
	(    3c66,     3c76)	jt
		--------------------
		      3c5c:   00003c6d  .word   0x00003c6d
		      3c60:   2301          movs   r3, #1
		      3c62:   e008          b.n    3c76 <nrf52_errata_32+0x56>
		      3c64:   2300          movs   r3, #0
		->    3c66:   e006          b.n    3c76 <nrf52_errata_32+0x56>
		      3c68:   2300          movs   r3, #0
		      3c6a:   e004          b.n    3c76 <nrf52_errata_32+0x56>
		      3c6c:   2300          movs   r3, #0
		      3c6e:   e002          b.n    3c76 <nrf52_errata_32+0x56>
		--------------------
	(    3cce,     3ce4)	jt
		--------------------
		      3cc6:   3b03          subs   r3, #3
		      3cc8:   2b03          cmp    r3, #3
		      3cca:   d813          bhi.n  3cf4 <nrf52_errata_36+0x68>
		      3ccc:   a201          add    r2, pc, #4 ; (adr r2, 3cd4 <nrf52_errata_36+0x48>)
		->    3cce:   f852 f023     ldr.w  pc, [r2, r3, lsl #2]
		      3cd2:   bf00          nop
		      3cd4:   00003ce5  .word   0x00003ce5
		      3cd8:   00003ce9  .word   0x00003ce9
		      3cdc:   00003ced  .word   0x00003ced
		--------------------
	(    3d40,     3d42)	
		--------------------
		      3d38:   683b          ldr    r3, [r7, #0]
		      3d3a:   3b03          subs   r3, #3
		      3d3c:   2b03          cmp    r3, #3
		      3d3e:   d813          bhi.n  3d68 <nrf52_errata_37+0x50>
		->    3d40:   a201          add    r2, pc, #4 ; (adr r2, 3d48 <nrf52_errata_37+0x30>)
		      3d42:   f852 f023     ldr.w  pc, [r2, r3, lsl #2]
		      3d46:   bf00          nop
		      3d48:   00003d59  .word   0x00003d59
		      3d4c:   00003d5d  .word   0x00003d5d
		--------------------
	(    3dae,     3dc4)	jt
		--------------------
		      3da6:   3b03          subs   r3, #3
		      3da8:   2b03          cmp    r3, #3
		      3daa:   d813          bhi.n  3dd4 <nrf52_errata_57+0x50>
		      3dac:   a201          add    r2, pc, #4 ; (adr r2, 3db4 <nrf52_errata_57+0x30>)
		->    3dae:   f852 f023     ldr.w  pc, [r2, r3, lsl #2]
		      3db2:   bf00          nop
		      3db4:   00003dc5  .word   0x00003dc5
		      3db8:   00003dc9  .word   0x00003dc9
		      3dbc:   00003dcd  .word   0x00003dcd
		--------------------
	(    3dae,     3dd4)	jt
		--------------------
		      3da6:   3b03          subs   r3, #3
		      3da8:   2b03          cmp    r3, #3
		      3daa:   d813          bhi.n  3dd4 <nrf52_errata_57+0x50>
		      3dac:   a201          add    r2, pc, #4 ; (adr r2, 3db4 <nrf52_errata_57+0x30>)
		->    3dae:   f852 f023     ldr.w  pc, [r2, r3, lsl #2]
		      3db2:   bf00          nop
		      3db4:   00003dc5  .word   0x00003dc5
		      3db8:   00003dc9  .word   0x00003dc9
		      3dbc:   00003dcd  .word   0x00003dcd
		--------------------
	(    3e4e,     3e5e)	jt
		--------------------
		      3e44:   00003e55  .word   0x00003e55
		      3e48:   2300          movs   r3, #0
		      3e4a:   e008          b.n    3e5e <nrf52_errata_66+0x6e>
		      3e4c:   2300          movs   r3, #0
		->    3e4e:   e006          b.n    3e5e <nrf52_errata_66+0x6e>
		      3e50:   2301          movs   r3, #1
		      3e52:   e004          b.n    3e5e <nrf52_errata_66+0x6e>
		      3e54:   2301          movs   r3, #1
		      3e56:   e002          b.n    3e5e <nrf52_errata_66+0x6e>
		--------------------
	(    3ed6,     3eea)	jt
		--------------------
		      3ec8:   00003ed9  .word   0x00003ed9
		      3ecc:   00003edd  .word   0x00003edd
		      3ed0:   00003ee1  .word   0x00003ee1
		      3ed4:   2301          movs   r3, #1
		->    3ed6:   e008          b.n    3eea <nrf52_errata_108+0x6e>
		      3ed8:   2301          movs   r3, #1
		      3eda:   e006          b.n    3eea <nrf52_errata_108+0x6e>
		      3edc:   2301          movs   r3, #1
		      3ede:   e004          b.n    3eea <nrf52_errata_108+0x6e>
		--------------------
	(    3f4a,     3f70)	jt
		--------------------
		      3f42:   3b03          subs   r3, #3
		      3f44:   2b03          cmp    r3, #3
		      3f46:   d813          bhi.n  3f70 <nrf52_errata_136+0x68>
		      3f48:   a201          add    r2, pc, #4 ; (adr r2, 3f50 <nrf52_errata_136+0x48>)
		->    3f4a:   f852 f023     ldr.w  pc, [r2, r3, lsl #2]
		      3f4e:   bf00          nop
		      3f50:   00003f61  .word   0x00003f61
		      3f54:   00003f65  .word   0x00003f65
		      3f58:   00003f69  .word   0x00003f69
		--------------------
	(    3fd2,     3fe2)	jt
		--------------------
		      3fc8:   00003fd9  .word   0x00003fd9
		      3fcc:   2300          movs   r3, #0
		      3fce:   e008          b.n    3fe2 <nrf52_errata_182+0x4e>
		      3fd0:   2300          movs   r3, #0
		->    3fd2:   e006          b.n    3fe2 <nrf52_errata_182+0x4e>
		      3fd4:   2300          movs   r3, #0
		      3fd6:   e004          b.n    3fe2 <nrf52_errata_182+0x4e>
		      3fd8:   2301          movs   r3, #1
		      3fda:   e002          b.n    3fe2 <nrf52_errata_182+0x4e>
		--------------------
	(    3fd6,     3fe2)	jt
		--------------------
		      3fce:   e008          b.n    3fe2 <nrf52_errata_182+0x4e>
		      3fd0:   2300          movs   r3, #0
		      3fd2:   e006          b.n    3fe2 <nrf52_errata_182+0x4e>
		      3fd4:   2300          movs   r3, #0
		->    3fd6:   e004          b.n    3fe2 <nrf52_errata_182+0x4e>
		      3fd8:   2301          movs   r3, #1
		      3fda:   e002          b.n    3fe2 <nrf52_errata_182+0x4e>
		      3fdc:   2301          movs   r3, #1
		      3fde:   e000          b.n    3fe2 <nrf52_errata_182+0x4e>
		--------------------

saadc-o1: 9 | 9 | 2 jt
	(     5c8,      5dc)	jt
		--------------------
		       5be:   eb03 03c0     add.w  r3, r3, r0, lsl #3
		       5c2:   3901          subs   r1, #1
		       5c4:   2903          cmp    r1, #3
		       5c6:   d809          bhi.n  5dc <nrf_log_color_id_get+0x20>
		->     5c8:   e8df f001     tbb    [pc, r1]
		       5cc:   0604020a  .word   0x0604020a
		       5d0:   2004          movs   r0, #4
		       5d2:   4770          bx lr
		       5d4:   7918          ldrb   r0, [r3, #4]
		--------------------
	(     7aa,      656)	
		--------------------
		       7a0:   4824          ldr    r0, [pc, #144] ; (834 <nrf_log_frontend_dequeue+0x238>)
		       7a2:   f000 fe19     bl 13d8 <nrf_memobj_alloc>
		       7a6:   4605          mov    r5, r0
		       7a8:   2800          cmp    r0, #0
		->     7aa:   f43f af54     beq.w  656 <nrf_log_frontend_dequeue+0x5a>
		       7ae:   f000 fe46     bl 143e <nrf_memobj_get>
		       7b2:   2300          movs   r3, #0
		       7b4:   2208          movs   r2, #8
		       7b6:   4669          mov    r1, sp
		--------------------
	(     7aa,      7ae)	
		--------------------
		       7a0:   4824          ldr    r0, [pc, #144] ; (834 <nrf_log_frontend_dequeue+0x238>)
		       7a2:   f000 fe19     bl 13d8 <nrf_memobj_alloc>
		       7a6:   4605          mov    r5, r0
		       7a8:   2800          cmp    r0, #0
		->     7aa:   f43f af54     beq.w  656 <nrf_log_frontend_dequeue+0x5a>
		       7ae:   f000 fe46     bl 143e <nrf_memobj_get>
		       7b2:   2300          movs   r3, #0
		       7b4:   2208          movs   r2, #8
		       7b6:   4669          mov    r1, sp
		--------------------
	(     980,      984)	
		--------------------
		       974:   f000 f9fe     bl d74 <nrf_atomic_u32_fetch_store>
		       978:   f380 0310     usat   r3, #16, r0
		       97c:   1c72          adds   r2, r6, #1
		       97e:   b2d2          uxtb   r2, r2
		->     980:   eb04 0282     add.w  r2, r4, r2, lsl #2
		       984:   041b          lsls   r3, r3, #16
		       986:   ea43 4318     orr.w  r3, r3, r8, lsr #16
		       98a:   60d3          str    r3, [r2, #12]
		       98c:   b2f6          uxtb   r6, r6
		--------------------
	(     b50,      b64)	jt
		--------------------
		       b44:   4630          mov    r0, r6
		       b46:   f7ff ff93     bl a70 <prefix_process>
		       b4a:   f1b8 0f06     cmp.w  r8, #6
		       b4e:   d809          bhi.n  b64 <nrf_log_std_entry_process+0x38>
		->     b50:   e8df f008     tbb    [pc, r8]
		       b54:   1e171104  .word   0x1e171104
		       b58:   3227          .short 0x3227
		       b5a:   3f            .byte    0x3f
		       b5b:   00            .byte    0x00
		--------------------
	(     d00,      d02)	
		--------------------
		       cf4:   4b0f          ldr    r3, [pc, #60]  ; (d34 <app_error_fault_handler+0x64>)
		       cf6:   f8d3 30f0     ldr.w  r3, [r3, #240]   ; 0xf0
		       cfa:   f013 0f01     tst.w  r3, #1
		       cfe:   d000          beq.n  d02 <app_error_fault_handler+0x32>
		->     d00:   be00          bkpt   0x0000
		       d02:   490d          ldr    r1, [pc, #52]  ; (d38 <app_error_fault_handler+0x68>)
		       d04:   f044 0002     orr.w  r0, r4, #2
		       d08:   f7ff fd96     bl 838 <nrf_log_frontend_std_0>
		       d0c:   f3bf 8f4f     dsb    sy
		--------------------
	(    1664,     1668)	
		--------------------
		      1658:   f040 80c3     bne.w  17e2 <SAADC_IRQHandler+0x1be>
		      165c:   4b6b          ldr    r3, [pc, #428] ; (180c <SAADC_IRQHandler+0x1e8>)
		      165e:   f8d3 3100     ldr.w  r3, [r3, #256]   ; 0x100
		      1662:   2b00          cmp    r3, #0
		->    1664:   f000 8098     beq.w  1798 <SAADC_IRQHandler+0x174>
		      1668:   4b68          ldr    r3, [pc, #416] ; (180c <SAADC_IRQHandler+0x1e8>)
		      166a:   2200          movs   r2, #0
		      166c:   f8c3 2100     str.w  r2, [r3, #256]   ; 0x100
		      1670:   f8d3 3100     ldr.w  r3, [r3, #256]   ; 0x100
		--------------------
	(    179e,     17a0)	
		--------------------
		      1792:   2b00          cmp    r3, #0
		      1794:   f47f af62     bne.w  165c <SAADC_IRQHandler+0x38>
		      1798:   4b1c          ldr    r3, [pc, #112] ; (180c <SAADC_IRQHandler+0x1e8>)
		      179a:   f8d3 3110     ldr.w  r3, [r3, #272]   ; 0x110
		->    179e:   b17b          cbz    r3, 17c0 <SAADC_IRQHandler+0x19c>
		      17a0:   4b1a          ldr    r3, [pc, #104] ; (180c <SAADC_IRQHandler+0x1e8>)
		      17a2:   2200          movs   r2, #0
		      17a4:   f8c3 2110     str.w  r2, [r3, #272]   ; 0x110
		      17a8:   f8d3 3110     ldr.w  r3, [r3, #272]   ; 0x110
		--------------------
	(    20f4,     1ffc)	
		--------------------
		      20ec:   d186          bne.n  1ffc <SystemInit+0x38>
		      20ee:   4b88          ldr    r3, [pc, #544] ; (2310 <Heap_Size+0x310>)
		      20f0:   4a88          ldr    r2, [pc, #544] ; (2314 <Heap_Size+0x314>)
		      20f2:   675a          str    r2, [r3, #116] ; 0x74
		->    20f4:   e782          b.n    1ffc <SystemInit+0x38>
		      20f6:   f04f 4370     mov.w  r3, #4026531840  ; 0xf0000000
		      20fa:   f8d3 3fe8     ldr.w  r3, [r3, #4072]  ; 0xfe8
		      20fe:   f3c3 1303     ubfx   r3, r3, #4, #4
		      2102:   2b03          cmp    r3, #3
		--------------------

saadc-o2: 6 | 6
	(     60c,      624)	
		--------------------
		       602:   3901          subs   r1, #1
		       604:   eb03 00c0     add.w  r0, r3, r0, lsl #3
		       608:   2903          cmp    r1, #3
		       60a:   d80b          bhi.n  624 <nrf_log_color_id_get+0x24>
		->     60c:   e8df f001     tbb    [pc, r1]
		       610:   06080204  .word   0x06080204
		       614:   2004          movs   r0, #4
		       616:   4770          bx lr
		       618:   2002          movs   r0, #2
		--------------------
	(     ad4,      ae8)	
		--------------------
		       aca:   4628          mov    r0, r5
		       acc:   f7ff ffae     bl a2c <prefix_process.constprop.0>
		       ad0:   2f06          cmp    r7, #6
		       ad2:   d809          bhi.n  ae8 <nrf_log_std_entry_process+0x38>
		->     ad4:   e8df f007     tbb    [pc, r7]
		       ad8:   3b342e04  .word   0x3b342e04
		       adc:   4f44          .short 0x4f44
		       ade:   1f            .byte    0x1f
		       adf:   00            .byte    0x00
		--------------------
	(     cee,      cf0)	
		--------------------
		       ce4:   4b0e          ldr    r3, [pc, #56]  ; (d20 <app_error_fault_handler+0x60>)
		       ce6:   f8d3 30f0     ldr.w  r3, [r3, #240]   ; 0xf0
		       cea:   07db          lsls   r3, r3, #31
		       cec:   d500          bpl.n  cf0 <app_error_fault_handler+0x30>
		->     cee:   be00          bkpt   0x0000
		       cf0:   490c          ldr    r1, [pc, #48]  ; (d24 <app_error_fault_handler+0x64>)
		       cf2:   f044 0002     orr.w  r0, r4, #2
		       cf6:   f7ff fe1f     bl 938 <nrf_log_frontend_std_0>
		       cfa:   f3bf 8f4f     dsb    sy
		--------------------
	(    187e,     1880)	
		--------------------
		      1872:   f897 302e     ldrb.w r3, [r7, #46]   ; 0x2e
		      1876:   bb23          cbnz   r3, 18c2 <SAADC_IRQHandler+0xa6>
		      1878:   4b51          ldr    r3, [pc, #324] ; (19c0 <SAADC_IRQHandler+0x1a4>)
		      187a:   f8d3 2110     ldr.w  r2, [r3, #272]   ; 0x110
		->    187e:   b16a          cbz    r2, 189c <SAADC_IRQHandler+0x80>
		      1880:   2200          movs   r2, #0
		      1882:   f8c3 2110     str.w  r2, [r3, #272]   ; 0x110
		      1886:   f8d3 3110     ldr.w  r3, [r3, #272]   ; 0x110
		      188a:   9303          str    r3, [sp, #12]
		--------------------
	(    1de8,     1e0a)	
		--------------------
		      1ddc:   f44f 3680     mov.w  r6, #65536   ; 0x10000
		      1de0:   682b          ldr    r3, [r5, #0]
		      1de2:   fa06 f204     lsl.w  r2, r6, r4
		      1de6:   3401          adds   r4, #1
		->    1de8:   b17b          cbz    r3, 1e0a <TIMER0_IRQHandler+0x3e>
		      1dea:   f8d7 3304     ldr.w  r3, [r7, #772]   ; 0x304
		      1dee:   f5a5 4000     sub.w  r0, r5, #32768   ; 0x8000
		      1df2:   421a          tst    r2, r3
		      1df4:   f04f 0100     mov.w  r1, #0
		--------------------
	(    2488,     21fe)	
		--------------------
		      247e:   f43f aebe     beq.w  21fe <SystemInit+0x3a>
		      2482:   4b17          ldr    r3, [pc, #92]  ; (24e0 <SystemInit+0x31c>)
		      2484:   4a17          ldr    r2, [pc, #92]  ; (24e4 <SystemInit+0x320>)
		      2486:   675a          str    r2, [r3, #116] ; 0x74
		->    2488:   e6b9          b.n    21fe <SystemInit+0x3a>
		      248a:   4a17          ldr    r2, [pc, #92]  ; (24e8 <SystemInit+0x324>)
		      248c:   5cd3          ldrb   r3, [r2, r3]
		      248e:   2b00          cmp    r3, #0
		      2490:   f43f af08     beq.w  22a4 <SystemInit+0xe0>
		--------------------

saadc-o3: 6 | 6
	(     5ac,      5c4)	
		--------------------
		       5a2:   3901          subs   r1, #1
		       5a4:   eb03 00c0     add.w  r0, r3, r0, lsl #3
		       5a8:   2903          cmp    r1, #3
		       5aa:   d80b          bhi.n  5c4 <nrf_log_color_id_get+0x24>
		->     5ac:   e8df f001     tbb    [pc, r1]
		       5b0:   06080204  .word   0x06080204
		       5b4:   2004          movs   r0, #4
		       5b6:   4770          bx lr
		       5b8:   2002          movs   r0, #2
		--------------------
	(     ab8,      acc)	
		--------------------
		       aae:   4628          mov    r0, r5
		       ab0:   f7ff ffae     bl a10 <prefix_process.constprop.0>
		       ab4:   2f06          cmp    r7, #6
		       ab6:   d809          bhi.n  acc <nrf_log_std_entry_process+0x38>
		->     ab8:   e8df f007     tbb    [pc, r7]
		       abc:   3b342e04  .word   0x3b342e04
		       ac0:   4f44          .short 0x4f44
		       ac2:   1f            .byte    0x1f
		       ac3:   00            .byte    0x00
		--------------------
	(     cd2,      cd4)	
		--------------------
		       cc8:   4b0e          ldr    r3, [pc, #56]  ; (d04 <app_error_fault_handler+0x60>)
		       cca:   f8d3 30f0     ldr.w  r3, [r3, #240]   ; 0xf0
		       cce:   07db          lsls   r3, r3, #31
		       cd0:   d500          bpl.n  cd4 <app_error_fault_handler+0x30>
		->     cd2:   be00          bkpt   0x0000
		       cd4:   490c          ldr    r1, [pc, #48]  ; (d08 <app_error_fault_handler+0x64>)
		       cd6:   f044 0002     orr.w  r0, r4, #2
		       cda:   f7ff fd9b     bl 814 <nrf_log_frontend_std_0>
		       cde:   f3bf 8f4f     dsb    sy
		--------------------
	(    190a,     190c)	
		--------------------
		      18fe:   f897 302e     ldrb.w r3, [r7, #46]   ; 0x2e
		      1902:   bb23          cbnz   r3, 194e <SAADC_IRQHandler+0xa6>
		      1904:   4b51          ldr    r3, [pc, #324] ; (1a4c <SAADC_IRQHandler+0x1a4>)
		      1906:   f8d3 2110     ldr.w  r2, [r3, #272]   ; 0x110
		->    190a:   b16a          cbz    r2, 1928 <SAADC_IRQHandler+0x80>
		      190c:   2200          movs   r2, #0
		      190e:   f8c3 2110     str.w  r2, [r3, #272]   ; 0x110
		      1912:   f8d3 3110     ldr.w  r3, [r3, #272]   ; 0x110
		      1916:   9303          str    r3, [sp, #12]
		--------------------
	(    1e70,     1e92)	
		--------------------
		      1e64:   f44f 3680     mov.w  r6, #65536   ; 0x10000
		      1e68:   682b          ldr    r3, [r5, #0]
		      1e6a:   fa06 f204     lsl.w  r2, r6, r4
		      1e6e:   3401          adds   r4, #1
		->    1e70:   b17b          cbz    r3, 1e92 <TIMER0_IRQHandler+0x3e>
		      1e72:   f8d7 3304     ldr.w  r3, [r7, #772]   ; 0x304
		      1e76:   f5a5 4000     sub.w  r0, r5, #32768   ; 0x8000
		      1e7a:   421a          tst    r2, r3
		      1e7c:   f04f 0100     mov.w  r1, #0
		--------------------
	(    257c,     230a)	
		--------------------
		      2572:   f43f aeca     beq.w  230a <SystemInit+0x3a>
		      2576:   4b35          ldr    r3, [pc, #212] ; (264c <SystemInit+0x37c>)
		      2578:   4a35          ldr    r2, [pc, #212] ; (2650 <SystemInit+0x380>)
		      257a:   675a          str    r2, [r3, #116] ; 0x74
		->    257c:   e6c5          b.n    230a <SystemInit+0x3a>
		      257e:   f04f 4370     mov.w  r3, #4026531840  ; 0xf0000000
		      2582:   f893 3fe0     ldrb.w r3, [r3, #4064] ; 0xfe0
		      2586:   2b06          cmp    r3, #6
		      2588:   f47f af03     bne.w  2392 <SystemInit+0xc2>
		--------------------

simple_timer-o0: 20 | 110 | 18 jt
	(    1580,     1582)	
		--------------------
		      1578:   683b          ldr    r3, [r7, #0]
		      157a:   3b03          subs   r3, #3
		      157c:   2b03          cmp    r3, #3
		      157e:   d813          bhi.n  15a8 <nrf52_errata_12+0x68>
		->    1580:   a201          add    r2, pc, #4 ; (adr r2, 1588 <nrf52_errata_12+0x48>)
		      1582:   f852 f023     ldr.w  pc, [r2, r3, lsl #2]
		      1586:   bf00          nop
		      1588:   00001599  .word   0x00001599
		      158c:   0000159d  .word   0x0000159d
		--------------------
	(    1582,     159c)	jt
		--------------------
		      157a:   3b03          subs   r3, #3
		      157c:   2b03          cmp    r3, #3
		      157e:   d813          bhi.n  15a8 <nrf52_errata_12+0x68>
		      1580:   a201          add    r2, pc, #4 ; (adr r2, 1588 <nrf52_errata_12+0x48>)
		->    1582:   f852 f023     ldr.w  pc, [r2, r3, lsl #2]
		      1586:   bf00          nop
		      1588:   00001599  .word   0x00001599
		      158c:   0000159d  .word   0x0000159d
		      1590:   000015a1  .word   0x000015a1
		--------------------
	(    15f6,     161c)	jt
		--------------------
		      15ee:   3b03          subs   r3, #3
		      15f0:   2b03          cmp    r3, #3
		      15f2:   d813          bhi.n  161c <nrf52_errata_16+0x50>
		      15f4:   a201          add    r2, pc, #4 ; (adr r2, 15fc <nrf52_errata_16+0x30>)
		->    15f6:   f852 f023     ldr.w  pc, [r2, r3, lsl #2]
		      15fa:   bf00          nop
		      15fc:   0000160d  .word   0x0000160d
		      1600:   00001611  .word   0x00001611
		      1604:   00001615  .word   0x00001615
		--------------------
	(    1612,     1622)	jt
		--------------------
		      1608:   00001619  .word   0x00001619
		      160c:   2301          movs   r3, #1
		      160e:   e008          b.n    1622 <nrf52_errata_16+0x56>
		      1610:   2300          movs   r3, #0
		->    1612:   e006          b.n    1622 <nrf52_errata_16+0x56>
		      1614:   2300          movs   r3, #0
		      1616:   e004          b.n    1622 <nrf52_errata_16+0x56>
		      1618:   2300          movs   r3, #0
		      161a:   e002          b.n    1622 <nrf52_errata_16+0x56>
		--------------------
	(    169e,     16a6)	jt
		--------------------
		      1696:   e006          b.n    16a6 <nrf52_errata_31+0x6e>
		      1698:   2301          movs   r3, #1
		      169a:   e004          b.n    16a6 <nrf52_errata_31+0x6e>
		      169c:   2301          movs   r3, #1
		->    169e:   e002          b.n    16a6 <nrf52_errata_31+0x6e>
		      16a0:   2301          movs   r3, #1
		      16a2:   e000          b.n    16a6 <nrf52_errata_31+0x6e>
		      16a4:   2300          movs   r3, #0
		      16a6:   4618          mov    r0, r3
		--------------------
	(    1772,     1788)	jt
		--------------------
		      176a:   3b03          subs   r3, #3
		      176c:   2b03          cmp    r3, #3
		      176e:   d813          bhi.n  1798 <nrf52_errata_36+0x68>
		      1770:   a201          add    r2, pc, #4 ; (adr r2, 1778 <nrf52_errata_36+0x48>)
		->    1772:   f852 f023     ldr.w  pc, [r2, r3, lsl #2]
		      1776:   bf00          nop
		      1778:   00001789  .word   0x00001789
		      177c:   0000178d  .word   0x0000178d
		      1780:   00001791  .word   0x00001791
		--------------------
	(    17e4,     17e6)	
		--------------------
		      17dc:   683b          ldr    r3, [r7, #0]
		      17de:   3b03          subs   r3, #3
		      17e0:   2b03          cmp    r3, #3
		      17e2:   d813          bhi.n  180c <nrf52_errata_37+0x50>
		->    17e4:   a201          add    r2, pc, #4 ; (adr r2, 17ec <nrf52_errata_37+0x30>)
		      17e6:   f852 f023     ldr.w  pc, [r2, r3, lsl #2]
		      17ea:   bf00          nop
		      17ec:   000017fd  .word   0x000017fd
		      17f0:   00001801  .word   0x00001801
		--------------------
	(    17e6,     1804)	jt
		--------------------
		      17de:   3b03          subs   r3, #3
		      17e0:   2b03          cmp    r3, #3
		      17e2:   d813          bhi.n  180c <nrf52_errata_37+0x50>
		      17e4:   a201          add    r2, pc, #4 ; (adr r2, 17ec <nrf52_errata_37+0x30>)
		->    17e6:   f852 f023     ldr.w  pc, [r2, r3, lsl #2]
		      17ea:   bf00          nop
		      17ec:   000017fd  .word   0x000017fd
		      17f0:   00001801  .word   0x00001801
		      17f4:   00001805  .word   0x00001805
		--------------------
	(    1852,     1874)	jt
		--------------------
		      184a:   3b03          subs   r3, #3
		      184c:   2b03          cmp    r3, #3
		      184e:   d813          bhi.n  1878 <nrf52_errata_57+0x50>
		      1850:   a201          add    r2, pc, #4 ; (adr r2, 1858 <nrf52_errata_57+0x30>)
		->    1852:   f852 f023     ldr.w  pc, [r2, r3, lsl #2]
		      1856:   bf00          nop
		      1858:   00001869  .word   0x00001869
		      185c:   0000186d  .word   0x0000186d
		      1860:   00001871  .word   0x00001871
		--------------------
	(    1876,     187e)	jt
		--------------------
		      186e:   e006          b.n    187e <nrf52_errata_57+0x56>
		      1870:   2300          movs   r3, #0
		      1872:   e004          b.n    187e <nrf52_errata_57+0x56>
		      1874:   2300          movs   r3, #0
		->    1876:   e002          b.n    187e <nrf52_errata_57+0x56>
		      1878:   2300          movs   r3, #0
		      187a:   e000          b.n    187e <nrf52_errata_57+0x56>
		      187c:   2300          movs   r3, #0
		      187e:   4618          mov    r0, r3
		--------------------
	(    18ee,     1902)	jt
		--------------------
		      18e0:   000018f1  .word   0x000018f1
		      18e4:   000018f5  .word   0x000018f5
		      18e8:   000018f9  .word   0x000018f9
		      18ec:   2300          movs   r3, #0
		->    18ee:   e008          b.n    1902 <nrf52_errata_66+0x6e>
		      18f0:   2300          movs   r3, #0
		      18f2:   e006          b.n    1902 <nrf52_errata_66+0x6e>
		      18f4:   2301          movs   r3, #1
		      18f6:   e004          b.n    1902 <nrf52_errata_66+0x6e>
		--------------------
	(    1982,     198e)	jt
		--------------------
		      197a:   e008          b.n    198e <nrf52_errata_108+0x6e>
		      197c:   2301          movs   r3, #1
		      197e:   e006          b.n    198e <nrf52_errata_108+0x6e>
		      1980:   2301          movs   r3, #1
		->    1982:   e004          b.n    198e <nrf52_errata_108+0x6e>
		      1984:   2301          movs   r3, #1
		      1986:   e002          b.n    198e <nrf52_errata_108+0x6e>
		      1988:   2301          movs   r3, #1
		      198a:   e000          b.n    198e <nrf52_errata_108+0x6e>
		--------------------
	(    19ee,     1a08)	jt
		--------------------
		      19e6:   3b03          subs   r3, #3
		      19e8:   2b03          cmp    r3, #3
		      19ea:   d813          bhi.n  1a14 <nrf52_errata_136+0x68>
		      19ec:   a201          add    r2, pc, #4 ; (adr r2, 19f4 <nrf52_errata_136+0x48>)
		->    19ee:   f852 f023     ldr.w  pc, [r2, r3, lsl #2]
		      19f2:   bf00          nop
		      19f4:   00001a05  .word   0x00001a05
		      19f8:   00001a09  .word   0x00001a09
		      19fc:   00001a0d  .word   0x00001a0d
		--------------------
	(    19ee,     1a10)	jt
		--------------------
		      19e6:   3b03          subs   r3, #3
		      19e8:   2b03          cmp    r3, #3
		      19ea:   d813          bhi.n  1a14 <nrf52_errata_136+0x68>
		      19ec:   a201          add    r2, pc, #4 ; (adr r2, 19f4 <nrf52_errata_136+0x48>)
		->    19ee:   f852 f023     ldr.w  pc, [r2, r3, lsl #2]
		      19f2:   bf00          nop
		      19f4:   00001a05  .word   0x00001a05
		      19f8:   00001a09  .word   0x00001a09
		      19fc:   00001a0d  .word   0x00001a0d
		--------------------
	(    1a06,     1a1a)	jt
		--------------------
		      19f8:   00001a09  .word   0x00001a09
		      19fc:   00001a0d  .word   0x00001a0d
		      1a00:   00001a11  .word   0x00001a11
		      1a04:   2301          movs   r3, #1
		->    1a06:   e008          b.n    1a1a <nrf52_errata_136+0x6e>
		      1a08:   2301          movs   r3, #1
		      1a0a:   e006          b.n    1a1a <nrf52_errata_136+0x6e>
		      1a0c:   2301          movs   r3, #1
		      1a0e:   e004          b.n    1a1a <nrf52_errata_136+0x6e>
		--------------------
	(    1a0a,     1a1a)	jt
		--------------------
		      1a00:   00001a11  .word   0x00001a11
		      1a04:   2301          movs   r3, #1
		      1a06:   e008          b.n    1a1a <nrf52_errata_136+0x6e>
		      1a08:   2301          movs   r3, #1
		->    1a0a:   e006          b.n    1a1a <nrf52_errata_136+0x6e>
		      1a0c:   2301          movs   r3, #1
		      1a0e:   e004          b.n    1a1a <nrf52_errata_136+0x6e>
		      1a10:   2301          movs   r3, #1
		      1a12:   e002          b.n    1a1a <nrf52_errata_136+0x6e>
		--------------------
	(    1a0e,     1a1a)	jt
		--------------------
		      1a06:   e008          b.n    1a1a <nrf52_errata_136+0x6e>
		      1a08:   2301          movs   r3, #1
		      1a0a:   e006          b.n    1a1a <nrf52_errata_136+0x6e>
		      1a0c:   2301          movs   r3, #1
		->    1a0e:   e004          b.n    1a1a <nrf52_errata_136+0x6e>
		      1a10:   2301          movs   r3, #1
		      1a12:   e002          b.n    1a1a <nrf52_errata_136+0x6e>
		      1a14:   2301          movs   r3, #1
		      1a16:   e000          b.n    1a1a <nrf52_errata_136+0x6e>
		--------------------
	(    1a5a,     1a70)	jt
		--------------------
		      1a52:   3b03          subs   r3, #3
		      1a54:   2b03          cmp    r3, #3
		      1a56:   d813          bhi.n  1a80 <nrf52_errata_182+0x48>
		      1a58:   a201          add    r2, pc, #4 ; (adr r2, 1a60 <nrf52_errata_182+0x28>)
		->    1a5a:   f852 f023     ldr.w  pc, [r2, r3, lsl #2]
		      1a5e:   bf00          nop
		      1a60:   00001a71  .word   0x00001a71
		      1a64:   00001a75  .word   0x00001a75
		      1a68:   00001a79  .word   0x00001a79
		--------------------
	(    1a5a,     1a74)	jt
		--------------------
		      1a52:   3b03          subs   r3, #3
		      1a54:   2b03          cmp    r3, #3
		      1a56:   d813          bhi.n  1a80 <nrf52_errata_182+0x48>
		      1a58:   a201          add    r2, pc, #4 ; (adr r2, 1a60 <nrf52_errata_182+0x28>)
		->    1a5a:   f852 f023     ldr.w  pc, [r2, r3, lsl #2]
		      1a5e:   bf00          nop
		      1a60:   00001a71  .word   0x00001a71
		      1a64:   00001a75  .word   0x00001a75
		      1a68:   00001a79  .word   0x00001a79
		--------------------
	(    1a76,     1a86)	jt
		--------------------
		      1a6c:   00001a7d  .word   0x00001a7d
		      1a70:   2300          movs   r3, #0
		      1a72:   e008          b.n    1a86 <nrf52_errata_182+0x4e>
		      1a74:   2300          movs   r3, #0
		->    1a76:   e006          b.n    1a86 <nrf52_errata_182+0x4e>
		      1a78:   2300          movs   r3, #0
		      1a7a:   e004          b.n    1a86 <nrf52_errata_182+0x4e>
		      1a7c:   2301          movs   r3, #1
		      1a7e:   e002          b.n    1a86 <nrf52_errata_182+0x4e>
		--------------------

simple_timer-o1: 3 | 3
	(     50e,      510)	
		--------------------
		  00000508 <RTC1_IRQHandler>:
		       508:   b508          push   {r3, lr}
		       50a:   4b03          ldr    r3, [pc, #12]  ; (518 <RTC1_IRQHandler+0x10>)
		       50c:   681b          ldr    r3, [r3, #0]
		->     50e:   4a03          ldr    r2, [pc, #12]  ; (51c <RTC1_IRQHandler+0x14>)
		       510:   6810          ldr    r0, [r2, #0]
		       512:   4798          blx    r3
		       514:   bd08          pop    {r3, pc}
		       516:   bf00          nop
		--------------------
	(     856,      858)	
		--------------------
		       84e:   2d04          cmp    r5, #4
		       850:   d016          beq.n  880 <TIMER1_IRQHandler+0x4c>
		       852:   6823          ldr    r3, [r4, #0]
		       854:   2b00          cmp    r3, #0
		->     856:   d0f8          beq.n  84a <TIMER1_IRQHandler+0x16>
		       858:   f8d7 3304     ldr.w  r3, [r7, #772]   ; 0x304
		       85c:   fa06 f105     lsl.w  r1, r6, r5
		       860:   4219          tst    r1, r3
		       862:   d0f2          beq.n  84a <TIMER1_IRQHandler+0x16>
		--------------------
	(     b74,      a7c)	
		--------------------
		       b6c:   d186          bne.n  a7c <SystemInit+0x38>
		       b6e:   4b88          ldr    r3, [pc, #544] ; (d90 <SystemInit+0x34c>)
		       b70:   4a88          ldr    r2, [pc, #544] ; (d94 <SystemInit+0x350>)
		       b72:   675a          str    r2, [r3, #116] ; 0x74
		->     b74:   e782          b.n    a7c <SystemInit+0x38>
		       b76:   f04f 4370     mov.w  r3, #4026531840  ; 0xf0000000
		       b7a:   f8d3 3fe8     ldr.w  r3, [r3, #4072]  ; 0xfe8
		       b7e:   f3c3 1303     ubfx   r3, r3, #4, #4
		       b82:   2b03          cmp    r3, #3
		--------------------

simple_timer-o2: 4 | 4
	(     506,      508)	
		--------------------
		       500:   000010c4  .word   0x000010c4
		  
		  00000504 <RTC1_IRQHandler>:
		       504:   4a02          ldr    r2, [pc, #8]   ; (510 <RTC1_IRQHandler+0xc>)
		->     506:   4b03          ldr    r3, [pc, #12]  ; (514 <RTC1_IRQHandler+0x10>)
		       508:   6810          ldr    r0, [r2, #0]
		       50a:   681b          ldr    r3, [r3, #0]
		       50c:   4718          bx r3
		       50e:   bf00          nop
		--------------------
	(     85c,      87e)	
		--------------------
		       850:   f44f 3680     mov.w  r6, #65536   ; 0x10000
		       854:   682b          ldr    r3, [r5, #0]
		       856:   fa06 f204     lsl.w  r2, r6, r4
		       85a:   3401          adds   r4, #1
		->     85c:   b17b          cbz    r3, 87e <TIMER1_IRQHandler+0x3e>
		       85e:   f8d7 3304     ldr.w  r3, [r7, #772]   ; 0x304
		       862:   f505 40e0     add.w  r0, r5, #28672   ; 0x7000
		       866:   421a          tst    r2, r3
		       868:   f04f 0100     mov.w  r1, #0
		--------------------
	(     87c,      87e)	
		--------------------
		       872:   682b          ldr    r3, [r5, #0]
		       874:   9301          str    r3, [sp, #4]
		       876:   e9d8 3100     ldrd   r3, r1, [r8]
		       87a:   9a01          ldr    r2, [sp, #4]
		->     87c:   4798          blx    r3
		       87e:   2c04          cmp    r4, #4
		       880:   f105 0504     add.w  r5, r5, #4
		       884:   d1e6          bne.n  854 <TIMER1_IRQHandler+0x14>
		       886:   b002          add    sp, #8
		--------------------
	(     da4,      b1a)	
		--------------------
		       d9a:   f43f aebe     beq.w  b1a <SystemInit+0x3a>
		       d9e:   4b17          ldr    r3, [pc, #92]  ; (dfc <SystemInit+0x31c>)
		       da0:   4a17          ldr    r2, [pc, #92]  ; (e00 <SystemInit+0x320>)
		       da2:   675a          str    r2, [r3, #116] ; 0x74
		->     da4:   e6b9          b.n    b1a <SystemInit+0x3a>
		       da6:   4a17          ldr    r2, [pc, #92]  ; (e04 <SystemInit+0x324>)
		       da8:   5cd3          ldrb   r3, [r2, r3]
		       daa:   2b00          cmp    r3, #0
		       dac:   f43f af08     beq.w  bc0 <SystemInit+0xe0>
		--------------------

simple_timer-o3: 5 | 5
	(     502,      504)	
		--------------------
		       4fc:   00001368  .word   0x00001368
		  
		  00000500 <RTC1_IRQHandler>:
		       500:   4a02          ldr    r2, [pc, #8]   ; (50c <RTC1_IRQHandler+0xc>)
		->     502:   4b03          ldr    r3, [pc, #12]  ; (510 <RTC1_IRQHandler+0x10>)
		       504:   6810          ldr    r0, [r2, #0]
		       506:   681b          ldr    r3, [r3, #0]
		       508:   4718          bx r3
		       50a:   bf00          nop
		--------------------
	(     506,      508)	
		--------------------
		  00000500 <RTC1_IRQHandler>:
		       500:   4a02          ldr    r2, [pc, #8]   ; (50c <RTC1_IRQHandler+0xc>)
		       502:   4b03          ldr    r3, [pc, #12]  ; (510 <RTC1_IRQHandler+0x10>)
		       504:   6810          ldr    r0, [r2, #0]
		->     506:   681b          ldr    r3, [r3, #0]
		       508:   4718          bx r3
		       50a:   bf00          nop
		       50c:   20000038  .word   0x20000038
		       510:   20000040  .word   0x20000040
		--------------------
	(     b10,      b32)	
		--------------------
		       b04:   f44f 3680     mov.w  r6, #65536   ; 0x10000
		       b08:   682b          ldr    r3, [r5, #0]
		       b0a:   fa06 f204     lsl.w  r2, r6, r4
		       b0e:   3401          adds   r4, #1
		->     b10:   b17b          cbz    r3, b32 <TIMER1_IRQHandler+0x3e>
		       b12:   f8d7 3304     ldr.w  r3, [r7, #772]   ; 0x304
		       b16:   f505 40e0     add.w  r0, r5, #28672   ; 0x7000
		       b1a:   421a          tst    r2, r3
		       b1c:   f04f 0100     mov.w  r1, #0
		--------------------
	(     b30,      b32)	
		--------------------
		       b26:   682b          ldr    r3, [r5, #0]
		       b28:   9301          str    r3, [sp, #4]
		       b2a:   e9d8 3100     ldrd   r3, r1, [r8]
		       b2e:   9a01          ldr    r2, [sp, #4]
		->     b30:   4798          blx    r3
		       b32:   2c04          cmp    r4, #4
		       b34:   f105 0504     add.w  r5, r5, #4
		       b38:   d1e6          bne.n  b08 <TIMER1_IRQHandler+0x14>
		       b3a:   b002          add    sp, #8
		--------------------
	(    1040,      dce)	
		--------------------
		      1036:   f43f aeca     beq.w  dce <SystemInit+0x3a>
		      103a:   4b35          ldr    r3, [pc, #212] ; (1110 <SystemInit+0x37c>)
		      103c:   4a35          ldr    r2, [pc, #212] ; (1114 <SystemInit+0x380>)
		      103e:   675a          str    r2, [r3, #116] ; 0x74
		->    1040:   e6c5          b.n    dce <SystemInit+0x3a>
		      1042:   f04f 4370     mov.w  r3, #4026531840  ; 0xf0000000
		      1046:   f893 3fe0     ldrb.w r3, [r3, #4064] ; 0xfe0
		      104a:   2b06          cmp    r3, #6
		      104c:   f47f af03     bne.w  e56 <SystemInit+0xc2>
		--------------------

spi-o0: 41 | 413 | 34 jt | 7 dead
	(     89c,      8ba)	jt
		--------------------
		       890:   000008a5  .word   0x000008a5
		       894:   000008ad  .word   0x000008ad
		       898:   2302          movs   r3, #2
		       89a:   73fb          strb   r3, [r7, #15]
		->     89c:   e00d          b.n    8ba <nrf_log_color_id_get+0x56>
		       89e:   2304          movs   r3, #4
		       8a0:   73fb          strb   r3, [r7, #15]
		       8a2:   e00a          b.n    8ba <nrf_log_color_id_get+0x56>
		       8a4:   68bb          ldr    r3, [r7, #8]
		--------------------
	(    1440,     1506)	jt
		--------------------
		      1436:   461a          mov    r2, r3
		      1438:   68f9          ldr    r1, [r7, #12]
		      143a:   6ab8          ldr    r0, [r7, #40]  ; 0x28
		      143c:   f000 fc48     bl 1cd0 <nrf_fprintf>
		->    1440:   e061          b.n    1506 <nrf_log_std_entry_process+0x12a>
		      1442:   68bb          ldr    r3, [r7, #8]
		      1444:   681a          ldr    r2, [r3, #0]
		      1446:   68bb          ldr    r3, [r7, #8]
		      1448:   3304          adds   r3, #4
		--------------------
	(    1504,     1506)	jt
		--------------------
		      14fa:   68f9          ldr    r1, [r7, #12]
		      14fc:   6ab8          ldr    r0, [r7, #40]  ; 0x28
		      14fe:   f000 fbe7     bl 1cd0 <nrf_fprintf>
		      1502:   e000          b.n    1506 <nrf_log_std_entry_process+0x12a>
		->    1504:   bf00          nop
		      1506:   2200          movs   r2, #0
		      1508:   6ab9          ldr    r1, [r7, #40]  ; 0x28
		      150a:   6838          ldr    r0, [r7, #0]
		      150c:   f7ff ff36     bl 137c <postfix_process>
		--------------------
	(    1d8e,     1d6e)	jtij
		--------------------
		      1d86:   781b          ldrb   r3, [r3, #0]
		      1d88:   74fb          strb   r3, [r7, #19]
		      1d8a:   7cfb          ldrb   r3, [r7, #19]
		      1d8c:   2b00          cmp    r3, #0
		->    1d8e:   d1ee          bne.n  1d6e <string_print+0x1e>
		      1d90:   e006          b.n    1da0 <string_print+0x50>
		      1d92:   687b          ldr    r3, [r7, #4]
		      1d94:   3b01          subs   r3, #1
		      1d96:   607b          str    r3, [r7, #4]
		--------------------
	(    1db8,     1dbc)	jti
		--------------------
		      1db0:   68bb          ldr    r3, [r7, #8]
		      1db2:   2b00          cmp    r3, #0
		      1db4:   d00b          beq.n  1dce <string_print+0x7e>
		      1db6:   68b8          ldr    r0, [r7, #8]
		->    1db8:   f003 ff76     bl 5ca8 <strlen>
		      1dbc:   6178          str    r0, [r7, #20]
		      1dbe:   e006          b.n    1dce <string_print+0x7e>
		      1dc0:   687b          ldr    r3, [r7, #4]
		      1dc2:   3b01          subs   r3, #1
		--------------------
	(    1e3e,     1e44)	jti
		--------------------
		      1e36:   d2f3          bcs.n  1e20 <unsigned_print+0x18>
		      1e38:   683a          ldr    r2, [r7, #0]
		      1e3a:   69bb          ldr    r3, [r7, #24]
		      1e3c:   429a          cmp    r2, r3
		->    1e3e:   d901          bls.n  1e44 <unsigned_print+0x3c>
		      1e40:   683b          ldr    r3, [r7, #0]
		      1e42:   61bb          str    r3, [r7, #24]
		      1e44:   6afb          ldr    r3, [r7, #44]  ; 0x2c
		      1e46:   f003 0301     and.w  r3, r3, #1
		--------------------
	(    1e62,     1e6a)	jti
		--------------------
		      1e5a:   2b00          cmp    r3, #0
		      1e5c:   d005          beq.n  1e6a <unsigned_print+0x62>
		      1e5e:   683b          ldr    r3, [r7, #0]
		      1e60:   2b00          cmp    r3, #0
		->    1e62:   d102          bne.n  1e6a <unsigned_print+0x62>
		      1e64:   2330          movs   r3, #48   ; 0x30
		      1e66:   75fb          strb   r3, [r7, #23]
		      1e68:   e001          b.n    1e6e <unsigned_print+0x66>
		      1e6a:   2320          movs   r3, #32
		--------------------
	(    1eb0,     1eb4)	jti
		--------------------
		      1ea8:   613b          str    r3, [r7, #16]
		      1eaa:   693a          ldr    r2, [r7, #16]
		      1eac:   687b          ldr    r3, [r7, #4]
		      1eae:   429a          cmp    r2, r3
		->    1eb0:   d200          bcs.n  1eb4 <unsigned_print+0xac>
		      1eb2:   e005          b.n    1ec0 <unsigned_print+0xb8>
		      1eb4:   69fb          ldr    r3, [r7, #28]
		      1eb6:   687a          ldr    r2, [r7, #4]
		      1eb8:   fb02 f303     mul.w  r3, r2, r3
		--------------------
	(    1f70,     1f76)	jti
		--------------------
		      1f68:   daf3          bge.n  1f52 <int_print+0x1e>
		      1f6a:   683a          ldr    r2, [r7, #0]
		      1f6c:   697b          ldr    r3, [r7, #20]
		      1f6e:   429a          cmp    r2, r3
		->    1f70:   d901          bls.n  1f76 <int_print+0x42>
		      1f72:   683b          ldr    r3, [r7, #0]
		      1f74:   617b          str    r3, [r7, #20]
		      1f76:   6a3b          ldr    r3, [r7, #32]
		      1f78:   2b00          cmp    r3, #0
		--------------------
	(    1f7a,     1f7c)	jti
		--------------------
		      1f72:   683b          ldr    r3, [r7, #0]
		      1f74:   617b          str    r3, [r7, #20]
		      1f76:   6a3b          ldr    r3, [r7, #32]
		      1f78:   2b00          cmp    r3, #0
		->    1f7a:   d00a          beq.n  1f92 <int_print+0x5e>
		      1f7c:   68bb          ldr    r3, [r7, #8]
		      1f7e:   2b00          cmp    r3, #0
		      1f80:   db04          blt.n  1f8c <int_print+0x58>
		      1f82:   6a7b          ldr    r3, [r7, #36]  ; 0x24
		--------------------
	(    1fa0,     1fa2)	jti
		--------------------
		      1f98:   2b00          cmp    r3, #0
		      1f9a:   d002          beq.n  1fa2 <int_print+0x6e>
		      1f9c:   683b          ldr    r3, [r7, #0]
		      1f9e:   2b00          cmp    r3, #0
		->    1fa0:   d016          beq.n  1fd0 <int_print+0x9c>
		      1fa2:   6a7b          ldr    r3, [r7, #36]  ; 0x24
		      1fa4:   f003 0301     and.w  r3, r3, #1
		      1fa8:   2b00          cmp    r3, #0
		      1faa:   d111          bne.n  1fd0 <int_print+0x9c>
		--------------------
	(    1fc6,     1fd0)	jti
		--------------------
		      1fbc:   68f8          ldr    r0, [r7, #12]
		      1fbe:   f7ff fea3     bl 1d08 <buffer_add>
		      1fc2:   6a3b          ldr    r3, [r7, #32]
		      1fc4:   2b00          cmp    r3, #0
		->    1fc6:   d003          beq.n  1fd0 <int_print+0x9c>
		      1fc8:   697a          ldr    r2, [r7, #20]
		      1fca:   6a3b          ldr    r3, [r7, #32]
		      1fcc:   429a          cmp    r2, r3
		      1fce:   d3f1          bcc.n  1fb4 <int_print+0x80>
		--------------------
	(    1fce,     1fd0)	jti
		--------------------
		      1fc6:   d003          beq.n  1fd0 <int_print+0x9c>
		      1fc8:   697a          ldr    r2, [r7, #20]
		      1fca:   6a3b          ldr    r3, [r7, #32]
		      1fcc:   429a          cmp    r2, r3
		->    1fce:   d3f1          bcc.n  1fb4 <int_print+0x80>
		      1fd0:   68bb          ldr    r3, [r7, #8]
		      1fd2:   2b00          cmp    r3, #0
		      1fd4:   da07          bge.n  1fe6 <int_print+0xb2>
		      1fd6:   68bb          ldr    r3, [r7, #8]
		--------------------
	(    1fd4,     1fe6)	jti
		--------------------
		      1fcc:   429a          cmp    r2, r3
		      1fce:   d3f1          bcc.n  1fb4 <int_print+0x80>
		      1fd0:   68bb          ldr    r3, [r7, #8]
		      1fd2:   2b00          cmp    r3, #0
		->    1fd4:   da07          bge.n  1fe6 <int_print+0xb2>
		      1fd6:   68bb          ldr    r3, [r7, #8]
		      1fd8:   425b          negs   r3, r3
		      1fda:   60bb          str    r3, [r7, #8]
		      1fdc:   212d          movs   r1, #45   ; 0x2d
		--------------------
	(    1fe0,     1d08)	jti
		--------------------
		      1fd8:   425b          negs   r3, r3
		      1fda:   60bb          str    r3, [r7, #8]
		      1fdc:   212d          movs   r1, #45   ; 0x2d
		      1fde:   68f8          ldr    r0, [r7, #12]
		->    1fe0:   f7ff fe92     bl 1d08 <buffer_add>
		      1fe4:   e008          b.n    1ff8 <int_print+0xc4>
		      1fe6:   6a7b          ldr    r3, [r7, #36]  ; 0x24
		      1fe8:   f003 0304     and.w  r3, r3, #4
		      1fec:   2b00          cmp    r3, #0
		--------------------
	(    1fee,     1ff0)	jti
		--------------------
		      1fe4:   e008          b.n    1ff8 <int_print+0xc4>
		      1fe6:   6a7b          ldr    r3, [r7, #36]  ; 0x24
		      1fe8:   f003 0304     and.w  r3, r3, #4
		      1fec:   2b00          cmp    r3, #0
		->    1fee:   d003          beq.n  1ff8 <int_print+0xc4>
		      1ff0:   212b          movs   r1, #43   ; 0x2b
		      1ff2:   68f8          ldr    r0, [r7, #12]
		      1ff4:   f7ff fe88     bl 1d08 <buffer_add>
		      1ff8:   6a7b          ldr    r3, [r7, #36]  ; 0x24
		--------------------
	(    2000,     2036)	jti
		--------------------
		      1ff4:   f7ff fe88     bl 1d08 <buffer_add>
		      1ff8:   6a7b          ldr    r3, [r7, #36]  ; 0x24
		      1ffa:   f003 0302     and.w  r3, r3, #2
		      1ffe:   2b00          cmp    r3, #0
		->    2000:   d019          beq.n  2036 <Heap_Size+0x36>
		      2002:   6a7b          ldr    r3, [r7, #36]  ; 0x24
		      2004:   f003 0301     and.w  r3, r3, #1
		      2008:   2b00          cmp    r3, #0
		      200a:   d114          bne.n  2036 <Heap_Size+0x36>
		--------------------
	(    200a,     200c)	jti
		--------------------
		      2000:   d019          beq.n  2036 <Heap_Size+0x36>
		      2002:   6a7b          ldr    r3, [r7, #36]  ; 0x24
		      2004:   f003 0301     and.w  r3, r3, #1
		      2008:   2b00          cmp    r3, #0
		->    200a:   d114          bne.n  2036 <Heap_Size+0x36>
		      200c:   683b          ldr    r3, [r7, #0]
		      200e:   2b00          cmp    r3, #0
		      2010:   d111          bne.n  2036 <Heap_Size+0x36>
		      2012:   6a3b          ldr    r3, [r7, #32]
		--------------------
	(    21e4,     2350)	jt
		--------------------
		      21da:   3b58          subs   r3, #88   ; 0x58
		      21dc:   2b20          cmp    r3, #32
		      21de:   f200 80b7     bhi.w  2350 <nrf_fprintf_fmt+0x2fc>
		      21e2:   a201          add    r2, pc, #4 ; (adr r2, 21e8 <nrf_fprintf_fmt+0x194>)
		->    21e4:   f852 f023     ldr.w  pc, [r2, r3, lsl #2]
		      21e8:   000022d3  .word   0x000022d3
		      21ec:   00002351  .word   0x00002351
		      21f0:   00002351  .word   0x00002351
		      21f4:   00002351  .word   0x00002351
		--------------------
	(    2288,     2352)	jt
		--------------------
		      227e:   7dfb          ldrb   r3, [r7, #23]
		      2280:   4619          mov    r1, r3
		      2282:   68f8          ldr    r0, [r7, #12]
		      2284:   f7ff fd40     bl 1d08 <buffer_add>
		->    2288:   e063          b.n    2352 <nrf_fprintf_fmt+0x2fe>
		      228a:   687b          ldr    r3, [r7, #4]
		      228c:   681b          ldr    r3, [r3, #0]
		      228e:   1d19          adds   r1, r3, #4
		      2290:   687a          ldr    r2, [r7, #4]
		--------------------
	(    22cc,     1e08)	jt
		--------------------
		      22c4:   9300          str    r3, [sp, #0]
		      22c6:   6a7b          ldr    r3, [r7, #36]  ; 0x24
		      22c8:   220a          movs   r2, #10
		      22ca:   68f8          ldr    r0, [r7, #12]
		->    22cc:   f7ff fd9c     bl 1e08 <unsigned_print>
		      22d0:   e03f          b.n    2352 <nrf_fprintf_fmt+0x2fe>
		      22d2:   687b          ldr    r3, [r7, #4]
		      22d4:   681b          ldr    r3, [r3, #0]
		      22d6:   1d19          adds   r1, r3, #4
		--------------------
	(    230c,     2310)	jt
		--------------------
		      2304:   6a3b          ldr    r3, [r7, #32]
		      2306:   69fa          ldr    r2, [r7, #28]
		      2308:   69b9          ldr    r1, [r7, #24]
		      230a:   68f8          ldr    r0, [r7, #12]
		->    230c:   f7ff fd20     bl 1d50 <string_print>
		      2310:   e01f          b.n    2352 <nrf_fprintf_fmt+0x2fe>
		      2312:   687b          ldr    r3, [r7, #4]
		      2314:   681b          ldr    r3, [r3, #0]
		      2316:   1d19          adds   r1, r3, #4
		--------------------
	(    232c,     1d08)	jt
		--------------------
		      2322:   68f8          ldr    r0, [r7, #12]
		      2324:   f7ff fcf0     bl 1d08 <buffer_add>
		      2328:   2178          movs   r1, #120  ; 0x78
		      232a:   68f8          ldr    r0, [r7, #12]
		->    232c:   f7ff fcec     bl 1d08 <buffer_add>
		      2330:   6ab9          ldr    r1, [r7, #40]  ; 0x28
		      2332:   2300          movs   r3, #0
		      2334:   9301          str    r3, [sp, #4]
		      2336:   2308          movs   r3, #8
		--------------------
	(    232c,     2330)	jt
		--------------------
		      2322:   68f8          ldr    r0, [r7, #12]
		      2324:   f7ff fcf0     bl 1d08 <buffer_add>
		      2328:   2178          movs   r1, #120  ; 0x78
		      232a:   68f8          ldr    r0, [r7, #12]
		->    232c:   f7ff fcec     bl 1d08 <buffer_add>
		      2330:   6ab9          ldr    r1, [r7, #40]  ; 0x28
		      2332:   2300          movs   r3, #0
		      2334:   9301          str    r3, [sp, #4]
		      2336:   2308          movs   r3, #8
		--------------------
	(    425e,     4260)	dead
		--------------------
		      4256:   683b          ldr    r3, [r7, #0]
		      4258:   6a5b          ldr    r3, [r3, #36]  ; 0x24
		      425a:   1c5a          adds   r2, r3, #1
		      425c:   683b          ldr    r3, [r7, #0]
		->    425e:   625a          str    r2, [r3, #36]  ; 0x24
		      4260:   370c          adds   r7, #12
		      4262:   46bd          mov    sp, r7
		      4264:   bd90          pop    {r4, r7, pc}
		  
		--------------------
	(    42fc,     4300)	dead
		--------------------
		      42f2:   2b00          cmp    r3, #0
		      42f4:   d031          beq.n  435a <uart_irq_handler+0x8e>
		      42f6:   f44f 7192     mov.w  r1, #292 ; 0x124
		      42fa:   6878          ldr    r0, [r7, #4]
		->    42fc:   f7ff fb40     bl 3980 <nrf_uart_event_clear>
		      4300:   f44f 7101     mov.w  r1, #516 ; 0x204
		      4304:   6878          ldr    r0, [r7, #4]
		      4306:   f7ff fb8b     bl 3a20 <nrf_uart_int_disable>
		      430a:   683b          ldr    r3, [r7, #0]
		--------------------
	(    435e,     4362)	dead
		--------------------
		      4356:   4798          blx    r3
		      4358:   e052          b.n    4400 <uart_irq_handler+0x134>
		      435a:   2104          movs   r1, #4
		      435c:   6878          ldr    r0, [r7, #4]
		->    435e:   f7ff fb4a     bl 39f6 <nrf_uart_int_enable_check>
		      4362:   4603          mov    r3, r0
		      4364:   2b00          cmp    r3, #0
		      4366:   d04b          beq.n  4400 <uart_irq_handler+0x134>
		      4368:   f44f 7184     mov.w  r1, #264 ; 0x108
		--------------------
	(    4366,     4368)	dead
		--------------------
		      435c:   6878          ldr    r0, [r7, #4]
		      435e:   f7ff fb4a     bl 39f6 <nrf_uart_int_enable_check>
		      4362:   4603          mov    r3, r0
		      4364:   2b00          cmp    r3, #0
		->    4366:   d04b          beq.n  4400 <uart_irq_handler+0x134>
		      4368:   f44f 7184     mov.w  r1, #264 ; 0x108
		      436c:   6878          ldr    r0, [r7, #4]
		      436e:   f7ff fb1e     bl 39ae <nrf_uart_event_check>
		      4372:   4603          mov    r3, r0
		--------------------
	(    43c6,     4400)	dead
		--------------------
		      43bc:   6a7a          ldr    r2, [r7, #36]  ; 0x24
		      43be:   6a39          ldr    r1, [r7, #32]
		      43c0:   6838          ldr    r0, [r7, #0]
		      43c2:   f7ff ff50     bl 4266 <rx_done_event>
		->    43c6:   e01b          b.n    4400 <uart_irq_handler+0x134>
		      43c8:   683b          ldr    r3, [r7, #0]
		      43ca:   f893 3029     ldrb.w r3, [r3, #41]   ; 0x29
		      43ce:   f083 0301     eor.w  r3, r3, #1
		      43d2:   b2db          uxtb   r3, r3
		--------------------
	(    4436,     4070)	dead
		--------------------
		      442e:   2b00          cmp    r3, #0
		      4430:   d004          beq.n  443c <uart_irq_handler+0x170>
		      4432:   6839          ldr    r1, [r7, #0]
		      4434:   6878          ldr    r0, [r7, #4]
		->    4436:   f7ff fe1b     bl 4070 <tx_byte>
		      443a:   e00e          b.n    445a <uart_irq_handler+0x18e>
		      443c:   f44f 718e     mov.w  r1, #284 ; 0x11c
		      4440:   6878          ldr    r0, [r7, #4]
		      4442:   f7ff fa9d     bl 3980 <nrf_uart_event_clear>
		--------------------
	(    444c,     445a)	dead
		--------------------
		      4442:   f7ff fa9d     bl 3980 <nrf_uart_event_clear>
		      4446:   683b          ldr    r3, [r7, #0]
		      4448:   695b          ldr    r3, [r3, #20]
		      444a:   2b00          cmp    r3, #0
		->    444c:   d005          beq.n  445a <uart_irq_handler+0x18e>
		      444e:   683b          ldr    r3, [r7, #0]
		      4450:   695b          ldr    r3, [r3, #20]
		      4452:   4619          mov    r1, r3
		      4454:   6838          ldr    r0, [r7, #0]
		--------------------
	(    54be,     54e4)	jt
		--------------------
		      54b6:   3b03          subs   r3, #3
		      54b8:   2b03          cmp    r3, #3
		      54ba:   d813          bhi.n  54e4 <nrf52_errata_31+0x68>
		      54bc:   a201          add    r2, pc, #4 ; (adr r2, 54c4 <nrf52_errata_31+0x48>)
		->    54be:   f852 f023     ldr.w  pc, [r2, r3, lsl #2]
		      54c2:   bf00          nop
		      54c4:   000054d5  .word   0x000054d5
		      54c8:   000054d9  .word   0x000054d9
		      54cc:   000054dd  .word   0x000054dd
		--------------------
	(    55ce,     55e2)	jt
		--------------------
		      55c0:   000055d1  .word   0x000055d1
		      55c4:   000055d5  .word   0x000055d5
		      55c8:   000055d9  .word   0x000055d9
		      55cc:   2301          movs   r3, #1
		->    55ce:   e008          b.n    55e2 <nrf52_errata_36+0x6e>
		      55d0:   2301          movs   r3, #1
		      55d2:   e006          b.n    55e2 <nrf52_errata_36+0x6e>
		      55d4:   2301          movs   r3, #1
		      55d6:   e004          b.n    55e2 <nrf52_errata_36+0x6e>
		--------------------
	(    55d2,     55e2)	jt
		--------------------
		      55c8:   000055d9  .word   0x000055d9
		      55cc:   2301          movs   r3, #1
		      55ce:   e008          b.n    55e2 <nrf52_errata_36+0x6e>
		      55d0:   2301          movs   r3, #1
		->    55d2:   e006          b.n    55e2 <nrf52_errata_36+0x6e>
		      55d4:   2301          movs   r3, #1
		      55d6:   e004          b.n    55e2 <nrf52_errata_36+0x6e>
		      55d8:   2301          movs   r3, #1
		      55da:   e002          b.n    55e2 <nrf52_errata_36+0x6e>
		--------------------
	(    562a,     5640)	jt
		--------------------
		      5622:   3b03          subs   r3, #3
		      5624:   2b03          cmp    r3, #3
		      5626:   d813          bhi.n  5650 <nrf52_errata_37+0x50>
		      5628:   a201          add    r2, pc, #4 ; (adr r2, 5630 <nrf52_errata_37+0x30>)
		->    562a:   f852 f023     ldr.w  pc, [r2, r3, lsl #2]
		      562e:   bf00          nop
		      5630:   00005641  .word   0x00005641
		      5634:   00005645  .word   0x00005645
		      5638:   00005649  .word   0x00005649
		--------------------
	(    5696,     56b0)	jt
		--------------------
		      568e:   3b03          subs   r3, #3
		      5690:   2b03          cmp    r3, #3
		      5692:   d813          bhi.n  56bc <nrf52_errata_57+0x50>
		      5694:   a201          add    r2, pc, #4 ; (adr r2, 569c <nrf52_errata_57+0x30>)
		->    5696:   f852 f023     ldr.w  pc, [r2, r3, lsl #2]
		      569a:   bf00          nop
		      569c:   000056ad  .word   0x000056ad
		      56a0:   000056b1  .word   0x000056b1
		      56a4:   000056b5  .word   0x000056b5
		--------------------
	(    56b2,     56c2)	jt
		--------------------
		      56a8:   000056b9  .word   0x000056b9
		      56ac:   2301          movs   r3, #1
		      56ae:   e008          b.n    56c2 <nrf52_errata_57+0x56>
		      56b0:   2300          movs   r3, #0
		->    56b2:   e006          b.n    56c2 <nrf52_errata_57+0x56>
		      56b4:   2300          movs   r3, #0
		      56b6:   e004          b.n    56c2 <nrf52_errata_57+0x56>
		      56b8:   2300          movs   r3, #0
		      56ba:   e002          b.n    56c2 <nrf52_errata_57+0x56>
		--------------------
	(    57a6,     57c0)	jt
		--------------------
		      579e:   3b03          subs   r3, #3
		      57a0:   2b03          cmp    r3, #3
		      57a2:   d813          bhi.n  57cc <nrf52_errata_108+0x68>
		      57a4:   a201          add    r2, pc, #4 ; (adr r2, 57ac <nrf52_errata_108+0x48>)
		->    57a6:   f852 f023     ldr.w  pc, [r2, r3, lsl #2]
		      57aa:   bf00          nop
		      57ac:   000057bd  .word   0x000057bd
		      57b0:   000057c1  .word   0x000057c1
		      57b4:   000057c5  .word   0x000057c5
		--------------------
	(    57a6,     57c8)	jt
		--------------------
		      579e:   3b03          subs   r3, #3
		      57a0:   2b03          cmp    r3, #3
		      57a2:   d813          bhi.n  57cc <nrf52_errata_108+0x68>
		      57a4:   a201          add    r2, pc, #4 ; (adr r2, 57ac <nrf52_errata_108+0x48>)
		->    57a6:   f852 f023     ldr.w  pc, [r2, r3, lsl #2]
		      57aa:   bf00          nop
		      57ac:   000057bd  .word   0x000057bd
		      57b0:   000057c1  .word   0x000057c1
		      57b4:   000057c5  .word   0x000057c5
		--------------------
	(    5852,     585e)	jt
		--------------------
		      584a:   e008          b.n    585e <nrf52_errata_136+0x6e>
		      584c:   2301          movs   r3, #1
		      584e:   e006          b.n    585e <nrf52_errata_136+0x6e>
		      5850:   2301          movs   r3, #1
		->    5852:   e004          b.n    585e <nrf52_errata_136+0x6e>
		      5854:   2301          movs   r3, #1
		      5856:   e002          b.n    585e <nrf52_errata_136+0x6e>
		      5858:   2301          movs   r3, #1
		      585a:   e000          b.n    585e <nrf52_errata_136+0x6e>
		--------------------
	(    58c2,     58ca)	jt
		--------------------
		      58ba:   e006          b.n    58ca <nrf52_errata_182+0x4e>
		      58bc:   2300          movs   r3, #0
		      58be:   e004          b.n    58ca <nrf52_errata_182+0x4e>
		      58c0:   2301          movs   r3, #1
		->    58c2:   e002          b.n    58ca <nrf52_errata_182+0x4e>
		      58c4:   2301          movs   r3, #1
		      58c6:   e000          b.n    58ca <nrf52_errata_182+0x4e>
		      58c8:   2300          movs   r3, #0
		      58ca:   4618          mov    r0, r3
		--------------------

spi-o1: 20 | 68 | 15 dead
	(     302,      304)	
		--------------------
		       2f8:   f001 f971     bl 15de <nrf_memobj_get>
		       2fc:   950e          str    r5, [sp, #56]  ; 0x38
		       2fe:   940f          str    r4, [sp, #60]  ; 0x3c
		       300:   2400          movs   r4, #0
		->     302:   9410          str    r4, [sp, #64]  ; 0x40
		       304:   f88d 4044     strb.w r4, [sp, #68]   ; 0x44
		       308:   9412          str    r4, [sp, #72]  ; 0x48
		       30a:   9b1a          ldr    r3, [sp, #104] ; 0x68
		       30c:   9313          str    r3, [sp, #76]  ; 0x4c
		--------------------
	(     69c,      6a0)	
		--------------------
		       690:   e92d 43f0     stmdb  sp!, {r4, r5, r6, r7, r8, r9, lr}
		       694:   b085          sub    sp, #20
		       696:   f7ff fff1     bl 67c <buffer_is_empty>
		       69a:   2800          cmp    r0, #0
		->     69c:   f040 810a     bne.w  8b4 <nrf_log_frontend_dequeue+0x224>
		       6a0:   4605          mov    r5, r0
		       6a2:   4885          ldr    r0, [pc, #532] ; (8b8 <nrf_log_frontend_dequeue+0x228>)
		       6a4:   2300          movs   r3, #0
		       6a6:   f8c0 3418     str.w  r3, [r0, #1048]  ; 0x418
		--------------------
	(     83e,      6ea)	
		--------------------
		       834:   4824          ldr    r0, [pc, #144] ; (8c8 <nrf_log_frontend_dequeue+0x238>)
		       836:   f000 fe9f     bl 1578 <nrf_memobj_alloc>
		       83a:   4605          mov    r5, r0
		       83c:   2800          cmp    r0, #0
		->     83e:   f43f af54     beq.w  6ea <nrf_log_frontend_dequeue+0x5a>
		       842:   f000 fecc     bl 15de <nrf_memobj_get>
		       846:   2300          movs   r3, #0
		       848:   2208          movs   r2, #8
		       84a:   4669          mov    r1, sp
		--------------------
	(     83e,      842)	
		--------------------
		       834:   4824          ldr    r0, [pc, #144] ; (8c8 <nrf_log_frontend_dequeue+0x238>)
		       836:   f000 fe9f     bl 1578 <nrf_memobj_alloc>
		       83a:   4605          mov    r5, r0
		       83c:   2800          cmp    r0, #0
		->     83e:   f43f af54     beq.w  6ea <nrf_log_frontend_dequeue+0x5a>
		       842:   f000 fecc     bl 15de <nrf_memobj_get>
		       846:   2300          movs   r3, #0
		       848:   2208          movs   r2, #8
		       84a:   4669          mov    r1, sp
		--------------------
	(    197e,     1980)	
		--------------------
		  00001978 <UARTE0_UART0_IRQHandler>:
		      1978:   b508          push   {r3, lr}
		      197a:   4b02          ldr    r3, [pc, #8]   ; (1984 <UARTE0_UART0_IRQHandler+0xc>)
		      197c:   681b          ldr    r3, [r3, #0]
		->    197e:   4798          blx    r3
		      1980:   bd08          pop    {r3, pc}
		      1982:   bf00          nop
		      1984:   200006b0  .word   0x200006b0
		  
		--------------------
	(    1e2e,     1e30)	dead
		--------------------
		      1e22:   b086          sub    sp, #24
		      1e24:   4b5a          ldr    r3, [pc, #360] ; (1f90 <nrfx_uart_0_irq_handler+0x170>)
		      1e26:   f8d3 3304     ldr.w  r3, [r3, #772]   ; 0x304
		      1e2a:   f413 7f00     tst.w  r3, #512 ; 0x200
		->    1e2e:   d02c          beq.n  1e8a <nrfx_uart_0_irq_handler+0x6a>
		      1e30:   4b57          ldr    r3, [pc, #348] ; (1f90 <nrfx_uart_0_irq_handler+0x170>)
		      1e32:   f8d3 3124     ldr.w  r3, [r3, #292]   ; 0x124
		      1e36:   b343          cbz    r3, 1e8a <nrfx_uart_0_irq_handler+0x6a>
		      1e38:   4b55          ldr    r3, [pc, #340] ; (1f90 <nrfx_uart_0_irq_handler+0x170>)
		--------------------
	(    1e2e,     1e8a)	dead
		--------------------
		      1e22:   b086          sub    sp, #24
		      1e24:   4b5a          ldr    r3, [pc, #360] ; (1f90 <nrfx_uart_0_irq_handler+0x170>)
		      1e26:   f8d3 3304     ldr.w  r3, [r3, #772]   ; 0x304
		      1e2a:   f413 7f00     tst.w  r3, #512 ; 0x200
		->    1e2e:   d02c          beq.n  1e8a <nrfx_uart_0_irq_handler+0x6a>
		      1e30:   4b57          ldr    r3, [pc, #348] ; (1f90 <nrfx_uart_0_irq_handler+0x170>)
		      1e32:   f8d3 3124     ldr.w  r3, [r3, #292]   ; 0x124
		      1e36:   b343          cbz    r3, 1e8a <nrfx_uart_0_irq_handler+0x6a>
		      1e38:   4b55          ldr    r3, [pc, #340] ; (1f90 <nrfx_uart_0_irq_handler+0x170>)
		--------------------
	(    1e56,     1e5e)	dead
		--------------------
		      1e48:   f44f 7201     mov.w  r2, #516 ; 0x204
		      1e4c:   f8c3 2308     str.w  r2, [r3, #776]   ; 0x308
		      1e50:   4b50          ldr    r3, [pc, #320] ; (1f94 <nrfx_uart_0_irq_handler+0x174>)
		      1e52:   f893 3029     ldrb.w r3, [r3, #41]   ; 0x29
		->    1e56:   b913          cbnz   r3, 1e5e <nrfx_uart_0_irq_handler+0x3e>
		      1e58:   4b4d          ldr    r3, [pc, #308] ; (1f90 <nrfx_uart_0_irq_handler+0x170>)
		      1e5a:   2201          movs   r2, #1
		      1e5c:   605a          str    r2, [r3, #4]
		      1e5e:   2302          movs   r3, #2
		--------------------
	(    1e5c,     1e5e)	dead
		--------------------
		      1e52:   f893 3029     ldrb.w r3, [r3, #41]   ; 0x29
		      1e56:   b913          cbnz   r3, 1e5e <nrfx_uart_0_irq_handler+0x3e>
		      1e58:   4b4d          ldr    r3, [pc, #308] ; (1f90 <nrfx_uart_0_irq_handler+0x170>)
		      1e5a:   2201          movs   r2, #1
		->    1e5c:   605a          str    r2, [r3, #4]
		      1e5e:   2302          movs   r3, #2
		      1e60:   f88d 3008     strb.w r3, [sp, #8]
		      1e64:   4a4a          ldr    r2, [pc, #296] ; (1f90 <nrfx_uart_0_irq_handler+0x170>)
		      1e66:   f8d2 3480     ldr.w  r3, [r2, #1152]  ; 0x480
		--------------------
	(    1e86,     1e88)	dead
		--------------------
		      1e7e:   61da          str    r2, [r3, #28]
		      1e80:   685a          ldr    r2, [r3, #4]
		      1e82:   6819          ldr    r1, [r3, #0]
		      1e84:   a802          add    r0, sp, #8
		->    1e86:   4790          blx    r2
		      1e88:   e00a          b.n    1ea0 <nrfx_uart_0_irq_handler+0x80>
		      1e8a:   4b41          ldr    r3, [pc, #260] ; (1f90 <nrfx_uart_0_irq_handler+0x170>)
		      1e8c:   f8d3 3304     ldr.w  r3, [r3, #772]   ; 0x304
		      1e90:   f013 0f04     tst.w  r3, #4
		--------------------
	(    1e88,     1ea0)	dead
		--------------------
		      1e80:   685a          ldr    r2, [r3, #4]
		      1e82:   6819          ldr    r1, [r3, #0]
		      1e84:   a802          add    r0, sp, #8
		      1e86:   4790          blx    r2
		->    1e88:   e00a          b.n    1ea0 <nrfx_uart_0_irq_handler+0x80>
		      1e8a:   4b41          ldr    r3, [pc, #260] ; (1f90 <nrfx_uart_0_irq_handler+0x170>)
		      1e8c:   f8d3 3304     ldr.w  r3, [r3, #772]   ; 0x304
		      1e90:   f013 0f04     tst.w  r3, #4
		      1e94:   d004          beq.n  1ea0 <nrfx_uart_0_irq_handler+0x80>
		--------------------
	(    1e9e,     1f06)	dead
		--------------------
		      1e94:   d004          beq.n  1ea0 <nrfx_uart_0_irq_handler+0x80>
		      1e96:   4b3e          ldr    r3, [pc, #248] ; (1f90 <nrfx_uart_0_irq_handler+0x170>)
		      1e98:   f8d3 3108     ldr.w  r3, [r3, #264]   ; 0x108
		      1e9c:   2b00          cmp    r3, #0
		->    1e9e:   d132          bne.n  1f06 <nrfx_uart_0_irq_handler+0xe6>
		      1ea0:   4b3b          ldr    r3, [pc, #236] ; (1f90 <nrfx_uart_0_irq_handler+0x170>)
		      1ea2:   f8d3 311c     ldr.w  r3, [r3, #284]   ; 0x11c
		      1ea6:   b1ab          cbz    r3, 1ed4 <nrfx_uart_0_irq_handler+0xb4>
		      1ea8:   4b3a          ldr    r3, [pc, #232] ; (1f94 <nrfx_uart_0_irq_handler+0x174>)
		--------------------
	(    1ea6,     1ed4)	dead
		--------------------
		      1e9c:   2b00          cmp    r3, #0
		      1e9e:   d132          bne.n  1f06 <nrfx_uart_0_irq_handler+0xe6>
		      1ea0:   4b3b          ldr    r3, [pc, #236] ; (1f90 <nrfx_uart_0_irq_handler+0x170>)
		      1ea2:   f8d3 311c     ldr.w  r3, [r3, #284]   ; 0x11c
		->    1ea6:   b1ab          cbz    r3, 1ed4 <nrfx_uart_0_irq_handler+0xb4>
		      1ea8:   4b3a          ldr    r3, [pc, #232] ; (1f94 <nrfx_uart_0_irq_handler+0x174>)
		      1eaa:   695a          ldr    r2, [r3, #20]
		      1eac:   6a1b          ldr    r3, [r3, #32]
		      1eae:   429a          cmp    r2, r3
		--------------------
	(    1eb0,     1eb2)	dead
		--------------------
		      1ea8:   4b3a          ldr    r3, [pc, #232] ; (1f94 <nrfx_uart_0_irq_handler+0x174>)
		      1eaa:   695a          ldr    r2, [r3, #20]
		      1eac:   6a1b          ldr    r3, [r3, #32]
		      1eae:   429a          cmp    r2, r3
		->    1eb0:   d904          bls.n  1ebc <nrfx_uart_0_irq_handler+0x9c>
		      1eb2:   4b38          ldr    r3, [pc, #224] ; (1f94 <nrfx_uart_0_irq_handler+0x174>)
		      1eb4:   f893 3028     ldrb.w r3, [r3, #40]   ; 0x28
		      1eb8:   2b00          cmp    r3, #0
		      1eba:   d04f          beq.n  1f5c <nrfx_uart_0_irq_handler+0x13c>
		--------------------
	(    1ef2,     1ef4)	dead
		--------------------
		      1ee8:   9302          str    r3, [sp, #8]
		      1eea:   9b02          ldr    r3, [sp, #8]
		      1eec:   4b29          ldr    r3, [pc, #164] ; (1f94 <nrfx_uart_0_irq_handler+0x174>)
		      1eee:   f893 3029     ldrb.w r3, [r3, #41]   ; 0x29
		->    1ef2:   b113          cbz    r3, 1efa <nrfx_uart_0_irq_handler+0xda>
		      1ef4:   4b26          ldr    r3, [pc, #152] ; (1f90 <nrfx_uart_0_irq_handler+0x170>)
		      1ef6:   2201          movs   r2, #1
		      1ef8:   601a          str    r2, [r3, #0]
		      1efa:   4b26          ldr    r3, [pc, #152] ; (1f94 <nrfx_uart_0_irq_handler+0x174>)
		--------------------
	(    1f00,     1f02)	dead
		--------------------
		      1ef8:   601a          str    r2, [r3, #0]
		      1efa:   4b26          ldr    r3, [pc, #152] ; (1f94 <nrfx_uart_0_irq_handler+0x174>)
		      1efc:   699b          ldr    r3, [r3, #24]
		      1efe:   2b00          cmp    r3, #0
		->    1f00:   d13e          bne.n  1f80 <nrfx_uart_0_irq_handler+0x160>
		      1f02:   b006          add    sp, #24
		      1f04:   bd10          pop    {r4, pc}
		      1f06:   4c23          ldr    r4, [pc, #140] ; (1f94 <nrfx_uart_0_irq_handler+0x174>)
		      1f08:   4621          mov    r1, r4
		--------------------
	(    1f22,     1f24)	dead
		--------------------
		      1f18:   69e3          ldr    r3, [r4, #28]
		      1f1a:   b99b          cbnz   r3, 1f44 <nrfx_uart_0_irq_handler+0x124>
		      1f1c:   4b1d          ldr    r3, [pc, #116] ; (1f94 <nrfx_uart_0_irq_handler+0x174>)
		      1f1e:   f893 3029     ldrb.w r3, [r3, #41]   ; 0x29
		->    1f22:   b913          cbnz   r3, 1f2a <nrfx_uart_0_irq_handler+0x10a>
		      1f24:   4b1a          ldr    r3, [pc, #104] ; (1f90 <nrfx_uart_0_irq_handler+0x170>)
		      1f26:   2201          movs   r2, #1
		      1f28:   605a          str    r2, [r3, #4]
		      1f2a:   4b19          ldr    r3, [pc, #100] ; (1f90 <nrfx_uart_0_irq_handler+0x170>)
		--------------------
	(    1f60,     1f64)	dead
		--------------------
		      1f56:   f7ff ff54     bl 1e02 <rx_done_event>
		      1f5a:   e7a1          b.n    1ea0 <nrfx_uart_0_irq_handler+0x80>
		      1f5c:   490d          ldr    r1, [pc, #52]  ; (1f94 <nrfx_uart_0_irq_handler+0x174>)
		      1f5e:   480c          ldr    r0, [pc, #48]  ; (1f90 <nrfx_uart_0_irq_handler+0x170>)
		->    1f60:   f7ff ff20     bl 1da4 <tx_byte>
		      1f64:   e7b6          b.n    1ed4 <nrfx_uart_0_irq_handler+0xb4>
		      1f66:   4b0b          ldr    r3, [pc, #44]  ; (1f94 <nrfx_uart_0_irq_handler+0x174>)
		      1f68:   6959          ldr    r1, [r3, #20]
		      1f6a:   f88d 2008     strb.w r2, [sp, #8]
		--------------------
	(    1f64,     1ed4)	dead
		--------------------
		      1f5a:   e7a1          b.n    1ea0 <nrfx_uart_0_irq_handler+0x80>
		      1f5c:   490d          ldr    r1, [pc, #52]  ; (1f94 <nrfx_uart_0_irq_handler+0x174>)
		      1f5e:   480c          ldr    r0, [pc, #48]  ; (1f90 <nrfx_uart_0_irq_handler+0x170>)
		      1f60:   f7ff ff20     bl 1da4 <tx_byte>
		->    1f64:   e7b6          b.n    1ed4 <nrfx_uart_0_irq_handler+0xb4>
		      1f66:   4b0b          ldr    r3, [pc, #44]  ; (1f94 <nrfx_uart_0_irq_handler+0x174>)
		      1f68:   6959          ldr    r1, [r3, #20]
		      1f6a:   f88d 2008     strb.w r2, [sp, #8]
		      1f6e:   9104          str    r1, [sp, #16]
		--------------------
	(    1f7e,     1ed4)	dead
		--------------------
		      1f76:   685a          ldr    r2, [r3, #4]
		      1f78:   6819          ldr    r1, [r3, #0]
		      1f7a:   a802          add    r0, sp, #8
		      1f7c:   4790          blx    r2
		->    1f7e:   e7a9          b.n    1ed4 <nrfx_uart_0_irq_handler+0xb4>
		      1f80:   4804          ldr    r0, [pc, #16]  ; (1f94 <nrfx_uart_0_irq_handler+0x174>)
		      1f82:   2300          movs   r3, #0
		      1f84:   6183          str    r3, [r0, #24]
		      1f86:   6a41          ldr    r1, [r0, #36]  ; 0x24
		--------------------

spi-o2: 20 | 52 | 15 dead
	(     202,      204)	
		--------------------
		      ...
		  
		  00000200 <__do_global_dtors_aux>:
		       200:   b510          push   {r4, lr}
		->     202:   4c05          ldr    r4, [pc, #20]  ; (218 <__do_global_dtors_aux+0x18>)
		       204:   7823          ldrb   r3, [r4, #0]
		       206:   b933          cbnz   r3, 216 <__do_global_dtors_aux+0x16>
		       208:   4b04          ldr    r3, [pc, #16]  ; (21c <__do_global_dtors_aux+0x1c>)
		       20a:   b113          cbz    r3, 212 <__do_global_dtors_aux+0x12>
		--------------------
	(     6c4,      6dc)	
		--------------------
		       6ba:   3901          subs   r1, #1
		       6bc:   eb03 00c0     add.w  r0, r3, r0, lsl #3
		       6c0:   2903          cmp    r1, #3
		       6c2:   d80b          bhi.n  6dc <nrf_log_color_id_get+0x24>
		->     6c4:   e8df f001     tbb    [pc, r1]
		       6c8:   06080204  .word   0x06080204
		       6cc:   2004          movs   r0, #4
		       6ce:   4770          bx lr
		       6d0:   2002          movs   r0, #2
		--------------------
	(     bd4,      be8)	
		--------------------
		       bca:   4628          mov    r0, r5
		       bcc:   f7ff ffae     bl b2c <prefix_process.constprop.0>
		       bd0:   2f06          cmp    r7, #6
		       bd2:   d809          bhi.n  be8 <nrf_log_std_entry_process+0x38>
		->     bd4:   e8df f007     tbb    [pc, r7]
		       bd8:   3b342e04  .word   0x3b342e04
		       bdc:   4f44          .short 0x4f44
		       bde:   1f            .byte    0x1f
		       bdf:   00            .byte    0x00
		--------------------
	(     e72,      e74)	
		--------------------
		       e68:   4b0e          ldr    r3, [pc, #56]  ; (ea4 <app_error_fault_handler+0x60>)
		       e6a:   f8d3 30f0     ldr.w  r3, [r3, #240]   ; 0xf0
		       e6e:   07db          lsls   r3, r3, #31
		       e70:   d500          bpl.n  e74 <app_error_fault_handler+0x30>
		->     e72:   be00          bkpt   0x0000
		       e74:   490c          ldr    r1, [pc, #48]  ; (ea8 <app_error_fault_handler+0x64>)
		       e76:   f044 0002     orr.w  r0, r4, #2
		       e7a:   f7ff fddd     bl a38 <nrf_log_frontend_std_0>
		       e7e:   f3bf 8f4f     dsb    sy
		--------------------
	(    1fda,     1fdc)	dead
		--------------------
		      1fd0:   a806          add    r0, sp, #24
		      1fd2:   47a0          blx    r4
		      1fd4:   4a56          ldr    r2, [pc, #344] ; (2130 <Heap_Size+0x130>)
		      1fd6:   f8d2 311c     ldr.w  r3, [r2, #284]   ; 0x11c
		->    1fda:   b1c3          cbz    r3, 200e <Heap_Size+0xe>
		      1fdc:   4b55          ldr    r3, [pc, #340] ; (2134 <Heap_Size+0x134>)
		      1fde:   6958          ldr    r0, [r3, #20]
		      1fe0:   6a19          ldr    r1, [r3, #32]
		      1fe2:   4288          cmp    r0, r1
		--------------------
	(    1fe4,     1fe6)	dead
		--------------------
		      1fdc:   4b55          ldr    r3, [pc, #340] ; (2134 <Heap_Size+0x134>)
		      1fde:   6958          ldr    r0, [r3, #20]
		      1fe0:   6a19          ldr    r1, [r3, #32]
		      1fe2:   4288          cmp    r0, r1
		->    1fe4:   d96a          bls.n  20bc <Heap_Size+0xbc>
		      1fe6:   f893 1028     ldrb.w r1, [r3, #40]   ; 0x28
		      1fea:   f001 00ff     and.w  r0, r1, #255 ; 0xff
		      1fee:   2900          cmp    r1, #0
		      1ff0:   d164          bne.n  20bc <Heap_Size+0xbc>
		--------------------
	(    2014,     2016)	dead
		--------------------
		      2008:   6219          str    r1, [r3, #32]
		      200a:   f8c2 051c     str.w  r0, [r2, #1308]  ; 0x51c
		      200e:   4a48          ldr    r2, [pc, #288] ; (2130 <Heap_Size+0x130>)
		      2010:   f8d2 3144     ldr.w  r3, [r2, #324]   ; 0x144
		->    2014:   b1db          cbz    r3, 204e <Heap_Size+0x4e>
		      2016:   2100          movs   r1, #0
		      2018:   4b46          ldr    r3, [pc, #280] ; (2134 <Heap_Size+0x134>)
		      201a:   f8c2 1144     str.w  r1, [r2, #324]   ; 0x144
		      201e:   f8d2 0144     ldr.w  r0, [r2, #324]   ; 0x144
		--------------------
	(    202e,     2030)	dead
		--------------------
		      2026:   9000          str    r0, [sp, #0]
		      2028:   9800          ldr    r0, [sp, #0]
		      202a:   b109          cbz    r1, 2030 <Heap_Size+0x30>
		      202c:   2101          movs   r1, #1
		->    202e:   6011          str    r1, [r2, #0]
		      2030:   699a          ldr    r2, [r3, #24]
		      2032:   b162          cbz    r2, 204e <Heap_Size+0x4e>
		      2034:   68d8          ldr    r0, [r3, #12]
		      2036:   6a5c          ldr    r4, [r3, #36]  ; 0x24
		--------------------
	(    2032,     204e)	dead
		--------------------
		      202a:   b109          cbz    r1, 2030 <Heap_Size+0x30>
		      202c:   2101          movs   r1, #1
		      202e:   6011          str    r1, [r2, #0]
		      2030:   699a          ldr    r2, [r3, #24]
		->    2032:   b162          cbz    r2, 204e <Heap_Size+0x4e>
		      2034:   68d8          ldr    r0, [r3, #12]
		      2036:   6a5c          ldr    r4, [r3, #36]  ; 0x24
		      2038:   2100          movs   r1, #0
		      203a:   2201          movs   r2, #1
		--------------------
	(    2062,     2064)	dead
		--------------------
		      2058:   075b          lsls   r3, r3, #29
		      205a:   d5bb          bpl.n  1fd4 <nrfx_uart_0_irq_handler+0x60>
		      205c:   f8d2 3108     ldr.w  r3, [r2, #264]   ; 0x108
		      2060:   2b00          cmp    r3, #0
		->    2062:   d0b7          beq.n  1fd4 <nrfx_uart_0_irq_handler+0x60>
		      2064:   4b33          ldr    r3, [pc, #204] ; (2134 <Heap_Size+0x134>)
		      2066:   6999          ldr    r1, [r3, #24]
		      2068:   2900          cmp    r1, #0
		      206a:   d03e          beq.n  20ea <Heap_Size+0xea>
		--------------------
	(    206a,     206c)	dead
		--------------------
		      2062:   d0b7          beq.n  1fd4 <nrfx_uart_0_irq_handler+0x60>
		      2064:   4b33          ldr    r3, [pc, #204] ; (2134 <Heap_Size+0x134>)
		      2066:   6999          ldr    r1, [r3, #24]
		      2068:   2900          cmp    r1, #0
		->    206a:   d03e          beq.n  20ea <Heap_Size+0xea>
		      206c:   2100          movs   r1, #0
		      206e:   f8c2 1108     str.w  r1, [r2, #264]   ; 0x108
		      2072:   f8d2 1108     ldr.w  r1, [r2, #264]   ; 0x108
		      2076:   9104          str    r1, [sp, #16]
		--------------------
	(    2090,     1fd4)	dead
		--------------------
		      2088:   3201          adds   r2, #1
		      208a:   625a          str    r2, [r3, #36]  ; 0x24
		      208c:   6a5a          ldr    r2, [r3, #36]  ; 0x24
		      208e:   428a          cmp    r2, r1
		->    2090:   d1a0          bne.n  1fd4 <nrfx_uart_0_irq_handler+0x60>
		      2092:   69da          ldr    r2, [r3, #28]
		      2094:   2a00          cmp    r2, #0
		      2096:   d031          beq.n  20fc <Heap_Size+0xfc>
		      2098:   619a          str    r2, [r3, #24]
		--------------------
	(    2090,     2092)	dead
		--------------------
		      2088:   3201          adds   r2, #1
		      208a:   625a          str    r2, [r3, #36]  ; 0x24
		      208c:   6a5a          ldr    r2, [r3, #36]  ; 0x24
		      208e:   428a          cmp    r2, r1
		->    2090:   d1a0          bne.n  1fd4 <nrfx_uart_0_irq_handler+0x60>
		      2092:   69da          ldr    r2, [r3, #28]
		      2094:   2a00          cmp    r2, #0
		      2096:   d031          beq.n  20fc <Heap_Size+0xfc>
		      2098:   619a          str    r2, [r3, #24]
		--------------------
	(    20d0,     200e)	dead
		--------------------
		      20c8:   9202          str    r2, [sp, #8]
		      20ca:   9a02          ldr    r2, [sp, #8]
		      20cc:   695a          ldr    r2, [r3, #20]
		      20ce:   2a00          cmp    r2, #0
		->    20d0:   d09d          beq.n  200e <Heap_Size+0xe>
		      20d2:   e9d3 2101     ldrd   r2, r1, [r3, #4]
		      20d6:   695c          ldr    r4, [r3, #20]
		      20d8:   f88d 0018     strb.w r0, [sp, #24]
		      20dc:   e9cd 1407     strd   r1, r4, [sp, #28]
		--------------------
	(    20d0,     20d2)	dead
		--------------------
		      20c8:   9202          str    r2, [sp, #8]
		      20ca:   9a02          ldr    r2, [sp, #8]
		      20cc:   695a          ldr    r2, [r3, #20]
		      20ce:   2a00          cmp    r2, #0
		->    20d0:   d09d          beq.n  200e <Heap_Size+0xe>
		      20d2:   e9d3 2101     ldrd   r2, r1, [r3, #4]
		      20d6:   695c          ldr    r4, [r3, #20]
		      20d8:   f88d 0018     strb.w r0, [sp, #24]
		      20dc:   e9cd 1407     strd   r1, r4, [sp, #28]
		--------------------
	(    20e6,     20e8)	dead
		--------------------
		      20dc:   e9cd 1407     strd   r1, r4, [sp, #28]
		      20e0:   6158          str    r0, [r3, #20]
		      20e2:   6819          ldr    r1, [r3, #0]
		      20e4:   a806          add    r0, sp, #24
		->    20e6:   4790          blx    r2
		      20e8:   e791          b.n    200e <Heap_Size+0xe>
		      20ea:   f8c2 1108     str.w  r1, [r2, #264]   ; 0x108
		      20ee:   f8d2 0108     ldr.w  r0, [r2, #264]   ; 0x108
		      20f2:   9005          str    r0, [sp, #20]
		--------------------
	(    20fa,     208c)	dead
		--------------------
		      20ee:   f8d2 0108     ldr.w  r0, [r2, #264]   ; 0x108
		      20f2:   9005          str    r0, [sp, #20]
		      20f4:   9805          ldr    r0, [sp, #20]
		      20f6:   f8d2 2518     ldr.w  r2, [r2, #1304]  ; 0x518
		->    20fa:   e7c7          b.n    208c <Heap_Size+0x8c>
		      20fc:   f893 2029     ldrb.w r2, [r3, #41]   ; 0x29
		      2100:   b912          cbnz   r2, 2108 <Heap_Size+0x108>
		      2102:   4a0b          ldr    r2, [pc, #44]  ; (2130 <Heap_Size+0x130>)
		      2104:   2101          movs   r1, #1
		--------------------
	(    2100,     2102)	dead
		--------------------
		      20f4:   9805          ldr    r0, [sp, #20]
		      20f6:   f8d2 2518     ldr.w  r2, [r2, #1304]  ; 0x518
		      20fa:   e7c7          b.n    208c <Heap_Size+0x8c>
		      20fc:   f893 2029     ldrb.w r2, [r3, #41]   ; 0x29
		->    2100:   b912          cbnz   r2, 2108 <Heap_Size+0x108>
		      2102:   4a0b          ldr    r2, [pc, #44]  ; (2130 <Heap_Size+0x130>)
		      2104:   2101          movs   r1, #1
		      2106:   6051          str    r1, [r2, #4]
		      2108:   4a09          ldr    r2, [pc, #36]  ; (2130 <Heap_Size+0x130>)
		--------------------
	(    2106,     2108)	dead
		--------------------
		      20fc:   f893 2029     ldrb.w r2, [r3, #41]   ; 0x29
		      2100:   b912          cbnz   r2, 2108 <Heap_Size+0x108>
		      2102:   4a0b          ldr    r2, [pc, #44]  ; (2130 <Heap_Size+0x130>)
		      2104:   2101          movs   r1, #1
		->    2106:   6051          str    r1, [r2, #4]
		      2108:   4a09          ldr    r2, [pc, #36]  ; (2130 <Heap_Size+0x130>)
		      210a:   f44f 7101     mov.w  r1, #516 ; 0x204
		      210e:   f8c2 1308     str.w  r1, [r2, #776]   ; 0x308
		      2112:   68d8          ldr    r0, [r3, #12]
		--------------------
	(    2dc0,     2b36)	
		--------------------
		      2db6:   f43f aebe     beq.w  2b36 <SystemInit+0x3a>
		      2dba:   4b17          ldr    r3, [pc, #92]  ; (2e18 <SystemInit+0x31c>)
		      2dbc:   4a17          ldr    r2, [pc, #92]  ; (2e1c <SystemInit+0x320>)
		      2dbe:   675a          str    r2, [r3, #116] ; 0x74
		->    2dc0:   e6b9          b.n    2b36 <SystemInit+0x3a>
		      2dc2:   4a17          ldr    r2, [pc, #92]  ; (2e20 <SystemInit+0x324>)
		      2dc4:   5cd3          ldrb   r3, [r2, r3]
		      2dc6:   2b00          cmp    r3, #0
		      2dc8:   f43f af08     beq.w  2bdc <SystemInit+0xe0>
		--------------------

spi-o3: 20 | 53 | 19 dead | 1 ft
	(     844,      848)	ft
		--------------------
		       838:   f000 ff5e     bl 16f8 <nrf_memobj_alloc>
		       83c:   4607          mov    r7, r0
		       83e:   2800          cmp    r0, #0
		       840:   f43f af62     beq.w  708 <nrf_log_frontend_dequeue+0x84>
		->     844:   f000 ffa2     bl 178c <nrf_memobj_get>
		       848:   2300          movs   r3, #0
		       84a:   2208          movs   r2, #8
		       84c:   a901          add    r1, sp, #4
		       84e:   4638          mov    r0, r7
		--------------------
	(    19e2,     19e4)	dead
		--------------------
		      19d8:   9501          str    r5, [sp, #4]
		      19da:   f88d 4008     strb.w r4, [sp, #8]
		      19de:   9203          str    r2, [sp, #12]
		      19e0:   4668          mov    r0, sp
		->    19e2:   4798          blx    r3
		      19e4:   b005          add    sp, #20
		      19e6:   bd30          pop    {r4, r5, pc}
		      19e8:   20000650  .word   0x20000650
		      19ec:   2000064c  .word   0x2000064c
		--------------------
	(    22cc,     22ce)	dead
		--------------------
		      22c2:   4a71          ldr    r2, [pc, #452] ; (2488 <nrfx_uart_0_irq_handler+0x1c8>)
		      22c4:   f8d2 3304     ldr.w  r3, [r2, #772]   ; 0x304
		      22c8:   0599          lsls   r1, r3, #22
		      22ca:   b08a          sub    sp, #40    ; 0x28
		->    22cc:   d568          bpl.n  23a0 <nrfx_uart_0_irq_handler+0xe0>
		      22ce:   f8d2 3124     ldr.w  r3, [r2, #292]   ; 0x124
		      22d2:   2b00          cmp    r3, #0
		      22d4:   d064          beq.n  23a0 <nrfx_uart_0_irq_handler+0xe0>
		      22d6:   2300          movs   r3, #0
		--------------------
	(    22d4,     23a0)	dead
		--------------------
		      22ca:   b08a          sub    sp, #40    ; 0x28
		      22cc:   d568          bpl.n  23a0 <nrfx_uart_0_irq_handler+0xe0>
		      22ce:   f8d2 3124     ldr.w  r3, [r2, #292]   ; 0x124
		      22d2:   2b00          cmp    r3, #0
		->    22d4:   d064          beq.n  23a0 <nrfx_uart_0_irq_handler+0xe0>
		      22d6:   2300          movs   r3, #0
		      22d8:   f8c2 3124     str.w  r3, [r2, #292]   ; 0x124
		      22dc:   f8d2 3124     ldr.w  r3, [r2, #292]   ; 0x124
		      22e0:   9301          str    r3, [sp, #4]
		--------------------
	(    2320,     2322)	dead
		--------------------
		      2314:   ed83 7b06     vstr   d7, [r3, #24]
		      2318:   e9d3 1200     ldrd   r1, r2, [r3]
		      231c:   9007          str    r0, [sp, #28]
		      231e:   a806          add    r0, sp, #24
		->    2320:   4790          blx    r2
		      2322:   4a59          ldr    r2, [pc, #356] ; (2488 <nrfx_uart_0_irq_handler+0x1c8>)
		      2324:   f8d2 311c     ldr.w  r3, [r2, #284]   ; 0x11c
		      2328:   b1c3          cbz    r3, 235c <nrfx_uart_0_irq_handler+0x9c>
		      232a:   4b58          ldr    r3, [pc, #352] ; (248c <nrfx_uart_0_irq_handler+0x1cc>)
		--------------------
	(    2328,     235c)	dead
		--------------------
		      231e:   a806          add    r0, sp, #24
		      2320:   4790          blx    r2
		      2322:   4a59          ldr    r2, [pc, #356] ; (2488 <nrfx_uart_0_irq_handler+0x1c8>)
		      2324:   f8d2 311c     ldr.w  r3, [r2, #284]   ; 0x11c
		->    2328:   b1c3          cbz    r3, 235c <nrfx_uart_0_irq_handler+0x9c>
		      232a:   4b58          ldr    r3, [pc, #352] ; (248c <nrfx_uart_0_irq_handler+0x1cc>)
		      232c:   6958          ldr    r0, [r3, #20]
		      232e:   6a19          ldr    r1, [r3, #32]
		      2330:   4288          cmp    r0, r1
		--------------------
	(    233e,     2340)	dead
		--------------------
		      2332:   d96a          bls.n  240a <nrfx_uart_0_irq_handler+0x14a>
		      2334:   f893 1028     ldrb.w r1, [r3, #40]   ; 0x28
		      2338:   f001 00ff     and.w  r0, r1, #255 ; 0xff
		      233c:   2900          cmp    r1, #0
		->    233e:   d164          bne.n  240a <nrfx_uart_0_irq_handler+0x14a>
		      2340:   f8c2 011c     str.w  r0, [r2, #284]   ; 0x11c
		      2344:   f8d2 111c     ldr.w  r1, [r2, #284]   ; 0x11c
		      2348:   9103          str    r1, [sp, #12]
		      234a:   9903          ldr    r1, [sp, #12]
		--------------------
	(    233e,     240a)	dead
		--------------------
		      2332:   d96a          bls.n  240a <nrfx_uart_0_irq_handler+0x14a>
		      2334:   f893 1028     ldrb.w r1, [r3, #40]   ; 0x28
		      2338:   f001 00ff     and.w  r0, r1, #255 ; 0xff
		      233c:   2900          cmp    r1, #0
		->    233e:   d164          bne.n  240a <nrfx_uart_0_irq_handler+0x14a>
		      2340:   f8c2 011c     str.w  r0, [r2, #284]   ; 0x11c
		      2344:   f8d2 111c     ldr.w  r1, [r2, #284]   ; 0x11c
		      2348:   9103          str    r1, [sp, #12]
		      234a:   9903          ldr    r1, [sp, #12]
		--------------------
	(    2358,     235c)	dead
		--------------------
		      2350:   6a19          ldr    r1, [r3, #32]
		      2352:   5c20          ldrb   r0, [r4, r0]
		      2354:   3101          adds   r1, #1
		      2356:   6219          str    r1, [r3, #32]
		->    2358:   f8c2 051c     str.w  r0, [r2, #1308]  ; 0x51c
		      235c:   4a4a          ldr    r2, [pc, #296] ; (2488 <nrfx_uart_0_irq_handler+0x1c8>)
		      235e:   f8d2 3144     ldr.w  r3, [r2, #324]   ; 0x144
		      2362:   b1db          cbz    r3, 239c <nrfx_uart_0_irq_handler+0xdc>
		      2364:   2100          movs   r1, #0
		--------------------
	(    2362,     2364)	dead
		--------------------
		      2356:   6219          str    r1, [r3, #32]
		      2358:   f8c2 051c     str.w  r0, [r2, #1308]  ; 0x51c
		      235c:   4a4a          ldr    r2, [pc, #296] ; (2488 <nrfx_uart_0_irq_handler+0x1c8>)
		      235e:   f8d2 3144     ldr.w  r3, [r2, #324]   ; 0x144
		->    2362:   b1db          cbz    r3, 239c <nrfx_uart_0_irq_handler+0xdc>
		      2364:   2100          movs   r1, #0
		      2366:   4b49          ldr    r3, [pc, #292] ; (248c <nrfx_uart_0_irq_handler+0x1cc>)
		      2368:   f8c2 1144     str.w  r1, [r2, #324]   ; 0x144
		      236c:   f8d2 0144     ldr.w  r0, [r2, #324]   ; 0x144
		--------------------
	(    2378,     237a)	dead
		--------------------
		      236c:   f8d2 0144     ldr.w  r0, [r2, #324]   ; 0x144
		      2370:   f893 1029     ldrb.w r1, [r3, #41]   ; 0x29
		      2374:   9000          str    r0, [sp, #0]
		      2376:   9800          ldr    r0, [sp, #0]
		->    2378:   b109          cbz    r1, 237e <nrfx_uart_0_irq_handler+0xbe>
		      237a:   2101          movs   r1, #1
		      237c:   6011          str    r1, [r2, #0]
		      237e:   699a          ldr    r2, [r3, #24]
		      2380:   b162          cbz    r2, 239c <nrfx_uart_0_irq_handler+0xdc>
		--------------------
	(    23a8,     23aa)	dead
		--------------------
		      239e:   bd10          pop    {r4, pc}
		      23a0:   4a39          ldr    r2, [pc, #228] ; (2488 <nrfx_uart_0_irq_handler+0x1c8>)
		      23a2:   f8d2 3304     ldr.w  r3, [r2, #772]   ; 0x304
		      23a6:   075b          lsls   r3, r3, #29
		->    23a8:   d5bb          bpl.n  2322 <nrfx_uart_0_irq_handler+0x62>
		      23aa:   f8d2 3108     ldr.w  r3, [r2, #264]   ; 0x108
		      23ae:   2b00          cmp    r3, #0
		      23b0:   d0b7          beq.n  2322 <nrfx_uart_0_irq_handler+0x62>
		      23b2:   4b36          ldr    r3, [pc, #216] ; (248c <nrfx_uart_0_irq_handler+0x1cc>)
		--------------------
	(    23b0,     2322)	dead
		--------------------
		      23a6:   075b          lsls   r3, r3, #29
		      23a8:   d5bb          bpl.n  2322 <nrfx_uart_0_irq_handler+0x62>
		      23aa:   f8d2 3108     ldr.w  r3, [r2, #264]   ; 0x108
		      23ae:   2b00          cmp    r3, #0
		->    23b0:   d0b7          beq.n  2322 <nrfx_uart_0_irq_handler+0x62>
		      23b2:   4b36          ldr    r3, [pc, #216] ; (248c <nrfx_uart_0_irq_handler+0x1cc>)
		      23b4:   6999          ldr    r1, [r3, #24]
		      23b6:   2900          cmp    r1, #0
		      23b8:   d03e          beq.n  2438 <nrfx_uart_0_irq_handler+0x178>
		--------------------
	(    23b0,     23b2)	dead
		--------------------
		      23a6:   075b          lsls   r3, r3, #29
		      23a8:   d5bb          bpl.n  2322 <nrfx_uart_0_irq_handler+0x62>
		      23aa:   f8d2 3108     ldr.w  r3, [r2, #264]   ; 0x108
		      23ae:   2b00          cmp    r3, #0
		->    23b0:   d0b7          beq.n  2322 <nrfx_uart_0_irq_handler+0x62>
		      23b2:   4b36          ldr    r3, [pc, #216] ; (248c <nrfx_uart_0_irq_handler+0x1cc>)
		      23b4:   6999          ldr    r1, [r3, #24]
		      23b6:   2900          cmp    r1, #0
		      23b8:   d03e          beq.n  2438 <nrfx_uart_0_irq_handler+0x178>
		--------------------
	(    23b8,     23ba)	dead
		--------------------
		      23b0:   d0b7          beq.n  2322 <nrfx_uart_0_irq_handler+0x62>
		      23b2:   4b36          ldr    r3, [pc, #216] ; (248c <nrfx_uart_0_irq_handler+0x1cc>)
		      23b4:   6999          ldr    r1, [r3, #24]
		      23b6:   2900          cmp    r1, #0
		->    23b8:   d03e          beq.n  2438 <nrfx_uart_0_irq_handler+0x178>
		      23ba:   2100          movs   r1, #0
		      23bc:   f8c2 1108     str.w  r1, [r2, #264]   ; 0x108
		      23c0:   f8d2 1108     ldr.w  r1, [r2, #264]   ; 0x108
		      23c4:   9104          str    r1, [sp, #16]
		--------------------
	(    23e4,     244a)	dead
		--------------------
		      23dc:   428a          cmp    r2, r1
		      23de:   d1a0          bne.n  2322 <nrfx_uart_0_irq_handler+0x62>
		      23e0:   69da          ldr    r2, [r3, #28]
		      23e2:   2a00          cmp    r2, #0
		->    23e4:   d031          beq.n  244a <nrfx_uart_0_irq_handler+0x18a>
		      23e6:   619a          str    r2, [r3, #24]
		      23e8:   691a          ldr    r2, [r3, #16]
		      23ea:   68d8          ldr    r0, [r3, #12]
		      23ec:   6a5c          ldr    r4, [r3, #36]  ; 0x24
		--------------------
	(    241e,     235c)	dead
		--------------------
		      2416:   9202          str    r2, [sp, #8]
		      2418:   9a02          ldr    r2, [sp, #8]
		      241a:   695a          ldr    r2, [r3, #20]
		      241c:   2a00          cmp    r2, #0
		->    241e:   d09d          beq.n  235c <nrfx_uart_0_irq_handler+0x9c>
		      2420:   e9d3 2101     ldrd   r2, r1, [r3, #4]
		      2424:   695c          ldr    r4, [r3, #20]
		      2426:   f88d 0018     strb.w r0, [sp, #24]
		      242a:   e9cd 1407     strd   r1, r4, [sp, #28]
		--------------------
	(    2436,     235c)	dead
		--------------------
		      242e:   6158          str    r0, [r3, #20]
		      2430:   6819          ldr    r1, [r3, #0]
		      2432:   a806          add    r0, sp, #24
		      2434:   4790          blx    r2
		->    2436:   e791          b.n    235c <nrfx_uart_0_irq_handler+0x9c>
		      2438:   f8c2 1108     str.w  r1, [r2, #264]   ; 0x108
		      243c:   f8d2 0108     ldr.w  r0, [r2, #264]   ; 0x108
		      2440:   9005          str    r0, [sp, #20]
		      2442:   9805          ldr    r0, [sp, #20]
		--------------------
	(    244e,     2450)	dead
		--------------------
		      2442:   9805          ldr    r0, [sp, #20]
		      2444:   f8d2 2518     ldr.w  r2, [r2, #1304]  ; 0x518
		      2448:   e7c7          b.n    23da <nrfx_uart_0_irq_handler+0x11a>
		      244a:   f893 2029     ldrb.w r2, [r3, #41]   ; 0x29
		->    244e:   b912          cbnz   r2, 2456 <nrfx_uart_0_irq_handler+0x196>
		      2450:   4a0d          ldr    r2, [pc, #52]  ; (2488 <nrfx_uart_0_irq_handler+0x1c8>)
		      2452:   2101          movs   r1, #1
		      2454:   6051          str    r1, [r2, #4]
		      2456:   4a0c          ldr    r2, [pc, #48]  ; (2488 <nrfx_uart_0_irq_handler+0x1c8>)
		--------------------
	(    2454,     2456)	dead
		--------------------
		      244a:   f893 2029     ldrb.w r2, [r3, #41]   ; 0x29
		      244e:   b912          cbnz   r2, 2456 <nrfx_uart_0_irq_handler+0x196>
		      2450:   4a0d          ldr    r2, [pc, #52]  ; (2488 <nrfx_uart_0_irq_handler+0x1c8>)
		      2452:   2101          movs   r1, #1
		->    2454:   6051          str    r1, [r2, #4]
		      2456:   4a0c          ldr    r2, [pc, #48]  ; (2488 <nrfx_uart_0_irq_handler+0x1c8>)
		      2458:   f44f 7101     mov.w  r1, #516 ; 0x204
		      245c:   f8c2 1308     str.w  r1, [r2, #776]   ; 0x308
		      2460:   68d8          ldr    r0, [r3, #12]
		--------------------

timer-o0: 20 | 112 | 19 jt
	(     dba,      de0)	jt
		--------------------
		       db2:   3b03          subs   r3, #3
		       db4:   2b03          cmp    r3, #3
		       db6:   d813          bhi.n  de0 <nrf52_errata_12+0x68>
		       db8:   a201          add    r2, pc, #4 ; (adr r2, dc0 <nrf52_errata_12+0x48>)
		->     dba:   f852 f023     ldr.w  pc, [r2, r3, lsl #2]
		       dbe:   bf00          nop
		       dc0:   00000dd1  .word   0x00000dd1
		       dc4:   00000dd5  .word   0x00000dd5
		       dc8:   00000dd9  .word   0x00000dd9
		--------------------
	(     e2e,      e4c)	jt
		--------------------
		       e26:   3b03          subs   r3, #3
		       e28:   2b03          cmp    r3, #3
		       e2a:   d813          bhi.n  e54 <nrf52_errata_16+0x50>
		       e2c:   a201          add    r2, pc, #4 ; (adr r2, e34 <nrf52_errata_16+0x30>)
		->     e2e:   f852 f023     ldr.w  pc, [r2, r3, lsl #2]
		       e32:   bf00          nop
		       e34:   00000e45  .word   0x00000e45
		       e38:   00000e49  .word   0x00000e49
		       e3c:   00000e4d  .word   0x00000e4d
		--------------------
	(     e46,      e5a)	jt
		--------------------
		       e38:   00000e49  .word   0x00000e49
		       e3c:   00000e4d  .word   0x00000e4d
		       e40:   00000e51  .word   0x00000e51
		       e44:   2301          movs   r3, #1
		->     e46:   e008          b.n    e5a <nrf52_errata_16+0x56>
		       e48:   2300          movs   r3, #0
		       e4a:   e006          b.n    e5a <nrf52_errata_16+0x56>
		       e4c:   2300          movs   r3, #0
		       e4e:   e004          b.n    e5a <nrf52_errata_16+0x56>
		--------------------
	(     e4a,      e5a)	jt
		--------------------
		       e40:   00000e51  .word   0x00000e51
		       e44:   2301          movs   r3, #1
		       e46:   e008          b.n    e5a <nrf52_errata_16+0x56>
		       e48:   2300          movs   r3, #0
		->     e4a:   e006          b.n    e5a <nrf52_errata_16+0x56>
		       e4c:   2300          movs   r3, #0
		       e4e:   e004          b.n    e5a <nrf52_errata_16+0x56>
		       e50:   2300          movs   r3, #0
		       e52:   e002          b.n    e5a <nrf52_errata_16+0x56>
		--------------------
	(     eb2,      ed4)	jt
		--------------------
		       eaa:   3b03          subs   r3, #3
		       eac:   2b03          cmp    r3, #3
		       eae:   d813          bhi.n  ed8 <nrf52_errata_31+0x68>
		       eb0:   a201          add    r2, pc, #4 ; (adr r2, eb8 <nrf52_errata_31+0x48>)
		->     eb2:   f852 f023     ldr.w  pc, [r2, r3, lsl #2]
		       eb6:   bf00          nop
		       eb8:   00000ec9  .word   0x00000ec9
		       ebc:   00000ecd  .word   0x00000ecd
		       ec0:   00000ed1  .word   0x00000ed1
		--------------------
	(     f26,      f40)	jt
		--------------------
		       f1e:   3b03          subs   r3, #3
		       f20:   2b03          cmp    r3, #3
		       f22:   d813          bhi.n  f4c <nrf52_errata_32+0x50>
		       f24:   a201          add    r2, pc, #4 ; (adr r2, f2c <nrf52_errata_32+0x30>)
		->     f26:   f852 f023     ldr.w  pc, [r2, r3, lsl #2]
		       f2a:   bf00          nop
		       f2c:   00000f3d  .word   0x00000f3d
		       f30:   00000f41  .word   0x00000f41
		       f34:   00000f45  .word   0x00000f45
		--------------------
	(     fa8,      faa)	
		--------------------
		       fa0:   683b          ldr    r3, [r7, #0]
		       fa2:   3b03          subs   r3, #3
		       fa4:   2b03          cmp    r3, #3
		       fa6:   d813          bhi.n  fd0 <nrf52_errata_36+0x68>
		->     fa8:   a201          add    r2, pc, #4 ; (adr r2, fb0 <nrf52_errata_36+0x48>)
		       faa:   f852 f023     ldr.w  pc, [r2, r3, lsl #2]
		       fae:   bf00          nop
		       fb0:   00000fc1  .word   0x00000fc1
		       fb4:   00000fc5  .word   0x00000fc5
		--------------------
	(     faa,      fc8)	jt
		--------------------
		       fa2:   3b03          subs   r3, #3
		       fa4:   2b03          cmp    r3, #3
		       fa6:   d813          bhi.n  fd0 <nrf52_errata_36+0x68>
		       fa8:   a201          add    r2, pc, #4 ; (adr r2, fb0 <nrf52_errata_36+0x48>)
		->     faa:   f852 f023     ldr.w  pc, [r2, r3, lsl #2]
		       fae:   bf00          nop
		       fb0:   00000fc1  .word   0x00000fc1
		       fb4:   00000fc5  .word   0x00000fc5
		       fb8:   00000fc9  .word   0x00000fc9
		--------------------
	(     faa,      fcc)	jt
		--------------------
		       fa2:   3b03          subs   r3, #3
		       fa4:   2b03          cmp    r3, #3
		       fa6:   d813          bhi.n  fd0 <nrf52_errata_36+0x68>
		       fa8:   a201          add    r2, pc, #4 ; (adr r2, fb0 <nrf52_errata_36+0x48>)
		->     faa:   f852 f023     ldr.w  pc, [r2, r3, lsl #2]
		       fae:   bf00          nop
		       fb0:   00000fc1  .word   0x00000fc1
		       fb4:   00000fc5  .word   0x00000fc5
		       fb8:   00000fc9  .word   0x00000fc9
		--------------------
	(     fce,      fd6)	jt
		--------------------
		       fc6:   e006          b.n    fd6 <nrf52_errata_36+0x6e>
		       fc8:   2301          movs   r3, #1
		       fca:   e004          b.n    fd6 <nrf52_errata_36+0x6e>
		       fcc:   2301          movs   r3, #1
		->     fce:   e002          b.n    fd6 <nrf52_errata_36+0x6e>
		       fd0:   2301          movs   r3, #1
		       fd2:   e000          b.n    fd6 <nrf52_errata_36+0x6e>
		       fd4:   2300          movs   r3, #0
		       fd6:   4618          mov    r0, r3
		--------------------
	(    108a,     10a0)	jt
		--------------------
		      1082:   3b03          subs   r3, #3
		      1084:   2b03          cmp    r3, #3
		      1086:   d813          bhi.n  10b0 <nrf52_errata_57+0x50>
		      1088:   a201          add    r2, pc, #4 ; (adr r2, 1090 <nrf52_errata_57+0x30>)
		->    108a:   f852 f023     ldr.w  pc, [r2, r3, lsl #2]
		      108e:   bf00          nop
		      1090:   000010a1  .word   0x000010a1
		      1094:   000010a5  .word   0x000010a5
		      1098:   000010a9  .word   0x000010a9
		--------------------
	(    10aa,     10b6)	jt
		--------------------
		      10a2:   e008          b.n    10b6 <nrf52_errata_57+0x56>
		      10a4:   2300          movs   r3, #0
		      10a6:   e006          b.n    10b6 <nrf52_errata_57+0x56>
		      10a8:   2300          movs   r3, #0
		->    10aa:   e004          b.n    10b6 <nrf52_errata_57+0x56>
		      10ac:   2300          movs   r3, #0
		      10ae:   e002          b.n    10b6 <nrf52_errata_57+0x56>
		      10b0:   2300          movs   r3, #0
		      10b2:   e000          b.n    10b6 <nrf52_errata_57+0x56>
		--------------------
	(    1126,     113a)	jt
		--------------------
		      1118:   00001129  .word   0x00001129
		      111c:   0000112d  .word   0x0000112d
		      1120:   00001131  .word   0x00001131
		      1124:   2300          movs   r3, #0
		->    1126:   e008          b.n    113a <nrf52_errata_66+0x6e>
		      1128:   2300          movs   r3, #0
		      112a:   e006          b.n    113a <nrf52_errata_66+0x6e>
		      112c:   2301          movs   r3, #1
		      112e:   e004          b.n    113a <nrf52_errata_66+0x6e>
		--------------------
	(    119a,     11b4)	jt
		--------------------
		      1192:   3b03          subs   r3, #3
		      1194:   2b03          cmp    r3, #3
		      1196:   d813          bhi.n  11c0 <nrf52_errata_108+0x68>
		      1198:   a201          add    r2, pc, #4 ; (adr r2, 11a0 <nrf52_errata_108+0x48>)
		->    119a:   f852 f023     ldr.w  pc, [r2, r3, lsl #2]
		      119e:   bf00          nop
		      11a0:   000011b1  .word   0x000011b1
		      11a4:   000011b5  .word   0x000011b5
		      11a8:   000011b9  .word   0x000011b9
		--------------------
	(    11be,     11c6)	jt
		--------------------
		      11b6:   e006          b.n    11c6 <nrf52_errata_108+0x6e>
		      11b8:   2301          movs   r3, #1
		      11ba:   e004          b.n    11c6 <nrf52_errata_108+0x6e>
		      11bc:   2301          movs   r3, #1
		->    11be:   e002          b.n    11c6 <nrf52_errata_108+0x6e>
		      11c0:   2301          movs   r3, #1
		      11c2:   e000          b.n    11c6 <nrf52_errata_108+0x6e>
		      11c4:   2300          movs   r3, #0
		      11c6:   4618          mov    r0, r3
		--------------------
	(    1226,     123c)	jt
		--------------------
		      121e:   3b03          subs   r3, #3
		      1220:   2b03          cmp    r3, #3
		      1222:   d813          bhi.n  124c <nrf52_errata_136+0x68>
		      1224:   a201          add    r2, pc, #4 ; (adr r2, 122c <nrf52_errata_136+0x48>)
		->    1226:   f852 f023     ldr.w  pc, [r2, r3, lsl #2]
		      122a:   bf00          nop
		      122c:   0000123d  .word   0x0000123d
		      1230:   00001241  .word   0x00001241
		      1234:   00001245  .word   0x00001245
		--------------------
	(    1226,     1240)	jt
		--------------------
		      121e:   3b03          subs   r3, #3
		      1220:   2b03          cmp    r3, #3
		      1222:   d813          bhi.n  124c <nrf52_errata_136+0x68>
		      1224:   a201          add    r2, pc, #4 ; (adr r2, 122c <nrf52_errata_136+0x48>)
		->    1226:   f852 f023     ldr.w  pc, [r2, r3, lsl #2]
		      122a:   bf00          nop
		      122c:   0000123d  .word   0x0000123d
		      1230:   00001241  .word   0x00001241
		      1234:   00001245  .word   0x00001245
		--------------------
	(    123e,     1252)	jt
		--------------------
		      1230:   00001241  .word   0x00001241
		      1234:   00001245  .word   0x00001245
		      1238:   00001249  .word   0x00001249
		      123c:   2301          movs   r3, #1
		->    123e:   e008          b.n    1252 <nrf52_errata_136+0x6e>
		      1240:   2301          movs   r3, #1
		      1242:   e006          b.n    1252 <nrf52_errata_136+0x6e>
		      1244:   2301          movs   r3, #1
		      1246:   e004          b.n    1252 <nrf52_errata_136+0x6e>
		--------------------
	(    1292,     12b8)	jt
		--------------------
		      128a:   3b03          subs   r3, #3
		      128c:   2b03          cmp    r3, #3
		      128e:   d813          bhi.n  12b8 <nrf52_errata_182+0x48>
		      1290:   a201          add    r2, pc, #4 ; (adr r2, 1298 <nrf52_errata_182+0x28>)
		->    1292:   f852 f023     ldr.w  pc, [r2, r3, lsl #2]
		      1296:   bf00          nop
		      1298:   000012a9  .word   0x000012a9
		      129c:   000012ad  .word   0x000012ad
		      12a0:   000012b1  .word   0x000012b1
		--------------------
	(    12b2,     12be)	jt
		--------------------
		      12aa:   e008          b.n    12be <nrf52_errata_182+0x4e>
		      12ac:   2300          movs   r3, #0
		      12ae:   e006          b.n    12be <nrf52_errata_182+0x4e>
		      12b0:   2300          movs   r3, #0
		->    12b2:   e004          b.n    12be <nrf52_errata_182+0x4e>
		      12b4:   2301          movs   r3, #1
		      12b6:   e002          b.n    12be <nrf52_errata_182+0x4e>
		      12b8:   2301          movs   r3, #1
		      12ba:   e000          b.n    12be <nrf52_errata_182+0x4e>
		--------------------

timer-o1: 3 | 3
	(     3b6,      3b8)	
		--------------------
		   3aa:   4b0a          ldr    r3, [pc, #40]  ; (3d4 <app_error_fault_handler+0x2c>)
		   3ac:   f8d3 30f0     ldr.w  r3, [r3, #240]   ; 0xf0
		   3b0:   f013 0f01     tst.w  r3, #1
		   3b4:   d000          beq.n  3b8 <app_error_fault_handler+0x10>
		-> 3b6:   be00          bkpt   0x0000
		   3b8:   f3bf 8f4f     dsb    sy
		   3bc:   4905          ldr    r1, [pc, #20]  ; (3d4 <app_error_fault_handler+0x2c>)
		   3be:   68ca          ldr    r2, [r1, #12]
		   3c0:   f402 62e0     and.w  r2, r2, #1792    ; 0x700
		--------------------
	(     582,      584)	
		--------------------
		   57a:   2d04          cmp    r5, #4
		   57c:   d016          beq.n  5ac <TIMER0_IRQHandler+0x4c>
		   57e:   6823          ldr    r3, [r4, #0]
		   580:   2b00          cmp    r3, #0
		-> 582:   d0f8          beq.n  576 <TIMER0_IRQHandler+0x16>
		   584:   f8d7 3304     ldr.w  r3, [r7, #772]   ; 0x304
		   588:   fa06 f105     lsl.w  r1, r6, r5
		   58c:   4219          tst    r1, r3
		   58e:   d0f2          beq.n  576 <TIMER0_IRQHandler+0x16>
		--------------------
	(     774,      67c)	
		--------------------
		   76c:   d186          bne.n  67c <SystemInit+0x38>
		   76e:   4b88          ldr    r3, [pc, #544] ; (990 <SystemInit+0x34c>)
		   770:   4a88          ldr    r2, [pc, #544] ; (994 <SystemInit+0x350>)
		   772:   675a          str    r2, [r3, #116] ; 0x74
		-> 774:   e782          b.n    67c <SystemInit+0x38>
		   776:   f04f 4370     mov.w  r3, #4026531840  ; 0xf0000000
		   77a:   f8d3 3fe8     ldr.w  r3, [r3, #4072]  ; 0xfe8
		   77e:   f3c3 1303     ubfx   r3, r3, #4, #4
		   782:   2b03          cmp    r3, #3
		--------------------

timer-o2: 4 | 4
	(     39c,      39e)	
		--------------------
		   392:   4b09          ldr    r3, [pc, #36]  ; (3b8 <app_error_fault_handler+0x28>)
		   394:   f8d3 30f0     ldr.w  r3, [r3, #240]   ; 0xf0
		   398:   07db          lsls   r3, r3, #31
		   39a:   d500          bpl.n  39e <app_error_fault_handler+0xe>
		-> 39c:   be00          bkpt   0x0000
		   39e:   f3bf 8f4f     dsb    sy
		   3a2:   4905          ldr    r1, [pc, #20]  ; (3b8 <app_error_fault_handler+0x28>)
		   3a4:   4b05          ldr    r3, [pc, #20]  ; (3bc <app_error_fault_handler+0x2c>)
		   3a6:   68ca          ldr    r2, [r1, #12]
		--------------------
	(     560,      582)	
		--------------------
		   554:   f44f 3680     mov.w  r6, #65536   ; 0x10000
		   558:   682b          ldr    r3, [r5, #0]
		   55a:   fa06 f204     lsl.w  r2, r6, r4
		   55e:   3401          adds   r4, #1
		-> 560:   b17b          cbz    r3, 582 <TIMER0_IRQHandler+0x3e>
		   562:   f8d7 3304     ldr.w  r3, [r7, #772]   ; 0x304
		   566:   f5a5 4000     sub.w  r0, r5, #32768   ; 0x8000
		   56a:   421a          tst    r2, r3
		   56c:   f04f 0100     mov.w  r1, #0
		--------------------
	(     572,      574)	
		--------------------
		   566:   f5a5 4000     sub.w  r0, r5, #32768   ; 0x8000
		   56a:   421a          tst    r2, r3
		   56c:   f04f 0100     mov.w  r1, #0
		   570:   b280          uxth   r0, r0
		-> 572:   d006          beq.n  582 <TIMER0_IRQHandler+0x3e>
		   574:   6029          str    r1, [r5, #0]
		   576:   682b          ldr    r3, [r5, #0]
		   578:   9301          str    r3, [sp, #4]
		   57a:   e9d8 3100     ldrd   r3, r1, [r8]
		--------------------
	(     8e0,      656)	
		--------------------
		   8d6:   f43f aebe     beq.w  656 <SystemInit+0x3a>
		   8da:   4b17          ldr    r3, [pc, #92]  ; (938 <SystemInit+0x31c>)
		   8dc:   4a17          ldr    r2, [pc, #92]  ; (93c <SystemInit+0x320>)
		   8de:   675a          str    r2, [r3, #116] ; 0x74
		-> 8e0:   e6b9          b.n    656 <SystemInit+0x3a>
		   8e2:   4a17          ldr    r2, [pc, #92]  ; (940 <SystemInit+0x324>)
		   8e4:   5cd3          ldrb   r3, [r2, r3]
		   8e6:   2b00          cmp    r3, #0
		   8e8:   f43f af08     beq.w  6fc <SystemInit+0xe0>
		--------------------

timer-o3: 4 | 4
	(     398,      39a)	
		--------------------
		   38e:   4b09          ldr    r3, [pc, #36]  ; (3b4 <app_error_fault_handler+0x28>)
		   390:   f8d3 30f0     ldr.w  r3, [r3, #240]   ; 0xf0
		   394:   07db          lsls   r3, r3, #31
		   396:   d500          bpl.n  39a <app_error_fault_handler+0xe>
		-> 398:   be00          bkpt   0x0000
		   39a:   f3bf 8f4f     dsb    sy
		   39e:   4905          ldr    r1, [pc, #20]  ; (3b4 <app_error_fault_handler+0x28>)
		   3a0:   4b05          ldr    r3, [pc, #20]  ; (3b8 <app_error_fault_handler+0x2c>)
		   3a2:   68ca          ldr    r2, [r1, #12]
		--------------------
	(     55c,      57e)	
		--------------------
		   550:   f44f 3680     mov.w  r6, #65536   ; 0x10000
		   554:   682b          ldr    r3, [r5, #0]
		   556:   fa06 f204     lsl.w  r2, r6, r4
		   55a:   3401          adds   r4, #1
		-> 55c:   b17b          cbz    r3, 57e <TIMER0_IRQHandler+0x3e>
		   55e:   f8d7 3304     ldr.w  r3, [r7, #772]   ; 0x304
		   562:   f5a5 4000     sub.w  r0, r5, #32768   ; 0x8000
		   566:   421a          tst    r2, r3
		   568:   f04f 0100     mov.w  r1, #0
		--------------------
	(     56e,      570)	
		--------------------
		   562:   f5a5 4000     sub.w  r0, r5, #32768   ; 0x8000
		   566:   421a          tst    r2, r3
		   568:   f04f 0100     mov.w  r1, #0
		   56c:   b280          uxth   r0, r0
		-> 56e:   d006          beq.n  57e <TIMER0_IRQHandler+0x3e>
		   570:   6029          str    r1, [r5, #0]
		   572:   682b          ldr    r3, [r5, #0]
		   574:   9301          str    r3, [sp, #4]
		   576:   e9d8 3100     ldrd   r3, r1, [r8]
		--------------------
	(     8c4,      652)	
		--------------------
		   8ba:   f43f aeca     beq.w  652 <SystemInit+0x3a>
		   8be:   4b35          ldr    r3, [pc, #212] ; (994 <SystemInit+0x37c>)
		   8c0:   4a35          ldr    r2, [pc, #212] ; (998 <SystemInit+0x380>)
		   8c2:   675a          str    r2, [r3, #116] ; 0x74
		-> 8c4:   e6c5          b.n    652 <SystemInit+0x3a>
		   8c6:   f04f 4370     mov.w  r3, #4026531840  ; 0xf0000000
		   8ca:   f893 3fe0     ldrb.w r3, [r3, #4064] ; 0xfe0
		   8ce:   2b06          cmp    r3, #6
		   8d0:   f47f af03     bne.w  6da <SystemInit+0xc2>
		--------------------

twi_sensor-o0: 50 | 503 | 40 jt | 10 dead
	(    137e,     1382)	jt
		--------------------
		      1376:   4603          mov    r3, r0
		      1378:   460a          mov    r2, r1
		      137a:   68f9          ldr    r1, [r7, #12]
		      137c:   6ab8          ldr    r0, [r7, #40]  ; 0x28
		->    137e:   f000 faac     bl 18da <nrf_fprintf>
		      1382:   e034          b.n    13ee <nrf_log_std_entry_process+0x12a>
		      1384:   68bb          ldr    r3, [r7, #8]
		      1386:   6818          ldr    r0, [r3, #0]
		      1388:   68bb          ldr    r3, [r7, #8]
		--------------------
	(    13b2,     13ee)	jt
		--------------------
		      13a8:   4602          mov    r2, r0
		      13aa:   68f9          ldr    r1, [r7, #12]
		      13ac:   6ab8          ldr    r0, [r7, #40]  ; 0x28
		      13ae:   f000 fa94     bl 18da <nrf_fprintf>
		->    13b2:   e01c          b.n    13ee <nrf_log_std_entry_process+0x12a>
		      13b4:   68bb          ldr    r3, [r7, #8]
		      13b6:   681c          ldr    r4, [r3, #0]
		      13b8:   68bb          ldr    r3, [r7, #8]
		      13ba:   3304          adds   r3, #4
		--------------------
	(    1976,     198e)	jti
		--------------------
		      196c:   683b          ldr    r3, [r7, #0]
		      196e:   f003 0301     and.w  r3, r3, #1
		      1972:   2b00          cmp    r3, #0
		      1974:   d021          beq.n  19ba <string_print+0x60>
		->    1976:   e00a          b.n    198e <string_print+0x34>
		      1978:   68bb          ldr    r3, [r7, #8]
		      197a:   3301          adds   r3, #1
		      197c:   60bb          str    r3, [r7, #8]
		      197e:   697b          ldr    r3, [r7, #20]
		--------------------
	(    19b6,     19b8)	jti
		--------------------
		      19ae:   429a          cmp    r2, r3
		      19b0:   d92b          bls.n  1a0a <string_print+0xb0>
		      19b2:   687b          ldr    r3, [r7, #4]
		      19b4:   2b00          cmp    r3, #0
		->    19b6:   d1f1          bne.n  199c <string_print+0x42>
		      19b8:   e027          b.n    1a0a <string_print+0xb0>
		      19ba:   68bb          ldr    r3, [r7, #8]
		      19bc:   2b00          cmp    r3, #0
		      19be:   d00b          beq.n  19d8 <string_print+0x7e>
		--------------------
	(    19c2,     19c6)	jti
		--------------------
		      19ba:   68bb          ldr    r3, [r7, #8]
		      19bc:   2b00          cmp    r3, #0
		      19be:   d00b          beq.n  19d8 <string_print+0x7e>
		      19c0:   68b8          ldr    r0, [r7, #8]
		->    19c2:   f004 f90b     bl 5bdc <strlen>
		      19c6:   6178          str    r0, [r7, #20]
		      19c8:   e006          b.n    19d8 <string_print+0x7e>
		      19ca:   687b          ldr    r3, [r7, #4]
		      19cc:   3b01          subs   r3, #1
		--------------------
	(    19d4,     1912)	jti
		--------------------
		      19cc:   3b01          subs   r3, #1
		      19ce:   607b          str    r3, [r7, #4]
		      19d0:   2120          movs   r1, #32
		      19d2:   68f8          ldr    r0, [r7, #12]
		->    19d4:   f7ff ff9d     bl 1912 <buffer_add>
		      19d8:   687a          ldr    r2, [r7, #4]
		      19da:   697b          ldr    r3, [r7, #20]
		      19dc:   429a          cmp    r2, r3
		      19de:   d90e          bls.n  19fe <string_print+0xa4>
		--------------------
	(    19d4,     19d8)	jti
		--------------------
		      19cc:   3b01          subs   r3, #1
		      19ce:   607b          str    r3, [r7, #4]
		      19d0:   2120          movs   r1, #32
		      19d2:   68f8          ldr    r0, [r7, #12]
		->    19d4:   f7ff ff9d     bl 1912 <buffer_add>
		      19d8:   687a          ldr    r2, [r7, #4]
		      19da:   697b          ldr    r3, [r7, #20]
		      19dc:   429a          cmp    r2, r3
		      19de:   d90e          bls.n  19fe <string_print+0xa4>
		--------------------
	(    19de,     19fe)	jti
		--------------------
		      19d4:   f7ff ff9d     bl 1912 <buffer_add>
		      19d8:   687a          ldr    r2, [r7, #4]
		      19da:   697b          ldr    r3, [r7, #20]
		      19dc:   429a          cmp    r2, r3
		->    19de:   d90e          bls.n  19fe <string_print+0xa4>
		      19e0:   687b          ldr    r3, [r7, #4]
		      19e2:   2b00          cmp    r3, #0
		      19e4:   d1f1          bne.n  19ca <string_print+0x70>
		      19e6:   e00a          b.n    19fe <string_print+0xa4>
		--------------------
	(    19e4,     19e6)	jti
		--------------------
		      19dc:   429a          cmp    r2, r3
		      19de:   d90e          bls.n  19fe <string_print+0xa4>
		      19e0:   687b          ldr    r3, [r7, #4]
		      19e2:   2b00          cmp    r3, #0
		->    19e4:   d1f1          bne.n  19ca <string_print+0x70>
		      19e6:   e00a          b.n    19fe <string_print+0xa4>
		      19e8:   68bb          ldr    r3, [r7, #8]
		      19ea:   3301          adds   r3, #1
		      19ec:   60bb          str    r3, [r7, #8]
		--------------------
	(    1a6e,     1a70)	jti
		--------------------
		      1a66:   2b00          cmp    r3, #0
		      1a68:   d005          beq.n  1a76 <unsigned_print+0x62>
		      1a6a:   683b          ldr    r3, [r7, #0]
		      1a6c:   2b00          cmp    r3, #0
		->    1a6e:   d102          bne.n  1a76 <unsigned_print+0x62>
		      1a70:   2330          movs   r3, #48   ; 0x30
		      1a72:   75fb          strb   r3, [r7, #23]
		      1a74:   e001          b.n    1a7a <unsigned_print+0x66>
		      1a76:   2320          movs   r3, #32
		--------------------
	(    1b0c,     1b0e)	jti
		--------------------
		      1b02:   d1e3          bne.n  1acc <unsigned_print+0xb8>
		      1b04:   6afb          ldr    r3, [r7, #44]  ; 0x2c
		      1b06:   f003 0301     and.w  r3, r3, #1
		      1b0a:   2b00          cmp    r3, #0
		->    1b0c:   d011          beq.n  1b32 <unsigned_print+0x11e>
		      1b0e:   6abb          ldr    r3, [r7, #40]  ; 0x28
		      1b10:   2b00          cmp    r3, #0
		      1b12:   d00e          beq.n  1b32 <unsigned_print+0x11e>
		      1b14:   e006          b.n    1b24 <unsigned_print+0x110>
		--------------------
	(    1b20,     1912)	jti
		--------------------
		      1b18:   3b01          subs   r3, #1
		      1b1a:   62bb          str    r3, [r7, #40]  ; 0x28
		      1b1c:   2120          movs   r1, #32
		      1b1e:   68f8          ldr    r0, [r7, #12]
		->    1b20:   f7ff fef7     bl 1912 <buffer_add>
		      1b24:   6abb          ldr    r3, [r7, #40]  ; 0x28
		      1b26:   2b00          cmp    r3, #0
		      1b28:   d003          beq.n  1b32 <unsigned_print+0x11e>
		      1b2a:   69ba          ldr    r2, [r7, #24]
		--------------------
	(    1b7c,     1b82)	jti
		--------------------
		      1b74:   daf3          bge.n  1b5e <int_print+0x1e>
		      1b76:   683a          ldr    r2, [r7, #0]
		      1b78:   697b          ldr    r3, [r7, #20]
		      1b7a:   429a          cmp    r2, r3
		->    1b7c:   d901          bls.n  1b82 <int_print+0x42>
		      1b7e:   683b          ldr    r3, [r7, #0]
		      1b80:   617b          str    r3, [r7, #20]
		      1b82:   6a3b          ldr    r3, [r7, #32]
		      1b84:   2b00          cmp    r3, #0
		--------------------
	(    1b96,     1b9e)	jti
		--------------------
		      1b8c:   db04          blt.n  1b98 <int_print+0x58>
		      1b8e:   6a7b          ldr    r3, [r7, #36]  ; 0x24
		      1b90:   f003 0304     and.w  r3, r3, #4
		      1b94:   2b00          cmp    r3, #0
		->    1b96:   d002          beq.n  1b9e <int_print+0x5e>
		      1b98:   6a3b          ldr    r3, [r7, #32]
		      1b9a:   3b01          subs   r3, #1
		      1b9c:   623b          str    r3, [r7, #32]
		      1b9e:   6a7b          ldr    r3, [r7, #36]  ; 0x24
		--------------------
	(    1b9c,     1b9e)	jti
		--------------------
		      1b94:   2b00          cmp    r3, #0
		      1b96:   d002          beq.n  1b9e <int_print+0x5e>
		      1b98:   6a3b          ldr    r3, [r7, #32]
		      1b9a:   3b01          subs   r3, #1
		->    1b9c:   623b          str    r3, [r7, #32]
		      1b9e:   6a7b          ldr    r3, [r7, #36]  ; 0x24
		      1ba0:   f003 0302     and.w  r3, r3, #2
		      1ba4:   2b00          cmp    r3, #0
		      1ba6:   d002          beq.n  1bae <int_print+0x6e>
		--------------------
	(    1bb6,     1bdc)	jti
		--------------------
		      1bac:   d016          beq.n  1bdc <int_print+0x9c>
		      1bae:   6a7b          ldr    r3, [r7, #36]  ; 0x24
		      1bb0:   f003 0301     and.w  r3, r3, #1
		      1bb4:   2b00          cmp    r3, #0
		->    1bb6:   d111          bne.n  1bdc <int_print+0x9c>
		      1bb8:   6a3b          ldr    r3, [r7, #32]
		      1bba:   2b00          cmp    r3, #0
		      1bbc:   d00e          beq.n  1bdc <int_print+0x9c>
		      1bbe:   e006          b.n    1bce <int_print+0x8e>
		--------------------
	(    1bbc,     1bbe)	jti
		--------------------
		      1bb4:   2b00          cmp    r3, #0
		      1bb6:   d111          bne.n  1bdc <int_print+0x9c>
		      1bb8:   6a3b          ldr    r3, [r7, #32]
		      1bba:   2b00          cmp    r3, #0
		->    1bbc:   d00e          beq.n  1bdc <int_print+0x9c>
		      1bbe:   e006          b.n    1bce <int_print+0x8e>
		      1bc0:   6a3b          ldr    r3, [r7, #32]
		      1bc2:   3b01          subs   r3, #1
		      1bc4:   623b          str    r3, [r7, #32]
		--------------------
	(    1bca,     1bce)	jti
		--------------------
		      1bc2:   3b01          subs   r3, #1
		      1bc4:   623b          str    r3, [r7, #32]
		      1bc6:   2120          movs   r1, #32
		      1bc8:   68f8          ldr    r0, [r7, #12]
		->    1bca:   f7ff fea2     bl 1912 <buffer_add>
		      1bce:   6a3b          ldr    r3, [r7, #32]
		      1bd0:   2b00          cmp    r3, #0
		      1bd2:   d003          beq.n  1bdc <int_print+0x9c>
		      1bd4:   697a          ldr    r2, [r7, #20]
		--------------------
	(    1bec,     1912)	jti
		--------------------
		      1be4:   425b          negs   r3, r3
		      1be6:   60bb          str    r3, [r7, #8]
		      1be8:   212d          movs   r1, #45   ; 0x2d
		      1bea:   68f8          ldr    r0, [r7, #12]
		->    1bec:   f7ff fe91     bl 1912 <buffer_add>
		      1bf0:   e008          b.n    1c04 <int_print+0xc4>
		      1bf2:   6a7b          ldr    r3, [r7, #36]  ; 0x24
		      1bf4:   f003 0304     and.w  r3, r3, #4
		      1bf8:   2b00          cmp    r3, #0
		--------------------
	(    1bec,     1bf0)	jti
		--------------------
		      1be4:   425b          negs   r3, r3
		      1be6:   60bb          str    r3, [r7, #8]
		      1be8:   212d          movs   r1, #45   ; 0x2d
		      1bea:   68f8          ldr    r0, [r7, #12]
		->    1bec:   f7ff fe91     bl 1912 <buffer_add>
		      1bf0:   e008          b.n    1c04 <int_print+0xc4>
		      1bf2:   6a7b          ldr    r3, [r7, #36]  ; 0x24
		      1bf4:   f003 0304     and.w  r3, r3, #4
		      1bf8:   2b00          cmp    r3, #0
		--------------------
	(    1bfa,     1c04)	jti
		--------------------
		      1bf0:   e008          b.n    1c04 <int_print+0xc4>
		      1bf2:   6a7b          ldr    r3, [r7, #36]  ; 0x24
		      1bf4:   f003 0304     and.w  r3, r3, #4
		      1bf8:   2b00          cmp    r3, #0
		->    1bfa:   d003          beq.n  1c04 <int_print+0xc4>
		      1bfc:   212b          movs   r1, #43   ; 0x2b
		      1bfe:   68f8          ldr    r0, [r7, #12]
		      1c00:   f7ff fe87     bl 1912 <buffer_add>
		      1c04:   6a7b          ldr    r3, [r7, #36]  ; 0x24
		--------------------
	(    1df0,     1ede)	jt
		--------------------
		      1de6:   3b58          subs   r3, #88   ; 0x58
		      1de8:   2b20          cmp    r3, #32
		      1dea:   f200 80b7     bhi.w  1f5c <nrf_fprintf_fmt+0x2fc>
		      1dee:   a201          add    r2, pc, #4 ; (adr r2, 1df4 <nrf_fprintf_fmt+0x194>)
		->    1df0:   f852 f023     ldr.w  pc, [r2, r3, lsl #2]
		      1df4:   00001edf  .word   0x00001edf
		      1df8:   00001f5d  .word   0x00001f5d
		      1dfc:   00001f5d  .word   0x00001f5d
		      1e00:   00001f5d  .word   0x00001f5d
		--------------------
	(    1f00,     1f5e)	jt
		--------------------
		      1ef6:   6a7b          ldr    r3, [r7, #36]  ; 0x24
		      1ef8:   2210          movs   r2, #16
		      1efa:   68f8          ldr    r0, [r7, #12]
		      1efc:   f7ff fd8a     bl 1a14 <unsigned_print>
		->    1f00:   e02d          b.n    1f5e <nrf_fprintf_fmt+0x2fe>
		      1f02:   687b          ldr    r3, [r7, #4]
		      1f04:   681b          ldr    r3, [r3, #0]
		      1f06:   1d19          adds   r1, r3, #4
		      1f08:   687a          ldr    r2, [r7, #4]
		--------------------
	(    2cc2,     2cc4)	jt
		--------------------
		      2cb8:   683b          ldr    r3, [r7, #0]
		      2cba:   689b          ldr    r3, [r3, #8]
		      2cbc:   f403 2380     and.w  r3, r3, #262144  ; 0x40000
		      2cc0:   2b00          cmp    r3, #0
		->    2cc2:   d007          beq.n  2cd4 <xfer_completeness_check+0x48>
		      2cc4:   6878          ldr    r0, [r7, #4]
		      2cc6:   f7ff ff26     bl 2b16 <nrf_twim_txd_amount_get>
		      2cca:   4602          mov    r2, r0
		      2ccc:   683b          ldr    r3, [r7, #0]
		--------------------
	(    2cd2,     2cd4)	jt
		--------------------
		      2cca:   4602          mov    r2, r0
		      2ccc:   683b          ldr    r3, [r7, #0]
		      2cce:   691b          ldr    r3, [r3, #16]
		      2cd0:   429a          cmp    r2, r3
		->    2cd2:   d10d          bne.n  2cf0 <xfer_completeness_check+0x64>
		      2cd4:   683b          ldr    r3, [r7, #0]
		      2cd6:   689b          ldr    r3, [r3, #8]
		      2cd8:   f403 2380     and.w  r3, r3, #262144  ; 0x40000
		      2cdc:   2b00          cmp    r3, #0
		--------------------
	(    2ce2,     2b16)	jt
		--------------------
		      2cd8:   f403 2380     and.w  r3, r3, #262144  ; 0x40000
		      2cdc:   2b00          cmp    r3, #0
		      2cde:   d135          bne.n  2d4c <xfer_completeness_check+0xc0>
		      2ce0:   6878          ldr    r0, [r7, #4]
		->    2ce2:   f7ff ff18     bl 2b16 <nrf_twim_txd_amount_get>
		      2ce6:   4602          mov    r2, r0
		      2ce8:   683b          ldr    r3, [r7, #0]
		      2cea:   695b          ldr    r3, [r3, #20]
		      2cec:   429a          cmp    r2, r3
		--------------------
	(    2d46,     2d58)	jt
		--------------------
		      2d3e:   429a          cmp    r2, r3
		      2d40:   d00a          beq.n  2d58 <xfer_completeness_check+0xcc>
		      2d42:   2300          movs   r3, #0
		      2d44:   73fb          strb   r3, [r7, #15]
		->    2d46:   e007          b.n    2d58 <xfer_completeness_check+0xcc>
		      2d48:   bf00          nop
		      2d4a:   e006          b.n    2d5a <xfer_completeness_check+0xce>
		      2d4c:   bf00          nop
		      2d4e:   e004          b.n    2d5a <xfer_completeness_check+0xce>
		--------------------
	(    301e,     3034)	jt
		--------------------
		      3014:   781b          ldrb   r3, [r3, #0]
		      3016:   2b03          cmp    r3, #3
		      3018:   f200 80ba     bhi.w  3190 <twim_xfer+0x274>
		      301c:   a201          add    r2, pc, #4 ; (adr r2, 3024 <twim_xfer+0x108>)
		->    301e:   f852 f023     ldr.w  pc, [r2, r3, lsl #2]
		      3022:   bf00          nop
		      3024:   0000311b  .word   0x0000311b
		      3028:   00003163  .word   0x00003163
		      302c:   000030c3  .word   0x000030c3
		--------------------
	(    307a,     292e)	jt
		--------------------
		      3070:   68b8          ldr    r0, [r7, #8]
		      3072:   f7ff fc6d     bl 2950 <nrf_twim_event_clear>
		      3076:   2120          movs   r1, #32
		      3078:   68b8          ldr    r0, [r7, #8]
		->    307a:   f7ff fc58     bl 292e <nrf_twim_task_trigger>
		      307e:   2108          movs   r1, #8
		      3080:   68b8          ldr    r0, [r7, #8]
		      3082:   f7ff fc54     bl 292e <nrf_twim_task_trigger>
		      3086:   bf00          nop
		--------------------
	(    308e,     297e)	jt
		--------------------
		      3082:   f7ff fc54     bl 292e <nrf_twim_task_trigger>
		      3086:   bf00          nop
		      3088:   f44f 71a8     mov.w  r1, #336 ; 0x150
		      308c:   68b8          ldr    r0, [r7, #8]
		->    308e:   f7ff fc76     bl 297e <nrf_twim_event_check>
		      3092:   4603          mov    r3, r0
		      3094:   f083 0301     eor.w  r3, r3, #1
		      3098:   b2db          uxtb   r3, r3
		      309a:   2b00          cmp    r3, #0
		--------------------
	(    3106,     310a)	jt
		--------------------
		      30fa:   68b8          ldr    r0, [r7, #8]
		      30fc:   f7ff fce8     bl 2ad0 <nrf_twim_rx_buffer_set>
		      3100:   f44f 5184     mov.w  r1, #4224    ; 0x1080
		      3104:   68b8          ldr    r0, [r7, #8]
		->    3106:   f7ff fcf7     bl 2af8 <nrf_twim_shorts_set>
		      310a:   68fb          ldr    r3, [r7, #12]
		      310c:   2202          movs   r2, #2
		      310e:   609a          str    r2, [r3, #8]
		      3110:   2120          movs   r1, #32
		--------------------
	(    3114,     292e)	jt
		--------------------
		      310c:   2202          movs   r2, #2
		      310e:   609a          str    r2, [r3, #8]
		      3110:   2120          movs   r1, #32
		      3112:   68b8          ldr    r0, [r7, #8]
		->    3114:   f7ff fc0b     bl 292e <nrf_twim_task_trigger>
		      3118:   e03d          b.n    3196 <twim_xfer+0x27a>
		      311a:   687b          ldr    r3, [r7, #4]
		      311c:   68d9          ldr    r1, [r3, #12]
		      311e:   687b          ldr    r3, [r7, #4]
		--------------------
	(    412c,     412e)	dead
		--------------------
		      4122:   6878          ldr    r0, [r7, #4]
		      4124:   f7ff fb8b     bl 383e <nrf_uart_int_enable_check>
		      4128:   4603          mov    r3, r0
		      412a:   2b00          cmp    r3, #0
		->    412c:   d039          beq.n  41a2 <uart_irq_handler+0x8e>
		      412e:   f44f 7192     mov.w  r1, #292 ; 0x124
		      4132:   6878          ldr    r0, [r7, #4]
		      4134:   f7ff fb5f     bl 37f6 <nrf_uart_event_check>
		      4138:   4603          mov    r3, r0
		--------------------
	(    4170,     3886)	dead
		--------------------
		      4166:   f7ff fc55     bl 3a14 <nrf_uart_task_trigger>
		      416a:   2302          movs   r3, #2
		      416c:   733b          strb   r3, [r7, #12]
		      416e:   6878          ldr    r0, [r7, #4]
		->    4170:   f7ff fb89     bl 3886 <nrf_uart_errorsrc_get_and_clear>
		      4174:   4603          mov    r3, r0
		      4176:   61bb          str    r3, [r7, #24]
		      4178:   683b          ldr    r3, [r7, #0]
		      417a:   699b          ldr    r3, [r3, #24]
		--------------------
	(    419e,     41a0)	dead
		--------------------
		      4194:   683a          ldr    r2, [r7, #0]
		      4196:   6811          ldr    r1, [r2, #0]
		      4198:   f107 020c     add.w  r2, r7, #12
		      419c:   4610          mov    r0, r2
		->    419e:   4798          blx    r3
		      41a0:   e052          b.n    4248 <uart_irq_handler+0x134>
		      41a2:   2104          movs   r1, #4
		      41a4:   6878          ldr    r0, [r7, #4]
		      41a6:   f7ff fb4a     bl 383e <nrf_uart_int_enable_check>
		--------------------
	(    421e,     4220)	dead
		--------------------
		      4212:   f893 3029     ldrb.w r3, [r3, #41]   ; 0x29
		      4216:   f083 0301     eor.w  r3, r3, #1
		      421a:   b2db          uxtb   r3, r3
		      421c:   2b00          cmp    r3, #0
		->    421e:   d003          beq.n  4228 <uart_irq_handler+0x114>
		      4220:   2104          movs   r1, #4
		      4222:   6878          ldr    r0, [r7, #4]
		      4224:   f7ff fbf6     bl 3a14 <nrf_uart_task_trigger>
		      4228:   f44f 7101     mov.w  r1, #516 ; 0x204
		--------------------
	(    421e,     4228)	dead
		--------------------
		      4212:   f893 3029     ldrb.w r3, [r3, #41]   ; 0x29
		      4216:   f083 0301     eor.w  r3, r3, #1
		      421a:   b2db          uxtb   r3, r3
		      421c:   2b00          cmp    r3, #0
		->    421e:   d003          beq.n  4228 <uart_irq_handler+0x114>
		      4220:   2104          movs   r1, #4
		      4222:   6878          ldr    r0, [r7, #4]
		      4224:   f7ff fbf6     bl 3a14 <nrf_uart_task_trigger>
		      4228:   f44f 7101     mov.w  r1, #516 ; 0x204
		--------------------
	(    4224,     3a14)	dead
		--------------------
		      421c:   2b00          cmp    r3, #0
		      421e:   d003          beq.n  4228 <uart_irq_handler+0x114>
		      4220:   2104          movs   r1, #4
		      4222:   6878          ldr    r0, [r7, #4]
		->    4224:   f7ff fbf6     bl 3a14 <nrf_uart_task_trigger>
		      4228:   f44f 7101     mov.w  r1, #516 ; 0x204
		      422c:   6878          ldr    r0, [r7, #4]
		      422e:   f7ff fb1b     bl 3868 <nrf_uart_int_disable>
		      4232:   683b          ldr    r3, [r7, #0]
		--------------------
	(    422e,     3868)	dead
		--------------------
		      4222:   6878          ldr    r0, [r7, #4]
		      4224:   f7ff fbf6     bl 3a14 <nrf_uart_task_trigger>
		      4228:   f44f 7101     mov.w  r1, #516 ; 0x204
		      422c:   6878          ldr    r0, [r7, #4]
		->    422e:   f7ff fb1b     bl 3868 <nrf_uart_int_disable>
		      4232:   683b          ldr    r3, [r7, #0]
		      4234:   2200          movs   r2, #0
		      4236:   619a          str    r2, [r3, #24]
		      4238:   683b          ldr    r3, [r7, #0]
		--------------------
	(    424e,     37f6)	dead
		--------------------
		      4242:   6838          ldr    r0, [r7, #0]
		      4244:   f7ff ff33     bl 40ae <rx_done_event>
		      4248:   f44f 718e     mov.w  r1, #284 ; 0x11c
		      424c:   6878          ldr    r0, [r7, #4]
		->    424e:   f7ff fad2     bl 37f6 <nrf_uart_event_check>
		      4252:   4603          mov    r3, r0
		      4254:   2b00          cmp    r3, #0
		      4256:   d024          beq.n  42a2 <uart_irq_handler+0x18e>
		      4258:   683b          ldr    r3, [r7, #0]
		--------------------
	(    4266,     4268)	dead
		--------------------
		      425e:   683b          ldr    r3, [r7, #0]
		      4260:   6a1b          ldr    r3, [r3, #32]
		      4262:   69fa          ldr    r2, [r7, #28]
		      4264:   429a          cmp    r2, r3
		->    4266:   d90d          bls.n  4284 <uart_irq_handler+0x170>
		      4268:   683b          ldr    r3, [r7, #0]
		      426a:   f893 3028     ldrb.w r3, [r3, #40]   ; 0x28
		      426e:   b2db          uxtb   r3, r3
		      4270:   f083 0301     eor.w  r3, r3, #1
		--------------------
	(    42ca,     42ce)	dead
		--------------------
		      42c2:   2b00          cmp    r3, #0
		      42c4:   d003          beq.n  42ce <uart_irq_handler+0x1ba>
		      42c6:   2100          movs   r1, #0
		      42c8:   6878          ldr    r0, [r7, #4]
		->    42ca:   f7ff fba3     bl 3a14 <nrf_uart_task_trigger>
		      42ce:   683b          ldr    r3, [r7, #0]
		      42d0:   699b          ldr    r3, [r3, #24]
		      42d2:   2b00          cmp    r3, #0
		      42d4:   d00a          beq.n  42ec <uart_irq_handler+0x1d8>
		--------------------
	(    536e,     5388)	jt
		--------------------
		      5366:   3b03          subs   r3, #3
		      5368:   2b03          cmp    r3, #3
		      536a:   d813          bhi.n  5394 <nrf52_errata_16+0x50>
		      536c:   a201          add    r2, pc, #4 ; (adr r2, 5374 <nrf52_errata_16+0x30>)
		->    536e:   f852 f023     ldr.w  pc, [r2, r3, lsl #2]
		      5372:   bf00          nop
		      5374:   00005385  .word   0x00005385
		      5378:   00005389  .word   0x00005389
		      537c:   0000538d  .word   0x0000538d
		--------------------
	(    540a,     541e)	jt
		--------------------
		      53fc:   0000540d  .word   0x0000540d
		      5400:   00005411  .word   0x00005411
		      5404:   00005415  .word   0x00005415
		      5408:   2301          movs   r3, #1
		->    540a:   e008          b.n    541e <nrf52_errata_31+0x6e>
		      540c:   2301          movs   r3, #1
		      540e:   e006          b.n    541e <nrf52_errata_31+0x6e>
		      5410:   2301          movs   r3, #1
		      5412:   e004          b.n    541e <nrf52_errata_31+0x6e>
		--------------------
	(    5482,     5492)	jt
		--------------------
		      5478:   00005489  .word   0x00005489
		      547c:   2301          movs   r3, #1
		      547e:   e008          b.n    5492 <nrf52_errata_32+0x56>
		      5480:   2300          movs   r3, #0
		->    5482:   e006          b.n    5492 <nrf52_errata_32+0x56>
		      5484:   2300          movs   r3, #0
		      5486:   e004          b.n    5492 <nrf52_errata_32+0x56>
		      5488:   2300          movs   r3, #0
		      548a:   e002          b.n    5492 <nrf52_errata_32+0x56>
		--------------------
	(    557e,     558a)	jt
		--------------------
		      5576:   e008          b.n    558a <nrf52_errata_37+0x56>
		      5578:   2300          movs   r3, #0
		      557a:   e006          b.n    558a <nrf52_errata_37+0x56>
		      557c:   2300          movs   r3, #0
		->    557e:   e004          b.n    558a <nrf52_errata_37+0x56>
		      5580:   2300          movs   r3, #0
		      5582:   e002          b.n    558a <nrf52_errata_37+0x56>
		      5584:   2300          movs   r3, #0
		      5586:   e000          b.n    558a <nrf52_errata_37+0x56>
		--------------------
	(    56da,     56f8)	jt
		--------------------
		      56d2:   3b03          subs   r3, #3
		      56d4:   2b03          cmp    r3, #3
		      56d6:   d813          bhi.n  5700 <nrf52_errata_108+0x68>
		      56d8:   a201          add    r2, pc, #4 ; (adr r2, 56e0 <nrf52_errata_108+0x48>)
		->    56da:   f852 f023     ldr.w  pc, [r2, r3, lsl #2]
		      56de:   bf00          nop
		      56e0:   000056f1  .word   0x000056f1
		      56e4:   000056f5  .word   0x000056f5
		      56e8:   000056f9  .word   0x000056f9
		--------------------
	(    5766,     5784)	jt
		--------------------
		      575e:   3b03          subs   r3, #3
		      5760:   2b03          cmp    r3, #3
		      5762:   d813          bhi.n  578c <nrf52_errata_136+0x68>
		      5764:   a201          add    r2, pc, #4 ; (adr r2, 576c <nrf52_errata_136+0x48>)
		->    5766:   f852 f023     ldr.w  pc, [r2, r3, lsl #2]
		      576a:   bf00          nop
		      576c:   0000577d  .word   0x0000577d
		      5770:   00005781  .word   0x00005781
		      5774:   00005785  .word   0x00005785
		--------------------
	(    5766,     5788)	jt
		--------------------
		      575e:   3b03          subs   r3, #3
		      5760:   2b03          cmp    r3, #3
		      5762:   d813          bhi.n  578c <nrf52_errata_136+0x68>
		      5764:   a201          add    r2, pc, #4 ; (adr r2, 576c <nrf52_errata_136+0x48>)
		->    5766:   f852 f023     ldr.w  pc, [r2, r3, lsl #2]
		      576a:   bf00          nop
		      576c:   0000577d  .word   0x0000577d
		      5770:   00005781  .word   0x00005781
		      5774:   00005785  .word   0x00005785
		--------------------
	(    57d2,     57ec)	jt
		--------------------
		      57ca:   3b03          subs   r3, #3
		      57cc:   2b03          cmp    r3, #3
		      57ce:   d813          bhi.n  57f8 <nrf52_errata_182+0x48>
		      57d0:   a201          add    r2, pc, #4 ; (adr r2, 57d8 <nrf52_errata_182+0x28>)
		->    57d2:   f852 f023     ldr.w  pc, [r2, r3, lsl #2]
		      57d6:   bf00          nop
		      57d8:   000057e9  .word   0x000057e9
		      57dc:   000057ed  .word   0x000057ed
		      57e0:   000057f1  .word   0x000057f1
		--------------------

twi_sensor-o1: 20 | 72 | 14 dead
	(     202,      204)	
		--------------------
		      ...
		  
		  00000200 <__do_global_dtors_aux>:
		       200:   b510          push   {r4, lr}
		->     202:   4c05          ldr    r4, [pc, #20]  ; (218 <__do_global_dtors_aux+0x18>)
		       204:   7823          ldrb   r3, [r4, #0]
		       206:   b933          cbnz   r3, 216 <__do_global_dtors_aux+0x16>
		       208:   4b04          ldr    r3, [pc, #16]  ; (21c <__do_global_dtors_aux+0x1c>)
		       20a:   b113          cbz    r3, 212 <__do_global_dtors_aux+0x12>
		--------------------
	(     302,      304)	
		--------------------
		       2f8:   f001 f8eb     bl 14d2 <nrf_memobj_get>
		       2fc:   950e          str    r5, [sp, #56]  ; 0x38
		       2fe:   940f          str    r4, [sp, #60]  ; 0x3c
		       300:   2400          movs   r4, #0
		->     302:   9410          str    r4, [sp, #64]  ; 0x40
		       304:   f88d 4044     strb.w r4, [sp, #68]   ; 0x44
		       308:   9412          str    r4, [sp, #72]  ; 0x48
		       30a:   9b1a          ldr    r3, [sp, #104] ; 0x68
		       30c:   9313          str    r3, [sp, #76]  ; 0x4c
		--------------------
	(     304,      308)	
		--------------------
		       2fc:   950e          str    r5, [sp, #56]  ; 0x38
		       2fe:   940f          str    r4, [sp, #60]  ; 0x3c
		       300:   2400          movs   r4, #0
		       302:   9410          str    r4, [sp, #64]  ; 0x40
		->     304:   f88d 4044     strb.w r4, [sp, #68]   ; 0x44
		       308:   9412          str    r4, [sp, #72]  ; 0x48
		       30a:   9b1a          ldr    r3, [sp, #104] ; 0x68
		       30c:   9313          str    r3, [sp, #76]  ; 0x4c
		       30e:   4623          mov    r3, r4
		--------------------
	(     83e,      6ea)	
		--------------------
		       834:   4824          ldr    r0, [pc, #144] ; (8c8 <nrf_log_frontend_dequeue+0x238>)
		       836:   f000 fe19     bl 146c <nrf_memobj_alloc>
		       83a:   4605          mov    r5, r0
		       83c:   2800          cmp    r0, #0
		->     83e:   f43f af54     beq.w  6ea <nrf_log_frontend_dequeue+0x5a>
		       842:   f000 fe46     bl 14d2 <nrf_memobj_get>
		       846:   2300          movs   r3, #0
		       848:   2208          movs   r2, #8
		       84a:   4669          mov    r1, sp
		--------------------
	(     be4,      bf8)	
		--------------------
		       bd8:   4630          mov    r0, r6
		       bda:   f7ff ff93     bl b04 <prefix_process>
		       bde:   f1b8 0f06     cmp.w  r8, #6
		       be2:   d809          bhi.n  bf8 <nrf_log_std_entry_process+0x38>
		->     be4:   e8df f008     tbb    [pc, r8]
		       be8:   1e171104  .word   0x1e171104
		       bec:   3227          .short 0x3227
		       bee:   3f            .byte    0x3f
		       bef:   00            .byte    0x00
		--------------------
	(     d94,      d96)	
		--------------------
		       d88:   4b0f          ldr    r3, [pc, #60]  ; (dc8 <app_error_fault_handler+0x64>)
		       d8a:   f8d3 30f0     ldr.w  r3, [r3, #240]   ; 0xf0
		       d8e:   f013 0f01     tst.w  r3, #1
		       d92:   d000          beq.n  d96 <app_error_fault_handler+0x32>
		->     d94:   be00          bkpt   0x0000
		       d96:   490d          ldr    r1, [pc, #52]  ; (dcc <app_error_fault_handler+0x68>)
		       d98:   f044 0002     orr.w  r0, r4, #2
		       d9c:   f7ff fd96     bl 8cc <nrf_log_frontend_std_0>
		       da0:   f3bf 8f4f     dsb    sy
		--------------------
	(    1f56,     1f58)	dead
		--------------------
		  
		  00001f52 <rx_byte>:
		      1f52:   b082          sub    sp, #8
		      1f54:   698b          ldr    r3, [r1, #24]
		->    1f56:   b183          cbz    r3, 1f7a <rx_byte+0x28>
		      1f58:   2300          movs   r3, #0
		      1f5a:   f8c0 3108     str.w  r3, [r0, #264]   ; 0x108
		      1f5e:   f8d0 3108     ldr.w  r3, [r0, #264]   ; 0x108
		      1f62:   9301          str    r3, [sp, #4]
		--------------------
	(    1f74,     1f76)	dead
		--------------------
		      1f6c:   68ca          ldr    r2, [r1, #12]
		      1f6e:   54d0          strb   r0, [r2, r3]
		      1f70:   6a4b          ldr    r3, [r1, #36]  ; 0x24
		      1f72:   3301          adds   r3, #1
		->    1f74:   624b          str    r3, [r1, #36]  ; 0x24
		      1f76:   b002          add    sp, #8
		      1f78:   4770          bx lr
		      1f7a:   f8c0 3108     str.w  r3, [r0, #264]   ; 0x108
		      1f7e:   f8d0 3108     ldr.w  r3, [r0, #264]   ; 0x108
		--------------------
	(    1fa0,     1fa2)	dead
		--------------------
		      1f98:   9201          str    r2, [sp, #4]
		      1f9a:   6843          ldr    r3, [r0, #4]
		      1f9c:   6801          ldr    r1, [r0, #0]
		      1f9e:   4668          mov    r0, sp
		->    1fa0:   4798          blx    r3
		      1fa2:   b005          add    sp, #20
		      1fa4:   f85d fb04     ldr.w  pc, [sp], #4
		  
		  00001fa8 <nrfx_uart_0_irq_handler>:
		--------------------
	(    1fb6,     1fb8)	dead
		--------------------
		      1faa:   b086          sub    sp, #24
		      1fac:   4b5a          ldr    r3, [pc, #360] ; (2118 <Heap_Size+0x118>)
		      1fae:   f8d3 3304     ldr.w  r3, [r3, #772]   ; 0x304
		      1fb2:   f413 7f00     tst.w  r3, #512 ; 0x200
		->    1fb6:   d02c          beq.n  2012 <Heap_Size+0x12>
		      1fb8:   4b57          ldr    r3, [pc, #348] ; (2118 <Heap_Size+0x118>)
		      1fba:   f8d3 3124     ldr.w  r3, [r3, #292]   ; 0x124
		      1fbe:   b343          cbz    r3, 2012 <Heap_Size+0x12>
		      1fc0:   4b55          ldr    r3, [pc, #340] ; (2118 <Heap_Size+0x118>)
		--------------------
	(    1fbe,     2012)	dead
		--------------------
		      1fb2:   f413 7f00     tst.w  r3, #512 ; 0x200
		      1fb6:   d02c          beq.n  2012 <Heap_Size+0x12>
		      1fb8:   4b57          ldr    r3, [pc, #348] ; (2118 <Heap_Size+0x118>)
		      1fba:   f8d3 3124     ldr.w  r3, [r3, #292]   ; 0x124
		->    1fbe:   b343          cbz    r3, 2012 <Heap_Size+0x12>
		      1fc0:   4b55          ldr    r3, [pc, #340] ; (2118 <Heap_Size+0x118>)
		      1fc2:   2200          movs   r2, #0
		      1fc4:   f8c3 2124     str.w  r2, [r3, #292]   ; 0x124
		      1fc8:   f8d3 2124     ldr.w  r2, [r3, #292]   ; 0x124
		--------------------
	(    1fde,     1fe6)	dead
		--------------------
		      1fd0:   f44f 7201     mov.w  r2, #516 ; 0x204
		      1fd4:   f8c3 2308     str.w  r2, [r3, #776]   ; 0x308
		      1fd8:   4b50          ldr    r3, [pc, #320] ; (211c <Heap_Size+0x11c>)
		      1fda:   f893 3029     ldrb.w r3, [r3, #41]   ; 0x29
		->    1fde:   b913          cbnz   r3, 1fe6 <nrfx_uart_0_irq_handler+0x3e>
		      1fe0:   4b4d          ldr    r3, [pc, #308] ; (2118 <Heap_Size+0x118>)
		      1fe2:   2201          movs   r2, #1
		      1fe4:   605a          str    r2, [r3, #4]
		      1fe6:   2302          movs   r3, #2
		--------------------
	(    2026,     2028)	dead
		--------------------
		      201c:   d004          beq.n  2028 <Heap_Size+0x28>
		      201e:   4b3e          ldr    r3, [pc, #248] ; (2118 <Heap_Size+0x118>)
		      2020:   f8d3 3108     ldr.w  r3, [r3, #264]   ; 0x108
		      2024:   2b00          cmp    r3, #0
		->    2026:   d132          bne.n  208e <Heap_Size+0x8e>
		      2028:   4b3b          ldr    r3, [pc, #236] ; (2118 <Heap_Size+0x118>)
		      202a:   f8d3 311c     ldr.w  r3, [r3, #284]   ; 0x11c
		      202e:   b1ab          cbz    r3, 205c <Heap_Size+0x5c>
		      2030:   4b3a          ldr    r3, [pc, #232] ; (211c <Heap_Size+0x11c>)
		--------------------
	(    202e,     2030)	dead
		--------------------
		      2024:   2b00          cmp    r3, #0
		      2026:   d132          bne.n  208e <Heap_Size+0x8e>
		      2028:   4b3b          ldr    r3, [pc, #236] ; (2118 <Heap_Size+0x118>)
		      202a:   f8d3 311c     ldr.w  r3, [r3, #284]   ; 0x11c
		->    202e:   b1ab          cbz    r3, 205c <Heap_Size+0x5c>
		      2030:   4b3a          ldr    r3, [pc, #232] ; (211c <Heap_Size+0x11c>)
		      2032:   695a          ldr    r2, [r3, #20]
		      2034:   6a1b          ldr    r3, [r3, #32]
		      2036:   429a          cmp    r2, r3
		--------------------
	(    202e,     205c)	dead
		--------------------
		      2024:   2b00          cmp    r3, #0
		      2026:   d132          bne.n  208e <Heap_Size+0x8e>
		      2028:   4b3b          ldr    r3, [pc, #236] ; (2118 <Heap_Size+0x118>)
		      202a:   f8d3 311c     ldr.w  r3, [r3, #284]   ; 0x11c
		->    202e:   b1ab          cbz    r3, 205c <Heap_Size+0x5c>
		      2030:   4b3a          ldr    r3, [pc, #232] ; (211c <Heap_Size+0x11c>)
		      2032:   695a          ldr    r2, [r3, #20]
		      2034:   6a1b          ldr    r3, [r3, #32]
		      2036:   429a          cmp    r2, r3
		--------------------
	(    2062,     2064)	dead
		--------------------
		      2058:   2b00          cmp    r3, #0
		      205a:   d148          bne.n  20ee <Heap_Size+0xee>
		      205c:   4b2e          ldr    r3, [pc, #184] ; (2118 <Heap_Size+0x118>)
		      205e:   f8d3 3144     ldr.w  r3, [r3, #324]   ; 0x144
		->    2062:   b193          cbz    r3, 208a <Heap_Size+0x8a>
		      2064:   4b2c          ldr    r3, [pc, #176] ; (2118 <Heap_Size+0x118>)
		      2066:   2200          movs   r2, #0
		      2068:   f8c3 2144     str.w  r2, [r3, #324]   ; 0x144
		      206c:   f8d3 3144     ldr.w  r3, [r3, #324]   ; 0x144
		--------------------
	(    209e,     2028)	dead
		--------------------
		      2094:   f7ff ff5d     bl 1f52 <rx_byte>
		      2098:   6a63          ldr    r3, [r4, #36]  ; 0x24
		      209a:   69a2          ldr    r2, [r4, #24]
		      209c:   429a          cmp    r2, r3
		->    209e:   d1c3          bne.n  2028 <Heap_Size+0x28>
		      20a0:   69e3          ldr    r3, [r4, #28]
		      20a2:   b99b          cbnz   r3, 20cc <Heap_Size+0xcc>
		      20a4:   4b1d          ldr    r3, [pc, #116] ; (211c <Heap_Size+0x11c>)
		      20a6:   f893 3029     ldrb.w r3, [r3, #41]   ; 0x29
		--------------------
	(    20ec,     205c)	dead
		--------------------
		      20e2:   e7a1          b.n    2028 <Heap_Size+0x28>
		      20e4:   490d          ldr    r1, [pc, #52]  ; (211c <Heap_Size+0x11c>)
		      20e6:   480c          ldr    r0, [pc, #48]  ; (2118 <Heap_Size+0x118>)
		      20e8:   f7ff ff21     bl 1f2e <tx_byte>
		->    20ec:   e7b6          b.n    205c <Heap_Size+0x5c>
		      20ee:   4b0b          ldr    r3, [pc, #44]  ; (211c <Heap_Size+0x11c>)
		      20f0:   6959          ldr    r1, [r3, #20]
		      20f2:   f88d 2008     strb.w r2, [sp, #8]
		      20f6:   9104          str    r1, [sp, #16]
		--------------------
	(    2112,     1f8c)	dead
		--------------------
		      210a:   2300          movs   r3, #0
		      210c:   6183          str    r3, [r0, #24]
		      210e:   6a41          ldr    r1, [r0, #36]  ; 0x24
		      2110:   68c2          ldr    r2, [r0, #12]
		->    2112:   f7ff ff3b     bl 1f8c <rx_done_event>
		      2116:   e7b8          b.n    208a <Heap_Size+0x8a>
		      2118:   40002000  .word   0x40002000
		      211c:   20000674  .word   0x20000674
		  
		--------------------
	(    2116,     208a)	dead
		--------------------
		      210c:   6183          str    r3, [r0, #24]
		      210e:   6a41          ldr    r1, [r0, #36]  ; 0x24
		      2110:   68c2          ldr    r2, [r0, #12]
		      2112:   f7ff ff3b     bl 1f8c <rx_done_event>
		->    2116:   e7b8          b.n    208a <Heap_Size+0x8a>
		      2118:   40002000  .word   0x40002000
		      211c:   20000674  .word   0x20000674
		  
		  00002120 <nrfx_uart_init>:
		--------------------

twi_sensor-o2: 20 | 55 | 17 dead
	(     200,      202)	
		--------------------
		        d8:   000002eb  .word   0x000002eb
		      ...
		  
		  00000200 <__do_global_dtors_aux>:
		->     200:   b510          push   {r4, lr}
		       202:   4c05          ldr    r4, [pc, #20]  ; (218 <__do_global_dtors_aux+0x18>)
		       204:   7823          ldrb   r3, [r4, #0]
		       206:   b933          cbnz   r3, 216 <__do_global_dtors_aux+0x16>
		       208:   4b04          ldr    r3, [pc, #16]  ; (21c <__do_global_dtors_aux+0x1c>)
		--------------------
	(     202,      204)	
		--------------------
		      ...
		  
		  00000200 <__do_global_dtors_aux>:
		       200:   b510          push   {r4, lr}
		->     202:   4c05          ldr    r4, [pc, #20]  ; (218 <__do_global_dtors_aux+0x18>)
		       204:   7823          ldrb   r3, [r4, #0]
		       206:   b933          cbnz   r3, 216 <__do_global_dtors_aux+0x16>
		       208:   4b04          ldr    r3, [pc, #16]  ; (21c <__do_global_dtors_aux+0x1c>)
		       20a:   b113          cbz    r3, 212 <__do_global_dtors_aux+0x12>
		--------------------
	(    1b06,     1d34)	
		--------------------
		      1afa:   f8cc 3540     str.w  r3, [ip, #1344]  ; 0x540
		      1afe:   782b          ldrb   r3, [r5, #0]
		      1b00:   2b03          cmp    r3, #3
		      1b02:   f200 8117     bhi.w  1d34 <twim_xfer+0x2e0>
		->    1b06:   e8df f003     tbb    [pc, r3]
		      1b0a:   773a          .short 0x773a
		      1b0c:   078a          .short 0x078a
		      1b0e:   2610          movs   r6, #16
		      1b10:   4630          mov    r0, r6
		--------------------
	(    2288,     228a)	dead
		--------------------
		      227e:   4a6e          ldr    r2, [pc, #440] ; (2438 <nrfx_uart_0_irq_handler+0x1bc>)
		      2280:   f8d2 3304     ldr.w  r3, [r2, #772]   ; 0x304
		      2284:   0599          lsls   r1, r3, #22
		      2286:   b08a          sub    sp, #40    ; 0x28
		->    2288:   d567          bpl.n  235a <nrfx_uart_0_irq_handler+0xde>
		      228a:   f8d2 3124     ldr.w  r3, [r2, #292]   ; 0x124
		      228e:   2b00          cmp    r3, #0
		      2290:   d063          beq.n  235a <nrfx_uart_0_irq_handler+0xde>
		      2292:   2300          movs   r3, #0
		--------------------
	(    2290,     2292)	dead
		--------------------
		      2286:   b08a          sub    sp, #40    ; 0x28
		      2288:   d567          bpl.n  235a <nrfx_uart_0_irq_handler+0xde>
		      228a:   f8d2 3124     ldr.w  r3, [r2, #292]   ; 0x124
		      228e:   2b00          cmp    r3, #0
		->    2290:   d063          beq.n  235a <nrfx_uart_0_irq_handler+0xde>
		      2292:   2300          movs   r3, #0
		      2294:   f8c2 3124     str.w  r3, [r2, #292]   ; 0x124
		      2298:   f8d2 3124     ldr.w  r3, [r2, #292]   ; 0x124
		      229c:   9301          str    r3, [sp, #4]
		--------------------
	(    22b2,     22b4)	dead
		--------------------
		      22a6:   f8c2 1308     str.w  r1, [r2, #776]   ; 0x308
		      22aa:   f893 1029     ldrb.w r1, [r3, #41]   ; 0x29
		      22ae:   b909          cbnz   r1, 22b4 <nrfx_uart_0_irq_handler+0x38>
		      22b0:   2101          movs   r1, #1
		->    22b2:   6051          str    r1, [r2, #4]
		      22b4:   4a60          ldr    r2, [pc, #384] ; (2438 <nrfx_uart_0_irq_handler+0x1bc>)
		      22b6:   2102          movs   r1, #2
		      22b8:   f88d 1018     strb.w r1, [sp, #24]
		      22bc:   f8d2 1480     ldr.w  r1, [r2, #1152]  ; 0x480
		--------------------
	(    22ec,     22ee)	dead
		--------------------
		      22e4:   4b55          ldr    r3, [pc, #340] ; (243c <nrfx_uart_0_irq_handler+0x1c0>)
		      22e6:   6958          ldr    r0, [r3, #20]
		      22e8:   6a19          ldr    r1, [r3, #32]
		      22ea:   4288          cmp    r0, r1
		->    22ec:   d96a          bls.n  23c4 <nrfx_uart_0_irq_handler+0x148>
		      22ee:   f893 1028     ldrb.w r1, [r3, #40]   ; 0x28
		      22f2:   f001 00ff     and.w  r0, r1, #255 ; 0xff
		      22f6:   2900          cmp    r1, #0
		      22f8:   d164          bne.n  23c4 <nrfx_uart_0_irq_handler+0x148>
		--------------------
	(    22f8,     22fa)	dead
		--------------------
		      22ec:   d96a          bls.n  23c4 <nrfx_uart_0_irq_handler+0x148>
		      22ee:   f893 1028     ldrb.w r1, [r3, #40]   ; 0x28
		      22f2:   f001 00ff     and.w  r0, r1, #255 ; 0xff
		      22f6:   2900          cmp    r1, #0
		->    22f8:   d164          bne.n  23c4 <nrfx_uart_0_irq_handler+0x148>
		      22fa:   f8c2 011c     str.w  r0, [r2, #284]   ; 0x11c
		      22fe:   f8d2 111c     ldr.w  r1, [r2, #284]   ; 0x11c
		      2302:   9103          str    r1, [sp, #12]
		      2304:   9903          ldr    r1, [sp, #12]
		--------------------
	(    22f8,     23c4)	dead
		--------------------
		      22ec:   d96a          bls.n  23c4 <nrfx_uart_0_irq_handler+0x148>
		      22ee:   f893 1028     ldrb.w r1, [r3, #40]   ; 0x28
		      22f2:   f001 00ff     and.w  r0, r1, #255 ; 0xff
		      22f6:   2900          cmp    r1, #0
		->    22f8:   d164          bne.n  23c4 <nrfx_uart_0_irq_handler+0x148>
		      22fa:   f8c2 011c     str.w  r0, [r2, #284]   ; 0x11c
		      22fe:   f8d2 111c     ldr.w  r1, [r2, #284]   ; 0x11c
		      2302:   9103          str    r1, [sp, #12]
		      2304:   9903          ldr    r1, [sp, #12]
		--------------------
	(    2312,     2316)	dead
		--------------------
		      230a:   6a19          ldr    r1, [r3, #32]
		      230c:   5c20          ldrb   r0, [r4, r0]
		      230e:   3101          adds   r1, #1
		      2310:   6219          str    r1, [r3, #32]
		->    2312:   f8c2 051c     str.w  r0, [r2, #1308]  ; 0x51c
		      2316:   4a48          ldr    r2, [pc, #288] ; (2438 <nrfx_uart_0_irq_handler+0x1bc>)
		      2318:   f8d2 3144     ldr.w  r3, [r2, #324]   ; 0x144
		      231c:   b1db          cbz    r3, 2356 <nrfx_uart_0_irq_handler+0xda>
		      231e:   2100          movs   r1, #0
		--------------------
	(    2336,     2338)	dead
		--------------------
		      232e:   9000          str    r0, [sp, #0]
		      2330:   9800          ldr    r0, [sp, #0]
		      2332:   b109          cbz    r1, 2338 <nrfx_uart_0_irq_handler+0xbc>
		      2334:   2101          movs   r1, #1
		->    2336:   6011          str    r1, [r2, #0]
		      2338:   699a          ldr    r2, [r3, #24]
		      233a:   b162          cbz    r2, 2356 <nrfx_uart_0_irq_handler+0xda>
		      233c:   68d8          ldr    r0, [r3, #12]
		      233e:   6a5c          ldr    r4, [r3, #36]  ; 0x24
		--------------------
	(    2362,     22dc)	dead
		--------------------
		      2358:   bd10          pop    {r4, pc}
		      235a:   4a37          ldr    r2, [pc, #220] ; (2438 <nrfx_uart_0_irq_handler+0x1bc>)
		      235c:   f8d2 3304     ldr.w  r3, [r2, #772]   ; 0x304
		      2360:   075b          lsls   r3, r3, #29
		->    2362:   d5bb          bpl.n  22dc <nrfx_uart_0_irq_handler+0x60>
		      2364:   f8d2 3108     ldr.w  r3, [r2, #264]   ; 0x108
		      2368:   2b00          cmp    r3, #0
		      236a:   d0b7          beq.n  22dc <nrfx_uart_0_irq_handler+0x60>
		      236c:   4b33          ldr    r3, [pc, #204] ; (243c <nrfx_uart_0_irq_handler+0x1c0>)
		--------------------
	(    236a,     236c)	dead
		--------------------
		      2360:   075b          lsls   r3, r3, #29
		      2362:   d5bb          bpl.n  22dc <nrfx_uart_0_irq_handler+0x60>
		      2364:   f8d2 3108     ldr.w  r3, [r2, #264]   ; 0x108
		      2368:   2b00          cmp    r3, #0
		->    236a:   d0b7          beq.n  22dc <nrfx_uart_0_irq_handler+0x60>
		      236c:   4b33          ldr    r3, [pc, #204] ; (243c <nrfx_uart_0_irq_handler+0x1c0>)
		      236e:   6999          ldr    r1, [r3, #24]
		      2370:   2900          cmp    r1, #0
		      2372:   d03e          beq.n  23f2 <nrfx_uart_0_irq_handler+0x176>
		--------------------
	(    2392,     2394)	dead
		--------------------
		      238a:   5442          strb   r2, [r0, r1]
		      238c:   6a5a          ldr    r2, [r3, #36]  ; 0x24
		      238e:   6999          ldr    r1, [r3, #24]
		      2390:   3201          adds   r2, #1
		->    2392:   625a          str    r2, [r3, #36]  ; 0x24
		      2394:   6a5a          ldr    r2, [r3, #36]  ; 0x24
		      2396:   428a          cmp    r2, r1
		      2398:   d1a0          bne.n  22dc <nrfx_uart_0_irq_handler+0x60>
		      239a:   69da          ldr    r2, [r3, #28]
		--------------------
	(    239e,     23a0)	dead
		--------------------
		      2396:   428a          cmp    r2, r1
		      2398:   d1a0          bne.n  22dc <nrfx_uart_0_irq_handler+0x60>
		      239a:   69da          ldr    r2, [r3, #28]
		      239c:   2a00          cmp    r2, #0
		->    239e:   d031          beq.n  2404 <nrfx_uart_0_irq_handler+0x188>
		      23a0:   619a          str    r2, [r3, #24]
		      23a2:   691a          ldr    r2, [r3, #16]
		      23a4:   68d8          ldr    r0, [r3, #12]
		      23a6:   6a5c          ldr    r4, [r3, #36]  ; 0x24
		--------------------
	(    23c0,     23c2)	dead
		--------------------
		      23b6:   685c          ldr    r4, [r3, #4]
		      23b8:   6819          ldr    r1, [r3, #0]
		      23ba:   f88d 2018     strb.w r2, [sp, #24]
		      23be:   a806          add    r0, sp, #24
		->    23c0:   47a0          blx    r4
		      23c2:   e78b          b.n    22dc <nrfx_uart_0_irq_handler+0x60>
		      23c4:   4a1c          ldr    r2, [pc, #112] ; (2438 <nrfx_uart_0_irq_handler+0x1bc>)
		      23c6:   2000          movs   r0, #0
		      23c8:   f8c2 011c     str.w  r0, [r2, #284]   ; 0x11c
		--------------------
	(    23d8,     23da)	dead
		--------------------
		      23d0:   9202          str    r2, [sp, #8]
		      23d2:   9a02          ldr    r2, [sp, #8]
		      23d4:   695a          ldr    r2, [r3, #20]
		      23d6:   2a00          cmp    r2, #0
		->    23d8:   d09d          beq.n  2316 <nrfx_uart_0_irq_handler+0x9a>
		      23da:   e9d3 2101     ldrd   r2, r1, [r3, #4]
		      23de:   695c          ldr    r4, [r3, #20]
		      23e0:   f88d 0018     strb.w r0, [sp, #24]
		      23e4:   e9cd 1407     strd   r1, r4, [sp, #28]
		--------------------
	(    2408,     2410)	dead
		--------------------
		      23fc:   9805          ldr    r0, [sp, #20]
		      23fe:   f8d2 2518     ldr.w  r2, [r2, #1304]  ; 0x518
		      2402:   e7c7          b.n    2394 <nrfx_uart_0_irq_handler+0x118>
		      2404:   f893 2029     ldrb.w r2, [r3, #41]   ; 0x29
		->    2408:   b912          cbnz   r2, 2410 <nrfx_uart_0_irq_handler+0x194>
		      240a:   4a0b          ldr    r2, [pc, #44]  ; (2438 <nrfx_uart_0_irq_handler+0x1bc>)
		      240c:   2101          movs   r1, #1
		      240e:   6051          str    r1, [r2, #4]
		      2410:   4a09          ldr    r2, [pc, #36]  ; (2438 <nrfx_uart_0_irq_handler+0x1bc>)
		--------------------
	(    2432,     2434)	dead
		--------------------
		      2426:   6199          str    r1, [r3, #24]
		      2428:   f88d 2018     strb.w r2, [sp, #24]
		      242c:   a806          add    r0, sp, #24
		      242e:   e9d3 1200     ldrd   r1, r2, [r3]
		->    2432:   4790          blx    r2
		      2434:   e752          b.n    22dc <nrfx_uart_0_irq_handler+0x60>
		      2436:   bf00          nop
		      2438:   40002000  .word   0x40002000
		      243c:   20000674  .word   0x20000674
		--------------------
	(    2434,     22dc)	dead
		--------------------
		      2428:   f88d 2018     strb.w r2, [sp, #24]
		      242c:   a806          add    r0, sp, #24
		      242e:   e9d3 1200     ldrd   r1, r2, [r3]
		      2432:   4790          blx    r2
		->    2434:   e752          b.n    22dc <nrfx_uart_0_irq_handler+0x60>
		      2436:   bf00          nop
		      2438:   40002000  .word   0x40002000
		      243c:   20000674  .word   0x20000674
		  
		--------------------

twi_sensor-o3: 20 | 54 | 19 dead
	(     202,      204)	
		--------------------
		      ...
		  
		  00000200 <__do_global_dtors_aux>:
		       200:   b510          push   {r4, lr}
		->     202:   4c05          ldr    r4, [pc, #20]  ; (218 <__do_global_dtors_aux+0x18>)
		       204:   7823          ldrb   r3, [r4, #0]
		       206:   b933          cbnz   r3, 216 <__do_global_dtors_aux+0x16>
		       208:   4b04          ldr    r3, [pc, #16]  ; (21c <__do_global_dtors_aux+0x1c>)
		       20a:   b113          cbz    r3, 212 <__do_global_dtors_aux+0x12>
		--------------------
	(    19a2,     19a4)	dead
		--------------------
		      1998:   9501          str    r5, [sp, #4]
		      199a:   f88d 4008     strb.w r4, [sp, #8]
		      199e:   9203          str    r2, [sp, #12]
		      19a0:   4668          mov    r0, sp
		->    19a2:   4798          blx    r3
		      19a4:   b005          add    sp, #20
		      19a6:   bd30          pop    {r4, r5, pc}
		      19a8:   20000634  .word   0x20000634
		      19ac:   20000630  .word   0x20000630
		--------------------
	(    21e4,     22b8)	dead
		--------------------
		      21da:   4a71          ldr    r2, [pc, #452] ; (23a0 <nrfx_uart_0_irq_handler+0x1c8>)
		      21dc:   f8d2 3304     ldr.w  r3, [r2, #772]   ; 0x304
		      21e0:   0599          lsls   r1, r3, #22
		      21e2:   b08a          sub    sp, #40    ; 0x28
		->    21e4:   d568          bpl.n  22b8 <nrfx_uart_0_irq_handler+0xe0>
		      21e6:   f8d2 3124     ldr.w  r3, [r2, #292]   ; 0x124
		      21ea:   2b00          cmp    r3, #0
		      21ec:   d064          beq.n  22b8 <nrfx_uart_0_irq_handler+0xe0>
		      21ee:   2300          movs   r3, #0
		--------------------
	(    220a,     220c)	dead
		--------------------
		      21fe:   4b69          ldr    r3, [pc, #420] ; (23a4 <nrfx_uart_0_irq_handler+0x1cc>)
		      2200:   9801          ldr    r0, [sp, #4]
		      2202:   f8c2 1308     str.w  r1, [r2, #776]   ; 0x308
		      2206:   f893 1029     ldrb.w r1, [r3, #41]   ; 0x29
		->    220a:   b909          cbnz   r1, 2210 <nrfx_uart_0_irq_handler+0x38>
		      220c:   2101          movs   r1, #1
		      220e:   6051          str    r1, [r2, #4]
		      2210:   4963          ldr    r1, [pc, #396] ; (23a0 <nrfx_uart_0_irq_handler+0x1c8>)
		      2212:   2202          movs   r2, #2
		--------------------
	(    2240,     2274)	dead
		--------------------
		      2236:   a806          add    r0, sp, #24
		      2238:   4790          blx    r2
		      223a:   4a59          ldr    r2, [pc, #356] ; (23a0 <nrfx_uart_0_irq_handler+0x1c8>)
		      223c:   f8d2 311c     ldr.w  r3, [r2, #284]   ; 0x11c
		->    2240:   b1c3          cbz    r3, 2274 <nrfx_uart_0_irq_handler+0x9c>
		      2242:   4b58          ldr    r3, [pc, #352] ; (23a4 <nrfx_uart_0_irq_handler+0x1cc>)
		      2244:   6958          ldr    r0, [r3, #20]
		      2246:   6a19          ldr    r1, [r3, #32]
		      2248:   4288          cmp    r0, r1
		--------------------
	(    224a,     224c)	dead
		--------------------
		      2242:   4b58          ldr    r3, [pc, #352] ; (23a4 <nrfx_uart_0_irq_handler+0x1cc>)
		      2244:   6958          ldr    r0, [r3, #20]
		      2246:   6a19          ldr    r1, [r3, #32]
		      2248:   4288          cmp    r0, r1
		->    224a:   d96a          bls.n  2322 <nrfx_uart_0_irq_handler+0x14a>
		      224c:   f893 1028     ldrb.w r1, [r3, #40]   ; 0x28
		      2250:   f001 00ff     and.w  r0, r1, #255 ; 0xff
		      2254:   2900          cmp    r1, #0
		      2256:   d164          bne.n  2322 <nrfx_uart_0_irq_handler+0x14a>
		--------------------
	(    224a,     2322)	dead
		--------------------
		      2242:   4b58          ldr    r3, [pc, #352] ; (23a4 <nrfx_uart_0_irq_handler+0x1cc>)
		      2244:   6958          ldr    r0, [r3, #20]
		      2246:   6a19          ldr    r1, [r3, #32]
		      2248:   4288          cmp    r0, r1
		->    224a:   d96a          bls.n  2322 <nrfx_uart_0_irq_handler+0x14a>
		      224c:   f893 1028     ldrb.w r1, [r3, #40]   ; 0x28
		      2250:   f001 00ff     and.w  r0, r1, #255 ; 0xff
		      2254:   2900          cmp    r1, #0
		      2256:   d164          bne.n  2322 <nrfx_uart_0_irq_handler+0x14a>
		--------------------
	(    2256,     2258)	dead
		--------------------
		      224a:   d96a          bls.n  2322 <nrfx_uart_0_irq_handler+0x14a>
		      224c:   f893 1028     ldrb.w r1, [r3, #40]   ; 0x28
		      2250:   f001 00ff     and.w  r0, r1, #255 ; 0xff
		      2254:   2900          cmp    r1, #0
		->    2256:   d164          bne.n  2322 <nrfx_uart_0_irq_handler+0x14a>
		      2258:   f8c2 011c     str.w  r0, [r2, #284]   ; 0x11c
		      225c:   f8d2 111c     ldr.w  r1, [r2, #284]   ; 0x11c
		      2260:   9103          str    r1, [sp, #12]
		      2262:   9903          ldr    r1, [sp, #12]
		--------------------
	(    2256,     2322)	dead
		--------------------
		      224a:   d96a          bls.n  2322 <nrfx_uart_0_irq_handler+0x14a>
		      224c:   f893 1028     ldrb.w r1, [r3, #40]   ; 0x28
		      2250:   f001 00ff     and.w  r0, r1, #255 ; 0xff
		      2254:   2900          cmp    r1, #0
		->    2256:   d164          bne.n  2322 <nrfx_uart_0_irq_handler+0x14a>
		      2258:   f8c2 011c     str.w  r0, [r2, #284]   ; 0x11c
		      225c:   f8d2 111c     ldr.w  r1, [r2, #284]   ; 0x11c
		      2260:   9103          str    r1, [sp, #12]
		      2262:   9903          ldr    r1, [sp, #12]
		--------------------
	(    2290,     2296)	dead
		--------------------
		      2284:   f8d2 0144     ldr.w  r0, [r2, #324]   ; 0x144
		      2288:   f893 1029     ldrb.w r1, [r3, #41]   ; 0x29
		      228c:   9000          str    r0, [sp, #0]
		      228e:   9800          ldr    r0, [sp, #0]
		->    2290:   b109          cbz    r1, 2296 <nrfx_uart_0_irq_handler+0xbe>
		      2292:   2101          movs   r1, #1
		      2294:   6011          str    r1, [r2, #0]
		      2296:   699a          ldr    r2, [r3, #24]
		      2298:   b162          cbz    r2, 22b4 <nrfx_uart_0_irq_handler+0xdc>
		--------------------
	(    22b2,     22b4)	dead
		--------------------
		      22a6:   6199          str    r1, [r3, #24]
		      22a8:   f88d 2018     strb.w r2, [sp, #24]
		      22ac:   a806          add    r0, sp, #24
		      22ae:   e9d3 1200     ldrd   r1, r2, [r3]
		->    22b2:   4790          blx    r2
		      22b4:   b00a          add    sp, #40    ; 0x28
		      22b6:   bd10          pop    {r4, pc}
		      22b8:   4a39          ldr    r2, [pc, #228] ; (23a0 <nrfx_uart_0_irq_handler+0x1c8>)
		      22ba:   f8d2 3304     ldr.w  r3, [r2, #772]   ; 0x304
		--------------------
	(    22d0,     2350)	dead
		--------------------
		      22c8:   d0b7          beq.n  223a <nrfx_uart_0_irq_handler+0x62>
		      22ca:   4b36          ldr    r3, [pc, #216] ; (23a4 <nrfx_uart_0_irq_handler+0x1cc>)
		      22cc:   6999          ldr    r1, [r3, #24]
		      22ce:   2900          cmp    r1, #0
		->    22d0:   d03e          beq.n  2350 <nrfx_uart_0_irq_handler+0x178>
		      22d2:   2100          movs   r1, #0
		      22d4:   f8c2 1108     str.w  r1, [r2, #264]   ; 0x108
		      22d8:   f8d2 1108     ldr.w  r1, [r2, #264]   ; 0x108
		      22dc:   9104          str    r1, [sp, #16]
		--------------------
	(    22f6,     223a)	dead
		--------------------
		      22ee:   3201          adds   r2, #1
		      22f0:   625a          str    r2, [r3, #36]  ; 0x24
		      22f2:   6a5a          ldr    r2, [r3, #36]  ; 0x24
		      22f4:   428a          cmp    r2, r1
		->    22f6:   d1a0          bne.n  223a <nrfx_uart_0_irq_handler+0x62>
		      22f8:   69da          ldr    r2, [r3, #28]
		      22fa:   2a00          cmp    r2, #0
		      22fc:   d031          beq.n  2362 <nrfx_uart_0_irq_handler+0x18a>
		      22fe:   619a          str    r2, [r3, #24]
		--------------------
	(    22f6,     22f8)	dead
		--------------------
		      22ee:   3201          adds   r2, #1
		      22f0:   625a          str    r2, [r3, #36]  ; 0x24
		      22f2:   6a5a          ldr    r2, [r3, #36]  ; 0x24
		      22f4:   428a          cmp    r2, r1
		->    22f6:   d1a0          bne.n  223a <nrfx_uart_0_irq_handler+0x62>
		      22f8:   69da          ldr    r2, [r3, #28]
		      22fa:   2a00          cmp    r2, #0
		      22fc:   d031          beq.n  2362 <nrfx_uart_0_irq_handler+0x18a>
		      22fe:   619a          str    r2, [r3, #24]
		--------------------
	(    2320,     223a)	dead
		--------------------
		      2316:   6819          ldr    r1, [r3, #0]
		      2318:   f88d 2018     strb.w r2, [sp, #24]
		      231c:   a806          add    r0, sp, #24
		      231e:   47a0          blx    r4
		->    2320:   e78b          b.n    223a <nrfx_uart_0_irq_handler+0x62>
		      2322:   4a1f          ldr    r2, [pc, #124] ; (23a0 <nrfx_uart_0_irq_handler+0x1c8>)
		      2324:   2000          movs   r0, #0
		      2326:   f8c2 011c     str.w  r0, [r2, #284]   ; 0x11c
		      232a:   f8d2 211c     ldr.w  r2, [r2, #284]   ; 0x11c
		--------------------
	(    2336,     2274)	dead
		--------------------
		      232e:   9202          str    r2, [sp, #8]
		      2330:   9a02          ldr    r2, [sp, #8]
		      2332:   695a          ldr    r2, [r3, #20]
		      2334:   2a00          cmp    r2, #0
		->    2336:   d09d          beq.n  2274 <nrfx_uart_0_irq_handler+0x9c>
		      2338:   e9d3 2101     ldrd   r2, r1, [r3, #4]
		      233c:   695c          ldr    r4, [r3, #20]
		      233e:   f88d 0018     strb.w r0, [sp, #24]
		      2342:   e9cd 1407     strd   r1, r4, [sp, #28]
		--------------------
	(    2336,     2338)	dead
		--------------------
		      232e:   9202          str    r2, [sp, #8]
		      2330:   9a02          ldr    r2, [sp, #8]
		      2332:   695a          ldr    r2, [r3, #20]
		      2334:   2a00          cmp    r2, #0
		->    2336:   d09d          beq.n  2274 <nrfx_uart_0_irq_handler+0x9c>
		      2338:   e9d3 2101     ldrd   r2, r1, [r3, #4]
		      233c:   695c          ldr    r4, [r3, #20]
		      233e:   f88d 0018     strb.w r0, [sp, #24]
		      2342:   e9cd 1407     strd   r1, r4, [sp, #28]
		--------------------
	(    234e,     2274)	dead
		--------------------
		      2346:   6158          str    r0, [r3, #20]
		      2348:   6819          ldr    r1, [r3, #0]
		      234a:   a806          add    r0, sp, #24
		      234c:   4790          blx    r2
		->    234e:   e791          b.n    2274 <nrfx_uart_0_irq_handler+0x9c>
		      2350:   f8c2 1108     str.w  r1, [r2, #264]   ; 0x108
		      2354:   f8d2 0108     ldr.w  r0, [r2, #264]   ; 0x108
		      2358:   9005          str    r0, [sp, #20]
		      235a:   9805          ldr    r0, [sp, #20]
		--------------------
	(    2360,     22f2)	dead
		--------------------
		      2354:   f8d2 0108     ldr.w  r0, [r2, #264]   ; 0x108
		      2358:   9005          str    r0, [sp, #20]
		      235a:   9805          ldr    r0, [sp, #20]
		      235c:   f8d2 2518     ldr.w  r2, [r2, #1304]  ; 0x518
		->    2360:   e7c7          b.n    22f2 <nrfx_uart_0_irq_handler+0x11a>
		      2362:   f893 2029     ldrb.w r2, [r3, #41]   ; 0x29
		      2366:   b912          cbnz   r2, 236e <nrfx_uart_0_irq_handler+0x196>
		      2368:   4a0d          ldr    r2, [pc, #52]  ; (23a0 <nrfx_uart_0_irq_handler+0x1c8>)
		      236a:   2101          movs   r1, #1
		--------------------
	(    2366,     236e)	dead
		--------------------
		      235a:   9805          ldr    r0, [sp, #20]
		      235c:   f8d2 2518     ldr.w  r2, [r2, #1304]  ; 0x518
		      2360:   e7c7          b.n    22f2 <nrfx_uart_0_irq_handler+0x11a>
		      2362:   f893 2029     ldrb.w r2, [r3, #41]   ; 0x29
		->    2366:   b912          cbnz   r2, 236e <nrfx_uart_0_irq_handler+0x196>
		      2368:   4a0d          ldr    r2, [pc, #52]  ; (23a0 <nrfx_uart_0_irq_handler+0x1c8>)
		      236a:   2101          movs   r1, #1
		      236c:   6051          str    r1, [r2, #4]
		      236e:   4a0c          ldr    r2, [pc, #48]  ; (23a0 <nrfx_uart_0_irq_handler+0x1c8>)
		--------------------

uart-o0: 34 | 341 | 13 jt | 18 dead
	(     c16,      aa0)	dead
		--------------------
		       c0e:   60b9          str    r1, [r7, #8]
		       c10:   607a          str    r2, [r7, #4]
		       c12:   bf00          nop
		       c14:   68b8          ldr    r0, [r7, #8]
		->     c16:   f7ff ff43     bl aa0 <app_uart_get>
		       c1a:   4603          mov    r3, r0
		       c1c:   2b05          cmp    r3, #5
		       c1e:   d0f9          beq.n  c14 <_read+0xe>
		       c20:   2301          movs   r3, #1
		--------------------
	(     da0,      da2)	
		--------------------
		       d98:   b580          push   {r7, lr}
		       d9a:   af00          add    r7, sp, #0
		       d9c:   4b01          ldr    r3, [pc, #4]   ; (da4 <UARTE0_UART0_IRQHandler+0xc>)
		       d9e:   681b          ldr    r3, [r3, #0]
		->     da0:   4798          blx    r3
		       da2:   bd80          pop    {r7, pc}
		       da4:   200000d8  .word   0x200000d8
		  
		  00000da8 <prs_box_get>:
		--------------------
	(    1858,     185a)	dead
		--------------------
		      184e:   687a          ldr    r2, [r7, #4]
		      1850:   6811          ldr    r1, [r2, #0]
		      1852:   f107 0208     add.w  r2, r7, #8
		      1856:   4610          mov    r0, r2
		->    1858:   4798          blx    r3
		      185a:   bf00          nop
		      185c:   3718          adds   r7, #24
		      185e:   46bd          mov    sp, r7
		      1860:   bd80          pop    {r7, pc}
		--------------------
	(    1872,      f96)	dead
		--------------------
		      1868:   6078          str    r0, [r7, #4]
		      186a:   6039          str    r1, [r7, #0]
		      186c:   f44f 7100     mov.w  r1, #512 ; 0x200
		      1870:   6878          ldr    r0, [r7, #4]
		->    1872:   f7ff fb90     bl f96 <nrf_uart_int_enable_check>
		      1876:   4603          mov    r3, r0
		      1878:   2b00          cmp    r3, #0
		      187a:   d039          beq.n  18f0 <uart_irq_handler+0x8e>
		      187c:   f44f 7192     mov.w  r1, #292 ; 0x124
		--------------------
	(    1882,      f4e)	dead
		--------------------
		      1878:   2b00          cmp    r3, #0
		      187a:   d039          beq.n  18f0 <uart_irq_handler+0x8e>
		      187c:   f44f 7192     mov.w  r1, #292 ; 0x124
		      1880:   6878          ldr    r0, [r7, #4]
		->    1882:   f7ff fb64     bl f4e <nrf_uart_event_check>
		      1886:   4603          mov    r3, r0
		      1888:   2b00          cmp    r3, #0
		      188a:   d031          beq.n  18f0 <uart_irq_handler+0x8e>
		      188c:   f44f 7192     mov.w  r1, #292 ; 0x124
		--------------------
	(    1892,     1896)	dead
		--------------------
		      1888:   2b00          cmp    r3, #0
		      188a:   d031          beq.n  18f0 <uart_irq_handler+0x8e>
		      188c:   f44f 7192     mov.w  r1, #292 ; 0x124
		      1890:   6878          ldr    r0, [r7, #4]
		->    1892:   f7ff fb45     bl f20 <nrf_uart_event_clear>
		      1896:   f44f 7101     mov.w  r1, #516 ; 0x204
		      189a:   6878          ldr    r0, [r7, #4]
		      189c:   f7ff fb90     bl fc0 <nrf_uart_int_disable>
		      18a0:   683b          ldr    r3, [r7, #0]
		--------------------
	(    18b4,     18b8)	dead
		--------------------
		      18ac:   2b00          cmp    r3, #0
		      18ae:   d003          beq.n  18b8 <uart_irq_handler+0x56>
		      18b0:   2104          movs   r1, #4
		      18b2:   6878          ldr    r0, [r7, #4]
		->    18b4:   f7ff fbfa     bl 10ac <nrf_uart_task_trigger>
		      18b8:   2302          movs   r3, #2
		      18ba:   733b          strb   r3, [r7, #12]
		      18bc:   6878          ldr    r0, [r7, #4]
		      18be:   f7ff fb8e     bl fde <nrf_uart_errorsrc_get_and_clear>
		--------------------
	(    18ec,     18ee)	dead
		--------------------
		      18e2:   683a          ldr    r2, [r7, #0]
		      18e4:   6811          ldr    r1, [r2, #0]
		      18e6:   f107 020c     add.w  r2, r7, #12
		      18ea:   4610          mov    r0, r2
		->    18ec:   4798          blx    r3
		      18ee:   e052          b.n    1996 <uart_irq_handler+0x134>
		      18f0:   2104          movs   r1, #4
		      18f2:   6878          ldr    r0, [r7, #4]
		      18f4:   f7ff fb4f     bl f96 <nrf_uart_int_enable_check>
		--------------------
	(    1904,     1908)	dead
		--------------------
		      18fa:   2b00          cmp    r3, #0
		      18fc:   d04b          beq.n  1996 <uart_irq_handler+0x134>
		      18fe:   f44f 7184     mov.w  r1, #264 ; 0x108
		      1902:   6878          ldr    r0, [r7, #4]
		->    1904:   f7ff fb23     bl f4e <nrf_uart_event_check>
		      1908:   4603          mov    r3, r0
		      190a:   2b00          cmp    r3, #0
		      190c:   d043          beq.n  1996 <uart_irq_handler+0x134>
		      190e:   6839          ldr    r1, [r7, #0]
		--------------------
	(    1958,     195c)	dead
		--------------------
		      1950:   625a          str    r2, [r3, #36]  ; 0x24
		      1952:   6a7a          ldr    r2, [r7, #36]  ; 0x24
		      1954:   6a39          ldr    r1, [r7, #32]
		      1956:   6838          ldr    r0, [r7, #0]
		->    1958:   f7ff ff50     bl 17fc <rx_done_event>
		      195c:   e01b          b.n    1996 <uart_irq_handler+0x134>
		      195e:   683b          ldr    r3, [r7, #0]
		      1960:   f893 3029     ldrb.w r3, [r3, #41]   ; 0x29
		      1964:   f083 0301     eor.w  r3, r3, #1
		--------------------
	(    19f6,     19fa)	dead
		--------------------
		      19ea:   6838          ldr    r0, [r7, #0]
		      19ec:   f7ff ff1e     bl 182c <tx_done_event>
		      19f0:   f44f 71a2     mov.w  r1, #324 ; 0x144
		      19f4:   6878          ldr    r0, [r7, #4]
		->    19f6:   f7ff faaa     bl f4e <nrf_uart_event_check>
		      19fa:   4603          mov    r3, r0
		      19fc:   2b00          cmp    r3, #0
		      19fe:   d01c          beq.n  1a3a <uart_irq_handler+0x1d8>
		      1a00:   f44f 71a2     mov.w  r1, #324 ; 0x144
		--------------------
	(    1a22,     1a24)	dead
		--------------------
		      1a18:   f7ff fb48     bl 10ac <nrf_uart_task_trigger>
		      1a1c:   683b          ldr    r3, [r7, #0]
		      1a1e:   699b          ldr    r3, [r3, #24]
		      1a20:   2b00          cmp    r3, #0
		->    1a22:   d00a          beq.n  1a3a <uart_irq_handler+0x1d8>
		      1a24:   683b          ldr    r3, [r7, #0]
		      1a26:   2200          movs   r2, #0
		      1a28:   619a          str    r2, [r3, #24]
		      1a2a:   683b          ldr    r3, [r7, #0]
		--------------------
	(    1a4c,     1862)	dead
		--------------------
		      1a44:   b580          push   {r7, lr}
		      1a46:   af00          add    r7, sp, #0
		      1a48:   4902          ldr    r1, [pc, #8]   ; (1a54 <nrfx_uart_0_irq_handler+0x10>)
		      1a4a:   4803          ldr    r0, [pc, #12]  ; (1a58 <nrfx_uart_0_irq_handler+0x14>)
		->    1a4c:   f7ff ff09     bl 1862 <uart_irq_handler>
		      1a50:   bf00          nop
		      1a52:   bd80          pop    {r7, pc}
		      1a54:   200000e0  .word   0x200000e0
		      1a58:   40002000  .word   0x40002000
		--------------------
	(    27fe,     2806)	jt
		--------------------
		      27f6:   e006          b.n    2806 <nrf52_errata_16+0x56>
		      27f8:   2300          movs   r3, #0
		      27fa:   e004          b.n    2806 <nrf52_errata_16+0x56>
		      27fc:   2300          movs   r3, #0
		->    27fe:   e002          b.n    2806 <nrf52_errata_16+0x56>
		      2800:   2300          movs   r3, #0
		      2802:   e000          b.n    2806 <nrf52_errata_16+0x56>
		      2804:   2300          movs   r3, #0
		      2806:   4618          mov    r0, r3
		--------------------
	(    287e,     288a)	jt
		--------------------
		      2876:   e008          b.n    288a <nrf52_errata_31+0x6e>
		      2878:   2301          movs   r3, #1
		      287a:   e006          b.n    288a <nrf52_errata_31+0x6e>
		      287c:   2301          movs   r3, #1
		->    287e:   e004          b.n    288a <nrf52_errata_31+0x6e>
		      2880:   2301          movs   r3, #1
		      2882:   e002          b.n    288a <nrf52_errata_31+0x6e>
		      2884:   2301          movs   r3, #1
		      2886:   e000          b.n    288a <nrf52_errata_31+0x6e>
		--------------------
	(    28d2,     28f8)	jt
		--------------------
		      28ca:   3b03          subs   r3, #3
		      28cc:   2b03          cmp    r3, #3
		      28ce:   d813          bhi.n  28f8 <nrf52_errata_32+0x50>
		      28d0:   a201          add    r2, pc, #4 ; (adr r2, 28d8 <nrf52_errata_32+0x30>)
		->    28d2:   f852 f023     ldr.w  pc, [r2, r3, lsl #2]
		      28d6:   bf00          nop
		      28d8:   000028e9  .word   0x000028e9
		      28dc:   000028ed  .word   0x000028ed
		      28e0:   000028f1  .word   0x000028f1
		--------------------
	(    28ee,     28fe)	jt
		--------------------
		      28e4:   000028f5  .word   0x000028f5
		      28e8:   2301          movs   r3, #1
		      28ea:   e008          b.n    28fe <nrf52_errata_32+0x56>
		      28ec:   2300          movs   r3, #0
		->    28ee:   e006          b.n    28fe <nrf52_errata_32+0x56>
		      28f0:   2300          movs   r3, #0
		      28f2:   e004          b.n    28fe <nrf52_errata_32+0x56>
		      28f4:   2300          movs   r3, #0
		      28f6:   e002          b.n    28fe <nrf52_errata_32+0x56>
		--------------------
	(    2954,     2956)	
		--------------------
		      294c:   683b          ldr    r3, [r7, #0]
		      294e:   3b03          subs   r3, #3
		      2950:   2b03          cmp    r3, #3
		      2952:   d813          bhi.n  297c <nrf52_errata_36+0x68>
		->    2954:   a201          add    r2, pc, #4 ; (adr r2, 295c <nrf52_errata_36+0x48>)
		      2956:   f852 f023     ldr.w  pc, [r2, r3, lsl #2]
		      295a:   bf00          nop
		      295c:   0000296d  .word   0x0000296d
		      2960:   00002971  .word   0x00002971
		--------------------
	(    296e,     2982)	jt
		--------------------
		      2960:   00002971  .word   0x00002971
		      2964:   00002975  .word   0x00002975
		      2968:   00002979  .word   0x00002979
		      296c:   2301          movs   r3, #1
		->    296e:   e008          b.n    2982 <nrf52_errata_36+0x6e>
		      2970:   2301          movs   r3, #1
		      2972:   e006          b.n    2982 <nrf52_errata_36+0x6e>
		      2974:   2301          movs   r3, #1
		      2976:   e004          b.n    2982 <nrf52_errata_36+0x6e>
		--------------------
	(    29ca,     29f0)	jt
		--------------------
		      29c2:   3b03          subs   r3, #3
		      29c4:   2b03          cmp    r3, #3
		      29c6:   d813          bhi.n  29f0 <nrf52_errata_37+0x50>
		      29c8:   a201          add    r2, pc, #4 ; (adr r2, 29d0 <nrf52_errata_37+0x30>)
		->    29ca:   f852 f023     ldr.w  pc, [r2, r3, lsl #2]
		      29ce:   bf00          nop
		      29d0:   000029e1  .word   0x000029e1
		      29d4:   000029e5  .word   0x000029e5
		      29d8:   000029e9  .word   0x000029e9
		--------------------
	(    2a36,     2a58)	jt
		--------------------
		      2a2e:   3b03          subs   r3, #3
		      2a30:   2b03          cmp    r3, #3
		      2a32:   d813          bhi.n  2a5c <nrf52_errata_57+0x50>
		      2a34:   a201          add    r2, pc, #4 ; (adr r2, 2a3c <nrf52_errata_57+0x30>)
		->    2a36:   f852 f023     ldr.w  pc, [r2, r3, lsl #2]
		      2a3a:   bf00          nop
		      2a3c:   00002a4d  .word   0x00002a4d
		      2a40:   00002a51  .word   0x00002a51
		      2a44:   00002a55  .word   0x00002a55
		--------------------
	(    2a52,     2a62)	jt
		--------------------
		      2a48:   00002a59  .word   0x00002a59
		      2a4c:   2301          movs   r3, #1
		      2a4e:   e008          b.n    2a62 <nrf52_errata_57+0x56>
		      2a50:   2300          movs   r3, #0
		->    2a52:   e006          b.n    2a62 <nrf52_errata_57+0x56>
		      2a54:   2300          movs   r3, #0
		      2a56:   e004          b.n    2a62 <nrf52_errata_57+0x56>
		      2a58:   2300          movs   r3, #0
		      2a5a:   e002          b.n    2a62 <nrf52_errata_57+0x56>
		--------------------
	(    2a5a,     2a62)	jt
		--------------------
		      2a52:   e006          b.n    2a62 <nrf52_errata_57+0x56>
		      2a54:   2300          movs   r3, #0
		      2a56:   e004          b.n    2a62 <nrf52_errata_57+0x56>
		      2a58:   2300          movs   r3, #0
		->    2a5a:   e002          b.n    2a62 <nrf52_errata_57+0x56>
		      2a5c:   2300          movs   r3, #0
		      2a5e:   e000          b.n    2a62 <nrf52_errata_57+0x56>
		      2a60:   2300          movs   r3, #0
		      2a62:   4618          mov    r0, r3
		--------------------
	(    2b46,     2b5c)	jt
		--------------------
		      2b3e:   3b03          subs   r3, #3
		      2b40:   2b03          cmp    r3, #3
		      2b42:   d813          bhi.n  2b6c <nrf52_errata_108+0x68>
		      2b44:   a201          add    r2, pc, #4 ; (adr r2, 2b4c <nrf52_errata_108+0x48>)
		->    2b46:   f852 f023     ldr.w  pc, [r2, r3, lsl #2]
		      2b4a:   bf00          nop
		      2b4c:   00002b5d  .word   0x00002b5d
		      2b50:   00002b61  .word   0x00002b61
		      2b54:   00002b65  .word   0x00002b65
		--------------------
	(    2c3e,     2c58)	jt
		--------------------
		      2c36:   3b03          subs   r3, #3
		      2c38:   2b03          cmp    r3, #3
		      2c3a:   d813          bhi.n  2c64 <nrf52_errata_182+0x48>
		      2c3c:   a201          add    r2, pc, #4 ; (adr r2, 2c44 <nrf52_errata_182+0x28>)
		->    2c3e:   f852 f023     ldr.w  pc, [r2, r3, lsl #2]
		      2c42:   bf00          nop
		      2c44:   00002c55  .word   0x00002c55
		      2c48:   00002c59  .word   0x00002c59
		      2c4c:   00002c5d  .word   0x00002c5d
		--------------------
	(    3034,     3cc8)	
		--------------------
		      302a:   4299          cmp    r1, r3
		      302c:   d004          beq.n  3038 <cleanup_stdio+0x30>
		      302e:   4620          mov    r0, r4
		      3030:   e8bd 4010     ldmia.w    sp!, {r4, lr}
		->    3034:   f000 be48     b.w    3cc8 <_fflush_r>
		      3038:   bd10          pop    {r4, pc}
		      303a:   bf00          nop
		      303c:   20000330  .word   0x20000330
		      3040:   20000398  .word   0x20000398
		--------------------
	(    30fa,     30fc)	dead
		--------------------
		      30f0:   2b01          cmp    r3, #1
		      30f2:   d907          bls.n  3104 <_fwalk_sglue+0x38>
		      30f4:   f9b5 300e     ldrsh.w    r3, [r5, #14]
		      30f8:   3301          adds   r3, #1
		->    30fa:   d003          beq.n  3104 <_fwalk_sglue+0x38>
		      30fc:   4629          mov    r1, r5
		      30fe:   4638          mov    r0, r7
		      3100:   47c0          blx    r8
		      3102:   4306          orrs   r6, r0
		--------------------
	(    3100,     3cc8)	dead
		--------------------
		      30f8:   3301          adds   r3, #1
		      30fa:   d003          beq.n  3104 <_fwalk_sglue+0x38>
		      30fc:   4629          mov    r1, r5
		      30fe:   4638          mov    r0, r7
		->    3100:   47c0          blx    r8
		      3102:   4306          orrs   r6, r0
		      3104:   3568          adds   r5, #104  ; 0x68
		      3106:   e7e9          b.n    30dc <_fwalk_sglue+0x10>
		  
		--------------------
	(    347c,     345a)	dead
		--------------------
		      3474:   6819          ldreq  r1, [r3, #0]
		      3476:   685b          ldreq  r3, [r3, #4]
		      3478:   1949          addeq  r1, r1, r5
		      347a:   6021          streq  r1, [r4, #0]
		->    347c:   e7ed          b.n    345a <_free_r+0x22>
		      347e:   461a          mov    r2, r3
		      3480:   685b          ldr    r3, [r3, #4]
		      3482:   b10b          cbz    r3, 3488 <_free_r+0x50>
		      3484:   42a3          cmp    r3, r4
		--------------------
	(    3482,     3488)	dead
		--------------------
		      347a:   6021          streq  r1, [r4, #0]
		      347c:   e7ed          b.n    345a <_free_r+0x22>
		      347e:   461a          mov    r2, r3
		      3480:   685b          ldr    r3, [r3, #4]
		->    3482:   b10b          cbz    r3, 3488 <_free_r+0x50>
		      3484:   42a3          cmp    r3, r4
		      3486:   d9fa          bls.n  347e <_free_r+0x46>
		      3488:   6811          ldr    r1, [r2, #0]
		      348a:   1855          adds   r5, r2, r1
		--------------------
	(    349a,     349c)	dead
		--------------------
		      3492:   4421          add    r1, r4
		      3494:   1854          adds   r4, r2, r1
		      3496:   42a3          cmp    r3, r4
		      3498:   6011          str    r1, [r2, #0]
		->    349a:   d1e0          bne.n  345e <_free_r+0x26>
		      349c:   681c          ldr    r4, [r3, #0]
		      349e:   685b          ldr    r3, [r3, #4]
		      34a0:   6053          str    r3, [r2, #4]
		      34a2:   440c          add    r4, r1
		--------------------
	(    34a6,     345e)	dead
		--------------------
		      349e:   685b          ldr    r3, [r3, #4]
		      34a0:   6053          str    r3, [r2, #4]
		      34a2:   440c          add    r4, r1
		      34a4:   6014          str    r4, [r2, #0]
		->    34a6:   e7da          b.n    345e <_free_r+0x26>
		      34a8:   d902          bls.n  34b0 <_free_r+0x78>
		      34aa:   230c          movs   r3, #12
		      34ac:   6003          str    r3, [r0, #0]
		      34ae:   e7d6          b.n    345e <_free_r+0x26>
		--------------------
	(    3a5a,     3a60)	jt
		--------------------
		      3a52:   6820          ldr    r0, [r4, #0]
		      3a54:   1d19          adds   r1, r3, #4
		      3a56:   6029          str    r1, [r5, #0]
		      3a58:   0605          lsls   r5, r0, #24
		->    3a5a:   d501          bpl.n  3a60 <_printf_i+0xe8>
		      3a5c:   681e          ldr    r6, [r3, #0]
		      3a5e:   e002          b.n    3a66 <_printf_i+0xee>
		      3a60:   0641          lsls   r1, r0, #25
		      3a62:   d5fb          bpl.n  3a5c <_printf_i+0xe4>
		--------------------
	(    3b58,     3b5c)	jt
		--------------------
		      3b50:   681d          ldr    r5, [r3, #0]
		      3b52:   6862          ldr    r2, [r4, #4]
		      3b54:   2100          movs   r1, #0
		      3b56:   4628          mov    r0, r5
		->    3b58:   f000 f98a     bl 3e70 <memchr>
		      3b5c:   b108          cbz    r0, 3b62 <_printf_i+0x1ea>
		      3b5e:   1b40          subs   r0, r0, r5
		      3b60:   6060          str    r0, [r4, #4]
		      3b62:   6863          ldr    r3, [r4, #4]
		--------------------

uart-o1: 20 | 197 | 4 jt | 16 dead
	(     76c,      77e)	dead
		--------------------
		  
		  00000768 <_write>:
		       768:   b570          push   {r4, r5, r6, lr}
		       76a:   1e16          subs   r6, r2, #0
		->     76c:   dd07          ble.n  77e <_write+0x16>
		       76e:   460c          mov    r4, r1
		       770:   198d          adds   r5, r1, r6
		       772:   f814 0b01     ldrb.w r0, [r4], #1
		       776:   f7ff ffa1     bl 6bc <app_uart_put>
		--------------------
	(     7f2,      7f4)	dead
		--------------------
		       7e6:   f853 3021     ldr.w  r3, [r3, r1, lsl #2]
		       7ea:   4a05          ldr    r2, [pc, #20]  ; (800 <uart_evt_handler+0x34>)
		       7ec:   f852 1021     ldr.w  r1, [r2, r1, lsl #2]
		       7f0:   4668          mov    r0, sp
		->     7f2:   4798          blx    r3
		       7f4:   b005          add    sp, #20
		       7f6:   f85d fb04     ldr.w  pc, [sp], #4
		       7fa:   bf00          nop
		       7fc:   200000d4  .word   0x200000d4
		--------------------
	(     9e0,      9ec)	dead
		--------------------
		       9d4:   e00a          b.n    9ec <nrfx_uart_0_irq_handler+0x80>
		       9d6:   4b41          ldr    r3, [pc, #260] ; (adc <nrfx_uart_0_irq_handler+0x170>)
		       9d8:   f8d3 3304     ldr.w  r3, [r3, #772]   ; 0x304
		       9dc:   f013 0f04     tst.w  r3, #4
		->     9e0:   d004          beq.n  9ec <nrfx_uart_0_irq_handler+0x80>
		       9e2:   4b3e          ldr    r3, [pc, #248] ; (adc <nrfx_uart_0_irq_handler+0x170>)
		       9e4:   f8d3 3108     ldr.w  r3, [r3, #264]   ; 0x108
		       9e8:   2b00          cmp    r3, #0
		       9ea:   d132          bne.n  a52 <nrfx_uart_0_irq_handler+0xe6>
		--------------------
	(     9ea,      9ec)	dead
		--------------------
		       9e0:   d004          beq.n  9ec <nrfx_uart_0_irq_handler+0x80>
		       9e2:   4b3e          ldr    r3, [pc, #248] ; (adc <nrfx_uart_0_irq_handler+0x170>)
		       9e4:   f8d3 3108     ldr.w  r3, [r3, #264]   ; 0x108
		       9e8:   2b00          cmp    r3, #0
		->     9ea:   d132          bne.n  a52 <nrfx_uart_0_irq_handler+0xe6>
		       9ec:   4b3b          ldr    r3, [pc, #236] ; (adc <nrfx_uart_0_irq_handler+0x170>)
		       9ee:   f8d3 311c     ldr.w  r3, [r3, #284]   ; 0x11c
		       9f2:   b1ab          cbz    r3, a20 <nrfx_uart_0_irq_handler+0xb4>
		       9f4:   4b3a          ldr    r3, [pc, #232] ; (ae0 <nrfx_uart_0_irq_handler+0x174>)
		--------------------
	(     a26,      a28)	dead
		--------------------
		       a1c:   2b00          cmp    r3, #0
		       a1e:   d148          bne.n  ab2 <nrfx_uart_0_irq_handler+0x146>
		       a20:   4b2e          ldr    r3, [pc, #184] ; (adc <nrfx_uart_0_irq_handler+0x170>)
		       a22:   f8d3 3144     ldr.w  r3, [r3, #324]   ; 0x144
		->     a26:   b193          cbz    r3, a4e <nrfx_uart_0_irq_handler+0xe2>
		       a28:   4b2c          ldr    r3, [pc, #176] ; (adc <nrfx_uart_0_irq_handler+0x170>)
		       a2a:   2200          movs   r2, #0
		       a2c:   f8c3 2144     str.w  r2, [r3, #324]   ; 0x144
		       a30:   f8d3 3144     ldr.w  r3, [r3, #324]   ; 0x144
		--------------------
	(     a3e,      a46)	dead
		--------------------
		       a34:   9302          str    r3, [sp, #8]
		       a36:   9b02          ldr    r3, [sp, #8]
		       a38:   4b29          ldr    r3, [pc, #164] ; (ae0 <nrfx_uart_0_irq_handler+0x174>)
		       a3a:   f893 3029     ldrb.w r3, [r3, #41]   ; 0x29
		->     a3e:   b113          cbz    r3, a46 <nrfx_uart_0_irq_handler+0xda>
		       a40:   4b26          ldr    r3, [pc, #152] ; (adc <nrfx_uart_0_irq_handler+0x170>)
		       a42:   2201          movs   r2, #1
		       a44:   601a          str    r2, [r3, #0]
		       a46:   4b26          ldr    r3, [pc, #152] ; (ae0 <nrfx_uart_0_irq_handler+0x174>)
		--------------------
	(     a62,      9ec)	dead
		--------------------
		       a58:   f7ff ff5d     bl 916 <rx_byte>
		       a5c:   6a63          ldr    r3, [r4, #36]  ; 0x24
		       a5e:   69a2          ldr    r2, [r4, #24]
		       a60:   429a          cmp    r2, r3
		->     a62:   d1c3          bne.n  9ec <nrfx_uart_0_irq_handler+0x80>
		       a64:   69e3          ldr    r3, [r4, #28]
		       a66:   b99b          cbnz   r3, a90 <nrfx_uart_0_irq_handler+0x124>
		       a68:   4b1d          ldr    r3, [pc, #116] ; (ae0 <nrfx_uart_0_irq_handler+0x174>)
		       a6a:   f893 3029     ldrb.w r3, [r3, #41]   ; 0x29
		--------------------
	(     a6e,      a76)	dead
		--------------------
		       a64:   69e3          ldr    r3, [r4, #28]
		       a66:   b99b          cbnz   r3, a90 <nrfx_uart_0_irq_handler+0x124>
		       a68:   4b1d          ldr    r3, [pc, #116] ; (ae0 <nrfx_uart_0_irq_handler+0x174>)
		       a6a:   f893 3029     ldrb.w r3, [r3, #41]   ; 0x29
		->     a6e:   b913          cbnz   r3, a76 <nrfx_uart_0_irq_handler+0x10a>
		       a70:   4b1a          ldr    r3, [pc, #104] ; (adc <nrfx_uart_0_irq_handler+0x170>)
		       a72:   2201          movs   r2, #1
		       a74:   605a          str    r2, [r3, #4]
		       a76:   4b19          ldr    r3, [pc, #100] ; (adc <nrfx_uart_0_irq_handler+0x170>)
		--------------------
	(     aa2,      950)	dead
		--------------------
		       a9a:   60e3          str    r3, [r4, #12]
		       a9c:   2300          movs   r3, #0
		       a9e:   61e3          str    r3, [r4, #28]
		       aa0:   6263          str    r3, [r4, #36]  ; 0x24
		->     aa2:   f7ff ff55     bl 950 <rx_done_event>
		       aa6:   e7a1          b.n    9ec <nrfx_uart_0_irq_handler+0x80>
		       aa8:   490d          ldr    r1, [pc, #52]  ; (ae0 <nrfx_uart_0_irq_handler+0x174>)
		       aaa:   480c          ldr    r0, [pc, #48]  ; (adc <nrfx_uart_0_irq_handler+0x170>)
		       aac:   f7ff ff0c     bl 8c8 <tx_byte>
		--------------------
	(    1872,     1948)	dead
		--------------------
		  0000186c <stdio_exit_handler>:
		      186c:   4a02          ldr    r2, [pc, #8]   ; (1878 <stdio_exit_handler+0xc>)
		      186e:   4903          ldr    r1, [pc, #12]  ; (187c <stdio_exit_handler+0x10>)
		      1870:   4803          ldr    r0, [pc, #12]  ; (1880 <stdio_exit_handler+0x14>)
		->    1872:   f000 b869     b.w    1948 <_fwalk_sglue>
		      1876:   bf00          nop
		      1878:   20000018  .word   0x20000018
		      187c:   00002545  .word   0x00002545
		      1880:   20000024  .word   0x20000024
		--------------------
	(    189e,     18a2)	dead
		--------------------
		      1896:   4b09          ldr    r3, [pc, #36]  ; (18bc <cleanup_stdio+0x38>)
		      1898:   4299          cmp    r1, r3
		      189a:   d002          beq.n  18a2 <cleanup_stdio+0x1e>
		      189c:   4620          mov    r0, r4
		->    189e:   f000 fe51     bl 2544 <_fflush_r>
		      18a2:   68e1          ldr    r1, [r4, #12]
		      18a4:   4b06          ldr    r3, [pc, #24]  ; (18c0 <cleanup_stdio+0x3c>)
		      18a6:   4299          cmp    r1, r3
		      18a8:   d004          beq.n  18b4 <cleanup_stdio+0x30>
		--------------------
	(    196e,     1980)	dead
		--------------------
		      1964:   4630          mov    r0, r6
		      1966:   e8bd 83f8     ldmia.w    sp!, {r3, r4, r5, r6, r7, r8, r9, pc}
		      196a:   89ab          ldrh   r3, [r5, #12]
		      196c:   2b01          cmp    r3, #1
		->    196e:   d907          bls.n  1980 <_fwalk_sglue+0x38>
		      1970:   f9b5 300e     ldrsh.w    r3, [r5, #14]
		      1974:   3301          adds   r3, #1
		      1976:   d003          beq.n  1980 <_fwalk_sglue+0x38>
		      1978:   4629          mov    r1, r5
		--------------------
	(    1a7c,     1a7e)	dead
		--------------------
		      1a74:   1c43          adds   r3, r0, #1
		      1a76:   d102          bne.n  1a7e <_lseek_r+0x1e>
		      1a78:   682b          ldr    r3, [r5, #0]
		      1a7a:   b103          cbz    r3, 1a7e <_lseek_r+0x1e>
		->    1a7c:   6023          str    r3, [r4, #0]
		      1a7e:   bd38          pop    {r3, r4, r5, pc}
		      1a80:   20000470  .word   0x20000470
		  
		  00001a84 <_read_r>:
		--------------------
	(    1ce0,     1e84)	dead
		--------------------
		      1cd6:   6063          str    r3, [r4, #4]
		      1cd8:   6014          str    r4, [r2, #0]
		      1cda:   b003          add    sp, #12
		      1cdc:   e8bd 4030     ldmia.w    sp!, {r4, r5, lr}
		->    1ce0:   f000 b8d0     b.w    1e84 <__malloc_unlock>
		      1ce4:   42a3          cmp    r3, r4
		      1ce6:   d908          bls.n  1cfa <_free_r+0x46>
		      1ce8:   6825          ldr    r5, [r4, #0]
		      1cea:   1961          adds   r1, r4, r5
		--------------------
	(    1cfe,     1d04)	dead
		--------------------
		      1cf6:   6021          streq  r1, [r4, #0]
		      1cf8:   e7ed          b.n    1cd6 <_free_r+0x22>
		      1cfa:   461a          mov    r2, r3
		      1cfc:   685b          ldr    r3, [r3, #4]
		->    1cfe:   b10b          cbz    r3, 1d04 <_free_r+0x50>
		      1d00:   42a3          cmp    r3, r4
		      1d02:   d9fa          bls.n  1cfa <_free_r+0x46>
		      1d04:   6811          ldr    r1, [r2, #0]
		      1d06:   1855          adds   r5, r2, r1
		--------------------
	(    1d16,     1cda)	dead
		--------------------
		      1d0e:   4421          add    r1, r4
		      1d10:   1854          adds   r4, r2, r1
		      1d12:   42a3          cmp    r3, r4
		      1d14:   6011          str    r1, [r2, #0]
		->    1d16:   d1e0          bne.n  1cda <_free_r+0x26>
		      1d18:   681c          ldr    r4, [r3, #0]
		      1d1a:   685b          ldr    r3, [r3, #4]
		      1d1c:   6053          str    r3, [r2, #4]
		      1d1e:   440c          add    r4, r1
		--------------------
	(    22ca,     22f2)	jt
		--------------------
		      22c0:   4276          negs   r6, r6
		      22c2:   f884 3043     strb.w r3, [r4, #67]   ; 0x43
		      22c6:   485a          ldr    r0, [pc, #360] ; (2430 <_printf_i+0x23c>)
		      22c8:   230a          movs   r3, #10
		->    22ca:   e012          b.n    22f2 <_printf_i+0xfe>
		      22cc:   682b          ldr    r3, [r5, #0]
		      22ce:   6820          ldr    r0, [r4, #0]
		      22d0:   1d19          adds   r1, r3, #4
		      22d2:   6029          str    r1, [r5, #0]
		--------------------
	(    22da,     22e2)	jt
		--------------------
		      22d2:   6029          str    r1, [r5, #0]
		      22d4:   0605          lsls   r5, r0, #24
		      22d6:   d501          bpl.n  22dc <_printf_i+0xe8>
		      22d8:   681e          ldr    r6, [r3, #0]
		->    22da:   e002          b.n    22e2 <_printf_i+0xee>
		      22dc:   0641          lsls   r1, r0, #25
		      22de:   d5fb          bpl.n  22d8 <_printf_i+0xe4>
		      22e0:   881e          ldrh   r6, [r3, #0]
		      22e2:   4853          ldr    r0, [pc, #332] ; (2430 <_printf_i+0x23c>)
		--------------------
	(    22ee,     22f2)	jt
		--------------------
		      22e6:   bf0c          ite    eq
		      22e8:   2308          moveq  r3, #8
		      22ea:   230a          movne  r3, #10
		      22ec:   2100          movs   r1, #0
		->    22ee:   f884 1043     strb.w r1, [r4, #67]   ; 0x43
		      22f2:   6865          ldr    r5, [r4, #4]
		      22f4:   60a5          str    r5, [r4, #8]
		      22f6:   2d00          cmp    r5, #0
		      22f8:   bfa2          ittt   ge
		--------------------
	(    23ba,     23bc)	jt
		--------------------
		      23b2:   d501          bpl.n  23b8 <_printf_i+0x1c4>
		      23b4:   6019          str    r1, [r3, #0]
		      23b6:   e002          b.n    23be <_printf_i+0x1ca>
		      23b8:   0670          lsls   r0, r6, #25
		->    23ba:   d5fb          bpl.n  23b4 <_printf_i+0x1c0>
		      23bc:   8019          strh   r1, [r3, #0]
		      23be:   2300          movs   r3, #0
		      23c0:   6123          str    r3, [r4, #16]
		      23c2:   4615          mov    r5, r2
		--------------------

uart-o2: 20 | 189 | 4 jt | 15 dead
	(     738,      730)	dead
		--------------------
		       72e:   460c          mov    r4, r1
		       730:   4620          mov    r0, r4
		       732:   f7ff ff75     bl 620 <app_uart_get>
		       736:   2805          cmp    r0, #5
		->     738:   d0fa          beq.n  730 <_read+0x4>
		       73a:   2001          movs   r0, #1
		       73c:   bd10          pop    {r4, pc}
		       73e:   bf00          nop
		  
		--------------------
	(     896,      898)	dead
		--------------------
		       88a:   4b66          ldr    r3, [pc, #408] ; (a24 <nrfx_uart_0_irq_handler+0x1c0>)
		       88c:   9801          ldr    r0, [sp, #4]
		       88e:   f8c2 1308     str.w  r1, [r2, #776]   ; 0x308
		       892:   f893 1029     ldrb.w r1, [r3, #41]   ; 0x29
		->     896:   b909          cbnz   r1, 89c <nrfx_uart_0_irq_handler+0x38>
		       898:   2101          movs   r1, #1
		       89a:   6051          str    r1, [r2, #4]
		       89c:   4a60          ldr    r2, [pc, #384] ; (a20 <nrfx_uart_0_irq_handler+0x1bc>)
		       89e:   2102          movs   r1, #2
		--------------------
	(     8e0,      8e2)	dead
		--------------------
		       8d4:   d96a          bls.n  9ac <nrfx_uart_0_irq_handler+0x148>
		       8d6:   f893 1028     ldrb.w r1, [r3, #40]   ; 0x28
		       8da:   f001 00ff     and.w  r0, r1, #255 ; 0xff
		       8de:   2900          cmp    r1, #0
		->     8e0:   d164          bne.n  9ac <nrfx_uart_0_irq_handler+0x148>
		       8e2:   f8c2 011c     str.w  r0, [r2, #284]   ; 0x11c
		       8e6:   f8d2 111c     ldr.w  r1, [r2, #284]   ; 0x11c
		       8ea:   9103          str    r1, [sp, #12]
		       8ec:   9903          ldr    r1, [sp, #12]
		--------------------
	(     91a,      920)	dead
		--------------------
		       90e:   f8d2 0144     ldr.w  r0, [r2, #324]   ; 0x144
		       912:   f893 1029     ldrb.w r1, [r3, #41]   ; 0x29
		       916:   9000          str    r0, [sp, #0]
		       918:   9800          ldr    r0, [sp, #0]
		->     91a:   b109          cbz    r1, 920 <nrfx_uart_0_irq_handler+0xbc>
		       91c:   2101          movs   r1, #1
		       91e:   6011          str    r1, [r2, #0]
		       920:   699a          ldr    r2, [r3, #24]
		       922:   b162          cbz    r2, 93e <nrfx_uart_0_irq_handler+0xda>
		--------------------
	(     9ea,      97c)	dead
		--------------------
		       9de:   f8d2 0108     ldr.w  r0, [r2, #264]   ; 0x108
		       9e2:   9005          str    r0, [sp, #20]
		       9e4:   9805          ldr    r0, [sp, #20]
		       9e6:   f8d2 2518     ldr.w  r2, [r2, #1304]  ; 0x518
		->     9ea:   e7c7          b.n    97c <nrfx_uart_0_irq_handler+0x118>
		       9ec:   f893 2029     ldrb.w r2, [r3, #41]   ; 0x29
		       9f0:   b912          cbnz   r2, 9f8 <nrfx_uart_0_irq_handler+0x194>
		       9f2:   4a0b          ldr    r2, [pc, #44]  ; (a20 <nrfx_uart_0_irq_handler+0x1bc>)
		       9f4:   2101          movs   r1, #1
		--------------------
	(    1822,     1824)	dead
		--------------------
		      181a:   4b0c          ldr    r3, [pc, #48]  ; (184c <cleanup_stdio+0x34>)
		      181c:   4299          cmp    r1, r3
		      181e:   b510          push   {r4, lr}
		      1820:   4604          mov    r4, r0
		->    1822:   d001          beq.n  1828 <cleanup_stdio+0x10>
		      1824:   f000 fe58     bl 24d8 <_fflush_r>
		      1828:   68a1          ldr    r1, [r4, #8]
		      182a:   4b09          ldr    r3, [pc, #36]  ; (1850 <cleanup_stdio+0x38>)
		      182c:   4299          cmp    r1, r3
		--------------------
	(    1844,     24d8)	dead
		--------------------
		      183a:   4299          cmp    r1, r3
		      183c:   d004          beq.n  1848 <cleanup_stdio+0x30>
		      183e:   4620          mov    r0, r4
		      1840:   e8bd 4010     ldmia.w    sp!, {r4, lr}
		->    1844:   f000 be48     b.w    24d8 <_fflush_r>
		      1848:   bd10          pop    {r4, pc}
		      184a:   bf00          nop
		      184c:   20000334  .word   0x20000334
		      1850:   2000039c  .word   0x2000039c
		--------------------
	(    18f6,     18e8)	dead
		--------------------
		      18ec:   f1b9 0901     subs.w r9, r9, #1
		      18f0:   d505          bpl.n  18fe <_fwalk_sglue+0x22>
		      18f2:   6824          ldr    r4, [r4, #0]
		      18f4:   2c00          cmp    r4, #0
		->    18f6:   d1f7          bne.n  18e8 <_fwalk_sglue+0xc>
		      18f8:   4630          mov    r0, r6
		      18fa:   e8bd 83f8     ldmia.w    sp!, {r3, r4, r5, r6, r7, r8, r9, pc}
		      18fe:   89ab          ldrh   r3, [r5, #12]
		      1900:   2b01          cmp    r3, #1
		--------------------
	(    196e,     197c)	dead
		--------------------
		      1966:   05db          lsls   r3, r3, #23
		      1968:   4605          mov    r5, r0
		      196a:   460c          mov    r4, r1
		      196c:   4616          mov    r6, r2
		->    196e:   d505          bpl.n  197c <__swrite+0x1e>
		      1970:   f9b1 100e     ldrsh.w    r1, [r1, #14]
		      1974:   2302          movs   r3, #2
		      1976:   2200          movs   r2, #0
		      1978:   f000 f83c     bl 19f4 <_lseek_r>
		--------------------
	(    199e,     19a2)	dead
		--------------------
		  00001996 <__sseek>:
		      1996:   b510          push   {r4, lr}
		      1998:   460c          mov    r4, r1
		      199a:   f9b1 100e     ldrsh.w    r1, [r1, #14]
		->    199e:   f000 f829     bl 19f4 <_lseek_r>
		      19a2:   1c43          adds   r3, r0, #1
		      19a4:   89a3          ldrh   r3, [r4, #12]
		      19a6:   bf15          itete  ne
		      19a8:   6560          strne  r0, [r4, #84]    ; 0x54
		--------------------
	(    19e6,     19e8)	dead
		--------------------
		      19dc:   4608          mov    r0, r1
		      19de:   602b          str    r3, [r5, #0]
		      19e0:   f000 ff22     bl 2828 <_close>
		      19e4:   1c43          adds   r3, r0, #1
		->    19e6:   d102          bne.n  19ee <_close_r+0x1a>
		      19e8:   682b          ldr    r3, [r5, #0]
		      19ea:   b103          cbz    r3, 19ee <_close_r+0x1a>
		      19ec:   6023          str    r3, [r4, #0]
		      19ee:   bd38          pop    {r3, r4, r5, pc}
		--------------------
	(    1a0e,     1a12)	dead
		--------------------
		      1a04:   f000 ff28     bl 2858 <_lseek>
		      1a08:   1c43          adds   r3, r0, #1
		      1a0a:   d102          bne.n  1a12 <_lseek_r+0x1e>
		      1a0c:   682b          ldr    r3, [r5, #0]
		->    1a0e:   b103          cbz    r3, 1a12 <_lseek_r+0x1e>
		      1a10:   6023          str    r3, [r4, #0]
		      1a12:   bd38          pop    {r3, r4, r5, pc}
		      1a14:   20000470  .word   0x20000470
		  
		--------------------
	(    1a56,     1a58)	dead
		--------------------
		      1a4c:   f7fe fe60     bl 710 <_write>
		      1a50:   1c43          adds   r3, r0, #1
		      1a52:   d102          bne.n  1a5a <_write_r+0x1e>
		      1a54:   682b          ldr    r3, [r5, #0]
		->    1a56:   b103          cbz    r3, 1a5a <_write_r+0x1e>
		      1a58:   6023          str    r3, [r4, #0]
		      1a5a:   bd38          pop    {r3, r4, r5, pc}
		      1a5c:   20000470  .word   0x20000470
		  
		--------------------
	(    1c5e,     1e0c)	dead
		--------------------
		      1c54:   2b00          cmp    r3, #0
		      1c56:   f1a1 0404     sub.w  r4, r1, #4
		      1c5a:   bfb8          it lt
		      1c5c:   18e4          addlt  r4, r4, r3
		->    1c5e:   f000 f8d5     bl 1e0c <__malloc_lock>
		      1c62:   4a1e          ldr    r2, [pc, #120] ; (1cdc <_free_r+0x94>)
		      1c64:   9801          ldr    r0, [sp, #4]
		      1c66:   6813          ldr    r3, [r2, #0]
		      1c68:   b933          cbnz   r3, 1c78 <_free_r+0x30>
		--------------------
	(    1cb8,     1cc0)	dead
		--------------------
		      1cb0:   6053          str    r3, [r2, #4]
		      1cb2:   440c          add    r4, r1
		      1cb4:   6014          str    r4, [r2, #0]
		      1cb6:   e7da          b.n    1c6e <_free_r+0x26>
		->    1cb8:   d902          bls.n  1cc0 <_free_r+0x78>
		      1cba:   230c          movs   r3, #12
		      1cbc:   6003          str    r3, [r0, #0]
		      1cbe:   e7d6          b.n    1c6e <_free_r+0x26>
		      1cc0:   6825          ldr    r5, [r4, #0]
		--------------------
	(    21c2,     21c4)	
		--------------------
		      21b8:   e03a          b.n    2230 <_printf_i+0xa8>
		      21ba:   f1a7 0363     sub.w  r3, r7, #99  ; 0x63
		      21be:   2b15          cmp    r3, #21
		      21c0:   d8f6          bhi.n  21b0 <_printf_i+0x28>
		->    21c2:   a101          add    r1, pc, #4 ; (adr r1, 21c8 <_printf_i+0x40>)
		      21c4:   f851 f023     ldr.w  pc, [r1, r3, lsl #2]
		      21c8:   00002221  .word   0x00002221
		      21cc:   00002235  .word   0x00002235
		      21d0:   000021b1  .word   0x000021b1
		--------------------
	(    21c4,     21b0)	jt
		--------------------
		      21ba:   f1a7 0363     sub.w  r3, r7, #99  ; 0x63
		      21be:   2b15          cmp    r3, #21
		      21c0:   d8f6          bhi.n  21b0 <_printf_i+0x28>
		      21c2:   a101          add    r1, pc, #4 ; (adr r1, 21c8 <_printf_i+0x40>)
		->    21c4:   f851 f023     ldr.w  pc, [r1, r3, lsl #2]
		      21c8:   00002221  .word   0x00002221
		      21cc:   00002235  .word   0x00002235
		      21d0:   000021b1  .word   0x000021b1
		      21d4:   000021b1  .word   0x000021b1
		--------------------
	(    2250,     225a)	jt
		--------------------
		      2246:   0646          lsls   r6, r0, #25
		      2248:   d5fb          bpl.n  2242 <_printf_i+0xba>
		      224a:   f9b3 6000     ldrsh.w    r6, [r3]
		      224e:   2e00          cmp    r6, #0
		->    2250:   da03          bge.n  225a <_printf_i+0xd2>
		      2252:   232d          movs   r3, #45   ; 0x2d
		      2254:   4276          negs   r6, r6
		      2256:   f884 3043     strb.w r3, [r4, #67]   ; 0x43
		      225a:   485a          ldr    r0, [pc, #360] ; (23c4 <_printf_i+0x23c>)
		--------------------
	(    234e,     2348)	jt
		--------------------
		      2346:   d501          bpl.n  234c <_printf_i+0x1c4>
		      2348:   6019          str    r1, [r3, #0]
		      234a:   e002          b.n    2352 <_printf_i+0x1ca>
		      234c:   0670          lsls   r0, r6, #25
		->    234e:   d5fb          bpl.n  2348 <_printf_i+0x1c0>
		      2350:   8019          strh   r1, [r3, #0]
		      2352:   2300          movs   r3, #0
		      2354:   6123          str    r3, [r4, #16]
		      2356:   4615          mov    r5, r2
		--------------------
	(    2368,     2680)	jt
		--------------------
		      2360:   681d          ldr    r5, [r3, #0]
		      2362:   6862          ldr    r2, [r4, #4]
		      2364:   2100          movs   r1, #0
		      2366:   4628          mov    r0, r5
		->    2368:   f000 f98a     bl 2680 <memchr>
		      236c:   b108          cbz    r0, 2372 <_printf_i+0x1ea>
		      236e:   1b40          subs   r0, r0, r5
		      2370:   6060          str    r0, [r4, #4]
		      2372:   6863          ldr    r3, [r4, #4]
		--------------------

uart-o3: 20 | 189 | 3 jt | 17 dead
	(     72a,      72c)	dead
		--------------------
		       726:   bf00          nop
		  
		  00000728 <_read>:
		       728:   b510          push   {r4, lr}
		->     72a:   460c          mov    r4, r1
		       72c:   4620          mov    r0, r4
		       72e:   f7ff ff75     bl 61c <app_uart_get>
		       732:   2805          cmp    r0, #5
		       734:   d0fa          beq.n  72c <_read+0x4>
		--------------------
	(     8c8,      8fc)	dead
		--------------------
		       8be:   a806          add    r0, sp, #24
		       8c0:   4790          blx    r2
		       8c2:   4a59          ldr    r2, [pc, #356] ; (a28 <nrfx_uart_0_irq_handler+0x1c8>)
		       8c4:   f8d2 311c     ldr.w  r3, [r2, #284]   ; 0x11c
		->     8c8:   b1c3          cbz    r3, 8fc <nrfx_uart_0_irq_handler+0x9c>
		       8ca:   4b58          ldr    r3, [pc, #352] ; (a2c <nrfx_uart_0_irq_handler+0x1cc>)
		       8cc:   6958          ldr    r0, [r3, #20]
		       8ce:   6a19          ldr    r1, [r3, #32]
		       8d0:   4288          cmp    r0, r1
		--------------------
	(     8de,      8e0)	dead
		--------------------
		       8d2:   d96a          bls.n  9aa <nrfx_uart_0_irq_handler+0x14a>
		       8d4:   f893 1028     ldrb.w r1, [r3, #40]   ; 0x28
		       8d8:   f001 00ff     and.w  r0, r1, #255 ; 0xff
		       8dc:   2900          cmp    r1, #0
		->     8de:   d164          bne.n  9aa <nrfx_uart_0_irq_handler+0x14a>
		       8e0:   f8c2 011c     str.w  r0, [r2, #284]   ; 0x11c
		       8e4:   f8d2 111c     ldr.w  r1, [r2, #284]   ; 0x11c
		       8e8:   9103          str    r1, [sp, #12]
		       8ea:   9903          ldr    r1, [sp, #12]
		--------------------
	(     902,      904)	dead
		--------------------
		       8f6:   6219          str    r1, [r3, #32]
		       8f8:   f8c2 051c     str.w  r0, [r2, #1308]  ; 0x51c
		       8fc:   4a4a          ldr    r2, [pc, #296] ; (a28 <nrfx_uart_0_irq_handler+0x1c8>)
		       8fe:   f8d2 3144     ldr.w  r3, [r2, #324]   ; 0x144
		->     902:   b1db          cbz    r3, 93c <nrfx_uart_0_irq_handler+0xdc>
		       904:   2100          movs   r1, #0
		       906:   4b49          ldr    r3, [pc, #292] ; (a2c <nrfx_uart_0_irq_handler+0x1cc>)
		       908:   f8c2 1144     str.w  r1, [r2, #324]   ; 0x144
		       90c:   f8d2 0144     ldr.w  r0, [r2, #324]   ; 0x144
		--------------------
	(     948,      94a)	dead
		--------------------
		       93e:   bd10          pop    {r4, pc}
		       940:   4a39          ldr    r2, [pc, #228] ; (a28 <nrfx_uart_0_irq_handler+0x1c8>)
		       942:   f8d2 3304     ldr.w  r3, [r2, #772]   ; 0x304
		       946:   075b          lsls   r3, r3, #29
		->     948:   d5bb          bpl.n  8c2 <nrfx_uart_0_irq_handler+0x62>
		       94a:   f8d2 3108     ldr.w  r3, [r2, #264]   ; 0x108
		       94e:   2b00          cmp    r3, #0
		       950:   d0b7          beq.n  8c2 <nrfx_uart_0_irq_handler+0x62>
		       952:   4b36          ldr    r3, [pc, #216] ; (a2c <nrfx_uart_0_irq_handler+0x1cc>)
		--------------------
	(     950,      8c2)	dead
		--------------------
		       946:   075b          lsls   r3, r3, #29
		       948:   d5bb          bpl.n  8c2 <nrfx_uart_0_irq_handler+0x62>
		       94a:   f8d2 3108     ldr.w  r3, [r2, #264]   ; 0x108
		       94e:   2b00          cmp    r3, #0
		->     950:   d0b7          beq.n  8c2 <nrfx_uart_0_irq_handler+0x62>
		       952:   4b36          ldr    r3, [pc, #216] ; (a2c <nrfx_uart_0_irq_handler+0x1cc>)
		       954:   6999          ldr    r1, [r3, #24]
		       956:   2900          cmp    r1, #0
		       958:   d03e          beq.n  9d8 <nrfx_uart_0_irq_handler+0x178>
		--------------------
	(     9a6,      9a8)	dead
		--------------------
		       99c:   685c          ldr    r4, [r3, #4]
		       99e:   6819          ldr    r1, [r3, #0]
		       9a0:   f88d 2018     strb.w r2, [sp, #24]
		       9a4:   a806          add    r0, sp, #24
		->     9a6:   47a0          blx    r4
		       9a8:   e78b          b.n    8c2 <nrfx_uart_0_irq_handler+0x62>
		       9aa:   4a1f          ldr    r2, [pc, #124] ; (a28 <nrfx_uart_0_irq_handler+0x1c8>)
		       9ac:   2000          movs   r0, #0
		       9ae:   f8c2 011c     str.w  r0, [r2, #284]   ; 0x11c
		--------------------
	(     9ee,      9f6)	dead
		--------------------
		       9e2:   9805          ldr    r0, [sp, #20]
		       9e4:   f8d2 2518     ldr.w  r2, [r2, #1304]  ; 0x518
		       9e8:   e7c7          b.n    97a <nrfx_uart_0_irq_handler+0x11a>
		       9ea:   f893 2029     ldrb.w r2, [r3, #41]   ; 0x29
		->     9ee:   b912          cbnz   r2, 9f6 <nrfx_uart_0_irq_handler+0x196>
		       9f0:   4a0d          ldr    r2, [pc, #52]  ; (a28 <nrfx_uart_0_irq_handler+0x1c8>)
		       9f2:   2101          movs   r1, #1
		       9f4:   6051          str    r1, [r2, #4]
		       9f6:   4a0c          ldr    r2, [pc, #48]  ; (a28 <nrfx_uart_0_irq_handler+0x1c8>)
		--------------------
	(    1836,     1838)	dead
		--------------------
		      182c:   f000 fe58     bl 24e0 <_fflush_r>
		      1830:   68a1          ldr    r1, [r4, #8]
		      1832:   4b09          ldr    r3, [pc, #36]  ; (1858 <cleanup_stdio+0x38>)
		      1834:   4299          cmp    r1, r3
		->    1836:   d002          beq.n  183e <cleanup_stdio+0x1e>
		      1838:   4620          mov    r0, r4
		      183a:   f000 fe51     bl 24e0 <_fflush_r>
		      183e:   68e1          ldr    r1, [r4, #12]
		      1840:   4b06          ldr    r3, [pc, #24]  ; (185c <cleanup_stdio+0x3c>)
		--------------------
	(    183a,     24e0)	dead
		--------------------
		      1832:   4b09          ldr    r3, [pc, #36]  ; (1858 <cleanup_stdio+0x38>)
		      1834:   4299          cmp    r1, r3
		      1836:   d002          beq.n  183e <cleanup_stdio+0x1e>
		      1838:   4620          mov    r0, r4
		->    183a:   f000 fe51     bl 24e0 <_fflush_r>
		      183e:   68e1          ldr    r1, [r4, #12]
		      1840:   4b06          ldr    r3, [pc, #24]  ; (185c <cleanup_stdio+0x3c>)
		      1842:   4299          cmp    r1, r3
		      1844:   d004          beq.n  1850 <cleanup_stdio+0x30>
		--------------------
	(    18ee,     18f0)	dead
		--------------------
		      18e4:   e92d 43f8     stmdb  sp!, {r3, r4, r5, r6, r7, r8, r9, lr}
		      18e8:   4607          mov    r7, r0
		      18ea:   4688          mov    r8, r1
		      18ec:   4614          mov    r4, r2
		->    18ee:   2600          movs   r6, #0
		      18f0:   e9d4 9501     ldrd   r9, r5, [r4, #4]
		      18f4:   f1b9 0901     subs.w r9, r9, #1
		      18f8:   d505          bpl.n  1906 <_fwalk_sglue+0x22>
		      18fa:   6824          ldr    r4, [r4, #0]
		--------------------
	(    190a,     190c)	dead
		--------------------
		      1900:   4630          mov    r0, r6
		      1902:   e8bd 83f8     ldmia.w    sp!, {r3, r4, r5, r6, r7, r8, r9, pc}
		      1906:   89ab          ldrh   r3, [r5, #12]
		      1908:   2b01          cmp    r3, #1
		->    190a:   d907          bls.n  191c <_fwalk_sglue+0x38>
		      190c:   f9b5 300e     ldrsh.w    r3, [r5, #14]
		      1910:   3301          adds   r3, #1
		      1912:   d003          beq.n  191c <_fwalk_sglue+0x38>
		      1914:   4629          mov    r1, r5
		--------------------
	(    1918,     191a)	dead
		--------------------
		      1910:   3301          adds   r3, #1
		      1912:   d003          beq.n  191c <_fwalk_sglue+0x38>
		      1914:   4629          mov    r1, r5
		      1916:   4638          mov    r0, r7
		->    1918:   47c0          blx    r8
		      191a:   4306          orrs   r6, r0
		      191c:   3568          adds   r5, #104  ; 0x68
		      191e:   e7e9          b.n    18f4 <_fwalk_sglue+0x10>
		  
		--------------------
	(    191e,     18f4)	dead
		--------------------
		      1916:   4638          mov    r0, r7
		      1918:   47c0          blx    r8
		      191a:   4306          orrs   r6, r0
		      191c:   3568          adds   r5, #104  ; 0x68
		->    191e:   e7e9          b.n    18f4 <_fwalk_sglue+0x10>
		  
		  00001920 <iprintf>:
		      1920:   b40f          push   {r0, r1, r2, r3}
		      1922:   b507          push   {r0, r1, r2, lr}
		--------------------
	(    19ee,     19f6)	dead
		--------------------
		      19e4:   4608          mov    r0, r1
		      19e6:   602b          str    r3, [r5, #0]
		      19e8:   f000 ff1e     bl 2828 <_close>
		      19ec:   1c43          adds   r3, r0, #1
		->    19ee:   d102          bne.n  19f6 <_close_r+0x1a>
		      19f0:   682b          ldr    r3, [r5, #0]
		      19f2:   b103          cbz    r3, 19f6 <_close_r+0x1a>
		      19f4:   6023          str    r3, [r4, #0]
		      19f6:   bd38          pop    {r3, r4, r5, pc}
		--------------------
	(    1a36,     1a3e)	dead
		--------------------
		      1a2c:   602a          str    r2, [r5, #0]
		      1a2e:   461a          mov    r2, r3
		      1a30:   f7fe fe7a     bl 728 <_read>
		      1a34:   1c43          adds   r3, r0, #1
		->    1a36:   d102          bne.n  1a3e <_read_r+0x1e>
		      1a38:   682b          ldr    r3, [r5, #0]
		      1a3a:   b103          cbz    r3, 1a3e <_read_r+0x1e>
		      1a3c:   6023          str    r3, [r4, #0]
		      1a3e:   bd38          pop    {r3, r4, r5, pc}
		--------------------
	(    1c7c,     1e20)	dead
		--------------------
		      1c72:   6063          str    r3, [r4, #4]
		      1c74:   6014          str    r4, [r2, #0]
		      1c76:   b003          add    sp, #12
		      1c78:   e8bd 4030     ldmia.w    sp!, {r4, r5, lr}
		->    1c7c:   f000 b8d0     b.w    1e20 <__malloc_unlock>
		      1c80:   42a3          cmp    r3, r4
		      1c82:   d908          bls.n  1c96 <_free_r+0x46>
		      1c84:   6825          ldr    r5, [r4, #0]
		      1c86:   1961          adds   r1, r4, r5
		--------------------
	(    2258,     2262)	jt
		--------------------
		      224e:   0646          lsls   r6, r0, #25
		      2250:   d5fb          bpl.n  224a <_printf_i+0xba>
		      2252:   f9b3 6000     ldrsh.w    r6, [r3]
		      2256:   2e00          cmp    r6, #0
		->    2258:   da03          bge.n  2262 <_printf_i+0xd2>
		      225a:   232d          movs   r3, #45   ; 0x2d
		      225c:   4276          negs   r6, r6
		      225e:   f884 3043     strb.w r3, [r4, #67]   ; 0x43
		      2262:   485a          ldr    r0, [pc, #360] ; (23cc <_printf_i+0x23c>)
		--------------------
	(    2272,     2274)	jt
		--------------------
		      226a:   6820          ldr    r0, [r4, #0]
		      226c:   1d19          adds   r1, r3, #4
		      226e:   6029          str    r1, [r5, #0]
		      2270:   0605          lsls   r5, r0, #24
		->    2272:   d501          bpl.n  2278 <_printf_i+0xe8>
		      2274:   681e          ldr    r6, [r3, #0]
		      2276:   e002          b.n    227e <_printf_i+0xee>
		      2278:   0641          lsls   r1, r0, #25
		      227a:   d5fb          bpl.n  2274 <_printf_i+0xe4>
		--------------------
	(    2272,     2278)	jt
		--------------------
		      226a:   6820          ldr    r0, [r4, #0]
		      226c:   1d19          adds   r1, r3, #4
		      226e:   6029          str    r1, [r5, #0]
		      2270:   0605          lsls   r5, r0, #24
		->    2272:   d501          bpl.n  2278 <_printf_i+0xe8>
		      2274:   681e          ldr    r6, [r3, #0]
		      2276:   e002          b.n    227e <_printf_i+0xee>
		      2278:   0641          lsls   r1, r0, #25
		      227a:   d5fb          bpl.n  2274 <_printf_i+0xe4>
		--------------------
