blinky-o0: 20 | 45
	(     6c0,        4)	
		--------------------
		       6b4:   000006c5  .word   0x000006c5
		       6b8:   000006c9  .word   0x000006c9
		       6bc:   2301          movs   r3, #1
		       6be:   e008          b.n    6d2 <nrf52_errata_12+0x6e>
		->     6c0:   2301          movs   r3, #1
		       6c2:   e006          b.n    6d2 <nrf52_errata_12+0x6e>
		       6c4:   2301          movs   r3, #1
		       6c6:   e004          b.n    6d2 <nrf52_errata_12+0x6e>
		       6c8:   2301          movs   r3, #1
		--------------------
	(     734,        4)	
		--------------------
		       728:   00000739  .word   0x00000739
		       72c:   0000073d  .word   0x0000073d
		       730:   2301          movs   r3, #1
		       732:   e008          b.n    746 <nrf52_errata_16+0x56>
		->     734:   2300          movs   r3, #0
		       736:   e006          b.n    746 <nrf52_errata_16+0x56>
		       738:   2300          movs   r3, #0
		       73a:   e004          b.n    746 <nrf52_errata_16+0x56>
		       73c:   2300          movs   r3, #0
		--------------------
	(     738,        4)	
		--------------------
		       730:   2301          movs   r3, #1
		       732:   e008          b.n    746 <nrf52_errata_16+0x56>
		       734:   2300          movs   r3, #0
		       736:   e006          b.n    746 <nrf52_errata_16+0x56>
		->     738:   2300          movs   r3, #0
		       73a:   e004          b.n    746 <nrf52_errata_16+0x56>
		       73c:   2300          movs   r3, #0
		       73e:   e002          b.n    746 <nrf52_errata_16+0x56>
		       740:   2300          movs   r3, #0
		--------------------
	(     73c,        4)	
		--------------------
		       734:   2300          movs   r3, #0
		       736:   e006          b.n    746 <nrf52_errata_16+0x56>
		       738:   2300          movs   r3, #0
		       73a:   e004          b.n    746 <nrf52_errata_16+0x56>
		->     73c:   2300          movs   r3, #0
		       73e:   e002          b.n    746 <nrf52_errata_16+0x56>
		       740:   2300          movs   r3, #0
		       742:   e000          b.n    746 <nrf52_errata_16+0x56>
		       744:   2300          movs   r3, #0
		--------------------
	(     7c0,        4)	
		--------------------
		       7b8:   2301          movs   r3, #1
		       7ba:   e006          b.n    7ca <nrf52_errata_31+0x6e>
		       7bc:   2301          movs   r3, #1
		       7be:   e004          b.n    7ca <nrf52_errata_31+0x6e>
		->     7c0:   2301          movs   r3, #1
		       7c2:   e002          b.n    7ca <nrf52_errata_31+0x6e>
		       7c4:   2301          movs   r3, #1
		       7c6:   e000          b.n    7ca <nrf52_errata_31+0x6e>
		       7c8:   2300          movs   r3, #0
		--------------------
	(     82c,        4)	
		--------------------
		       820:   00000831  .word   0x00000831
		       824:   00000835  .word   0x00000835
		       828:   2301          movs   r3, #1
		       82a:   e008          b.n    83e <nrf52_errata_32+0x56>
		->     82c:   2300          movs   r3, #0
		       82e:   e006          b.n    83e <nrf52_errata_32+0x56>
		       830:   2300          movs   r3, #0
		       832:   e004          b.n    83e <nrf52_errata_32+0x56>
		       834:   2300          movs   r3, #0
		--------------------
	(     830,        4)	
		--------------------
		       828:   2301          movs   r3, #1
		       82a:   e008          b.n    83e <nrf52_errata_32+0x56>
		       82c:   2300          movs   r3, #0
		       82e:   e006          b.n    83e <nrf52_errata_32+0x56>
		->     830:   2300          movs   r3, #0
		       832:   e004          b.n    83e <nrf52_errata_32+0x56>
		       834:   2300          movs   r3, #0
		       836:   e002          b.n    83e <nrf52_errata_32+0x56>
		       838:   2300          movs   r3, #0
		--------------------
	(     834,        4)	
		--------------------
		       82c:   2300          movs   r3, #0
		       82e:   e006          b.n    83e <nrf52_errata_32+0x56>
		       830:   2300          movs   r3, #0
		       832:   e004          b.n    83e <nrf52_errata_32+0x56>
		->     834:   2300          movs   r3, #0
		       836:   e002          b.n    83e <nrf52_errata_32+0x56>
		       838:   2300          movs   r3, #0
		       83a:   e000          b.n    83e <nrf52_errata_32+0x56>
		       83c:   2300          movs   r3, #0
		--------------------
	(     8b0,        4)	
		--------------------
		       8a4:   000008b5  .word   0x000008b5
		       8a8:   000008b9  .word   0x000008b9
		       8ac:   2301          movs   r3, #1
		       8ae:   e008          b.n    8c2 <nrf52_errata_36+0x6e>
		->     8b0:   2301          movs   r3, #1
		       8b2:   e006          b.n    8c2 <nrf52_errata_36+0x6e>
		       8b4:   2301          movs   r3, #1
		       8b6:   e004          b.n    8c2 <nrf52_errata_36+0x6e>
		       8b8:   2301          movs   r3, #1
		--------------------
	(     990,        4)	
		--------------------
		       984:   00000995  .word   0x00000995
		       988:   00000999  .word   0x00000999
		       98c:   2301          movs   r3, #1
		       98e:   e008          b.n    9a2 <nrf52_errata_57+0x56>
		->     990:   2300          movs   r3, #0
		       992:   e006          b.n    9a2 <nrf52_errata_57+0x56>
		       994:   2300          movs   r3, #0
		       996:   e004          b.n    9a2 <nrf52_errata_57+0x56>
		       998:   2300          movs   r3, #0
		--------------------
	(     a10,        4)	
		--------------------
		       a00:   00000a11  .word   0x00000a11
		       a04:   00000a15  .word   0x00000a15
		       a08:   00000a19  .word   0x00000a19
		       a0c:   00000a1d  .word   0x00000a1d
		->     a10:   2300          movs   r3, #0
		       a12:   e008          b.n    a26 <nrf52_errata_66+0x6e>
		       a14:   2300          movs   r3, #0
		       a16:   e006          b.n    a26 <nrf52_errata_66+0x6e>
		       a18:   2301          movs   r3, #1
		--------------------
	(     a14,        4)	
		--------------------
		       a08:   00000a19  .word   0x00000a19
		       a0c:   00000a1d  .word   0x00000a1d
		       a10:   2300          movs   r3, #0
		       a12:   e008          b.n    a26 <nrf52_errata_66+0x6e>
		->     a14:   2300          movs   r3, #0
		       a16:   e006          b.n    a26 <nrf52_errata_66+0x6e>
		       a18:   2301          movs   r3, #1
		       a1a:   e004          b.n    a26 <nrf52_errata_66+0x6e>
		       a1c:   2301          movs   r3, #1
		--------------------
	(     a18,        4)	
		--------------------
		       a10:   2300          movs   r3, #0
		       a12:   e008          b.n    a26 <nrf52_errata_66+0x6e>
		       a14:   2300          movs   r3, #0
		       a16:   e006          b.n    a26 <nrf52_errata_66+0x6e>
		->     a18:   2301          movs   r3, #1
		       a1a:   e004          b.n    a26 <nrf52_errata_66+0x6e>
		       a1c:   2301          movs   r3, #1
		       a1e:   e002          b.n    a26 <nrf52_errata_66+0x6e>
		       a20:   2301          movs   r3, #1
		--------------------
	(     a9c,        4)	
		--------------------
		       a8c:   00000a9d  .word   0x00000a9d
		       a90:   00000aa1  .word   0x00000aa1
		       a94:   00000aa5  .word   0x00000aa5
		       a98:   00000aa9  .word   0x00000aa9
		->     a9c:   2301          movs   r3, #1
		       a9e:   e008          b.n    ab2 <nrf52_errata_108+0x6e>
		       aa0:   2301          movs   r3, #1
		       aa2:   e006          b.n    ab2 <nrf52_errata_108+0x6e>
		       aa4:   2301          movs   r3, #1
		--------------------
	(     aa8,        4)	
		--------------------
		       aa0:   2301          movs   r3, #1
		       aa2:   e006          b.n    ab2 <nrf52_errata_108+0x6e>
		       aa4:   2301          movs   r3, #1
		       aa6:   e004          b.n    ab2 <nrf52_errata_108+0x6e>
		->     aa8:   2301          movs   r3, #1
		       aaa:   e002          b.n    ab2 <nrf52_errata_108+0x6e>
		       aac:   2301          movs   r3, #1
		       aae:   e000          b.n    ab2 <nrf52_errata_108+0x6e>
		       ab0:   2300          movs   r3, #0
		--------------------
	(     b28,        4)	
		--------------------
		       b18:   00000b29  .word   0x00000b29
		       b1c:   00000b2d  .word   0x00000b2d
		       b20:   00000b31  .word   0x00000b31
		       b24:   00000b35  .word   0x00000b35
		->     b28:   2301          movs   r3, #1
		       b2a:   e008          b.n    b3e <nrf52_errata_136+0x6e>
		       b2c:   2301          movs   r3, #1
		       b2e:   e006          b.n    b3e <nrf52_errata_136+0x6e>
		       b30:   2301          movs   r3, #1
		--------------------
	(     b2c,        4)	
		--------------------
		       b20:   00000b31  .word   0x00000b31
		       b24:   00000b35  .word   0x00000b35
		       b28:   2301          movs   r3, #1
		       b2a:   e008          b.n    b3e <nrf52_errata_136+0x6e>
		->     b2c:   2301          movs   r3, #1
		       b2e:   e006          b.n    b3e <nrf52_errata_136+0x6e>
		       b30:   2301          movs   r3, #1
		       b32:   e004          b.n    b3e <nrf52_errata_136+0x6e>
		       b34:   2301          movs   r3, #1
		--------------------
	(     b34,        4)	
		--------------------
		       b2c:   2301          movs   r3, #1
		       b2e:   e006          b.n    b3e <nrf52_errata_136+0x6e>
		       b30:   2301          movs   r3, #1
		       b32:   e004          b.n    b3e <nrf52_errata_136+0x6e>
		->     b34:   2301          movs   r3, #1
		       b36:   e002          b.n    b3e <nrf52_errata_136+0x6e>
		       b38:   2301          movs   r3, #1
		       b3a:   e000          b.n    b3e <nrf52_errata_136+0x6e>
		       b3c:   2300          movs   r3, #0
		--------------------
	(     b9c,        4)	
		--------------------
		       b94:   2300          movs   r3, #0
		       b96:   e008          b.n    baa <nrf52_errata_182+0x4e>
		       b98:   2300          movs   r3, #0
		       b9a:   e006          b.n    baa <nrf52_errata_182+0x4e>
		->     b9c:   2300          movs   r3, #0
		       b9e:   e004          b.n    baa <nrf52_errata_182+0x4e>
		       ba0:   2301          movs   r3, #1
		       ba2:   e002          b.n    baa <nrf52_errata_182+0x4e>
		       ba4:   2301          movs   r3, #1
		--------------------
	(    1110,        4)	
		--------------------
		  00001100 <m_board_btn_list>:
		      1100:   0e0d 100f 0000 0000 0000 0000 0000 0000     ................
		  
		  00001110 <delay_machine_code.0>:
		->    1110:   3803 d8fd 4770 0000                         .8..pG..
		  
		  00001118 <__EH_FRAME_BEGIN__>:
		      1118:   0000 0000                                   ....
		  
		--------------------

blinky-o1: 1 | 1
	(     970,        4)	
		--------------------
		  0000096c <m_board_led_list>:
		   96c:   1211 1413                                   ....
		  
		  00000970 <delay_machine_code.0>:
		-> 970:   3803 d8fd 4770 0000                         .8..pG..
		  
		  00000978 <__EH_FRAME_BEGIN__>:
		   978:   0000 0000                                   ....
		  
		--------------------

blinky-o2: 1 | 1
	(     990,        4)	
		--------------------
		  00000980 <m_board_led_list>:
		   980:   1211 1413 0000 0000 0000 0000 0000 0000     ................
		  
		  00000990 <delay_machine_code.0>:
		-> 990:   3803 d8fd 4770 0000                         .8..pG..
		  
		  00000998 <CSWTCH.15>:
		   998:   0000 0101                                   ....
		  
		--------------------

blinky-o3: 1 | 1
	(     970,        4)	
		--------------------
		  0000096c <m_board_led_list>:
		   96c:   1211 1413                                   ....
		  
		  00000970 <delay_machine_code.0>:
		-> 970:   3803 d8fd 4770 0000                         .8..pG..
		  
		  00000978 <CSWTCH.15>:
		   978:   0000 0101                                   ....
		  
		--------------------

gpiote-o0: 20 | 45
	(    1a88,        4)	
		--------------------
		      1a78:   00001a89  .word   0x00001a89
		      1a7c:   00001a8d  .word   0x00001a8d
		      1a80:   00001a91  .word   0x00001a91
		      1a84:   00001a95  .word   0x00001a95
		->    1a88:   2301          movs   r3, #1
		      1a8a:   e008          b.n    1a9e <nrf52_errata_16+0x56>
		      1a8c:   2300          movs   r3, #0
		      1a8e:   e006          b.n    1a9e <nrf52_errata_16+0x56>
		      1a90:   2300          movs   r3, #0
		--------------------
	(    1b0c,        4)	
		--------------------
		      1afc:   00001b0d  .word   0x00001b0d
		      1b00:   00001b11  .word   0x00001b11
		      1b04:   00001b15  .word   0x00001b15
		      1b08:   00001b19  .word   0x00001b19
		->    1b0c:   2301          movs   r3, #1
		      1b0e:   e008          b.n    1b22 <nrf52_errata_31+0x6e>
		      1b10:   2301          movs   r3, #1
		      1b12:   e006          b.n    1b22 <nrf52_errata_31+0x6e>
		      1b14:   2301          movs   r3, #1
		--------------------
	(    1b10,        4)	
		--------------------
		      1b04:   00001b15  .word   0x00001b15
		      1b08:   00001b19  .word   0x00001b19
		      1b0c:   2301          movs   r3, #1
		      1b0e:   e008          b.n    1b22 <nrf52_errata_31+0x6e>
		->    1b10:   2301          movs   r3, #1
		      1b12:   e006          b.n    1b22 <nrf52_errata_31+0x6e>
		      1b14:   2301          movs   r3, #1
		      1b16:   e004          b.n    1b22 <nrf52_errata_31+0x6e>
		      1b18:   2301          movs   r3, #1
		--------------------
	(    1b14,        4)	
		--------------------
		      1b0c:   2301          movs   r3, #1
		      1b0e:   e008          b.n    1b22 <nrf52_errata_31+0x6e>
		      1b10:   2301          movs   r3, #1
		      1b12:   e006          b.n    1b22 <nrf52_errata_31+0x6e>
		->    1b14:   2301          movs   r3, #1
		      1b16:   e004          b.n    1b22 <nrf52_errata_31+0x6e>
		      1b18:   2301          movs   r3, #1
		      1b1a:   e002          b.n    1b22 <nrf52_errata_31+0x6e>
		      1b1c:   2301          movs   r3, #1
		--------------------
	(    1b18,        4)	
		--------------------
		      1b10:   2301          movs   r3, #1
		      1b12:   e006          b.n    1b22 <nrf52_errata_31+0x6e>
		      1b14:   2301          movs   r3, #1
		      1b16:   e004          b.n    1b22 <nrf52_errata_31+0x6e>
		->    1b18:   2301          movs   r3, #1
		      1b1a:   e002          b.n    1b22 <nrf52_errata_31+0x6e>
		      1b1c:   2301          movs   r3, #1
		      1b1e:   e000          b.n    1b22 <nrf52_errata_31+0x6e>
		      1b20:   2300          movs   r3, #0
		--------------------
	(    1b88,        4)	
		--------------------
		      1b80:   2301          movs   r3, #1
		      1b82:   e008          b.n    1b96 <nrf52_errata_32+0x56>
		      1b84:   2300          movs   r3, #0
		      1b86:   e006          b.n    1b96 <nrf52_errata_32+0x56>
		->    1b88:   2300          movs   r3, #0
		      1b8a:   e004          b.n    1b96 <nrf52_errata_32+0x56>
		      1b8c:   2300          movs   r3, #0
		      1b8e:   e002          b.n    1b96 <nrf52_errata_32+0x56>
		      1b90:   2300          movs   r3, #0
		--------------------
	(    1b8c,        4)	
		--------------------
		      1b84:   2300          movs   r3, #0
		      1b86:   e006          b.n    1b96 <nrf52_errata_32+0x56>
		      1b88:   2300          movs   r3, #0
		      1b8a:   e004          b.n    1b96 <nrf52_errata_32+0x56>
		->    1b8c:   2300          movs   r3, #0
		      1b8e:   e002          b.n    1b96 <nrf52_errata_32+0x56>
		      1b90:   2300          movs   r3, #0
		      1b92:   e000          b.n    1b96 <nrf52_errata_32+0x56>
		      1b94:   2300          movs   r3, #0
		--------------------
	(    1c04,        4)	
		--------------------
		      1bf4:   00001c05  .word   0x00001c05
		      1bf8:   00001c09  .word   0x00001c09
		      1bfc:   00001c0d  .word   0x00001c0d
		      1c00:   00001c11  .word   0x00001c11
		->    1c04:   2301          movs   r3, #1
		      1c06:   e008          b.n    1c1a <nrf52_errata_36+0x6e>
		      1c08:   2301          movs   r3, #1
		      1c0a:   e006          b.n    1c1a <nrf52_errata_36+0x6e>
		      1c0c:   2301          movs   r3, #1
		--------------------
	(    1c08,        4)	
		--------------------
		      1bfc:   00001c0d  .word   0x00001c0d
		      1c00:   00001c11  .word   0x00001c11
		      1c04:   2301          movs   r3, #1
		      1c06:   e008          b.n    1c1a <nrf52_errata_36+0x6e>
		->    1c08:   2301          movs   r3, #1
		      1c0a:   e006          b.n    1c1a <nrf52_errata_36+0x6e>
		      1c0c:   2301          movs   r3, #1
		      1c0e:   e004          b.n    1c1a <nrf52_errata_36+0x6e>
		      1c10:   2301          movs   r3, #1
		--------------------
	(    1c10,        4)	
		--------------------
		      1c08:   2301          movs   r3, #1
		      1c0a:   e006          b.n    1c1a <nrf52_errata_36+0x6e>
		      1c0c:   2301          movs   r3, #1
		      1c0e:   e004          b.n    1c1a <nrf52_errata_36+0x6e>
		->    1c10:   2301          movs   r3, #1
		      1c12:   e002          b.n    1c1a <nrf52_errata_36+0x6e>
		      1c14:   2301          movs   r3, #1
		      1c16:   e000          b.n    1c1a <nrf52_errata_36+0x6e>
		      1c18:   2300          movs   r3, #0
		--------------------
	(    1c80,        4)	
		--------------------
		      1c78:   2301          movs   r3, #1
		      1c7a:   e008          b.n    1c8e <nrf52_errata_37+0x56>
		      1c7c:   2300          movs   r3, #0
		      1c7e:   e006          b.n    1c8e <nrf52_errata_37+0x56>
		->    1c80:   2300          movs   r3, #0
		      1c82:   e004          b.n    1c8e <nrf52_errata_37+0x56>
		      1c84:   2300          movs   r3, #0
		      1c86:   e002          b.n    1c8e <nrf52_errata_37+0x56>
		      1c88:   2300          movs   r3, #0
		--------------------
	(    1c84,        4)	
		--------------------
		      1c7c:   2300          movs   r3, #0
		      1c7e:   e006          b.n    1c8e <nrf52_errata_37+0x56>
		      1c80:   2300          movs   r3, #0
		      1c82:   e004          b.n    1c8e <nrf52_errata_37+0x56>
		->    1c84:   2300          movs   r3, #0
		      1c86:   e002          b.n    1c8e <nrf52_errata_37+0x56>
		      1c88:   2300          movs   r3, #0
		      1c8a:   e000          b.n    1c8e <nrf52_errata_37+0x56>
		      1c8c:   2300          movs   r3, #0
		--------------------
	(    1d70,        4)	
		--------------------
		      1d68:   2300          movs   r3, #0
		      1d6a:   e008          b.n    1d7e <nrf52_errata_66+0x6e>
		      1d6c:   2300          movs   r3, #0
		      1d6e:   e006          b.n    1d7e <nrf52_errata_66+0x6e>
		->    1d70:   2301          movs   r3, #1
		      1d72:   e004          b.n    1d7e <nrf52_errata_66+0x6e>
		      1d74:   2301          movs   r3, #1
		      1d76:   e002          b.n    1d7e <nrf52_errata_66+0x6e>
		      1d78:   2301          movs   r3, #1
		--------------------
	(    1e80,        4)	
		--------------------
		      1e70:   00001e81  .word   0x00001e81
		      1e74:   00001e85  .word   0x00001e85
		      1e78:   00001e89  .word   0x00001e89
		      1e7c:   00001e8d  .word   0x00001e8d
		->    1e80:   2301          movs   r3, #1
		      1e82:   e008          b.n    1e96 <nrf52_errata_136+0x6e>
		      1e84:   2301          movs   r3, #1
		      1e86:   e006          b.n    1e96 <nrf52_errata_136+0x6e>
		      1e88:   2301          movs   r3, #1
		--------------------
	(    1e84,        4)	
		--------------------
		      1e78:   00001e89  .word   0x00001e89
		      1e7c:   00001e8d  .word   0x00001e8d
		      1e80:   2301          movs   r3, #1
		      1e82:   e008          b.n    1e96 <nrf52_errata_136+0x6e>
		->    1e84:   2301          movs   r3, #1
		      1e86:   e006          b.n    1e96 <nrf52_errata_136+0x6e>
		      1e88:   2301          movs   r3, #1
		      1e8a:   e004          b.n    1e96 <nrf52_errata_136+0x6e>
		      1e8c:   2301          movs   r3, #1
		--------------------
	(    1e88,        4)	
		--------------------
		      1e80:   2301          movs   r3, #1
		      1e82:   e008          b.n    1e96 <nrf52_errata_136+0x6e>
		      1e84:   2301          movs   r3, #1
		      1e86:   e006          b.n    1e96 <nrf52_errata_136+0x6e>
		->    1e88:   2301          movs   r3, #1
		      1e8a:   e004          b.n    1e96 <nrf52_errata_136+0x6e>
		      1e8c:   2301          movs   r3, #1
		      1e8e:   e002          b.n    1e96 <nrf52_errata_136+0x6e>
		      1e90:   2301          movs   r3, #1
		--------------------
	(    1eec,        4)	
		--------------------
		      1edc:   00001eed  .word   0x00001eed
		      1ee0:   00001ef1  .word   0x00001ef1
		      1ee4:   00001ef5  .word   0x00001ef5
		      1ee8:   00001ef9  .word   0x00001ef9
		->    1eec:   2300          movs   r3, #0
		      1eee:   e008          b.n    1f02 <nrf52_errata_182+0x4e>
		      1ef0:   2300          movs   r3, #0
		      1ef2:   e006          b.n    1f02 <nrf52_errata_182+0x4e>
		      1ef4:   2300          movs   r3, #0
		--------------------
	(    1ef0,        4)	
		--------------------
		      1ee4:   00001ef5  .word   0x00001ef5
		      1ee8:   00001ef9  .word   0x00001ef9
		      1eec:   2300          movs   r3, #0
		      1eee:   e008          b.n    1f02 <nrf52_errata_182+0x4e>
		->    1ef0:   2300          movs   r3, #0
		      1ef2:   e006          b.n    1f02 <nrf52_errata_182+0x4e>
		      1ef4:   2300          movs   r3, #0
		      1ef6:   e004          b.n    1f02 <nrf52_errata_182+0x4e>
		      1ef8:   2301          movs   r3, #1
		--------------------
	(    1ef4,        4)	
		--------------------
		      1eec:   2300          movs   r3, #0
		      1eee:   e008          b.n    1f02 <nrf52_errata_182+0x4e>
		      1ef0:   2300          movs   r3, #0
		      1ef2:   e006          b.n    1f02 <nrf52_errata_182+0x4e>
		->    1ef4:   2300          movs   r3, #0
		      1ef6:   e004          b.n    1f02 <nrf52_errata_182+0x4e>
		      1ef8:   2301          movs   r3, #1
		      1efa:   e002          b.n    1f02 <nrf52_errata_182+0x4e>
		      1efc:   2301          movs   r3, #1
		--------------------
	(    243c,       12)	
		--------------------
		      2438:   e7fe          b.n    2438 <_exit>
		      243a:   bf00          nop
		  
		  0000243c <_init>:
		->    243c:   b5f8          push   {r3, r4, r5, r6, r7, lr}
		      243e:   bf00          nop
		      2440:   bcf8          pop    {r3, r4, r5, r6, r7}
		      2442:   bc08          pop    {r3}
		      2444:   469e          mov    lr, r3
		--------------------

gpiote-o1: 1 | 1
	(     fd8,       12)	
		--------------------
		       fd4:   e7fe          b.n    fd4 <_exit>
		       fd6:   bf00          nop
		  
		  00000fd8 <_init>:
		->     fd8:   b5f8          push   {r3, r4, r5, r6, r7, lr}
		       fda:   bf00          nop
		       fdc:   bcf8          pop    {r3, r4, r5, r6, r7}
		       fde:   bc08          pop    {r3}
		       fe0:   469e          mov    lr, r3
		--------------------

gpiote-o2: 1 | 1
	(     fe8,       12)	
		--------------------
		       fe4:   e7fe          b.n    fe4 <_exit>
		       fe6:   bf00          nop
		  
		  00000fe8 <_init>:
		->     fe8:   b5f8          push   {r3, r4, r5, r6, r7, lr}
		       fea:   bf00          nop
		       fec:   bcf8          pop    {r3, r4, r5, r6, r7}
		       fee:   bc08          pop    {r3}
		       ff0:   469e          mov    lr, r3
		--------------------

gpiote-o3: 1 | 1
	(    1150,       12)	
		--------------------
		      114c:   e7fe          b.n    114c <_exit>
		      114e:   bf00          nop
		  
		  00001150 <_init>:
		->    1150:   b5f8          push   {r3, r4, r5, r6, r7, lr}
		      1152:   bf00          nop
		      1154:   bcf8          pop    {r3, r4, r5, r6, r7}
		      1156:   bc08          pop    {r3}
		      1158:   469e          mov    lr, r3
		--------------------

i2s-o0: 20 | 45
	(    4fb4,        4)	
		--------------------
		      4fa4:   00004fb5  .word   0x00004fb5
		      4fa8:   00004fb9  .word   0x00004fb9
		      4fac:   00004fbd  .word   0x00004fbd
		      4fb0:   00004fc1  .word   0x00004fc1
		->    4fb4:   2301          movs   r3, #1
		      4fb6:   e008          b.n    4fca <nrf52_errata_12+0x6e>
		      4fb8:   2301          movs   r3, #1
		      4fba:   e006          b.n    4fca <nrf52_errata_12+0x6e>
		      4fbc:   2301          movs   r3, #1
		--------------------
	(    5028,        4)	
		--------------------
		      5018:   00005029  .word   0x00005029
		      501c:   0000502d  .word   0x0000502d
		      5020:   00005031  .word   0x00005031
		      5024:   00005035  .word   0x00005035
		->    5028:   2301          movs   r3, #1
		      502a:   e008          b.n    503e <nrf52_errata_16+0x56>
		      502c:   2300          movs   r3, #0
		      502e:   e006          b.n    503e <nrf52_errata_16+0x56>
		      5030:   2300          movs   r3, #0
		--------------------
	(    50ac,        4)	
		--------------------
		      509c:   000050ad  .word   0x000050ad
		      50a0:   000050b1  .word   0x000050b1
		      50a4:   000050b5  .word   0x000050b5
		      50a8:   000050b9  .word   0x000050b9
		->    50ac:   2301          movs   r3, #1
		      50ae:   e008          b.n    50c2 <nrf52_errata_31+0x6e>
		      50b0:   2301          movs   r3, #1
		      50b2:   e006          b.n    50c2 <nrf52_errata_31+0x6e>
		      50b4:   2301          movs   r3, #1
		--------------------
	(    50b0,        4)	
		--------------------
		      50a4:   000050b5  .word   0x000050b5
		      50a8:   000050b9  .word   0x000050b9
		      50ac:   2301          movs   r3, #1
		      50ae:   e008          b.n    50c2 <nrf52_errata_31+0x6e>
		->    50b0:   2301          movs   r3, #1
		      50b2:   e006          b.n    50c2 <nrf52_errata_31+0x6e>
		      50b4:   2301          movs   r3, #1
		      50b6:   e004          b.n    50c2 <nrf52_errata_31+0x6e>
		      50b8:   2301          movs   r3, #1
		--------------------
	(    50b8,        4)	
		--------------------
		      50b0:   2301          movs   r3, #1
		      50b2:   e006          b.n    50c2 <nrf52_errata_31+0x6e>
		      50b4:   2301          movs   r3, #1
		      50b6:   e004          b.n    50c2 <nrf52_errata_31+0x6e>
		->    50b8:   2301          movs   r3, #1
		      50ba:   e002          b.n    50c2 <nrf52_errata_31+0x6e>
		      50bc:   2301          movs   r3, #1
		      50be:   e000          b.n    50c2 <nrf52_errata_31+0x6e>
		      50c0:   2300          movs   r3, #0
		--------------------
	(    5120,        4)	
		--------------------
		      5110:   00005121  .word   0x00005121
		      5114:   00005125  .word   0x00005125
		      5118:   00005129  .word   0x00005129
		      511c:   0000512d  .word   0x0000512d
		->    5120:   2301          movs   r3, #1
		      5122:   e008          b.n    5136 <nrf52_errata_32+0x56>
		      5124:   2300          movs   r3, #0
		      5126:   e006          b.n    5136 <nrf52_errata_32+0x56>
		      5128:   2300          movs   r3, #0
		--------------------
	(    5128,        4)	
		--------------------
		      5120:   2301          movs   r3, #1
		      5122:   e008          b.n    5136 <nrf52_errata_32+0x56>
		      5124:   2300          movs   r3, #0
		      5126:   e006          b.n    5136 <nrf52_errata_32+0x56>
		->    5128:   2300          movs   r3, #0
		      512a:   e004          b.n    5136 <nrf52_errata_32+0x56>
		      512c:   2300          movs   r3, #0
		      512e:   e002          b.n    5136 <nrf52_errata_32+0x56>
		      5130:   2300          movs   r3, #0
		--------------------
	(    51b0,        4)	
		--------------------
		      51a8:   2301          movs   r3, #1
		      51aa:   e006          b.n    51ba <nrf52_errata_36+0x6e>
		      51ac:   2301          movs   r3, #1
		      51ae:   e004          b.n    51ba <nrf52_errata_36+0x6e>
		->    51b0:   2301          movs   r3, #1
		      51b2:   e002          b.n    51ba <nrf52_errata_36+0x6e>
		      51b4:   2301          movs   r3, #1
		      51b6:   e000          b.n    51ba <nrf52_errata_36+0x6e>
		      51b8:   2300          movs   r3, #0
		--------------------
	(    5284,        4)	
		--------------------
		      5274:   00005285  .word   0x00005285
		      5278:   00005289  .word   0x00005289
		      527c:   0000528d  .word   0x0000528d
		      5280:   00005291  .word   0x00005291
		->    5284:   2301          movs   r3, #1
		      5286:   e008          b.n    529a <nrf52_errata_57+0x56>
		      5288:   2300          movs   r3, #0
		      528a:   e006          b.n    529a <nrf52_errata_57+0x56>
		      528c:   2300          movs   r3, #0
		--------------------
	(    5290,        4)	
		--------------------
		      5288:   2300          movs   r3, #0
		      528a:   e006          b.n    529a <nrf52_errata_57+0x56>
		      528c:   2300          movs   r3, #0
		      528e:   e004          b.n    529a <nrf52_errata_57+0x56>
		->    5290:   2300          movs   r3, #0
		      5292:   e002          b.n    529a <nrf52_errata_57+0x56>
		      5294:   2300          movs   r3, #0
		      5296:   e000          b.n    529a <nrf52_errata_57+0x56>
		      5298:   2300          movs   r3, #0
		--------------------
	(    5308,        4)	
		--------------------
		      52f8:   00005309  .word   0x00005309
		      52fc:   0000530d  .word   0x0000530d
		      5300:   00005311  .word   0x00005311
		      5304:   00005315  .word   0x00005315
		->    5308:   2300          movs   r3, #0
		      530a:   e008          b.n    531e <nrf52_errata_66+0x6e>
		      530c:   2300          movs   r3, #0
		      530e:   e006          b.n    531e <nrf52_errata_66+0x6e>
		      5310:   2301          movs   r3, #1
		--------------------
	(    530c,        4)	
		--------------------
		      5300:   00005311  .word   0x00005311
		      5304:   00005315  .word   0x00005315
		      5308:   2300          movs   r3, #0
		      530a:   e008          b.n    531e <nrf52_errata_66+0x6e>
		->    530c:   2300          movs   r3, #0
		      530e:   e006          b.n    531e <nrf52_errata_66+0x6e>
		      5310:   2301          movs   r3, #1
		      5312:   e004          b.n    531e <nrf52_errata_66+0x6e>
		      5314:   2301          movs   r3, #1
		--------------------
	(    5394,        4)	
		--------------------
		      5384:   00005395  .word   0x00005395
		      5388:   00005399  .word   0x00005399
		      538c:   0000539d  .word   0x0000539d
		      5390:   000053a1  .word   0x000053a1
		->    5394:   2301          movs   r3, #1
		      5396:   e008          b.n    53aa <nrf52_errata_108+0x6e>
		      5398:   2301          movs   r3, #1
		      539a:   e006          b.n    53aa <nrf52_errata_108+0x6e>
		      539c:   2301          movs   r3, #1
		--------------------
	(    5398,        4)	
		--------------------
		      538c:   0000539d  .word   0x0000539d
		      5390:   000053a1  .word   0x000053a1
		      5394:   2301          movs   r3, #1
		      5396:   e008          b.n    53aa <nrf52_errata_108+0x6e>
		->    5398:   2301          movs   r3, #1
		      539a:   e006          b.n    53aa <nrf52_errata_108+0x6e>
		      539c:   2301          movs   r3, #1
		      539e:   e004          b.n    53aa <nrf52_errata_108+0x6e>
		      53a0:   2301          movs   r3, #1
		--------------------
	(    5420,        4)	
		--------------------
		      5410:   00005421  .word   0x00005421
		      5414:   00005425  .word   0x00005425
		      5418:   00005429  .word   0x00005429
		      541c:   0000542d  .word   0x0000542d
		->    5420:   2301          movs   r3, #1
		      5422:   e008          b.n    5436 <nrf52_errata_136+0x6e>
		      5424:   2301          movs   r3, #1
		      5426:   e006          b.n    5436 <nrf52_errata_136+0x6e>
		      5428:   2301          movs   r3, #1
		--------------------
	(    5428,        4)	
		--------------------
		      5420:   2301          movs   r3, #1
		      5422:   e008          b.n    5436 <nrf52_errata_136+0x6e>
		      5424:   2301          movs   r3, #1
		      5426:   e006          b.n    5436 <nrf52_errata_136+0x6e>
		->    5428:   2301          movs   r3, #1
		      542a:   e004          b.n    5436 <nrf52_errata_136+0x6e>
		      542c:   2301          movs   r3, #1
		      542e:   e002          b.n    5436 <nrf52_errata_136+0x6e>
		      5430:   2301          movs   r3, #1
		--------------------
	(    542c,        4)	
		--------------------
		      5424:   2301          movs   r3, #1
		      5426:   e006          b.n    5436 <nrf52_errata_136+0x6e>
		      5428:   2301          movs   r3, #1
		      542a:   e004          b.n    5436 <nrf52_errata_136+0x6e>
		->    542c:   2301          movs   r3, #1
		      542e:   e002          b.n    5436 <nrf52_errata_136+0x6e>
		      5430:   2301          movs   r3, #1
		      5432:   e000          b.n    5436 <nrf52_errata_136+0x6e>
		      5434:   2300          movs   r3, #0
		--------------------
	(    548c,        4)	
		--------------------
		      547c:   0000548d  .word   0x0000548d
		      5480:   00005491  .word   0x00005491
		      5484:   00005495  .word   0x00005495
		      5488:   00005499  .word   0x00005499
		->    548c:   2300          movs   r3, #0
		      548e:   e008          b.n    54a2 <nrf52_errata_182+0x4e>
		      5490:   2300          movs   r3, #0
		      5492:   e006          b.n    54a2 <nrf52_errata_182+0x4e>
		      5494:   2300          movs   r3, #0
		--------------------
	(    5494,        4)	
		--------------------
		      548c:   2300          movs   r3, #0
		      548e:   e008          b.n    54a2 <nrf52_errata_182+0x4e>
		      5490:   2300          movs   r3, #0
		      5492:   e006          b.n    54a2 <nrf52_errata_182+0x4e>
		->    5494:   2300          movs   r3, #0
		      5496:   e004          b.n    54a2 <nrf52_errata_182+0x4e>
		      5498:   2301          movs   r3, #1
		      549a:   e002          b.n    54a2 <nrf52_errata_182+0x4e>
		      549c:   2301          movs   r3, #1
		--------------------
	(    5c00,        4)	
		--------------------
		      5be0:   1dff1e1f 0000061c 00010100 20000000     ............... 
		      5bf0:   000000d0 00000000 00000000 00000000     ................
		  
		  00005c00 <delay_machine_code.0>:
		->    5c00:   d8fd3803                                 .8..pG
		  
		  00005c06 <_ctype_>:
		      5c06:   20202000 20202020 28282020 20282828     .         ((((( 
		      5c16:   20202020 20202020 20202020 20202020                     
		--------------------

i2s-o1: 1 | 1
	(    3180,        4)	
		--------------------
		      3168:   20000000 000000d0 200006bc 200016bc     ... ....... ... 
		      ...
		  
		  00003180 <delay_machine_code.0>:
		->    3180:   d8fd3803                                 .8..pG
		  
		  00003186 <_ctype_>:
		      3186:   20202000 20202020 28282020 20282828     .         ((((( 
		      3196:   20202020 20202020 20202020 20202020                     
		--------------------

i2s-o2: 0 | 0

i2s-o3: 0 | 0

saadc-o0: 20 | 48
	(    169e,       10)	
		--------------------
		      1698:   f85d 7b04     ldr.w  r7, [sp], #4
		      169c:   4770          bx lr
		  
		  0000169e <nrf_balloc_block2idx>:
		->    169e:   b480          push   {r7}
		      16a0:   b083          sub    sp, #12
		      16a2:   af00          add    r7, sp, #0
		      16a4:   6078          str    r0, [r7, #4]
		      16a6:   6039          str    r1, [r7, #0]
		--------------------
	(    16a8,       30)	
		--------------------
		      16a0:   b083          sub    sp, #12
		      16a2:   af00          add    r7, sp, #0
		      16a4:   6078          str    r0, [r7, #4]
		      16a6:   6039          str    r1, [r7, #0]
		->    16a8:   683b          ldr    r3, [r7, #0]
		      16aa:   687a          ldr    r2, [r7, #4]
		      16ac:   68d2          ldr    r2, [r2, #12]
		      16ae:   1a9b          subs   r3, r3, r2
		      16b0:   687a          ldr    r2, [r7, #4]
		--------------------
	(    17ae,       10)	
		--------------------
		      17a4:   601a          str    r2, [r3, #0]
		      17a6:   68f9          ldr    r1, [r7, #12]
		      17a8:   6878          ldr    r0, [r7, #4]
		      17aa:   f7ff ff78     bl 169e <nrf_balloc_block2idx>
		->    17ae:   4603          mov    r3, r0
		      17b0:   7023          strb   r3, [r4, #0]
		      17b2:   2000          movs   r0, #0
		      17b4:   f7ff febe     bl 1534 <app_util_critical_region_exit>
		      17b8:   bf00          nop
		--------------------
	(    17b8,        8)	
		--------------------
		      17ae:   4603          mov    r3, r0
		      17b0:   7023          strb   r3, [r4, #0]
		      17b2:   2000          movs   r0, #0
		      17b4:   f7ff febe     bl 1534 <app_util_critical_region_exit>
		->    17b8:   bf00          nop
		      17ba:   3714          adds   r7, #20
		      17bc:   46bd          mov    sp, r7
		      17be:   bd90          pop    {r4, r7, pc}
		  
		--------------------
	(    3af8,        4)	
		--------------------
		      3aec:   00003afd  .word   0x00003afd
		      3af0:   00003b01  .word   0x00003b01
		      3af4:   2301          movs   r3, #1
		      3af6:   e008          b.n    3b0a <nrf52_errata_12+0x6e>
		->    3af8:   2301          movs   r3, #1
		      3afa:   e006          b.n    3b0a <nrf52_errata_12+0x6e>
		      3afc:   2301          movs   r3, #1
		      3afe:   e004          b.n    3b0a <nrf52_errata_12+0x6e>
		      3b00:   2301          movs   r3, #1
		--------------------
	(    3b00,        4)	
		--------------------
		      3af8:   2301          movs   r3, #1
		      3afa:   e006          b.n    3b0a <nrf52_errata_12+0x6e>
		      3afc:   2301          movs   r3, #1
		      3afe:   e004          b.n    3b0a <nrf52_errata_12+0x6e>
		->    3b00:   2301          movs   r3, #1
		      3b02:   e002          b.n    3b0a <nrf52_errata_12+0x6e>
		      3b04:   2301          movs   r3, #1
		      3b06:   e000          b.n    3b0a <nrf52_errata_12+0x6e>
		      3b08:   2300          movs   r3, #0
		--------------------
	(    3b70,        4)	
		--------------------
		      3b68:   2301          movs   r3, #1
		      3b6a:   e008          b.n    3b7e <nrf52_errata_16+0x56>
		      3b6c:   2300          movs   r3, #0
		      3b6e:   e006          b.n    3b7e <nrf52_errata_16+0x56>
		->    3b70:   2300          movs   r3, #0
		      3b72:   e004          b.n    3b7e <nrf52_errata_16+0x56>
		      3b74:   2300          movs   r3, #0
		      3b76:   e002          b.n    3b7e <nrf52_errata_16+0x56>
		      3b78:   2300          movs   r3, #0
		--------------------
	(    3c64,        4)	
		--------------------
		      3c58:   00003c69  .word   0x00003c69
		      3c5c:   00003c6d  .word   0x00003c6d
		      3c60:   2301          movs   r3, #1
		      3c62:   e008          b.n    3c76 <nrf52_errata_32+0x56>
		->    3c64:   2300          movs   r3, #0
		      3c66:   e006          b.n    3c76 <nrf52_errata_32+0x56>
		      3c68:   2300          movs   r3, #0
		      3c6a:   e004          b.n    3c76 <nrf52_errata_32+0x56>
		      3c6c:   2300          movs   r3, #0
		--------------------
	(    3c68,        4)	
		--------------------
		      3c60:   2301          movs   r3, #1
		      3c62:   e008          b.n    3c76 <nrf52_errata_32+0x56>
		      3c64:   2300          movs   r3, #0
		      3c66:   e006          b.n    3c76 <nrf52_errata_32+0x56>
		->    3c68:   2300          movs   r3, #0
		      3c6a:   e004          b.n    3c76 <nrf52_errata_32+0x56>
		      3c6c:   2300          movs   r3, #0
		      3c6e:   e002          b.n    3c76 <nrf52_errata_32+0x56>
		      3c70:   2300          movs   r3, #0
		--------------------
	(    3ce4,        4)	
		--------------------
		      3cd4:   00003ce5  .word   0x00003ce5
		      3cd8:   00003ce9  .word   0x00003ce9
		      3cdc:   00003ced  .word   0x00003ced
		      3ce0:   00003cf1  .word   0x00003cf1
		->    3ce4:   2301          movs   r3, #1
		      3ce6:   e008          b.n    3cfa <nrf52_errata_36+0x6e>
		      3ce8:   2301          movs   r3, #1
		      3cea:   e006          b.n    3cfa <nrf52_errata_36+0x6e>
		      3cec:   2301          movs   r3, #1
		--------------------
	(    3cec,        4)	
		--------------------
		      3ce4:   2301          movs   r3, #1
		      3ce6:   e008          b.n    3cfa <nrf52_errata_36+0x6e>
		      3ce8:   2301          movs   r3, #1
		      3cea:   e006          b.n    3cfa <nrf52_errata_36+0x6e>
		->    3cec:   2301          movs   r3, #1
		      3cee:   e004          b.n    3cfa <nrf52_errata_36+0x6e>
		      3cf0:   2301          movs   r3, #1
		      3cf2:   e002          b.n    3cfa <nrf52_errata_36+0x6e>
		      3cf4:   2301          movs   r3, #1
		--------------------
	(    3cf0,        4)	
		--------------------
		      3ce8:   2301          movs   r3, #1
		      3cea:   e006          b.n    3cfa <nrf52_errata_36+0x6e>
		      3cec:   2301          movs   r3, #1
		      3cee:   e004          b.n    3cfa <nrf52_errata_36+0x6e>
		->    3cf0:   2301          movs   r3, #1
		      3cf2:   e002          b.n    3cfa <nrf52_errata_36+0x6e>
		      3cf4:   2301          movs   r3, #1
		      3cf6:   e000          b.n    3cfa <nrf52_errata_36+0x6e>
		      3cf8:   2300          movs   r3, #0
		--------------------
	(    3d5c,        4)	
		--------------------
		      3d50:   00003d61  .word   0x00003d61
		      3d54:   00003d65  .word   0x00003d65
		      3d58:   2301          movs   r3, #1
		      3d5a:   e008          b.n    3d6e <nrf52_errata_37+0x56>
		->    3d5c:   2300          movs   r3, #0
		      3d5e:   e006          b.n    3d6e <nrf52_errata_37+0x56>
		      3d60:   2300          movs   r3, #0
		      3d62:   e004          b.n    3d6e <nrf52_errata_37+0x56>
		      3d64:   2300          movs   r3, #0
		--------------------
	(    3dc4,        4)	
		--------------------
		      3db4:   00003dc5  .word   0x00003dc5
		      3db8:   00003dc9  .word   0x00003dc9
		      3dbc:   00003dcd  .word   0x00003dcd
		      3dc0:   00003dd1  .word   0x00003dd1
		->    3dc4:   2301          movs   r3, #1
		      3dc6:   e008          b.n    3dda <nrf52_errata_57+0x56>
		      3dc8:   2300          movs   r3, #0
		      3dca:   e006          b.n    3dda <nrf52_errata_57+0x56>
		      3dcc:   2300          movs   r3, #0
		--------------------
	(    3e48,        4)	
		--------------------
		      3e38:   00003e49  .word   0x00003e49
		      3e3c:   00003e4d  .word   0x00003e4d
		      3e40:   00003e51  .word   0x00003e51
		      3e44:   00003e55  .word   0x00003e55
		->    3e48:   2300          movs   r3, #0
		      3e4a:   e008          b.n    3e5e <nrf52_errata_66+0x6e>
		      3e4c:   2300          movs   r3, #0
		      3e4e:   e006          b.n    3e5e <nrf52_errata_66+0x6e>
		      3e50:   2301          movs   r3, #1
		--------------------
	(    3e54,        4)	
		--------------------
		      3e4c:   2300          movs   r3, #0
		      3e4e:   e006          b.n    3e5e <nrf52_errata_66+0x6e>
		      3e50:   2301          movs   r3, #1
		      3e52:   e004          b.n    3e5e <nrf52_errata_66+0x6e>
		->    3e54:   2301          movs   r3, #1
		      3e56:   e002          b.n    3e5e <nrf52_errata_66+0x6e>
		      3e58:   2301          movs   r3, #1
		      3e5a:   e000          b.n    3e5e <nrf52_errata_66+0x6e>
		      3e5c:   2300          movs   r3, #0
		--------------------
	(    3ed8,        4)	
		--------------------
		      3ecc:   00003edd  .word   0x00003edd
		      3ed0:   00003ee1  .word   0x00003ee1
		      3ed4:   2301          movs   r3, #1
		      3ed6:   e008          b.n    3eea <nrf52_errata_108+0x6e>
		->    3ed8:   2301          movs   r3, #1
		      3eda:   e006          b.n    3eea <nrf52_errata_108+0x6e>
		      3edc:   2301          movs   r3, #1
		      3ede:   e004          b.n    3eea <nrf52_errata_108+0x6e>
		      3ee0:   2301          movs   r3, #1
		--------------------
	(    3ee0,        4)	
		--------------------
		      3ed8:   2301          movs   r3, #1
		      3eda:   e006          b.n    3eea <nrf52_errata_108+0x6e>
		      3edc:   2301          movs   r3, #1
		      3ede:   e004          b.n    3eea <nrf52_errata_108+0x6e>
		->    3ee0:   2301          movs   r3, #1
		      3ee2:   e002          b.n    3eea <nrf52_errata_108+0x6e>
		      3ee4:   2301          movs   r3, #1
		      3ee6:   e000          b.n    3eea <nrf52_errata_108+0x6e>
		      3ee8:   2300          movs   r3, #0
		--------------------
	(    3f68,        4)	
		--------------------
		      3f60:   2301          movs   r3, #1
		      3f62:   e008          b.n    3f76 <nrf52_errata_136+0x6e>
		      3f64:   2301          movs   r3, #1
		      3f66:   e006          b.n    3f76 <nrf52_errata_136+0x6e>
		->    3f68:   2301          movs   r3, #1
		      3f6a:   e004          b.n    3f76 <nrf52_errata_136+0x6e>
		      3f6c:   2301          movs   r3, #1
		      3f6e:   e002          b.n    3f76 <nrf52_errata_136+0x6e>
		      3f70:   2301          movs   r3, #1
		--------------------
	(    3fd4,        4)	
		--------------------
		      3fcc:   2300          movs   r3, #0
		      3fce:   e008          b.n    3fe2 <nrf52_errata_182+0x4e>
		      3fd0:   2300          movs   r3, #0
		      3fd2:   e006          b.n    3fe2 <nrf52_errata_182+0x4e>
		->    3fd4:   2300          movs   r3, #0
		      3fd6:   e004          b.n    3fe2 <nrf52_errata_182+0x4e>
		      3fd8:   2301          movs   r3, #1
		      3fda:   e002          b.n    3fe2 <nrf52_errata_182+0x4e>
		      3fdc:   2301          movs   r3, #1
		--------------------

saadc-o1: 0 | 0

saadc-o2: 1 | 1
	(    27c8,       12)	
		--------------------
		      27c4:   e7fe          b.n    27c4 <_exit>
		      27c6:   bf00          nop
		  
		  000027c8 <_init>:
		->    27c8:   b5f8          push   {r3, r4, r5, r6, r7, lr}
		      27ca:   bf00          nop
		      27cc:   bcf8          pop    {r3, r4, r5, r6, r7}
		      27ce:   bc08          pop    {r3}
		      27d0:   469e          mov    lr, r3
		--------------------

saadc-o3: 0 | 0

simple_timer-o0: 20 | 45
	(    1598,        4)	
		--------------------
		      1588:   00001599  .word   0x00001599
		      158c:   0000159d  .word   0x0000159d
		      1590:   000015a1  .word   0x000015a1
		      1594:   000015a5  .word   0x000015a5
		->    1598:   2301          movs   r3, #1
		      159a:   e008          b.n    15ae <nrf52_errata_12+0x6e>
		      159c:   2301          movs   r3, #1
		      159e:   e006          b.n    15ae <nrf52_errata_12+0x6e>
		      15a0:   2301          movs   r3, #1
		--------------------
	(    159c,        4)	
		--------------------
		      1590:   000015a1  .word   0x000015a1
		      1594:   000015a5  .word   0x000015a5
		      1598:   2301          movs   r3, #1
		      159a:   e008          b.n    15ae <nrf52_errata_12+0x6e>
		->    159c:   2301          movs   r3, #1
		      159e:   e006          b.n    15ae <nrf52_errata_12+0x6e>
		      15a0:   2301          movs   r3, #1
		      15a2:   e004          b.n    15ae <nrf52_errata_12+0x6e>
		      15a4:   2301          movs   r3, #1
		--------------------
	(    15a4,        4)	
		--------------------
		      159c:   2301          movs   r3, #1
		      159e:   e006          b.n    15ae <nrf52_errata_12+0x6e>
		      15a0:   2301          movs   r3, #1
		      15a2:   e004          b.n    15ae <nrf52_errata_12+0x6e>
		->    15a4:   2301          movs   r3, #1
		      15a6:   e002          b.n    15ae <nrf52_errata_12+0x6e>
		      15a8:   2301          movs   r3, #1
		      15aa:   e000          b.n    15ae <nrf52_errata_12+0x6e>
		      15ac:   2300          movs   r3, #0
		--------------------
	(    1610,        4)	
		--------------------
		      1604:   00001615  .word   0x00001615
		      1608:   00001619  .word   0x00001619
		      160c:   2301          movs   r3, #1
		      160e:   e008          b.n    1622 <nrf52_errata_16+0x56>
		->    1610:   2300          movs   r3, #0
		      1612:   e006          b.n    1622 <nrf52_errata_16+0x56>
		      1614:   2300          movs   r3, #0
		      1616:   e004          b.n    1622 <nrf52_errata_16+0x56>
		      1618:   2300          movs   r3, #0
		--------------------
	(    1694,        4)	
		--------------------
		      1688:   00001699  .word   0x00001699
		      168c:   0000169d  .word   0x0000169d
		      1690:   2301          movs   r3, #1
		      1692:   e008          b.n    16a6 <nrf52_errata_31+0x6e>
		->    1694:   2301          movs   r3, #1
		      1696:   e006          b.n    16a6 <nrf52_errata_31+0x6e>
		      1698:   2301          movs   r3, #1
		      169a:   e004          b.n    16a6 <nrf52_errata_31+0x6e>
		      169c:   2301          movs   r3, #1
		--------------------
	(    178c,        4)	
		--------------------
		      1780:   00001791  .word   0x00001791
		      1784:   00001795  .word   0x00001795
		      1788:   2301          movs   r3, #1
		      178a:   e008          b.n    179e <nrf52_errata_36+0x6e>
		->    178c:   2301          movs   r3, #1
		      178e:   e006          b.n    179e <nrf52_errata_36+0x6e>
		      1790:   2301          movs   r3, #1
		      1792:   e004          b.n    179e <nrf52_errata_36+0x6e>
		      1794:   2301          movs   r3, #1
		--------------------
	(    1790,        4)	
		--------------------
		      1788:   2301          movs   r3, #1
		      178a:   e008          b.n    179e <nrf52_errata_36+0x6e>
		      178c:   2301          movs   r3, #1
		      178e:   e006          b.n    179e <nrf52_errata_36+0x6e>
		->    1790:   2301          movs   r3, #1
		      1792:   e004          b.n    179e <nrf52_errata_36+0x6e>
		      1794:   2301          movs   r3, #1
		      1796:   e002          b.n    179e <nrf52_errata_36+0x6e>
		      1798:   2301          movs   r3, #1
		--------------------
	(    17fc,        4)	
		--------------------
		      17ec:   000017fd  .word   0x000017fd
		      17f0:   00001801  .word   0x00001801
		      17f4:   00001805  .word   0x00001805
		      17f8:   00001809  .word   0x00001809
		->    17fc:   2301          movs   r3, #1
		      17fe:   e008          b.n    1812 <nrf52_errata_37+0x56>
		      1800:   2300          movs   r3, #0
		      1802:   e006          b.n    1812 <nrf52_errata_37+0x56>
		      1804:   2300          movs   r3, #0
		--------------------
	(    1800,        4)	
		--------------------
		      17f4:   00001805  .word   0x00001805
		      17f8:   00001809  .word   0x00001809
		      17fc:   2301          movs   r3, #1
		      17fe:   e008          b.n    1812 <nrf52_errata_37+0x56>
		->    1800:   2300          movs   r3, #0
		      1802:   e006          b.n    1812 <nrf52_errata_37+0x56>
		      1804:   2300          movs   r3, #0
		      1806:   e004          b.n    1812 <nrf52_errata_37+0x56>
		      1808:   2300          movs   r3, #0
		--------------------
	(    186c,        4)	
		--------------------
		      1860:   00001871  .word   0x00001871
		      1864:   00001875  .word   0x00001875
		      1868:   2301          movs   r3, #1
		      186a:   e008          b.n    187e <nrf52_errata_57+0x56>
		->    186c:   2300          movs   r3, #0
		      186e:   e006          b.n    187e <nrf52_errata_57+0x56>
		      1870:   2300          movs   r3, #0
		      1872:   e004          b.n    187e <nrf52_errata_57+0x56>
		      1874:   2300          movs   r3, #0
		--------------------
	(    1870,        4)	
		--------------------
		      1868:   2301          movs   r3, #1
		      186a:   e008          b.n    187e <nrf52_errata_57+0x56>
		      186c:   2300          movs   r3, #0
		      186e:   e006          b.n    187e <nrf52_errata_57+0x56>
		->    1870:   2300          movs   r3, #0
		      1872:   e004          b.n    187e <nrf52_errata_57+0x56>
		      1874:   2300          movs   r3, #0
		      1876:   e002          b.n    187e <nrf52_errata_57+0x56>
		      1878:   2300          movs   r3, #0
		--------------------
	(    1874,        4)	
		--------------------
		      186c:   2300          movs   r3, #0
		      186e:   e006          b.n    187e <nrf52_errata_57+0x56>
		      1870:   2300          movs   r3, #0
		      1872:   e004          b.n    187e <nrf52_errata_57+0x56>
		->    1874:   2300          movs   r3, #0
		      1876:   e002          b.n    187e <nrf52_errata_57+0x56>
		      1878:   2300          movs   r3, #0
		      187a:   e000          b.n    187e <nrf52_errata_57+0x56>
		      187c:   2300          movs   r3, #0
		--------------------
	(    18f0,        4)	
		--------------------
		      18e4:   000018f5  .word   0x000018f5
		      18e8:   000018f9  .word   0x000018f9
		      18ec:   2300          movs   r3, #0
		      18ee:   e008          b.n    1902 <nrf52_errata_66+0x6e>
		->    18f0:   2300          movs   r3, #0
		      18f2:   e006          b.n    1902 <nrf52_errata_66+0x6e>
		      18f4:   2301          movs   r3, #1
		      18f6:   e004          b.n    1902 <nrf52_errata_66+0x6e>
		      18f8:   2301          movs   r3, #1
		--------------------
	(    18f4,        4)	
		--------------------
		      18ec:   2300          movs   r3, #0
		      18ee:   e008          b.n    1902 <nrf52_errata_66+0x6e>
		      18f0:   2300          movs   r3, #0
		      18f2:   e006          b.n    1902 <nrf52_errata_66+0x6e>
		->    18f4:   2301          movs   r3, #1
		      18f6:   e004          b.n    1902 <nrf52_errata_66+0x6e>
		      18f8:   2301          movs   r3, #1
		      18fa:   e002          b.n    1902 <nrf52_errata_66+0x6e>
		      18fc:   2301          movs   r3, #1
		--------------------
	(    18f8,        4)	
		--------------------
		      18f0:   2300          movs   r3, #0
		      18f2:   e006          b.n    1902 <nrf52_errata_66+0x6e>
		      18f4:   2301          movs   r3, #1
		      18f6:   e004          b.n    1902 <nrf52_errata_66+0x6e>
		->    18f8:   2301          movs   r3, #1
		      18fa:   e002          b.n    1902 <nrf52_errata_66+0x6e>
		      18fc:   2301          movs   r3, #1
		      18fe:   e000          b.n    1902 <nrf52_errata_66+0x6e>
		      1900:   2300          movs   r3, #0
		--------------------
	(    1978,        4)	
		--------------------
		      1968:   00001979  .word   0x00001979
		      196c:   0000197d  .word   0x0000197d
		      1970:   00001981  .word   0x00001981
		      1974:   00001985  .word   0x00001985
		->    1978:   2301          movs   r3, #1
		      197a:   e008          b.n    198e <nrf52_errata_108+0x6e>
		      197c:   2301          movs   r3, #1
		      197e:   e006          b.n    198e <nrf52_errata_108+0x6e>
		      1980:   2301          movs   r3, #1
		--------------------
	(    1a08,        4)	
		--------------------
		      19fc:   00001a0d  .word   0x00001a0d
		      1a00:   00001a11  .word   0x00001a11
		      1a04:   2301          movs   r3, #1
		      1a06:   e008          b.n    1a1a <nrf52_errata_136+0x6e>
		->    1a08:   2301          movs   r3, #1
		      1a0a:   e006          b.n    1a1a <nrf52_errata_136+0x6e>
		      1a0c:   2301          movs   r3, #1
		      1a0e:   e004          b.n    1a1a <nrf52_errata_136+0x6e>
		      1a10:   2301          movs   r3, #1
		--------------------
	(    1a70,        4)	
		--------------------
		      1a60:   00001a71  .word   0x00001a71
		      1a64:   00001a75  .word   0x00001a75
		      1a68:   00001a79  .word   0x00001a79
		      1a6c:   00001a7d  .word   0x00001a7d
		->    1a70:   2300          movs   r3, #0
		      1a72:   e008          b.n    1a86 <nrf52_errata_182+0x4e>
		      1a74:   2300          movs   r3, #0
		      1a76:   e006          b.n    1a86 <nrf52_errata_182+0x4e>
		      1a78:   2300          movs   r3, #0
		--------------------
	(    1a78,        4)	
		--------------------
		      1a70:   2300          movs   r3, #0
		      1a72:   e008          b.n    1a86 <nrf52_errata_182+0x4e>
		      1a74:   2300          movs   r3, #0
		      1a76:   e006          b.n    1a86 <nrf52_errata_182+0x4e>
		->    1a78:   2300          movs   r3, #0
		      1a7a:   e004          b.n    1a86 <nrf52_errata_182+0x4e>
		      1a7c:   2301          movs   r3, #1
		      1a7e:   e002          b.n    1a86 <nrf52_errata_182+0x4e>
		      1a80:   2301          movs   r3, #1
		--------------------
	(    1a7c,        4)	
		--------------------
		      1a74:   2300          movs   r3, #0
		      1a76:   e006          b.n    1a86 <nrf52_errata_182+0x4e>
		      1a78:   2300          movs   r3, #0
		      1a7a:   e004          b.n    1a86 <nrf52_errata_182+0x4e>
		->    1a7c:   2301          movs   r3, #1
		      1a7e:   e002          b.n    1a86 <nrf52_errata_182+0x4e>
		      1a80:   2301          movs   r3, #1
		      1a82:   e000          b.n    1a86 <nrf52_errata_182+0x4e>
		      1a84:   2300          movs   r3, #0
		--------------------

simple_timer-o1: 1 | 1
	(    1000,        4)	
		--------------------
		  00000ff4 <SIMPLE_TIMER>:
		       ff4:   9000 4000 0400 0000 0000 0000               ...@........
		  
		  00001000 <delay_machine_code.0>:
		->    1000:   3803 d8fd 4770 0000                         .8..pG..
		  
		  00001008 <__EH_FRAME_BEGIN__>:
		      1008:   0000 0000                                   ....
		  
		--------------------

simple_timer-o2: 1 | 1
	(    10d0,        4)	
		--------------------
		  000010c4 <SIMPLE_TIMER>:
		      10c4:   9000 4000 0400 0000 0000 0000               ...@........
		  
		  000010d0 <delay_machine_code.0>:
		->    10d0:   3803 d8fd 4770 0000                         .8..pG..
		  
		  000010d8 <CSWTCH.15>:
		      10d8:   0000 0101                                   ....
		  
		--------------------

simple_timer-o3: 1 | 1
	(    1370,        4)	
		--------------------
		  00001368 <SIMPLE_TIMER>:
		      1368:   9000 4000 0400 0000                         ...@....
		  
		  00001370 <delay_machine_code.0>:
		->    1370:   3803 d8fd 4770 0000                         .8..pG..
		  
		  00001378 <CSWTCH.15>:
		      1378:   0000 0101                                   ....
		  
		--------------------

spi-o0: 20 | 48
	(    53e0,        4)	
		--------------------
		      53d4:   000053e5  .word   0x000053e5
		      53d8:   000053e9  .word   0x000053e9
		      53dc:   2301          movs   r3, #1
		      53de:   e008          b.n    53f2 <nrf52_errata_12+0x6e>
		->    53e0:   2301          movs   r3, #1
		      53e2:   e006          b.n    53f2 <nrf52_errata_12+0x6e>
		      53e4:   2301          movs   r3, #1
		      53e6:   e004          b.n    53f2 <nrf52_errata_12+0x6e>
		      53e8:   2301          movs   r3, #1
		--------------------
	(    53e4,        4)	
		--------------------
		      53dc:   2301          movs   r3, #1
		      53de:   e008          b.n    53f2 <nrf52_errata_12+0x6e>
		      53e0:   2301          movs   r3, #1
		      53e2:   e006          b.n    53f2 <nrf52_errata_12+0x6e>
		->    53e4:   2301          movs   r3, #1
		      53e6:   e004          b.n    53f2 <nrf52_errata_12+0x6e>
		      53e8:   2301          movs   r3, #1
		      53ea:   e002          b.n    53f2 <nrf52_errata_12+0x6e>
		      53ec:   2301          movs   r3, #1
		--------------------
	(    5450,        4)	
		--------------------
		      5440:   00005451  .word   0x00005451
		      5444:   00005455  .word   0x00005455
		      5448:   00005459  .word   0x00005459
		      544c:   0000545d  .word   0x0000545d
		->    5450:   2301          movs   r3, #1
		      5452:   e008          b.n    5466 <nrf52_errata_16+0x56>
		      5454:   2300          movs   r3, #0
		      5456:   e006          b.n    5466 <nrf52_errata_16+0x56>
		      5458:   2300          movs   r3, #0
		--------------------
	(    54d4,        4)	
		--------------------
		      54c4:   000054d5  .word   0x000054d5
		      54c8:   000054d9  .word   0x000054d9
		      54cc:   000054dd  .word   0x000054dd
		      54d0:   000054e1  .word   0x000054e1
		->    54d4:   2301          movs   r3, #1
		      54d6:   e008          b.n    54ea <nrf52_errata_31+0x6e>
		      54d8:   2301          movs   r3, #1
		      54da:   e006          b.n    54ea <nrf52_errata_31+0x6e>
		      54dc:   2301          movs   r3, #1
		--------------------
	(    554c,        4)	
		--------------------
		      5540:   00005551  .word   0x00005551
		      5544:   00005555  .word   0x00005555
		      5548:   2301          movs   r3, #1
		      554a:   e008          b.n    555e <nrf52_errata_32+0x56>
		->    554c:   2300          movs   r3, #0
		      554e:   e006          b.n    555e <nrf52_errata_32+0x56>
		      5550:   2300          movs   r3, #0
		      5552:   e004          b.n    555e <nrf52_errata_32+0x56>
		      5554:   2300          movs   r3, #0
		--------------------
	(    55d4,        4)	
		--------------------
		      55cc:   2301          movs   r3, #1
		      55ce:   e008          b.n    55e2 <nrf52_errata_36+0x6e>
		      55d0:   2301          movs   r3, #1
		      55d2:   e006          b.n    55e2 <nrf52_errata_36+0x6e>
		->    55d4:   2301          movs   r3, #1
		      55d6:   e004          b.n    55e2 <nrf52_errata_36+0x6e>
		      55d8:   2301          movs   r3, #1
		      55da:   e002          b.n    55e2 <nrf52_errata_36+0x6e>
		      55dc:   2301          movs   r3, #1
		--------------------
	(    5648,        4)	
		--------------------
		      5640:   2301          movs   r3, #1
		      5642:   e008          b.n    5656 <nrf52_errata_37+0x56>
		      5644:   2300          movs   r3, #0
		      5646:   e006          b.n    5656 <nrf52_errata_37+0x56>
		->    5648:   2300          movs   r3, #0
		      564a:   e004          b.n    5656 <nrf52_errata_37+0x56>
		      564c:   2300          movs   r3, #0
		      564e:   e002          b.n    5656 <nrf52_errata_37+0x56>
		      5650:   2300          movs   r3, #0
		--------------------
	(    564c,        4)	
		--------------------
		      5644:   2300          movs   r3, #0
		      5646:   e006          b.n    5656 <nrf52_errata_37+0x56>
		      5648:   2300          movs   r3, #0
		      564a:   e004          b.n    5656 <nrf52_errata_37+0x56>
		->    564c:   2300          movs   r3, #0
		      564e:   e002          b.n    5656 <nrf52_errata_37+0x56>
		      5650:   2300          movs   r3, #0
		      5652:   e000          b.n    5656 <nrf52_errata_37+0x56>
		      5654:   2300          movs   r3, #0
		--------------------
	(    56b0,        4)	
		--------------------
		      56a4:   000056b5  .word   0x000056b5
		      56a8:   000056b9  .word   0x000056b9
		      56ac:   2301          movs   r3, #1
		      56ae:   e008          b.n    56c2 <nrf52_errata_57+0x56>
		->    56b0:   2300          movs   r3, #0
		      56b2:   e006          b.n    56c2 <nrf52_errata_57+0x56>
		      56b4:   2300          movs   r3, #0
		      56b6:   e004          b.n    56c2 <nrf52_errata_57+0x56>
		      56b8:   2300          movs   r3, #0
		--------------------
	(    56b8,        4)	
		--------------------
		      56b0:   2300          movs   r3, #0
		      56b2:   e006          b.n    56c2 <nrf52_errata_57+0x56>
		      56b4:   2300          movs   r3, #0
		      56b6:   e004          b.n    56c2 <nrf52_errata_57+0x56>
		->    56b8:   2300          movs   r3, #0
		      56ba:   e002          b.n    56c2 <nrf52_errata_57+0x56>
		      56bc:   2300          movs   r3, #0
		      56be:   e000          b.n    56c2 <nrf52_errata_57+0x56>
		      56c0:   2300          movs   r3, #0
		--------------------
	(    5730,        4)	
		--------------------
		      5720:   00005731  .word   0x00005731
		      5724:   00005735  .word   0x00005735
		      5728:   00005739  .word   0x00005739
		      572c:   0000573d  .word   0x0000573d
		->    5730:   2300          movs   r3, #0
		      5732:   e008          b.n    5746 <nrf52_errata_66+0x6e>
		      5734:   2300          movs   r3, #0
		      5736:   e006          b.n    5746 <nrf52_errata_66+0x6e>
		      5738:   2301          movs   r3, #1
		--------------------
	(    57c4,        4)	
		--------------------
		      57bc:   2301          movs   r3, #1
		      57be:   e008          b.n    57d2 <nrf52_errata_108+0x6e>
		      57c0:   2301          movs   r3, #1
		      57c2:   e006          b.n    57d2 <nrf52_errata_108+0x6e>
		->    57c4:   2301          movs   r3, #1
		      57c6:   e004          b.n    57d2 <nrf52_errata_108+0x6e>
		      57c8:   2301          movs   r3, #1
		      57ca:   e002          b.n    57d2 <nrf52_errata_108+0x6e>
		      57cc:   2301          movs   r3, #1
		--------------------
	(    57c8,        4)	
		--------------------
		      57c0:   2301          movs   r3, #1
		      57c2:   e006          b.n    57d2 <nrf52_errata_108+0x6e>
		      57c4:   2301          movs   r3, #1
		      57c6:   e004          b.n    57d2 <nrf52_errata_108+0x6e>
		->    57c8:   2301          movs   r3, #1
		      57ca:   e002          b.n    57d2 <nrf52_errata_108+0x6e>
		      57cc:   2301          movs   r3, #1
		      57ce:   e000          b.n    57d2 <nrf52_errata_108+0x6e>
		      57d0:   2300          movs   r3, #0
		--------------------
	(    5848,        4)	
		--------------------
		      5838:   00005849  .word   0x00005849
		      583c:   0000584d  .word   0x0000584d
		      5840:   00005851  .word   0x00005851
		      5844:   00005855  .word   0x00005855
		->    5848:   2301          movs   r3, #1
		      584a:   e008          b.n    585e <nrf52_errata_136+0x6e>
		      584c:   2301          movs   r3, #1
		      584e:   e006          b.n    585e <nrf52_errata_136+0x6e>
		      5850:   2301          movs   r3, #1
		--------------------
	(    5854,        4)	
		--------------------
		      584c:   2301          movs   r3, #1
		      584e:   e006          b.n    585e <nrf52_errata_136+0x6e>
		      5850:   2301          movs   r3, #1
		      5852:   e004          b.n    585e <nrf52_errata_136+0x6e>
		->    5854:   2301          movs   r3, #1
		      5856:   e002          b.n    585e <nrf52_errata_136+0x6e>
		      5858:   2301          movs   r3, #1
		      585a:   e000          b.n    585e <nrf52_errata_136+0x6e>
		      585c:   2300          movs   r3, #0
		--------------------
	(    58b4,        4)	
		--------------------
		      58a4:   000058b5  .word   0x000058b5
		      58a8:   000058b9  .word   0x000058b9
		      58ac:   000058bd  .word   0x000058bd
		      58b0:   000058c1  .word   0x000058c1
		->    58b4:   2300          movs   r3, #0
		      58b6:   e008          b.n    58ca <nrf52_errata_182+0x4e>
		      58b8:   2300          movs   r3, #0
		      58ba:   e006          b.n    58ca <nrf52_errata_182+0x4e>
		      58bc:   2300          movs   r3, #0
		--------------------
	(    58b8,        4)	
		--------------------
		      58ac:   000058bd  .word   0x000058bd
		      58b0:   000058c1  .word   0x000058c1
		      58b4:   2300          movs   r3, #0
		      58b6:   e008          b.n    58ca <nrf52_errata_182+0x4e>
		->    58b8:   2300          movs   r3, #0
		      58ba:   e006          b.n    58ca <nrf52_errata_182+0x4e>
		      58bc:   2300          movs   r3, #0
		      58be:   e004          b.n    58ca <nrf52_errata_182+0x4e>
		      58c0:   2301          movs   r3, #1
		--------------------
	(    58bc,        4)	
		--------------------
		      58b4:   2300          movs   r3, #0
		      58b6:   e008          b.n    58ca <nrf52_errata_182+0x4e>
		      58b8:   2300          movs   r3, #0
		      58ba:   e006          b.n    58ca <nrf52_errata_182+0x4e>
		->    58bc:   2300          movs   r3, #0
		      58be:   e004          b.n    58ca <nrf52_errata_182+0x4e>
		      58c0:   2301          movs   r3, #1
		      58c2:   e002          b.n    58ca <nrf52_errata_182+0x4e>
		      58c4:   2301          movs   r3, #1
		--------------------
	(    58c0,        4)	
		--------------------
		      58b8:   2300          movs   r3, #0
		      58ba:   e006          b.n    58ca <nrf52_errata_182+0x4e>
		      58bc:   2300          movs   r3, #0
		      58be:   e004          b.n    58ca <nrf52_errata_182+0x4e>
		->    58c0:   2301          movs   r3, #1
		      58c2:   e002          b.n    58ca <nrf52_errata_182+0x4e>
		      58c4:   2301          movs   r3, #1
		      58c6:   e000          b.n    58ca <nrf52_errata_182+0x4e>
		      58c8:   2300          movs   r3, #0
		--------------------
	(    6050,        4)	
		--------------------
		      6034:   2e646574 00000000 ffffffff 0000ff06     ted.............
		      6044:   40000000 00000000 00000000              ...@........
		  
		  00006050 <delay_machine_code.0>:
		->    6050:   d8fd3803                                 .8..pG
		  
		  00006056 <_ctype_>:
		      6056:   20202000 20202020 28282020 20282828     .         ((((( 
		      6066:   20202020 20202020 20202020 20202020                     
		--------------------

spi-o1: 0 | 0

spi-o2: 0 | 0

spi-o3: 0 | 0

timer-o0: 20 | 45
	(     dd0,        4)	
		--------------------
		       dc0:   00000dd1  .word   0x00000dd1
		       dc4:   00000dd5  .word   0x00000dd5
		       dc8:   00000dd9  .word   0x00000dd9
		       dcc:   00000ddd  .word   0x00000ddd
		->     dd0:   2301          movs   r3, #1
		       dd2:   e008          b.n    de6 <nrf52_errata_12+0x6e>
		       dd4:   2301          movs   r3, #1
		       dd6:   e006          b.n    de6 <nrf52_errata_12+0x6e>
		       dd8:   2301          movs   r3, #1
		--------------------
	(     dd8,        4)	
		--------------------
		       dd0:   2301          movs   r3, #1
		       dd2:   e008          b.n    de6 <nrf52_errata_12+0x6e>
		       dd4:   2301          movs   r3, #1
		       dd6:   e006          b.n    de6 <nrf52_errata_12+0x6e>
		->     dd8:   2301          movs   r3, #1
		       dda:   e004          b.n    de6 <nrf52_errata_12+0x6e>
		       ddc:   2301          movs   r3, #1
		       dde:   e002          b.n    de6 <nrf52_errata_12+0x6e>
		       de0:   2301          movs   r3, #1
		--------------------
	(     e44,        4)	
		--------------------
		       e34:   00000e45  .word   0x00000e45
		       e38:   00000e49  .word   0x00000e49
		       e3c:   00000e4d  .word   0x00000e4d
		       e40:   00000e51  .word   0x00000e51
		->     e44:   2301          movs   r3, #1
		       e46:   e008          b.n    e5a <nrf52_errata_16+0x56>
		       e48:   2300          movs   r3, #0
		       e4a:   e006          b.n    e5a <nrf52_errata_16+0x56>
		       e4c:   2300          movs   r3, #0
		--------------------
	(     e48,        4)	
		--------------------
		       e3c:   00000e4d  .word   0x00000e4d
		       e40:   00000e51  .word   0x00000e51
		       e44:   2301          movs   r3, #1
		       e46:   e008          b.n    e5a <nrf52_errata_16+0x56>
		->     e48:   2300          movs   r3, #0
		       e4a:   e006          b.n    e5a <nrf52_errata_16+0x56>
		       e4c:   2300          movs   r3, #0
		       e4e:   e004          b.n    e5a <nrf52_errata_16+0x56>
		       e50:   2300          movs   r3, #0
		--------------------
	(     ed4,        4)	
		--------------------
		       ecc:   2301          movs   r3, #1
		       ece:   e006          b.n    ede <nrf52_errata_31+0x6e>
		       ed0:   2301          movs   r3, #1
		       ed2:   e004          b.n    ede <nrf52_errata_31+0x6e>
		->     ed4:   2301          movs   r3, #1
		       ed6:   e002          b.n    ede <nrf52_errata_31+0x6e>
		       ed8:   2301          movs   r3, #1
		       eda:   e000          b.n    ede <nrf52_errata_31+0x6e>
		       edc:   2300          movs   r3, #0
		--------------------
	(     f3c,        4)	
		--------------------
		       f2c:   00000f3d  .word   0x00000f3d
		       f30:   00000f41  .word   0x00000f41
		       f34:   00000f45  .word   0x00000f45
		       f38:   00000f49  .word   0x00000f49
		->     f3c:   2301          movs   r3, #1
		       f3e:   e008          b.n    f52 <nrf52_errata_32+0x56>
		       f40:   2300          movs   r3, #0
		       f42:   e006          b.n    f52 <nrf52_errata_32+0x56>
		       f44:   2300          movs   r3, #0
		--------------------
	(     f40,        4)	
		--------------------
		       f34:   00000f45  .word   0x00000f45
		       f38:   00000f49  .word   0x00000f49
		       f3c:   2301          movs   r3, #1
		       f3e:   e008          b.n    f52 <nrf52_errata_32+0x56>
		->     f40:   2300          movs   r3, #0
		       f42:   e006          b.n    f52 <nrf52_errata_32+0x56>
		       f44:   2300          movs   r3, #0
		       f46:   e004          b.n    f52 <nrf52_errata_32+0x56>
		       f48:   2300          movs   r3, #0
		--------------------
	(     fc8,        4)	
		--------------------
		       fc0:   2301          movs   r3, #1
		       fc2:   e008          b.n    fd6 <nrf52_errata_36+0x6e>
		       fc4:   2301          movs   r3, #1
		       fc6:   e006          b.n    fd6 <nrf52_errata_36+0x6e>
		->     fc8:   2301          movs   r3, #1
		       fca:   e004          b.n    fd6 <nrf52_errata_36+0x6e>
		       fcc:   2301          movs   r3, #1
		       fce:   e002          b.n    fd6 <nrf52_errata_36+0x6e>
		       fd0:   2301          movs   r3, #1
		--------------------
	(     fcc,        4)	
		--------------------
		       fc4:   2301          movs   r3, #1
		       fc6:   e006          b.n    fd6 <nrf52_errata_36+0x6e>
		       fc8:   2301          movs   r3, #1
		       fca:   e004          b.n    fd6 <nrf52_errata_36+0x6e>
		->     fcc:   2301          movs   r3, #1
		       fce:   e002          b.n    fd6 <nrf52_errata_36+0x6e>
		       fd0:   2301          movs   r3, #1
		       fd2:   e000          b.n    fd6 <nrf52_errata_36+0x6e>
		       fd4:   2300          movs   r3, #0
		--------------------
	(    10a4,        4)	
		--------------------
		      1098:   000010a9  .word   0x000010a9
		      109c:   000010ad  .word   0x000010ad
		      10a0:   2301          movs   r3, #1
		      10a2:   e008          b.n    10b6 <nrf52_errata_57+0x56>
		->    10a4:   2300          movs   r3, #0
		      10a6:   e006          b.n    10b6 <nrf52_errata_57+0x56>
		      10a8:   2300          movs   r3, #0
		      10aa:   e004          b.n    10b6 <nrf52_errata_57+0x56>
		      10ac:   2300          movs   r3, #0
		--------------------
	(    112c,        4)	
		--------------------
		      1124:   2300          movs   r3, #0
		      1126:   e008          b.n    113a <nrf52_errata_66+0x6e>
		      1128:   2300          movs   r3, #0
		      112a:   e006          b.n    113a <nrf52_errata_66+0x6e>
		->    112c:   2301          movs   r3, #1
		      112e:   e004          b.n    113a <nrf52_errata_66+0x6e>
		      1130:   2301          movs   r3, #1
		      1132:   e002          b.n    113a <nrf52_errata_66+0x6e>
		      1134:   2301          movs   r3, #1
		--------------------
	(    11b0,        4)	
		--------------------
		      11a0:   000011b1  .word   0x000011b1
		      11a4:   000011b5  .word   0x000011b5
		      11a8:   000011b9  .word   0x000011b9
		      11ac:   000011bd  .word   0x000011bd
		->    11b0:   2301          movs   r3, #1
		      11b2:   e008          b.n    11c6 <nrf52_errata_108+0x6e>
		      11b4:   2301          movs   r3, #1
		      11b6:   e006          b.n    11c6 <nrf52_errata_108+0x6e>
		      11b8:   2301          movs   r3, #1
		--------------------
	(    11b4,        4)	
		--------------------
		      11a8:   000011b9  .word   0x000011b9
		      11ac:   000011bd  .word   0x000011bd
		      11b0:   2301          movs   r3, #1
		      11b2:   e008          b.n    11c6 <nrf52_errata_108+0x6e>
		->    11b4:   2301          movs   r3, #1
		      11b6:   e006          b.n    11c6 <nrf52_errata_108+0x6e>
		      11b8:   2301          movs   r3, #1
		      11ba:   e004          b.n    11c6 <nrf52_errata_108+0x6e>
		      11bc:   2301          movs   r3, #1
		--------------------
	(    1240,        4)	
		--------------------
		      1234:   00001245  .word   0x00001245
		      1238:   00001249  .word   0x00001249
		      123c:   2301          movs   r3, #1
		      123e:   e008          b.n    1252 <nrf52_errata_136+0x6e>
		->    1240:   2301          movs   r3, #1
		      1242:   e006          b.n    1252 <nrf52_errata_136+0x6e>
		      1244:   2301          movs   r3, #1
		      1246:   e004          b.n    1252 <nrf52_errata_136+0x6e>
		      1248:   2301          movs   r3, #1
		--------------------
	(    1244,        4)	
		--------------------
		      123c:   2301          movs   r3, #1
		      123e:   e008          b.n    1252 <nrf52_errata_136+0x6e>
		      1240:   2301          movs   r3, #1
		      1242:   e006          b.n    1252 <nrf52_errata_136+0x6e>
		->    1244:   2301          movs   r3, #1
		      1246:   e004          b.n    1252 <nrf52_errata_136+0x6e>
		      1248:   2301          movs   r3, #1
		      124a:   e002          b.n    1252 <nrf52_errata_136+0x6e>
		      124c:   2301          movs   r3, #1
		--------------------
	(    12a8,        4)	
		--------------------
		      1298:   000012a9  .word   0x000012a9
		      129c:   000012ad  .word   0x000012ad
		      12a0:   000012b1  .word   0x000012b1
		      12a4:   000012b5  .word   0x000012b5
		->    12a8:   2300          movs   r3, #0
		      12aa:   e008          b.n    12be <nrf52_errata_182+0x4e>
		      12ac:   2300          movs   r3, #0
		      12ae:   e006          b.n    12be <nrf52_errata_182+0x4e>
		      12b0:   2300          movs   r3, #0
		--------------------
	(    12ac,        4)	
		--------------------
		      12a0:   000012b1  .word   0x000012b1
		      12a4:   000012b5  .word   0x000012b5
		      12a8:   2300          movs   r3, #0
		      12aa:   e008          b.n    12be <nrf52_errata_182+0x4e>
		->    12ac:   2300          movs   r3, #0
		      12ae:   e006          b.n    12be <nrf52_errata_182+0x4e>
		      12b0:   2300          movs   r3, #0
		      12b2:   e004          b.n    12be <nrf52_errata_182+0x4e>
		      12b4:   2301          movs   r3, #1
		--------------------
	(    12b0,        4)	
		--------------------
		      12a8:   2300          movs   r3, #0
		      12aa:   e008          b.n    12be <nrf52_errata_182+0x4e>
		      12ac:   2300          movs   r3, #0
		      12ae:   e006          b.n    12be <nrf52_errata_182+0x4e>
		->    12b0:   2300          movs   r3, #0
		      12b2:   e004          b.n    12be <nrf52_errata_182+0x4e>
		      12b4:   2301          movs   r3, #1
		      12b6:   e002          b.n    12be <nrf52_errata_182+0x4e>
		      12b8:   2301          movs   r3, #1
		--------------------
	(    12b4,        4)	
		--------------------
		      12ac:   2300          movs   r3, #0
		      12ae:   e006          b.n    12be <nrf52_errata_182+0x4e>
		      12b0:   2300          movs   r3, #0
		      12b2:   e004          b.n    12be <nrf52_errata_182+0x4e>
		->    12b4:   2301          movs   r3, #1
		      12b6:   e002          b.n    12be <nrf52_errata_182+0x4e>
		      12b8:   2301          movs   r3, #1
		      12ba:   e000          b.n    12be <nrf52_errata_182+0x4e>
		      12bc:   2300          movs   r3, #0
		--------------------
	(    17f8,       12)	
		--------------------
		      17f4:   e7fe          b.n    17f4 <_exit>
		      17f6:   bf00          nop
		  
		  000017f8 <_init>:
		->    17f8:   b5f8          push   {r3, r4, r5, r6, r7, lr}
		      17fa:   bf00          nop
		      17fc:   bcf8          pop    {r3, r4, r5, r6, r7}
		      17fe:   bc08          pop    {r3}
		      1800:   469e          mov    lr, r3
		--------------------

timer-o1: 1 | 1
	(     bd8,       12)	
		--------------------
		   bd4:   e7fe          b.n    bd4 <_exit>
		   bd6:   bf00          nop
		  
		  00000bd8 <_init>:
		-> bd8:   b5f8          push   {r3, r4, r5, r6, r7, lr}
		   bda:   bf00          nop
		   bdc:   bcf8          pop    {r3, r4, r5, r6, r7}
		   bde:   bc08          pop    {r3}
		   be0:   469e          mov    lr, r3
		--------------------

timer-o2: 1 | 1
	(     be4,       12)	
		--------------------
		   be0:   e7fe          b.n    be0 <_exit>
		   be2:   bf00          nop
		  
		  00000be4 <_init>:
		-> be4:   b5f8          push   {r3, r4, r5, r6, r7, lr}
		   be6:   bf00          nop
		   be8:   bcf8          pop    {r3, r4, r5, r6, r7}
		   bea:   bc08          pop    {r3}
		   bec:   469e          mov    lr, r3
		--------------------

timer-o3: 1 | 1
	(     bd0,       12)	
		--------------------
		   bcc:   e7fe          b.n    bcc <_exit>
		   bce:   bf00          nop
		  
		  00000bd0 <_init>:
		-> bd0:   b5f8          push   {r3, r4, r5, r6, r7, lr}
		   bd2:   bf00          nop
		   bd4:   bcf8          pop    {r3, r4, r5, r6, r7}
		   bd6:   bc08          pop    {r3}
		   bd8:   469e          mov    lr, r3
		--------------------

twi_sensor-o0: 20 | 89
	(    2cc4,        6)	
		--------------------
		      2cba:   689b          ldr    r3, [r3, #8]
		      2cbc:   f403 2380     and.w  r3, r3, #262144  ; 0x40000
		      2cc0:   2b00          cmp    r3, #0
		      2cc2:   d007          beq.n  2cd4 <xfer_completeness_check+0x48>
		->    2cc4:   6878          ldr    r0, [r7, #4]
		      2cc6:   f7ff ff26     bl 2b16 <nrf_twim_txd_amount_get>
		      2cca:   4602          mov    r2, r0
		      2ccc:   683b          ldr    r3, [r7, #0]
		      2cce:   691b          ldr    r3, [r3, #16]
		--------------------
	(    2ce0,        6)	
		--------------------
		      2cd6:   689b          ldr    r3, [r3, #8]
		      2cd8:   f403 2380     and.w  r3, r3, #262144  ; 0x40000
		      2cdc:   2b00          cmp    r3, #0
		      2cde:   d135          bne.n  2d4c <xfer_completeness_check+0xc0>
		->    2ce0:   6878          ldr    r0, [r7, #4]
		      2ce2:   f7ff ff18     bl 2b16 <nrf_twim_txd_amount_get>
		      2ce6:   4602          mov    r2, r0
		      2ce8:   683b          ldr    r3, [r7, #0]
		      2cea:   695b          ldr    r3, [r3, #20]
		--------------------
	(    2cf0,        6)	
		--------------------
		      2ce8:   683b          ldr    r3, [r7, #0]
		      2cea:   695b          ldr    r3, [r3, #20]
		      2cec:   429a          cmp    r2, r3
		      2cee:   d02d          beq.n  2d4c <xfer_completeness_check+0xc0>
		->    2cf0:   2300          movs   r3, #0
		      2cf2:   73fb          strb   r3, [r7, #15]
		      2cf4:   e02a          b.n    2d4c <xfer_completeness_check+0xc0>
		      2cf6:   6878          ldr    r0, [r7, #4]
		      2cf8:   f7ff ff0d     bl 2b16 <nrf_twim_txd_amount_get>
		--------------------
	(    2d16,        6)	
		--------------------
		      2d0e:   683b          ldr    r3, [r7, #0]
		      2d10:   695b          ldr    r3, [r3, #20]
		      2d12:   429a          cmp    r2, r3
		      2d14:   d01c          beq.n  2d50 <xfer_completeness_check+0xc4>
		->    2d16:   2300          movs   r3, #0
		      2d18:   73fb          strb   r3, [r7, #15]
		      2d1a:   e019          b.n    2d50 <xfer_completeness_check+0xc4>
		      2d1c:   6878          ldr    r0, [r7, #4]
		      2d1e:   f7ff fefa     bl 2b16 <nrf_twim_txd_amount_get>
		--------------------
	(    2d32,        6)	
		--------------------
		      2d2a:   d013          beq.n  2d54 <xfer_completeness_check+0xc8>
		      2d2c:   2300          movs   r3, #0
		      2d2e:   73fb          strb   r3, [r7, #15]
		      2d30:   e010          b.n    2d54 <xfer_completeness_check+0xc8>
		->    2d32:   6878          ldr    r0, [r7, #4]
		      2d34:   f7ff ff09     bl 2b4a <nrf_twim_rxd_amount_get>
		      2d38:   4602          mov    r2, r0
		      2d3a:   683b          ldr    r3, [r7, #0]
		      2d3c:   691b          ldr    r3, [r3, #16]
		--------------------
	(    3034,       10)	
		--------------------
		      3024:   0000311b  .word   0x0000311b
		      3028:   00003163  .word   0x00003163
		      302c:   000030c3  .word   0x000030c3
		      3030:   00003035  .word   0x00003035
		->    3034:   687b          ldr    r3, [r7, #4]
		      3036:   691b          ldr    r3, [r3, #16]
		      3038:   4618          mov    r0, r3
		      303a:   f7ff fc29     bl 2890 <nrfx_is_in_ram>
		      303e:   4603          mov    r3, r0
		--------------------
	(    303e,       12)	
		--------------------
		      3034:   687b          ldr    r3, [r7, #4]
		      3036:   691b          ldr    r3, [r3, #16]
		      3038:   4618          mov    r0, r3
		      303a:   f7ff fc29     bl 2890 <nrfx_is_in_ram>
		->    303e:   4603          mov    r3, r0
		      3040:   f083 0301     eor.w  r3, r3, #1
		      3044:   b2db          uxtb   r3, r3
		      3046:   2b00          cmp    r3, #0
		      3048:   d003          beq.n  3052 <twim_xfer+0x136>
		--------------------
	(    309e,       10)	
		--------------------
		      3094:   f083 0301     eor.w  r3, r3, #1
		      3098:   b2db          uxtb   r3, r3
		      309a:   2b00          cmp    r3, #0
		      309c:   d1f4          bne.n  3088 <twim_xfer+0x16c>
		->    309e:   f44f 71a8     mov.w  r1, #336 ; 0x150
		      30a2:   68b8          ldr    r0, [r7, #8]
		      30a4:   f7ff fc54     bl 2950 <nrf_twim_event_clear>
		      30a8:   687b          ldr    r3, [r7, #4]
		      30aa:   6919          ldr    r1, [r3, #16]
		--------------------
	(    30b8,       10)	
		--------------------
		      30ae:   689b          ldr    r3, [r3, #8]
		      30b0:   461a          mov    r2, r3
		      30b2:   68b8          ldr    r0, [r7, #8]
		      30b4:   f7ff fcf8     bl 2aa8 <nrf_twim_tx_buffer_set>
		->    30b8:   68fb          ldr    r3, [r7, #12]
		      30ba:   f44f 2280     mov.w  r2, #262144  ; 0x40000
		      30be:   609a          str    r2, [r3, #8]
		      30c0:   e069          b.n    3196 <twim_xfer+0x27a>
		      30c2:   687b          ldr    r3, [r7, #4]
		--------------------
	(    30dc,       12)	
		--------------------
		      30d2:   687b          ldr    r3, [r7, #4]
		      30d4:   691b          ldr    r3, [r3, #16]
		      30d6:   4618          mov    r0, r3
		      30d8:   f7ff fbda     bl 2890 <nrfx_is_in_ram>
		->    30dc:   4603          mov    r3, r0
		      30de:   f083 0301     eor.w  r3, r3, #1
		      30e2:   b2db          uxtb   r3, r3
		      30e4:   2b00          cmp    r3, #0
		      30e6:   d003          beq.n  30f0 <twim_xfer+0x1d4>
		--------------------
	(    30e8,        8)	
		--------------------
		      30de:   f083 0301     eor.w  r3, r3, #1
		      30e2:   b2db          uxtb   r3, r3
		      30e4:   2b00          cmp    r3, #0
		      30e6:   d003          beq.n  30f0 <twim_xfer+0x1d4>
		->    30e8:   2310          movs   r3, #16
		      30ea:   61fb          str    r3, [r7, #28]
		      30ec:   69fb          ldr    r3, [r7, #28]
		      30ee:   e106          b.n    32fe <twim_xfer+0x3e2>
		      30f0:   687b          ldr    r3, [r7, #4]
		--------------------
	(    3100,       10)	
		--------------------
		      30f6:   689b          ldr    r3, [r3, #8]
		      30f8:   461a          mov    r2, r3
		      30fa:   68b8          ldr    r0, [r7, #8]
		      30fc:   f7ff fce8     bl 2ad0 <nrf_twim_rx_buffer_set>
		->    3100:   f44f 5184     mov.w  r1, #4224    ; 0x1080
		      3104:   68b8          ldr    r0, [r7, #8]
		      3106:   f7ff fcf7     bl 2af8 <nrf_twim_shorts_set>
		      310a:   68fb          ldr    r3, [r7, #12]
		      310c:   2202          movs   r2, #2
		--------------------
	(    3172,       10)	
		--------------------
		      3168:   685b          ldr    r3, [r3, #4]
		      316a:   461a          mov    r2, r3
		      316c:   68b8          ldr    r0, [r7, #8]
		      316e:   f7ff fcaf     bl 2ad0 <nrf_twim_rx_buffer_set>
		->    3172:   f44f 5180     mov.w  r1, #4096    ; 0x1000
		      3176:   68b8          ldr    r0, [r7, #8]
		      3178:   f7ff fcbe     bl 2af8 <nrf_twim_shorts_set>
		      317c:   68fb          ldr    r3, [r7, #12]
		      317e:   2202          movs   r2, #2
		--------------------
	(    5384,        4)	
		--------------------
		      5374:   00005385  .word   0x00005385
		      5378:   00005389  .word   0x00005389
		      537c:   0000538d  .word   0x0000538d
		      5380:   00005391  .word   0x00005391
		->    5384:   2301          movs   r3, #1
		      5386:   e008          b.n    539a <nrf52_errata_16+0x56>
		      5388:   2300          movs   r3, #0
		      538a:   e006          b.n    539a <nrf52_errata_16+0x56>
		      538c:   2300          movs   r3, #0
		--------------------
	(    5408,        4)	
		--------------------
		      53f8:   00005409  .word   0x00005409
		      53fc:   0000540d  .word   0x0000540d
		      5400:   00005411  .word   0x00005411
		      5404:   00005415  .word   0x00005415
		->    5408:   2301          movs   r3, #1
		      540a:   e008          b.n    541e <nrf52_errata_31+0x6e>
		      540c:   2301          movs   r3, #1
		      540e:   e006          b.n    541e <nrf52_errata_31+0x6e>
		      5410:   2301          movs   r3, #1
		--------------------
	(    557c,        4)	
		--------------------
		      5574:   2301          movs   r3, #1
		      5576:   e008          b.n    558a <nrf52_errata_37+0x56>
		      5578:   2300          movs   r3, #0
		      557a:   e006          b.n    558a <nrf52_errata_37+0x56>
		->    557c:   2300          movs   r3, #0
		      557e:   e004          b.n    558a <nrf52_errata_37+0x56>
		      5580:   2300          movs   r3, #0
		      5582:   e002          b.n    558a <nrf52_errata_37+0x56>
		      5584:   2300          movs   r3, #0
		--------------------
	(    55ec,        4)	
		--------------------
		      55e4:   2300          movs   r3, #0
		      55e6:   e006          b.n    55f6 <nrf52_errata_57+0x56>
		      55e8:   2300          movs   r3, #0
		      55ea:   e004          b.n    55f6 <nrf52_errata_57+0x56>
		->    55ec:   2300          movs   r3, #0
		      55ee:   e002          b.n    55f6 <nrf52_errata_57+0x56>
		      55f0:   2300          movs   r3, #0
		      55f2:   e000          b.n    55f6 <nrf52_errata_57+0x56>
		      55f4:   2300          movs   r3, #0
		--------------------
	(    56f4,        4)	
		--------------------
		      56e8:   000056f9  .word   0x000056f9
		      56ec:   000056fd  .word   0x000056fd
		      56f0:   2301          movs   r3, #1
		      56f2:   e008          b.n    5706 <nrf52_errata_108+0x6e>
		->    56f4:   2301          movs   r3, #1
		      56f6:   e006          b.n    5706 <nrf52_errata_108+0x6e>
		      56f8:   2301          movs   r3, #1
		      56fa:   e004          b.n    5706 <nrf52_errata_108+0x6e>
		      56fc:   2301          movs   r3, #1
		--------------------
	(    577c,        4)	
		--------------------
		      576c:   0000577d  .word   0x0000577d
		      5770:   00005781  .word   0x00005781
		      5774:   00005785  .word   0x00005785
		      5778:   00005789  .word   0x00005789
		->    577c:   2301          movs   r3, #1
		      577e:   e008          b.n    5792 <nrf52_errata_136+0x6e>
		      5780:   2301          movs   r3, #1
		      5782:   e006          b.n    5792 <nrf52_errata_136+0x6e>
		      5784:   2301          movs   r3, #1
		--------------------
	(    57f0,        4)	
		--------------------
		      57e8:   2300          movs   r3, #0
		      57ea:   e008          b.n    57fe <nrf52_errata_182+0x4e>
		      57ec:   2300          movs   r3, #0
		      57ee:   e006          b.n    57fe <nrf52_errata_182+0x4e>
		->    57f0:   2300          movs   r3, #0
		      57f2:   e004          b.n    57fe <nrf52_errata_182+0x4e>
		      57f4:   2301          movs   r3, #1
		      57f6:   e002          b.n    57fe <nrf52_errata_182+0x4e>
		      57f8:   2301          movs   r3, #1
		--------------------

twi_sensor-o1: 0 | 0

twi_sensor-o2: 0 | 0

twi_sensor-o3: 0 | 0

uart-o0: 20 | 85
	(    2784,        4)	
		--------------------
		      277c:   2301          movs   r3, #1
		      277e:   e008          b.n    2792 <nrf52_errata_12+0x6e>
		      2780:   2301          movs   r3, #1
		      2782:   e006          b.n    2792 <nrf52_errata_12+0x6e>
		->    2784:   2301          movs   r3, #1
		      2786:   e004          b.n    2792 <nrf52_errata_12+0x6e>
		      2788:   2301          movs   r3, #1
		      278a:   e002          b.n    2792 <nrf52_errata_12+0x6e>
		      278c:   2301          movs   r3, #1
		--------------------
	(    27f4,        4)	
		--------------------
		      27e8:   000027f9  .word   0x000027f9
		      27ec:   000027fd  .word   0x000027fd
		      27f0:   2301          movs   r3, #1
		      27f2:   e008          b.n    2806 <nrf52_errata_16+0x56>
		->    27f4:   2300          movs   r3, #0
		      27f6:   e006          b.n    2806 <nrf52_errata_16+0x56>
		      27f8:   2300          movs   r3, #0
		      27fa:   e004          b.n    2806 <nrf52_errata_16+0x56>
		      27fc:   2300          movs   r3, #0
		--------------------
	(    28f0,        4)	
		--------------------
		      28e8:   2301          movs   r3, #1
		      28ea:   e008          b.n    28fe <nrf52_errata_32+0x56>
		      28ec:   2300          movs   r3, #0
		      28ee:   e006          b.n    28fe <nrf52_errata_32+0x56>
		->    28f0:   2300          movs   r3, #0
		      28f2:   e004          b.n    28fe <nrf52_errata_32+0x56>
		      28f4:   2300          movs   r3, #0
		      28f6:   e002          b.n    28fe <nrf52_errata_32+0x56>
		      28f8:   2300          movs   r3, #0
		--------------------
	(    29e8,        4)	
		--------------------
		      29e0:   2301          movs   r3, #1
		      29e2:   e008          b.n    29f6 <nrf52_errata_37+0x56>
		      29e4:   2300          movs   r3, #0
		      29e6:   e006          b.n    29f6 <nrf52_errata_37+0x56>
		->    29e8:   2300          movs   r3, #0
		      29ea:   e004          b.n    29f6 <nrf52_errata_37+0x56>
		      29ec:   2300          movs   r3, #0
		      29ee:   e002          b.n    29f6 <nrf52_errata_37+0x56>
		      29f0:   2300          movs   r3, #0
		--------------------
	(    29ec,        4)	
		--------------------
		      29e4:   2300          movs   r3, #0
		      29e6:   e006          b.n    29f6 <nrf52_errata_37+0x56>
		      29e8:   2300          movs   r3, #0
		      29ea:   e004          b.n    29f6 <nrf52_errata_37+0x56>
		->    29ec:   2300          movs   r3, #0
		      29ee:   e002          b.n    29f6 <nrf52_errata_37+0x56>
		      29f0:   2300          movs   r3, #0
		      29f2:   e000          b.n    29f6 <nrf52_errata_37+0x56>
		      29f4:   2300          movs   r3, #0
		--------------------
	(    2a4c,        4)	
		--------------------
		      2a3c:   00002a4d  .word   0x00002a4d
		      2a40:   00002a51  .word   0x00002a51
		      2a44:   00002a55  .word   0x00002a55
		      2a48:   00002a59  .word   0x00002a59
		->    2a4c:   2301          movs   r3, #1
		      2a4e:   e008          b.n    2a62 <nrf52_errata_57+0x56>
		      2a50:   2300          movs   r3, #0
		      2a52:   e006          b.n    2a62 <nrf52_errata_57+0x56>
		      2a54:   2300          movs   r3, #0
		--------------------
	(    2a54,        4)	
		--------------------
		      2a4c:   2301          movs   r3, #1
		      2a4e:   e008          b.n    2a62 <nrf52_errata_57+0x56>
		      2a50:   2300          movs   r3, #0
		      2a52:   e006          b.n    2a62 <nrf52_errata_57+0x56>
		->    2a54:   2300          movs   r3, #0
		      2a56:   e004          b.n    2a62 <nrf52_errata_57+0x56>
		      2a58:   2300          movs   r3, #0
		      2a5a:   e002          b.n    2a62 <nrf52_errata_57+0x56>
		      2a5c:   2300          movs   r3, #0
		--------------------
	(    2ad0,        4)	
		--------------------
		      2ac0:   00002ad1  .word   0x00002ad1
		      2ac4:   00002ad5  .word   0x00002ad5
		      2ac8:   00002ad9  .word   0x00002ad9
		      2acc:   00002add  .word   0x00002add
		->    2ad0:   2300          movs   r3, #0
		      2ad2:   e008          b.n    2ae6 <nrf52_errata_66+0x6e>
		      2ad4:   2300          movs   r3, #0
		      2ad6:   e006          b.n    2ae6 <nrf52_errata_66+0x6e>
		      2ad8:   2301          movs   r3, #1
		--------------------
	(    2b60,        4)	
		--------------------
		      2b54:   00002b65  .word   0x00002b65
		      2b58:   00002b69  .word   0x00002b69
		      2b5c:   2301          movs   r3, #1
		      2b5e:   e008          b.n    2b72 <nrf52_errata_108+0x6e>
		->    2b60:   2301          movs   r3, #1
		      2b62:   e006          b.n    2b72 <nrf52_errata_108+0x6e>
		      2b64:   2301          movs   r3, #1
		      2b66:   e004          b.n    2b72 <nrf52_errata_108+0x6e>
		      2b68:   2301          movs   r3, #1
		--------------------
	(    2b68,        4)	
		--------------------
		      2b60:   2301          movs   r3, #1
		      2b62:   e006          b.n    2b72 <nrf52_errata_108+0x6e>
		      2b64:   2301          movs   r3, #1
		      2b66:   e004          b.n    2b72 <nrf52_errata_108+0x6e>
		->    2b68:   2301          movs   r3, #1
		      2b6a:   e002          b.n    2b72 <nrf52_errata_108+0x6e>
		      2b6c:   2301          movs   r3, #1
		      2b6e:   e000          b.n    2b72 <nrf52_errata_108+0x6e>
		      2b70:   2300          movs   r3, #0
		--------------------
	(    2c60,        4)	
		--------------------
		      2c58:   2300          movs   r3, #0
		      2c5a:   e006          b.n    2c6a <nrf52_errata_182+0x4e>
		      2c5c:   2300          movs   r3, #0
		      2c5e:   e004          b.n    2c6a <nrf52_errata_182+0x4e>
		->    2c60:   2301          movs   r3, #1
		      2c62:   e002          b.n    2c6a <nrf52_errata_182+0x4e>
		      2c64:   2301          movs   r3, #1
		      2c66:   e000          b.n    2c6a <nrf52_errata_182+0x4e>
		      2c68:   2300          movs   r3, #0
		--------------------
	(    345e,       10)	
		--------------------
		      3456:   6813          ldr    r3, [r2, #0]
		      3458:   b933          cbnz   r3, 3468 <_free_r+0x30>
		      345a:   6063          str    r3, [r4, #4]
		      345c:   6014          str    r4, [r2, #0]
		->    345e:   b003          add    sp, #12
		      3460:   e8bd 4030     ldmia.w    sp!, {r4, r5, lr}
		      3464:   f000 b8d0     b.w    3608 <__malloc_unlock>
		      3468:   42a3          cmp    r3, r4
		      346a:   d908          bls.n  347e <_free_r+0x46>
		--------------------
	(    346c,       18)	
		--------------------
		      3460:   e8bd 4030     ldmia.w    sp!, {r4, r5, lr}
		      3464:   f000 b8d0     b.w    3608 <__malloc_unlock>
		      3468:   42a3          cmp    r3, r4
		      346a:   d908          bls.n  347e <_free_r+0x46>
		->    346c:   6825          ldr    r5, [r4, #0]
		      346e:   1961          adds   r1, r4, r5
		      3470:   428b          cmp    r3, r1
		      3472:   bf01          itttt  eq
		      3474:   6819          ldreq  r1, [r3, #0]
		--------------------
	(    3484,        4)	
		--------------------
		      347c:   e7ed          b.n    345a <_free_r+0x22>
		      347e:   461a          mov    r2, r3
		      3480:   685b          ldr    r3, [r3, #4]
		      3482:   b10b          cbz    r3, 3488 <_free_r+0x50>
		->    3484:   42a3          cmp    r3, r4
		      3486:   d9fa          bls.n  347e <_free_r+0x46>
		      3488:   6811          ldr    r1, [r2, #0]
		      348a:   1855          adds   r5, r2, r1
		      348c:   42a5          cmp    r5, r4
		--------------------
	(    34b0,       24)	
		--------------------
		      34a8:   d902          bls.n  34b0 <_free_r+0x78>
		      34aa:   230c          movs   r3, #12
		      34ac:   6003          str    r3, [r0, #0]
		      34ae:   e7d6          b.n    345e <_free_r+0x26>
		->    34b0:   6825          ldr    r5, [r4, #0]
		      34b2:   1961          adds   r1, r4, r5
		      34b4:   428b          cmp    r3, r1
		      34b6:   bf04          itt    eq
		      34b8:   6819          ldreq  r1, [r3, #0]
		--------------------
	(    3a24,       14)	
		--------------------
		      3a18:   f104 0542     add.w  r5, r4, #66  ; 0x42
		      3a1c:   f884 3042     strb.w r3, [r4, #66]   ; 0x42
		      3a20:   2301          movs   r3, #1
		      3a22:   e09f          b.n    3b64 <_printf_i+0x1ec>
		->    3a24:   6820          ldr    r0, [r4, #0]
		      3a26:   682b          ldr    r3, [r5, #0]
		      3a28:   0607          lsls   r7, r0, #24
		      3a2a:   f103 0104     add.w  r1, r3, #4
		      3a2e:   6029          str    r1, [r5, #0]
		--------------------
	(    3a36,        4)	
		--------------------
		      3a2e:   6029          str    r1, [r5, #0]
		      3a30:   d501          bpl.n  3a36 <_printf_i+0xbe>
		      3a32:   681e          ldr    r6, [r3, #0]
		      3a34:   e003          b.n    3a3e <_printf_i+0xc6>
		->    3a36:   0646          lsls   r6, r0, #25
		      3a38:   d5fb          bpl.n  3a32 <_printf_i+0xba>
		      3a3a:   f9b3 6000     ldrsh.w    r6, [r3]
		      3a3e:   2e00          cmp    r6, #0
		      3a40:   da03          bge.n  3a4a <_printf_i+0xd2>
		--------------------
	(    3a5c,        4)	
		--------------------
		      3a54:   1d19          adds   r1, r3, #4
		      3a56:   6029          str    r1, [r5, #0]
		      3a58:   0605          lsls   r5, r0, #24
		      3a5a:   d501          bpl.n  3a60 <_printf_i+0xe8>
		->    3a5c:   681e          ldr    r6, [r3, #0]
		      3a5e:   e002          b.n    3a66 <_printf_i+0xee>
		      3a60:   0641          lsls   r1, r0, #25
		      3a62:   d5fb          bpl.n  3a5c <_printf_i+0xe4>
		      3a64:   881e          ldrh   r6, [r3, #0]
		--------------------
	(    3a66,       10)	
		--------------------
		      3a5e:   e002          b.n    3a66 <_printf_i+0xee>
		      3a60:   0641          lsls   r1, r0, #25
		      3a62:   d5fb          bpl.n  3a5c <_printf_i+0xe4>
		      3a64:   881e          ldrh   r6, [r3, #0]
		->    3a66:   4853          ldr    r0, [pc, #332] ; (3bb4 <_printf_i+0x23c>)
		      3a68:   2f6f          cmp    r7, #111   ; 0x6f
		      3a6a:   bf0c          ite    eq
		      3a6c:   2308          moveq  r3, #8
		      3a6e:   230a          movne  r3, #10
		--------------------
	(    3b62,        2)	
		--------------------
		      3b58:   f000 f98a     bl 3e70 <memchr>
		      3b5c:   b108          cbz    r0, 3b62 <_printf_i+0x1ea>
		      3b5e:   1b40          subs   r0, r0, r5
		      3b60:   6060          str    r0, [r4, #4]
		->    3b62:   6863          ldr    r3, [r4, #4]
		      3b64:   6123          str    r3, [r4, #16]
		      3b66:   2300          movs   r3, #0
		      3b68:   f884 3043     strb.w r3, [r4, #67]   ; 0x43
		      3b6c:   e7aa          b.n    3ac4 <_printf_i+0x14c>
		--------------------

uart-o1: 20 | 37
	(    1cce,        8)	
		--------------------
		      1cc2:   f1a1 0404     sub.w  r4, r1, #4
		      1cc6:   bfb8          it lt
		      1cc8:   18e4          addlt  r4, r4, r3
		      1cca:   f000 f8d5     bl 1e78 <__malloc_lock>
		->    1cce:   4a1e          ldr    r2, [pc, #120] ; (1d48 <_free_r+0x94>)
		      1cd0:   9801          ldr    r0, [sp, #4]
		      1cd2:   6813          ldr    r3, [r2, #0]
		      1cd4:   b933          cbnz   r3, 1ce4 <_free_r+0x30>
		      1cd6:   6063          str    r3, [r4, #4]
		--------------------
	(    1cd6,        4)	
		--------------------
		      1cce:   4a1e          ldr    r2, [pc, #120] ; (1d48 <_free_r+0x94>)
		      1cd0:   9801          ldr    r0, [sp, #4]
		      1cd2:   6813          ldr    r3, [r2, #0]
		      1cd4:   b933          cbnz   r3, 1ce4 <_free_r+0x30>
		->    1cd6:   6063          str    r3, [r4, #4]
		      1cd8:   6014          str    r4, [r2, #0]
		      1cda:   b003          add    sp, #12
		      1cdc:   e8bd 4030     ldmia.w    sp!, {r4, r5, lr}
		      1ce0:   f000 b8d0     b.w    1e84 <__malloc_unlock>
		--------------------
	(    1cda,       10)	
		--------------------
		      1cd2:   6813          ldr    r3, [r2, #0]
		      1cd4:   b933          cbnz   r3, 1ce4 <_free_r+0x30>
		      1cd6:   6063          str    r3, [r4, #4]
		      1cd8:   6014          str    r4, [r2, #0]
		->    1cda:   b003          add    sp, #12
		      1cdc:   e8bd 4030     ldmia.w    sp!, {r4, r5, lr}
		      1ce0:   f000 b8d0     b.w    1e84 <__malloc_unlock>
		      1ce4:   42a3          cmp    r3, r4
		      1ce6:   d908          bls.n  1cfa <_free_r+0x46>
		--------------------
	(    1ce8,       18)	
		--------------------
		      1cdc:   e8bd 4030     ldmia.w    sp!, {r4, r5, lr}
		      1ce0:   f000 b8d0     b.w    1e84 <__malloc_unlock>
		      1ce4:   42a3          cmp    r3, r4
		      1ce6:   d908          bls.n  1cfa <_free_r+0x46>
		->    1ce8:   6825          ldr    r5, [r4, #0]
		      1cea:   1961          adds   r1, r4, r5
		      1cec:   428b          cmp    r3, r1
		      1cee:   bf01          itttt  eq
		      1cf0:   6819          ldreq  r1, [r3, #0]
		--------------------
	(    1cfa,        6)	
		--------------------
		      1cf2:   685b          ldreq  r3, [r3, #4]
		      1cf4:   1949          addeq  r1, r1, r5
		      1cf6:   6021          streq  r1, [r4, #0]
		      1cf8:   e7ed          b.n    1cd6 <_free_r+0x22>
		->    1cfa:   461a          mov    r2, r3
		      1cfc:   685b          ldr    r3, [r3, #4]
		      1cfe:   b10b          cbz    r3, 1d04 <_free_r+0x50>
		      1d00:   42a3          cmp    r3, r4
		      1d02:   d9fa          bls.n  1cfa <_free_r+0x46>
		--------------------
	(    1d00,        4)	
		--------------------
		      1cf8:   e7ed          b.n    1cd6 <_free_r+0x22>
		      1cfa:   461a          mov    r2, r3
		      1cfc:   685b          ldr    r3, [r3, #4]
		      1cfe:   b10b          cbz    r3, 1d04 <_free_r+0x50>
		->    1d00:   42a3          cmp    r3, r4
		      1d02:   d9fa          bls.n  1cfa <_free_r+0x46>
		      1d04:   6811          ldr    r1, [r2, #0]
		      1d06:   1855          adds   r5, r2, r1
		      1d08:   42a5          cmp    r5, r4
		--------------------
	(    1d18,       12)	
		--------------------
		      1d10:   1854          adds   r4, r2, r1
		      1d12:   42a3          cmp    r3, r4
		      1d14:   6011          str    r1, [r2, #0]
		      1d16:   d1e0          bne.n  1cda <_free_r+0x26>
		->    1d18:   681c          ldr    r4, [r3, #0]
		      1d1a:   685b          ldr    r3, [r3, #4]
		      1d1c:   6053          str    r3, [r2, #4]
		      1d1e:   440c          add    r4, r1
		      1d20:   6014          str    r4, [r2, #0]
		--------------------
	(    1d24,        2)	
		--------------------
		      1d1c:   6053          str    r3, [r2, #4]
		      1d1e:   440c          add    r4, r1
		      1d20:   6014          str    r4, [r2, #0]
		      1d22:   e7da          b.n    1cda <_free_r+0x26>
		->    1d24:   d902          bls.n  1d2c <_free_r+0x78>
		      1d26:   230c          movs   r3, #12
		      1d28:   6003          str    r3, [r0, #0]
		      1d2a:   e7d6          b.n    1cda <_free_r+0x26>
		      1d2c:   6825          ldr    r5, [r4, #0]
		--------------------
	(    1d26,        6)	
		--------------------
		      1d1e:   440c          add    r4, r1
		      1d20:   6014          str    r4, [r2, #0]
		      1d22:   e7da          b.n    1cda <_free_r+0x26>
		      1d24:   d902          bls.n  1d2c <_free_r+0x78>
		->    1d26:   230c          movs   r3, #12
		      1d28:   6003          str    r3, [r0, #0]
		      1d2a:   e7d6          b.n    1cda <_free_r+0x26>
		      1d2c:   6825          ldr    r5, [r4, #0]
		      1d2e:   1961          adds   r1, r4, r5
		--------------------
	(    1d2c,       24)	
		--------------------
		      1d24:   d902          bls.n  1d2c <_free_r+0x78>
		      1d26:   230c          movs   r3, #12
		      1d28:   6003          str    r3, [r0, #0]
		      1d2a:   e7d6          b.n    1cda <_free_r+0x26>
		->    1d2c:   6825          ldr    r5, [r4, #0]
		      1d2e:   1961          adds   r1, r4, r5
		      1d30:   428b          cmp    r3, r1
		      1d32:   bf04          itt    eq
		      1d34:   6819          ldreq  r1, [r3, #0]
		--------------------
	(    22ae,        4)	
		--------------------
		      22a4:   0607          lsls   r7, r0, #24
		      22a6:   f103 0104     add.w  r1, r3, #4
		      22aa:   6029          str    r1, [r5, #0]
		      22ac:   d501          bpl.n  22b2 <_printf_i+0xbe>
		->    22ae:   681e          ldr    r6, [r3, #0]
		      22b0:   e003          b.n    22ba <_printf_i+0xc6>
		      22b2:   0646          lsls   r6, r0, #25
		      22b4:   d5fb          bpl.n  22ae <_printf_i+0xba>
		      22b6:   f9b3 6000     ldrsh.w    r6, [r3]
		--------------------
	(    22b2,        4)	
		--------------------
		      22aa:   6029          str    r1, [r5, #0]
		      22ac:   d501          bpl.n  22b2 <_printf_i+0xbe>
		      22ae:   681e          ldr    r6, [r3, #0]
		      22b0:   e003          b.n    22ba <_printf_i+0xc6>
		->    22b2:   0646          lsls   r6, r0, #25
		      22b4:   d5fb          bpl.n  22ae <_printf_i+0xba>
		      22b6:   f9b3 6000     ldrsh.w    r6, [r3]
		      22ba:   2e00          cmp    r6, #0
		      22bc:   da03          bge.n  22c6 <_printf_i+0xd2>
		--------------------
	(    22ba,        4)	
		--------------------
		      22b0:   e003          b.n    22ba <_printf_i+0xc6>
		      22b2:   0646          lsls   r6, r0, #25
		      22b4:   d5fb          bpl.n  22ae <_printf_i+0xba>
		      22b6:   f9b3 6000     ldrsh.w    r6, [r3]
		->    22ba:   2e00          cmp    r6, #0
		      22bc:   da03          bge.n  22c6 <_printf_i+0xd2>
		      22be:   232d          movs   r3, #45   ; 0x2d
		      22c0:   4276          negs   r6, r6
		      22c2:   f884 3043     strb.w r3, [r4, #67]   ; 0x43
		--------------------
	(    22d8,        4)	
		--------------------
		      22d0:   1d19          adds   r1, r3, #4
		      22d2:   6029          str    r1, [r5, #0]
		      22d4:   0605          lsls   r5, r0, #24
		      22d6:   d501          bpl.n  22dc <_printf_i+0xe8>
		->    22d8:   681e          ldr    r6, [r3, #0]
		      22da:   e002          b.n    22e2 <_printf_i+0xee>
		      22dc:   0641          lsls   r1, r0, #25
		      22de:   d5fb          bpl.n  22d8 <_printf_i+0xe4>
		      22e0:   881e          ldrh   r6, [r3, #0]
		--------------------
	(    235e,        8)	
		--------------------
		      2352:   d14a          bne.n  23ea <_printf_i+0x1f6>
		      2354:   f04f 30ff     mov.w  r0, #4294967295  ; 0xffffffff
		      2358:   b004          add    sp, #16
		      235a:   e8bd 87f0     ldmia.w    sp!, {r4, r5, r6, r7, r8, r9, sl, pc}
		->    235e:   6823          ldr    r3, [r4, #0]
		      2360:   f043 0320     orr.w  r3, r3, #32
		      2364:   6023          str    r3, [r4, #0]
		      2366:   4833          ldr    r0, [pc, #204] ; (2434 <_printf_i+0x240>)
		      2368:   2778          movs   r7, #120  ; 0x78
		--------------------
	(    23a4,       16)	
		--------------------
		      239c:   4824          ldr    r0, [pc, #144] ; (2430 <_printf_i+0x23c>)
		      239e:   e7e4          b.n    236a <_printf_i+0x176>
		      23a0:   4615          mov    r5, r2
		      23a2:   e7bd          b.n    2320 <_printf_i+0x12c>
		->    23a4:   682b          ldr    r3, [r5, #0]
		      23a6:   6826          ldr    r6, [r4, #0]
		      23a8:   6961          ldr    r1, [r4, #20]
		      23aa:   1d18          adds   r0, r3, #4
		      23ac:   6028          str    r0, [r5, #0]
		--------------------
	(    23b4,        4)	
		--------------------
		      23ac:   6028          str    r0, [r5, #0]
		      23ae:   0635          lsls   r5, r6, #24
		      23b0:   681b          ldr    r3, [r3, #0]
		      23b2:   d501          bpl.n  23b8 <_printf_i+0x1c4>
		->    23b4:   6019          str    r1, [r3, #0]
		      23b6:   e002          b.n    23be <_printf_i+0x1ca>
		      23b8:   0670          lsls   r0, r6, #25
		      23ba:   d5fb          bpl.n  23b4 <_printf_i+0x1c0>
		      23bc:   8019          strh   r1, [r3, #0]
		--------------------
	(    23d8,        2)	
		--------------------
		      23ce:   6862          ldr    r2, [r4, #4]
		      23d0:   2100          movs   r1, #0
		      23d2:   4628          mov    r0, r5
		      23d4:   f000 f984     bl 26e0 <memchr>
		->    23d8:   b108          cbz    r0, 23de <_printf_i+0x1ea>
		      23da:   1b40          subs   r0, r0, r5
		      23dc:   6060          str    r0, [r4, #4]
		      23de:   6863          ldr    r3, [r4, #4]
		      23e0:   6123          str    r3, [r4, #16]
		--------------------
	(    23da,        4)	
		--------------------
		      23d0:   2100          movs   r1, #0
		      23d2:   4628          mov    r0, r5
		      23d4:   f000 f984     bl 26e0 <memchr>
		      23d8:   b108          cbz    r0, 23de <_printf_i+0x1ea>
		->    23da:   1b40          subs   r0, r0, r5
		      23dc:   6060          str    r0, [r4, #4]
		      23de:   6863          ldr    r3, [r4, #4]
		      23e0:   6123          str    r3, [r4, #16]
		      23e2:   2300          movs   r3, #0
		--------------------
	(    23de,        2)	
		--------------------
		      23d4:   f000 f984     bl 26e0 <memchr>
		      23d8:   b108          cbz    r0, 23de <_printf_i+0x1ea>
		      23da:   1b40          subs   r0, r0, r5
		      23dc:   6060          str    r0, [r4, #4]
		->    23de:   6863          ldr    r3, [r4, #4]
		      23e0:   6123          str    r3, [r4, #16]
		      23e2:   2300          movs   r3, #0
		      23e4:   f884 3043     strb.w r3, [r4, #67]   ; 0x43
		      23e8:   e7aa          b.n    2340 <_printf_i+0x14c>
		--------------------

uart-o2: 20 | 37
	(    1c62,        8)	
		--------------------
		      1c56:   f1a1 0404     sub.w  r4, r1, #4
		      1c5a:   bfb8          it lt
		      1c5c:   18e4          addlt  r4, r4, r3
		      1c5e:   f000 f8d5     bl 1e0c <__malloc_lock>
		->    1c62:   4a1e          ldr    r2, [pc, #120] ; (1cdc <_free_r+0x94>)
		      1c64:   9801          ldr    r0, [sp, #4]
		      1c66:   6813          ldr    r3, [r2, #0]
		      1c68:   b933          cbnz   r3, 1c78 <_free_r+0x30>
		      1c6a:   6063          str    r3, [r4, #4]
		--------------------
	(    1c78,        4)	
		--------------------
		      1c6c:   6014          str    r4, [r2, #0]
		      1c6e:   b003          add    sp, #12
		      1c70:   e8bd 4030     ldmia.w    sp!, {r4, r5, lr}
		      1c74:   f000 b8d0     b.w    1e18 <__malloc_unlock>
		->    1c78:   42a3          cmp    r3, r4
		      1c7a:   d908          bls.n  1c8e <_free_r+0x46>
		      1c7c:   6825          ldr    r5, [r4, #0]
		      1c7e:   1961          adds   r1, r4, r5
		      1c80:   428b          cmp    r3, r1
		--------------------
	(    1c7c,       18)	
		--------------------
		      1c70:   e8bd 4030     ldmia.w    sp!, {r4, r5, lr}
		      1c74:   f000 b8d0     b.w    1e18 <__malloc_unlock>
		      1c78:   42a3          cmp    r3, r4
		      1c7a:   d908          bls.n  1c8e <_free_r+0x46>
		->    1c7c:   6825          ldr    r5, [r4, #0]
		      1c7e:   1961          adds   r1, r4, r5
		      1c80:   428b          cmp    r3, r1
		      1c82:   bf01          itttt  eq
		      1c84:   6819          ldreq  r1, [r3, #0]
		--------------------
	(    1c8e,        6)	
		--------------------
		      1c86:   685b          ldreq  r3, [r3, #4]
		      1c88:   1949          addeq  r1, r1, r5
		      1c8a:   6021          streq  r1, [r4, #0]
		      1c8c:   e7ed          b.n    1c6a <_free_r+0x22>
		->    1c8e:   461a          mov    r2, r3
		      1c90:   685b          ldr    r3, [r3, #4]
		      1c92:   b10b          cbz    r3, 1c98 <_free_r+0x50>
		      1c94:   42a3          cmp    r3, r4
		      1c96:   d9fa          bls.n  1c8e <_free_r+0x46>
		--------------------
	(    1c94,        4)	
		--------------------
		      1c8c:   e7ed          b.n    1c6a <_free_r+0x22>
		      1c8e:   461a          mov    r2, r3
		      1c90:   685b          ldr    r3, [r3, #4]
		      1c92:   b10b          cbz    r3, 1c98 <_free_r+0x50>
		->    1c94:   42a3          cmp    r3, r4
		      1c96:   d9fa          bls.n  1c8e <_free_r+0x46>
		      1c98:   6811          ldr    r1, [r2, #0]
		      1c9a:   1855          adds   r5, r2, r1
		      1c9c:   42a5          cmp    r5, r4
		--------------------
	(    1c98,        8)	
		--------------------
		      1c90:   685b          ldr    r3, [r3, #4]
		      1c92:   b10b          cbz    r3, 1c98 <_free_r+0x50>
		      1c94:   42a3          cmp    r3, r4
		      1c96:   d9fa          bls.n  1c8e <_free_r+0x46>
		->    1c98:   6811          ldr    r1, [r2, #0]
		      1c9a:   1855          adds   r5, r2, r1
		      1c9c:   42a5          cmp    r5, r4
		      1c9e:   d10b          bne.n  1cb8 <_free_r+0x70>
		      1ca0:   6824          ldr    r4, [r4, #0]
		--------------------
	(    1cac,       12)	
		--------------------
		      1ca4:   1854          adds   r4, r2, r1
		      1ca6:   42a3          cmp    r3, r4
		      1ca8:   6011          str    r1, [r2, #0]
		      1caa:   d1e0          bne.n  1c6e <_free_r+0x26>
		->    1cac:   681c          ldr    r4, [r3, #0]
		      1cae:   685b          ldr    r3, [r3, #4]
		      1cb0:   6053          str    r3, [r2, #4]
		      1cb2:   440c          add    r4, r1
		      1cb4:   6014          str    r4, [r2, #0]
		--------------------
	(    1cb8,        2)	
		--------------------
		      1cb0:   6053          str    r3, [r2, #4]
		      1cb2:   440c          add    r4, r1
		      1cb4:   6014          str    r4, [r2, #0]
		      1cb6:   e7da          b.n    1c6e <_free_r+0x26>
		->    1cb8:   d902          bls.n  1cc0 <_free_r+0x78>
		      1cba:   230c          movs   r3, #12
		      1cbc:   6003          str    r3, [r0, #0]
		      1cbe:   e7d6          b.n    1c6e <_free_r+0x26>
		      1cc0:   6825          ldr    r5, [r4, #0]
		--------------------
	(    1cba,        6)	
		--------------------
		      1cb2:   440c          add    r4, r1
		      1cb4:   6014          str    r4, [r2, #0]
		      1cb6:   e7da          b.n    1c6e <_free_r+0x26>
		      1cb8:   d902          bls.n  1cc0 <_free_r+0x78>
		->    1cba:   230c          movs   r3, #12
		      1cbc:   6003          str    r3, [r0, #0]
		      1cbe:   e7d6          b.n    1c6e <_free_r+0x26>
		      1cc0:   6825          ldr    r5, [r4, #0]
		      1cc2:   1961          adds   r1, r4, r5
		--------------------
	(    224a,        4)	
		--------------------
		      2242:   681e          ldr    r6, [r3, #0]
		      2244:   e003          b.n    224e <_printf_i+0xc6>
		      2246:   0646          lsls   r6, r0, #25
		      2248:   d5fb          bpl.n  2242 <_printf_i+0xba>
		->    224a:   f9b3 6000     ldrsh.w    r6, [r3]
		      224e:   2e00          cmp    r6, #0
		      2250:   da03          bge.n  225a <_printf_i+0xd2>
		      2252:   232d          movs   r3, #45   ; 0x2d
		      2254:   4276          negs   r6, r6
		--------------------
	(    2252,        8)	
		--------------------
		      2248:   d5fb          bpl.n  2242 <_printf_i+0xba>
		      224a:   f9b3 6000     ldrsh.w    r6, [r3]
		      224e:   2e00          cmp    r6, #0
		      2250:   da03          bge.n  225a <_printf_i+0xd2>
		->    2252:   232d          movs   r3, #45   ; 0x2d
		      2254:   4276          negs   r6, r6
		      2256:   f884 3043     strb.w r3, [r4, #67]   ; 0x43
		      225a:   485a          ldr    r0, [pc, #360] ; (23c4 <_printf_i+0x23c>)
		      225c:   230a          movs   r3, #10
		--------------------
	(    226c,        4)	
		--------------------
		      2264:   1d19          adds   r1, r3, #4
		      2266:   6029          str    r1, [r5, #0]
		      2268:   0605          lsls   r5, r0, #24
		      226a:   d501          bpl.n  2270 <_printf_i+0xe8>
		->    226c:   681e          ldr    r6, [r3, #0]
		      226e:   e002          b.n    2276 <_printf_i+0xee>
		      2270:   0641          lsls   r1, r0, #25
		      2272:   d5fb          bpl.n  226c <_printf_i+0xe4>
		      2274:   881e          ldrh   r6, [r3, #0]
		--------------------
	(    2270,        4)	
		--------------------
		      2268:   0605          lsls   r5, r0, #24
		      226a:   d501          bpl.n  2270 <_printf_i+0xe8>
		      226c:   681e          ldr    r6, [r3, #0]
		      226e:   e002          b.n    2276 <_printf_i+0xee>
		->    2270:   0641          lsls   r1, r0, #25
		      2272:   d5fb          bpl.n  226c <_printf_i+0xe4>
		      2274:   881e          ldrh   r6, [r3, #0]
		      2276:   4853          ldr    r0, [pc, #332] ; (23c4 <_printf_i+0x23c>)
		      2278:   2f6f          cmp    r7, #111   ; 0x6f
		--------------------
	(    2274,        2)	
		--------------------
		      226c:   681e          ldr    r6, [r3, #0]
		      226e:   e002          b.n    2276 <_printf_i+0xee>
		      2270:   0641          lsls   r1, r0, #25
		      2272:   d5fb          bpl.n  226c <_printf_i+0xe4>
		->    2274:   881e          ldrh   r6, [r3, #0]
		      2276:   4853          ldr    r0, [pc, #332] ; (23c4 <_printf_i+0x23c>)
		      2278:   2f6f          cmp    r7, #111   ; 0x6f
		      227a:   bf0c          ite    eq
		      227c:   2308          moveq  r3, #8
		--------------------
	(    22f2,        8)	
		--------------------
		      22e6:   d14a          bne.n  237e <_printf_i+0x1f6>
		      22e8:   f04f 30ff     mov.w  r0, #4294967295  ; 0xffffffff
		      22ec:   b004          add    sp, #16
		      22ee:   e8bd 87f0     ldmia.w    sp!, {r4, r5, r6, r7, r8, r9, sl, pc}
		->    22f2:   6823          ldr    r3, [r4, #0]
		      22f4:   f043 0320     orr.w  r3, r3, #32
		      22f8:   6023          str    r3, [r4, #0]
		      22fa:   4833          ldr    r0, [pc, #204] ; (23c8 <_printf_i+0x240>)
		      22fc:   2778          movs   r7, #120  ; 0x78
		--------------------
	(    2348,        4)	
		--------------------
		      2340:   6028          str    r0, [r5, #0]
		      2342:   0635          lsls   r5, r6, #24
		      2344:   681b          ldr    r3, [r3, #0]
		      2346:   d501          bpl.n  234c <_printf_i+0x1c4>
		->    2348:   6019          str    r1, [r3, #0]
		      234a:   e002          b.n    2352 <_printf_i+0x1ca>
		      234c:   0670          lsls   r0, r6, #25
		      234e:   d5fb          bpl.n  2348 <_printf_i+0x1c0>
		      2350:   8019          strh   r1, [r3, #0]
		--------------------
	(    2350,        2)	
		--------------------
		      2348:   6019          str    r1, [r3, #0]
		      234a:   e002          b.n    2352 <_printf_i+0x1ca>
		      234c:   0670          lsls   r0, r6, #25
		      234e:   d5fb          bpl.n  2348 <_printf_i+0x1c0>
		->    2350:   8019          strh   r1, [r3, #0]
		      2352:   2300          movs   r3, #0
		      2354:   6123          str    r3, [r4, #16]
		      2356:   4615          mov    r5, r2
		      2358:   e7bc          b.n    22d4 <_printf_i+0x14c>
		--------------------
	(    235a,       18)	
		--------------------
		      2352:   2300          movs   r3, #0
		      2354:   6123          str    r3, [r4, #16]
		      2356:   4615          mov    r5, r2
		      2358:   e7bc          b.n    22d4 <_printf_i+0x14c>
		->    235a:   682b          ldr    r3, [r5, #0]
		      235c:   1d1a          adds   r2, r3, #4
		      235e:   602a          str    r2, [r5, #0]
		      2360:   681d          ldr    r5, [r3, #0]
		      2362:   6862          ldr    r2, [r4, #4]
		--------------------
	(    236e,        4)	
		--------------------
		      2364:   2100          movs   r1, #0
		      2366:   4628          mov    r0, r5
		      2368:   f000 f98a     bl 2680 <memchr>
		      236c:   b108          cbz    r0, 2372 <_printf_i+0x1ea>
		->    236e:   1b40          subs   r0, r0, r5
		      2370:   6060          str    r0, [r4, #4]
		      2372:   6863          ldr    r3, [r4, #4]
		      2374:   6123          str    r3, [r4, #16]
		      2376:   2300          movs   r3, #0
		--------------------
	(    2888,       12)	
		--------------------
		      2884:   e7fe          b.n    2884 <_exit>
		      2886:   bf00          nop
		  
		  00002888 <_init>:
		->    2888:   b5f8          push   {r3, r4, r5, r6, r7, lr}
		      288a:   bf00          nop
		      288c:   bcf8          pop    {r3, r4, r5, r6, r7}
		      288e:   bc08          pop    {r3}
		      2890:   469e          mov    lr, r3
		--------------------

uart-o3: 20 | 37
	(    1c6a,        8)	
		--------------------
		      1c5e:   f1a1 0404     sub.w  r4, r1, #4
		      1c62:   bfb8          it lt
		      1c64:   18e4          addlt  r4, r4, r3
		      1c66:   f000 f8d5     bl 1e14 <__malloc_lock>
		->    1c6a:   4a1e          ldr    r2, [pc, #120] ; (1ce4 <_free_r+0x94>)
		      1c6c:   9801          ldr    r0, [sp, #4]
		      1c6e:   6813          ldr    r3, [r2, #0]
		      1c70:   b933          cbnz   r3, 1c80 <_free_r+0x30>
		      1c72:   6063          str    r3, [r4, #4]
		--------------------
	(    1c72,        4)	
		--------------------
		      1c6a:   4a1e          ldr    r2, [pc, #120] ; (1ce4 <_free_r+0x94>)
		      1c6c:   9801          ldr    r0, [sp, #4]
		      1c6e:   6813          ldr    r3, [r2, #0]
		      1c70:   b933          cbnz   r3, 1c80 <_free_r+0x30>
		->    1c72:   6063          str    r3, [r4, #4]
		      1c74:   6014          str    r4, [r2, #0]
		      1c76:   b003          add    sp, #12
		      1c78:   e8bd 4030     ldmia.w    sp!, {r4, r5, lr}
		      1c7c:   f000 b8d0     b.w    1e20 <__malloc_unlock>
		--------------------
	(    1c80,        4)	
		--------------------
		      1c74:   6014          str    r4, [r2, #0]
		      1c76:   b003          add    sp, #12
		      1c78:   e8bd 4030     ldmia.w    sp!, {r4, r5, lr}
		      1c7c:   f000 b8d0     b.w    1e20 <__malloc_unlock>
		->    1c80:   42a3          cmp    r3, r4
		      1c82:   d908          bls.n  1c96 <_free_r+0x46>
		      1c84:   6825          ldr    r5, [r4, #0]
		      1c86:   1961          adds   r1, r4, r5
		      1c88:   428b          cmp    r3, r1
		--------------------
	(    1c84,       18)	
		--------------------
		      1c78:   e8bd 4030     ldmia.w    sp!, {r4, r5, lr}
		      1c7c:   f000 b8d0     b.w    1e20 <__malloc_unlock>
		      1c80:   42a3          cmp    r3, r4
		      1c82:   d908          bls.n  1c96 <_free_r+0x46>
		->    1c84:   6825          ldr    r5, [r4, #0]
		      1c86:   1961          adds   r1, r4, r5
		      1c88:   428b          cmp    r3, r1
		      1c8a:   bf01          itttt  eq
		      1c8c:   6819          ldreq  r1, [r3, #0]
		--------------------
	(    1c96,        6)	
		--------------------
		      1c8e:   685b          ldreq  r3, [r3, #4]
		      1c90:   1949          addeq  r1, r1, r5
		      1c92:   6021          streq  r1, [r4, #0]
		      1c94:   e7ed          b.n    1c72 <_free_r+0x22>
		->    1c96:   461a          mov    r2, r3
		      1c98:   685b          ldr    r3, [r3, #4]
		      1c9a:   b10b          cbz    r3, 1ca0 <_free_r+0x50>
		      1c9c:   42a3          cmp    r3, r4
		      1c9e:   d9fa          bls.n  1c96 <_free_r+0x46>
		--------------------
	(    1ca0,        8)	
		--------------------
		      1c98:   685b          ldr    r3, [r3, #4]
		      1c9a:   b10b          cbz    r3, 1ca0 <_free_r+0x50>
		      1c9c:   42a3          cmp    r3, r4
		      1c9e:   d9fa          bls.n  1c96 <_free_r+0x46>
		->    1ca0:   6811          ldr    r1, [r2, #0]
		      1ca2:   1855          adds   r5, r2, r1
		      1ca4:   42a5          cmp    r5, r4
		      1ca6:   d10b          bne.n  1cc0 <_free_r+0x70>
		      1ca8:   6824          ldr    r4, [r4, #0]
		--------------------
	(    1cb4,       12)	
		--------------------
		      1cac:   1854          adds   r4, r2, r1
		      1cae:   42a3          cmp    r3, r4
		      1cb0:   6011          str    r1, [r2, #0]
		      1cb2:   d1e0          bne.n  1c76 <_free_r+0x26>
		->    1cb4:   681c          ldr    r4, [r3, #0]
		      1cb6:   685b          ldr    r3, [r3, #4]
		      1cb8:   6053          str    r3, [r2, #4]
		      1cba:   440c          add    r4, r1
		      1cbc:   6014          str    r4, [r2, #0]
		--------------------
	(    1cc0,        2)	
		--------------------
		      1cb8:   6053          str    r3, [r2, #4]
		      1cba:   440c          add    r4, r1
		      1cbc:   6014          str    r4, [r2, #0]
		      1cbe:   e7da          b.n    1c76 <_free_r+0x26>
		->    1cc0:   d902          bls.n  1cc8 <_free_r+0x78>
		      1cc2:   230c          movs   r3, #12
		      1cc4:   6003          str    r3, [r0, #0]
		      1cc6:   e7d6          b.n    1c76 <_free_r+0x26>
		      1cc8:   6825          ldr    r5, [r4, #0]
		--------------------
	(    1cc2,        6)	
		--------------------
		      1cba:   440c          add    r4, r1
		      1cbc:   6014          str    r4, [r2, #0]
		      1cbe:   e7da          b.n    1c76 <_free_r+0x26>
		      1cc0:   d902          bls.n  1cc8 <_free_r+0x78>
		->    1cc2:   230c          movs   r3, #12
		      1cc4:   6003          str    r3, [r0, #0]
		      1cc6:   e7d6          b.n    1c76 <_free_r+0x26>
		      1cc8:   6825          ldr    r5, [r4, #0]
		      1cca:   1961          adds   r1, r4, r5
		--------------------
	(    224e,        4)	
		--------------------
		      2246:   6029          str    r1, [r5, #0]
		      2248:   d501          bpl.n  224e <_printf_i+0xbe>
		      224a:   681e          ldr    r6, [r3, #0]
		      224c:   e003          b.n    2256 <_printf_i+0xc6>
		->    224e:   0646          lsls   r6, r0, #25
		      2250:   d5fb          bpl.n  224a <_printf_i+0xba>
		      2252:   f9b3 6000     ldrsh.w    r6, [r3]
		      2256:   2e00          cmp    r6, #0
		      2258:   da03          bge.n  2262 <_printf_i+0xd2>
		--------------------
	(    2252,        4)	
		--------------------
		      224a:   681e          ldr    r6, [r3, #0]
		      224c:   e003          b.n    2256 <_printf_i+0xc6>
		      224e:   0646          lsls   r6, r0, #25
		      2250:   d5fb          bpl.n  224a <_printf_i+0xba>
		->    2252:   f9b3 6000     ldrsh.w    r6, [r3]
		      2256:   2e00          cmp    r6, #0
		      2258:   da03          bge.n  2262 <_printf_i+0xd2>
		      225a:   232d          movs   r3, #45   ; 0x2d
		      225c:   4276          negs   r6, r6
		--------------------
	(    225a,        8)	
		--------------------
		      2250:   d5fb          bpl.n  224a <_printf_i+0xba>
		      2252:   f9b3 6000     ldrsh.w    r6, [r3]
		      2256:   2e00          cmp    r6, #0
		      2258:   da03          bge.n  2262 <_printf_i+0xd2>
		->    225a:   232d          movs   r3, #45   ; 0x2d
		      225c:   4276          negs   r6, r6
		      225e:   f884 3043     strb.w r3, [r4, #67]   ; 0x43
		      2262:   485a          ldr    r0, [pc, #360] ; (23cc <_printf_i+0x23c>)
		      2264:   230a          movs   r3, #10
		--------------------
	(    2262,        6)	
		--------------------
		      2258:   da03          bge.n  2262 <_printf_i+0xd2>
		      225a:   232d          movs   r3, #45   ; 0x2d
		      225c:   4276          negs   r6, r6
		      225e:   f884 3043     strb.w r3, [r4, #67]   ; 0x43
		->    2262:   485a          ldr    r0, [pc, #360] ; (23cc <_printf_i+0x23c>)
		      2264:   230a          movs   r3, #10
		      2266:   e012          b.n    228e <_printf_i+0xfe>
		      2268:   682b          ldr    r3, [r5, #0]
		      226a:   6820          ldr    r0, [r4, #0]
		--------------------
	(    2268,       12)	
		--------------------
		      225e:   f884 3043     strb.w r3, [r4, #67]   ; 0x43
		      2262:   485a          ldr    r0, [pc, #360] ; (23cc <_printf_i+0x23c>)
		      2264:   230a          movs   r3, #10
		      2266:   e012          b.n    228e <_printf_i+0xfe>
		->    2268:   682b          ldr    r3, [r5, #0]
		      226a:   6820          ldr    r0, [r4, #0]
		      226c:   1d19          adds   r1, r3, #4
		      226e:   6029          str    r1, [r5, #0]
		      2270:   0605          lsls   r5, r0, #24
		--------------------
	(    2274,        4)	
		--------------------
		      226c:   1d19          adds   r1, r3, #4
		      226e:   6029          str    r1, [r5, #0]
		      2270:   0605          lsls   r5, r0, #24
		      2272:   d501          bpl.n  2278 <_printf_i+0xe8>
		->    2274:   681e          ldr    r6, [r3, #0]
		      2276:   e002          b.n    227e <_printf_i+0xee>
		      2278:   0641          lsls   r1, r0, #25
		      227a:   d5fb          bpl.n  2274 <_printf_i+0xe4>
		      227c:   881e          ldrh   r6, [r3, #0]
		--------------------
	(    22fa,        8)	
		--------------------
		      22ee:   d14a          bne.n  2386 <_printf_i+0x1f6>
		      22f0:   f04f 30ff     mov.w  r0, #4294967295  ; 0xffffffff
		      22f4:   b004          add    sp, #16
		      22f6:   e8bd 87f0     ldmia.w    sp!, {r4, r5, r6, r7, r8, r9, sl, pc}
		->    22fa:   6823          ldr    r3, [r4, #0]
		      22fc:   f043 0320     orr.w  r3, r3, #32
		      2300:   6023          str    r3, [r4, #0]
		      2302:   4833          ldr    r0, [pc, #204] ; (23d0 <_printf_i+0x240>)
		      2304:   2778          movs   r7, #120  ; 0x78
		--------------------
	(    2302,        4)	
		--------------------
		      22f6:   e8bd 87f0     ldmia.w    sp!, {r4, r5, r6, r7, r8, r9, sl, pc}
		      22fa:   6823          ldr    r3, [r4, #0]
		      22fc:   f043 0320     orr.w  r3, r3, #32
		      2300:   6023          str    r3, [r4, #0]
		->    2302:   4833          ldr    r0, [pc, #204] ; (23d0 <_printf_i+0x240>)
		      2304:   2778          movs   r7, #120  ; 0x78
		      2306:   f884 7045     strb.w r7, [r4, #69]   ; 0x45
		      230a:   6823          ldr    r3, [r4, #0]
		      230c:   6829          ldr    r1, [r5, #0]
		--------------------
	(    2374,        2)	
		--------------------
		      236a:   6862          ldr    r2, [r4, #4]
		      236c:   2100          movs   r1, #0
		      236e:   4628          mov    r0, r5
		      2370:   f000 f986     bl 2680 <memchr>
		->    2374:   b108          cbz    r0, 237a <_printf_i+0x1ea>
		      2376:   1b40          subs   r0, r0, r5
		      2378:   6060          str    r0, [r4, #4]
		      237a:   6863          ldr    r3, [r4, #4]
		      237c:   6123          str    r3, [r4, #16]
		--------------------
	(    2376,        4)	
		--------------------
		      236c:   2100          movs   r1, #0
		      236e:   4628          mov    r0, r5
		      2370:   f000 f986     bl 2680 <memchr>
		      2374:   b108          cbz    r0, 237a <_printf_i+0x1ea>
		->    2376:   1b40          subs   r0, r0, r5
		      2378:   6060          str    r0, [r4, #4]
		      237a:   6863          ldr    r3, [r4, #4]
		      237c:   6123          str    r3, [r4, #16]
		      237e:   2300          movs   r3, #0
		--------------------
	(    2888,       12)	
		--------------------
		      2884:   e7fe          b.n    2884 <_exit>
		      2886:   bf00          nop
		  
		  00002888 <_init>:
		->    2888:   b5f8          push   {r3, r4, r5, r6, r7, lr}
		      288a:   bf00          nop
		      288c:   bcf8          pop    {r3, r4, r5, r6, r7}
		      288e:   bc08          pop    {r3}
		      2890:   469e          mov    lr, r3
		--------------------
