
p2im_car_controller.elf:     file format elf32-littlearm

Contents of section .isr_vector:
 8000000 00200020 453b0008 953b0008 953b0008  . . E;...;...;..
 8000010 00000000 00000000 00000000 00000000  ................
 8000020 00000000 00000000 00000000 953b0008  .............;..
 8000030 00000000 00000000 953b0008 13380008  .........;...8..
 8000040 953b0008 00000000 353b0008 953b0008  .;......5;...;..
 8000050 953b0008 5d380008 6d380008 7d380008  .;..]8..m8..}8..
 8000060 00000000 953b0008 953b0008 953b0008  .....;...;...;..
 8000070 953b0008 e1110008 f9110008 00000000  .;..............
 8000080 01120008 19120008 00000000 31120008  ............1...
 8000090 49120008 61120008 79120008 d13e0008  I...a...y....>..
 80000a0 e93e0008 953b0008 953b0008 bd410008  .>...;...;...A..
 80000b0 d5410008 00000000 00000000 00000000  .A..............


Disassembly of section .text:

080000c0 <strcmp>:
 80000c0:   7802        ldrb    r2, [r0, #0]
 80000c2:   780b        ldrb    r3, [r1, #0]
 80000c4:   2a00        cmp r2, #0
 80000c6:   d003        beq.n   80000d0 <strcmp+0x10>
 80000c8:   3001        adds    r0, #1
 80000ca:   3101        adds    r1, #1
 80000cc:   429a        cmp r2, r3
 80000ce:   d0f7        beq.n   80000c0 <strcmp>
 80000d0:   1ad0        subs    r0, r2, r3
 80000d2:   4770        bx  lr

080000d4 <strlen>:
 80000d4:   2300        movs    r3, #0
 80000d6:   5cc2        ldrb    r2, [r0, r3]
 80000d8:   3301        adds    r3, #1
 80000da:   2a00        cmp r2, #0
 80000dc:   d1fb        bne.n   80000d6 <strlen+0x2>
 80000de:   1e58        subs    r0, r3, #1
 80000e0:   4770        bx  lr
    ...

080000e4 <__gnu_thumb1_case_uqi>:
 80000e4:   b402        push    {r1}
 80000e6:   4671        mov r1, lr
 80000e8:   0849        lsrs    r1, r1, #1
 80000ea:   0049        lsls    r1, r1, #1
 80000ec:   5c09        ldrb    r1, [r1, r0]
 80000ee:   0049        lsls    r1, r1, #1
 80000f0:   448e        add lr, r1
 80000f2:   bc02        pop {r1}
 80000f4:   4770        bx  lr
 80000f6:   46c0        nop         ; (mov r8, r8)

080000f8 <__udivsi3>:
 80000f8:   2200        movs    r2, #0
 80000fa:   0843        lsrs    r3, r0, #1
 80000fc:   428b        cmp r3, r1
 80000fe:   d374        bcc.n   80001ea <__udivsi3+0xf2>
 8000100:   0903        lsrs    r3, r0, #4
 8000102:   428b        cmp r3, r1
 8000104:   d35f        bcc.n   80001c6 <__udivsi3+0xce>
 8000106:   0a03        lsrs    r3, r0, #8
 8000108:   428b        cmp r3, r1
 800010a:   d344        bcc.n   8000196 <__udivsi3+0x9e>
 800010c:   0b03        lsrs    r3, r0, #12
 800010e:   428b        cmp r3, r1
 8000110:   d328        bcc.n   8000164 <__udivsi3+0x6c>
 8000112:   0c03        lsrs    r3, r0, #16
 8000114:   428b        cmp r3, r1
 8000116:   d30d        bcc.n   8000134 <__udivsi3+0x3c>
 8000118:   22ff        movs    r2, #255    ; 0xff
 800011a:   0209        lsls    r1, r1, #8
 800011c:   ba12        rev r2, r2
 800011e:   0c03        lsrs    r3, r0, #16
 8000120:   428b        cmp r3, r1
 8000122:   d302        bcc.n   800012a <__udivsi3+0x32>
 8000124:   1212        asrs    r2, r2, #8
 8000126:   0209        lsls    r1, r1, #8
 8000128:   d065        beq.n   80001f6 <__udivsi3+0xfe>
 800012a:   0b03        lsrs    r3, r0, #12
 800012c:   428b        cmp r3, r1
 800012e:   d319        bcc.n   8000164 <__udivsi3+0x6c>
 8000130:   e000        b.n 8000134 <__udivsi3+0x3c>
 8000132:   0a09        lsrs    r1, r1, #8
 8000134:   0bc3        lsrs    r3, r0, #15
 8000136:   428b        cmp r3, r1
 8000138:   d301        bcc.n   800013e <__udivsi3+0x46>
 800013a:   03cb        lsls    r3, r1, #15
 800013c:   1ac0        subs    r0, r0, r3
 800013e:   4152        adcs    r2, r2
 8000140:   0b83        lsrs    r3, r0, #14
 8000142:   428b        cmp r3, r1
 8000144:   d301        bcc.n   800014a <__udivsi3+0x52>
 8000146:   038b        lsls    r3, r1, #14
 8000148:   1ac0        subs    r0, r0, r3
 800014a:   4152        adcs    r2, r2
 800014c:   0b43        lsrs    r3, r0, #13
 800014e:   428b        cmp r3, r1
 8000150:   d301        bcc.n   8000156 <__udivsi3+0x5e>
 8000152:   034b        lsls    r3, r1, #13
 8000154:   1ac0        subs    r0, r0, r3
 8000156:   4152        adcs    r2, r2
 8000158:   0b03        lsrs    r3, r0, #12
 800015a:   428b        cmp r3, r1
 800015c:   d301        bcc.n   8000162 <__udivsi3+0x6a>
 800015e:   030b        lsls    r3, r1, #12
 8000160:   1ac0        subs    r0, r0, r3
 8000162:   4152        adcs    r2, r2
 8000164:   0ac3        lsrs    r3, r0, #11
 8000166:   428b        cmp r3, r1
 8000168:   d301        bcc.n   800016e <__udivsi3+0x76>
 800016a:   02cb        lsls    r3, r1, #11
 800016c:   1ac0        subs    r0, r0, r3
 800016e:   4152        adcs    r2, r2
 8000170:   0a83        lsrs    r3, r0, #10
 8000172:   428b        cmp r3, r1
 8000174:   d301        bcc.n   800017a <__udivsi3+0x82>
 8000176:   028b        lsls    r3, r1, #10
 8000178:   1ac0        subs    r0, r0, r3
 800017a:   4152        adcs    r2, r2
 800017c:   0a43        lsrs    r3, r0, #9
 800017e:   428b        cmp r3, r1
 8000180:   d301        bcc.n   8000186 <__udivsi3+0x8e>
 8000182:   024b        lsls    r3, r1, #9
 8000184:   1ac0        subs    r0, r0, r3
 8000186:   4152        adcs    r2, r2
 8000188:   0a03        lsrs    r3, r0, #8
 800018a:   428b        cmp r3, r1
 800018c:   d301        bcc.n   8000192 <__udivsi3+0x9a>
 800018e:   020b        lsls    r3, r1, #8
 8000190:   1ac0        subs    r0, r0, r3
 8000192:   4152        adcs    r2, r2
 8000194:   d2cd        bcs.n   8000132 <__udivsi3+0x3a>
 8000196:   09c3        lsrs    r3, r0, #7
 8000198:   428b        cmp r3, r1
 800019a:   d301        bcc.n   80001a0 <__udivsi3+0xa8>
 800019c:   01cb        lsls    r3, r1, #7
 800019e:   1ac0        subs    r0, r0, r3
 80001a0:   4152        adcs    r2, r2
 80001a2:   0983        lsrs    r3, r0, #6
 80001a4:   428b        cmp r3, r1
 80001a6:   d301        bcc.n   80001ac <__udivsi3+0xb4>
 80001a8:   018b        lsls    r3, r1, #6
 80001aa:   1ac0        subs    r0, r0, r3
 80001ac:   4152        adcs    r2, r2
 80001ae:   0943        lsrs    r3, r0, #5
 80001b0:   428b        cmp r3, r1
 80001b2:   d301        bcc.n   80001b8 <__udivsi3+0xc0>
 80001b4:   014b        lsls    r3, r1, #5
 80001b6:   1ac0        subs    r0, r0, r3
 80001b8:   4152        adcs    r2, r2
 80001ba:   0903        lsrs    r3, r0, #4
 80001bc:   428b        cmp r3, r1
 80001be:   d301        bcc.n   80001c4 <__udivsi3+0xcc>
 80001c0:   010b        lsls    r3, r1, #4
 80001c2:   1ac0        subs    r0, r0, r3
 80001c4:   4152        adcs    r2, r2
 80001c6:   08c3        lsrs    r3, r0, #3
 80001c8:   428b        cmp r3, r1
 80001ca:   d301        bcc.n   80001d0 <__udivsi3+0xd8>
 80001cc:   00cb        lsls    r3, r1, #3
 80001ce:   1ac0        subs    r0, r0, r3
 80001d0:   4152        adcs    r2, r2
 80001d2:   0883        lsrs    r3, r0, #2
 80001d4:   428b        cmp r3, r1
 80001d6:   d301        bcc.n   80001dc <__udivsi3+0xe4>
 80001d8:   008b        lsls    r3, r1, #2
 80001da:   1ac0        subs    r0, r0, r3
 80001dc:   4152        adcs    r2, r2
 80001de:   0843        lsrs    r3, r0, #1
 80001e0:   428b        cmp r3, r1
 80001e2:   d301        bcc.n   80001e8 <__udivsi3+0xf0>
 80001e4:   004b        lsls    r3, r1, #1
 80001e6:   1ac0        subs    r0, r0, r3
 80001e8:   4152        adcs    r2, r2
 80001ea:   1a41        subs    r1, r0, r1
 80001ec:   d200        bcs.n   80001f0 <__udivsi3+0xf8>
 80001ee:   4601        mov r1, r0
 80001f0:   4152        adcs    r2, r2
 80001f2:   4610        mov r0, r2
 80001f4:   4770        bx  lr
 80001f6:   e7ff        b.n 80001f8 <__udivsi3+0x100>
 80001f8:   b501        push    {r0, lr}
 80001fa:   2000        movs    r0, #0
 80001fc:   f000 f8f0   bl  80003e0 <__aeabi_idiv0>
 8000200:   bd02        pop {r1, pc}
 8000202:   46c0        nop         ; (mov r8, r8)

08000204 <__aeabi_uidivmod>:
 8000204:   2900        cmp r1, #0
 8000206:   d0f7        beq.n   80001f8 <__udivsi3+0x100>
 8000208:   e776        b.n 80000f8 <__udivsi3>
 800020a:   4770        bx  lr

0800020c <__divsi3>:
 800020c:   4603        mov r3, r0
 800020e:   430b        orrs    r3, r1
 8000210:   d47f        bmi.n   8000312 <__divsi3+0x106>
 8000212:   2200        movs    r2, #0
 8000214:   0843        lsrs    r3, r0, #1
 8000216:   428b        cmp r3, r1
 8000218:   d374        bcc.n   8000304 <__divsi3+0xf8>
 800021a:   0903        lsrs    r3, r0, #4
 800021c:   428b        cmp r3, r1
 800021e:   d35f        bcc.n   80002e0 <__divsi3+0xd4>
 8000220:   0a03        lsrs    r3, r0, #8
 8000222:   428b        cmp r3, r1
 8000224:   d344        bcc.n   80002b0 <__divsi3+0xa4>
 8000226:   0b03        lsrs    r3, r0, #12
 8000228:   428b        cmp r3, r1
 800022a:   d328        bcc.n   800027e <__divsi3+0x72>
 800022c:   0c03        lsrs    r3, r0, #16
 800022e:   428b        cmp r3, r1
 8000230:   d30d        bcc.n   800024e <__divsi3+0x42>
 8000232:   22ff        movs    r2, #255    ; 0xff
 8000234:   0209        lsls    r1, r1, #8
 8000236:   ba12        rev r2, r2
 8000238:   0c03        lsrs    r3, r0, #16
 800023a:   428b        cmp r3, r1
 800023c:   d302        bcc.n   8000244 <__divsi3+0x38>
 800023e:   1212        asrs    r2, r2, #8
 8000240:   0209        lsls    r1, r1, #8
 8000242:   d065        beq.n   8000310 <__divsi3+0x104>
 8000244:   0b03        lsrs    r3, r0, #12
 8000246:   428b        cmp r3, r1
 8000248:   d319        bcc.n   800027e <__divsi3+0x72>
 800024a:   e000        b.n 800024e <__divsi3+0x42>
 800024c:   0a09        lsrs    r1, r1, #8
 800024e:   0bc3        lsrs    r3, r0, #15
 8000250:   428b        cmp r3, r1
 8000252:   d301        bcc.n   8000258 <__divsi3+0x4c>
 8000254:   03cb        lsls    r3, r1, #15
 8000256:   1ac0        subs    r0, r0, r3
 8000258:   4152        adcs    r2, r2
 800025a:   0b83        lsrs    r3, r0, #14
 800025c:   428b        cmp r3, r1
 800025e:   d301        bcc.n   8000264 <__divsi3+0x58>
 8000260:   038b        lsls    r3, r1, #14
 8000262:   1ac0        subs    r0, r0, r3
 8000264:   4152        adcs    r2, r2
 8000266:   0b43        lsrs    r3, r0, #13
 8000268:   428b        cmp r3, r1
 800026a:   d301        bcc.n   8000270 <__divsi3+0x64>
 800026c:   034b        lsls    r3, r1, #13
 800026e:   1ac0        subs    r0, r0, r3
 8000270:   4152        adcs    r2, r2
 8000272:   0b03        lsrs    r3, r0, #12
 8000274:   428b        cmp r3, r1
 8000276:   d301        bcc.n   800027c <__divsi3+0x70>
 8000278:   030b        lsls    r3, r1, #12
 800027a:   1ac0        subs    r0, r0, r3
 800027c:   4152        adcs    r2, r2
 800027e:   0ac3        lsrs    r3, r0, #11
 8000280:   428b        cmp r3, r1
 8000282:   d301        bcc.n   8000288 <__divsi3+0x7c>
 8000284:   02cb        lsls    r3, r1, #11
 8000286:   1ac0        subs    r0, r0, r3
 8000288:   4152        adcs    r2, r2
 800028a:   0a83        lsrs    r3, r0, #10
 800028c:   428b        cmp r3, r1
 800028e:   d301        bcc.n   8000294 <__divsi3+0x88>
 8000290:   028b        lsls    r3, r1, #10
 8000292:   1ac0        subs    r0, r0, r3
 8000294:   4152        adcs    r2, r2
 8000296:   0a43        lsrs    r3, r0, #9
 8000298:   428b        cmp r3, r1
 800029a:   d301        bcc.n   80002a0 <__divsi3+0x94>
 800029c:   024b        lsls    r3, r1, #9
 800029e:   1ac0        subs    r0, r0, r3
 80002a0:   4152        adcs    r2, r2
 80002a2:   0a03        lsrs    r3, r0, #8
 80002a4:   428b        cmp r3, r1
 80002a6:   d301        bcc.n   80002ac <__divsi3+0xa0>
 80002a8:   020b        lsls    r3, r1, #8
 80002aa:   1ac0        subs    r0, r0, r3
 80002ac:   4152        adcs    r2, r2
 80002ae:   d2cd        bcs.n   800024c <__divsi3+0x40>
 80002b0:   09c3        lsrs    r3, r0, #7
 80002b2:   428b        cmp r3, r1
 80002b4:   d301        bcc.n   80002ba <__divsi3+0xae>
 80002b6:   01cb        lsls    r3, r1, #7
 80002b8:   1ac0        subs    r0, r0, r3
 80002ba:   4152        adcs    r2, r2
 80002bc:   0983        lsrs    r3, r0, #6
 80002be:   428b        cmp r3, r1
 80002c0:   d301        bcc.n   80002c6 <__divsi3+0xba>
 80002c2:   018b        lsls    r3, r1, #6
 80002c4:   1ac0        subs    r0, r0, r3
 80002c6:   4152        adcs    r2, r2
 80002c8:   0943        lsrs    r3, r0, #5
 80002ca:   428b        cmp r3, r1
 80002cc:   d301        bcc.n   80002d2 <__divsi3+0xc6>
 80002ce:   014b        lsls    r3, r1, #5
 80002d0:   1ac0        subs    r0, r0, r3
 80002d2:   4152        adcs    r2, r2
 80002d4:   0903        lsrs    r3, r0, #4
 80002d6:   428b        cmp r3, r1
 80002d8:   d301        bcc.n   80002de <__divsi3+0xd2>
 80002da:   010b        lsls    r3, r1, #4
 80002dc:   1ac0        subs    r0, r0, r3
 80002de:   4152        adcs    r2, r2
 80002e0:   08c3        lsrs    r3, r0, #3
 80002e2:   428b        cmp r3, r1
 80002e4:   d301        bcc.n   80002ea <__divsi3+0xde>
 80002e6:   00cb        lsls    r3, r1, #3
 80002e8:   1ac0        subs    r0, r0, r3
 80002ea:   4152        adcs    r2, r2
 80002ec:   0883        lsrs    r3, r0, #2
 80002ee:   428b        cmp r3, r1
 80002f0:   d301        bcc.n   80002f6 <__divsi3+0xea>
 80002f2:   008b        lsls    r3, r1, #2
 80002f4:   1ac0        subs    r0, r0, r3
 80002f6:   4152        adcs    r2, r2
 80002f8:   0843        lsrs    r3, r0, #1
 80002fa:   428b        cmp r3, r1
 80002fc:   d301        bcc.n   8000302 <__divsi3+0xf6>
 80002fe:   004b        lsls    r3, r1, #1
 8000300:   1ac0        subs    r0, r0, r3
 8000302:   4152        adcs    r2, r2
 8000304:   1a41        subs    r1, r0, r1
 8000306:   d200        bcs.n   800030a <__divsi3+0xfe>
 8000308:   4601        mov r1, r0
 800030a:   4152        adcs    r2, r2
 800030c:   4610        mov r0, r2
 800030e:   4770        bx  lr
 8000310:   e05d        b.n 80003ce <__divsi3+0x1c2>
 8000312:   0fca        lsrs    r2, r1, #31
 8000314:   d000        beq.n   8000318 <__divsi3+0x10c>
 8000316:   4249        negs    r1, r1
 8000318:   1003        asrs    r3, r0, #32
 800031a:   d300        bcc.n   800031e <__divsi3+0x112>
 800031c:   4240        negs    r0, r0
 800031e:   4053        eors    r3, r2
 8000320:   2200        movs    r2, #0
 8000322:   469c        mov ip, r3
 8000324:   0903        lsrs    r3, r0, #4
 8000326:   428b        cmp r3, r1
 8000328:   d32d        bcc.n   8000386 <__divsi3+0x17a>
 800032a:   0a03        lsrs    r3, r0, #8
 800032c:   428b        cmp r3, r1
 800032e:   d312        bcc.n   8000356 <__divsi3+0x14a>
 8000330:   22fc        movs    r2, #252    ; 0xfc
 8000332:   0189        lsls    r1, r1, #6
 8000334:   ba12        rev r2, r2
 8000336:   0a03        lsrs    r3, r0, #8
 8000338:   428b        cmp r3, r1
 800033a:   d30c        bcc.n   8000356 <__divsi3+0x14a>
 800033c:   0189        lsls    r1, r1, #6
 800033e:   1192        asrs    r2, r2, #6
 8000340:   428b        cmp r3, r1
 8000342:   d308        bcc.n   8000356 <__divsi3+0x14a>
 8000344:   0189        lsls    r1, r1, #6
 8000346:   1192        asrs    r2, r2, #6
 8000348:   428b        cmp r3, r1
 800034a:   d304        bcc.n   8000356 <__divsi3+0x14a>
 800034c:   0189        lsls    r1, r1, #6
 800034e:   d03a        beq.n   80003c6 <__divsi3+0x1ba>
 8000350:   1192        asrs    r2, r2, #6
 8000352:   e000        b.n 8000356 <__divsi3+0x14a>
 8000354:   0989        lsrs    r1, r1, #6
 8000356:   09c3        lsrs    r3, r0, #7
 8000358:   428b        cmp r3, r1
 800035a:   d301        bcc.n   8000360 <__divsi3+0x154>
 800035c:   01cb        lsls    r3, r1, #7
 800035e:   1ac0        subs    r0, r0, r3
 8000360:   4152        adcs    r2, r2
 8000362:   0983        lsrs    r3, r0, #6
 8000364:   428b        cmp r3, r1
 8000366:   d301        bcc.n   800036c <__divsi3+0x160>
 8000368:   018b        lsls    r3, r1, #6
 800036a:   1ac0        subs    r0, r0, r3
 800036c:   4152        adcs    r2, r2
 800036e:   0943        lsrs    r3, r0, #5
 8000370:   428b        cmp r3, r1
 8000372:   d301        bcc.n   8000378 <__divsi3+0x16c>
 8000374:   014b        lsls    r3, r1, #5
 8000376:   1ac0        subs    r0, r0, r3
 8000378:   4152        adcs    r2, r2
 800037a:   0903        lsrs    r3, r0, #4
 800037c:   428b        cmp r3, r1
 800037e:   d301        bcc.n   8000384 <__divsi3+0x178>
 8000380:   010b        lsls    r3, r1, #4
 8000382:   1ac0        subs    r0, r0, r3
 8000384:   4152        adcs    r2, r2
 8000386:   08c3        lsrs    r3, r0, #3
 8000388:   428b        cmp r3, r1
 800038a:   d301        bcc.n   8000390 <__divsi3+0x184>
 800038c:   00cb        lsls    r3, r1, #3
 800038e:   1ac0        subs    r0, r0, r3
 8000390:   4152        adcs    r2, r2
 8000392:   0883        lsrs    r3, r0, #2
 8000394:   428b        cmp r3, r1
 8000396:   d301        bcc.n   800039c <__divsi3+0x190>
 8000398:   008b        lsls    r3, r1, #2
 800039a:   1ac0        subs    r0, r0, r3
 800039c:   4152        adcs    r2, r2
 800039e:   d2d9        bcs.n   8000354 <__divsi3+0x148>
 80003a0:   0843        lsrs    r3, r0, #1
 80003a2:   428b        cmp r3, r1
 80003a4:   d301        bcc.n   80003aa <__divsi3+0x19e>
 80003a6:   004b        lsls    r3, r1, #1
 80003a8:   1ac0        subs    r0, r0, r3
 80003aa:   4152        adcs    r2, r2
 80003ac:   1a41        subs    r1, r0, r1
 80003ae:   d200        bcs.n   80003b2 <__divsi3+0x1a6>
 80003b0:   4601        mov r1, r0
 80003b2:   4663        mov r3, ip
 80003b4:   4152        adcs    r2, r2
 80003b6:   105b        asrs    r3, r3, #1
 80003b8:   4610        mov r0, r2
 80003ba:   d301        bcc.n   80003c0 <__divsi3+0x1b4>
 80003bc:   4240        negs    r0, r0
 80003be:   2b00        cmp r3, #0
 80003c0:   d500        bpl.n   80003c4 <__divsi3+0x1b8>
 80003c2:   4249        negs    r1, r1
 80003c4:   4770        bx  lr
 80003c6:   4663        mov r3, ip
 80003c8:   105b        asrs    r3, r3, #1
 80003ca:   d300        bcc.n   80003ce <__divsi3+0x1c2>
 80003cc:   4240        negs    r0, r0
 80003ce:   b501        push    {r0, lr}
 80003d0:   2000        movs    r0, #0
 80003d2:   f000 f805   bl  80003e0 <__aeabi_idiv0>
 80003d6:   bd02        pop {r1, pc}

080003d8 <__aeabi_idivmod>:
 80003d8:   2900        cmp r1, #0
 80003da:   d0f8        beq.n   80003ce <__divsi3+0x1c2>
 80003dc:   e716        b.n 800020c <__divsi3>
 80003de:   4770        bx  lr

080003e0 <__aeabi_idiv0>:
 80003e0:   4770        bx  lr
 80003e2:   46c0        nop         ; (mov r8, r8)

080003e4 <deregister_tm_clones>:
 80003e4:   4804        ldr r0, [pc, #16]   ; (80003f8 <deregister_tm_clones+0x14>)
 80003e6:   4b05        ldr r3, [pc, #20]   ; (80003fc <deregister_tm_clones+0x18>)
 80003e8:   b510        push    {r4, lr}
 80003ea:   4283        cmp r3, r0
 80003ec:   d003        beq.n   80003f6 <deregister_tm_clones+0x12>
 80003ee:   4b04        ldr r3, [pc, #16]   ; (8000400 <deregister_tm_clones+0x1c>)
 80003f0:   2b00        cmp r3, #0
 80003f2:   d000        beq.n   80003f6 <deregister_tm_clones+0x12>
 80003f4:   4798        blx r3
 80003f6:   bd10        pop {r4, pc}
 80003f8:   20000084    .word   0x20000084
 80003fc:   20000084    .word   0x20000084
 8000400:   00000000    .word   0x00000000

08000404 <register_tm_clones>:
 8000404:   4806        ldr r0, [pc, #24]   ; (8000420 <register_tm_clones+0x1c>)
 8000406:   4907        ldr r1, [pc, #28]   ; (8000424 <register_tm_clones+0x20>)
 8000408:   1a09        subs    r1, r1, r0
 800040a:   1089        asrs    r1, r1, #2
 800040c:   0fcb        lsrs    r3, r1, #31
 800040e:   1859        adds    r1, r3, r1
 8000410:   b510        push    {r4, lr}
 8000412:   1049        asrs    r1, r1, #1
 8000414:   d003        beq.n   800041e <register_tm_clones+0x1a>
 8000416:   4b04        ldr r3, [pc, #16]   ; (8000428 <register_tm_clones+0x24>)
 8000418:   2b00        cmp r3, #0
 800041a:   d000        beq.n   800041e <register_tm_clones+0x1a>
 800041c:   4798        blx r3
 800041e:   bd10        pop {r4, pc}
 8000420:   20000084    .word   0x20000084
 8000424:   20000084    .word   0x20000084
 8000428:   00000000    .word   0x00000000

0800042c <__do_global_dtors_aux>:
 800042c:   b510        push    {r4, lr}
 800042e:   4c07        ldr r4, [pc, #28]   ; (800044c <__do_global_dtors_aux+0x20>)
 8000430:   7823        ldrb    r3, [r4, #0]
 8000432:   2b00        cmp r3, #0
 8000434:   d109        bne.n   800044a <__do_global_dtors_aux+0x1e>
 8000436:   f7ff ffd5   bl  80003e4 <deregister_tm_clones>
 800043a:   4b05        ldr r3, [pc, #20]   ; (8000450 <__do_global_dtors_aux+0x24>)
 800043c:   2b00        cmp r3, #0
 800043e:   d002        beq.n   8000446 <__do_global_dtors_aux+0x1a>
 8000440:   4804        ldr r0, [pc, #16]   ; (8000454 <__do_global_dtors_aux+0x28>)
 8000442:   e000        b.n 8000446 <__do_global_dtors_aux+0x1a>
 8000444:   bf00        nop
 8000446:   2301        movs    r3, #1
 8000448:   7023        strb    r3, [r4, #0]
 800044a:   bd10        pop {r4, pc}
 800044c:   20000084    .word   0x20000084
 8000450:   00000000    .word   0x00000000
 8000454:   08004790    .word   0x08004790

08000458 <frame_dummy>:
 8000458:   4b05        ldr r3, [pc, #20]   ; (8000470 <frame_dummy+0x18>)
 800045a:   b510        push    {r4, lr}
 800045c:   2b00        cmp r3, #0
 800045e:   d003        beq.n   8000468 <frame_dummy+0x10>
 8000460:   4904        ldr r1, [pc, #16]   ; (8000474 <frame_dummy+0x1c>)
 8000462:   4805        ldr r0, [pc, #20]   ; (8000478 <frame_dummy+0x20>)
 8000464:   e000        b.n 8000468 <frame_dummy+0x10>
 8000466:   bf00        nop
 8000468:   f7ff ffcc   bl  8000404 <register_tm_clones>
 800046c:   bd10        pop {r4, pc}
 800046e:   46c0        nop         ; (mov r8, r8)
 8000470:   00000000    .word   0x00000000
 8000474:   20000088    .word   0x20000088
 8000478:   08004790    .word   0x08004790

0800047c <_Z15straightAndStopv>:
 800047c:   b510        push    {r4, lr}
 800047e:   215a        movs    r1, #90 ; 0x5a
 8000480:   4803        ldr r0, [pc, #12]   ; (8000490 <_Z15straightAndStopv+0x14>)
 8000482:   f000 fa9b   bl  80009bc <_ZN5Servo5writeEi>
 8000486:   215a        movs    r1, #90 ; 0x5a
 8000488:   4802        ldr r0, [pc, #8]    ; (8000494 <_Z15straightAndStopv+0x18>)
 800048a:   f000 fa97   bl  80009bc <_ZN5Servo5writeEi>
 800048e:   bd10        pop {r4, pc}
 8000490:   200000c3    .word   0x200000c3
 8000494:   200000c0    .word   0x200000c0

08000498 <setup>:
 8000498:   21e1        movs    r1, #225    ; 0xe1
 800049a:   b510        push    {r4, lr}
 800049c:   4c18        ldr r4, [pc, #96]   ; (8000500 <setup+0x68>)
 800049e:   2206        movs    r2, #6
 80004a0:   0020        movs    r0, r4
 80004a2:   0209        lsls    r1, r1, #8
 80004a4:   f000 fb9a   bl  8000bdc <_ZN14HardwareSerial5beginEmh>
 80004a8:   2101        movs    r1, #1
 80004aa:   200d        movs    r0, #13
 80004ac:   f003 febc   bl  8004228 <pinMode>
 80004b0:   2101        movs    r1, #1
 80004b2:   2006        movs    r0, #6
 80004b4:   f003 feb8   bl  8004228 <pinMode>
 80004b8:   2100        movs    r1, #0
 80004ba:   2034        movs    r0, #52 ; 0x34
 80004bc:   f003 feb4   bl  8004228 <pinMode>
 80004c0:   2100        movs    r1, #0
 80004c2:   2004        movs    r0, #4
 80004c4:   f003 feb0   bl  8004228 <pinMode>
 80004c8:   2100        movs    r1, #0
 80004ca:   2003        movs    r0, #3
 80004cc:   f003 feac   bl  8004228 <pinMode>
 80004d0:   2100        movs    r1, #0
 80004d2:   2002        movs    r0, #2
 80004d4:   f003 fea8   bl  8004228 <pinMode>
 80004d8:   2105        movs    r1, #5
 80004da:   480a        ldr r0, [pc, #40]   ; (8000504 <setup+0x6c>)
 80004dc:   f000 fa4a   bl  8000974 <_ZN5Servo6attachEi>
 80004e0:   2106        movs    r1, #6
 80004e2:   4809        ldr r0, [pc, #36]   ; (8000508 <setup+0x70>)
 80004e4:   f000 fa46   bl  8000974 <_ZN5Servo6attachEi>
 80004e8:   f7ff ffc8   bl  800047c <_Z15straightAndStopv>
 80004ec:   4907        ldr r1, [pc, #28]   ; (800050c <setup+0x74>)
 80004ee:   0020        movs    r0, r4
 80004f0:   f000 ff10   bl  8001314 <_ZN5Print7printlnEPKc>
 80004f4:   20fa        movs    r0, #250    ; 0xfa
 80004f6:   0080        lsls    r0, r0, #2
 80004f8:   f003 ff56   bl  80043a8 <delay>
 80004fc:   bd10        pop {r4, pc}
 80004fe:   46c0        nop         ; (mov r8, r8)
 8000500:   20000248    .word   0x20000248
 8000504:   200000c0    .word   0x200000c0
 8000508:   200000c3    .word   0x200000c3
 800050c:   08004880    .word   0x08004880

08000510 <_GLOBAL__sub_I_steering>:
 8000510:   b510        push    {r4, lr}
 8000512:   4808        ldr r0, [pc, #32]   ; (8000534 <_GLOBAL__sub_I_steering+0x24>)
 8000514:   f000 f9b0   bl  8000878 <_ZN5ServoC1Ev>
 8000518:   4807        ldr r0, [pc, #28]   ; (8000538 <_GLOBAL__sub_I_steering+0x28>)
 800051a:   f000 f9ad   bl  8000878 <_ZN5ServoC1Ev>
 800051e:   4c07        ldr r4, [pc, #28]   ; (800053c <_GLOBAL__sub_I_steering+0x2c>)
 8000520:   4807        ldr r0, [pc, #28]   ; (8000540 <_GLOBAL__sub_I_steering+0x30>)
 8000522:   0021        movs    r1, r4
 8000524:   f001 f81a   bl  800155c <_ZN6StringC1EPKc>
 8000528:   0021        movs    r1, r4
 800052a:   4806        ldr r0, [pc, #24]   ; (8000544 <_GLOBAL__sub_I_steering+0x34>)
 800052c:   f001 f816   bl  800155c <_ZN6StringC1EPKc>
 8000530:   bd10        pop {r4, pc}
 8000532:   46c0        nop         ; (mov r8, r8)
 8000534:   200000c0    .word   0x200000c0
 8000538:   200000c3    .word   0x200000c3
 800053c:   08004b9b    .word   0x08004b9b
 8000540:   200000a4    .word   0x200000a4
 8000544:   200000c8    .word   0x200000c8

08000548 <_GLOBAL__sub_D_steering>:
 8000548:   b510        push    {r4, lr}
 800054a:   4803        ldr r0, [pc, #12]   ; (8000558 <_GLOBAL__sub_D_steering+0x10>)
 800054c:   f000 ffbc   bl  80014c8 <_ZN6StringD1Ev>
 8000550:   4802        ldr r0, [pc, #8]    ; (800055c <_GLOBAL__sub_D_steering+0x14>)
 8000552:   f000 ffb9   bl  80014c8 <_ZN6StringD1Ev>
 8000556:   bd10        pop {r4, pc}
 8000558:   200000c8    .word   0x200000c8
 800055c:   200000a4    .word   0x200000a4

08000560 <loop>:
 8000560:   b5f0        push    {r4, r5, r6, r7, lr}
 8000562:   4a77        ldr r2, [pc, #476]  ; (8000740 <loop+0x1e0>)
 8000564:   b089        sub sp, #36 ; 0x24
 8000566:   2101        movs    r1, #1
 8000568:   2004        movs    r0, #4
 800056a:   f003 fec7   bl  80042fc <_Z7pulseInmmm>
 800056e:   4c75        ldr r4, [pc, #468]  ; (8000744 <loop+0x1e4>)
 8000570:   6020        str r0, [r4, #0]
 8000572:   200a        movs    r0, #10
 8000574:   f003 ff18   bl  80043a8 <delay>
 8000578:   2101        movs    r1, #1
 800057a:   4b73        ldr r3, [pc, #460]  ; (8000748 <loop+0x1e8>)
 800057c:   200d        movs    r0, #13
 800057e:   781a        ldrb    r2, [r3, #0]
 8000580:   4051        eors    r1, r2
 8000582:   7019        strb    r1, [r3, #0]
 8000584:   f003 fe98   bl  80042b8 <digitalWrite>
 8000588:   22c8        movs    r2, #200    ; 0xc8
 800058a:   6823        ldr r3, [r4, #0]
 800058c:   00d2        lsls    r2, r2, #3
 800058e:   4c6f        ldr r4, [pc, #444]  ; (800074c <loop+0x1ec>)
 8000590:   4293        cmp r3, r2
 8000592:   dd07        ble.n   80005a4 <loop+0x44>
 8000594:   f7ff ff72   bl  800047c <_Z15straightAndStopv>
 8000598:   496d        ldr r1, [pc, #436]  ; (8000750 <loop+0x1f0>)
 800059a:   0020        movs    r0, r4
 800059c:   f000 feba   bl  8001314 <_ZN5Print7printlnEPKc>
 80005a0:   b009        add sp, #36 ; 0x24
 80005a2:   bdf0        pop {r4, r5, r6, r7, pc}
 80005a4:   496b        ldr r1, [pc, #428]  ; (8000754 <loop+0x1f4>)
 80005a6:   4d6c        ldr r5, [pc, #432]  ; (8000758 <loop+0x1f8>)
 80005a8:   185b        adds    r3, r3, r1
 80005aa:   2195        movs    r1, #149    ; 0x95
 80005ac:   782a        ldrb    r2, [r5, #0]
 80005ae:   0049        lsls    r1, r1, #1
 80005b0:   428b        cmp r3, r1
 80005b2:   d864        bhi.n   800067e <loop+0x11e>
 80005b4:   2a00        cmp r2, #0
 80005b6:   d007        beq.n   80005c8 <loop+0x68>
 80005b8:   f7ff ff60   bl  800047c <_Z15straightAndStopv>
 80005bc:   4967        ldr r1, [pc, #412]  ; (800075c <loop+0x1fc>)
 80005be:   0020        movs    r0, r4
 80005c0:   f000 fea8   bl  8001314 <_ZN5Print7printlnEPKc>
 80005c4:   2300        movs    r3, #0
 80005c6:   702b        strb    r3, [r5, #0]
 80005c8:   4a5d        ldr r2, [pc, #372]  ; (8000740 <loop+0x1e0>)
 80005ca:   2101        movs    r1, #1
 80005cc:   2002        movs    r0, #2
 80005ce:   f003 fe95   bl  80042fc <_Z7pulseInmmm>
 80005d2:   9003        str r0, [sp, #12]
 80005d4:   200a        movs    r0, #10
 80005d6:   f003 fee7   bl  80043a8 <delay>
 80005da:   4a59        ldr r2, [pc, #356]  ; (8000740 <loop+0x1e0>)
 80005dc:   2101        movs    r1, #1
 80005de:   2003        movs    r0, #3
 80005e0:   f003 fe8c   bl  80042fc <_Z7pulseInmmm>
 80005e4:   2696        movs    r6, #150    ; 0x96
 80005e6:   22fa        movs    r2, #250    ; 0xfa
 80005e8:   21fa        movs    r1, #250    ; 0xfa
 80005ea:   0007        movs    r7, r0
 80005ec:   9600        str r6, [sp, #0]
 80005ee:   2328        movs    r3, #40 ; 0x28
 80005f0:   00d2        lsls    r2, r2, #3
 80005f2:   0089        lsls    r1, r1, #2
 80005f4:   9803        ldr r0, [sp, #12]
 80005f6:   f000 ff4b   bl  8001490 <_Z3maplllll>
 80005fa:   22fa        movs    r2, #250    ; 0xfa
 80005fc:   21fa        movs    r1, #250    ; 0xfa
 80005fe:   4d58        ldr r5, [pc, #352]  ; (8000760 <loop+0x200>)
 8000600:   2328        movs    r3, #40 ; 0x28
 8000602:   6028        str r0, [r5, #0]
 8000604:   00d2        lsls    r2, r2, #3
 8000606:   9600        str r6, [sp, #0]
 8000608:   0089        lsls    r1, r1, #2
 800060a:   0038        movs    r0, r7
 800060c:   f000 ff40   bl  8001490 <_Z3maplllll>
 8000610:   4e54        ldr r6, [pc, #336]  ; (8000764 <loop+0x204>)
 8000612:   6030        str r0, [r6, #0]
 8000614:   0020        movs    r0, r4
 8000616:   f000 fa37   bl  8000a88 <_ZN14HardwareSerial9availableEv>
 800061a:   2800        cmp r0, #0
 800061c:   dd11        ble.n   8000642 <loop+0xe2>
 800061e:   0020        movs    r0, r4
 8000620:   f000 fa47   bl  8000ab2 <_ZN14HardwareSerial4readEv>
 8000624:   220a        movs    r2, #10
 8000626:   6829        ldr r1, [r5, #0]
 8000628:   0020        movs    r0, r4
 800062a:   f000 fec4   bl  80013b6 <_ZN5Print5printEii>
 800062e:   494e        ldr r1, [pc, #312]  ; (8000768 <loop+0x208>)
 8000630:   0020        movs    r0, r4
 8000632:   f000 fe54   bl  80012de <_ZN5Print5printEPKc>
 8000636:   220a        movs    r2, #10
 8000638:   6831        ldr r1, [r6, #0]
 800063a:   0020        movs    r0, r4
 800063c:   f000 febf   bl  80013be <_ZN5Print7printlnEii>
 8000640:   e7e8        b.n 8000614 <loop+0xb4>
 8000642:   494a        ldr r1, [pc, #296]  ; (800076c <loop+0x20c>)
 8000644:   0020        movs    r0, r4
 8000646:   f000 fe4a   bl  80012de <_ZN5Print5printEPKc>
 800064a:   220a        movs    r2, #10
 800064c:   0039        movs    r1, r7
 800064e:   0020        movs    r0, r4
 8000650:   f000 feb5   bl  80013be <_ZN5Print7printlnEii>
 8000654:   4946        ldr r1, [pc, #280]  ; (8000770 <loop+0x210>)
 8000656:   0020        movs    r0, r4
 8000658:   f000 fe41   bl  80012de <_ZN5Print5printEPKc>
 800065c:   220a        movs    r2, #10
 800065e:   9903        ldr r1, [sp, #12]
 8000660:   0020        movs    r0, r4
 8000662:   f000 feac   bl  80013be <_ZN5Print7printlnEii>
 8000666:   0020        movs    r0, r4
 8000668:   f000 fe42   bl  80012f0 <_ZN5Print7printlnEv>
 800066c:   6831        ldr r1, [r6, #0]
 800066e:   4841        ldr r0, [pc, #260]  ; (8000774 <loop+0x214>)
 8000670:   f000 f9a4   bl  80009bc <_ZN5Servo5writeEi>
 8000674:   6829        ldr r1, [r5, #0]
 8000676:   4840        ldr r0, [pc, #256]  ; (8000778 <loop+0x218>)
 8000678:   f000 f9a0   bl  80009bc <_ZN5Servo5writeEi>
 800067c:   e790        b.n 80005a0 <loop+0x40>
 800067e:   2a00        cmp r2, #0
 8000680:   d105        bne.n   800068e <loop+0x12e>
 8000682:   f7ff fefb   bl  800047c <_Z15straightAndStopv>
 8000686:   493d        ldr r1, [pc, #244]  ; (800077c <loop+0x21c>)
 8000688:   0020        movs    r0, r4
 800068a:   f000 fe43   bl  8001314 <_ZN5Print7printlnEPKc>
 800068e:   2301        movs    r3, #1
 8000690:   702b        strb    r3, [r5, #0]
 8000692:   0020        movs    r0, r4
 8000694:   f000 f9f8   bl  8000a88 <_ZN14HardwareSerial9availableEv>
 8000698:   2800        cmp r0, #0
 800069a:   dc00        bgt.n   800069e <loop+0x13e>
 800069c:   e780        b.n 80005a0 <loop+0x40>
 800069e:   222c        movs    r2, #44 ; 0x2c
 80006a0:   0021        movs    r1, r4
 80006a2:   a805        add r0, sp, #20
 80006a4:   f000 fed2   bl  800144c <_ZN6Stream15readStringUntilEc>
 80006a8:   4e35        ldr r6, [pc, #212]  ; (8000780 <loop+0x220>)
 80006aa:   a905        add r1, sp, #20
 80006ac:   0030        movs    r0, r6
 80006ae:   f000 ff88   bl  80015c2 <_ZN6StringaSEOS_>
 80006b2:   a805        add r0, sp, #20
 80006b4:   f000 ff08   bl  80014c8 <_ZN6StringD1Ev>
 80006b8:   220a        movs    r2, #10
 80006ba:   0021        movs    r1, r4
 80006bc:   a805        add r0, sp, #20
 80006be:   f000 fec5   bl  800144c <_ZN6Stream15readStringUntilEc>
 80006c2:   4d30        ldr r5, [pc, #192]  ; (8000784 <loop+0x224>)
 80006c4:   a905        add r1, sp, #20
 80006c6:   0028        movs    r0, r5
 80006c8:   f000 ff7b   bl  80015c2 <_ZN6StringaSEOS_>
 80006cc:   a805        add r0, sp, #20
 80006ce:   f000 fefb   bl  80014c8 <_ZN6StringD1Ev>
 80006d2:   0020        movs    r0, r4
 80006d4:   f000 f9ed   bl  8000ab2 <_ZN14HardwareSerial4readEv>
 80006d8:   492b        ldr r1, [pc, #172]  ; (8000788 <loop+0x228>)
 80006da:   a805        add r0, sp, #20
 80006dc:   f000 ff3e   bl  800155c <_ZN6StringC1EPKc>
 80006e0:   0031        movs    r1, r6
 80006e2:   a805        add r0, sp, #20
 80006e4:   f000 ff98   bl  8001618 <_ZplRK15StringSumHelperRK6String>
 80006e8:   4928        ldr r1, [pc, #160]  ; (800078c <loop+0x22c>)
 80006ea:   f000 ffa2   bl  8001632 <_ZplRK15StringSumHelperPKc>
 80006ee:   0029        movs    r1, r5
 80006f0:   f000 ff92   bl  8001618 <_ZplRK15StringSumHelperRK6String>
 80006f4:   0001        movs    r1, r0
 80006f6:   0020        movs    r0, r4
 80006f8:   f000 fe02   bl  8001300 <_ZN5Print7printlnERK6String>
 80006fc:   a805        add r0, sp, #20
 80006fe:   f000 fee3   bl  80014c8 <_ZN6StringD1Ev>
 8000702:   4923        ldr r1, [pc, #140]  ; (8000790 <loop+0x230>)
 8000704:   0030        movs    r0, r6
 8000706:   f000 ffa8   bl  800165a <_ZNK6String6equalsEPKc>
 800070a:   2800        cmp r0, #0
 800070c:   d007        beq.n   800071e <loop+0x1be>
 800070e:   0028        movs    r0, r5
 8000710:   f000 ffb7   bl  8001682 <_ZNK6String5toIntEv>
 8000714:   0001        movs    r1, r0
 8000716:   4818        ldr r0, [pc, #96]   ; (8000778 <loop+0x218>)
 8000718:   f000 f950   bl  80009bc <_ZN5Servo5writeEi>
 800071c:   e7b9        b.n 8000692 <loop+0x132>
 800071e:   491d        ldr r1, [pc, #116]  ; (8000794 <loop+0x234>)
 8000720:   0030        movs    r0, r6
 8000722:   f000 ff9a   bl  800165a <_ZNK6String6equalsEPKc>
 8000726:   2800        cmp r0, #0
 8000728:   d005        beq.n   8000736 <loop+0x1d6>
 800072a:   0028        movs    r0, r5
 800072c:   f000 ffa9   bl  8001682 <_ZNK6String5toIntEv>
 8000730:   0001        movs    r1, r0
 8000732:   4810        ldr r0, [pc, #64]   ; (8000774 <loop+0x214>)
 8000734:   e7f0        b.n 8000718 <loop+0x1b8>
 8000736:   4918        ldr r1, [pc, #96]   ; (8000798 <loop+0x238>)
 8000738:   0020        movs    r0, r4
 800073a:   f000 fdeb   bl  8001314 <_ZN5Print7printlnEPKc>
 800073e:   e7a8        b.n 8000692 <loop+0x132>
 8000740:   00004e20    .word   0x00004e20
 8000744:   200000b4    .word   0x200000b4
 8000748:   200000a0    .word   0x200000a0
 800074c:   20000248    .word   0x20000248
 8000750:   080047c8    .word   0x080047c8
 8000754:   fffffc7b    .word   0xfffffc7b
 8000758:   200000b0    .word   0x200000b0
 800075c:   080047ce    .word   0x080047ce
 8000760:   200000bc    .word   0x200000bc
 8000764:   200000b8    .word   0x200000b8
 8000768:   08004801    .word   0x08004801
 800076c:   080047eb    .word   0x080047eb
 8000770:   080047f7    .word   0x080047f7
 8000774:   200000c3    .word   0x200000c3
 8000778:   200000c0    .word   0x200000c0
 800077c:   08004803    .word   0x08004803
 8000780:   200000a4    .word   0x200000a4
 8000784:   200000c8    .word   0x200000c8
 8000788:   08004824    .word   0x08004824
 800078c:   0800482d    .word   0x0800482d
 8000790:   08004832    .word   0x08004832
 8000794:   08004838    .word   0x08004838
 8000798:   0800483e    .word   0x0800483e

0800079c <_ZL27Servo_PeriodElapsedCallbackP13HardwareTimer>:
 800079c:   b570        push    {r4, r5, r6, lr}
 800079e:   4c2f        ldr r4, [pc, #188]  ; (800085c <_ZL27Servo_PeriodElapsedCallbackP13HardwareTimer+0xc0>)
 80007a0:   4d2f        ldr r5, [pc, #188]  ; (8000860 <_ZL27Servo_PeriodElapsedCallbackP13HardwareTimer+0xc4>)
 80007a2:   7823        ldrb    r3, [r4, #0]
 80007a4:   4e2f        ldr r6, [pc, #188]  ; (8000864 <_ZL27Servo_PeriodElapsedCallbackP13HardwareTimer+0xc8>)
 80007a6:   b25b        sxtb    r3, r3
 80007a8:   2b00        cmp r3, #0
 80007aa:   da17        bge.n   80007dc <_ZL27Servo_PeriodElapsedCallbackP13HardwareTimer+0x40>
 80007ac:   2300        movs    r3, #0
 80007ae:   602b        str r3, [r5, #0]
 80007b0:   7823        ldrb    r3, [r4, #0]
 80007b2:   7832        ldrb    r2, [r6, #0]
 80007b4:   3301        adds    r3, #1
 80007b6:   b25b        sxtb    r3, r3
 80007b8:   7023        strb    r3, [r4, #0]
 80007ba:   7823        ldrb    r3, [r4, #0]
 80007bc:   482a        ldr r0, [pc, #168]  ; (8000868 <_ZL27Servo_PeriodElapsedCallbackP13HardwareTimer+0xcc>)
 80007be:   b25b        sxtb    r3, r3
 80007c0:   4293        cmp r3, r2
 80007c2:   da03        bge.n   80007cc <_ZL27Servo_PeriodElapsedCallbackP13HardwareTimer+0x30>
 80007c4:   7823        ldrb    r3, [r4, #0]
 80007c6:   b25b        sxtb    r3, r3
 80007c8:   2b0b        cmp r3, #11
 80007ca:   dd1d        ble.n   8000808 <_ZL27Servo_PeriodElapsedCallbackP13HardwareTimer+0x6c>
 80007cc:   682b        ldr r3, [r5, #0]
 80007ce:   4a27        ldr r2, [pc, #156]  ; (800086c <_ZL27Servo_PeriodElapsedCallbackP13HardwareTimer+0xd0>)
 80007d0:   3304        adds    r3, #4
 80007d2:   4293        cmp r3, r2
 80007d4:   d939        bls.n   800084a <_ZL27Servo_PeriodElapsedCallbackP13HardwareTimer+0xae>
 80007d6:   f000 fbc8   bl  8000f6a <_ZN13HardwareTimer7refreshEv>
 80007da:   e03c        b.n 8000856 <_ZL27Servo_PeriodElapsedCallbackP13HardwareTimer+0xba>
 80007dc:   7823        ldrb    r3, [r4, #0]
 80007de:   7832        ldrb    r2, [r6, #0]
 80007e0:   b25b        sxtb    r3, r3
 80007e2:   4293        cmp r3, r2
 80007e4:   dae4        bge.n   80007b0 <_ZL27Servo_PeriodElapsedCallbackP13HardwareTimer+0x14>
 80007e6:   7823        ldrb    r3, [r4, #0]
 80007e8:   4a21        ldr r2, [pc, #132]  ; (8000870 <_ZL27Servo_PeriodElapsedCallbackP13HardwareTimer+0xd4>)
 80007ea:   b25b        sxtb    r3, r3
 80007ec:   00db        lsls    r3, r3, #3
 80007ee:   5c9b        ldrb    r3, [r3, r2]
 80007f0:   065b        lsls    r3, r3, #25
 80007f2:   d5dd        bpl.n   80007b0 <_ZL27Servo_PeriodElapsedCallbackP13HardwareTimer+0x14>
 80007f4:   7823        ldrb    r3, [r4, #0]
 80007f6:   2100        movs    r1, #0
 80007f8:   b25b        sxtb    r3, r3
 80007fa:   00db        lsls    r3, r3, #3
 80007fc:   5c98        ldrb    r0, [r3, r2]
 80007fe:   0680        lsls    r0, r0, #26
 8000800:   0e80        lsrs    r0, r0, #26
 8000802:   f003 fd59   bl  80042b8 <digitalWrite>
 8000806:   e7d3        b.n 80007b0 <_ZL27Servo_PeriodElapsedCallbackP13HardwareTimer+0x14>
 8000808:   7823        ldrb    r3, [r4, #0]
 800080a:   4e19        ldr r6, [pc, #100]  ; (8000870 <_ZL27Servo_PeriodElapsedCallbackP13HardwareTimer+0xd4>)
 800080c:   b25b        sxtb    r3, r3
 800080e:   00db        lsls    r3, r3, #3
 8000810:   18f3        adds    r3, r6, r3
 8000812:   6859        ldr r1, [r3, #4]
 8000814:   2200        movs    r2, #0
 8000816:   f000 fcaf   bl  8001178 <_ZN13HardwareTimer11setOverflowEm13TimerFormat_t>
 800081a:   7823        ldrb    r3, [r4, #0]
 800081c:   b25b        sxtb    r3, r3
 800081e:   00db        lsls    r3, r3, #3
 8000820:   18f3        adds    r3, r6, r3
 8000822:   685a        ldr r2, [r3, #4]
 8000824:   682b        ldr r3, [r5, #0]
 8000826:   189b        adds    r3, r3, r2
 8000828:   602b        str r3, [r5, #0]
 800082a:   7823        ldrb    r3, [r4, #0]
 800082c:   b25b        sxtb    r3, r3
 800082e:   00db        lsls    r3, r3, #3
 8000830:   5d9b        ldrb    r3, [r3, r6]
 8000832:   065b        lsls    r3, r3, #25
 8000834:   d508        bpl.n   8000848 <_ZL27Servo_PeriodElapsedCallbackP13HardwareTimer+0xac>
 8000836:   7823        ldrb    r3, [r4, #0]
 8000838:   2101        movs    r1, #1
 800083a:   b25b        sxtb    r3, r3
 800083c:   00db        lsls    r3, r3, #3
 800083e:   5d98        ldrb    r0, [r3, r6]
 8000840:   0680        lsls    r0, r0, #26
 8000842:   0e80        lsrs    r0, r0, #26
 8000844:   f003 fd38   bl  80042b8 <digitalWrite>
 8000848:   bd70        pop {r4, r5, r6, pc}
 800084a:   682b        ldr r3, [r5, #0]
 800084c:   4909        ldr r1, [pc, #36]   ; (8000874 <_ZL27Servo_PeriodElapsedCallbackP13HardwareTimer+0xd8>)
 800084e:   2200        movs    r2, #0
 8000850:   1ac9        subs    r1, r1, r3
 8000852:   f000 fc91   bl  8001178 <_ZN13HardwareTimer11setOverflowEm13TimerFormat_t>
 8000856:   23ff        movs    r3, #255    ; 0xff
 8000858:   7023        strb    r3, [r4, #0]
 800085a:   e7f5        b.n 8000848 <_ZL27Servo_PeriodElapsedCallbackP13HardwareTimer+0xac>
 800085c:   20000000    .word   0x20000000
 8000860:   200000d4    .word   0x200000d4
 8000864:   200000d8    .word   0x200000d8
 8000868:   200000dc    .word   0x200000dc
 800086c:   00004e1f    .word   0x00004e1f
 8000870:   200001e8    .word   0x200001e8
 8000874:   00004e20    .word   0x00004e20

08000878 <_ZN5ServoC1Ev>:
 8000878:   4a07        ldr r2, [pc, #28]   ; (8000898 <_ZN5ServoC1Ev+0x20>)
 800087a:   7813        ldrb    r3, [r2, #0]
 800087c:   2b0b        cmp r3, #11
 800087e:   d808        bhi.n   8000892 <_ZN5ServoC1Ev+0x1a>
 8000880:   1c59        adds    r1, r3, #1
 8000882:   7011        strb    r1, [r2, #0]
 8000884:   4a05        ldr r2, [pc, #20]   ; (800089c <_ZN5ServoC1Ev+0x24>)
 8000886:   7003        strb    r3, [r0, #0]
 8000888:   00db        lsls    r3, r3, #3
 800088a:   18d3        adds    r3, r2, r3
 800088c:   4a04        ldr r2, [pc, #16]   ; (80008a0 <_ZN5ServoC1Ev+0x28>)
 800088e:   605a        str r2, [r3, #4]
 8000890:   4770        bx  lr
 8000892:   23ff        movs    r3, #255    ; 0xff
 8000894:   7003        strb    r3, [r0, #0]
 8000896:   e7fb        b.n 8000890 <_ZN5ServoC1Ev+0x18>
 8000898:   200000d8    .word   0x200000d8
 800089c:   200001e8    .word   0x200001e8
 80008a0:   000005dc    .word   0x000005dc

080008a4 <_ZN5Servo6attachEiii>:
 80008a4:   b5f7        push    {r0, r1, r2, r4, r5, r6, r7, lr}
 80008a6:   9301        str r3, [sp, #4]
 80008a8:   7803        ldrb    r3, [r0, #0]
 80008aa:   0004        movs    r4, r0
 80008ac:   000e        movs    r6, r1
 80008ae:   0017        movs    r7, r2
 80008b0:   2b0b        cmp r3, #11
 80008b2:   d850        bhi.n   8000956 <_ZN5Servo6attachEiii+0xb2>
 80008b4:   2101        movs    r1, #1
 80008b6:   0030        movs    r0, r6
 80008b8:   f003 fcb6   bl  8004228 <pinMode>
 80008bc:   213f        movs    r1, #63 ; 0x3f
 80008be:   0032        movs    r2, r6
 80008c0:   7823        ldrb    r3, [r4, #0]
 80008c2:   4d26        ldr r5, [pc, #152]  ; (800095c <_ZN5Servo6attachEiii+0xb8>)
 80008c4:   00db        lsls    r3, r3, #3
 80008c6:   5d5e        ldrb    r6, [r3, r5]
 80008c8:   400a        ands    r2, r1
 80008ca:   438e        bics    r6, r1
 80008cc:   4316        orrs    r6, r2
 80008ce:   4a24        ldr r2, [pc, #144]  ; (8000960 <_ZN5Servo6attachEiii+0xbc>)
 80008d0:   555e        strb    r6, [r3, r5]
 80008d2:   18eb        adds    r3, r5, r3
 80008d4:   605a        str r2, [r3, #4]
 80008d6:   2388        movs    r3, #136    ; 0x88
 80008d8:   2203        movs    r2, #3
 80008da:   2196        movs    r1, #150    ; 0x96
 80008dc:   009b        lsls    r3, r3, #2
 80008de:   1bdb        subs    r3, r3, r7
 80008e0:   17df        asrs    r7, r3, #31
 80008e2:   4017        ands    r7, r2
 80008e4:   18ff        adds    r7, r7, r3
 80008e6:   9b01        ldr r3, [sp, #4]
 80008e8:   0109        lsls    r1, r1, #4
 80008ea:   1ac9        subs    r1, r1, r3
 80008ec:   17cb        asrs    r3, r1, #31
 80008ee:   4013        ands    r3, r2
 80008f0:   185b        adds    r3, r3, r1
 80008f2:   109b        asrs    r3, r3, #2
 80008f4:   70a3        strb    r3, [r4, #2]
 80008f6:   2300        movs    r3, #0
 80008f8:   10bf        asrs    r7, r7, #2
 80008fa:   7067        strb    r7, [r4, #1]
 80008fc:   00da        lsls    r2, r3, #3
 80008fe:   5caa        ldrb    r2, [r5, r2]
 8000900:   0652        lsls    r2, r2, #25
 8000902:   d422        bmi.n   800094a <_ZN5Servo6attachEiii+0xa6>
 8000904:   3301        adds    r3, #1
 8000906:   2b0c        cmp r3, #12
 8000908:   d1f8        bne.n   80008fc <_ZN5Servo6attachEiii+0x58>
 800090a:   4e16        ldr r6, [pc, #88]   ; (8000964 <_ZN5Servo6attachEiii+0xc0>)
 800090c:   0030        movs    r0, r6
 800090e:   f000 fbff   bl  8001110 <_ZN13HardwareTimer15getTimerClkFreqEv>
 8000912:   2201        movs    r2, #1
 8000914:   2301        movs    r3, #1
 8000916:   0007        movs    r7, r0
 8000918:   425b        negs    r3, r3
 800091a:   0011        movs    r1, r2
 800091c:   0030        movs    r0, r6
 800091e:   f000 fa75   bl  8000e0c <_ZN13HardwareTimer7setModeEm12TimerModes_t7PinName>
 8000922:   4911        ldr r1, [pc, #68]   ; (8000968 <_ZN5Servo6attachEiii+0xc4>)
 8000924:   0038        movs    r0, r7
 8000926:   f7ff fbe7   bl  80000f8 <__udivsi3>
 800092a:   0001        movs    r1, r0
 800092c:   0030        movs    r0, r6
 800092e:   f000 fa65   bl  8000dfc <_ZN13HardwareTimer17setPrescaleFactorEm>
 8000932:   2200        movs    r2, #0
 8000934:   490d        ldr r1, [pc, #52]   ; (800096c <_ZN5Servo6attachEiii+0xc8>)
 8000936:   0030        movs    r0, r6
 8000938:   f000 fc1e   bl  8001178 <_ZN13HardwareTimer11setOverflowEm13TimerFormat_t>
 800093c:   0030        movs    r0, r6
 800093e:   490c        ldr r1, [pc, #48]   ; (8000970 <_ZN5Servo6attachEiii+0xcc>)
 8000940:   f000 fb10   bl  8000f64 <_ZN13HardwareTimer15attachInterruptEPFvPS_E>
 8000944:   0030        movs    r0, r6
 8000946:   f000 fa2f   bl  8000da8 <_ZN13HardwareTimer6resumeEv>
 800094a:   2240        movs    r2, #64 ; 0x40
 800094c:   7823        ldrb    r3, [r4, #0]
 800094e:   00db        lsls    r3, r3, #3
 8000950:   5ce9        ldrb    r1, [r5, r3]
 8000952:   430a        orrs    r2, r1
 8000954:   54ea        strb    r2, [r5, r3]
 8000956:   7820        ldrb    r0, [r4, #0]
 8000958:   bdfe        pop {r1, r2, r3, r4, r5, r6, r7, pc}
 800095a:   46c0        nop         ; (mov r8, r8)
 800095c:   200001e8    .word   0x200001e8
 8000960:   000005dc    .word   0x000005dc
 8000964:   200000dc    .word   0x200000dc
 8000968:   000f4240    .word   0x000f4240
 800096c:   00004e20    .word   0x00004e20
 8000970:   0800079d    .word   0x0800079d

08000974 <_ZN5Servo6attachEi>:
 8000974:   2396        movs    r3, #150    ; 0x96
 8000976:   2288        movs    r2, #136    ; 0x88
 8000978:   b510        push    {r4, lr}
 800097a:   011b        lsls    r3, r3, #4
 800097c:   0092        lsls    r2, r2, #2
 800097e:   f7ff ff91   bl  80008a4 <_ZN5Servo6attachEiii>
 8000982:   bd10        pop {r4, pc}

08000984 <_ZN5Servo17writeMicrosecondsEi>:
 8000984:   7802        ldrb    r2, [r0, #0]
 8000986:   b510        push    {r4, lr}
 8000988:   2a0b        cmp r2, #11
 800098a:   d813        bhi.n   80009b4 <_ZN5Servo17writeMicrosecondsEi+0x30>
 800098c:   2401        movs    r4, #1
 800098e:   2388        movs    r3, #136    ; 0x88
 8000990:   5704        ldrsb   r4, [r0, r4]
 8000992:   1b1b        subs    r3, r3, r4
 8000994:   009b        lsls    r3, r3, #2
 8000996:   428b        cmp r3, r1
 8000998:   dc08        bgt.n   80009ac <_ZN5Servo17writeMicrosecondsEi+0x28>
 800099a:   2396        movs    r3, #150    ; 0x96
 800099c:   7880        ldrb    r0, [r0, #2]
 800099e:   009b        lsls    r3, r3, #2
 80009a0:   b240        sxtb    r0, r0
 80009a2:   1a1b        subs    r3, r3, r0
 80009a4:   009b        lsls    r3, r3, #2
 80009a6:   428b        cmp r3, r1
 80009a8:   dd00        ble.n   80009ac <_ZN5Servo17writeMicrosecondsEi+0x28>
 80009aa:   000b        movs    r3, r1
 80009ac:   4902        ldr r1, [pc, #8]    ; (80009b8 <_ZN5Servo17writeMicrosecondsEi+0x34>)
 80009ae:   00d2        lsls    r2, r2, #3
 80009b0:   188a        adds    r2, r1, r2
 80009b2:   6053        str r3, [r2, #4]
 80009b4:   bd10        pop {r4, pc}
 80009b6:   46c0        nop         ; (mov r8, r8)
 80009b8:   200001e8    .word   0x200001e8

080009bc <_ZN5Servo5writeEi>:
 80009bc:   4b0f        ldr r3, [pc, #60]   ; (80009fc <_ZN5Servo5writeEi+0x40>)
 80009be:   b513        push    {r0, r1, r4, lr}
 80009c0:   0004        movs    r4, r0
 80009c2:   4299        cmp r1, r3
 80009c4:   dc16        bgt.n   80009f4 <_ZN5Servo5writeEi+0x38>
 80009c6:   20b4        movs    r0, #180    ; 0xb4
 80009c8:   29b4        cmp r1, #180    ; 0xb4
 80009ca:   dc02        bgt.n   80009d2 <_ZN5Servo5writeEi+0x16>
 80009cc:   43c8        mvns    r0, r1
 80009ce:   17c0        asrs    r0, r0, #31
 80009d0:   4008        ands    r0, r1
 80009d2:   2201        movs    r2, #1
 80009d4:   2388        movs    r3, #136    ; 0x88
 80009d6:   56a2        ldrsb   r2, [r4, r2]
 80009d8:   2102        movs    r1, #2
 80009da:   1a9b        subs    r3, r3, r2
 80009dc:   2296        movs    r2, #150    ; 0x96
 80009de:   5661        ldrsb   r1, [r4, r1]
 80009e0:   0092        lsls    r2, r2, #2
 80009e2:   1a52        subs    r2, r2, r1
 80009e4:   0092        lsls    r2, r2, #2
 80009e6:   9200        str r2, [sp, #0]
 80009e8:   2100        movs    r1, #0
 80009ea:   009b        lsls    r3, r3, #2
 80009ec:   22b4        movs    r2, #180    ; 0xb4
 80009ee:   f000 fd4f   bl  8001490 <_Z3maplllll>
 80009f2:   0001        movs    r1, r0
 80009f4:   0020        movs    r0, r4
 80009f6:   f7ff ffc5   bl  8000984 <_ZN5Servo17writeMicrosecondsEi>
 80009fa:   bd13        pop {r0, r1, r4, pc}
 80009fc:   0000021f    .word   0x0000021f

08000a00 <_GLOBAL__sub_I_ServoCount>:
 8000a00:   b510        push    {r4, lr}
 8000a02:   4902        ldr r1, [pc, #8]    ; (8000a0c <_GLOBAL__sub_I_ServoCount+0xc>)
 8000a04:   4802        ldr r0, [pc, #8]    ; (8000a10 <_GLOBAL__sub_I_ServoCount+0x10>)
 8000a06:   f000 fb23   bl  8001050 <_ZN13HardwareTimerC1EP11TIM_TypeDef>
 8000a0a:   bd10        pop {r4, pc}
 8000a0c:   40000400    .word   0x40000400
 8000a10:   200000dc    .word   0x200000dc

08000a14 <_GLOBAL__sub_D_ServoCount>:
 8000a14:   b510        push    {r4, lr}
 8000a16:   4802        ldr r0, [pc, #8]    ; (8000a20 <_GLOBAL__sub_D_ServoCount+0xc>)
 8000a18:   f000 fb64   bl  80010e4 <_ZN13HardwareTimerD1Ev>
 8000a1c:   bd10        pop {r4, pc}
 8000a1e:   46c0        nop         ; (mov r8, r8)
 8000a20:   200000dc    .word   0x200000dc

08000a24 <SystemClock_Config>:
 8000a24:   230f        movs    r3, #15
 8000a26:   b530        push    {r4, r5, lr}
 8000a28:   b091        sub sp, #68 ; 0x44
 8000a2a:   9308        str r3, [sp, #32]
 8000a2c:   2300        movs    r3, #0
 8000a2e:   930d        str r3, [sp, #52]   ; 0x34
 8000a30:   930f        str r3, [sp, #60]   ; 0x3c
 8000a32:   23a0        movs    r3, #160    ; 0xa0
 8000a34:   2402        movs    r4, #2
 8000a36:   2501        movs    r5, #1
 8000a38:   039b        lsls    r3, r3, #14
 8000a3a:   a804        add r0, sp, #16
 8000a3c:   9404        str r4, [sp, #16]
 8000a3e:   9507        str r5, [sp, #28]
 8000a40:   940c        str r4, [sp, #48]   ; 0x30
 8000a42:   930e        str r3, [sp, #56]   ; 0x38
 8000a44:   f001 fbc2   bl  80021cc <HAL_RCC_OscConfig>
 8000a48:   2800        cmp r0, #0
 8000a4a:   d000        beq.n   8000a4e <SystemClock_Config+0x2a>
 8000a4c:   e7fe        b.n 8000a4c <SystemClock_Config+0x28>
 8000a4e:   2307        movs    r3, #7
 8000a50:   9002        str r0, [sp, #8]
 8000a52:   9003        str r0, [sp, #12]
 8000a54:   0029        movs    r1, r5
 8000a56:   4668        mov r0, sp
 8000a58:   9300        str r3, [sp, #0]
 8000a5a:   9401        str r4, [sp, #4]
 8000a5c:   f001 fdca   bl  80025f4 <HAL_RCC_ClockConfig>
 8000a60:   2800        cmp r0, #0
 8000a62:   d000        beq.n   8000a66 <SystemClock_Config+0x42>
 8000a64:   e7fe        b.n 8000a64 <SystemClock_Config+0x40>
 8000a66:   b011        add sp, #68 ; 0x44
 8000a68:   bd30        pop {r4, r5, pc}

08000a6a <_ZN14HardwareSerial16_tx_complete_irqEP8serial_s>:
 8000a6a:   0002        movs    r2, r0
 8000a6c:   213f        movs    r1, #63 ; 0x3f
 8000a6e:   3292        adds    r2, #146    ; 0x92
 8000a70:   8813        ldrh    r3, [r2, #0]
 8000a72:   308e        adds    r0, #142    ; 0x8e
 8000a74:   3301        adds    r3, #1
 8000a76:   400b        ands    r3, r1
 8000a78:   8013        strh    r3, [r2, #0]
 8000a7a:   8813        ldrh    r3, [r2, #0]
 8000a7c:   8800        ldrh    r0, [r0, #0]
 8000a7e:   1ac0        subs    r0, r0, r3
 8000a80:   4243        negs    r3, r0
 8000a82:   4158        adcs    r0, r3
 8000a84:   4240        negs    r0, r0
 8000a86:   4770        bx  lr

08000a88 <_ZN14HardwareSerial9availableEv>:
 8000a88:   30fe        adds    r0, #254    ; 0xfe
 8000a8a:   8cc3        ldrh    r3, [r0, #38]   ; 0x26
 8000a8c:   8c40        ldrh    r0, [r0, #34]   ; 0x22
 8000a8e:   3340        adds    r3, #64 ; 0x40
 8000a90:   1a18        subs    r0, r3, r0
 8000a92:   233f        movs    r3, #63 ; 0x3f
 8000a94:   4018        ands    r0, r3
 8000a96:   4770        bx  lr

08000a98 <_ZN14HardwareSerial4peekEv>:
 8000a98:   0003        movs    r3, r0
 8000a9a:   33fe        adds    r3, #254    ; 0xfe
 8000a9c:   8cda        ldrh    r2, [r3, #38]   ; 0x26
 8000a9e:   8c5b        ldrh    r3, [r3, #34]   ; 0x22
 8000aa0:   429a        cmp r2, r3
 8000aa2:   d003        beq.n   8000aac <_ZN14HardwareSerial4peekEv+0x14>
 8000aa4:   30fc        adds    r0, #252    ; 0xfc
 8000aa6:   69c2        ldr r2, [r0, #28]
 8000aa8:   5cd0        ldrb    r0, [r2, r3]
 8000aaa:   4770        bx  lr
 8000aac:   2001        movs    r0, #1
 8000aae:   4240        negs    r0, r0
 8000ab0:   e7fb        b.n 8000aaa <_ZN14HardwareSerial4peekEv+0x12>

08000ab2 <_ZN14HardwareSerial4readEv>:
 8000ab2:   0002        movs    r2, r0
 8000ab4:   32fe        adds    r2, #254    ; 0xfe
 8000ab6:   8cd1        ldrh    r1, [r2, #38]   ; 0x26
 8000ab8:   8c53        ldrh    r3, [r2, #34]   ; 0x22
 8000aba:   4299        cmp r1, r3
 8000abc:   d007        beq.n   8000ace <_ZN14HardwareSerial4readEv+0x1c>
 8000abe:   30fc        adds    r0, #252    ; 0xfc
 8000ac0:   69c1        ldr r1, [r0, #28]
 8000ac2:   5cc8        ldrb    r0, [r1, r3]
 8000ac4:   213f        movs    r1, #63 ; 0x3f
 8000ac6:   3301        adds    r3, #1
 8000ac8:   400b        ands    r3, r1
 8000aca:   8453        strh    r3, [r2, #34]   ; 0x22
 8000acc:   4770        bx  lr
 8000ace:   2001        movs    r0, #1
 8000ad0:   4240        negs    r0, r0
 8000ad2:   e7fb        b.n 8000acc <_ZN14HardwareSerial4readEv+0x1a>

08000ad4 <_ZN14HardwareSerial16_rx_complete_irqEP8serial_s>:
 8000ad4:   b537        push    {r0, r1, r2, r4, r5, lr}
 8000ad6:   466b        mov r3, sp
 8000ad8:   1ddd        adds    r5, r3, #7
 8000ada:   0029        movs    r1, r5
 8000adc:   0004        movs    r4, r0
 8000ade:   f003 fac3   bl  8004068 <uart_getc>
 8000ae2:   2800        cmp r0, #0
 8000ae4:   d111        bne.n   8000b0a <_ZN14HardwareSerial16_rx_complete_irqEP8serial_s+0x36>
 8000ae6:   0022        movs    r2, r4
 8000ae8:   213f        movs    r1, #63 ; 0x3f
 8000aea:   3290        adds    r2, #144    ; 0x90
 8000aec:   8813        ldrh    r3, [r2, #0]
 8000aee:   3301        adds    r3, #1
 8000af0:   400b        ands    r3, r1
 8000af2:   0021        movs    r1, r4
 8000af4:   318c        adds    r1, #140    ; 0x8c
 8000af6:   8809        ldrh    r1, [r1, #0]
 8000af8:   428b        cmp r3, r1
 8000afa:   d006        beq.n   8000b0a <_ZN14HardwareSerial16_rx_complete_irqEP8serial_s+0x36>
 8000afc:   3408        adds    r4, #8
 8000afe:   8811        ldrh    r1, [r2, #0]
 8000b00:   6fe0        ldr r0, [r4, #124]  ; 0x7c
 8000b02:   782d        ldrb    r5, [r5, #0]
 8000b04:   b29b        uxth    r3, r3
 8000b06:   5445        strb    r5, [r0, r1]
 8000b08:   8013        strh    r3, [r2, #0]
 8000b0a:   bd37        pop {r0, r1, r2, r4, r5, pc}

08000b0c <_ZN14HardwareSerial5writeEh>:
 8000b0c:   2301        movs    r3, #1
 8000b0e:   0002        movs    r2, r0
 8000b10:   b570        push    {r4, r5, r6, lr}
 8000b12:   253f        movs    r5, #63 ; 0x3f
 8000b14:   7403        strb    r3, [r0, #16]
 8000b16:   32fe        adds    r2, #254    ; 0xfe
 8000b18:   8c94        ldrh    r4, [r2, #36]   ; 0x24
 8000b1a:   18e3        adds    r3, r4, r3
 8000b1c:   402b        ands    r3, r5
 8000b1e:   8d15        ldrh    r5, [r2, #40]   ; 0x28
 8000b20:   42ab        cmp r3, r5
 8000b22:   d0fc        beq.n   8000b1e <_ZN14HardwareSerial5writeEh+0x12>
 8000b24:   0005        movs    r5, r0
 8000b26:   35fc        adds    r5, #252    ; 0xfc
 8000b28:   6a2d        ldr r5, [r5, #32]
 8000b2a:   3094        adds    r0, #148    ; 0x94
 8000b2c:   5529        strb    r1, [r5, r4]
 8000b2e:   8493        strh    r3, [r2, #36]   ; 0x24
 8000b30:   0004        movs    r4, r0
 8000b32:   f003 fa87   bl  8004044 <serial_tx_active>
 8000b36:   2800        cmp r0, #0
 8000b38:   d103        bne.n   8000b42 <_ZN14HardwareSerial5writeEh+0x36>
 8000b3a:   4903        ldr r1, [pc, #12]   ; (8000b48 <_ZN14HardwareSerial5writeEh+0x3c>)
 8000b3c:   0020        movs    r0, r4
 8000b3e:   f003 fad7   bl  80040f0 <uart_attach_tx_callback>
 8000b42:   2001        movs    r0, #1
 8000b44:   bd70        pop {r4, r5, r6, pc}
 8000b46:   46c0        nop         ; (mov r8, r8)
 8000b48:   08000a6b    .word   0x08000a6b

08000b4c <_ZN14HardwareSerial5flushEv>:
 8000b4c:   7c03        ldrb    r3, [r0, #16]
 8000b4e:   2b00        cmp r3, #0
 8000b50:   d004        beq.n   8000b5c <_ZN14HardwareSerial5flushEv+0x10>
 8000b52:   30fe        adds    r0, #254    ; 0xfe
 8000b54:   8c82        ldrh    r2, [r0, #36]   ; 0x24
 8000b56:   8d03        ldrh    r3, [r0, #40]   ; 0x28
 8000b58:   429a        cmp r2, r3
 8000b5a:   d1fc        bne.n   8000b56 <_ZN14HardwareSerial5flushEv+0xa>
 8000b5c:   4770        bx  lr

08000b5e <_ZN14HardwareSerial4initEv>:
 8000b5e:   0002        movs    r2, r0
 8000b60:   0003        movs    r3, r0
 8000b62:   32fc        adds    r2, #252    ; 0xfc
 8000b64:   3311        adds    r3, #17
 8000b66:   0001        movs    r1, r0
 8000b68:   61d3        str r3, [r2, #28]
 8000b6a:   2300        movs    r3, #0
 8000b6c:   31fe        adds    r1, #254    ; 0xfe
 8000b6e:   3051        adds    r0, #81 ; 0x51
 8000b70:   84cb        strh    r3, [r1, #38]   ; 0x26
 8000b72:   6210        str r0, [r2, #32]
 8000b74:   6253        str r3, [r2, #36]   ; 0x24
 8000b76:   850b        strh    r3, [r1, #40]   ; 0x28
 8000b78:   4770        bx  lr
    ...

08000b7c <_ZN14HardwareSerialC1EPv>:
 8000b7c:   2300        movs    r3, #0
 8000b7e:   b570        push    {r4, r5, r6, lr}
 8000b80:   6043        str r3, [r0, #4]
 8000b82:   23fa        movs    r3, #250    ; 0xfa
 8000b84:   0005        movs    r5, r0
 8000b86:   009b        lsls    r3, r3, #2
 8000b88:   6083        str r3, [r0, #8]
 8000b8a:   4b0f        ldr r3, [pc, #60]   ; (8000bc8 <_ZN14HardwareSerialC1EPv+0x4c>)
 8000b8c:   0004        movs    r4, r0
 8000b8e:   3308        adds    r3, #8
 8000b90:   6003        str r3, [r0, #0]
 8000b92:   4b0e        ldr r3, [pc, #56]   ; (8000bcc <_ZN14HardwareSerialC1EPv+0x50>)
 8000b94:   000e        movs    r6, r1
 8000b96:   35fe        adds    r5, #254    ; 0xfe
 8000b98:   4298        cmp r0, r3
 8000b9a:   d109        bne.n   8000bb0 <_ZN14HardwareSerialC1EPv+0x34>
 8000b9c:   4b0c        ldr r3, [pc, #48]   ; (8000bd0 <_ZN14HardwareSerialC1EPv+0x54>)
 8000b9e:   881a        ldrh    r2, [r3, #0]
 8000ba0:   82aa        strh    r2, [r5, #20]
 8000ba2:   885b        ldrh    r3, [r3, #2]
 8000ba4:   826b        strh    r3, [r5, #18]
 8000ba6:   0020        movs    r0, r4
 8000ba8:   f7ff ffd9   bl  8000b5e <_ZN14HardwareSerial4initEv>
 8000bac:   0020        movs    r0, r4
 8000bae:   bd70        pop {r4, r5, r6, pc}
 8000bb0:   4908        ldr r1, [pc, #32]   ; (8000bd4 <_ZN14HardwareSerialC1EPv+0x58>)
 8000bb2:   0030        movs    r0, r6
 8000bb4:   f002 ff8a   bl  8003acc <pinmap_pin>
 8000bb8:   4907        ldr r1, [pc, #28]   ; (8000bd8 <_ZN14HardwareSerialC1EPv+0x5c>)
 8000bba:   82a8        strh    r0, [r5, #20]
 8000bbc:   0030        movs    r0, r6
 8000bbe:   f002 ff85   bl  8003acc <pinmap_pin>
 8000bc2:   8268        strh    r0, [r5, #18]
 8000bc4:   e7ef        b.n 8000ba6 <_ZN14HardwareSerialC1EPv+0x2a>
 8000bc6:   46c0        nop         ; (mov r8, r8)
 8000bc8:   08004b14    .word   0x08004b14
 8000bcc:   20000248    .word   0x20000248
 8000bd0:   08004a38    .word   0x08004a38
 8000bd4:   080049c0    .word   0x080049c0
 8000bd8:   080049fc    .word   0x080049fc

08000bdc <_ZN14HardwareSerial5beginEmh>:
 8000bdc:   0003        movs    r3, r0
 8000bde:   33fc        adds    r3, #252    ; 0xfc
 8000be0:   b5f0        push    {r4, r5, r6, r7, lr}
 8000be2:   6319        str r1, [r3, #48]   ; 0x30
 8000be4:   2394        movs    r3, #148    ; 0x94
 8000be6:   005b        lsls    r3, r3, #1
 8000be8:   54c2        strb    r2, [r0, r3]
 8000bea:   3b22        subs    r3, #34 ; 0x22
 8000bec:   3bff        subs    r3, #255    ; 0xff
 8000bee:   4013        ands    r3, r2
 8000bf0:   3b02        subs    r3, #2
 8000bf2:   b2db        uxtb    r3, r3
 8000bf4:   b085        sub sp, #20
 8000bf6:   0005        movs    r5, r0
 8000bf8:   000f        movs    r7, r1
 8000bfa:   2400        movs    r4, #0
 8000bfc:   2b04        cmp r3, #4
 8000bfe:   d801        bhi.n   8000c04 <_ZN14HardwareSerial5beginEmh+0x28>
 8000c00:   4917        ldr r1, [pc, #92]   ; (8000c60 <_ZN14HardwareSerial5beginEmh+0x84>)
 8000c02:   5ccc        ldrb    r4, [r1, r3]
 8000c04:   2330        movs    r3, #48 ; 0x30
 8000c06:   4013        ands    r3, r2
 8000c08:   2b30        cmp r3, #48 ; 0x30
 8000c0a:   d11e        bne.n   8000c4a <_ZN14HardwareSerial5beginEmh+0x6e>
 8000c0c:   26c0        movs    r6, #192    ; 0xc0
 8000c0e:   3401        adds    r4, #1
 8000c10:   00f6        lsls    r6, r6, #3
 8000c12:   0712        lsls    r2, r2, #28
 8000c14:   0fd2        lsrs    r2, r2, #31
 8000c16:   0353        lsls    r3, r2, #13
 8000c18:   9303        str r3, [sp, #12]
 8000c1a:   2c08        cmp r4, #8
 8000c1c:   d01b        beq.n   8000c56 <_ZN14HardwareSerial5beginEmh+0x7a>
 8000c1e:   2c09        cmp r4, #9
 8000c20:   d01b        beq.n   8000c5a <_ZN14HardwareSerial5beginEmh+0x7e>
 8000c22:   215a        movs    r1, #90 ; 0x5a
 8000c24:   480f        ldr r0, [pc, #60]   ; (8000c64 <_ZN14HardwareSerial5beginEmh+0x88>)
 8000c26:   31ff        adds    r1, #255    ; 0xff
 8000c28:   f002 ffb5   bl  8003b96 <_Error_Handler>
 8000c2c:   9b03        ldr r3, [sp, #12]
 8000c2e:   3594        adds    r5, #148    ; 0x94
 8000c30:   9300        str r3, [sp, #0]
 8000c32:   0022        movs    r2, r4
 8000c34:   0033        movs    r3, r6
 8000c36:   0039        movs    r1, r7
 8000c38:   0028        movs    r0, r5
 8000c3a:   f003 f9e9   bl  8004010 <uart_init>
 8000c3e:   490a        ldr r1, [pc, #40]   ; (8000c68 <_ZN14HardwareSerial5beginEmh+0x8c>)
 8000c40:   0028        movs    r0, r5
 8000c42:   f003 fa2d   bl  80040a0 <uart_attach_rx_callback>
 8000c46:   b005        add sp, #20
 8000c48:   bdf0        pop {r4, r5, r6, r7, pc}
 8000c4a:   2600        movs    r6, #0
 8000c4c:   0693        lsls    r3, r2, #26
 8000c4e:   d5e0        bpl.n   8000c12 <_ZN14HardwareSerial5beginEmh+0x36>
 8000c50:   3401        adds    r4, #1
 8000c52:   2680        movs    r6, #128    ; 0x80
 8000c54:   e7dc        b.n 8000c10 <_ZN14HardwareSerial5beginEmh+0x34>
 8000c56:   2400        movs    r4, #0
 8000c58:   e7e8        b.n 8000c2c <_ZN14HardwareSerial5beginEmh+0x50>
 8000c5a:   2480        movs    r4, #128    ; 0x80
 8000c5c:   0164        lsls    r4, r4, #5
 8000c5e:   e7e5        b.n 8000c2c <_ZN14HardwareSerial5beginEmh+0x50>
 8000c60:   08004ab2    .word   0x08004ab2
 8000c64:   08004ab7    .word   0x08004ab7
 8000c68:   08000ad5    .word   0x08000ad5

08000c6c <_GLOBAL__sub_I_Serial2>:
 8000c6c:   b510        push    {r4, lr}
 8000c6e:   4902        ldr r1, [pc, #8]    ; (8000c78 <_GLOBAL__sub_I_Serial2+0xc>)
 8000c70:   4802        ldr r0, [pc, #8]    ; (8000c7c <_GLOBAL__sub_I_Serial2+0x10>)
 8000c72:   f7ff ff83   bl  8000b7c <_ZN14HardwareSerialC1EPv>
 8000c76:   bd10        pop {r4, pc}
 8000c78:   40004400    .word   0x40004400
 8000c7c:   20000248    .word   0x20000248

08000c80 <_ZN13HardwareTimer13resumeChannelEm>:
 8000c80:   b5f7        push    {r0, r1, r2, r4, r5, r6, r7, lr}
 8000c82:   1e4b        subs    r3, r1, #1
 8000c84:   0005        movs    r5, r0
 8000c86:   000c        movs    r4, r1
 8000c88:   9301        str r3, [sp, #4]
 8000c8a:   2b03        cmp r3, #3
 8000c8c:   d824        bhi.n   8000cd8 <_ZN13HardwareTimer13resumeChannelEm+0x58>
 8000c8e:   4b43        ldr r3, [pc, #268]  ; (8000d9c <_ZN13HardwareTimer13resumeChannelEm+0x11c>)
 8000c90:   1e4a        subs    r2, r1, #1
 8000c92:   5c9e        ldrb    r6, [r3, r2]
 8000c94:   211c        movs    r1, #28
 8000c96:   1e63        subs    r3, r4, #1
 8000c98:   4359        muls    r1, r3
 8000c9a:   594b        ldr r3, [r1, r5]
 8000c9c:   2210        movs    r2, #16
 8000c9e:   0018        movs    r0, r3
 8000ca0:   4390        bics    r0, r2
 8000ca2:   2860        cmp r0, #96 ; 0x60
 8000ca4:   d12d        bne.n   8000d02 <_ZN13HardwareTimer13resumeChannelEm+0x82>
 8000ca6:   002f        movs    r7, r5
 8000ca8:   37b4        adds    r7, #180    ; 0xb4
 8000caa:   1869        adds    r1, r5, r1
 8000cac:   0032        movs    r2, r6
 8000cae:   0038        movs    r0, r7
 8000cb0:   f001 ffea   bl  8002c88 <HAL_TIM_PWM_ConfigChannel>
 8000cb4:   192b        adds    r3, r5, r4
 8000cb6:   33ff        adds    r3, #255    ; 0xff
 8000cb8:   2c04        cmp r4, #4
 8000cba:   d817        bhi.n   8000cec <_ZN13HardwareTimer13resumeChannelEm+0x6c>
 8000cbc:   343c        adds    r4, #60 ; 0x3c
 8000cbe:   00a4        lsls    r4, r4, #2
 8000cc0:   192d        adds    r5, r5, r4
 8000cc2:   686a        ldr r2, [r5, #4]
 8000cc4:   2a00        cmp r2, #0
 8000cc6:   d011        beq.n   8000cec <_ZN13HardwareTimer13resumeChannelEm+0x6c>
 8000cc8:   7a5b        ldrb    r3, [r3, #9]
 8000cca:   0031        movs    r1, r6
 8000ccc:   0038        movs    r0, r7
 8000cce:   2b00        cmp r3, #0
 8000cd0:   d009        beq.n   8000ce6 <_ZN13HardwareTimer13resumeChannelEm+0x66>
 8000cd2:   f002 fa06   bl  80030e2 <HAL_TIMEx_PWMN_Start_IT>
 8000cd6:   bdf7        pop {r0, r1, r2, r4, r5, r6, r7, pc}
 8000cd8:   2601        movs    r6, #1
 8000cda:   21ae        movs    r1, #174    ; 0xae
 8000cdc:   4830        ldr r0, [pc, #192]  ; (8000da0 <_ZN13HardwareTimer13resumeChannelEm+0x120>)
 8000cde:   f002 ff5a   bl  8003b96 <_Error_Handler>
 8000ce2:   4276        negs    r6, r6
 8000ce4:   e7d6        b.n 8000c94 <_ZN13HardwareTimer13resumeChannelEm+0x14>
 8000ce6:   f002 f973   bl  8002fd0 <HAL_TIM_PWM_Start_IT>
 8000cea:   e7f4        b.n 8000cd6 <_ZN13HardwareTimer13resumeChannelEm+0x56>
 8000cec:   7a5b        ldrb    r3, [r3, #9]
 8000cee:   0031        movs    r1, r6
 8000cf0:   0038        movs    r0, r7
 8000cf2:   2b00        cmp r3, #0
 8000cf4:   d002        beq.n   8000cfc <_ZN13HardwareTimer13resumeChannelEm+0x7c>
 8000cf6:   f002 f9f0   bl  80030da <HAL_TIMEx_PWMN_Start>
 8000cfa:   e7ec        b.n 8000cd6 <_ZN13HardwareTimer13resumeChannelEm+0x56>
 8000cfc:   f002 f924   bl  8002f48 <HAL_TIM_PWM_Start>
 8000d00:   e7e9        b.n 8000cd6 <_ZN13HardwareTimer13resumeChannelEm+0x56>
 8000d02:   2130        movs    r1, #48 ; 0x30
 8000d04:   438b        bics    r3, r1
 8000d06:   d001        beq.n   8000d0c <_ZN13HardwareTimer13resumeChannelEm+0x8c>
 8000d08:   2840        cmp r0, #64 ; 0x40
 8000d0a:   d129        bne.n   8000d60 <_ZN13HardwareTimer13resumeChannelEm+0xe0>
 8000d0c:   211c        movs    r1, #28
 8000d0e:   002f        movs    r7, r5
 8000d10:   1e63        subs    r3, r4, #1
 8000d12:   4359        muls    r1, r3
 8000d14:   37b4        adds    r7, #180    ; 0xb4
 8000d16:   1869        adds    r1, r5, r1
 8000d18:   0032        movs    r2, r6
 8000d1a:   0038        movs    r0, r7
 8000d1c:   f001 ff86   bl  8002c2c <HAL_TIM_OC_ConfigChannel>
 8000d20:   192b        adds    r3, r5, r4
 8000d22:   33ff        adds    r3, #255    ; 0xff
 8000d24:   2c04        cmp r4, #4
 8000d26:   d810        bhi.n   8000d4a <_ZN13HardwareTimer13resumeChannelEm+0xca>
 8000d28:   343c        adds    r4, #60 ; 0x3c
 8000d2a:   00a4        lsls    r4, r4, #2
 8000d2c:   192d        adds    r5, r5, r4
 8000d2e:   686a        ldr r2, [r5, #4]
 8000d30:   2a00        cmp r2, #0
 8000d32:   d00a        beq.n   8000d4a <_ZN13HardwareTimer13resumeChannelEm+0xca>
 8000d34:   7a5b        ldrb    r3, [r3, #9]
 8000d36:   0031        movs    r1, r6
 8000d38:   0038        movs    r0, r7
 8000d3a:   2b00        cmp r3, #0
 8000d3c:   d002        beq.n   8000d44 <_ZN13HardwareTimer13resumeChannelEm+0xc4>
 8000d3e:   f002 f99c   bl  800307a <HAL_TIMEx_OCN_Start_IT>
 8000d42:   e7c8        b.n 8000cd6 <_ZN13HardwareTimer13resumeChannelEm+0x56>
 8000d44:   f002 f904   bl  8002f50 <HAL_TIM_OC_Start_IT>
 8000d48:   e7c5        b.n 8000cd6 <_ZN13HardwareTimer13resumeChannelEm+0x56>
 8000d4a:   7a5b        ldrb    r3, [r3, #9]
 8000d4c:   0031        movs    r1, r6
 8000d4e:   0038        movs    r0, r7
 8000d50:   2b00        cmp r3, #0
 8000d52:   d002        beq.n   8000d5a <_ZN13HardwareTimer13resumeChannelEm+0xda>
 8000d54:   f002 f97f   bl  8003056 <HAL_TIMEx_OCN_Start>
 8000d58:   e7bd        b.n 8000cd6 <_ZN13HardwareTimer13resumeChannelEm+0x56>
 8000d5a:   f002 f8cf   bl  8002efc <HAL_TIM_OC_Start>
 8000d5e:   e7ba        b.n 8000cd6 <_ZN13HardwareTimer13resumeChannelEm+0x56>
 8000d60:   1da1        adds    r1, r4, #6
 8000d62:   0109        lsls    r1, r1, #4
 8000d64:   4b0f        ldr r3, [pc, #60]   ; (8000da4 <_ZN13HardwareTimer13resumeChannelEm+0x124>)
 8000d66:   594a        ldr r2, [r1, r5]
 8000d68:   429a        cmp r2, r3
 8000d6a:   d0b4        beq.n   8000cd6 <_ZN13HardwareTimer13resumeChannelEm+0x56>
 8000d6c:   002f        movs    r7, r5
 8000d6e:   1da1        adds    r1, r4, #6
 8000d70:   343c        adds    r4, #60 ; 0x3c
 8000d72:   37b4        adds    r7, #180    ; 0xb4
 8000d74:   0109        lsls    r1, r1, #4
 8000d76:   00a4        lsls    r4, r4, #2
 8000d78:   1869        adds    r1, r5, r1
 8000d7a:   0032        movs    r2, r6
 8000d7c:   0038        movs    r0, r7
 8000d7e:   192d        adds    r5, r5, r4
 8000d80:   f002 f814   bl  8002dac <HAL_TIM_IC_ConfigChannel>
 8000d84:   686b        ldr r3, [r5, #4]
 8000d86:   0031        movs    r1, r6
 8000d88:   0038        movs    r0, r7
 8000d8a:   2b00        cmp r3, #0
 8000d8c:   d002        beq.n   8000d94 <_ZN13HardwareTimer13resumeChannelEm+0x114>
 8000d8e:   f002 f930   bl  8002ff2 <HAL_TIM_IC_Start_IT>
 8000d92:   e7a0        b.n 8000cd6 <_ZN13HardwareTimer13resumeChannelEm+0x56>
 8000d94:   f002 f920   bl  8002fd8 <HAL_TIM_IC_Start>
 8000d98:   e79d        b.n 8000cd6 <_ZN13HardwareTimer13resumeChannelEm+0x56>
 8000d9a:   46c0        nop         ; (mov r8, r8)
 8000d9c:   08004b3c    .word   0x08004b3c
 8000da0:   08004b40    .word   0x08004b40
 8000da4:   0000ffff    .word   0x0000ffff

08000da8 <_ZN13HardwareTimer6resumeEv>:
 8000da8:   b570        push    {r4, r5, r6, lr}
 8000daa:   0002        movs    r2, r0
 8000dac:   0005        movs    r5, r0
 8000dae:   2300        movs    r3, #0
 8000db0:   0004        movs    r4, r0
 8000db2:   32bc        adds    r2, #188    ; 0xbc
 8000db4:   35b4        adds    r5, #180    ; 0xb4
 8000db6:   6013        str r3, [r2, #0]
 8000db8:   6093        str r3, [r2, #8]
 8000dba:   60d3        str r3, [r2, #12]
 8000dbc:   6113        str r3, [r2, #16]
 8000dbe:   0028        movs    r0, r5
 8000dc0:   f001 fed8   bl  8002b74 <HAL_TIM_Base_Init>
 8000dc4:   0023        movs    r3, r4
 8000dc6:   33f4        adds    r3, #244    ; 0xf4
 8000dc8:   681b        ldr r3, [r3, #0]
 8000dca:   0028        movs    r0, r5
 8000dcc:   2b00        cmp r3, #0
 8000dce:   d012        beq.n   8000df6 <_ZN13HardwareTimer6resumeEv+0x4e>
 8000dd0:   f001 fdc4   bl  800295c <HAL_TIM_Base_Start_IT>
 8000dd4:   0020        movs    r0, r4
 8000dd6:   2101        movs    r1, #1
 8000dd8:   f7ff ff52   bl  8000c80 <_ZN13HardwareTimer13resumeChannelEm>
 8000ddc:   0020        movs    r0, r4
 8000dde:   2102        movs    r1, #2
 8000de0:   f7ff ff4e   bl  8000c80 <_ZN13HardwareTimer13resumeChannelEm>
 8000de4:   0020        movs    r0, r4
 8000de6:   2103        movs    r1, #3
 8000de8:   f7ff ff4a   bl  8000c80 <_ZN13HardwareTimer13resumeChannelEm>
 8000dec:   2104        movs    r1, #4
 8000dee:   0020        movs    r0, r4
 8000df0:   f7ff ff46   bl  8000c80 <_ZN13HardwareTimer13resumeChannelEm>
 8000df4:   bd70        pop {r4, r5, r6, pc}
 8000df6:   f001 fda5   bl  8002944 <HAL_TIM_Base_Start>
 8000dfa:   e7eb        b.n 8000dd4 <_ZN13HardwareTimer6resumeEv+0x2c>

08000dfc <_ZN13HardwareTimer17setPrescaleFactorEm>:
 8000dfc:   0003        movs    r3, r0
 8000dfe:   33b4        adds    r3, #180    ; 0xb4
 8000e00:   681b        ldr r3, [r3, #0]
 8000e02:   3901        subs    r1, #1
 8000e04:   30b8        adds    r0, #184    ; 0xb8
 8000e06:   6299        str r1, [r3, #40]   ; 0x28
 8000e08:   6001        str r1, [r0, #0]
 8000e0a:   4770        bx  lr

08000e0c <_ZN13HardwareTimer7setModeEm12TimerModes_t7PinName>:
 8000e0c:   b5f7        push    {r0, r1, r2, r4, r5, r6, r7, lr}
 8000e0e:   1e4d        subs    r5, r1, #1
 8000e10:   0004        movs    r4, r0
 8000e12:   000f        movs    r7, r1
 8000e14:   9201        str r2, [sp, #4]
 8000e16:   001e        movs    r6, r3
 8000e18:   2d03        cmp r5, #3
 8000e1a:   d904        bls.n   8000e26 <_ZN13HardwareTimer7setModeEm12TimerModes_t7PinName+0x1a>
 8000e1c:   21ca        movs    r1, #202    ; 0xca
 8000e1e:   484d        ldr r0, [pc, #308]  ; (8000f54 <_ZN13HardwareTimer7setModeEm12TimerModes_t7PinName+0x148>)
 8000e20:   0049        lsls    r1, r1, #1
 8000e22:   f002 feb8   bl  8003b96 <_Error_Handler>
 8000e26:   9b01        ldr r3, [sp, #4]
 8000e28:   2b0c        cmp r3, #12
 8000e2a:   d811        bhi.n   8000e50 <_ZN13HardwareTimer7setModeEm12TimerModes_t7PinName+0x44>
 8000e2c:   0018        movs    r0, r3
 8000e2e:   4a4a        ldr r2, [pc, #296]  ; (8000f58 <_ZN13HardwareTimer7setModeEm12TimerModes_t7PinName+0x14c>)
 8000e30:   231c        movs    r3, #28
 8000e32:   f7ff f957   bl  80000e4 <__gnu_thumb1_case_uqi>
 8000e36:   077e        .short  0x077e
 8000e38:   2f2c2929    .word   0x2f2c2929
 8000e3c:   3b383532    .word   0x3b383532
 8000e40:   4642        .short  0x4642
 8000e42:   4d              .byte   0x4d
 8000e43:   00              .byte   0x00
 8000e44:   2100        movs    r1, #0
 8000e46:   436b        muls    r3, r5
 8000e48:   5119        str r1, [r3, r4]
 8000e4a:   1deb        adds    r3, r5, #7
 8000e4c:   011b        lsls    r3, r3, #4
 8000e4e:   511a        str r2, [r3, r4]
 8000e50:   1c73        adds    r3, r6, #1
 8000e52:   d018        beq.n   8000e86 <_ZN13HardwareTimer7setModeEm12TimerModes_t7PinName+0x7a>
 8000e54:   0030        movs    r0, r6
 8000e56:   f002 fc77   bl  8003748 <get_pwm_channel>
 8000e5a:   2d03        cmp r5, #3
 8000e5c:   d900        bls.n   8000e60 <_ZN13HardwareTimer7setModeEm12TimerModes_t7PinName+0x54>
 8000e5e:   e070        b.n 8000f42 <_ZN13HardwareTimer7setModeEm12TimerModes_t7PinName+0x136>
 8000e60:   4b3e        ldr r3, [pc, #248]  ; (8000f5c <_ZN13HardwareTimer7setModeEm12TimerModes_t7PinName+0x150>)
 8000e62:   5d5b        ldrb    r3, [r3, r5]
 8000e64:   4d3e        ldr r5, [pc, #248]  ; (8000f60 <_ZN13HardwareTimer7setModeEm12TimerModes_t7PinName+0x154>)
 8000e66:   4298        cmp r0, r3
 8000e68:   d000        beq.n   8000e6c <_ZN13HardwareTimer7setModeEm12TimerModes_t7PinName+0x60>
 8000e6a:   e06d        b.n 8000f48 <_ZN13HardwareTimer7setModeEm12TimerModes_t7PinName+0x13c>
 8000e6c:   0029        movs    r1, r5
 8000e6e:   0030        movs    r0, r6
 8000e70:   f002 fdf4   bl  8003a5c <pinmap_pinout>
 8000e74:   0029        movs    r1, r5
 8000e76:   0030        movs    r0, r6
 8000e78:   f002 fe3d   bl  8003af6 <pinmap_function>
 8000e7c:   19e4        adds    r4, r4, r7
 8000e7e:   02c0        lsls    r0, r0, #11
 8000e80:   34ff        adds    r4, #255    ; 0xff
 8000e82:   0fc0        lsrs    r0, r0, #31
 8000e84:   7260        strb    r0, [r4, #9]
 8000e86:   bdf7        pop {r0, r1, r2, r4, r5, r6, r7, pc}
 8000e88:   436b        muls    r3, r5
 8000e8a:   2110        movs    r1, #16
 8000e8c:   e7dc        b.n 8000e48 <_ZN13HardwareTimer7setModeEm12TimerModes_t7PinName+0x3c>
 8000e8e:   436b        muls    r3, r5
 8000e90:   2130        movs    r1, #48 ; 0x30
 8000e92:   e7d9        b.n 8000e48 <_ZN13HardwareTimer7setModeEm12TimerModes_t7PinName+0x3c>
 8000e94:   436b        muls    r3, r5
 8000e96:   2160        movs    r1, #96 ; 0x60
 8000e98:   e7d6        b.n 8000e48 <_ZN13HardwareTimer7setModeEm12TimerModes_t7PinName+0x3c>
 8000e9a:   436b        muls    r3, r5
 8000e9c:   2170        movs    r1, #112    ; 0x70
 8000e9e:   e7d3        b.n 8000e48 <_ZN13HardwareTimer7setModeEm12TimerModes_t7PinName+0x3c>
 8000ea0:   436b        muls    r3, r5
 8000ea2:   2150        movs    r1, #80 ; 0x50
 8000ea4:   e7d0        b.n 8000e48 <_ZN13HardwareTimer7setModeEm12TimerModes_t7PinName+0x3c>
 8000ea6:   436b        muls    r3, r5
 8000ea8:   2140        movs    r1, #64 ; 0x40
 8000eaa:   e7cd        b.n 8000e48 <_ZN13HardwareTimer7setModeEm12TimerModes_t7PinName+0x3c>
 8000eac:   2100        movs    r1, #0
 8000eae:   1deb        adds    r3, r5, #7
 8000eb0:   011b        lsls    r3, r3, #4
 8000eb2:   5119        str r1, [r3, r4]
 8000eb4:   2301        movs    r3, #1
 8000eb6:   6763        str r3, [r4, #116]  ; 0x74
 8000eb8:   e007        b.n 8000eca <_ZN13HardwareTimer7setModeEm12TimerModes_t7PinName+0xbe>
 8000eba:   1deb        adds    r3, r5, #7
 8000ebc:   011b        lsls    r3, r3, #4
 8000ebe:   2102        movs    r1, #2
 8000ec0:   e7f7        b.n 8000eb2 <_ZN13HardwareTimer7setModeEm12TimerModes_t7PinName+0xa6>
 8000ec2:   210a        movs    r1, #10
 8000ec4:   1deb        adds    r3, r5, #7
 8000ec6:   011b        lsls    r3, r3, #4
 8000ec8:   5119        str r1, [r3, r4]
 8000eca:   231c        movs    r3, #28
 8000ecc:   436b        muls    r3, r5
 8000ece:   e7be        b.n 8000e4e <_ZN13HardwareTimer7setModeEm12TimerModes_t7PinName+0x42>
 8000ed0:   2d03        cmp r5, #3
 8000ed2:   d8fa        bhi.n   8000eca <_ZN13HardwareTimer7setModeEm12TimerModes_t7PinName+0xbe>
 8000ed4:   0028        movs    r0, r5
 8000ed6:   2300        movs    r3, #0
 8000ed8:   f7ff f904   bl  80000e4 <__gnu_thumb1_case_uqi>
 8000edc:   1f140b02    .word   0x1f140b02
 8000ee0:   6723        str r3, [r4, #112]  ; 0x70
 8000ee2:   2301        movs    r3, #1
 8000ee4:   2102        movs    r1, #2
 8000ee6:   6763        str r3, [r4, #116]  ; 0x74
 8000ee8:   1d23        adds    r3, r4, #4
 8000eea:   67d9        str r1, [r3, #124]  ; 0x7c
 8000eec:   3304        adds    r3, #4
 8000eee:   67d9        str r1, [r3, #124]  ; 0x7c
 8000ef0:   e7eb        b.n 8000eca <_ZN13HardwareTimer7setModeEm12TimerModes_t7PinName+0xbe>
 8000ef2:   1d21        adds    r1, r4, #4
 8000ef4:   67cb        str r3, [r1, #124]  ; 0x7c
 8000ef6:   0023        movs    r3, r4
 8000ef8:   2101        movs    r1, #1
 8000efa:   3308        adds    r3, #8
 8000efc:   67d9        str r1, [r3, #124]  ; 0x7c
 8000efe:   2302        movs    r3, #2
 8000f00:   6723        str r3, [r4, #112]  ; 0x70
 8000f02:   e7d8        b.n 8000eb6 <_ZN13HardwareTimer7setModeEm12TimerModes_t7PinName+0xaa>
 8000f04:   0021        movs    r1, r4
 8000f06:   3190        adds    r1, #144    ; 0x90
 8000f08:   600b        str r3, [r1, #0]
 8000f0a:   0023        movs    r3, r4
 8000f0c:   2101        movs    r1, #1
 8000f0e:   3394        adds    r3, #148    ; 0x94
 8000f10:   6019        str r1, [r3, #0]
 8000f12:   1849        adds    r1, r1, r1
 8000f14:   60d9        str r1, [r3, #12]
 8000f16:   6119        str r1, [r3, #16]
 8000f18:   e7d7        b.n 8000eca <_ZN13HardwareTimer7setModeEm12TimerModes_t7PinName+0xbe>
 8000f1a:   0021        movs    r1, r4
 8000f1c:   31a0        adds    r1, #160    ; 0xa0
 8000f1e:   600b        str r3, [r1, #0]
 8000f20:   0023        movs    r3, r4
 8000f22:   2101        movs    r1, #1
 8000f24:   33a4        adds    r3, #164    ; 0xa4
 8000f26:   6019        str r1, [r3, #0]
 8000f28:   1849        adds    r1, r1, r1
 8000f2a:   3b14        subs    r3, #20
 8000f2c:   6019        str r1, [r3, #0]
 8000f2e:   6059        str r1, [r3, #4]
 8000f30:   e7cb        b.n 8000eca <_ZN13HardwareTimer7setModeEm12TimerModes_t7PinName+0xbe>
 8000f32:   2101        movs    r1, #1
 8000f34:   436b        muls    r3, r5
 8000f36:   511a        str r2, [r3, r4]
 8000f38:   013b        lsls    r3, r7, #4
 8000f3a:   18e3        adds    r3, r4, r3
 8000f3c:   6659        str r1, [r3, #100]  ; 0x64
 8000f3e:   661a        str r2, [r3, #96]   ; 0x60
 8000f40:   e786        b.n 8000e50 <_ZN13HardwareTimer7setModeEm12TimerModes_t7PinName+0x44>
 8000f42:   2301        movs    r3, #1
 8000f44:   425b        negs    r3, r3
 8000f46:   e78d        b.n 8000e64 <_ZN13HardwareTimer7setModeEm12TimerModes_t7PinName+0x58>
 8000f48:   21fa        movs    r1, #250    ; 0xfa
 8000f4a:   4802        ldr r0, [pc, #8]    ; (8000f54 <_ZN13HardwareTimer7setModeEm12TimerModes_t7PinName+0x148>)
 8000f4c:   0049        lsls    r1, r1, #1
 8000f4e:   f002 fe22   bl  8003b96 <_Error_Handler>
 8000f52:   e78f        b.n 8000e74 <_ZN13HardwareTimer7setModeEm12TimerModes_t7PinName+0x68>
 8000f54:   08004b40    .word   0x08004b40
 8000f58:   0000ffff    .word   0x0000ffff
 8000f5c:   08004b3c    .word   0x08004b3c
 8000f60:   080048a0    .word   0x080048a0

08000f64 <_ZN13HardwareTimer15attachInterruptEPFvPS_E>:
 8000f64:   30f4        adds    r0, #244    ; 0xf4
 8000f66:   6001        str r1, [r0, #0]
 8000f68:   4770        bx  lr

08000f6a <_ZN13HardwareTimer7refreshEv>:
 8000f6a:   b510        push    {r4, lr}
 8000f6c:   30b4        adds    r0, #180    ; 0xb4
 8000f6e:   2101        movs    r1, #1
 8000f70:   f001 fcfe   bl  8002970 <HAL_TIM_GenerateEvent>
 8000f74:   bd10        pop {r4, pc}
    ...

08000f78 <_ZN13HardwareTimer14updateCallbackEP17TIM_HandleTypeDef>:
 8000f78:   b510        push    {r4, lr}
 8000f7a:   1e04        subs    r4, r0, #0
 8000f7c:   d104        bne.n   8000f88 <_ZN13HardwareTimer14updateCallbackEP17TIM_HandleTypeDef+0x10>
 8000f7e:   21b1        movs    r1, #177    ; 0xb1
 8000f80:   4806        ldr r0, [pc, #24]   ; (8000f9c <_ZN13HardwareTimer14updateCallbackEP17TIM_HandleTypeDef+0x24>)
 8000f82:   0089        lsls    r1, r1, #2
 8000f84:   f002 fe07   bl  8003b96 <_Error_Handler>
 8000f88:   3c04        subs    r4, #4
 8000f8a:   6820        ldr r0, [r4, #0]
 8000f8c:   0003        movs    r3, r0
 8000f8e:   33f4        adds    r3, #244    ; 0xf4
 8000f90:   681b        ldr r3, [r3, #0]
 8000f92:   2b00        cmp r3, #0
 8000f94:   d000        beq.n   8000f98 <_ZN13HardwareTimer14updateCallbackEP17TIM_HandleTypeDef+0x20>
 8000f96:   4798        blx r3
 8000f98:   bd10        pop {r4, pc}
 8000f9a:   46c0        nop         ; (mov r8, r8)
 8000f9c:   08004b40    .word   0x08004b40

08000fa0 <_ZN13HardwareTimer22captureCompareCallbackEP17TIM_HandleTypeDef>:
 8000fa0:   b510        push    {r4, lr}
 8000fa2:   1e04        subs    r4, r0, #0
 8000fa4:   d103        bne.n   8000fae <_ZN13HardwareTimer22captureCompareCallbackEP17TIM_HandleTypeDef+0xe>
 8000fa6:   490f        ldr r1, [pc, #60]   ; (8000fe4 <_ZN13HardwareTimer22captureCompareCallbackEP17TIM_HandleTypeDef+0x44>)
 8000fa8:   480f        ldr r0, [pc, #60]   ; (8000fe8 <_ZN13HardwareTimer22captureCompareCallbackEP17TIM_HandleTypeDef+0x48>)
 8000faa:   f002 fdf4   bl  8003b96 <_Error_Handler>
 8000fae:   7f20        ldrb    r0, [r4, #28]
 8000fb0:   3801        subs    r0, #1
 8000fb2:   2807        cmp r0, #7
 8000fb4:   d80f        bhi.n   8000fd6 <_ZN13HardwareTimer22captureCompareCallbackEP17TIM_HandleTypeDef+0x36>
 8000fb6:   f7ff f895   bl  80000e4 <__gnu_thumb1_case_uqi>
 8000fba:   0413        .short  0x0413
 8000fbc:   0e0e0f0e    .word   0x0e0e0f0e
 8000fc0:   110e        .short  0x110e
 8000fc2:   2302        movs    r3, #2
 8000fc4:   3c04        subs    r4, #4
 8000fc6:   6820        ldr r0, [r4, #0]
 8000fc8:   333c        adds    r3, #60 ; 0x3c
 8000fca:   009b        lsls    r3, r3, #2
 8000fcc:   18c3        adds    r3, r0, r3
 8000fce:   685b        ldr r3, [r3, #4]
 8000fd0:   2b00        cmp r3, #0
 8000fd2:   d000        beq.n   8000fd6 <_ZN13HardwareTimer22captureCompareCallbackEP17TIM_HandleTypeDef+0x36>
 8000fd4:   4798        blx r3
 8000fd6:   bd10        pop {r4, pc}
 8000fd8:   2303        movs    r3, #3
 8000fda:   e7f3        b.n 8000fc4 <_ZN13HardwareTimer22captureCompareCallbackEP17TIM_HandleTypeDef+0x24>
 8000fdc:   2304        movs    r3, #4
 8000fde:   e7f1        b.n 8000fc4 <_ZN13HardwareTimer22captureCompareCallbackEP17TIM_HandleTypeDef+0x24>
 8000fe0:   2301        movs    r3, #1
 8000fe2:   e7ef        b.n 8000fc4 <_ZN13HardwareTimer22captureCompareCallbackEP17TIM_HandleTypeDef+0x24>
 8000fe4:   000002d7    .word   0x000002d7
 8000fe8:   08004b40    .word   0x08004b40

08000fec <_Z15get_timer_indexP11TIM_TypeDef>:
 8000fec:   4b10        ldr r3, [pc, #64]   ; (8001030 <_Z15get_timer_indexP11TIM_TypeDef+0x44>)
 8000fee:   4298        cmp r0, r3
 8000ff0:   d018        beq.n   8001024 <_Z15get_timer_indexP11TIM_TypeDef+0x38>
 8000ff2:   4b10        ldr r3, [pc, #64]   ; (8001034 <_Z15get_timer_indexP11TIM_TypeDef+0x48>)
 8000ff4:   4298        cmp r0, r3
 8000ff6:   d017        beq.n   8001028 <_Z15get_timer_indexP11TIM_TypeDef+0x3c>
 8000ff8:   4a0f        ldr r2, [pc, #60]   ; (8001038 <_Z15get_timer_indexP11TIM_TypeDef+0x4c>)
 8000ffa:   2302        movs    r3, #2
 8000ffc:   4290        cmp r0, r2
 8000ffe:   d00b        beq.n   8001018 <_Z15get_timer_indexP11TIM_TypeDef+0x2c>
 8001000:   4a0e        ldr r2, [pc, #56]   ; (800103c <_Z15get_timer_indexP11TIM_TypeDef+0x50>)
 8001002:   3301        adds    r3, #1
 8001004:   4290        cmp r0, r2
 8001006:   d00b        beq.n   8001020 <_Z15get_timer_indexP11TIM_TypeDef+0x34>
 8001008:   4a0d        ldr r2, [pc, #52]   ; (8001040 <_Z15get_timer_indexP11TIM_TypeDef+0x54>)
 800100a:   3301        adds    r3, #1
 800100c:   4290        cmp r0, r2
 800100e:   d007        beq.n   8001020 <_Z15get_timer_indexP11TIM_TypeDef+0x34>
 8001010:   4b0c        ldr r3, [pc, #48]   ; (8001044 <_Z15get_timer_indexP11TIM_TypeDef+0x58>)
 8001012:   4a0d        ldr r2, [pc, #52]   ; (8001048 <_Z15get_timer_indexP11TIM_TypeDef+0x5c>)
 8001014:   4290        cmp r0, r2
 8001016:   d009        beq.n   800102c <_Z15get_timer_indexP11TIM_TypeDef+0x40>
 8001018:   4a0c        ldr r2, [pc, #48]   ; (800104c <_Z15get_timer_indexP11TIM_TypeDef+0x60>)
 800101a:   4290        cmp r0, r2
 800101c:   d100        bne.n   8001020 <_Z15get_timer_indexP11TIM_TypeDef+0x34>
 800101e:   2306        movs    r3, #6
 8001020:   0018        movs    r0, r3
 8001022:   4770        bx  lr
 8001024:   2300        movs    r3, #0
 8001026:   e7f4        b.n 8001012 <_Z15get_timer_indexP11TIM_TypeDef+0x26>
 8001028:   2301        movs    r3, #1
 800102a:   e7f2        b.n 8001012 <_Z15get_timer_indexP11TIM_TypeDef+0x26>
 800102c:   2305        movs    r3, #5
 800102e:   e7f7        b.n 8001020 <_Z15get_timer_indexP11TIM_TypeDef+0x34>
 8001030:   40012c00    .word   0x40012c00
 8001034:   40000400    .word   0x40000400
 8001038:   40001000    .word   0x40001000
 800103c:   40002000    .word   0x40002000
 8001040:   40014000    .word   0x40014000
 8001044:   0000ffff    .word   0x0000ffff
 8001048:   40014400    .word   0x40014400
 800104c:   40014800    .word   0x40014800

08001050 <_ZN13HardwareTimerC1EP11TIM_TypeDef>:
 8001050:   b5f8        push    {r3, r4, r5, r6, r7, lr}
 8001052:   0005        movs    r5, r0
 8001054:   0008        movs    r0, r1
 8001056:   000c        movs    r4, r1
 8001058:   f7ff ffc8   bl  8000fec <_Z15get_timer_indexP11TIM_TypeDef>
 800105c:   4e1e        ldr r6, [pc, #120]  ; (80010d8 <_ZN13HardwareTimerC1EP11TIM_TypeDef+0x88>)
 800105e:   0007        movs    r7, r0
 8001060:   42b0        cmp r0, r6
 8001062:   d103        bne.n   800106c <_ZN13HardwareTimerC1EP11TIM_TypeDef+0x1c>
 8001064:   2132        movs    r1, #50 ; 0x32
 8001066:   481d        ldr r0, [pc, #116]  ; (80010dc <_ZN13HardwareTimerC1EP11TIM_TypeDef+0x8c>)
 8001068:   f002 fd95   bl  8003b96 <_Error_Handler>
 800106c:   002b        movs    r3, r5
 800106e:   0028        movs    r0, r5
 8001070:   4a1b        ldr r2, [pc, #108]  ; (80010e0 <_ZN13HardwareTimerC1EP11TIM_TypeDef+0x90>)
 8001072:   33b0        adds    r3, #176    ; 0xb0
 8001074:   00bf        lsls    r7, r7, #2
 8001076:   50bb        str r3, [r7, r2]
 8001078:   30b4        adds    r0, #180    ; 0xb4
 800107a:   002a        movs    r2, r5
 800107c:   6004        str r4, [r0, #0]
 800107e:   2400        movs    r4, #0
 8001080:   32d0        adds    r2, #208    ; 0xd0
 8001082:   6054        str r4, [r2, #4]
 8001084:   6094        str r4, [r2, #8]
 8001086:   60d4        str r4, [r2, #12]
 8001088:   6114        str r4, [r2, #16]
 800108a:   6154        str r4, [r2, #20]
 800108c:   6194        str r4, [r2, #24]
 800108e:   61d4        str r4, [r2, #28]
 8001090:   7014        strb    r4, [r2, #0]
 8001092:   3204        adds    r2, #4
 8001094:   7714        strb    r4, [r2, #28]
 8001096:   7754        strb    r4, [r2, #29]
 8001098:   601d        str r5, [r3, #0]
 800109a:   f002 fdad   bl  8003bf8 <enableTimerClock>
 800109e:   0029        movs    r1, r5
 80010a0:   3170        adds    r1, #112    ; 0x70
 80010a2:   002a        movs    r2, r5
 80010a4:   0008        movs    r0, r1
 80010a6:   0023        movs    r3, r4
 80010a8:   3401        adds    r4, #1
 80010aa:   6016        str r6, [r2, #0]
 80010ac:   6093        str r3, [r2, #8]
 80010ae:   6113        str r3, [r2, #16]
 80010b0:   6153        str r3, [r2, #20]
 80010b2:   60d3        str r3, [r2, #12]
 80010b4:   6193        str r3, [r2, #24]
 80010b6:   321c        adds    r2, #28
 80010b8:   600e        str r6, [r1, #0]
 80010ba:   604c        str r4, [r1, #4]
 80010bc:   608b        str r3, [r1, #8]
 80010be:   60cb        str r3, [r1, #12]
 80010c0:   3110        adds    r1, #16
 80010c2:   4282        cmp r2, r0
 80010c4:   d1f1        bne.n   80010aa <_ZN13HardwareTimerC1EP11TIM_TypeDef+0x5a>
 80010c6:   002a        movs    r2, r5
 80010c8:   32f4        adds    r2, #244    ; 0xf4
 80010ca:   0028        movs    r0, r5
 80010cc:   6013        str r3, [r2, #0]
 80010ce:   6053        str r3, [r2, #4]
 80010d0:   6093        str r3, [r2, #8]
 80010d2:   60d3        str r3, [r2, #12]
 80010d4:   6113        str r3, [r2, #16]
 80010d6:   bdf8        pop {r3, r4, r5, r6, r7, pc}
 80010d8:   0000ffff    .word   0x0000ffff
 80010dc:   08004b40    .word   0x08004b40
 80010e0:   20000378    .word   0x20000378

080010e4 <_ZN13HardwareTimerD1Ev>:
 80010e4:   b570        push    {r4, r5, r6, lr}
 80010e6:   0005        movs    r5, r0
 80010e8:   35b4        adds    r5, #180    ; 0xb4
 80010ea:   0004        movs    r4, r0
 80010ec:   6828        ldr r0, [r5, #0]
 80010ee:   f7ff ff7d   bl  8000fec <_Z15get_timer_indexP11TIM_TypeDef>
 80010f2:   2300        movs    r3, #0
 80010f4:   4a05        ldr r2, [pc, #20]   ; (800110c <_ZN13HardwareTimerD1Ev+0x28>)
 80010f6:   0080        lsls    r0, r0, #2
 80010f8:   5083        str r3, [r0, r2]
 80010fa:   0022        movs    r2, r4
 80010fc:   32b0        adds    r2, #176    ; 0xb0
 80010fe:   0028        movs    r0, r5
 8001100:   6013        str r3, [r2, #0]
 8001102:   f002 fd79   bl  8003bf8 <enableTimerClock>
 8001106:   0020        movs    r0, r4
 8001108:   bd70        pop {r4, r5, r6, pc}
 800110a:   46c0        nop         ; (mov r8, r8)
 800110c:   20000378    .word   0x20000378

08001110 <_ZN13HardwareTimer15getTimerClkFreqEv>:
 8001110:   b530        push    {r4, r5, lr}
 8001112:   0005        movs    r5, r0
 8001114:   2400        movs    r4, #0
 8001116:   b087        sub sp, #28
 8001118:   2210        movs    r2, #16
 800111a:   2100        movs    r1, #0
 800111c:   a802        add r0, sp, #8
 800111e:   f003 f998   bl  8004452 <memset>
 8001122:   35b4        adds    r5, #180    ; 0xb4
 8001124:   a802        add r0, sp, #8
 8001126:   a901        add r1, sp, #4
 8001128:   9401        str r4, [sp, #4]
 800112a:   f001 fb11   bl  8002750 <HAL_RCC_GetClockConfig>
 800112e:   6828        ldr r0, [r5, #0]
 8001130:   f002 fe66   bl  8003e00 <getTimerClkSrc>
 8001134:   2801        cmp r0, #1
 8001136:   d114        bne.n   8001162 <_ZN13HardwareTimer15getTimerClkFreqEv+0x52>
 8001138:   9c05        ldr r4, [sp, #20]
 800113a:   f001 faf9   bl  8002730 <HAL_RCC_GetPCLK1Freq>
 800113e:   23a0        movs    r3, #160    ; 0xa0
 8001140:   00db        lsls    r3, r3, #3
 8001142:   429c        cmp r4, r3
 8001144:   d004        beq.n   8001150 <_ZN13HardwareTimer15getTimerClkFreqEv+0x40>
 8001146:   d805        bhi.n   8001154 <_ZN13HardwareTimer15getTimerClkFreqEv+0x44>
 8001148:   3b01        subs    r3, #1
 800114a:   3bff        subs    r3, #255    ; 0xff
 800114c:   429c        cmp r4, r3
 800114e:   d10e        bne.n   800116e <_ZN13HardwareTimer15getTimerClkFreqEv+0x5e>
 8001150:   0040        lsls    r0, r0, #1
 8001152:   e00c        b.n 800116e <_ZN13HardwareTimer15getTimerClkFreqEv+0x5e>
 8001154:   23c0        movs    r3, #192    ; 0xc0
 8001156:   00db        lsls    r3, r3, #3
 8001158:   429c        cmp r4, r3
 800115a:   d0f9        beq.n   8001150 <_ZN13HardwareTimer15getTimerClkFreqEv+0x40>
 800115c:   3301        adds    r3, #1
 800115e:   33ff        adds    r3, #255    ; 0xff
 8001160:   e7f4        b.n 800114c <_ZN13HardwareTimer15getTimerClkFreqEv+0x3c>
 8001162:   21e6        movs    r1, #230    ; 0xe6
 8001164:   4803        ldr r0, [pc, #12]   ; (8001174 <_ZN13HardwareTimer15getTimerClkFreqEv+0x64>)
 8001166:   0089        lsls    r1, r1, #2
 8001168:   f002 fd15   bl  8003b96 <_Error_Handler>
 800116c:   0020        movs    r0, r4
 800116e:   b007        add sp, #28
 8001170:   bd30        pop {r4, r5, pc}
 8001172:   46c0        nop         ; (mov r8, r8)
 8001174:   08004b40    .word   0x08004b40

08001178 <_ZN13HardwareTimer11setOverflowEm13TimerFormat_t>:
 8001178:   b570        push    {r4, r5, r6, lr}
 800117a:   0006        movs    r6, r0
 800117c:   0005        movs    r5, r0
 800117e:   000c        movs    r4, r1
 8001180:   36b4        adds    r6, #180    ; 0xb4
 8001182:   2a01        cmp r2, #1
 8001184:   d003        beq.n   800118e <_ZN13HardwareTimer11setOverflowEm13TimerFormat_t+0x16>
 8001186:   2a02        cmp r2, #2
 8001188:   d016        beq.n   80011b8 <_ZN13HardwareTimer11setOverflowEm13TimerFormat_t+0x40>
 800118a:   1e48        subs    r0, r1, #1
 800118c:   e00f        b.n 80011ae <_ZN13HardwareTimer11setOverflowEm13TimerFormat_t+0x36>
 800118e:   f7ff ffbf   bl  8001110 <_ZN13HardwareTimer15getTimerClkFreqEv>
 8001192:   490c        ldr r1, [pc, #48]   ; (80011c4 <_ZN13HardwareTimer11setOverflowEm13TimerFormat_t+0x4c>)
 8001194:   f7fe ffb0   bl  80000f8 <__udivsi3>
 8001198:   4360        muls    r0, r4
 800119a:   6833        ldr r3, [r6, #0]
 800119c:   0c01        lsrs    r1, r0, #16
 800119e:   6299        str r1, [r3, #40]   ; 0x28
 80011a0:   002b        movs    r3, r5
 80011a2:   33b8        adds    r3, #184    ; 0xb8
 80011a4:   6019        str r1, [r3, #0]
 80011a6:   3101        adds    r1, #1
 80011a8:   f7fe ffa6   bl  80000f8 <__udivsi3>
 80011ac:   3801        subs    r0, #1
 80011ae:   6833        ldr r3, [r6, #0]
 80011b0:   35c0        adds    r5, #192    ; 0xc0
 80011b2:   62d8        str r0, [r3, #44]   ; 0x2c
 80011b4:   6028        str r0, [r5, #0]
 80011b6:   bd70        pop {r4, r5, r6, pc}
 80011b8:   f7ff ffaa   bl  8001110 <_ZN13HardwareTimer15getTimerClkFreqEv>
 80011bc:   0021        movs    r1, r4
 80011be:   f7fe ff9b   bl  80000f8 <__udivsi3>
 80011c2:   e7ea        b.n 800119a <_ZN13HardwareTimer11setOverflowEm13TimerFormat_t+0x22>
 80011c4:   000f4240    .word   0x000f4240

080011c8 <HAL_TIM_IC_CaptureCallback>:
 80011c8:   b510        push    {r4, lr}
 80011ca:   f7ff fee9   bl  8000fa0 <_ZN13HardwareTimer22captureCompareCallbackEP17TIM_HandleTypeDef>
 80011ce:   bd10        pop {r4, pc}

080011d0 <HAL_TIM_OC_DelayElapsedCallback>:
 80011d0:   b510        push    {r4, lr}
 80011d2:   f7ff fee5   bl  8000fa0 <_ZN13HardwareTimer22captureCompareCallbackEP17TIM_HandleTypeDef>
 80011d6:   bd10        pop {r4, pc}

080011d8 <HAL_TIM_PeriodElapsedCallback>:
 80011d8:   b510        push    {r4, lr}
 80011da:   f7ff fecd   bl  8000f78 <_ZN13HardwareTimer14updateCallbackEP17TIM_HandleTypeDef>
 80011de:   bd10        pop {r4, pc}

080011e0 <TIM1_BRK_UP_TRG_COM_IRQHandler>:
 80011e0:   4b04        ldr r3, [pc, #16]   ; (80011f4 <TIM1_BRK_UP_TRG_COM_IRQHandler+0x14>)
 80011e2:   b510        push    {r4, lr}
 80011e4:   6818        ldr r0, [r3, #0]
 80011e6:   2800        cmp r0, #0
 80011e8:   d002        beq.n   80011f0 <TIM1_BRK_UP_TRG_COM_IRQHandler+0x10>
 80011ea:   3004        adds    r0, #4
 80011ec:   f001 fbd5   bl  800299a <HAL_TIM_IRQHandler>
 80011f0:   bd10        pop {r4, pc}
 80011f2:   46c0        nop         ; (mov r8, r8)
 80011f4:   20000378    .word   0x20000378

080011f8 <TIM1_CC_IRQHandler>:
 80011f8:   b510        push    {r4, lr}
 80011fa:   f7ff fff1   bl  80011e0 <TIM1_BRK_UP_TRG_COM_IRQHandler>
 80011fe:   bd10        pop {r4, pc}

08001200 <TIM3_IRQHandler>:
 8001200:   4b04        ldr r3, [pc, #16]   ; (8001214 <TIM3_IRQHandler+0x14>)
 8001202:   b510        push    {r4, lr}
 8001204:   6858        ldr r0, [r3, #4]
 8001206:   2800        cmp r0, #0
 8001208:   d002        beq.n   8001210 <TIM3_IRQHandler+0x10>
 800120a:   3004        adds    r0, #4
 800120c:   f001 fbc5   bl  800299a <HAL_TIM_IRQHandler>
 8001210:   bd10        pop {r4, pc}
 8001212:   46c0        nop         ; (mov r8, r8)
 8001214:   20000378    .word   0x20000378

08001218 <TIM6_IRQHandler>:
 8001218:   4b04        ldr r3, [pc, #16]   ; (800122c <TIM6_IRQHandler+0x14>)
 800121a:   b510        push    {r4, lr}
 800121c:   6898        ldr r0, [r3, #8]
 800121e:   2800        cmp r0, #0
 8001220:   d002        beq.n   8001228 <TIM6_IRQHandler+0x10>
 8001222:   3004        adds    r0, #4
 8001224:   f001 fbb9   bl  800299a <HAL_TIM_IRQHandler>
 8001228:   bd10        pop {r4, pc}
 800122a:   46c0        nop         ; (mov r8, r8)
 800122c:   20000378    .word   0x20000378

08001230 <TIM14_IRQHandler>:
 8001230:   4b04        ldr r3, [pc, #16]   ; (8001244 <TIM14_IRQHandler+0x14>)
 8001232:   b510        push    {r4, lr}
 8001234:   68d8        ldr r0, [r3, #12]
 8001236:   2800        cmp r0, #0
 8001238:   d002        beq.n   8001240 <TIM14_IRQHandler+0x10>
 800123a:   3004        adds    r0, #4
 800123c:   f001 fbad   bl  800299a <HAL_TIM_IRQHandler>
 8001240:   bd10        pop {r4, pc}
 8001242:   46c0        nop         ; (mov r8, r8)
 8001244:   20000378    .word   0x20000378

08001248 <TIM15_IRQHandler>:
 8001248:   4b04        ldr r3, [pc, #16]   ; (800125c <TIM15_IRQHandler+0x14>)
 800124a:   b510        push    {r4, lr}
 800124c:   6918        ldr r0, [r3, #16]
 800124e:   2800        cmp r0, #0
 8001250:   d002        beq.n   8001258 <TIM15_IRQHandler+0x10>
 8001252:   3004        adds    r0, #4
 8001254:   f001 fba1   bl  800299a <HAL_TIM_IRQHandler>
 8001258:   bd10        pop {r4, pc}
 800125a:   46c0        nop         ; (mov r8, r8)
 800125c:   20000378    .word   0x20000378

08001260 <TIM16_IRQHandler>:
 8001260:   4b04        ldr r3, [pc, #16]   ; (8001274 <TIM16_IRQHandler+0x14>)
 8001262:   b510        push    {r4, lr}
 8001264:   6958        ldr r0, [r3, #20]
 8001266:   2800        cmp r0, #0
 8001268:   d002        beq.n   8001270 <TIM16_IRQHandler+0x10>
 800126a:   3004        adds    r0, #4
 800126c:   f001 fb95   bl  800299a <HAL_TIM_IRQHandler>
 8001270:   bd10        pop {r4, pc}
 8001272:   46c0        nop         ; (mov r8, r8)
 8001274:   20000378    .word   0x20000378

08001278 <TIM17_IRQHandler>:
 8001278:   4b04        ldr r3, [pc, #16]   ; (800128c <TIM17_IRQHandler+0x14>)
 800127a:   b510        push    {r4, lr}
 800127c:   6998        ldr r0, [r3, #24]
 800127e:   2800        cmp r0, #0
 8001280:   d002        beq.n   8001288 <TIM17_IRQHandler+0x10>
 8001282:   3004        adds    r0, #4
 8001284:   f001 fb89   bl  800299a <HAL_TIM_IRQHandler>
 8001288:   bd10        pop {r4, pc}
 800128a:   46c0        nop         ; (mov r8, r8)
 800128c:   20000378    .word   0x20000378

08001290 <_ZN5Print5writeEPKhj>:
 8001290:   b5f8        push    {r3, r4, r5, r6, r7, lr}
 8001292:   0005        movs    r5, r0
 8001294:   000e        movs    r6, r1
 8001296:   0017        movs    r7, r2
 8001298:   2400        movs    r4, #0
 800129a:   42bc        cmp r4, r7
 800129c:   d008        beq.n   80012b0 <_ZN5Print5writeEPKhj+0x20>
 800129e:   682b        ldr r3, [r5, #0]
 80012a0:   5d31        ldrb    r1, [r6, r4]
 80012a2:   681b        ldr r3, [r3, #0]
 80012a4:   0028        movs    r0, r5
 80012a6:   4798        blx r3
 80012a8:   2800        cmp r0, #0
 80012aa:   d001        beq.n   80012b0 <_ZN5Print5writeEPKhj+0x20>
 80012ac:   3401        adds    r4, #1
 80012ae:   e7f4        b.n 800129a <_ZN5Print5writeEPKhj+0xa>
 80012b0:   0020        movs    r0, r4
 80012b2:   bdf8        pop {r3, r4, r5, r6, r7, pc}

080012b4 <_ZN5Print5writeEPKc>:
 80012b4:   b570        push    {r4, r5, r6, lr}
 80012b6:   0005        movs    r5, r0
 80012b8:   000c        movs    r4, r1
 80012ba:   1e08        subs    r0, r1, #0
 80012bc:   d007        beq.n   80012ce <_ZN5Print5writeEPKc+0x1a>
 80012be:   f7fe ff09   bl  80000d4 <strlen>
 80012c2:   682b        ldr r3, [r5, #0]
 80012c4:   0002        movs    r2, r0
 80012c6:   685b        ldr r3, [r3, #4]
 80012c8:   0021        movs    r1, r4
 80012ca:   0028        movs    r0, r5
 80012cc:   4798        blx r3
 80012ce:   bd70        pop {r4, r5, r6, pc}

080012d0 <_ZN5Print5printERK6String>:
 80012d0:   b510        push    {r4, lr}
 80012d2:   6803        ldr r3, [r0, #0]
 80012d4:   688a        ldr r2, [r1, #8]
 80012d6:   685b        ldr r3, [r3, #4]
 80012d8:   6809        ldr r1, [r1, #0]
 80012da:   4798        blx r3
 80012dc:   bd10        pop {r4, pc}

080012de <_ZN5Print5printEPKc>:
 80012de:   b510        push    {r4, lr}
 80012e0:   f7ff ffe8   bl  80012b4 <_ZN5Print5writeEPKc>
 80012e4:   bd10        pop {r4, pc}

080012e6 <_ZN5Print5printEc>:
 80012e6:   b510        push    {r4, lr}
 80012e8:   6803        ldr r3, [r0, #0]
 80012ea:   681b        ldr r3, [r3, #0]
 80012ec:   4798        blx r3
 80012ee:   bd10        pop {r4, pc}

080012f0 <_ZN5Print7printlnEv>:
 80012f0:   b510        push    {r4, lr}
 80012f2:   4902        ldr r1, [pc, #8]    ; (80012fc <_ZN5Print7printlnEv+0xc>)
 80012f4:   f7ff ffde   bl  80012b4 <_ZN5Print5writeEPKc>
 80012f8:   bd10        pop {r4, pc}
 80012fa:   46c0        nop         ; (mov r8, r8)
 80012fc:   08004b99    .word   0x08004b99

08001300 <_ZN5Print7printlnERK6String>:
 8001300:   b570        push    {r4, r5, r6, lr}
 8001302:   0005        movs    r5, r0
 8001304:   f7ff ffe4   bl  80012d0 <_ZN5Print5printERK6String>
 8001308:   0004        movs    r4, r0
 800130a:   0028        movs    r0, r5
 800130c:   f7ff fff0   bl  80012f0 <_ZN5Print7printlnEv>
 8001310:   1820        adds    r0, r4, r0
 8001312:   bd70        pop {r4, r5, r6, pc}

08001314 <_ZN5Print7printlnEPKc>:
 8001314:   b570        push    {r4, r5, r6, lr}
 8001316:   0004        movs    r4, r0
 8001318:   f7ff ffcc   bl  80012b4 <_ZN5Print5writeEPKc>
 800131c:   0005        movs    r5, r0
 800131e:   0020        movs    r0, r4
 8001320:   f7ff ffe6   bl  80012f0 <_ZN5Print7printlnEv>
 8001324:   1940        adds    r0, r0, r5
 8001326:   bd70        pop {r4, r5, r6, pc}

08001328 <_ZN5Print11printNumberEmh>:
 8001328:   b5f0        push    {r4, r5, r6, r7, lr}
 800132a:   b08b        sub sp, #44 ; 0x2c
 800132c:   466b        mov r3, sp
 800132e:   0014        movs    r4, r2
 8001330:   2200        movs    r2, #0
 8001332:   3305        adds    r3, #5
 8001334:   0007        movs    r7, r0
 8001336:   000e        movs    r6, r1
 8001338:   77da        strb    r2, [r3, #31]
 800133a:   2c01        cmp r4, #1
 800133c:   d800        bhi.n   8001340 <_ZN5Print11printNumberEmh+0x18>
 800133e:   240a        movs    r4, #10
 8001340:   ad09        add r5, sp, #36 ; 0x24
 8001342:   0021        movs    r1, r4
 8001344:   0030        movs    r0, r6
 8001346:   f7fe fed7   bl  80000f8 <__udivsi3>
 800134a:   0003        movs    r3, r0
 800134c:   4363        muls    r3, r4
 800134e:   1af3        subs    r3, r6, r3
 8001350:   b2db        uxtb    r3, r3
 8001352:   001a        movs    r2, r3
 8001354:   3237        adds    r2, #55 ; 0x37
 8001356:   b2d2        uxtb    r2, r2
 8001358:   2b09        cmp r3, #9
 800135a:   d801        bhi.n   8001360 <_ZN5Print11printNumberEmh+0x38>
 800135c:   3330        adds    r3, #48 ; 0x30
 800135e:   b2da        uxtb    r2, r3
 8001360:   3d01        subs    r5, #1
 8001362:   702a        strb    r2, [r5, #0]
 8001364:   42b4        cmp r4, r6
 8001366:   d905        bls.n   8001374 <_ZN5Print11printNumberEmh+0x4c>
 8001368:   0029        movs    r1, r5
 800136a:   0038        movs    r0, r7
 800136c:   f7ff ffa2   bl  80012b4 <_ZN5Print5writeEPKc>
 8001370:   b00b        add sp, #44 ; 0x2c
 8001372:   bdf0        pop {r4, r5, r6, r7, pc}
 8001374:   0006        movs    r6, r0
 8001376:   e7e4        b.n 8001342 <_ZN5Print11printNumberEmh+0x1a>

08001378 <_ZN5Print5printEli>:
 8001378:   b5f8        push    {r3, r4, r5, r6, r7, lr}
 800137a:   0006        movs    r6, r0
 800137c:   000c        movs    r4, r1
 800137e:   1e15        subs    r5, r2, #0
 8001380:   d104        bne.n   800138c <_ZN5Print5printEli+0x14>
 8001382:   6803        ldr r3, [r0, #0]
 8001384:   b2c9        uxtb    r1, r1
 8001386:   681b        ldr r3, [r3, #0]
 8001388:   4798        blx r3
 800138a:   bdf8        pop {r3, r4, r5, r6, r7, pc}
 800138c:   2a0a        cmp r2, #10
 800138e:   d10c        bne.n   80013aa <_ZN5Print5printEli+0x32>
 8001390:   2900        cmp r1, #0
 8001392:   da0b        bge.n   80013ac <_ZN5Print5printEli+0x34>
 8001394:   212d        movs    r1, #45 ; 0x2d
 8001396:   f7ff ffa6   bl  80012e6 <_ZN5Print5printEc>
 800139a:   4261        negs    r1, r4
 800139c:   0007        movs    r7, r0
 800139e:   002a        movs    r2, r5
 80013a0:   0030        movs    r0, r6
 80013a2:   f7ff ffc1   bl  8001328 <_ZN5Print11printNumberEmh>
 80013a6:   1838        adds    r0, r7, r0
 80013a8:   e7ef        b.n 800138a <_ZN5Print5printEli+0x12>
 80013aa:   b2d2        uxtb    r2, r2
 80013ac:   0021        movs    r1, r4
 80013ae:   0030        movs    r0, r6
 80013b0:   f7ff ffba   bl  8001328 <_ZN5Print11printNumberEmh>
 80013b4:   e7e9        b.n 800138a <_ZN5Print5printEli+0x12>

080013b6 <_ZN5Print5printEii>:
 80013b6:   b510        push    {r4, lr}
 80013b8:   f7ff ffde   bl  8001378 <_ZN5Print5printEli>
 80013bc:   bd10        pop {r4, pc}

080013be <_ZN5Print7printlnEii>:
 80013be:   b570        push    {r4, r5, r6, lr}
 80013c0:   0004        movs    r4, r0
 80013c2:   f7ff ffd9   bl  8001378 <_ZN5Print5printEli>
 80013c6:   0005        movs    r5, r0
 80013c8:   0020        movs    r0, r4
 80013ca:   f7ff ff91   bl  80012f0 <_ZN5Print7printlnEv>
 80013ce:   1940        adds    r0, r0, r5
 80013d0:   bd70        pop {r4, r5, r6, pc}

080013d2 <_ZN6Stream9timedReadEv>:
 80013d2:   b510        push    {r4, lr}
 80013d4:   0004        movs    r4, r0
 80013d6:   f002 ffdf   bl  8004398 <millis>
 80013da:   60e0        str r0, [r4, #12]
 80013dc:   6823        ldr r3, [r4, #0]
 80013de:   0020        movs    r0, r4
 80013e0:   68db        ldr r3, [r3, #12]
 80013e2:   4798        blx r3
 80013e4:   2800        cmp r0, #0
 80013e6:   da08        bge.n   80013fa <_ZN6Stream9timedReadEv+0x28>
 80013e8:   f002 ffd6   bl  8004398 <millis>
 80013ec:   68e3        ldr r3, [r4, #12]
 80013ee:   1ac0        subs    r0, r0, r3
 80013f0:   68a3        ldr r3, [r4, #8]
 80013f2:   4298        cmp r0, r3
 80013f4:   d3f2        bcc.n   80013dc <_ZN6Stream9timedReadEv+0xa>
 80013f6:   2001        movs    r0, #1
 80013f8:   4240        negs    r0, r0
 80013fa:   bd10        pop {r4, pc}

080013fc <_ZN6Stream9readBytesEPcj>:
 80013fc:   b5f8        push    {r3, r4, r5, r6, r7, lr}
 80013fe:   0006        movs    r6, r0
 8001400:   000d        movs    r5, r1
 8001402:   0017        movs    r7, r2
 8001404:   2400        movs    r4, #0
 8001406:   42bc        cmp r4, r7
 8001408:   d007        beq.n   800141a <_ZN6Stream9readBytesEPcj+0x1e>
 800140a:   0030        movs    r0, r6
 800140c:   f7ff ffe1   bl  80013d2 <_ZN6Stream9timedReadEv>
 8001410:   2800        cmp r0, #0
 8001412:   db02        blt.n   800141a <_ZN6Stream9readBytesEPcj+0x1e>
 8001414:   5528        strb    r0, [r5, r4]
 8001416:   3401        adds    r4, #1
 8001418:   e7f5        b.n 8001406 <_ZN6Stream9readBytesEPcj+0xa>
 800141a:   0020        movs    r0, r4
 800141c:   bdf8        pop {r3, r4, r5, r6, r7, pc}

0800141e <_ZN6Stream14readBytesUntilEcPcj>:
 800141e:   b5f7        push    {r0, r1, r2, r4, r5, r6, r7, lr}
 8001420:   0006        movs    r6, r0
 8001422:   000f        movs    r7, r1
 8001424:   9201        str r2, [sp, #4]
 8001426:   001d        movs    r5, r3
 8001428:   1e1c        subs    r4, r3, #0
 800142a:   d00c        beq.n   8001446 <_ZN6Stream14readBytesUntilEcPcj+0x28>
 800142c:   2400        movs    r4, #0
 800142e:   0030        movs    r0, r6
 8001430:   f7ff ffcf   bl  80013d2 <_ZN6Stream9timedReadEv>
 8001434:   2800        cmp r0, #0
 8001436:   db06        blt.n   8001446 <_ZN6Stream14readBytesUntilEcPcj+0x28>
 8001438:   42b8        cmp r0, r7
 800143a:   d004        beq.n   8001446 <_ZN6Stream14readBytesUntilEcPcj+0x28>
 800143c:   9b01        ldr r3, [sp, #4]
 800143e:   5518        strb    r0, [r3, r4]
 8001440:   3401        adds    r4, #1
 8001442:   42a5        cmp r5, r4
 8001444:   d1f3        bne.n   800142e <_ZN6Stream14readBytesUntilEcPcj+0x10>
 8001446:   0020        movs    r0, r4
 8001448:   bdfe        pop {r1, r2, r3, r4, r5, r6, r7, pc}
    ...

0800144c <_ZN6Stream15readStringUntilEc>:
 800144c:   b570        push    {r4, r5, r6, lr}
 800144e:   000d        movs    r5, r1
 8001450:   4909        ldr r1, [pc, #36]   ; (8001478 <_ZN6Stream15readStringUntilEc+0x2c>)
 8001452:   0004        movs    r4, r0
 8001454:   0016        movs    r6, r2
 8001456:   f000 f881   bl  800155c <_ZN6StringC1EPKc>
 800145a:   0028        movs    r0, r5
 800145c:   f7ff ffb9   bl  80013d2 <_ZN6Stream9timedReadEv>
 8001460:   2800        cmp r0, #0
 8001462:   db06        blt.n   8001472 <_ZN6Stream15readStringUntilEc+0x26>
 8001464:   4286        cmp r6, r0
 8001466:   d004        beq.n   8001472 <_ZN6Stream15readStringUntilEc+0x26>
 8001468:   b2c1        uxtb    r1, r0
 800146a:   0020        movs    r0, r4
 800146c:   f000 f8ca   bl  8001604 <_ZN6String6concatEc>
 8001470:   e7f3        b.n 800145a <_ZN6Stream15readStringUntilEc+0xe>
 8001472:   0020        movs    r0, r4
 8001474:   bd70        pop {r4, r5, r6, pc}
 8001476:   46c0        nop         ; (mov r8, r8)
 8001478:   08004b9b    .word   0x08004b9b

0800147c <_ZNSt14_Function_baseD1Ev>:
 800147c:   b510        push    {r4, lr}
 800147e:   6883        ldr r3, [r0, #8]
 8001480:   0004        movs    r4, r0
 8001482:   2b00        cmp r3, #0
 8001484:   d002        beq.n   800148c <_ZNSt14_Function_baseD1Ev+0x10>
 8001486:   2203        movs    r2, #3
 8001488:   0001        movs    r1, r0
 800148a:   4798        blx r3
 800148c:   0020        movs    r0, r4
 800148e:   bd10        pop {r4, pc}

08001490 <_Z3maplllll>:
 8001490:   b510        push    {r4, lr}
 8001492:   001c        movs    r4, r3
 8001494:   1a43        subs    r3, r0, r1
 8001496:   9802        ldr r0, [sp, #8]
 8001498:   1a51        subs    r1, r2, r1
 800149a:   1b00        subs    r0, r0, r4
 800149c:   4358        muls    r0, r3
 800149e:   f7fe feb5   bl  800020c <__divsi3>
 80014a2:   1900        adds    r0, r0, r4
 80014a4:   bd10        pop {r4, pc}
    ...

080014a8 <_Z14serialEventRunv>:
 80014a8:   4b05        ldr r3, [pc, #20]   ; (80014c0 <_Z14serialEventRunv+0x18>)
 80014aa:   b510        push    {r4, lr}
 80014ac:   2b00        cmp r3, #0
 80014ae:   d006        beq.n   80014be <_Z14serialEventRunv+0x16>
 80014b0:   4804        ldr r0, [pc, #16]   ; (80014c4 <_Z14serialEventRunv+0x1c>)
 80014b2:   f7ff fae9   bl  8000a88 <_ZN14HardwareSerial9availableEv>
 80014b6:   2800        cmp r0, #0
 80014b8:   d001        beq.n   80014be <_Z14serialEventRunv+0x16>
 80014ba:   e000        b.n 80014be <_Z14serialEventRunv+0x16>
 80014bc:   bf00        nop
 80014be:   bd10        pop {r4, pc}
 80014c0:   00000000    .word   0x00000000
 80014c4:   20000248    .word   0x20000248

080014c8 <_ZN6StringD1Ev>:
 80014c8:   b510        push    {r4, lr}
 80014ca:   0004        movs    r4, r0
 80014cc:   6800        ldr r0, [r0, #0]
 80014ce:   f002 ffad   bl  800442c <free>
 80014d2:   0020        movs    r0, r4
 80014d4:   bd10        pop {r4, pc}

080014d6 <_ZN6String10invalidateEv>:
 80014d6:   b510        push    {r4, lr}
 80014d8:   0004        movs    r4, r0
 80014da:   6800        ldr r0, [r0, #0]
 80014dc:   2800        cmp r0, #0
 80014de:   d001        beq.n   80014e4 <_ZN6String10invalidateEv+0xe>
 80014e0:   f002 ffa4   bl  800442c <free>
 80014e4:   2300        movs    r3, #0
 80014e6:   6023        str r3, [r4, #0]
 80014e8:   60a3        str r3, [r4, #8]
 80014ea:   6063        str r3, [r4, #4]
 80014ec:   bd10        pop {r4, pc}

080014ee <_ZN6String12changeBufferEj>:
 80014ee:   b570        push    {r4, r5, r6, lr}
 80014f0:   0004        movs    r4, r0
 80014f2:   000d        movs    r5, r1
 80014f4:   6800        ldr r0, [r0, #0]
 80014f6:   3101        adds    r1, #1
 80014f8:   f003 f85c   bl  80045b4 <realloc>
 80014fc:   2300        movs    r3, #0
 80014fe:   4298        cmp r0, r3
 8001500:   d001        beq.n   8001506 <_ZN6String12changeBufferEj+0x18>
 8001502:   c421        stmia   r4!, {r0, r5}
 8001504:   3301        adds    r3, #1
 8001506:   0018        movs    r0, r3
 8001508:   bd70        pop {r4, r5, r6, pc}

0800150a <_ZN6String7reserveEj>:
 800150a:   6803        ldr r3, [r0, #0]
 800150c:   b510        push    {r4, lr}
 800150e:   0004        movs    r4, r0
 8001510:   2b00        cmp r3, #0
 8001512:   d004        beq.n   800151e <_ZN6String7reserveEj+0x14>
 8001514:   6843        ldr r3, [r0, #4]
 8001516:   428b        cmp r3, r1
 8001518:   d301        bcc.n   800151e <_ZN6String7reserveEj+0x14>
 800151a:   2001        movs    r0, #1
 800151c:   bd10        pop {r4, pc}
 800151e:   0020        movs    r0, r4
 8001520:   f7ff ffe5   bl  80014ee <_ZN6String12changeBufferEj>
 8001524:   2800        cmp r0, #0
 8001526:   d0f9        beq.n   800151c <_ZN6String7reserveEj+0x12>
 8001528:   68a3        ldr r3, [r4, #8]
 800152a:   2b00        cmp r3, #0
 800152c:   d1f5        bne.n   800151a <_ZN6String7reserveEj+0x10>
 800152e:   6822        ldr r2, [r4, #0]
 8001530:   7013        strb    r3, [r2, #0]
 8001532:   e7f2        b.n 800151a <_ZN6String7reserveEj+0x10>

08001534 <_ZN6String4copyEPKcj>:
 8001534:   b570        push    {r4, r5, r6, lr}
 8001536:   000e        movs    r6, r1
 8001538:   0011        movs    r1, r2
 800153a:   0004        movs    r4, r0
 800153c:   0015        movs    r5, r2
 800153e:   f7ff ffe4   bl  800150a <_ZN6String7reserveEj>
 8001542:   2800        cmp r0, #0
 8001544:   d104        bne.n   8001550 <_ZN6String4copyEPKcj+0x1c>
 8001546:   0020        movs    r0, r4
 8001548:   f7ff ffc5   bl  80014d6 <_ZN6String10invalidateEv>
 800154c:   0020        movs    r0, r4
 800154e:   bd70        pop {r4, r5, r6, pc}
 8001550:   60a5        str r5, [r4, #8]
 8001552:   0031        movs    r1, r6
 8001554:   6820        ldr r0, [r4, #0]
 8001556:   f003 f849   bl  80045ec <strcpy>
 800155a:   e7f7        b.n 800154c <_ZN6String4copyEPKcj+0x18>

0800155c <_ZN6StringC1EPKc>:
 800155c:   2300        movs    r3, #0
 800155e:   b570        push    {r4, r5, r6, lr}
 8001560:   0004        movs    r4, r0
 8001562:   000d        movs    r5, r1
 8001564:   6003        str r3, [r0, #0]
 8001566:   6043        str r3, [r0, #4]
 8001568:   6083        str r3, [r0, #8]
 800156a:   4299        cmp r1, r3
 800156c:   d007        beq.n   800157e <_ZN6StringC1EPKc+0x22>
 800156e:   0008        movs    r0, r1
 8001570:   f7fe fdb0   bl  80000d4 <strlen>
 8001574:   0029        movs    r1, r5
 8001576:   0002        movs    r2, r0
 8001578:   0020        movs    r0, r4
 800157a:   f7ff ffdb   bl  8001534 <_ZN6String4copyEPKcj>
 800157e:   0020        movs    r0, r4
 8001580:   bd70        pop {r4, r5, r6, pc}

08001582 <_ZN6String4moveERS_>:
 8001582:   b570        push    {r4, r5, r6, lr}
 8001584:   0005        movs    r5, r0
 8001586:   6800        ldr r0, [r0, #0]
 8001588:   000c        movs    r4, r1
 800158a:   2800        cmp r0, #0
 800158c:   d00f        beq.n   80015ae <_ZN6String4moveERS_+0x2c>
 800158e:   6809        ldr r1, [r1, #0]
 8001590:   2900        cmp r1, #0
 8001592:   d00a        beq.n   80015aa <_ZN6String4moveERS_+0x28>
 8001594:   686b        ldr r3, [r5, #4]
 8001596:   68a2        ldr r2, [r4, #8]
 8001598:   4293        cmp r3, r2
 800159a:   d306        bcc.n   80015aa <_ZN6String4moveERS_+0x28>
 800159c:   f003 f826   bl  80045ec <strcpy>
 80015a0:   68a3        ldr r3, [r4, #8]
 80015a2:   60ab        str r3, [r5, #8]
 80015a4:   2300        movs    r3, #0
 80015a6:   60a3        str r3, [r4, #8]
 80015a8:   bd70        pop {r4, r5, r6, pc}
 80015aa:   f002 ff3f   bl  800442c <free>
 80015ae:   6823        ldr r3, [r4, #0]
 80015b0:   602b        str r3, [r5, #0]
 80015b2:   6863        ldr r3, [r4, #4]
 80015b4:   606b        str r3, [r5, #4]
 80015b6:   68a3        ldr r3, [r4, #8]
 80015b8:   60ab        str r3, [r5, #8]
 80015ba:   2300        movs    r3, #0
 80015bc:   6023        str r3, [r4, #0]
 80015be:   6063        str r3, [r4, #4]
 80015c0:   e7f1        b.n 80015a6 <_ZN6String4moveERS_+0x24>

080015c2 <_ZN6StringaSEOS_>:
 80015c2:   b510        push    {r4, lr}
 80015c4:   0004        movs    r4, r0
 80015c6:   4288        cmp r0, r1
 80015c8:   d001        beq.n   80015ce <_ZN6StringaSEOS_+0xc>
 80015ca:   f7ff ffda   bl  8001582 <_ZN6String4moveERS_>
 80015ce:   0020        movs    r0, r4
 80015d0:   bd10        pop {r4, pc}

080015d2 <_ZN6String6concatEPKcj>:
 80015d2:   b5f8        push    {r3, r4, r5, r6, r7, lr}
 80015d4:   0004        movs    r4, r0
 80015d6:   1e0f        subs    r7, r1, #0
 80015d8:   d102        bne.n   80015e0 <_ZN6String6concatEPKcj+0xe>
 80015da:   2600        movs    r6, #0
 80015dc:   0030        movs    r0, r6
 80015de:   bdf8        pop {r3, r4, r5, r6, r7, pc}
 80015e0:   2601        movs    r6, #1
 80015e2:   2a00        cmp r2, #0
 80015e4:   d0fa        beq.n   80015dc <_ZN6String6concatEPKcj+0xa>
 80015e6:   6883        ldr r3, [r0, #8]
 80015e8:   18d5        adds    r5, r2, r3
 80015ea:   0029        movs    r1, r5
 80015ec:   f7ff ff8d   bl  800150a <_ZN6String7reserveEj>
 80015f0:   2800        cmp r0, #0
 80015f2:   d0f2        beq.n   80015da <_ZN6String6concatEPKcj+0x8>
 80015f4:   6823        ldr r3, [r4, #0]
 80015f6:   68a2        ldr r2, [r4, #8]
 80015f8:   0039        movs    r1, r7
 80015fa:   1898        adds    r0, r3, r2
 80015fc:   f002 fff6   bl  80045ec <strcpy>
 8001600:   60a5        str r5, [r4, #8]
 8001602:   e7eb        b.n 80015dc <_ZN6String6concatEPKcj+0xa>

08001604 <_ZN6String6concatEc>:
 8001604:   b507        push    {r0, r1, r2, lr}
 8001606:   2200        movs    r2, #0
 8001608:   ab01        add r3, sp, #4
 800160a:   7019        strb    r1, [r3, #0]
 800160c:   705a        strb    r2, [r3, #1]
 800160e:   0019        movs    r1, r3
 8001610:   3201        adds    r2, #1
 8001612:   f7ff ffde   bl  80015d2 <_ZN6String6concatEPKcj>
 8001616:   bd0e        pop {r1, r2, r3, pc}

08001618 <_ZplRK15StringSumHelperRK6String>:
 8001618:   b510        push    {r4, lr}
 800161a:   688a        ldr r2, [r1, #8]
 800161c:   6809        ldr r1, [r1, #0]
 800161e:   0004        movs    r4, r0
 8001620:   f7ff ffd7   bl  80015d2 <_ZN6String6concatEPKcj>
 8001624:   2800        cmp r0, #0
 8001626:   d102        bne.n   800162e <_ZplRK15StringSumHelperRK6String+0x16>
 8001628:   0020        movs    r0, r4
 800162a:   f7ff ff54   bl  80014d6 <_ZN6String10invalidateEv>
 800162e:   0020        movs    r0, r4
 8001630:   bd10        pop {r4, pc}

08001632 <_ZplRK15StringSumHelperPKc>:
 8001632:   b570        push    {r4, r5, r6, lr}
 8001634:   0004        movs    r4, r0
 8001636:   1e0d        subs    r5, r1, #0
 8001638:   d104        bne.n   8001644 <_ZplRK15StringSumHelperPKc+0x12>
 800163a:   0020        movs    r0, r4
 800163c:   f7ff ff4b   bl  80014d6 <_ZN6String10invalidateEv>
 8001640:   0020        movs    r0, r4
 8001642:   bd70        pop {r4, r5, r6, pc}
 8001644:   0008        movs    r0, r1
 8001646:   f7fe fd45   bl  80000d4 <strlen>
 800164a:   0029        movs    r1, r5
 800164c:   0002        movs    r2, r0
 800164e:   0020        movs    r0, r4
 8001650:   f7ff ffbf   bl  80015d2 <_ZN6String6concatEPKcj>
 8001654:   2800        cmp r0, #0
 8001656:   d0f0        beq.n   800163a <_ZplRK15StringSumHelperPKc+0x8>
 8001658:   e7f2        b.n 8001640 <_ZplRK15StringSumHelperPKc+0xe>

0800165a <_ZNK6String6equalsEPKc>:
 800165a:   6883        ldr r3, [r0, #8]
 800165c:   b510        push    {r4, lr}
 800165e:   2b00        cmp r3, #0
 8001660:   d107        bne.n   8001672 <_ZNK6String6equalsEPKc+0x18>
 8001662:   2001        movs    r0, #1
 8001664:   2900        cmp r1, #0
 8001666:   d003        beq.n   8001670 <_ZNK6String6equalsEPKc+0x16>
 8001668:   7808        ldrb    r0, [r1, #0]
 800166a:   4243        negs    r3, r0
 800166c:   4158        adcs    r0, r3
 800166e:   b2c0        uxtb    r0, r0
 8001670:   bd10        pop {r4, pc}
 8001672:   6800        ldr r0, [r0, #0]
 8001674:   2900        cmp r1, #0
 8001676:   d101        bne.n   800167c <_ZNK6String6equalsEPKc+0x22>
 8001678:   7800        ldrb    r0, [r0, #0]
 800167a:   e7f6        b.n 800166a <_ZNK6String6equalsEPKc+0x10>
 800167c:   f7fe fd20   bl  80000c0 <strcmp>
 8001680:   e7f3        b.n 800166a <_ZNK6String6equalsEPKc+0x10>

08001682 <_ZNK6String5toIntEv>:
 8001682:   6803        ldr r3, [r0, #0]
 8001684:   2000        movs    r0, #0
 8001686:   b510        push    {r4, lr}
 8001688:   4283        cmp r3, r0
 800168a:   d002        beq.n   8001692 <_ZNK6String5toIntEv+0x10>
 800168c:   0018        movs    r0, r3
 800168e:   f002 fe99   bl  80043c4 <atol>
 8001692:   bd10        pop {r4, pc}

08001694 <init>:
 8001694:   b510        push    {r4, lr}
 8001696:   f002 f8c4   bl  8003822 <hw_config_init>
 800169a:   bd10        pop {r4, pc}

0800169c <yield>:
 800169c:   4770        bx  lr

0800169e <_Z11initVariantv>:
 800169e:   4770        bx  lr

080016a0 <_Z7premainv>:
 80016a0:   b510        push    {r4, lr}
 80016a2:   f7ff fff7   bl  8001694 <init>
 80016a6:   bd10        pop {r4, pc}

080016a8 <main>:
 80016a8:   b510        push    {r4, lr}
 80016aa:   f7ff fff8   bl  800169e <_Z11initVariantv>
 80016ae:   f7fe fef3   bl  8000498 <setup>
 80016b2:   f7fe ff55   bl  8000560 <loop>
 80016b6:   4b03        ldr r3, [pc, #12]   ; (80016c4 <main+0x1c>)
 80016b8:   2b00        cmp r3, #0
 80016ba:   d0fa        beq.n   80016b2 <main+0xa>
 80016bc:   f7ff fef4   bl  80014a8 <_Z14serialEventRunv>
 80016c0:   e7f7        b.n 80016b2 <main+0xa>
 80016c2:   46c0        nop         ; (mov r8, r8)
 80016c4:   080014a9    .word   0x080014a9

080016c8 <_Znwj>:
 80016c8:   b510        push    {r4, lr}
 80016ca:   f002 fea5   bl  8004418 <malloc>
 80016ce:   bd10        pop {r4, pc}

080016d0 <_ZdlPvj>:
 80016d0:   b510        push    {r4, lr}
 80016d2:   f002 feab   bl  800442c <free>
 80016d6:   bd10        pop {r4, pc}

080016d8 <HAL_MspInit>:
 80016d8:   4770        bx  lr

080016da <HAL_InitTick>:
 80016da:   b510        push    {r4, lr}
 80016dc:   0004        movs    r4, r0
 80016de:   f001 f821   bl  8002724 <HAL_RCC_GetHCLKFreq>
 80016e2:   21fa        movs    r1, #250    ; 0xfa
 80016e4:   0089        lsls    r1, r1, #2
 80016e6:   f7fe fd07   bl  80000f8 <__udivsi3>
 80016ea:   f000 f86d   bl  80017c8 <HAL_SYSTICK_Config>
 80016ee:   2001        movs    r0, #1
 80016f0:   2200        movs    r2, #0
 80016f2:   0021        movs    r1, r4
 80016f4:   4240        negs    r0, r0
 80016f6:   f000 f821   bl  800173c <HAL_NVIC_SetPriority>
 80016fa:   2000        movs    r0, #0
 80016fc:   bd10        pop {r4, pc}
    ...

08001700 <HAL_Init>:
 8001700:   2310        movs    r3, #16
 8001702:   4a06        ldr r2, [pc, #24]   ; (800171c <HAL_Init+0x1c>)
 8001704:   b510        push    {r4, lr}
 8001706:   6811        ldr r1, [r2, #0]
 8001708:   2000        movs    r0, #0
 800170a:   430b        orrs    r3, r1
 800170c:   6013        str r3, [r2, #0]
 800170e:   f7ff ffe4   bl  80016da <HAL_InitTick>
 8001712:   f7ff ffe1   bl  80016d8 <HAL_MspInit>
 8001716:   2000        movs    r0, #0
 8001718:   bd10        pop {r4, pc}
 800171a:   46c0        nop         ; (mov r8, r8)
 800171c:   40022000    .word   0x40022000

08001720 <HAL_IncTick>:
 8001720:   4a02        ldr r2, [pc, #8]    ; (800172c <HAL_IncTick+0xc>)
 8001722:   6813        ldr r3, [r2, #0]
 8001724:   3301        adds    r3, #1
 8001726:   6013        str r3, [r2, #0]
 8001728:   4770        bx  lr
 800172a:   46c0        nop         ; (mov r8, r8)
 800172c:   20000528    .word   0x20000528

08001730 <HAL_GetTick>:
 8001730:   4b01        ldr r3, [pc, #4]    ; (8001738 <HAL_GetTick+0x8>)
 8001732:   6818        ldr r0, [r3, #0]
 8001734:   4770        bx  lr
 8001736:   46c0        nop         ; (mov r8, r8)
 8001738:   20000528    .word   0x20000528

0800173c <HAL_NVIC_SetPriority>:
 800173c:   b530        push    {r4, r5, lr}
 800173e:   25ff        movs    r5, #255    ; 0xff
 8001740:   2403        movs    r4, #3
 8001742:   002a        movs    r2, r5
 8001744:   b2c3        uxtb    r3, r0
 8001746:   401c        ands    r4, r3
 8001748:   00e4        lsls    r4, r4, #3
 800174a:   40a2        lsls    r2, r4
 800174c:   0189        lsls    r1, r1, #6
 800174e:   4029        ands    r1, r5
 8001750:   43d2        mvns    r2, r2
 8001752:   40a1        lsls    r1, r4
 8001754:   2800        cmp r0, #0
 8001756:   db0a        blt.n   800176e <HAL_NVIC_SetPriority+0x32>
 8001758:   24c0        movs    r4, #192    ; 0xc0
 800175a:   4b0b        ldr r3, [pc, #44]   ; (8001788 <HAL_NVIC_SetPriority+0x4c>)
 800175c:   0880        lsrs    r0, r0, #2
 800175e:   0080        lsls    r0, r0, #2
 8001760:   18c0        adds    r0, r0, r3
 8001762:   00a4        lsls    r4, r4, #2
 8001764:   5903        ldr r3, [r0, r4]
 8001766:   401a        ands    r2, r3
 8001768:   4311        orrs    r1, r2
 800176a:   5101        str r1, [r0, r4]
 800176c:   bd30        pop {r4, r5, pc}
 800176e:   200f        movs    r0, #15
 8001770:   4003        ands    r3, r0
 8001772:   3b08        subs    r3, #8
 8001774:   4805        ldr r0, [pc, #20]   ; (800178c <HAL_NVIC_SetPriority+0x50>)
 8001776:   089b        lsrs    r3, r3, #2
 8001778:   009b        lsls    r3, r3, #2
 800177a:   181b        adds    r3, r3, r0
 800177c:   69d8        ldr r0, [r3, #28]
 800177e:   4002        ands    r2, r0
 8001780:   4311        orrs    r1, r2
 8001782:   61d9        str r1, [r3, #28]
 8001784:   e7f2        b.n 800176c <HAL_NVIC_SetPriority+0x30>
 8001786:   46c0        nop         ; (mov r8, r8)
 8001788:   e000e100    .word   0xe000e100
 800178c:   e000ed00    .word   0xe000ed00

08001790 <HAL_NVIC_EnableIRQ>:
 8001790:   2800        cmp r0, #0
 8001792:   db05        blt.n   80017a0 <HAL_NVIC_EnableIRQ+0x10>
 8001794:   231f        movs    r3, #31
 8001796:   4018        ands    r0, r3
 8001798:   3b1e        subs    r3, #30
 800179a:   4083        lsls    r3, r0
 800179c:   4a01        ldr r2, [pc, #4]    ; (80017a4 <HAL_NVIC_EnableIRQ+0x14>)
 800179e:   6013        str r3, [r2, #0]
 80017a0:   4770        bx  lr
 80017a2:   46c0        nop         ; (mov r8, r8)
 80017a4:   e000e100    .word   0xe000e100

080017a8 <HAL_NVIC_DisableIRQ>:
 80017a8:   2800        cmp r0, #0
 80017aa:   db09        blt.n   80017c0 <HAL_NVIC_DisableIRQ+0x18>
 80017ac:   231f        movs    r3, #31
 80017ae:   4018        ands    r0, r3
 80017b0:   3b1e        subs    r3, #30
 80017b2:   4083        lsls    r3, r0
 80017b4:   4a03        ldr r2, [pc, #12]   ; (80017c4 <HAL_NVIC_DisableIRQ+0x1c>)
 80017b6:   67d3        str r3, [r2, #124]  ; 0x7c
 80017b8:   f3bf 8f4f   dsb sy
 80017bc:   f3bf 8f6f   isb sy
 80017c0:   4770        bx  lr
 80017c2:   46c0        nop         ; (mov r8, r8)
 80017c4:   e000e104    .word   0xe000e104

080017c8 <HAL_SYSTICK_Config>:
 80017c8:   4a09        ldr r2, [pc, #36]   ; (80017f0 <HAL_SYSTICK_Config+0x28>)
 80017ca:   1e43        subs    r3, r0, #1
 80017cc:   2001        movs    r0, #1
 80017ce:   4293        cmp r3, r2
 80017d0:   d80d        bhi.n   80017ee <HAL_SYSTICK_Config+0x26>
 80017d2:   21c0        movs    r1, #192    ; 0xc0
 80017d4:   4a07        ldr r2, [pc, #28]   ; (80017f4 <HAL_SYSTICK_Config+0x2c>)
 80017d6:   4808        ldr r0, [pc, #32]   ; (80017f8 <HAL_SYSTICK_Config+0x30>)
 80017d8:   6053        str r3, [r2, #4]
 80017da:   6a03        ldr r3, [r0, #32]
 80017dc:   0609        lsls    r1, r1, #24
 80017de:   021b        lsls    r3, r3, #8
 80017e0:   0a1b        lsrs    r3, r3, #8
 80017e2:   430b        orrs    r3, r1
 80017e4:   6203        str r3, [r0, #32]
 80017e6:   2000        movs    r0, #0
 80017e8:   2307        movs    r3, #7
 80017ea:   6090        str r0, [r2, #8]
 80017ec:   6013        str r3, [r2, #0]
 80017ee:   4770        bx  lr
 80017f0:   00ffffff    .word   0x00ffffff
 80017f4:   e000e010    .word   0xe000e010
 80017f8:   e000ed00    .word   0xe000ed00

080017fc <HAL_NVIC_ClearPendingIRQ>:
 80017fc:   2800        cmp r0, #0
 80017fe:   db07        blt.n   8001810 <HAL_NVIC_ClearPendingIRQ+0x14>
 8001800:   231f        movs    r3, #31
 8001802:   22c0        movs    r2, #192    ; 0xc0
 8001804:   4018        ands    r0, r3
 8001806:   3b1e        subs    r3, #30
 8001808:   4083        lsls    r3, r0
 800180a:   4902        ldr r1, [pc, #8]    ; (8001814 <HAL_NVIC_ClearPendingIRQ+0x18>)
 800180c:   0052        lsls    r2, r2, #1
 800180e:   508b        str r3, [r1, r2]
 8001810:   4770        bx  lr
 8001812:   46c0        nop         ; (mov r8, r8)
 8001814:   e000e100    .word   0xe000e100

08001818 <HAL_SYSTICK_Callback>:
 8001818:   4770        bx  lr

0800181a <HAL_SYSTICK_IRQHandler>:
 800181a:   b510        push    {r4, lr}
 800181c:   f7ff fffc   bl  8001818 <HAL_SYSTICK_Callback>
 8001820:   bd10        pop {r4, pc}

08001822 <HAL_DMA_Abort_IT>:
 8001822:   b570        push    {r4, r5, r6, lr}
 8001824:   1c84        adds    r4, r0, #2
 8001826:   7fe3        ldrb    r3, [r4, #31]
 8001828:   2b02        cmp r3, #2
 800182a:   d004        beq.n   8001836 <HAL_DMA_Abort_IT+0x14>
 800182c:   2304        movs    r3, #4
 800182e:   6383        str r3, [r0, #56]   ; 0x38
 8001830:   3b03        subs    r3, #3
 8001832:   0018        movs    r0, r3
 8001834:   bd70        pop {r4, r5, r6, pc}
 8001836:   210e        movs    r1, #14
 8001838:   6803        ldr r3, [r0, #0]
 800183a:   6c05        ldr r5, [r0, #64]   ; 0x40
 800183c:   681a        ldr r2, [r3, #0]
 800183e:   438a        bics    r2, r1
 8001840:   601a        str r2, [r3, #0]
 8001842:   2201        movs    r2, #1
 8001844:   6819        ldr r1, [r3, #0]
 8001846:   4391        bics    r1, r2
 8001848:   6019        str r1, [r3, #0]
 800184a:   0011        movs    r1, r2
 800184c:   40a9        lsls    r1, r5
 800184e:   6bc3        ldr r3, [r0, #60]   ; 0x3c
 8001850:   6059        str r1, [r3, #4]
 8001852:   77e2        strb    r2, [r4, #31]
 8001854:   2400        movs    r4, #0
 8001856:   1883        adds    r3, r0, r2
 8001858:   6b42        ldr r2, [r0, #52]   ; 0x34
 800185a:   77dc        strb    r4, [r3, #31]
 800185c:   0013        movs    r3, r2
 800185e:   42a2        cmp r2, r4
 8001860:   d0e7        beq.n   8001832 <HAL_DMA_Abort_IT+0x10>
 8001862:   4790        blx r2
 8001864:   0023        movs    r3, r4
 8001866:   e7e4        b.n 8001832 <HAL_DMA_Abort_IT+0x10>

08001868 <HAL_GPIO_EXTI_IRQHandler>:
 8001868:   4b04        ldr r3, [pc, #16]   ; (800187c <HAL_GPIO_EXTI_IRQHandler+0x14>)
 800186a:   b510        push    {r4, lr}
 800186c:   695a        ldr r2, [r3, #20]
 800186e:   4210        tst r0, r2
 8001870:   d002        beq.n   8001878 <HAL_GPIO_EXTI_IRQHandler+0x10>
 8001872:   6158        str r0, [r3, #20]
 8001874:   f001 ffdc   bl  8003830 <HAL_GPIO_EXTI_Callback>
 8001878:   bd10        pop {r4, pc}
 800187a:   46c0        nop         ; (mov r8, r8)
 800187c:   40010400    .word   0x40010400

08001880 <I2C_Flush_TXDR>:
 8001880:   6803        ldr r3, [r0, #0]
 8001882:   699a        ldr r2, [r3, #24]
 8001884:   0792        lsls    r2, r2, #30
 8001886:   d501        bpl.n   800188c <I2C_Flush_TXDR+0xc>
 8001888:   2200        movs    r2, #0
 800188a:   629a        str r2, [r3, #40]   ; 0x28
 800188c:   2201        movs    r2, #1
 800188e:   6999        ldr r1, [r3, #24]
 8001890:   4211        tst r1, r2
 8001892:   d102        bne.n   800189a <I2C_Flush_TXDR+0x1a>
 8001894:   6999        ldr r1, [r3, #24]
 8001896:   430a        orrs    r2, r1
 8001898:   619a        str r2, [r3, #24]
 800189a:   4770        bx  lr

0800189c <I2C_TransferConfig>:
 800189c:   6800        ldr r0, [r0, #0]
 800189e:   b530        push    {r4, r5, lr}
 80018a0:   6845        ldr r5, [r0, #4]
 80018a2:   4c06        ldr r4, [pc, #24]   ; (80018bc <I2C_TransferConfig+0x20>)
 80018a4:   0412        lsls    r2, r2, #16
 80018a6:   402c        ands    r4, r5
 80018a8:   9d03        ldr r5, [sp, #12]
 80018aa:   0589        lsls    r1, r1, #22
 80018ac:   432b        orrs    r3, r5
 80018ae:   431a        orrs    r2, r3
 80018b0:   0d89        lsrs    r1, r1, #22
 80018b2:   430a        orrs    r2, r1
 80018b4:   4322        orrs    r2, r4
 80018b6:   6042        str r2, [r0, #4]
 80018b8:   bd30        pop {r4, r5, pc}
 80018ba:   46c0        nop         ; (mov r8, r8)
 80018bc:   fc009800    .word   0xfc009800

080018c0 <I2C_Enable_IRQ>:
 80018c0:   2204        movs    r2, #4
 80018c2:   b510        push    {r4, lr}
 80018c4:   6b43        ldr r3, [r0, #52]   ; 0x34
 80018c6:   4c17        ldr r4, [pc, #92]   ; (8001924 <I2C_Enable_IRQ+0x64>)
 80018c8:   400a        ands    r2, r1
 80018ca:   42a3        cmp r3, r4
 80018cc:   d002        beq.n   80018d4 <I2C_Enable_IRQ+0x14>
 80018ce:   4c16        ldr r4, [pc, #88]   ; (8001928 <I2C_Enable_IRQ+0x68>)
 80018d0:   42a3        cmp r3, r4
 80018d2:   d115        bne.n   8001900 <I2C_Enable_IRQ+0x40>
 80018d4:   2300        movs    r3, #0
 80018d6:   429a        cmp r2, r3
 80018d8:   d000        beq.n   80018dc <I2C_Enable_IRQ+0x1c>
 80018da:   33b8        adds    r3, #184    ; 0xb8
 80018dc:   2211        movs    r2, #17
 80018de:   400a        ands    r2, r1
 80018e0:   2a11        cmp r2, #17
 80018e2:   d101        bne.n   80018e8 <I2C_Enable_IRQ+0x28>
 80018e4:   327f        adds    r2, #127    ; 0x7f
 80018e6:   4313        orrs    r3, r2
 80018e8:   2212        movs    r2, #18
 80018ea:   4011        ands    r1, r2
 80018ec:   4291        cmp r1, r2
 80018ee:   d101        bne.n   80018f4 <I2C_Enable_IRQ+0x34>
 80018f0:   324e        adds    r2, #78 ; 0x4e
 80018f2:   4313        orrs    r3, r2
 80018f4:   6801        ldr r1, [r0, #0]
 80018f6:   680a        ldr r2, [r1, #0]
 80018f8:   2000        movs    r0, #0
 80018fa:   4313        orrs    r3, r2
 80018fc:   600b        str r3, [r1, #0]
 80018fe:   bd10        pop {r4, pc}
 8001900:   2300        movs    r3, #0
 8001902:   429a        cmp r2, r3
 8001904:   d000        beq.n   8001908 <I2C_Enable_IRQ+0x48>
 8001906:   33b8        adds    r3, #184    ; 0xb8
 8001908:   07ca        lsls    r2, r1, #31
 800190a:   d501        bpl.n   8001910 <I2C_Enable_IRQ+0x50>
 800190c:   22f2        movs    r2, #242    ; 0xf2
 800190e:   4313        orrs    r3, r2
 8001910:   078a        lsls    r2, r1, #30
 8001912:   d501        bpl.n   8001918 <I2C_Enable_IRQ+0x58>
 8001914:   22f4        movs    r2, #244    ; 0xf4
 8001916:   4313        orrs    r3, r2
 8001918:   2212        movs    r2, #18
 800191a:   4011        ands    r1, r2
 800191c:   4291        cmp r1, r2
 800191e:   d1e9        bne.n   80018f4 <I2C_Enable_IRQ+0x34>
 8001920:   320e        adds    r2, #14
 8001922:   e7e6        b.n 80018f2 <I2C_Enable_IRQ+0x32>
 8001924:   08002079    .word   0x08002079
 8001928:   08001f51    .word   0x08001f51

0800192c <I2C_Disable_IRQ>:
 800192c:   b510        push    {r4, lr}
 800192e:   2300        movs    r3, #0
 8001930:   07ca        lsls    r2, r1, #31
 8001932:   d508        bpl.n   8001946 <I2C_Disable_IRQ+0x1a>
 8001934:   0003        movs    r3, r0
 8001936:   3341        adds    r3, #65 ; 0x41
 8001938:   781a        ldrb    r2, [r3, #0]
 800193a:   2328        movs    r3, #40 ; 0x28
 800193c:   401a        ands    r2, r3
 800193e:   331a        adds    r3, #26
 8001940:   2a28        cmp r2, #40 ; 0x28
 8001942:   d000        beq.n   8001946 <I2C_Disable_IRQ+0x1a>
 8001944:   33b0        adds    r3, #176    ; 0xb0
 8001946:   078a        lsls    r2, r1, #30
 8001948:   d508        bpl.n   800195c <I2C_Disable_IRQ+0x30>
 800194a:   0002        movs    r2, r0
 800194c:   2428        movs    r4, #40 ; 0x28
 800194e:   3241        adds    r2, #65 ; 0x41
 8001950:   7812        ldrb    r2, [r2, #0]
 8001952:   4022        ands    r2, r4
 8001954:   42a2        cmp r2, r4
 8001956:   d10b        bne.n   8001970 <I2C_Disable_IRQ+0x44>
 8001958:   2244        movs    r2, #68 ; 0x44
 800195a:   4313        orrs    r3, r2
 800195c:   074a        lsls    r2, r1, #29
 800195e:   d501        bpl.n   8001964 <I2C_Disable_IRQ+0x38>
 8001960:   22b8        movs    r2, #184    ; 0xb8
 8001962:   4313        orrs    r3, r2
 8001964:   6801        ldr r1, [r0, #0]
 8001966:   680a        ldr r2, [r1, #0]
 8001968:   2000        movs    r0, #0
 800196a:   439a        bics    r2, r3
 800196c:   600a        str r2, [r1, #0]
 800196e:   bd10        pop {r4, pc}
 8001970:   22f4        movs    r2, #244    ; 0xf4
 8001972:   e7f2        b.n 800195a <I2C_Disable_IRQ+0x2e>

08001974 <HAL_I2C_Slave_Sequential_Transmit_IT>:
 8001974:   b5f0        push    {r4, r5, r6, r7, lr}
 8001976:   0006        movs    r6, r0
 8001978:   b085        sub sp, #20
 800197a:   9202        str r2, [sp, #8]
 800197c:   2228        movs    r2, #40 ; 0x28
 800197e:   9101        str r1, [sp, #4]
 8001980:   9303        str r3, [sp, #12]
 8001982:   3641        adds    r6, #65 ; 0x41
 8001984:   7833        ldrb    r3, [r6, #0]
 8001986:   0004        movs    r4, r0
 8001988:   4013        ands    r3, r2
 800198a:   2501        movs    r5, #1
 800198c:   4293        cmp r3, r2
 800198e:   d136        bne.n   80019fe <HAL_I2C_Slave_Sequential_Transmit_IT+0x8a>
 8001990:   2900        cmp r1, #0
 8001992:   d034        beq.n   80019fe <HAL_I2C_Slave_Sequential_Transmit_IT+0x8a>
 8001994:   9b02        ldr r3, [sp, #8]
 8001996:   2b00        cmp r3, #0
 8001998:   d031        beq.n   80019fe <HAL_I2C_Slave_Sequential_Transmit_IT+0x8a>
 800199a:   0027        movs    r7, r4
 800199c:   2105        movs    r1, #5
 800199e:   3740        adds    r7, #64 ; 0x40
 80019a0:   f7ff ffc4   bl  800192c <I2C_Disable_IRQ>
 80019a4:   783b        ldrb    r3, [r7, #0]
 80019a6:   42ab        cmp r3, r5
 80019a8:   d02c        beq.n   8001a04 <HAL_I2C_Slave_Sequential_Transmit_IT+0x90>
 80019aa:   703d        strb    r5, [r7, #0]
 80019ac:   7833        ldrb    r3, [r6, #0]
 80019ae:   2b2a        cmp r3, #42 ; 0x2a
 80019b0:   d103        bne.n   80019ba <HAL_I2C_Slave_Sequential_Transmit_IT+0x46>
 80019b2:   2102        movs    r1, #2
 80019b4:   0020        movs    r0, r4
 80019b6:   f7ff ffb9   bl  800192c <I2C_Disable_IRQ>
 80019ba:   2329        movs    r3, #41 ; 0x29
 80019bc:   7033        strb    r3, [r6, #0]
 80019be:   0023        movs    r3, r4
 80019c0:   2220        movs    r2, #32
 80019c2:   3342        adds    r3, #66 ; 0x42
 80019c4:   701a        strb    r2, [r3, #0]
 80019c6:   2300        movs    r3, #0
 80019c8:   6822        ldr r2, [r4, #0]
 80019ca:   6463        str r3, [r4, #68]   ; 0x44
 80019cc:   6851        ldr r1, [r2, #4]
 80019ce:   480e        ldr r0, [pc, #56]   ; (8001a08 <HAL_I2C_Slave_Sequential_Transmit_IT+0x94>)
 80019d0:   4001        ands    r1, r0
 80019d2:   6051        str r1, [r2, #4]
 80019d4:   9901        ldr r1, [sp, #4]
 80019d6:   6261        str r1, [r4, #36]   ; 0x24
 80019d8:   9902        ldr r1, [sp, #8]
 80019da:   8561        strh    r1, [r4, #42]   ; 0x2a
 80019dc:   8d61        ldrh    r1, [r4, #42]   ; 0x2a
 80019de:   8521        strh    r1, [r4, #40]   ; 0x28
 80019e0:   9903        ldr r1, [sp, #12]
 80019e2:   62e1        str r1, [r4, #44]   ; 0x2c
 80019e4:   4909        ldr r1, [pc, #36]   ; (8001a0c <HAL_I2C_Slave_Sequential_Transmit_IT+0x98>)
 80019e6:   6361        str r1, [r4, #52]   ; 0x34
 80019e8:   6991        ldr r1, [r2, #24]
 80019ea:   03c9        lsls    r1, r1, #15
 80019ec:   d501        bpl.n   80019f2 <HAL_I2C_Slave_Sequential_Transmit_IT+0x7e>
 80019ee:   2108        movs    r1, #8
 80019f0:   61d1        str r1, [r2, #28]
 80019f2:   703b        strb    r3, [r7, #0]
 80019f4:   2105        movs    r1, #5
 80019f6:   0020        movs    r0, r4
 80019f8:   f7ff ff62   bl  80018c0 <I2C_Enable_IRQ>
 80019fc:   2500        movs    r5, #0
 80019fe:   0028        movs    r0, r5
 8001a00:   b005        add sp, #20
 8001a02:   bdf0        pop {r4, r5, r6, r7, pc}
 8001a04:   2502        movs    r5, #2
 8001a06:   e7fa        b.n 80019fe <HAL_I2C_Slave_Sequential_Transmit_IT+0x8a>
 8001a08:   ffff7fff    .word   0xffff7fff
 8001a0c:   08001d81    .word   0x08001d81

08001a10 <HAL_I2C_Slave_Sequential_Receive_IT>:
 8001a10:   b5f0        push    {r4, r5, r6, r7, lr}
 8001a12:   0006        movs    r6, r0
 8001a14:   b085        sub sp, #20
 8001a16:   9202        str r2, [sp, #8]
 8001a18:   2228        movs    r2, #40 ; 0x28
 8001a1a:   9101        str r1, [sp, #4]
 8001a1c:   9303        str r3, [sp, #12]
 8001a1e:   3641        adds    r6, #65 ; 0x41
 8001a20:   7833        ldrb    r3, [r6, #0]
 8001a22:   0004        movs    r4, r0
 8001a24:   4013        ands    r3, r2
 8001a26:   2501        movs    r5, #1
 8001a28:   4293        cmp r3, r2
 8001a2a:   d136        bne.n   8001a9a <HAL_I2C_Slave_Sequential_Receive_IT+0x8a>
 8001a2c:   2900        cmp r1, #0
 8001a2e:   d034        beq.n   8001a9a <HAL_I2C_Slave_Sequential_Receive_IT+0x8a>
 8001a30:   9b02        ldr r3, [sp, #8]
 8001a32:   2b00        cmp r3, #0
 8001a34:   d031        beq.n   8001a9a <HAL_I2C_Slave_Sequential_Receive_IT+0x8a>
 8001a36:   0027        movs    r7, r4
 8001a38:   2106        movs    r1, #6
 8001a3a:   3740        adds    r7, #64 ; 0x40
 8001a3c:   f7ff ff76   bl  800192c <I2C_Disable_IRQ>
 8001a40:   783b        ldrb    r3, [r7, #0]
 8001a42:   42ab        cmp r3, r5
 8001a44:   d02c        beq.n   8001aa0 <HAL_I2C_Slave_Sequential_Receive_IT+0x90>
 8001a46:   703d        strb    r5, [r7, #0]
 8001a48:   7833        ldrb    r3, [r6, #0]
 8001a4a:   2b29        cmp r3, #41 ; 0x29
 8001a4c:   d103        bne.n   8001a56 <HAL_I2C_Slave_Sequential_Receive_IT+0x46>
 8001a4e:   0029        movs    r1, r5
 8001a50:   0020        movs    r0, r4
 8001a52:   f7ff ff6b   bl  800192c <I2C_Disable_IRQ>
 8001a56:   232a        movs    r3, #42 ; 0x2a
 8001a58:   7033        strb    r3, [r6, #0]
 8001a5a:   0023        movs    r3, r4
 8001a5c:   2220        movs    r2, #32
 8001a5e:   3342        adds    r3, #66 ; 0x42
 8001a60:   701a        strb    r2, [r3, #0]
 8001a62:   2300        movs    r3, #0
 8001a64:   6822        ldr r2, [r4, #0]
 8001a66:   6463        str r3, [r4, #68]   ; 0x44
 8001a68:   6851        ldr r1, [r2, #4]
 8001a6a:   480e        ldr r0, [pc, #56]   ; (8001aa4 <HAL_I2C_Slave_Sequential_Receive_IT+0x94>)
 8001a6c:   4001        ands    r1, r0
 8001a6e:   6051        str r1, [r2, #4]
 8001a70:   9901        ldr r1, [sp, #4]
 8001a72:   6261        str r1, [r4, #36]   ; 0x24
 8001a74:   9902        ldr r1, [sp, #8]
 8001a76:   8561        strh    r1, [r4, #42]   ; 0x2a
 8001a78:   8d61        ldrh    r1, [r4, #42]   ; 0x2a
 8001a7a:   8521        strh    r1, [r4, #40]   ; 0x28
 8001a7c:   9903        ldr r1, [sp, #12]
 8001a7e:   62e1        str r1, [r4, #44]   ; 0x2c
 8001a80:   4909        ldr r1, [pc, #36]   ; (8001aa8 <HAL_I2C_Slave_Sequential_Receive_IT+0x98>)
 8001a82:   6361        str r1, [r4, #52]   ; 0x34
 8001a84:   6991        ldr r1, [r2, #24]
 8001a86:   03c9        lsls    r1, r1, #15
 8001a88:   d401        bmi.n   8001a8e <HAL_I2C_Slave_Sequential_Receive_IT+0x7e>
 8001a8a:   2108        movs    r1, #8
 8001a8c:   61d1        str r1, [r2, #28]
 8001a8e:   703b        strb    r3, [r7, #0]
 8001a90:   2106        movs    r1, #6
 8001a92:   0020        movs    r0, r4
 8001a94:   f7ff ff14   bl  80018c0 <I2C_Enable_IRQ>
 8001a98:   2500        movs    r5, #0
 8001a9a:   0028        movs    r0, r5
 8001a9c:   b005        add sp, #20
 8001a9e:   bdf0        pop {r4, r5, r6, r7, pc}
 8001aa0:   2502        movs    r5, #2
 8001aa2:   e7fa        b.n 8001a9a <HAL_I2C_Slave_Sequential_Receive_IT+0x8a>
 8001aa4:   ffff7fff    .word   0xffff7fff
 8001aa8:   08001d81    .word   0x08001d81

08001aac <HAL_I2C_EnableListen_IT>:
 8001aac:   0002        movs    r2, r0
 8001aae:   b510        push    {r4, lr}
 8001ab0:   3241        adds    r2, #65 ; 0x41
 8001ab2:   7811        ldrb    r1, [r2, #0]
 8001ab4:   2302        movs    r3, #2
 8001ab6:   2920        cmp r1, #32
 8001ab8:   d107        bne.n   8001aca <HAL_I2C_EnableListen_IT+0x1e>
 8001aba:   3326        adds    r3, #38 ; 0x26
 8001abc:   7013        strb    r3, [r2, #0]
 8001abe:   4b04        ldr r3, [pc, #16]   ; (8001ad0 <HAL_I2C_EnableListen_IT+0x24>)
 8001ac0:   391c        subs    r1, #28
 8001ac2:   6343        str r3, [r0, #52]   ; 0x34
 8001ac4:   f7ff fefc   bl  80018c0 <I2C_Enable_IRQ>
 8001ac8:   2300        movs    r3, #0
 8001aca:   0018        movs    r0, r3
 8001acc:   bd10        pop {r4, pc}
 8001ace:   46c0        nop         ; (mov r8, r8)
 8001ad0:   08001d81    .word   0x08001d81

08001ad4 <HAL_I2C_EV_IRQHandler>:
 8001ad4:   6803        ldr r3, [r0, #0]
 8001ad6:   b510        push    {r4, lr}
 8001ad8:   6999        ldr r1, [r3, #24]
 8001ada:   681a        ldr r2, [r3, #0]
 8001adc:   6b43        ldr r3, [r0, #52]   ; 0x34
 8001ade:   2b00        cmp r3, #0
 8001ae0:   d000        beq.n   8001ae4 <HAL_I2C_EV_IRQHandler+0x10>
 8001ae2:   4798        blx r3
 8001ae4:   bd10        pop {r4, pc}

08001ae6 <HAL_I2C_MasterTxCpltCallback>:
 8001ae6:   4770        bx  lr

08001ae8 <HAL_I2C_MasterRxCpltCallback>:
 8001ae8:   4770        bx  lr

08001aea <I2C_ITSlaveSequentialCplt>:
 8001aea:   0003        movs    r3, r0
 8001aec:   b570        push    {r4, r5, r6, lr}
 8001aee:   2500        movs    r5, #0
 8001af0:   3342        adds    r3, #66 ; 0x42
 8001af2:   701d        strb    r5, [r3, #0]
 8001af4:   3b01        subs    r3, #1
 8001af6:   781a        ldrb    r2, [r3, #0]
 8001af8:   0004        movs    r4, r0
 8001afa:   2a29        cmp r2, #41 ; 0x29
 8001afc:   d10d        bne.n   8001b1a <I2C_ITSlaveSequentialCplt+0x30>
 8001afe:   3a01        subs    r2, #1
 8001b00:   701a        strb    r2, [r3, #0]
 8001b02:   2321        movs    r3, #33 ; 0x21
 8001b04:   2101        movs    r1, #1
 8001b06:   6303        str r3, [r0, #48]   ; 0x30
 8001b08:   f7ff ff10   bl  800192c <I2C_Disable_IRQ>
 8001b0c:   0023        movs    r3, r4
 8001b0e:   3340        adds    r3, #64 ; 0x40
 8001b10:   701d        strb    r5, [r3, #0]
 8001b12:   0020        movs    r0, r4
 8001b14:   f002 f9ce   bl  8003eb4 <HAL_I2C_SlaveTxCpltCallback>
 8001b18:   bd70        pop {r4, r5, r6, pc}
 8001b1a:   781a        ldrb    r2, [r3, #0]
 8001b1c:   2a2a        cmp r2, #42 ; 0x2a
 8001b1e:   d1fb        bne.n   8001b18 <I2C_ITSlaveSequentialCplt+0x2e>
 8001b20:   3a02        subs    r2, #2
 8001b22:   701a        strb    r2, [r3, #0]
 8001b24:   2322        movs    r3, #34 ; 0x22
 8001b26:   2102        movs    r1, #2
 8001b28:   6303        str r3, [r0, #48]   ; 0x30
 8001b2a:   f7ff feff   bl  800192c <I2C_Disable_IRQ>
 8001b2e:   0023        movs    r3, r4
 8001b30:   3340        adds    r3, #64 ; 0x40
 8001b32:   701d        strb    r5, [r3, #0]
 8001b34:   0020        movs    r0, r4
 8001b36:   f002 f9a7   bl  8003e88 <HAL_I2C_SlaveRxCpltCallback>
 8001b3a:   e7ed        b.n 8001b18 <I2C_ITSlaveSequentialCplt+0x2e>

08001b3c <I2C_ITListenCplt>:
 8001b3c:   4b17        ldr r3, [pc, #92]   ; (8001b9c <I2C_ITListenCplt+0x60>)
 8001b3e:   b510        push    {r4, lr}
 8001b40:   62c3        str r3, [r0, #44]   ; 0x2c
 8001b42:   2300        movs    r3, #0
 8001b44:   0002        movs    r2, r0
 8001b46:   6303        str r3, [r0, #48]   ; 0x30
 8001b48:   0004        movs    r4, r0
 8001b4a:   2020        movs    r0, #32
 8001b4c:   3241        adds    r2, #65 ; 0x41
 8001b4e:   7010        strb    r0, [r2, #0]
 8001b50:   7053        strb    r3, [r2, #1]
 8001b52:   2204        movs    r2, #4
 8001b54:   6363        str r3, [r4, #52]   ; 0x34
 8001b56:   4211        tst r1, r2
 8001b58:   d011        beq.n   8001b7e <I2C_ITListenCplt+0x42>
 8001b5a:   6823        ldr r3, [r4, #0]
 8001b5c:   6a59        ldr r1, [r3, #36]   ; 0x24
 8001b5e:   6a63        ldr r3, [r4, #36]   ; 0x24
 8001b60:   1c58        adds    r0, r3, #1
 8001b62:   6260        str r0, [r4, #36]   ; 0x24
 8001b64:   7019        strb    r1, [r3, #0]
 8001b66:   8d23        ldrh    r3, [r4, #40]   ; 0x28
 8001b68:   2b00        cmp r3, #0
 8001b6a:   d008        beq.n   8001b7e <I2C_ITListenCplt+0x42>
 8001b6c:   3b01        subs    r3, #1
 8001b6e:   8523        strh    r3, [r4, #40]   ; 0x28
 8001b70:   8d63        ldrh    r3, [r4, #42]   ; 0x2a
 8001b72:   3b01        subs    r3, #1
 8001b74:   b29b        uxth    r3, r3
 8001b76:   8563        strh    r3, [r4, #42]   ; 0x2a
 8001b78:   6c63        ldr r3, [r4, #68]   ; 0x44
 8001b7a:   431a        orrs    r2, r3
 8001b7c:   6462        str r2, [r4, #68]   ; 0x44
 8001b7e:   2107        movs    r1, #7
 8001b80:   0020        movs    r0, r4
 8001b82:   f7ff fed3   bl  800192c <I2C_Disable_IRQ>
 8001b86:   2210        movs    r2, #16
 8001b88:   6823        ldr r3, [r4, #0]
 8001b8a:   0020        movs    r0, r4
 8001b8c:   61da        str r2, [r3, #28]
 8001b8e:   0023        movs    r3, r4
 8001b90:   2200        movs    r2, #0
 8001b92:   3340        adds    r3, #64 ; 0x40
 8001b94:   701a        strb    r2, [r3, #0]
 8001b96:   f002 f95e   bl  8003e56 <HAL_I2C_ListenCpltCallback>
 8001b9a:   bd10        pop {r4, pc}
 8001b9c:   ffff0000    .word   0xffff0000

08001ba0 <HAL_I2C_MemTxCpltCallback>:
 8001ba0:   4770        bx  lr

08001ba2 <HAL_I2C_MemRxCpltCallback>:
 8001ba2:   4770        bx  lr

08001ba4 <HAL_I2C_AbortCpltCallback>:
 8001ba4:   4770        bx  lr
    ...

08001ba8 <I2C_ITError>:
 8001ba8:   0003        movs    r3, r0
 8001baa:   2200        movs    r2, #0
 8001bac:   b570        push    {r4, r5, r6, lr}
 8001bae:   0005        movs    r5, r0
 8001bb0:   3342        adds    r3, #66 ; 0x42
 8001bb2:   701a        strb    r2, [r3, #0]
 8001bb4:   4b2f        ldr r3, [pc, #188]  ; (8001c74 <I2C_ITError+0xcc>)
 8001bb6:   3541        adds    r5, #65 ; 0x41
 8001bb8:   62c3        str r3, [r0, #44]   ; 0x2c
 8001bba:   8542        strh    r2, [r0, #42]   ; 0x2a
 8001bbc:   6c43        ldr r3, [r0, #68]   ; 0x44
 8001bbe:   0004        movs    r4, r0
 8001bc0:   430b        orrs    r3, r1
 8001bc2:   6443        str r3, [r0, #68]   ; 0x44
 8001bc4:   782b        ldrb    r3, [r5, #0]
 8001bc6:   2b28        cmp r3, #40 ; 0x28
 8001bc8:   d005        beq.n   8001bd6 <I2C_ITError+0x2e>
 8001bca:   782b        ldrb    r3, [r5, #0]
 8001bcc:   2b29        cmp r3, #41 ; 0x29
 8001bce:   d002        beq.n   8001bd6 <I2C_ITError+0x2e>
 8001bd0:   782b        ldrb    r3, [r5, #0]
 8001bd2:   2b2a        cmp r3, #42 ; 0x2a
 8001bd4:   d122        bne.n   8001c1c <I2C_ITError+0x74>
 8001bd6:   2103        movs    r1, #3
 8001bd8:   0020        movs    r0, r4
 8001bda:   f7ff fea7   bl  800192c <I2C_Disable_IRQ>
 8001bde:   2328        movs    r3, #40 ; 0x28
 8001be0:   702b        strb    r3, [r5, #0]
 8001be2:   2300        movs    r3, #0
 8001be4:   6323        str r3, [r4, #48]   ; 0x30
 8001be6:   4b24        ldr r3, [pc, #144]  ; (8001c78 <I2C_ITError+0xd0>)
 8001be8:   2280        movs    r2, #128    ; 0x80
 8001bea:   0021        movs    r1, r4
 8001bec:   6363        str r3, [r4, #52]   ; 0x34
 8001bee:   6823        ldr r3, [r4, #0]
 8001bf0:   01d2        lsls    r2, r2, #7
 8001bf2:   681e        ldr r6, [r3, #0]
 8001bf4:   3140        adds    r1, #64 ; 0x40
 8001bf6:   4016        ands    r6, r2
 8001bf8:   681a        ldr r2, [r3, #0]
 8001bfa:   d01a        beq.n   8001c32 <I2C_ITError+0x8a>
 8001bfc:   481f        ldr r0, [pc, #124]  ; (8001c7c <I2C_ITError+0xd4>)
 8001bfe:   4002        ands    r2, r0
 8001c00:   601a        str r2, [r3, #0]
 8001c02:   6ba0        ldr r0, [r4, #56]   ; 0x38
 8001c04:   4b1e        ldr r3, [pc, #120]  ; (8001c80 <I2C_ITError+0xd8>)
 8001c06:   6343        str r3, [r0, #52]   ; 0x34
 8001c08:   2300        movs    r3, #0
 8001c0a:   700b        strb    r3, [r1, #0]
 8001c0c:   f7ff fe09   bl  8001822 <HAL_DMA_Abort_IT>
 8001c10:   2800        cmp r0, #0
 8001c12:   d002        beq.n   8001c1a <I2C_ITError+0x72>
 8001c14:   6ba0        ldr r0, [r4, #56]   ; 0x38
 8001c16:   6b43        ldr r3, [r0, #52]   ; 0x34
 8001c18:   4798        blx r3
 8001c1a:   bd70        pop {r4, r5, r6, pc}
 8001c1c:   2107        movs    r1, #7
 8001c1e:   f7ff fe85   bl  800192c <I2C_Disable_IRQ>
 8001c22:   782b        ldrb    r3, [r5, #0]
 8001c24:   2b60        cmp r3, #96 ; 0x60
 8001c26:   d001        beq.n   8001c2c <I2C_ITError+0x84>
 8001c28:   2320        movs    r3, #32
 8001c2a:   702b        strb    r3, [r5, #0]
 8001c2c:   2300        movs    r3, #0
 8001c2e:   6323        str r3, [r4, #48]   ; 0x30
 8001c30:   e7da        b.n 8001be8 <I2C_ITError+0x40>
 8001c32:   2080        movs    r0, #128    ; 0x80
 8001c34:   0200        lsls    r0, r0, #8
 8001c36:   4002        ands    r2, r0
 8001c38:   d00d        beq.n   8001c56 <I2C_ITError+0xae>
 8001c3a:   681a        ldr r2, [r3, #0]
 8001c3c:   4811        ldr r0, [pc, #68]   ; (8001c84 <I2C_ITError+0xdc>)
 8001c3e:   4002        ands    r2, r0
 8001c40:   601a        str r2, [r3, #0]
 8001c42:   6be0        ldr r0, [r4, #60]   ; 0x3c
 8001c44:   4b0e        ldr r3, [pc, #56]   ; (8001c80 <I2C_ITError+0xd8>)
 8001c46:   6343        str r3, [r0, #52]   ; 0x34
 8001c48:   700e        strb    r6, [r1, #0]
 8001c4a:   f7ff fdea   bl  8001822 <HAL_DMA_Abort_IT>
 8001c4e:   2800        cmp r0, #0
 8001c50:   d0e3        beq.n   8001c1a <I2C_ITError+0x72>
 8001c52:   6be0        ldr r0, [r4, #60]   ; 0x3c
 8001c54:   e7df        b.n 8001c16 <I2C_ITError+0x6e>
 8001c56:   782b        ldrb    r3, [r5, #0]
 8001c58:   2b60        cmp r3, #96 ; 0x60
 8001c5a:   d106        bne.n   8001c6a <I2C_ITError+0xc2>
 8001c5c:   3b40        subs    r3, #64 ; 0x40
 8001c5e:   702b        strb    r3, [r5, #0]
 8001c60:   0020        movs    r0, r4
 8001c62:   700a        strb    r2, [r1, #0]
 8001c64:   f7ff ff9e   bl  8001ba4 <HAL_I2C_AbortCpltCallback>
 8001c68:   e7d7        b.n 8001c1a <I2C_ITError+0x72>
 8001c6a:   700a        strb    r2, [r1, #0]
 8001c6c:   0020        movs    r0, r4
 8001c6e:   f002 f925   bl  8003ebc <HAL_I2C_ErrorCallback>
 8001c72:   e7d2        b.n 8001c1a <I2C_ITError+0x72>
 8001c74:   ffff0000    .word   0xffff0000
 8001c78:   08001d81    .word   0x08001d81
 8001c7c:   ffffbfff    .word   0xffffbfff
 8001c80:   08002197    .word   0x08002197
 8001c84:   ffff7fff    .word   0xffff7fff

08001c88 <I2C_ITSlaveCplt>:
 8001c88:   b5f8        push    {r3, r4, r5, r6, r7, lr}
 8001c8a:   0004        movs    r4, r0
 8001c8c:   2220        movs    r2, #32
 8001c8e:   2780        movs    r7, #128    ; 0x80
 8001c90:   0025        movs    r5, r4
 8001c92:   6803        ldr r3, [r0, #0]
 8001c94:   000e        movs    r6, r1
 8001c96:   61da        str r2, [r3, #28]
 8001c98:   3a18        subs    r2, #24
 8001c9a:   61da        str r2, [r3, #28]
 8001c9c:   2107        movs    r1, #7
 8001c9e:   f7ff fe45   bl  800192c <I2C_Disable_IRQ>
 8001ca2:   6823        ldr r3, [r4, #0]
 8001ca4:   023f        lsls    r7, r7, #8
 8001ca6:   685a        ldr r2, [r3, #4]
 8001ca8:   4933        ldr r1, [pc, #204]  ; (8001d78 <I2C_ITSlaveCplt+0xf0>)
 8001caa:   433a        orrs    r2, r7
 8001cac:   605a        str r2, [r3, #4]
 8001cae:   685a        ldr r2, [r3, #4]
 8001cb0:   0020        movs    r0, r4
 8001cb2:   400a        ands    r2, r1
 8001cb4:   605a        str r2, [r3, #4]
 8001cb6:   f7ff fde3   bl  8001880 <I2C_Flush_TXDR>
 8001cba:   6821        ldr r1, [r4, #0]
 8001cbc:   3541        adds    r5, #65 ; 0x41
 8001cbe:   680b        ldr r3, [r1, #0]
 8001cc0:   045b        lsls    r3, r3, #17
 8001cc2:   d402        bmi.n   8001cca <I2C_ITSlaveCplt+0x42>
 8001cc4:   680b        ldr r3, [r1, #0]
 8001cc6:   423b        tst r3, r7
 8001cc8:   d007        beq.n   8001cda <I2C_ITSlaveCplt+0x52>
 8001cca:   782b        ldrb    r3, [r5, #0]
 8001ccc:   2b21        cmp r3, #33 ; 0x21
 8001cce:   d134        bne.n   8001d3a <I2C_ITSlaveCplt+0xb2>
 8001cd0:   6ba3        ldr r3, [r4, #56]   ; 0x38
 8001cd2:   681b        ldr r3, [r3, #0]
 8001cd4:   685b        ldr r3, [r3, #4]
 8001cd6:   b29b        uxth    r3, r3
 8001cd8:   8563        strh    r3, [r4, #42]   ; 0x2a
 8001cda:   8d63        ldrh    r3, [r4, #42]   ; 0x2a
 8001cdc:   2b00        cmp r3, #0
 8001cde:   d003        beq.n   8001ce8 <I2C_ITSlaveCplt+0x60>
 8001ce0:   2304        movs    r3, #4
 8001ce2:   6c62        ldr r2, [r4, #68]   ; 0x44
 8001ce4:   4313        orrs    r3, r2
 8001ce6:   6463        str r3, [r4, #68]   ; 0x44
 8001ce8:   2204        movs    r2, #4
 8001cea:   4216        tst r6, r2
 8001cec:   d010        beq.n   8001d10 <I2C_ITSlaveCplt+0x88>
 8001cee:   6a63        ldr r3, [r4, #36]   ; 0x24
 8001cf0:   6a49        ldr r1, [r1, #36]   ; 0x24
 8001cf2:   1c58        adds    r0, r3, #1
 8001cf4:   6260        str r0, [r4, #36]   ; 0x24
 8001cf6:   7019        strb    r1, [r3, #0]
 8001cf8:   8d23        ldrh    r3, [r4, #40]   ; 0x28
 8001cfa:   2b00        cmp r3, #0
 8001cfc:   d008        beq.n   8001d10 <I2C_ITSlaveCplt+0x88>
 8001cfe:   3b01        subs    r3, #1
 8001d00:   8523        strh    r3, [r4, #40]   ; 0x28
 8001d02:   8d63        ldrh    r3, [r4, #42]   ; 0x2a
 8001d04:   3b01        subs    r3, #1
 8001d06:   b29b        uxth    r3, r3
 8001d08:   8563        strh    r3, [r4, #42]   ; 0x2a
 8001d0a:   6c63        ldr r3, [r4, #68]   ; 0x44
 8001d0c:   431a        orrs    r2, r3
 8001d0e:   6462        str r2, [r4, #68]   ; 0x44
 8001d10:   0022        movs    r2, r4
 8001d12:   2300        movs    r3, #0
 8001d14:   3242        adds    r2, #66 ; 0x42
 8001d16:   6323        str r3, [r4, #48]   ; 0x30
 8001d18:   7013        strb    r3, [r2, #0]
 8001d1a:   6363        str r3, [r4, #52]   ; 0x34
 8001d1c:   6c63        ldr r3, [r4, #68]   ; 0x44
 8001d1e:   2b00        cmp r3, #0
 8001d20:   d00d        beq.n   8001d3e <I2C_ITSlaveCplt+0xb6>
 8001d22:   6c61        ldr r1, [r4, #68]   ; 0x44
 8001d24:   0020        movs    r0, r4
 8001d26:   f7ff ff3f   bl  8001ba8 <I2C_ITError>
 8001d2a:   782b        ldrb    r3, [r5, #0]
 8001d2c:   2b28        cmp r3, #40 ; 0x28
 8001d2e:   d103        bne.n   8001d38 <I2C_ITSlaveCplt+0xb0>
 8001d30:   0031        movs    r1, r6
 8001d32:   0020        movs    r0, r4
 8001d34:   f7ff ff02   bl  8001b3c <I2C_ITListenCplt>
 8001d38:   bdf8        pop {r3, r4, r5, r6, r7, pc}
 8001d3a:   6be3        ldr r3, [r4, #60]   ; 0x3c
 8001d3c:   e7c9        b.n 8001cd2 <I2C_ITSlaveCplt+0x4a>
 8001d3e:   0022        movs    r2, r4
 8001d40:   6ae0        ldr r0, [r4, #44]   ; 0x2c
 8001d42:   490e        ldr r1, [pc, #56]   ; (8001d7c <I2C_ITSlaveCplt+0xf4>)
 8001d44:   3240        adds    r2, #64 ; 0x40
 8001d46:   4288        cmp r0, r1
 8001d48:   d007        beq.n   8001d5a <I2C_ITSlaveCplt+0xd2>
 8001d4a:   62e1        str r1, [r4, #44]   ; 0x2c
 8001d4c:   2120        movs    r1, #32
 8001d4e:   0020        movs    r0, r4
 8001d50:   7029        strb    r1, [r5, #0]
 8001d52:   7013        strb    r3, [r2, #0]
 8001d54:   f002 f87f   bl  8003e56 <HAL_I2C_ListenCpltCallback>
 8001d58:   e7ee        b.n 8001d38 <I2C_ITSlaveCplt+0xb0>
 8001d5a:   2120        movs    r1, #32
 8001d5c:   7828        ldrb    r0, [r5, #0]
 8001d5e:   7029        strb    r1, [r5, #0]
 8001d60:   7013        strb    r3, [r2, #0]
 8001d62:   2822        cmp r0, #34 ; 0x22
 8001d64:   d103        bne.n   8001d6e <I2C_ITSlaveCplt+0xe6>
 8001d66:   0020        movs    r0, r4
 8001d68:   f002 f88e   bl  8003e88 <HAL_I2C_SlaveRxCpltCallback>
 8001d6c:   e7e4        b.n 8001d38 <I2C_ITSlaveCplt+0xb0>
 8001d6e:   0020        movs    r0, r4
 8001d70:   f002 f8a0   bl  8003eb4 <HAL_I2C_SlaveTxCpltCallback>
 8001d74:   e7e0        b.n 8001d38 <I2C_ITSlaveCplt+0xb0>
 8001d76:   46c0        nop         ; (mov r8, r8)
 8001d78:   fe00e800    .word   0xfe00e800
 8001d7c:   ffff0000    .word   0xffff0000

08001d80 <I2C_Slave_ISR_IT>:
 8001d80:   0003        movs    r3, r0
 8001d82:   b5f0        push    {r4, r5, r6, r7, lr}
 8001d84:   3340        adds    r3, #64 ; 0x40
 8001d86:   0017        movs    r7, r2
 8001d88:   781a        ldrb    r2, [r3, #0]
 8001d8a:   0004        movs    r4, r0
 8001d8c:   b085        sub sp, #20
 8001d8e:   000d        movs    r5, r1
 8001d90:   2002        movs    r0, #2
 8001d92:   2a01        cmp r2, #1
 8001d94:   d026        beq.n   8001de4 <I2C_Slave_ISR_IT+0x64>
 8001d96:   2201        movs    r2, #1
 8001d98:   701a        strb    r2, [r3, #0]
 8001d9a:   320f        adds    r2, #15
 8001d9c:   4211        tst r1, r2
 8001d9e:   d040        beq.n   8001e22 <I2C_Slave_ISR_IT+0xa2>
 8001da0:   4217        tst r7, r2
 8001da2:   d03e        beq.n   8001e22 <I2C_Slave_ISR_IT+0xa2>
 8001da4:   8d63        ldrh    r3, [r4, #42]   ; 0x2a
 8001da6:   2b00        cmp r3, #0
 8001da8:   d134        bne.n   8001e14 <I2C_Slave_ISR_IT+0x94>
 8001daa:   2380        movs    r3, #128    ; 0x80
 8001dac:   6ae2        ldr r2, [r4, #44]   ; 0x2c
 8001dae:   049b        lsls    r3, r3, #18
 8001db0:   429a        cmp r2, r3
 8001db2:   d002        beq.n   8001dba <I2C_Slave_ISR_IT+0x3a>
 8001db4:   6ae2        ldr r2, [r4, #44]   ; 0x2c
 8001db6:   429a        cmp r2, r3
 8001db8:   d116        bne.n   8001de8 <I2C_Slave_ISR_IT+0x68>
 8001dba:   0023        movs    r3, r4
 8001dbc:   3341        adds    r3, #65 ; 0x41
 8001dbe:   781b        ldrb    r3, [r3, #0]
 8001dc0:   2b28        cmp r3, #40 ; 0x28
 8001dc2:   d111        bne.n   8001de8 <I2C_Slave_ISR_IT+0x68>
 8001dc4:   0029        movs    r1, r5
 8001dc6:   0020        movs    r0, r4
 8001dc8:   f7ff feb8   bl  8001b3c <I2C_ITListenCplt>
 8001dcc:   2320        movs    r3, #32
 8001dce:   421d        tst r5, r3
 8001dd0:   d005        beq.n   8001dde <I2C_Slave_ISR_IT+0x5e>
 8001dd2:   421f        tst r7, r3
 8001dd4:   d003        beq.n   8001dde <I2C_Slave_ISR_IT+0x5e>
 8001dd6:   0029        movs    r1, r5
 8001dd8:   0020        movs    r0, r4
 8001dda:   f7ff ff55   bl  8001c88 <I2C_ITSlaveCplt>
 8001dde:   2000        movs    r0, #0
 8001de0:   3440        adds    r4, #64 ; 0x40
 8001de2:   7020        strb    r0, [r4, #0]
 8001de4:   b005        add sp, #20
 8001de6:   bdf0        pop {r4, r5, r6, r7, pc}
 8001de8:   6ae1        ldr r1, [r4, #44]   ; 0x2c
 8001dea:   4a58        ldr r2, [pc, #352]  ; (8001f4c <I2C_Slave_ISR_IT+0x1cc>)
 8001dec:   6823        ldr r3, [r4, #0]
 8001dee:   4291        cmp r1, r2
 8001df0:   d00d        beq.n   8001e0e <I2C_Slave_ISR_IT+0x8e>
 8001df2:   0022        movs    r2, r4
 8001df4:   3241        adds    r2, #65 ; 0x41
 8001df6:   7812        ldrb    r2, [r2, #0]
 8001df8:   2a29        cmp r2, #41 ; 0x29
 8001dfa:   d108        bne.n   8001e0e <I2C_Slave_ISR_IT+0x8e>
 8001dfc:   3a19        subs    r2, #25
 8001dfe:   61da        str r2, [r3, #28]
 8001e00:   0020        movs    r0, r4
 8001e02:   f7ff fd3d   bl  8001880 <I2C_Flush_TXDR>
 8001e06:   0020        movs    r0, r4
 8001e08:   f7ff fe6f   bl  8001aea <I2C_ITSlaveSequentialCplt>
 8001e0c:   e7de        b.n 8001dcc <I2C_Slave_ISR_IT+0x4c>
 8001e0e:   2210        movs    r2, #16
 8001e10:   61da        str r2, [r3, #28]
 8001e12:   e7db        b.n 8001dcc <I2C_Slave_ISR_IT+0x4c>
 8001e14:   6823        ldr r3, [r4, #0]
 8001e16:   61da        str r2, [r3, #28]
 8001e18:   2304        movs    r3, #4
 8001e1a:   6c62        ldr r2, [r4, #68]   ; 0x44
 8001e1c:   4313        orrs    r3, r2
 8001e1e:   6463        str r3, [r4, #68]   ; 0x44
 8001e20:   e7d4        b.n 8001dcc <I2C_Slave_ISR_IT+0x4c>
 8001e22:   2204        movs    r2, #4
 8001e24:   4215        tst r5, r2
 8001e26:   d019        beq.n   8001e5c <I2C_Slave_ISR_IT+0xdc>
 8001e28:   4217        tst r7, r2
 8001e2a:   d017        beq.n   8001e5c <I2C_Slave_ISR_IT+0xdc>
 8001e2c:   8d63        ldrh    r3, [r4, #42]   ; 0x2a
 8001e2e:   2b00        cmp r3, #0
 8001e30:   d00c        beq.n   8001e4c <I2C_Slave_ISR_IT+0xcc>
 8001e32:   6823        ldr r3, [r4, #0]
 8001e34:   6a5a        ldr r2, [r3, #36]   ; 0x24
 8001e36:   6a63        ldr r3, [r4, #36]   ; 0x24
 8001e38:   1c59        adds    r1, r3, #1
 8001e3a:   6261        str r1, [r4, #36]   ; 0x24
 8001e3c:   701a        strb    r2, [r3, #0]
 8001e3e:   8d23        ldrh    r3, [r4, #40]   ; 0x28
 8001e40:   3b01        subs    r3, #1
 8001e42:   8523        strh    r3, [r4, #40]   ; 0x28
 8001e44:   8d63        ldrh    r3, [r4, #42]   ; 0x2a
 8001e46:   3b01        subs    r3, #1
 8001e48:   b29b        uxth    r3, r3
 8001e4a:   8563        strh    r3, [r4, #42]   ; 0x2a
 8001e4c:   8d63        ldrh    r3, [r4, #42]   ; 0x2a
 8001e4e:   2b00        cmp r3, #0
 8001e50:   d1bc        bne.n   8001dcc <I2C_Slave_ISR_IT+0x4c>
 8001e52:   6ae2        ldr r2, [r4, #44]   ; 0x2c
 8001e54:   4b3d        ldr r3, [pc, #244]  ; (8001f4c <I2C_Slave_ISR_IT+0x1cc>)
 8001e56:   429a        cmp r2, r3
 8001e58:   d0b8        beq.n   8001dcc <I2C_Slave_ISR_IT+0x4c>
 8001e5a:   e7d4        b.n 8001e06 <I2C_Slave_ISR_IT+0x86>
 8001e5c:   2008        movs    r0, #8
 8001e5e:   4205        tst r5, r0
 8001e60:   d050        beq.n   8001f04 <I2C_Slave_ISR_IT+0x184>
 8001e62:   4207        tst r7, r0
 8001e64:   d04e        beq.n   8001f04 <I2C_Slave_ISR_IT+0x184>
 8001e66:   0022        movs    r2, r4
 8001e68:   2628        movs    r6, #40 ; 0x28
 8001e6a:   3241        adds    r2, #65 ; 0x41
 8001e6c:   7812        ldrb    r2, [r2, #0]
 8001e6e:   6821        ldr r1, [r4, #0]
 8001e70:   4032        ands    r2, r6
 8001e72:   42b2        cmp r2, r6
 8001e74:   d142        bne.n   8001efc <I2C_Slave_ISR_IT+0x17c>
 8001e76:   22fe        movs    r2, #254    ; 0xfe
 8001e78:   698e        ldr r6, [r1, #24]
 8001e7a:   698b        ldr r3, [r1, #24]
 8001e7c:   03f6        lsls    r6, r6, #15
 8001e7e:   0c1b        lsrs    r3, r3, #16
 8001e80:   401a        ands    r2, r3
 8001e82:   9201        str r2, [sp, #4]
 8001e84:   688a        ldr r2, [r1, #8]
 8001e86:   68cb        ldr r3, [r1, #12]
 8001e88:   0ff6        lsrs    r6, r6, #31
 8001e8a:   9303        str r3, [sp, #12]
 8001e8c:   0023        movs    r3, r4
 8001e8e:   3340        adds    r3, #64 ; 0x40
 8001e90:   9300        str r3, [sp, #0]
 8001e92:   68e3        ldr r3, [r4, #12]
 8001e94:   2b02        cmp r3, #2
 8001e96:   d128        bne.n   8001eea <I2C_Slave_ISR_IT+0x16a>
 8001e98:   0592        lsls    r2, r2, #22
 8001e9a:   0d93        lsrs    r3, r2, #22
 8001e9c:   9a01        ldr r2, [sp, #4]
 8001e9e:   9302        str r3, [sp, #8]
 8001ea0:   09db        lsrs    r3, r3, #7
 8001ea2:   405a        eors    r2, r3
 8001ea4:   0013        movs    r3, r2
 8001ea6:   2206        movs    r2, #6
 8001ea8:   4013        ands    r3, r2
 8001eaa:   d113        bne.n   8001ed4 <I2C_Slave_ISR_IT+0x154>
 8001eac:   6ca2        ldr r2, [r4, #72]   ; 0x48
 8001eae:   4694        mov ip, r2
 8001eb0:   2201        movs    r2, #1
 8001eb2:   4494        add ip, r2
 8001eb4:   4662        mov r2, ip
 8001eb6:   64a2        str r2, [r4, #72]   ; 0x48
 8001eb8:   6ca2        ldr r2, [r4, #72]   ; 0x48
 8001eba:   2a02        cmp r2, #2
 8001ebc:   d000        beq.n   8001ec0 <I2C_Slave_ISR_IT+0x140>
 8001ebe:   e785        b.n 8001dcc <I2C_Slave_ISR_IT+0x4c>
 8001ec0:   9a00        ldr r2, [sp, #0]
 8001ec2:   64a3        str r3, [r4, #72]   ; 0x48
 8001ec4:   61c8        str r0, [r1, #28]
 8001ec6:   7013        strb    r3, [r2, #0]
 8001ec8:   9a02        ldr r2, [sp, #8]
 8001eca:   0031        movs    r1, r6
 8001ecc:   0020        movs    r0, r4
 8001ece:   f001 ff9c   bl  8003e0a <HAL_I2C_AddrCallback>
 8001ed2:   e77b        b.n 8001dcc <I2C_Slave_ISR_IT+0x4c>
 8001ed4:   2104        movs    r1, #4
 8001ed6:   0020        movs    r0, r4
 8001ed8:   f7ff fd28   bl  800192c <I2C_Disable_IRQ>
 8001edc:   2300        movs    r3, #0
 8001ede:   9a00        ldr r2, [sp, #0]
 8001ee0:   7013        strb    r3, [r2, #0]
 8001ee2:   9a03        ldr r2, [sp, #12]
 8001ee4:   33fe        adds    r3, #254    ; 0xfe
 8001ee6:   401a        ands    r2, r3
 8001ee8:   e7ef        b.n 8001eca <I2C_Slave_ISR_IT+0x14a>
 8001eea:   2104        movs    r1, #4
 8001eec:   0020        movs    r0, r4
 8001eee:   f7ff fd1d   bl  800192c <I2C_Disable_IRQ>
 8001ef2:   2300        movs    r3, #0
 8001ef4:   9a00        ldr r2, [sp, #0]
 8001ef6:   7013        strb    r3, [r2, #0]
 8001ef8:   9a01        ldr r2, [sp, #4]
 8001efa:   e7e6        b.n 8001eca <I2C_Slave_ISR_IT+0x14a>
 8001efc:   2200        movs    r2, #0
 8001efe:   61c8        str r0, [r1, #28]
 8001f00:   701a        strb    r2, [r3, #0]
 8001f02:   e763        b.n 8001dcc <I2C_Slave_ISR_IT+0x4c>
 8001f04:   2302        movs    r3, #2
 8001f06:   421d        tst r5, r3
 8001f08:   d100        bne.n   8001f0c <I2C_Slave_ISR_IT+0x18c>
 8001f0a:   e75f        b.n 8001dcc <I2C_Slave_ISR_IT+0x4c>
 8001f0c:   421f        tst r7, r3
 8001f0e:   d100        bne.n   8001f12 <I2C_Slave_ISR_IT+0x192>
 8001f10:   e75c        b.n 8001dcc <I2C_Slave_ISR_IT+0x4c>
 8001f12:   8d63        ldrh    r3, [r4, #42]   ; 0x2a
 8001f14:   2b00        cmp r3, #0
 8001f16:   d00d        beq.n   8001f34 <I2C_Slave_ISR_IT+0x1b4>
 8001f18:   6a63        ldr r3, [r4, #36]   ; 0x24
 8001f1a:   1c5a        adds    r2, r3, #1
 8001f1c:   6262        str r2, [r4, #36]   ; 0x24
 8001f1e:   781b        ldrb    r3, [r3, #0]
 8001f20:   6822        ldr r2, [r4, #0]
 8001f22:   6293        str r3, [r2, #40]   ; 0x28
 8001f24:   8d63        ldrh    r3, [r4, #42]   ; 0x2a
 8001f26:   3b01        subs    r3, #1
 8001f28:   b29b        uxth    r3, r3
 8001f2a:   8563        strh    r3, [r4, #42]   ; 0x2a
 8001f2c:   8d23        ldrh    r3, [r4, #40]   ; 0x28
 8001f2e:   3b01        subs    r3, #1
 8001f30:   8523        strh    r3, [r4, #40]   ; 0x28
 8001f32:   e74b        b.n 8001dcc <I2C_Slave_ISR_IT+0x4c>
 8001f34:   2380        movs    r3, #128    ; 0x80
 8001f36:   6ae2        ldr r2, [r4, #44]   ; 0x2c
 8001f38:   045b        lsls    r3, r3, #17
 8001f3a:   429a        cmp r2, r3
 8001f3c:   d100        bne.n   8001f40 <I2C_Slave_ISR_IT+0x1c0>
 8001f3e:   e762        b.n 8001e06 <I2C_Slave_ISR_IT+0x86>
 8001f40:   6ae3        ldr r3, [r4, #44]   ; 0x2c
 8001f42:   2b00        cmp r3, #0
 8001f44:   d100        bne.n   8001f48 <I2C_Slave_ISR_IT+0x1c8>
 8001f46:   e75e        b.n 8001e06 <I2C_Slave_ISR_IT+0x86>
 8001f48:   e740        b.n 8001dcc <I2C_Slave_ISR_IT+0x4c>
 8001f4a:   46c0        nop         ; (mov r8, r8)
 8001f4c:   ffff0000    .word   0xffff0000

08001f50 <I2C_Slave_ISR_DMA>:
 8001f50:   b570        push    {r4, r5, r6, lr}
 8001f52:   0004        movs    r4, r0
 8001f54:   3440        adds    r4, #64 ; 0x40
 8001f56:   7825        ldrb    r5, [r4, #0]
 8001f58:   2302        movs    r3, #2
 8001f5a:   2d01        cmp r5, #1
 8001f5c:   d018        beq.n   8001f90 <I2C_Slave_ISR_DMA+0x40>
 8001f5e:   3b01        subs    r3, #1
 8001f60:   7023        strb    r3, [r4, #0]
 8001f62:   330f        adds    r3, #15
 8001f64:   4219        tst r1, r3
 8001f66:   d01c        beq.n   8001fa2 <I2C_Slave_ISR_DMA+0x52>
 8001f68:   421a        tst r2, r3
 8001f6a:   d01a        beq.n   8001fa2 <I2C_Slave_ISR_DMA+0x52>
 8001f6c:   0003        movs    r3, r0
 8001f6e:   3341        adds    r3, #65 ; 0x41
 8001f70:   781b        ldrb    r3, [r3, #0]
 8001f72:   2b21        cmp r3, #33 ; 0x21
 8001f74:   d10e        bne.n   8001f94 <I2C_Slave_ISR_DMA+0x44>
 8001f76:   6b83        ldr r3, [r0, #56]   ; 0x38
 8001f78:   681b        ldr r3, [r3, #0]
 8001f7a:   2110        movs    r1, #16
 8001f7c:   685b        ldr r3, [r3, #4]
 8001f7e:   425a        negs    r2, r3
 8001f80:   4153        adcs    r3, r2
 8001f82:   6802        ldr r2, [r0, #0]
 8001f84:   b2db        uxtb    r3, r3
 8001f86:   61d1        str r1, [r2, #28]
 8001f88:   2b00        cmp r3, #0
 8001f8a:   d005        beq.n   8001f98 <I2C_Slave_ISR_DMA+0x48>
 8001f8c:   2300        movs    r3, #0
 8001f8e:   7023        strb    r3, [r4, #0]
 8001f90:   0018        movs    r0, r3
 8001f92:   bd70        pop {r4, r5, r6, pc}
 8001f94:   6bc3        ldr r3, [r0, #60]   ; 0x3c
 8001f96:   e7ef        b.n 8001f78 <I2C_Slave_ISR_DMA+0x28>
 8001f98:   2304        movs    r3, #4
 8001f9a:   6c42        ldr r2, [r0, #68]   ; 0x44
 8001f9c:   4313        orrs    r3, r2
 8001f9e:   6443        str r3, [r0, #68]   ; 0x44
 8001fa0:   e7f4        b.n 8001f8c <I2C_Slave_ISR_DMA+0x3c>
 8001fa2:   2308        movs    r3, #8
 8001fa4:   4219        tst r1, r3
 8001fa6:   d004        beq.n   8001fb2 <I2C_Slave_ISR_DMA+0x62>
 8001fa8:   421a        tst r2, r3
 8001faa:   d002        beq.n   8001fb2 <I2C_Slave_ISR_DMA+0x62>
 8001fac:   6802        ldr r2, [r0, #0]
 8001fae:   61d3        str r3, [r2, #28]
 8001fb0:   e7ec        b.n 8001f8c <I2C_Slave_ISR_DMA+0x3c>
 8001fb2:   2320        movs    r3, #32
 8001fb4:   4219        tst r1, r3
 8001fb6:   d0e9        beq.n   8001f8c <I2C_Slave_ISR_DMA+0x3c>
 8001fb8:   421a        tst r2, r3
 8001fba:   d0e7        beq.n   8001f8c <I2C_Slave_ISR_DMA+0x3c>
 8001fbc:   f7ff fe64   bl  8001c88 <I2C_ITSlaveCplt>
 8001fc0:   e7e4        b.n 8001f8c <I2C_Slave_ISR_DMA+0x3c>
    ...

08001fc4 <I2C_ITMasterCplt>:
 8001fc4:   2220        movs    r2, #32
 8001fc6:   6803        ldr r3, [r0, #0]
 8001fc8:   b510        push    {r4, lr}
 8001fca:   61da        str r2, [r3, #28]
 8001fcc:   685a        ldr r2, [r3, #4]
 8001fce:   0004        movs    r4, r0
 8001fd0:   4827        ldr r0, [pc, #156]  ; (8002070 <I2C_ITMasterCplt+0xac>)
 8001fd2:   4002        ands    r2, r0
 8001fd4:   605a        str r2, [r3, #4]
 8001fd6:   2200        movs    r2, #0
 8001fd8:   6322        str r2, [r4, #48]   ; 0x30
 8001fda:   6362        str r2, [r4, #52]   ; 0x34
 8001fdc:   4a25        ldr r2, [pc, #148]  ; (8002074 <I2C_ITMasterCplt+0xb0>)
 8001fde:   62e2        str r2, [r4, #44]   ; 0x2c
 8001fe0:   2210        movs    r2, #16
 8001fe2:   4211        tst r1, r2
 8001fe4:   d004        beq.n   8001ff0 <I2C_ITMasterCplt+0x2c>
 8001fe6:   61da        str r2, [r3, #28]
 8001fe8:   2304        movs    r3, #4
 8001fea:   6c62        ldr r2, [r4, #68]   ; 0x44
 8001fec:   4313        orrs    r3, r2
 8001fee:   6463        str r3, [r4, #68]   ; 0x44
 8001ff0:   0020        movs    r0, r4
 8001ff2:   f7ff fc45   bl  8001880 <I2C_Flush_TXDR>
 8001ff6:   2103        movs    r1, #3
 8001ff8:   0020        movs    r0, r4
 8001ffa:   f7ff fc97   bl  800192c <I2C_Disable_IRQ>
 8001ffe:   6c63        ldr r3, [r4, #68]   ; 0x44
 8002000:   2b00        cmp r3, #0
 8002002:   d104        bne.n   800200e <I2C_ITMasterCplt+0x4a>
 8002004:   0022        movs    r2, r4
 8002006:   3241        adds    r2, #65 ; 0x41
 8002008:   7811        ldrb    r1, [r2, #0]
 800200a:   2960        cmp r1, #96 ; 0x60
 800200c:   d104        bne.n   8002018 <I2C_ITMasterCplt+0x54>
 800200e:   6c61        ldr r1, [r4, #68]   ; 0x44
 8002010:   0020        movs    r0, r4
 8002012:   f7ff fdc9   bl  8001ba8 <I2C_ITError>
 8002016:   bd10        pop {r4, pc}
 8002018:   7811        ldrb    r1, [r2, #0]
 800201a:   2921        cmp r1, #33 ; 0x21
 800201c:   d112        bne.n   8002044 <I2C_ITMasterCplt+0x80>
 800201e:   3901        subs    r1, #1
 8002020:   7011        strb    r1, [r2, #0]
 8002022:   0022        movs    r2, r4
 8002024:   0021        movs    r1, r4
 8002026:   3242        adds    r2, #66 ; 0x42
 8002028:   7810        ldrb    r0, [r2, #0]
 800202a:   3140        adds    r1, #64 ; 0x40
 800202c:   7013        strb    r3, [r2, #0]
 800202e:   700b        strb    r3, [r1, #0]
 8002030:   2840        cmp r0, #64 ; 0x40
 8002032:   d103        bne.n   800203c <I2C_ITMasterCplt+0x78>
 8002034:   0020        movs    r0, r4
 8002036:   f7ff fdb3   bl  8001ba0 <HAL_I2C_MemTxCpltCallback>
 800203a:   e7ec        b.n 8002016 <I2C_ITMasterCplt+0x52>
 800203c:   0020        movs    r0, r4
 800203e:   f7ff fd52   bl  8001ae6 <HAL_I2C_MasterTxCpltCallback>
 8002042:   e7e8        b.n 8002016 <I2C_ITMasterCplt+0x52>
 8002044:   7811        ldrb    r1, [r2, #0]
 8002046:   2922        cmp r1, #34 ; 0x22
 8002048:   d1e5        bne.n   8002016 <I2C_ITMasterCplt+0x52>
 800204a:   3902        subs    r1, #2
 800204c:   7011        strb    r1, [r2, #0]
 800204e:   0022        movs    r2, r4
 8002050:   0021        movs    r1, r4
 8002052:   3242        adds    r2, #66 ; 0x42
 8002054:   7810        ldrb    r0, [r2, #0]
 8002056:   3140        adds    r1, #64 ; 0x40
 8002058:   7013        strb    r3, [r2, #0]
 800205a:   700b        strb    r3, [r1, #0]
 800205c:   2840        cmp r0, #64 ; 0x40
 800205e:   d103        bne.n   8002068 <I2C_ITMasterCplt+0xa4>
 8002060:   0020        movs    r0, r4
 8002062:   f7ff fd9e   bl  8001ba2 <HAL_I2C_MemRxCpltCallback>
 8002066:   e7d6        b.n 8002016 <I2C_ITMasterCplt+0x52>
 8002068:   0020        movs    r0, r4
 800206a:   f7ff fd3d   bl  8001ae8 <HAL_I2C_MasterRxCpltCallback>
 800206e:   e7d2        b.n 8002016 <I2C_ITMasterCplt+0x52>
 8002070:   fe00e800    .word   0xfe00e800
 8002074:   ffff0000    .word   0xffff0000

08002078 <I2C_Master_ISR_DMA>:
 8002078:   b537        push    {r0, r1, r2, r4, r5, lr}
 800207a:   0005        movs    r5, r0
 800207c:   3540        adds    r5, #64 ; 0x40
 800207e:   782b        ldrb    r3, [r5, #0]
 8002080:   0004        movs    r4, r0
 8002082:   2002        movs    r0, #2
 8002084:   2b01        cmp r3, #1
 8002086:   d015        beq.n   80020b4 <I2C_Master_ISR_DMA+0x3c>
 8002088:   2301        movs    r3, #1
 800208a:   702b        strb    r3, [r5, #0]
 800208c:   330f        adds    r3, #15
 800208e:   4219        tst r1, r3
 8002090:   d011        beq.n   80020b6 <I2C_Master_ISR_DMA+0x3e>
 8002092:   421a        tst r2, r3
 8002094:   d00f        beq.n   80020b6 <I2C_Master_ISR_DMA+0x3e>
 8002096:   6822        ldr r2, [r4, #0]
 8002098:   2112        movs    r1, #18
 800209a:   61d3        str r3, [r2, #28]
 800209c:   6c62        ldr r2, [r4, #68]   ; 0x44
 800209e:   3b0c        subs    r3, #12
 80020a0:   4313        orrs    r3, r2
 80020a2:   6463        str r3, [r4, #68]   ; 0x44
 80020a4:   0020        movs    r0, r4
 80020a6:   f7ff fc0b   bl  80018c0 <I2C_Enable_IRQ>
 80020aa:   0020        movs    r0, r4
 80020ac:   f7ff fbe8   bl  8001880 <I2C_Flush_TXDR>
 80020b0:   2000        movs    r0, #0
 80020b2:   7028        strb    r0, [r5, #0]
 80020b4:   bd3e        pop {r1, r2, r3, r4, r5, pc}
 80020b6:   060b        lsls    r3, r1, #24
 80020b8:   d537        bpl.n   800212a <I2C_Master_ISR_DMA+0xb2>
 80020ba:   2340        movs    r3, #64 ; 0x40
 80020bc:   421a        tst r2, r3
 80020be:   d034        beq.n   800212a <I2C_Master_ISR_DMA+0xb2>
 80020c0:   6822        ldr r2, [r4, #0]
 80020c2:   6811        ldr r1, [r2, #0]
 80020c4:   4399        bics    r1, r3
 80020c6:   6011        str r1, [r2, #0]
 80020c8:   8d61        ldrh    r1, [r4, #42]   ; 0x2a
 80020ca:   2900        cmp r1, #0
 80020cc:   d028        beq.n   8002120 <I2C_Master_ISR_DMA+0xa8>
 80020ce:   6851        ldr r1, [r2, #4]
 80020d0:   8d63        ldrh    r3, [r4, #42]   ; 0x2a
 80020d2:   0589        lsls    r1, r1, #22
 80020d4:   0d89        lsrs    r1, r1, #22
 80020d6:   2bff        cmp r3, #255    ; 0xff
 80020d8:   d81b        bhi.n   8002112 <I2C_Master_ISR_DMA+0x9a>
 80020da:   2380        movs    r3, #128    ; 0x80
 80020dc:   8d62        ldrh    r2, [r4, #42]   ; 0x2a
 80020de:   049b        lsls    r3, r3, #18
 80020e0:   b292        uxth    r2, r2
 80020e2:   2000        movs    r0, #0
 80020e4:   8522        strh    r2, [r4, #40]   ; 0x28
 80020e6:   9000        str r0, [sp, #0]
 80020e8:   b2d2        uxtb    r2, r2
 80020ea:   0020        movs    r0, r4
 80020ec:   f7ff fbd6   bl  800189c <I2C_TransferConfig>
 80020f0:   8d63        ldrh    r3, [r4, #42]   ; 0x2a
 80020f2:   8d22        ldrh    r2, [r4, #40]   ; 0x28
 80020f4:   1a9b        subs    r3, r3, r2
 80020f6:   b29b        uxth    r3, r3
 80020f8:   8563        strh    r3, [r4, #42]   ; 0x2a
 80020fa:   0023        movs    r3, r4
 80020fc:   3341        adds    r3, #65 ; 0x41
 80020fe:   781a        ldrb    r2, [r3, #0]
 8002100:   6823        ldr r3, [r4, #0]
 8002102:   6819        ldr r1, [r3, #0]
 8002104:   2a22        cmp r2, #34 ; 0x22
 8002106:   d108        bne.n   800211a <I2C_Master_ISR_DMA+0xa2>
 8002108:   2280        movs    r2, #128    ; 0x80
 800210a:   0212        lsls    r2, r2, #8
 800210c:   430a        orrs    r2, r1
 800210e:   601a        str r2, [r3, #0]
 8002110:   e7ce        b.n 80020b0 <I2C_Master_ISR_DMA+0x38>
 8002112:   2380        movs    r3, #128    ; 0x80
 8002114:   22ff        movs    r2, #255    ; 0xff
 8002116:   045b        lsls    r3, r3, #17
 8002118:   e7e3        b.n 80020e2 <I2C_Master_ISR_DMA+0x6a>
 800211a:   2280        movs    r2, #128    ; 0x80
 800211c:   01d2        lsls    r2, r2, #7
 800211e:   e7f5        b.n 800210c <I2C_Master_ISR_DMA+0x94>
 8002120:   0019        movs    r1, r3
 8002122:   0020        movs    r0, r4
 8002124:   f7ff fd40   bl  8001ba8 <I2C_ITError>
 8002128:   e7c2        b.n 80020b0 <I2C_Master_ISR_DMA+0x38>
 800212a:   2320        movs    r3, #32
 800212c:   4219        tst r1, r3
 800212e:   d0bf        beq.n   80020b0 <I2C_Master_ISR_DMA+0x38>
 8002130:   421a        tst r2, r3
 8002132:   d0bd        beq.n   80020b0 <I2C_Master_ISR_DMA+0x38>
 8002134:   0020        movs    r0, r4
 8002136:   f7ff ff45   bl  8001fc4 <I2C_ITMasterCplt>
 800213a:   e7b9        b.n 80020b0 <I2C_Master_ISR_DMA+0x38>

0800213c <HAL_I2C_ER_IRQHandler>:
 800213c:   b570        push    {r4, r5, r6, lr}
 800213e:   2580        movs    r5, #128    ; 0x80
 8002140:   6803        ldr r3, [r0, #0]
 8002142:   006d        lsls    r5, r5, #1
 8002144:   6999        ldr r1, [r3, #24]
 8002146:   681a        ldr r2, [r3, #0]
 8002148:   4229        tst r1, r5
 800214a:   d006        beq.n   800215a <HAL_I2C_ER_IRQHandler+0x1e>
 800214c:   0614        lsls    r4, r2, #24
 800214e:   d504        bpl.n   800215a <HAL_I2C_ER_IRQHandler+0x1e>
 8002150:   2401        movs    r4, #1
 8002152:   6c46        ldr r6, [r0, #68]   ; 0x44
 8002154:   4334        orrs    r4, r6
 8002156:   6444        str r4, [r0, #68]   ; 0x44
 8002158:   61dd        str r5, [r3, #28]
 800215a:   2580        movs    r5, #128    ; 0x80
 800215c:   00ed        lsls    r5, r5, #3
 800215e:   4229        tst r1, r5
 8002160:   d006        beq.n   8002170 <HAL_I2C_ER_IRQHandler+0x34>
 8002162:   0614        lsls    r4, r2, #24
 8002164:   d504        bpl.n   8002170 <HAL_I2C_ER_IRQHandler+0x34>
 8002166:   2408        movs    r4, #8
 8002168:   6c46        ldr r6, [r0, #68]   ; 0x44
 800216a:   4334        orrs    r4, r6
 800216c:   6444        str r4, [r0, #68]   ; 0x44
 800216e:   61dd        str r5, [r3, #28]
 8002170:   2480        movs    r4, #128    ; 0x80
 8002172:   00a4        lsls    r4, r4, #2
 8002174:   4221        tst r1, r4
 8002176:   d006        beq.n   8002186 <HAL_I2C_ER_IRQHandler+0x4a>
 8002178:   0612        lsls    r2, r2, #24
 800217a:   d504        bpl.n   8002186 <HAL_I2C_ER_IRQHandler+0x4a>
 800217c:   2202        movs    r2, #2
 800217e:   6c41        ldr r1, [r0, #68]   ; 0x44
 8002180:   430a        orrs    r2, r1
 8002182:   6442        str r2, [r0, #68]   ; 0x44
 8002184:   61dc        str r4, [r3, #28]
 8002186:   230b        movs    r3, #11
 8002188:   6c42        ldr r2, [r0, #68]   ; 0x44
 800218a:   421a        tst r2, r3
 800218c:   d002        beq.n   8002194 <HAL_I2C_ER_IRQHandler+0x58>
 800218e:   6c41        ldr r1, [r0, #68]   ; 0x44
 8002190:   f7ff fd0a   bl  8001ba8 <I2C_ITError>
 8002194:   bd70        pop {r4, r5, r6, pc}

08002196 <I2C_DMAAbort>:
 8002196:   2380        movs    r3, #128    ; 0x80
 8002198:   6a40        ldr r0, [r0, #36]   ; 0x24
 800219a:   021b        lsls    r3, r3, #8
 800219c:   6802        ldr r2, [r0, #0]
 800219e:   b510        push    {r4, lr}
 80021a0:   6851        ldr r1, [r2, #4]
 80021a2:   430b        orrs    r3, r1
 80021a4:   6053        str r3, [r2, #4]
 80021a6:   2300        movs    r3, #0
 80021a8:   6b82        ldr r2, [r0, #56]   ; 0x38
 80021aa:   6353        str r3, [r2, #52]   ; 0x34
 80021ac:   6bc2        ldr r2, [r0, #60]   ; 0x3c
 80021ae:   6353        str r3, [r2, #52]   ; 0x34
 80021b0:   0003        movs    r3, r0
 80021b2:   3341        adds    r3, #65 ; 0x41
 80021b4:   781a        ldrb    r2, [r3, #0]
 80021b6:   2a60        cmp r2, #96 ; 0x60
 80021b8:   d104        bne.n   80021c4 <I2C_DMAAbort+0x2e>
 80021ba:   3a40        subs    r2, #64 ; 0x40
 80021bc:   701a        strb    r2, [r3, #0]
 80021be:   f7ff fcf1   bl  8001ba4 <HAL_I2C_AbortCpltCallback>
 80021c2:   bd10        pop {r4, pc}
 80021c4:   f001 fe7a   bl  8003ebc <HAL_I2C_ErrorCallback>
 80021c8:   e7fb        b.n 80021c2 <I2C_DMAAbort+0x2c>
    ...

080021cc <HAL_RCC_OscConfig>:
 80021cc:   b5f0        push    {r4, r5, r6, r7, lr}
 80021ce:   6803        ldr r3, [r0, #0]
 80021d0:   b085        sub sp, #20
 80021d2:   0005        movs    r5, r0
 80021d4:   07db        lsls    r3, r3, #31
 80021d6:   d42f        bmi.n   8002238 <HAL_RCC_OscConfig+0x6c>
 80021d8:   682b        ldr r3, [r5, #0]
 80021da:   079b        lsls    r3, r3, #30
 80021dc:   d500        bpl.n   80021e0 <HAL_RCC_OscConfig+0x14>
 80021de:   e081        b.n 80022e4 <HAL_RCC_OscConfig+0x118>
 80021e0:   682b        ldr r3, [r5, #0]
 80021e2:   071b        lsls    r3, r3, #28
 80021e4:   d500        bpl.n   80021e8 <HAL_RCC_OscConfig+0x1c>
 80021e6:   e0bc        b.n 8002362 <HAL_RCC_OscConfig+0x196>
 80021e8:   682b        ldr r3, [r5, #0]
 80021ea:   075b        lsls    r3, r3, #29
 80021ec:   d500        bpl.n   80021f0 <HAL_RCC_OscConfig+0x24>
 80021ee:   e0df        b.n 80023b0 <HAL_RCC_OscConfig+0x1e4>
 80021f0:   682b        ldr r3, [r5, #0]
 80021f2:   06db        lsls    r3, r3, #27
 80021f4:   d51a        bpl.n   800222c <HAL_RCC_OscConfig+0x60>
 80021f6:   696a        ldr r2, [r5, #20]
 80021f8:   4cb5        ldr r4, [pc, #724]  ; (80024d0 <HAL_RCC_OscConfig+0x304>)
 80021fa:   2304        movs    r3, #4
 80021fc:   2a01        cmp r2, #1
 80021fe:   d000        beq.n   8002202 <HAL_RCC_OscConfig+0x36>
 8002200:   e14b        b.n 800249a <HAL_RCC_OscConfig+0x2ce>
 8002202:   6b61        ldr r1, [r4, #52]   ; 0x34
 8002204:   2602        movs    r6, #2
 8002206:   430b        orrs    r3, r1
 8002208:   6363        str r3, [r4, #52]   ; 0x34
 800220a:   6b63        ldr r3, [r4, #52]   ; 0x34
 800220c:   431a        orrs    r2, r3
 800220e:   6362        str r2, [r4, #52]   ; 0x34
 8002210:   f7ff fa8e   bl  8001730 <HAL_GetTick>
 8002214:   0007        movs    r7, r0
 8002216:   6b63        ldr r3, [r4, #52]   ; 0x34
 8002218:   4233        tst r3, r6
 800221a:   d100        bne.n   800221e <HAL_RCC_OscConfig+0x52>
 800221c:   e136        b.n 800248c <HAL_RCC_OscConfig+0x2c0>
 800221e:   21f8        movs    r1, #248    ; 0xf8
 8002220:   6b62        ldr r2, [r4, #52]   ; 0x34
 8002222:   69ab        ldr r3, [r5, #24]
 8002224:   438a        bics    r2, r1
 8002226:   00db        lsls    r3, r3, #3
 8002228:   4313        orrs    r3, r2
 800222a:   6363        str r3, [r4, #52]   ; 0x34
 800222c:   6a29        ldr r1, [r5, #32]
 800222e:   2900        cmp r1, #0
 8002230:   d000        beq.n   8002234 <HAL_RCC_OscConfig+0x68>
 8002232:   e159        b.n 80024e8 <HAL_RCC_OscConfig+0x31c>
 8002234:   2000        movs    r0, #0
 8002236:   e013        b.n 8002260 <HAL_RCC_OscConfig+0x94>
 8002238:   210c        movs    r1, #12
 800223a:   4ca5        ldr r4, [pc, #660]  ; (80024d0 <HAL_RCC_OscConfig+0x304>)
 800223c:   6862        ldr r2, [r4, #4]
 800223e:   400a        ands    r2, r1
 8002240:   2a04        cmp r2, #4
 8002242:   d006        beq.n   8002252 <HAL_RCC_OscConfig+0x86>
 8002244:   6863        ldr r3, [r4, #4]
 8002246:   400b        ands    r3, r1
 8002248:   2b08        cmp r3, #8
 800224a:   d10b        bne.n   8002264 <HAL_RCC_OscConfig+0x98>
 800224c:   6863        ldr r3, [r4, #4]
 800224e:   03db        lsls    r3, r3, #15
 8002250:   d508        bpl.n   8002264 <HAL_RCC_OscConfig+0x98>
 8002252:   6823        ldr r3, [r4, #0]
 8002254:   039b        lsls    r3, r3, #14
 8002256:   d5bf        bpl.n   80021d8 <HAL_RCC_OscConfig+0xc>
 8002258:   686b        ldr r3, [r5, #4]
 800225a:   2b00        cmp r3, #0
 800225c:   d1bc        bne.n   80021d8 <HAL_RCC_OscConfig+0xc>
 800225e:   2001        movs    r0, #1
 8002260:   b005        add sp, #20
 8002262:   bdf0        pop {r4, r5, r6, r7, pc}
 8002264:   686b        ldr r3, [r5, #4]
 8002266:   2b01        cmp r3, #1
 8002268:   d113        bne.n   8002292 <HAL_RCC_OscConfig+0xc6>
 800226a:   2380        movs    r3, #128    ; 0x80
 800226c:   6822        ldr r2, [r4, #0]
 800226e:   025b        lsls    r3, r3, #9
 8002270:   4313        orrs    r3, r2
 8002272:   6023        str r3, [r4, #0]
 8002274:   f7ff fa5c   bl  8001730 <HAL_GetTick>
 8002278:   2680        movs    r6, #128    ; 0x80
 800227a:   0007        movs    r7, r0
 800227c:   02b6        lsls    r6, r6, #10
 800227e:   6823        ldr r3, [r4, #0]
 8002280:   4233        tst r3, r6
 8002282:   d1a9        bne.n   80021d8 <HAL_RCC_OscConfig+0xc>
 8002284:   f7ff fa54   bl  8001730 <HAL_GetTick>
 8002288:   1bc0        subs    r0, r0, r7
 800228a:   2864        cmp r0, #100    ; 0x64
 800228c:   d9f7        bls.n   800227e <HAL_RCC_OscConfig+0xb2>
 800228e:   2003        movs    r0, #3
 8002290:   e7e6        b.n 8002260 <HAL_RCC_OscConfig+0x94>
 8002292:   2b00        cmp r3, #0
 8002294:   d116        bne.n   80022c4 <HAL_RCC_OscConfig+0xf8>
 8002296:   6823        ldr r3, [r4, #0]
 8002298:   4a8e        ldr r2, [pc, #568]  ; (80024d4 <HAL_RCC_OscConfig+0x308>)
 800229a:   2680        movs    r6, #128    ; 0x80
 800229c:   4013        ands    r3, r2
 800229e:   6023        str r3, [r4, #0]
 80022a0:   6823        ldr r3, [r4, #0]
 80022a2:   4a8d        ldr r2, [pc, #564]  ; (80024d8 <HAL_RCC_OscConfig+0x30c>)
 80022a4:   02b6        lsls    r6, r6, #10
 80022a6:   4013        ands    r3, r2
 80022a8:   6023        str r3, [r4, #0]
 80022aa:   f7ff fa41   bl  8001730 <HAL_GetTick>
 80022ae:   0007        movs    r7, r0
 80022b0:   6823        ldr r3, [r4, #0]
 80022b2:   4233        tst r3, r6
 80022b4:   d100        bne.n   80022b8 <HAL_RCC_OscConfig+0xec>
 80022b6:   e78f        b.n 80021d8 <HAL_RCC_OscConfig+0xc>
 80022b8:   f7ff fa3a   bl  8001730 <HAL_GetTick>
 80022bc:   1bc0        subs    r0, r0, r7
 80022be:   2864        cmp r0, #100    ; 0x64
 80022c0:   d9f6        bls.n   80022b0 <HAL_RCC_OscConfig+0xe4>
 80022c2:   e7e4        b.n 800228e <HAL_RCC_OscConfig+0xc2>
 80022c4:   2b05        cmp r3, #5
 80022c6:   d105        bne.n   80022d4 <HAL_RCC_OscConfig+0x108>
 80022c8:   2380        movs    r3, #128    ; 0x80
 80022ca:   6822        ldr r2, [r4, #0]
 80022cc:   02db        lsls    r3, r3, #11
 80022ce:   4313        orrs    r3, r2
 80022d0:   6023        str r3, [r4, #0]
 80022d2:   e7ca        b.n 800226a <HAL_RCC_OscConfig+0x9e>
 80022d4:   6823        ldr r3, [r4, #0]
 80022d6:   4a7f        ldr r2, [pc, #508]  ; (80024d4 <HAL_RCC_OscConfig+0x308>)
 80022d8:   4013        ands    r3, r2
 80022da:   6023        str r3, [r4, #0]
 80022dc:   6823        ldr r3, [r4, #0]
 80022de:   4a7e        ldr r2, [pc, #504]  ; (80024d8 <HAL_RCC_OscConfig+0x30c>)
 80022e0:   4013        ands    r3, r2
 80022e2:   e7c6        b.n 8002272 <HAL_RCC_OscConfig+0xa6>
 80022e4:   220c        movs    r2, #12
 80022e6:   4c7a        ldr r4, [pc, #488]  ; (80024d0 <HAL_RCC_OscConfig+0x304>)
 80022e8:   6863        ldr r3, [r4, #4]
 80022ea:   4213        tst r3, r2
 80022ec:   d006        beq.n   80022fc <HAL_RCC_OscConfig+0x130>
 80022ee:   6863        ldr r3, [r4, #4]
 80022f0:   4013        ands    r3, r2
 80022f2:   2b08        cmp r3, #8
 80022f4:   d110        bne.n   8002318 <HAL_RCC_OscConfig+0x14c>
 80022f6:   6863        ldr r3, [r4, #4]
 80022f8:   03db        lsls    r3, r3, #15
 80022fa:   d40d        bmi.n   8002318 <HAL_RCC_OscConfig+0x14c>
 80022fc:   6823        ldr r3, [r4, #0]
 80022fe:   079b        lsls    r3, r3, #30
 8002300:   d502        bpl.n   8002308 <HAL_RCC_OscConfig+0x13c>
 8002302:   68eb        ldr r3, [r5, #12]
 8002304:   2b01        cmp r3, #1
 8002306:   d1aa        bne.n   800225e <HAL_RCC_OscConfig+0x92>
 8002308:   21f8        movs    r1, #248    ; 0xf8
 800230a:   6822        ldr r2, [r4, #0]
 800230c:   692b        ldr r3, [r5, #16]
 800230e:   438a        bics    r2, r1
 8002310:   00db        lsls    r3, r3, #3
 8002312:   4313        orrs    r3, r2
 8002314:   6023        str r3, [r4, #0]
 8002316:   e763        b.n 80021e0 <HAL_RCC_OscConfig+0x14>
 8002318:   68ea        ldr r2, [r5, #12]
 800231a:   2301        movs    r3, #1
 800231c:   2a00        cmp r2, #0
 800231e:   d00f        beq.n   8002340 <HAL_RCC_OscConfig+0x174>
 8002320:   6822        ldr r2, [r4, #0]
 8002322:   2602        movs    r6, #2
 8002324:   4313        orrs    r3, r2
 8002326:   6023        str r3, [r4, #0]
 8002328:   f7ff fa02   bl  8001730 <HAL_GetTick>
 800232c:   0007        movs    r7, r0
 800232e:   6823        ldr r3, [r4, #0]
 8002330:   4233        tst r3, r6
 8002332:   d1e9        bne.n   8002308 <HAL_RCC_OscConfig+0x13c>
 8002334:   f7ff f9fc   bl  8001730 <HAL_GetTick>
 8002338:   1bc0        subs    r0, r0, r7
 800233a:   2802        cmp r0, #2
 800233c:   d9f7        bls.n   800232e <HAL_RCC_OscConfig+0x162>
 800233e:   e7a6        b.n 800228e <HAL_RCC_OscConfig+0xc2>
 8002340:   6822        ldr r2, [r4, #0]
 8002342:   2602        movs    r6, #2
 8002344:   439a        bics    r2, r3
 8002346:   6022        str r2, [r4, #0]
 8002348:   f7ff f9f2   bl  8001730 <HAL_GetTick>
 800234c:   0007        movs    r7, r0
 800234e:   6823        ldr r3, [r4, #0]
 8002350:   4233        tst r3, r6
 8002352:   d100        bne.n   8002356 <HAL_RCC_OscConfig+0x18a>
 8002354:   e744        b.n 80021e0 <HAL_RCC_OscConfig+0x14>
 8002356:   f7ff f9eb   bl  8001730 <HAL_GetTick>
 800235a:   1bc0        subs    r0, r0, r7
 800235c:   2802        cmp r0, #2
 800235e:   d9f6        bls.n   800234e <HAL_RCC_OscConfig+0x182>
 8002360:   e795        b.n 800228e <HAL_RCC_OscConfig+0xc2>
 8002362:   69ea        ldr r2, [r5, #28]
 8002364:   2301        movs    r3, #1
 8002366:   4c5a        ldr r4, [pc, #360]  ; (80024d0 <HAL_RCC_OscConfig+0x304>)
 8002368:   2a00        cmp r2, #0
 800236a:   d010        beq.n   800238e <HAL_RCC_OscConfig+0x1c2>
 800236c:   6a62        ldr r2, [r4, #36]   ; 0x24
 800236e:   2602        movs    r6, #2
 8002370:   4313        orrs    r3, r2
 8002372:   6263        str r3, [r4, #36]   ; 0x24
 8002374:   f7ff f9dc   bl  8001730 <HAL_GetTick>
 8002378:   0007        movs    r7, r0
 800237a:   6a63        ldr r3, [r4, #36]   ; 0x24
 800237c:   4233        tst r3, r6
 800237e:   d000        beq.n   8002382 <HAL_RCC_OscConfig+0x1b6>
 8002380:   e732        b.n 80021e8 <HAL_RCC_OscConfig+0x1c>
 8002382:   f7ff f9d5   bl  8001730 <HAL_GetTick>
 8002386:   1bc0        subs    r0, r0, r7
 8002388:   2802        cmp r0, #2
 800238a:   d9f6        bls.n   800237a <HAL_RCC_OscConfig+0x1ae>
 800238c:   e77f        b.n 800228e <HAL_RCC_OscConfig+0xc2>
 800238e:   6a62        ldr r2, [r4, #36]   ; 0x24
 8002390:   2602        movs    r6, #2
 8002392:   439a        bics    r2, r3
 8002394:   6262        str r2, [r4, #36]   ; 0x24
 8002396:   f7ff f9cb   bl  8001730 <HAL_GetTick>
 800239a:   0007        movs    r7, r0
 800239c:   6a63        ldr r3, [r4, #36]   ; 0x24
 800239e:   4233        tst r3, r6
 80023a0:   d100        bne.n   80023a4 <HAL_RCC_OscConfig+0x1d8>
 80023a2:   e721        b.n 80021e8 <HAL_RCC_OscConfig+0x1c>
 80023a4:   f7ff f9c4   bl  8001730 <HAL_GetTick>
 80023a8:   1bc0        subs    r0, r0, r7
 80023aa:   2802        cmp r0, #2
 80023ac:   d9f6        bls.n   800239c <HAL_RCC_OscConfig+0x1d0>
 80023ae:   e76e        b.n 800228e <HAL_RCC_OscConfig+0xc2>
 80023b0:   2280        movs    r2, #128    ; 0x80
 80023b2:   2100        movs    r1, #0
 80023b4:   4c46        ldr r4, [pc, #280]  ; (80024d0 <HAL_RCC_OscConfig+0x304>)
 80023b6:   0552        lsls    r2, r2, #21
 80023b8:   69e3        ldr r3, [r4, #28]
 80023ba:   9100        str r1, [sp, #0]
 80023bc:   4213        tst r3, r2
 80023be:   d108        bne.n   80023d2 <HAL_RCC_OscConfig+0x206>
 80023c0:   69e3        ldr r3, [r4, #28]
 80023c2:   4313        orrs    r3, r2
 80023c4:   61e3        str r3, [r4, #28]
 80023c6:   69e3        ldr r3, [r4, #28]
 80023c8:   4013        ands    r3, r2
 80023ca:   9303        str r3, [sp, #12]
 80023cc:   9b03        ldr r3, [sp, #12]
 80023ce:   2301        movs    r3, #1
 80023d0:   9300        str r3, [sp, #0]
 80023d2:   2780        movs    r7, #128    ; 0x80
 80023d4:   4e41        ldr r6, [pc, #260]  ; (80024dc <HAL_RCC_OscConfig+0x310>)
 80023d6:   007f        lsls    r7, r7, #1
 80023d8:   6833        ldr r3, [r6, #0]
 80023da:   423b        tst r3, r7
 80023dc:   d006        beq.n   80023ec <HAL_RCC_OscConfig+0x220>
 80023de:   68ab        ldr r3, [r5, #8]
 80023e0:   2b01        cmp r3, #1
 80023e2:   d113        bne.n   800240c <HAL_RCC_OscConfig+0x240>
 80023e4:   6a22        ldr r2, [r4, #32]
 80023e6:   4313        orrs    r3, r2
 80023e8:   6223        str r3, [r4, #32]
 80023ea:   e030        b.n 800244e <HAL_RCC_OscConfig+0x282>
 80023ec:   6833        ldr r3, [r6, #0]
 80023ee:   433b        orrs    r3, r7
 80023f0:   6033        str r3, [r6, #0]
 80023f2:   f7ff f99d   bl  8001730 <HAL_GetTick>
 80023f6:   9001        str r0, [sp, #4]
 80023f8:   6833        ldr r3, [r6, #0]
 80023fa:   423b        tst r3, r7
 80023fc:   d1ef        bne.n   80023de <HAL_RCC_OscConfig+0x212>
 80023fe:   f7ff f997   bl  8001730 <HAL_GetTick>
 8002402:   9b01        ldr r3, [sp, #4]
 8002404:   1ac0        subs    r0, r0, r3
 8002406:   2864        cmp r0, #100    ; 0x64
 8002408:   d9f6        bls.n   80023f8 <HAL_RCC_OscConfig+0x22c>
 800240a:   e740        b.n 800228e <HAL_RCC_OscConfig+0xc2>
 800240c:   2201        movs    r2, #1
 800240e:   2b00        cmp r3, #0
 8002410:   d114        bne.n   800243c <HAL_RCC_OscConfig+0x270>
 8002412:   6a23        ldr r3, [r4, #32]
 8002414:   2702        movs    r7, #2
 8002416:   4393        bics    r3, r2
 8002418:   6223        str r3, [r4, #32]
 800241a:   6a23        ldr r3, [r4, #32]
 800241c:   3203        adds    r2, #3
 800241e:   4393        bics    r3, r2
 8002420:   6223        str r3, [r4, #32]
 8002422:   f7ff f985   bl  8001730 <HAL_GetTick>
 8002426:   0006        movs    r6, r0
 8002428:   6a23        ldr r3, [r4, #32]
 800242a:   423b        tst r3, r7
 800242c:   d025        beq.n   800247a <HAL_RCC_OscConfig+0x2ae>
 800242e:   f7ff f97f   bl  8001730 <HAL_GetTick>
 8002432:   4b2b        ldr r3, [pc, #172]  ; (80024e0 <HAL_RCC_OscConfig+0x314>)
 8002434:   1b80        subs    r0, r0, r6
 8002436:   4298        cmp r0, r3
 8002438:   d9f6        bls.n   8002428 <HAL_RCC_OscConfig+0x25c>
 800243a:   e728        b.n 800228e <HAL_RCC_OscConfig+0xc2>
 800243c:   2b05        cmp r3, #5
 800243e:   d10b        bne.n   8002458 <HAL_RCC_OscConfig+0x28c>
 8002440:   6a21        ldr r1, [r4, #32]
 8002442:   3b01        subs    r3, #1
 8002444:   430b        orrs    r3, r1
 8002446:   6223        str r3, [r4, #32]
 8002448:   6a23        ldr r3, [r4, #32]
 800244a:   431a        orrs    r2, r3
 800244c:   6222        str r2, [r4, #32]
 800244e:   f7ff f96f   bl  8001730 <HAL_GetTick>
 8002452:   2702        movs    r7, #2
 8002454:   0006        movs    r6, r0
 8002456:   e00d        b.n 8002474 <HAL_RCC_OscConfig+0x2a8>
 8002458:   6a23        ldr r3, [r4, #32]
 800245a:   4393        bics    r3, r2
 800245c:   2204        movs    r2, #4
 800245e:   6223        str r3, [r4, #32]
 8002460:   6a23        ldr r3, [r4, #32]
 8002462:   4393        bics    r3, r2
 8002464:   e7c0        b.n 80023e8 <HAL_RCC_OscConfig+0x21c>
 8002466:   f7ff f963   bl  8001730 <HAL_GetTick>
 800246a:   4b1d        ldr r3, [pc, #116]  ; (80024e0 <HAL_RCC_OscConfig+0x314>)
 800246c:   1b80        subs    r0, r0, r6
 800246e:   4298        cmp r0, r3
 8002470:   d900        bls.n   8002474 <HAL_RCC_OscConfig+0x2a8>
 8002472:   e70c        b.n 800228e <HAL_RCC_OscConfig+0xc2>
 8002474:   6a23        ldr r3, [r4, #32]
 8002476:   423b        tst r3, r7
 8002478:   d0f5        beq.n   8002466 <HAL_RCC_OscConfig+0x29a>
 800247a:   9b00        ldr r3, [sp, #0]
 800247c:   2b01        cmp r3, #1
 800247e:   d000        beq.n   8002482 <HAL_RCC_OscConfig+0x2b6>
 8002480:   e6b6        b.n 80021f0 <HAL_RCC_OscConfig+0x24>
 8002482:   69e3        ldr r3, [r4, #28]
 8002484:   4a17        ldr r2, [pc, #92]   ; (80024e4 <HAL_RCC_OscConfig+0x318>)
 8002486:   4013        ands    r3, r2
 8002488:   61e3        str r3, [r4, #28]
 800248a:   e6b1        b.n 80021f0 <HAL_RCC_OscConfig+0x24>
 800248c:   f7ff f950   bl  8001730 <HAL_GetTick>
 8002490:   1bc0        subs    r0, r0, r7
 8002492:   2802        cmp r0, #2
 8002494:   d800        bhi.n   8002498 <HAL_RCC_OscConfig+0x2cc>
 8002496:   e6be        b.n 8002216 <HAL_RCC_OscConfig+0x4a>
 8002498:   e6f9        b.n 800228e <HAL_RCC_OscConfig+0xc2>
 800249a:   3205        adds    r2, #5
 800249c:   d103        bne.n   80024a6 <HAL_RCC_OscConfig+0x2da>
 800249e:   6b62        ldr r2, [r4, #52]   ; 0x34
 80024a0:   439a        bics    r2, r3
 80024a2:   6362        str r2, [r4, #52]   ; 0x34
 80024a4:   e6bb        b.n 800221e <HAL_RCC_OscConfig+0x52>
 80024a6:   6b62        ldr r2, [r4, #52]   ; 0x34
 80024a8:   2602        movs    r6, #2
 80024aa:   4313        orrs    r3, r2
 80024ac:   2201        movs    r2, #1
 80024ae:   6363        str r3, [r4, #52]   ; 0x34
 80024b0:   6b63        ldr r3, [r4, #52]   ; 0x34
 80024b2:   4393        bics    r3, r2
 80024b4:   6363        str r3, [r4, #52]   ; 0x34
 80024b6:   f7ff f93b   bl  8001730 <HAL_GetTick>
 80024ba:   0007        movs    r7, r0
 80024bc:   6b63        ldr r3, [r4, #52]   ; 0x34
 80024be:   4233        tst r3, r6
 80024c0:   d100        bne.n   80024c4 <HAL_RCC_OscConfig+0x2f8>
 80024c2:   e6b3        b.n 800222c <HAL_RCC_OscConfig+0x60>
 80024c4:   f7ff f934   bl  8001730 <HAL_GetTick>
 80024c8:   1bc0        subs    r0, r0, r7
 80024ca:   2802        cmp r0, #2
 80024cc:   d9f6        bls.n   80024bc <HAL_RCC_OscConfig+0x2f0>
 80024ce:   e6de        b.n 800228e <HAL_RCC_OscConfig+0xc2>
 80024d0:   40021000    .word   0x40021000
 80024d4:   fffeffff    .word   0xfffeffff
 80024d8:   fffbffff    .word   0xfffbffff
 80024dc:   40007000    .word   0x40007000
 80024e0:   00001388    .word   0x00001388
 80024e4:   efffffff    .word   0xefffffff
 80024e8:   220c        movs    r2, #12
 80024ea:   4c26        ldr r4, [pc, #152]  ; (8002584 <HAL_RCC_OscConfig+0x3b8>)
 80024ec:   2001        movs    r0, #1
 80024ee:   6863        ldr r3, [r4, #4]
 80024f0:   4013        ands    r3, r2
 80024f2:   2b08        cmp r3, #8
 80024f4:   d100        bne.n   80024f8 <HAL_RCC_OscConfig+0x32c>
 80024f6:   e6b3        b.n 8002260 <HAL_RCC_OscConfig+0x94>
 80024f8:   6823        ldr r3, [r4, #0]
 80024fa:   4a23        ldr r2, [pc, #140]  ; (8002588 <HAL_RCC_OscConfig+0x3bc>)
 80024fc:   4013        ands    r3, r2
 80024fe:   6023        str r3, [r4, #0]
 8002500:   2902        cmp r1, #2
 8002502:   d12f        bne.n   8002564 <HAL_RCC_OscConfig+0x398>
 8002504:   f7ff f914   bl  8001730 <HAL_GetTick>
 8002508:   2680        movs    r6, #128    ; 0x80
 800250a:   0007        movs    r7, r0
 800250c:   04b6        lsls    r6, r6, #18
 800250e:   6823        ldr r3, [r4, #0]
 8002510:   4233        tst r3, r6
 8002512:   d121        bne.n   8002558 <HAL_RCC_OscConfig+0x38c>
 8002514:   220f        movs    r2, #15
 8002516:   6ae3        ldr r3, [r4, #44]   ; 0x2c
 8002518:   4393        bics    r3, r2
 800251a:   6aea        ldr r2, [r5, #44]   ; 0x2c
 800251c:   4313        orrs    r3, r2
 800251e:   62e3        str r3, [r4, #44]   ; 0x2c
 8002520:   6a69        ldr r1, [r5, #36]   ; 0x24
 8002522:   6aab        ldr r3, [r5, #40]   ; 0x28
 8002524:   6862        ldr r2, [r4, #4]
 8002526:   430b        orrs    r3, r1
 8002528:   4918        ldr r1, [pc, #96]   ; (800258c <HAL_RCC_OscConfig+0x3c0>)
 800252a:   2580        movs    r5, #128    ; 0x80
 800252c:   400a        ands    r2, r1
 800252e:   4313        orrs    r3, r2
 8002530:   6063        str r3, [r4, #4]
 8002532:   2380        movs    r3, #128    ; 0x80
 8002534:   6822        ldr r2, [r4, #0]
 8002536:   045b        lsls    r3, r3, #17
 8002538:   4313        orrs    r3, r2
 800253a:   6023        str r3, [r4, #0]
 800253c:   f7ff f8f8   bl  8001730 <HAL_GetTick>
 8002540:   0006        movs    r6, r0
 8002542:   04ad        lsls    r5, r5, #18
 8002544:   6823        ldr r3, [r4, #0]
 8002546:   422b        tst r3, r5
 8002548:   d000        beq.n   800254c <HAL_RCC_OscConfig+0x380>
 800254a:   e673        b.n 8002234 <HAL_RCC_OscConfig+0x68>
 800254c:   f7ff f8f0   bl  8001730 <HAL_GetTick>
 8002550:   1b80        subs    r0, r0, r6
 8002552:   2802        cmp r0, #2
 8002554:   d9f6        bls.n   8002544 <HAL_RCC_OscConfig+0x378>
 8002556:   e69a        b.n 800228e <HAL_RCC_OscConfig+0xc2>
 8002558:   f7ff f8ea   bl  8001730 <HAL_GetTick>
 800255c:   1bc0        subs    r0, r0, r7
 800255e:   2802        cmp r0, #2
 8002560:   d9d5        bls.n   800250e <HAL_RCC_OscConfig+0x342>
 8002562:   e694        b.n 800228e <HAL_RCC_OscConfig+0xc2>
 8002564:   f7ff f8e4   bl  8001730 <HAL_GetTick>
 8002568:   2580        movs    r5, #128    ; 0x80
 800256a:   0006        movs    r6, r0
 800256c:   04ad        lsls    r5, r5, #18
 800256e:   6823        ldr r3, [r4, #0]
 8002570:   422b        tst r3, r5
 8002572:   d100        bne.n   8002576 <HAL_RCC_OscConfig+0x3aa>
 8002574:   e65e        b.n 8002234 <HAL_RCC_OscConfig+0x68>
 8002576:   f7ff f8db   bl  8001730 <HAL_GetTick>
 800257a:   1b80        subs    r0, r0, r6
 800257c:   2802        cmp r0, #2
 800257e:   d9f6        bls.n   800256e <HAL_RCC_OscConfig+0x3a2>
 8002580:   e685        b.n 800228e <HAL_RCC_OscConfig+0xc2>
 8002582:   46c0        nop         ; (mov r8, r8)
 8002584:   40021000    .word   0x40021000
 8002588:   feffffff    .word   0xfeffffff
 800258c:   ffc2ffff    .word   0xffc2ffff

08002590 <HAL_RCC_GetSysClockFreq>:
 8002590:   b570        push    {r4, r5, r6, lr}
 8002592:   4c14        ldr r4, [pc, #80]   ; (80025e4 <HAL_RCC_GetSysClockFreq+0x54>)
 8002594:   b088        sub sp, #32
 8002596:   2210        movs    r2, #16
 8002598:   0021        movs    r1, r4
 800259a:   4668        mov r0, sp
 800259c:   f001 ff50   bl  8004440 <memcpy>
 80025a0:   0021        movs    r1, r4
 80025a2:   ad04        add r5, sp, #16
 80025a4:   2210        movs    r2, #16
 80025a6:   3110        adds    r1, #16
 80025a8:   0028        movs    r0, r5
 80025aa:   f001 ff49   bl  8004440 <memcpy>
 80025ae:   220c        movs    r2, #12
 80025b0:   4e0d        ldr r6, [pc, #52]   ; (80025e8 <HAL_RCC_GetSysClockFreq+0x58>)
 80025b2:   6873        ldr r3, [r6, #4]
 80025b4:   401a        ands    r2, r3
 80025b6:   2a08        cmp r2, #8
 80025b8:   d111        bne.n   80025de <HAL_RCC_GetSysClockFreq+0x4e>
 80025ba:   200f        movs    r0, #15
 80025bc:   466a        mov r2, sp
 80025be:   0c99        lsrs    r1, r3, #18
 80025c0:   4001        ands    r1, r0
 80025c2:   5c54        ldrb    r4, [r2, r1]
 80025c4:   6af2        ldr r2, [r6, #44]   ; 0x2c
 80025c6:   4002        ands    r2, r0
 80025c8:   5ca9        ldrb    r1, [r5, r2]
 80025ca:   03db        lsls    r3, r3, #15
 80025cc:   d505        bpl.n   80025da <HAL_RCC_GetSysClockFreq+0x4a>
 80025ce:   4807        ldr r0, [pc, #28]   ; (80025ec <HAL_RCC_GetSysClockFreq+0x5c>)
 80025d0:   f7fd fd92   bl  80000f8 <__udivsi3>
 80025d4:   4360        muls    r0, r4
 80025d6:   b008        add sp, #32
 80025d8:   bd70        pop {r4, r5, r6, pc}
 80025da:   4805        ldr r0, [pc, #20]   ; (80025f0 <HAL_RCC_GetSysClockFreq+0x60>)
 80025dc:   e7fa        b.n 80025d4 <HAL_RCC_GetSysClockFreq+0x44>
 80025de:   4803        ldr r0, [pc, #12]   ; (80025ec <HAL_RCC_GetSysClockFreq+0x5c>)
 80025e0:   e7f9        b.n 80025d6 <HAL_RCC_GetSysClockFreq+0x46>
 80025e2:   46c0        nop         ; (mov r8, r8)
 80025e4:   080047a8    .word   0x080047a8
 80025e8:   40021000    .word   0x40021000
 80025ec:   007a1200    .word   0x007a1200
 80025f0:   003d0900    .word   0x003d0900

080025f4 <HAL_RCC_ClockConfig>:
 80025f4:   b5f7        push    {r0, r1, r2, r4, r5, r6, r7, lr}
 80025f6:   2201        movs    r2, #1
 80025f8:   4c44        ldr r4, [pc, #272]  ; (800270c <HAL_RCC_ClockConfig+0x118>)
 80025fa:   0006        movs    r6, r0
 80025fc:   6823        ldr r3, [r4, #0]
 80025fe:   000f        movs    r7, r1
 8002600:   4013        ands    r3, r2
 8002602:   428b        cmp r3, r1
 8002604:   d31d        bcc.n   8002642 <HAL_RCC_ClockConfig+0x4e>
 8002606:   6832        ldr r2, [r6, #0]
 8002608:   0793        lsls    r3, r2, #30
 800260a:   d424        bmi.n   8002656 <HAL_RCC_ClockConfig+0x62>
 800260c:   07d3        lsls    r3, r2, #31
 800260e:   d42a        bmi.n   8002666 <HAL_RCC_ClockConfig+0x72>
 8002610:   2301        movs    r3, #1
 8002612:   6822        ldr r2, [r4, #0]
 8002614:   401a        ands    r2, r3
 8002616:   42ba        cmp r2, r7
 8002618:   d868        bhi.n   80026ec <HAL_RCC_ClockConfig+0xf8>
 800261a:   6833        ldr r3, [r6, #0]
 800261c:   4c3c        ldr r4, [pc, #240]  ; (8002710 <HAL_RCC_ClockConfig+0x11c>)
 800261e:   075b        lsls    r3, r3, #29
 8002620:   d500        bpl.n   8002624 <HAL_RCC_ClockConfig+0x30>
 8002622:   e06b        b.n 80026fc <HAL_RCC_ClockConfig+0x108>
 8002624:   f7ff ffb4   bl  8002590 <HAL_RCC_GetSysClockFreq>
 8002628:   6863        ldr r3, [r4, #4]
 800262a:   4a3a        ldr r2, [pc, #232]  ; (8002714 <HAL_RCC_ClockConfig+0x120>)
 800262c:   061b        lsls    r3, r3, #24
 800262e:   0f1b        lsrs    r3, r3, #28
 8002630:   5cd3        ldrb    r3, [r2, r3]
 8002632:   40d8        lsrs    r0, r3
 8002634:   4b38        ldr r3, [pc, #224]  ; (8002718 <HAL_RCC_ClockConfig+0x124>)
 8002636:   6018        str r0, [r3, #0]
 8002638:   2000        movs    r0, #0
 800263a:   f7ff f84e   bl  80016da <HAL_InitTick>
 800263e:   2000        movs    r0, #0
 8002640:   e008        b.n 8002654 <HAL_RCC_ClockConfig+0x60>
 8002642:   6823        ldr r3, [r4, #0]
 8002644:   4393        bics    r3, r2
 8002646:   430b        orrs    r3, r1
 8002648:   6023        str r3, [r4, #0]
 800264a:   6823        ldr r3, [r4, #0]
 800264c:   4013        ands    r3, r2
 800264e:   428b        cmp r3, r1
 8002650:   d0d9        beq.n   8002606 <HAL_RCC_ClockConfig+0x12>
 8002652:   2001        movs    r0, #1
 8002654:   bdfe        pop {r1, r2, r3, r4, r5, r6, r7, pc}
 8002656:   20f0        movs    r0, #240    ; 0xf0
 8002658:   492d        ldr r1, [pc, #180]  ; (8002710 <HAL_RCC_ClockConfig+0x11c>)
 800265a:   684b        ldr r3, [r1, #4]
 800265c:   4383        bics    r3, r0
 800265e:   68b0        ldr r0, [r6, #8]
 8002660:   4303        orrs    r3, r0
 8002662:   604b        str r3, [r1, #4]
 8002664:   e7d2        b.n 800260c <HAL_RCC_ClockConfig+0x18>
 8002666:   4d2a        ldr r5, [pc, #168]  ; (8002710 <HAL_RCC_ClockConfig+0x11c>)
 8002668:   6872        ldr r2, [r6, #4]
 800266a:   682b        ldr r3, [r5, #0]
 800266c:   2a01        cmp r2, #1
 800266e:   d11a        bne.n   80026a6 <HAL_RCC_ClockConfig+0xb2>
 8002670:   039b        lsls    r3, r3, #14
 8002672:   d5ee        bpl.n   8002652 <HAL_RCC_ClockConfig+0x5e>
 8002674:   2103        movs    r1, #3
 8002676:   686b        ldr r3, [r5, #4]
 8002678:   438b        bics    r3, r1
 800267a:   4313        orrs    r3, r2
 800267c:   606b        str r3, [r5, #4]
 800267e:   f7ff f857   bl  8001730 <HAL_GetTick>
 8002682:   6873        ldr r3, [r6, #4]
 8002684:   9001        str r0, [sp, #4]
 8002686:   2b01        cmp r3, #1
 8002688:   d115        bne.n   80026b6 <HAL_RCC_ClockConfig+0xc2>
 800268a:   220c        movs    r2, #12
 800268c:   686b        ldr r3, [r5, #4]
 800268e:   4013        ands    r3, r2
 8002690:   2b04        cmp r3, #4
 8002692:   d0bd        beq.n   8002610 <HAL_RCC_ClockConfig+0x1c>
 8002694:   f7ff f84c   bl  8001730 <HAL_GetTick>
 8002698:   9b01        ldr r3, [sp, #4]
 800269a:   1ac0        subs    r0, r0, r3
 800269c:   4b1f        ldr r3, [pc, #124]  ; (800271c <HAL_RCC_ClockConfig+0x128>)
 800269e:   4298        cmp r0, r3
 80026a0:   d9f3        bls.n   800268a <HAL_RCC_ClockConfig+0x96>
 80026a2:   2003        movs    r0, #3
 80026a4:   e7d6        b.n 8002654 <HAL_RCC_ClockConfig+0x60>
 80026a6:   2a02        cmp r2, #2
 80026a8:   d102        bne.n   80026b0 <HAL_RCC_ClockConfig+0xbc>
 80026aa:   019b        lsls    r3, r3, #6
 80026ac:   d4e2        bmi.n   8002674 <HAL_RCC_ClockConfig+0x80>
 80026ae:   e7d0        b.n 8002652 <HAL_RCC_ClockConfig+0x5e>
 80026b0:   079b        lsls    r3, r3, #30
 80026b2:   d4df        bmi.n   8002674 <HAL_RCC_ClockConfig+0x80>
 80026b4:   e7cd        b.n 8002652 <HAL_RCC_ClockConfig+0x5e>
 80026b6:   2b02        cmp r3, #2
 80026b8:   d012        beq.n   80026e0 <HAL_RCC_ClockConfig+0xec>
 80026ba:   220c        movs    r2, #12
 80026bc:   686b        ldr r3, [r5, #4]
 80026be:   4213        tst r3, r2
 80026c0:   d0a6        beq.n   8002610 <HAL_RCC_ClockConfig+0x1c>
 80026c2:   f7ff f835   bl  8001730 <HAL_GetTick>
 80026c6:   9b01        ldr r3, [sp, #4]
 80026c8:   1ac0        subs    r0, r0, r3
 80026ca:   4b14        ldr r3, [pc, #80]   ; (800271c <HAL_RCC_ClockConfig+0x128>)
 80026cc:   4298        cmp r0, r3
 80026ce:   d9f4        bls.n   80026ba <HAL_RCC_ClockConfig+0xc6>
 80026d0:   e7e7        b.n 80026a2 <HAL_RCC_ClockConfig+0xae>
 80026d2:   f7ff f82d   bl  8001730 <HAL_GetTick>
 80026d6:   9b01        ldr r3, [sp, #4]
 80026d8:   1ac0        subs    r0, r0, r3
 80026da:   4b10        ldr r3, [pc, #64]   ; (800271c <HAL_RCC_ClockConfig+0x128>)
 80026dc:   4298        cmp r0, r3
 80026de:   d8e0        bhi.n   80026a2 <HAL_RCC_ClockConfig+0xae>
 80026e0:   220c        movs    r2, #12
 80026e2:   686b        ldr r3, [r5, #4]
 80026e4:   4013        ands    r3, r2
 80026e6:   2b08        cmp r3, #8
 80026e8:   d1f3        bne.n   80026d2 <HAL_RCC_ClockConfig+0xde>
 80026ea:   e791        b.n 8002610 <HAL_RCC_ClockConfig+0x1c>
 80026ec:   6822        ldr r2, [r4, #0]
 80026ee:   439a        bics    r2, r3
 80026f0:   6022        str r2, [r4, #0]
 80026f2:   6822        ldr r2, [r4, #0]
 80026f4:   421a        tst r2, r3
 80026f6:   d100        bne.n   80026fa <HAL_RCC_ClockConfig+0x106>
 80026f8:   e78f        b.n 800261a <HAL_RCC_ClockConfig+0x26>
 80026fa:   e7aa        b.n 8002652 <HAL_RCC_ClockConfig+0x5e>
 80026fc:   6863        ldr r3, [r4, #4]
 80026fe:   4a08        ldr r2, [pc, #32]   ; (8002720 <HAL_RCC_ClockConfig+0x12c>)
 8002700:   4013        ands    r3, r2
 8002702:   68f2        ldr r2, [r6, #12]
 8002704:   4313        orrs    r3, r2
 8002706:   6063        str r3, [r4, #4]
 8002708:   e78c        b.n 8002624 <HAL_RCC_ClockConfig+0x30>
 800270a:   46c0        nop         ; (mov r8, r8)
 800270c:   40022000    .word   0x40022000
 8002710:   40021000    .word   0x40021000
 8002714:   08004c3c    .word   0x08004c3c
 8002718:   20000018    .word   0x20000018
 800271c:   00001388    .word   0x00001388
 8002720:   fffff8ff    .word   0xfffff8ff

08002724 <HAL_RCC_GetHCLKFreq>:
 8002724:   4b01        ldr r3, [pc, #4]    ; (800272c <HAL_RCC_GetHCLKFreq+0x8>)
 8002726:   6818        ldr r0, [r3, #0]
 8002728:   4770        bx  lr
 800272a:   46c0        nop         ; (mov r8, r8)
 800272c:   20000018    .word   0x20000018

08002730 <HAL_RCC_GetPCLK1Freq>:
 8002730:   4b04        ldr r3, [pc, #16]   ; (8002744 <HAL_RCC_GetPCLK1Freq+0x14>)
 8002732:   4a05        ldr r2, [pc, #20]   ; (8002748 <HAL_RCC_GetPCLK1Freq+0x18>)
 8002734:   685b        ldr r3, [r3, #4]
 8002736:   055b        lsls    r3, r3, #21
 8002738:   0f5b        lsrs    r3, r3, #29
 800273a:   5cd3        ldrb    r3, [r2, r3]
 800273c:   4a03        ldr r2, [pc, #12]   ; (800274c <HAL_RCC_GetPCLK1Freq+0x1c>)
 800273e:   6810        ldr r0, [r2, #0]
 8002740:   40d8        lsrs    r0, r3
 8002742:   4770        bx  lr
 8002744:   40021000    .word   0x40021000
 8002748:   08004c4c    .word   0x08004c4c
 800274c:   20000018    .word   0x20000018

08002750 <HAL_RCC_GetClockConfig>:
 8002750:   2307        movs    r3, #7
 8002752:   b510        push    {r4, lr}
 8002754:   2403        movs    r4, #3
 8002756:   6003        str r3, [r0, #0]
 8002758:   4b09        ldr r3, [pc, #36]   ; (8002780 <HAL_RCC_GetClockConfig+0x30>)
 800275a:   685a        ldr r2, [r3, #4]
 800275c:   4022        ands    r2, r4
 800275e:   6042        str r2, [r0, #4]
 8002760:   685a        ldr r2, [r3, #4]
 8002762:   34ed        adds    r4, #237    ; 0xed
 8002764:   4022        ands    r2, r4
 8002766:   6082        str r2, [r0, #8]
 8002768:   22e0        movs    r2, #224    ; 0xe0
 800276a:   685b        ldr r3, [r3, #4]
 800276c:   00d2        lsls    r2, r2, #3
 800276e:   4013        ands    r3, r2
 8002770:   2201        movs    r2, #1
 8002772:   60c3        str r3, [r0, #12]
 8002774:   4b03        ldr r3, [pc, #12]   ; (8002784 <HAL_RCC_GetClockConfig+0x34>)
 8002776:   681b        ldr r3, [r3, #0]
 8002778:   4013        ands    r3, r2
 800277a:   600b        str r3, [r1, #0]
 800277c:   bd10        pop {r4, pc}
 800277e:   46c0        nop         ; (mov r8, r8)
 8002780:   40021000    .word   0x40021000
 8002784:   40022000    .word   0x40022000

08002788 <HAL_RTC_AlarmIRQHandler>:
 8002788:   6803        ldr r3, [r0, #0]
 800278a:   b510        push    {r4, lr}
 800278c:   689a        ldr r2, [r3, #8]
 800278e:   0004        movs    r4, r0
 8002790:   04d2        lsls    r2, r2, #19
 8002792:   d50a        bpl.n   80027aa <HAL_RTC_AlarmIRQHandler+0x22>
 8002794:   68db        ldr r3, [r3, #12]
 8002796:   05db        lsls    r3, r3, #23
 8002798:   d507        bpl.n   80027aa <HAL_RTC_AlarmIRQHandler+0x22>
 800279a:   f001 f9bd   bl  8003b18 <HAL_RTC_AlarmAEventCallback>
 800279e:   6821        ldr r1, [r4, #0]
 80027a0:   4b05        ldr r3, [pc, #20]   ; (80027b8 <HAL_RTC_AlarmIRQHandler+0x30>)
 80027a2:   68ca        ldr r2, [r1, #12]
 80027a4:   b2d2        uxtb    r2, r2
 80027a6:   4313        orrs    r3, r2
 80027a8:   60cb        str r3, [r1, #12]
 80027aa:   2280        movs    r2, #128    ; 0x80
 80027ac:   4b03        ldr r3, [pc, #12]   ; (80027bc <HAL_RTC_AlarmIRQHandler+0x34>)
 80027ae:   0292        lsls    r2, r2, #10
 80027b0:   615a        str r2, [r3, #20]
 80027b2:   2301        movs    r3, #1
 80027b4:   7763        strb    r3, [r4, #29]
 80027b6:   bd10        pop {r4, pc}
 80027b8:   fffffe7f    .word   0xfffffe7f
 80027bc:   40010400    .word   0x40010400

080027c0 <TIM_OC1_SetConfig>:
 80027c0:   2201        movs    r2, #1
 80027c2:   6a03        ldr r3, [r0, #32]
 80027c4:   b570        push    {r4, r5, r6, lr}
 80027c6:   4393        bics    r3, r2
 80027c8:   6203        str r3, [r0, #32]
 80027ca:   6a03        ldr r3, [r0, #32]
 80027cc:   6844        ldr r4, [r0, #4]
 80027ce:   6985        ldr r5, [r0, #24]
 80027d0:   3272        adds    r2, #114    ; 0x72
 80027d2:   4395        bics    r5, r2
 80027d4:   680a        ldr r2, [r1, #0]
 80027d6:   4315        orrs    r5, r2
 80027d8:   2202        movs    r2, #2
 80027da:   4393        bics    r3, r2
 80027dc:   688a        ldr r2, [r1, #8]
 80027de:   4313        orrs    r3, r2
 80027e0:   4a14        ldr r2, [pc, #80]   ; (8002834 <TIM_OC1_SetConfig+0x74>)
 80027e2:   4290        cmp r0, r2
 80027e4:   d008        beq.n   80027f8 <TIM_OC1_SetConfig+0x38>
 80027e6:   4e14        ldr r6, [pc, #80]   ; (8002838 <TIM_OC1_SetConfig+0x78>)
 80027e8:   42b0        cmp r0, r6
 80027ea:   d005        beq.n   80027f8 <TIM_OC1_SetConfig+0x38>
 80027ec:   4e13        ldr r6, [pc, #76]   ; (800283c <TIM_OC1_SetConfig+0x7c>)
 80027ee:   42b0        cmp r0, r6
 80027f0:   d002        beq.n   80027f8 <TIM_OC1_SetConfig+0x38>
 80027f2:   4e13        ldr r6, [pc, #76]   ; (8002840 <TIM_OC1_SetConfig+0x80>)
 80027f4:   42b0        cmp r0, r6
 80027f6:   d116        bne.n   8002826 <TIM_OC1_SetConfig+0x66>
 80027f8:   2608        movs    r6, #8
 80027fa:   43b3        bics    r3, r6
 80027fc:   68ce        ldr r6, [r1, #12]
 80027fe:   4333        orrs    r3, r6
 8002800:   2604        movs    r6, #4
 8002802:   43b3        bics    r3, r6
 8002804:   4290        cmp r0, r2
 8002806:   d008        beq.n   800281a <TIM_OC1_SetConfig+0x5a>
 8002808:   4a0b        ldr r2, [pc, #44]   ; (8002838 <TIM_OC1_SetConfig+0x78>)
 800280a:   4290        cmp r0, r2
 800280c:   d005        beq.n   800281a <TIM_OC1_SetConfig+0x5a>
 800280e:   4a0b        ldr r2, [pc, #44]   ; (800283c <TIM_OC1_SetConfig+0x7c>)
 8002810:   4290        cmp r0, r2
 8002812:   d002        beq.n   800281a <TIM_OC1_SetConfig+0x5a>
 8002814:   4a0a        ldr r2, [pc, #40]   ; (8002840 <TIM_OC1_SetConfig+0x80>)
 8002816:   4290        cmp r0, r2
 8002818:   d105        bne.n   8002826 <TIM_OC1_SetConfig+0x66>
 800281a:   4a0a        ldr r2, [pc, #40]   ; (8002844 <TIM_OC1_SetConfig+0x84>)
 800281c:   698e        ldr r6, [r1, #24]
 800281e:   4022        ands    r2, r4
 8002820:   694c        ldr r4, [r1, #20]
 8002822:   4334        orrs    r4, r6
 8002824:   4314        orrs    r4, r2
 8002826:   684a        ldr r2, [r1, #4]
 8002828:   6044        str r4, [r0, #4]
 800282a:   6185        str r5, [r0, #24]
 800282c:   6342        str r2, [r0, #52]   ; 0x34
 800282e:   6203        str r3, [r0, #32]
 8002830:   bd70        pop {r4, r5, r6, pc}
 8002832:   46c0        nop         ; (mov r8, r8)
 8002834:   40012c00    .word   0x40012c00
 8002838:   40014000    .word   0x40014000
 800283c:   40014400    .word   0x40014400
 8002840:   40014800    .word   0x40014800
 8002844:   fffffcff    .word   0xfffffcff

08002848 <TIM_OC3_SetConfig>:
 8002848:   b570        push    {r4, r5, r6, lr}
 800284a:   2573        movs    r5, #115    ; 0x73
 800284c:   6a03        ldr r3, [r0, #32]
 800284e:   4a17        ldr r2, [pc, #92]   ; (80028ac <TIM_OC3_SetConfig+0x64>)
 8002850:   4013        ands    r3, r2
 8002852:   6203        str r3, [r0, #32]
 8002854:   6a03        ldr r3, [r0, #32]
 8002856:   6842        ldr r2, [r0, #4]
 8002858:   69c4        ldr r4, [r0, #28]
 800285a:   43ac        bics    r4, r5
 800285c:   680d        ldr r5, [r1, #0]
 800285e:   432c        orrs    r4, r5
 8002860:   4d13        ldr r5, [pc, #76]   ; (80028b0 <TIM_OC3_SetConfig+0x68>)
 8002862:   402b        ands    r3, r5
 8002864:   688d        ldr r5, [r1, #8]
 8002866:   022d        lsls    r5, r5, #8
 8002868:   432b        orrs    r3, r5
 800286a:   4d12        ldr r5, [pc, #72]   ; (80028b4 <TIM_OC3_SetConfig+0x6c>)
 800286c:   42a8        cmp r0, r5
 800286e:   d10e        bne.n   800288e <TIM_OC3_SetConfig+0x46>
 8002870:   4d11        ldr r5, [pc, #68]   ; (80028b8 <TIM_OC3_SetConfig+0x70>)
 8002872:   401d        ands    r5, r3
 8002874:   68cb        ldr r3, [r1, #12]
 8002876:   021b        lsls    r3, r3, #8
 8002878:   432b        orrs    r3, r5
 800287a:   4d10        ldr r5, [pc, #64]   ; (80028bc <TIM_OC3_SetConfig+0x74>)
 800287c:   402b        ands    r3, r5
 800287e:   4d10        ldr r5, [pc, #64]   ; (80028c0 <TIM_OC3_SetConfig+0x78>)
 8002880:   694e        ldr r6, [r1, #20]
 8002882:   4015        ands    r5, r2
 8002884:   698a        ldr r2, [r1, #24]
 8002886:   4332        orrs    r2, r6
 8002888:   0112        lsls    r2, r2, #4
 800288a:   432a        orrs    r2, r5
 800288c:   e008        b.n 80028a0 <TIM_OC3_SetConfig+0x58>
 800288e:   4d0d        ldr r5, [pc, #52]   ; (80028c4 <TIM_OC3_SetConfig+0x7c>)
 8002890:   42a8        cmp r0, r5
 8002892:   d0f4        beq.n   800287e <TIM_OC3_SetConfig+0x36>
 8002894:   4d0c        ldr r5, [pc, #48]   ; (80028c8 <TIM_OC3_SetConfig+0x80>)
 8002896:   42a8        cmp r0, r5
 8002898:   d0f1        beq.n   800287e <TIM_OC3_SetConfig+0x36>
 800289a:   4d0c        ldr r5, [pc, #48]   ; (80028cc <TIM_OC3_SetConfig+0x84>)
 800289c:   42a8        cmp r0, r5
 800289e:   d0ee        beq.n   800287e <TIM_OC3_SetConfig+0x36>
 80028a0:   6042        str r2, [r0, #4]
 80028a2:   684a        ldr r2, [r1, #4]
 80028a4:   61c4        str r4, [r0, #28]
 80028a6:   63c2        str r2, [r0, #60]   ; 0x3c
 80028a8:   6203        str r3, [r0, #32]
 80028aa:   bd70        pop {r4, r5, r6, pc}
 80028ac:   fffffeff    .word   0xfffffeff
 80028b0:   fffffdff    .word   0xfffffdff
 80028b4:   40012c00    .word   0x40012c00
 80028b8:   fffff7ff    .word   0xfffff7ff
 80028bc:   fffffbff    .word   0xfffffbff
 80028c0:   ffffcfff    .word   0xffffcfff
 80028c4:   40014000    .word   0x40014000
 80028c8:   40014400    .word   0x40014400
 80028cc:   40014800    .word   0x40014800

080028d0 <TIM_OC4_SetConfig>:
 80028d0:   6a03        ldr r3, [r0, #32]
 80028d2:   4a14        ldr r2, [pc, #80]   ; (8002924 <TIM_OC4_SetConfig+0x54>)
 80028d4:   b530        push    {r4, r5, lr}
 80028d6:   4013        ands    r3, r2
 80028d8:   6203        str r3, [r0, #32]
 80028da:   6a02        ldr r2, [r0, #32]
 80028dc:   4c12        ldr r4, [pc, #72]   ; (8002928 <TIM_OC4_SetConfig+0x58>)
 80028de:   6843        ldr r3, [r0, #4]
 80028e0:   69c5        ldr r5, [r0, #28]
 80028e2:   4025        ands    r5, r4
 80028e4:   680c        ldr r4, [r1, #0]
 80028e6:   0224        lsls    r4, r4, #8
 80028e8:   4325        orrs    r5, r4
 80028ea:   4c10        ldr r4, [pc, #64]   ; (800292c <TIM_OC4_SetConfig+0x5c>)
 80028ec:   4022        ands    r2, r4
 80028ee:   688c        ldr r4, [r1, #8]
 80028f0:   0324        lsls    r4, r4, #12
 80028f2:   4322        orrs    r2, r4
 80028f4:   4c0e        ldr r4, [pc, #56]   ; (8002930 <TIM_OC4_SetConfig+0x60>)
 80028f6:   42a0        cmp r0, r4
 80028f8:   d008        beq.n   800290c <TIM_OC4_SetConfig+0x3c>
 80028fa:   4c0e        ldr r4, [pc, #56]   ; (8002934 <TIM_OC4_SetConfig+0x64>)
 80028fc:   42a0        cmp r0, r4
 80028fe:   d005        beq.n   800290c <TIM_OC4_SetConfig+0x3c>
 8002900:   4c0d        ldr r4, [pc, #52]   ; (8002938 <TIM_OC4_SetConfig+0x68>)
 8002902:   42a0        cmp r0, r4
 8002904:   d002        beq.n   800290c <TIM_OC4_SetConfig+0x3c>
 8002906:   4c0d        ldr r4, [pc, #52]   ; (800293c <TIM_OC4_SetConfig+0x6c>)
 8002908:   42a0        cmp r0, r4
 800290a:   d104        bne.n   8002916 <TIM_OC4_SetConfig+0x46>
 800290c:   4c0c        ldr r4, [pc, #48]   ; (8002940 <TIM_OC4_SetConfig+0x70>)
 800290e:   4023        ands    r3, r4
 8002910:   694c        ldr r4, [r1, #20]
 8002912:   01a4        lsls    r4, r4, #6
 8002914:   4323        orrs    r3, r4
 8002916:   6043        str r3, [r0, #4]
 8002918:   684b        ldr r3, [r1, #4]
 800291a:   61c5        str r5, [r0, #28]
 800291c:   6403        str r3, [r0, #64]   ; 0x40
 800291e:   6202        str r2, [r0, #32]
 8002920:   bd30        pop {r4, r5, pc}
 8002922:   46c0        nop         ; (mov r8, r8)
 8002924:   ffffefff    .word   0xffffefff
 8002928:   ffff8cff    .word   0xffff8cff
 800292c:   ffffdfff    .word   0xffffdfff
 8002930:   40012c00    .word   0x40012c00
 8002934:   40014000    .word   0x40014000
 8002938:   40014400    .word   0x40014400
 800293c:   40014800    .word   0x40014800
 8002940:   ffffbfff    .word   0xffffbfff

08002944 <HAL_TIM_Base_Start>:
 8002944:   0002        movs    r2, r0
 8002946:   2302        movs    r3, #2
 8002948:   2101        movs    r1, #1
 800294a:   6800        ldr r0, [r0, #0]
 800294c:   323d        adds    r2, #61 ; 0x3d
 800294e:   7013        strb    r3, [r2, #0]
 8002950:   6803        ldr r3, [r0, #0]
 8002952:   430b        orrs    r3, r1
 8002954:   6003        str r3, [r0, #0]
 8002956:   2000        movs    r0, #0
 8002958:   7011        strb    r1, [r2, #0]
 800295a:   4770        bx  lr

0800295c <HAL_TIM_Base_Start_IT>:
 800295c:   2201        movs    r2, #1
 800295e:   6803        ldr r3, [r0, #0]
 8002960:   68d9        ldr r1, [r3, #12]
 8002962:   2000        movs    r0, #0
 8002964:   4311        orrs    r1, r2
 8002966:   60d9        str r1, [r3, #12]
 8002968:   6819        ldr r1, [r3, #0]
 800296a:   430a        orrs    r2, r1
 800296c:   601a        str r2, [r3, #0]
 800296e:   4770        bx  lr

08002970 <HAL_TIM_GenerateEvent>:
 8002970:   0002        movs    r2, r0
 8002972:   b530        push    {r4, r5, lr}
 8002974:   2402        movs    r4, #2
 8002976:   323c        adds    r2, #60 ; 0x3c
 8002978:   7815        ldrb    r5, [r2, #0]
 800297a:   0003        movs    r3, r0
 800297c:   0020        movs    r0, r4
 800297e:   2d01        cmp r5, #1
 8002980:   d008        beq.n   8002994 <HAL_TIM_GenerateEvent+0x24>
 8002982:   0018        movs    r0, r3
 8002984:   681b        ldr r3, [r3, #0]
 8002986:   303d        adds    r0, #61 ; 0x3d
 8002988:   7004        strb    r4, [r0, #0]
 800298a:   6159        str r1, [r3, #20]
 800298c:   2301        movs    r3, #1
 800298e:   7003        strb    r3, [r0, #0]
 8002990:   2000        movs    r0, #0
 8002992:   7010        strb    r0, [r2, #0]
 8002994:   bd30        pop {r4, r5, pc}

08002996 <HAL_TIM_PWM_PulseFinishedCallback>:
 8002996:   4770        bx  lr

08002998 <HAL_TIM_TriggerCallback>:
 8002998:   4770        bx  lr

0800299a <HAL_TIM_IRQHandler>:
 800299a:   2202        movs    r2, #2
 800299c:   6803        ldr r3, [r0, #0]
 800299e:   b510        push    {r4, lr}
 80029a0:   6919        ldr r1, [r3, #16]
 80029a2:   0004        movs    r4, r0
 80029a4:   4211        tst r1, r2
 80029a6:   d00e        beq.n   80029c6 <HAL_TIM_IRQHandler+0x2c>
 80029a8:   68d9        ldr r1, [r3, #12]
 80029aa:   4211        tst r1, r2
 80029ac:   d00b        beq.n   80029c6 <HAL_TIM_IRQHandler+0x2c>
 80029ae:   3a05        subs    r2, #5
 80029b0:   611a        str r2, [r3, #16]
 80029b2:   699b        ldr r3, [r3, #24]
 80029b4:   3204        adds    r2, #4
 80029b6:   7702        strb    r2, [r0, #28]
 80029b8:   079b        lsls    r3, r3, #30
 80029ba:   d100        bne.n   80029be <HAL_TIM_IRQHandler+0x24>
 80029bc:   e079        b.n 8002ab2 <HAL_TIM_IRQHandler+0x118>
 80029be:   f7fe fc03   bl  80011c8 <HAL_TIM_IC_CaptureCallback>
 80029c2:   2300        movs    r3, #0
 80029c4:   7723        strb    r3, [r4, #28]
 80029c6:   2204        movs    r2, #4
 80029c8:   6823        ldr r3, [r4, #0]
 80029ca:   6919        ldr r1, [r3, #16]
 80029cc:   4211        tst r1, r2
 80029ce:   d010        beq.n   80029f2 <HAL_TIM_IRQHandler+0x58>
 80029d0:   68d9        ldr r1, [r3, #12]
 80029d2:   4211        tst r1, r2
 80029d4:   d00d        beq.n   80029f2 <HAL_TIM_IRQHandler+0x58>
 80029d6:   3a09        subs    r2, #9
 80029d8:   611a        str r2, [r3, #16]
 80029da:   3207        adds    r2, #7
 80029dc:   7722        strb    r2, [r4, #28]
 80029de:   699a        ldr r2, [r3, #24]
 80029e0:   23c0        movs    r3, #192    ; 0xc0
 80029e2:   009b        lsls    r3, r3, #2
 80029e4:   0020        movs    r0, r4
 80029e6:   421a        tst r2, r3
 80029e8:   d069        beq.n   8002abe <HAL_TIM_IRQHandler+0x124>
 80029ea:   f7fe fbed   bl  80011c8 <HAL_TIM_IC_CaptureCallback>
 80029ee:   2300        movs    r3, #0
 80029f0:   7723        strb    r3, [r4, #28]
 80029f2:   2208        movs    r2, #8
 80029f4:   6823        ldr r3, [r4, #0]
 80029f6:   6919        ldr r1, [r3, #16]
 80029f8:   4211        tst r1, r2
 80029fa:   d00e        beq.n   8002a1a <HAL_TIM_IRQHandler+0x80>
 80029fc:   68d9        ldr r1, [r3, #12]
 80029fe:   4211        tst r1, r2
 8002a00:   d00b        beq.n   8002a1a <HAL_TIM_IRQHandler+0x80>
 8002a02:   3a11        subs    r2, #17
 8002a04:   611a        str r2, [r3, #16]
 8002a06:   69db        ldr r3, [r3, #28]
 8002a08:   320d        adds    r2, #13
 8002a0a:   7722        strb    r2, [r4, #28]
 8002a0c:   0020        movs    r0, r4
 8002a0e:   079b        lsls    r3, r3, #30
 8002a10:   d05b        beq.n   8002aca <HAL_TIM_IRQHandler+0x130>
 8002a12:   f7fe fbd9   bl  80011c8 <HAL_TIM_IC_CaptureCallback>
 8002a16:   2300        movs    r3, #0
 8002a18:   7723        strb    r3, [r4, #28]
 8002a1a:   2210        movs    r2, #16
 8002a1c:   6823        ldr r3, [r4, #0]
 8002a1e:   6919        ldr r1, [r3, #16]
 8002a20:   4211        tst r1, r2
 8002a22:   d010        beq.n   8002a46 <HAL_TIM_IRQHandler+0xac>
 8002a24:   68d9        ldr r1, [r3, #12]
 8002a26:   4211        tst r1, r2
 8002a28:   d00d        beq.n   8002a46 <HAL_TIM_IRQHandler+0xac>
 8002a2a:   3a21        subs    r2, #33 ; 0x21
 8002a2c:   611a        str r2, [r3, #16]
 8002a2e:   3219        adds    r2, #25
 8002a30:   7722        strb    r2, [r4, #28]
 8002a32:   69da        ldr r2, [r3, #28]
 8002a34:   23c0        movs    r3, #192    ; 0xc0
 8002a36:   009b        lsls    r3, r3, #2
 8002a38:   0020        movs    r0, r4
 8002a3a:   421a        tst r2, r3
 8002a3c:   d04b        beq.n   8002ad6 <HAL_TIM_IRQHandler+0x13c>
 8002a3e:   f7fe fbc3   bl  80011c8 <HAL_TIM_IC_CaptureCallback>
 8002a42:   2300        movs    r3, #0
 8002a44:   7723        strb    r3, [r4, #28]
 8002a46:   2201        movs    r2, #1
 8002a48:   6823        ldr r3, [r4, #0]
 8002a4a:   6919        ldr r1, [r3, #16]
 8002a4c:   4211        tst r1, r2
 8002a4e:   d007        beq.n   8002a60 <HAL_TIM_IRQHandler+0xc6>
 8002a50:   68d9        ldr r1, [r3, #12]
 8002a52:   4211        tst r1, r2
 8002a54:   d004        beq.n   8002a60 <HAL_TIM_IRQHandler+0xc6>
 8002a56:   3a03        subs    r2, #3
 8002a58:   611a        str r2, [r3, #16]
 8002a5a:   0020        movs    r0, r4
 8002a5c:   f7fe fbbc   bl  80011d8 <HAL_TIM_PeriodElapsedCallback>
 8002a60:   2280        movs    r2, #128    ; 0x80
 8002a62:   6823        ldr r3, [r4, #0]
 8002a64:   6919        ldr r1, [r3, #16]
 8002a66:   4211        tst r1, r2
 8002a68:   d008        beq.n   8002a7c <HAL_TIM_IRQHandler+0xe2>
 8002a6a:   68d9        ldr r1, [r3, #12]
 8002a6c:   4211        tst r1, r2
 8002a6e:   d005        beq.n   8002a7c <HAL_TIM_IRQHandler+0xe2>
 8002a70:   3a02        subs    r2, #2
 8002a72:   3aff        subs    r2, #255    ; 0xff
 8002a74:   611a        str r2, [r3, #16]
 8002a76:   0020        movs    r0, r4
 8002a78:   f000 fb38   bl  80030ec <HAL_TIMEx_BreakCallback>
 8002a7c:   2240        movs    r2, #64 ; 0x40
 8002a7e:   6823        ldr r3, [r4, #0]
 8002a80:   6919        ldr r1, [r3, #16]
 8002a82:   4211        tst r1, r2
 8002a84:   d007        beq.n   8002a96 <HAL_TIM_IRQHandler+0xfc>
 8002a86:   68d9        ldr r1, [r3, #12]
 8002a88:   4211        tst r1, r2
 8002a8a:   d004        beq.n   8002a96 <HAL_TIM_IRQHandler+0xfc>
 8002a8c:   3a81        subs    r2, #129    ; 0x81
 8002a8e:   611a        str r2, [r3, #16]
 8002a90:   0020        movs    r0, r4
 8002a92:   f7ff ff81   bl  8002998 <HAL_TIM_TriggerCallback>
 8002a96:   2220        movs    r2, #32
 8002a98:   6823        ldr r3, [r4, #0]
 8002a9a:   6919        ldr r1, [r3, #16]
 8002a9c:   4211        tst r1, r2
 8002a9e:   d007        beq.n   8002ab0 <HAL_TIM_IRQHandler+0x116>
 8002aa0:   68d9        ldr r1, [r3, #12]
 8002aa2:   4211        tst r1, r2
 8002aa4:   d004        beq.n   8002ab0 <HAL_TIM_IRQHandler+0x116>
 8002aa6:   3a41        subs    r2, #65 ; 0x41
 8002aa8:   611a        str r2, [r3, #16]
 8002aaa:   0020        movs    r0, r4
 8002aac:   f000 fb1d   bl  80030ea <HAL_TIMEx_CommutationCallback>
 8002ab0:   bd10        pop {r4, pc}
 8002ab2:   f7fe fb8d   bl  80011d0 <HAL_TIM_OC_DelayElapsedCallback>
 8002ab6:   0020        movs    r0, r4
 8002ab8:   f7ff ff6d   bl  8002996 <HAL_TIM_PWM_PulseFinishedCallback>
 8002abc:   e781        b.n 80029c2 <HAL_TIM_IRQHandler+0x28>
 8002abe:   f7fe fb87   bl  80011d0 <HAL_TIM_OC_DelayElapsedCallback>
 8002ac2:   0020        movs    r0, r4
 8002ac4:   f7ff ff67   bl  8002996 <HAL_TIM_PWM_PulseFinishedCallback>
 8002ac8:   e791        b.n 80029ee <HAL_TIM_IRQHandler+0x54>
 8002aca:   f7fe fb81   bl  80011d0 <HAL_TIM_OC_DelayElapsedCallback>
 8002ace:   0020        movs    r0, r4
 8002ad0:   f7ff ff61   bl  8002996 <HAL_TIM_PWM_PulseFinishedCallback>
 8002ad4:   e79f        b.n 8002a16 <HAL_TIM_IRQHandler+0x7c>
 8002ad6:   f7fe fb7b   bl  80011d0 <HAL_TIM_OC_DelayElapsedCallback>
 8002ada:   0020        movs    r0, r4
 8002adc:   f7ff ff5b   bl  8002996 <HAL_TIM_PWM_PulseFinishedCallback>
 8002ae0:   e7af        b.n 8002a42 <HAL_TIM_IRQHandler+0xa8>
    ...

08002ae4 <TIM_Base_SetConfig>:
 8002ae4:   4a1c        ldr r2, [pc, #112]  ; (8002b58 <TIM_Base_SetConfig+0x74>)
 8002ae6:   b510        push    {r4, lr}
 8002ae8:   6803        ldr r3, [r0, #0]
 8002aea:   4290        cmp r0, r2
 8002aec:   d002        beq.n   8002af4 <TIM_Base_SetConfig+0x10>
 8002aee:   4c1b        ldr r4, [pc, #108]  ; (8002b5c <TIM_Base_SetConfig+0x78>)
 8002af0:   42a0        cmp r0, r4
 8002af2:   d108        bne.n   8002b06 <TIM_Base_SetConfig+0x22>
 8002af4:   2470        movs    r4, #112    ; 0x70
 8002af6:   43a3        bics    r3, r4
 8002af8:   684c        ldr r4, [r1, #4]
 8002afa:   4323        orrs    r3, r4
 8002afc:   4290        cmp r0, r2
 8002afe:   d00e        beq.n   8002b1e <TIM_Base_SetConfig+0x3a>
 8002b00:   4c16        ldr r4, [pc, #88]   ; (8002b5c <TIM_Base_SetConfig+0x78>)
 8002b02:   42a0        cmp r0, r4
 8002b04:   d00b        beq.n   8002b1e <TIM_Base_SetConfig+0x3a>
 8002b06:   4c16        ldr r4, [pc, #88]   ; (8002b60 <TIM_Base_SetConfig+0x7c>)
 8002b08:   42a0        cmp r0, r4
 8002b0a:   d008        beq.n   8002b1e <TIM_Base_SetConfig+0x3a>
 8002b0c:   4c15        ldr r4, [pc, #84]   ; (8002b64 <TIM_Base_SetConfig+0x80>)
 8002b0e:   42a0        cmp r0, r4
 8002b10:   d005        beq.n   8002b1e <TIM_Base_SetConfig+0x3a>
 8002b12:   4c15        ldr r4, [pc, #84]   ; (8002b68 <TIM_Base_SetConfig+0x84>)
 8002b14:   42a0        cmp r0, r4
 8002b16:   d002        beq.n   8002b1e <TIM_Base_SetConfig+0x3a>
 8002b18:   4c14        ldr r4, [pc, #80]   ; (8002b6c <TIM_Base_SetConfig+0x88>)
 8002b1a:   42a0        cmp r0, r4
 8002b1c:   d103        bne.n   8002b26 <TIM_Base_SetConfig+0x42>
 8002b1e:   4c14        ldr r4, [pc, #80]   ; (8002b70 <TIM_Base_SetConfig+0x8c>)
 8002b20:   4023        ands    r3, r4
 8002b22:   68cc        ldr r4, [r1, #12]
 8002b24:   4323        orrs    r3, r4
 8002b26:   2480        movs    r4, #128    ; 0x80
 8002b28:   43a3        bics    r3, r4
 8002b2a:   694c        ldr r4, [r1, #20]
 8002b2c:   4323        orrs    r3, r4
 8002b2e:   6003        str r3, [r0, #0]
 8002b30:   688b        ldr r3, [r1, #8]
 8002b32:   62c3        str r3, [r0, #44]   ; 0x2c
 8002b34:   680b        ldr r3, [r1, #0]
 8002b36:   6283        str r3, [r0, #40]   ; 0x28
 8002b38:   4290        cmp r0, r2
 8002b3a:   d008        beq.n   8002b4e <TIM_Base_SetConfig+0x6a>
 8002b3c:   4b09        ldr r3, [pc, #36]   ; (8002b64 <TIM_Base_SetConfig+0x80>)
 8002b3e:   4298        cmp r0, r3
 8002b40:   d005        beq.n   8002b4e <TIM_Base_SetConfig+0x6a>
 8002b42:   4b09        ldr r3, [pc, #36]   ; (8002b68 <TIM_Base_SetConfig+0x84>)
 8002b44:   4298        cmp r0, r3
 8002b46:   d002        beq.n   8002b4e <TIM_Base_SetConfig+0x6a>
 8002b48:   4b08        ldr r3, [pc, #32]   ; (8002b6c <TIM_Base_SetConfig+0x88>)
 8002b4a:   4298        cmp r0, r3
 8002b4c:   d101        bne.n   8002b52 <TIM_Base_SetConfig+0x6e>
 8002b4e:   690b        ldr r3, [r1, #16]
 8002b50:   6303        str r3, [r0, #48]   ; 0x30
 8002b52:   2301        movs    r3, #1
 8002b54:   6143        str r3, [r0, #20]
 8002b56:   bd10        pop {r4, pc}
 8002b58:   40012c00    .word   0x40012c00
 8002b5c:   40000400    .word   0x40000400
 8002b60:   40002000    .word   0x40002000
 8002b64:   40014000    .word   0x40014000
 8002b68:   40014400    .word   0x40014400
 8002b6c:   40014800    .word   0x40014800
 8002b70:   fffffcff    .word   0xfffffcff

08002b74 <HAL_TIM_Base_Init>:
 8002b74:   b570        push    {r4, r5, r6, lr}
 8002b76:   0004        movs    r4, r0
 8002b78:   2001        movs    r0, #1
 8002b7a:   2c00        cmp r4, #0
 8002b7c:   d014        beq.n   8002ba8 <HAL_TIM_Base_Init+0x34>
 8002b7e:   0025        movs    r5, r4
 8002b80:   353d        adds    r5, #61 ; 0x3d
 8002b82:   782b        ldrb    r3, [r5, #0]
 8002b84:   b2db        uxtb    r3, r3
 8002b86:   2b00        cmp r3, #0
 8002b88:   d105        bne.n   8002b96 <HAL_TIM_Base_Init+0x22>
 8002b8a:   0022        movs    r2, r4
 8002b8c:   323c        adds    r2, #60 ; 0x3c
 8002b8e:   7013        strb    r3, [r2, #0]
 8002b90:   0020        movs    r0, r4
 8002b92:   f001 f90f   bl  8003db4 <HAL_TIM_Base_MspInit>
 8002b96:   2302        movs    r3, #2
 8002b98:   6820        ldr r0, [r4, #0]
 8002b9a:   702b        strb    r3, [r5, #0]
 8002b9c:   1d21        adds    r1, r4, #4
 8002b9e:   f7ff ffa1   bl  8002ae4 <TIM_Base_SetConfig>
 8002ba2:   2301        movs    r3, #1
 8002ba4:   2000        movs    r0, #0
 8002ba6:   702b        strb    r3, [r5, #0]
 8002ba8:   bd70        pop {r4, r5, r6, pc}
    ...

08002bac <TIM_OC2_SetConfig>:
 8002bac:   2210        movs    r2, #16
 8002bae:   6a03        ldr r3, [r0, #32]
 8002bb0:   b570        push    {r4, r5, r6, lr}
 8002bb2:   4393        bics    r3, r2
 8002bb4:   6203        str r3, [r0, #32]
 8002bb6:   6a02        ldr r2, [r0, #32]
 8002bb8:   4d16        ldr r5, [pc, #88]   ; (8002c14 <TIM_OC2_SetConfig+0x68>)
 8002bba:   6843        ldr r3, [r0, #4]
 8002bbc:   6984        ldr r4, [r0, #24]
 8002bbe:   402c        ands    r4, r5
 8002bc0:   680d        ldr r5, [r1, #0]
 8002bc2:   022d        lsls    r5, r5, #8
 8002bc4:   432c        orrs    r4, r5
 8002bc6:   2520        movs    r5, #32
 8002bc8:   43aa        bics    r2, r5
 8002bca:   688d        ldr r5, [r1, #8]
 8002bcc:   012d        lsls    r5, r5, #4
 8002bce:   432a        orrs    r2, r5
 8002bd0:   4d11        ldr r5, [pc, #68]   ; (8002c18 <TIM_OC2_SetConfig+0x6c>)
 8002bd2:   42a8        cmp r0, r5
 8002bd4:   d10f        bne.n   8002bf6 <TIM_OC2_SetConfig+0x4a>
 8002bd6:   2580        movs    r5, #128    ; 0x80
 8002bd8:   43aa        bics    r2, r5
 8002bda:   0015        movs    r5, r2
 8002bdc:   68ca        ldr r2, [r1, #12]
 8002bde:   0112        lsls    r2, r2, #4
 8002be0:   432a        orrs    r2, r5
 8002be2:   2540        movs    r5, #64 ; 0x40
 8002be4:   43aa        bics    r2, r5
 8002be6:   4d0d        ldr r5, [pc, #52]   ; (8002c1c <TIM_OC2_SetConfig+0x70>)
 8002be8:   694e        ldr r6, [r1, #20]
 8002bea:   401d        ands    r5, r3
 8002bec:   698b        ldr r3, [r1, #24]
 8002bee:   4333        orrs    r3, r6
 8002bf0:   009b        lsls    r3, r3, #2
 8002bf2:   432b        orrs    r3, r5
 8002bf4:   e008        b.n 8002c08 <TIM_OC2_SetConfig+0x5c>
 8002bf6:   4d0a        ldr r5, [pc, #40]   ; (8002c20 <TIM_OC2_SetConfig+0x74>)
 8002bf8:   42a8        cmp r0, r5
 8002bfa:   d0f4        beq.n   8002be6 <TIM_OC2_SetConfig+0x3a>
 8002bfc:   4d09        ldr r5, [pc, #36]   ; (8002c24 <TIM_OC2_SetConfig+0x78>)
 8002bfe:   42a8        cmp r0, r5
 8002c00:   d0f1        beq.n   8002be6 <TIM_OC2_SetConfig+0x3a>
 8002c02:   4d09        ldr r5, [pc, #36]   ; (8002c28 <TIM_OC2_SetConfig+0x7c>)
 8002c04:   42a8        cmp r0, r5
 8002c06:   d0ee        beq.n   8002be6 <TIM_OC2_SetConfig+0x3a>
 8002c08:   6043        str r3, [r0, #4]
 8002c0a:   684b        ldr r3, [r1, #4]
 8002c0c:   6184        str r4, [r0, #24]
 8002c0e:   6383        str r3, [r0, #56]   ; 0x38
 8002c10:   6202        str r2, [r0, #32]
 8002c12:   bd70        pop {r4, r5, r6, pc}
 8002c14:   ffff8cff    .word   0xffff8cff
 8002c18:   40012c00    .word   0x40012c00
 8002c1c:   fffff3ff    .word   0xfffff3ff
 8002c20:   40014000    .word   0x40014000
 8002c24:   40014400    .word   0x40014400
 8002c28:   40014800    .word   0x40014800

08002c2c <HAL_TIM_OC_ConfigChannel>:
 8002c2c:   b570        push    {r4, r5, r6, lr}
 8002c2e:   0004        movs    r4, r0
 8002c30:   2602        movs    r6, #2
 8002c32:   343c        adds    r4, #60 ; 0x3c
 8002c34:   7825        ldrb    r5, [r4, #0]
 8002c36:   0003        movs    r3, r0
 8002c38:   0030        movs    r0, r6
 8002c3a:   2d01        cmp r5, #1
 8002c3c:   d017        beq.n   8002c6e <HAL_TIM_OC_ConfigChannel+0x42>
 8002c3e:   001d        movs    r5, r3
 8002c40:   3801        subs    r0, #1
 8002c42:   353d        adds    r5, #61 ; 0x3d
 8002c44:   7020        strb    r0, [r4, #0]
 8002c46:   702e        strb    r6, [r5, #0]
 8002c48:   2a0c        cmp r2, #12
 8002c4a:   d80c        bhi.n   8002c66 <HAL_TIM_OC_ConfigChannel+0x3a>
 8002c4c:   0010        movs    r0, r2
 8002c4e:   f7fd fa49   bl  80000e4 <__gnu_thumb1_case_uqi>
 8002c52:   0a07        .short  0x0a07
 8002c54:   0a0f0a0a    .word   0x0a0f0a0a
 8002c58:   0a130a0a    .word   0x0a130a0a
 8002c5c:   0a0a        .short  0x0a0a
 8002c5e:   17              .byte   0x17
 8002c5f:   00              .byte   0x00
 8002c60:   6818        ldr r0, [r3, #0]
 8002c62:   f7ff fdad   bl  80027c0 <TIM_OC1_SetConfig>
 8002c66:   2301        movs    r3, #1
 8002c68:   2000        movs    r0, #0
 8002c6a:   702b        strb    r3, [r5, #0]
 8002c6c:   7020        strb    r0, [r4, #0]
 8002c6e:   bd70        pop {r4, r5, r6, pc}
 8002c70:   6818        ldr r0, [r3, #0]
 8002c72:   f7ff ff9b   bl  8002bac <TIM_OC2_SetConfig>
 8002c76:   e7f6        b.n 8002c66 <HAL_TIM_OC_ConfigChannel+0x3a>
 8002c78:   6818        ldr r0, [r3, #0]
 8002c7a:   f7ff fde5   bl  8002848 <TIM_OC3_SetConfig>
 8002c7e:   e7f2        b.n 8002c66 <HAL_TIM_OC_ConfigChannel+0x3a>
 8002c80:   6818        ldr r0, [r3, #0]
 8002c82:   f7ff fe25   bl  80028d0 <TIM_OC4_SetConfig>
 8002c86:   e7ee        b.n 8002c66 <HAL_TIM_OC_ConfigChannel+0x3a>

08002c88 <HAL_TIM_PWM_ConfigChannel>:
 8002c88:   b5f8        push    {r3, r4, r5, r6, r7, lr}
 8002c8a:   0006        movs    r6, r0
 8002c8c:   2302        movs    r3, #2
 8002c8e:   363c        adds    r6, #60 ; 0x3c
 8002c90:   000d        movs    r5, r1
 8002c92:   7831        ldrb    r1, [r6, #0]
 8002c94:   0004        movs    r4, r0
 8002c96:   0018        movs    r0, r3
 8002c98:   2901        cmp r1, #1
 8002c9a:   d025        beq.n   8002ce8 <HAL_TIM_PWM_ConfigChannel+0x60>
 8002c9c:   0027        movs    r7, r4
 8002c9e:   2101        movs    r1, #1
 8002ca0:   373d        adds    r7, #61 ; 0x3d
 8002ca2:   7031        strb    r1, [r6, #0]
 8002ca4:   703b        strb    r3, [r7, #0]
 8002ca6:   2a0c        cmp r2, #12
 8002ca8:   d81a        bhi.n   8002ce0 <HAL_TIM_PWM_ConfigChannel+0x58>
 8002caa:   0010        movs    r0, r2
 8002cac:   f7fd fa1a   bl  80000e4 <__gnu_thumb1_case_uqi>
 8002cb0:   18181807    .word   0x18181807
 8002cb4:   1818181d    .word   0x1818181d
 8002cb8:   1818182f    .word   0x1818182f
 8002cbc:   41              .byte   0x41
 8002cbd:   00              .byte   0x00
 8002cbe:   0029        movs    r1, r5
 8002cc0:   6820        ldr r0, [r4, #0]
 8002cc2:   f7ff fd7d   bl  80027c0 <TIM_OC1_SetConfig>
 8002cc6:   2208        movs    r2, #8
 8002cc8:   6823        ldr r3, [r4, #0]
 8002cca:   6999        ldr r1, [r3, #24]
 8002ccc:   430a        orrs    r2, r1
 8002cce:   2104        movs    r1, #4
 8002cd0:   619a        str r2, [r3, #24]
 8002cd2:   699a        ldr r2, [r3, #24]
 8002cd4:   438a        bics    r2, r1
 8002cd6:   619a        str r2, [r3, #24]
 8002cd8:   699a        ldr r2, [r3, #24]
 8002cda:   6929        ldr r1, [r5, #16]
 8002cdc:   430a        orrs    r2, r1
 8002cde:   619a        str r2, [r3, #24]
 8002ce0:   2301        movs    r3, #1
 8002ce2:   2000        movs    r0, #0
 8002ce4:   703b        strb    r3, [r7, #0]
 8002ce6:   7030        strb    r0, [r6, #0]
 8002ce8:   bdf8        pop {r3, r4, r5, r6, r7, pc}
 8002cea:   0029        movs    r1, r5
 8002cec:   6820        ldr r0, [r4, #0]
 8002cee:   f7ff ff5d   bl  8002bac <TIM_OC2_SetConfig>
 8002cf2:   2280        movs    r2, #128    ; 0x80
 8002cf4:   6823        ldr r3, [r4, #0]
 8002cf6:   0112        lsls    r2, r2, #4
 8002cf8:   6999        ldr r1, [r3, #24]
 8002cfa:   430a        orrs    r2, r1
 8002cfc:   619a        str r2, [r3, #24]
 8002cfe:   699a        ldr r2, [r3, #24]
 8002d00:   4915        ldr r1, [pc, #84]   ; (8002d58 <HAL_TIM_PWM_ConfigChannel+0xd0>)
 8002d02:   400a        ands    r2, r1
 8002d04:   619a        str r2, [r3, #24]
 8002d06:   692a        ldr r2, [r5, #16]
 8002d08:   6999        ldr r1, [r3, #24]
 8002d0a:   0212        lsls    r2, r2, #8
 8002d0c:   e7e6        b.n 8002cdc <HAL_TIM_PWM_ConfigChannel+0x54>
 8002d0e:   0029        movs    r1, r5
 8002d10:   6820        ldr r0, [r4, #0]
 8002d12:   f7ff fd99   bl  8002848 <TIM_OC3_SetConfig>
 8002d16:   2208        movs    r2, #8
 8002d18:   6823        ldr r3, [r4, #0]
 8002d1a:   69d9        ldr r1, [r3, #28]
 8002d1c:   430a        orrs    r2, r1
 8002d1e:   2104        movs    r1, #4
 8002d20:   61da        str r2, [r3, #28]
 8002d22:   69da        ldr r2, [r3, #28]
 8002d24:   438a        bics    r2, r1
 8002d26:   61da        str r2, [r3, #28]
 8002d28:   69da        ldr r2, [r3, #28]
 8002d2a:   6929        ldr r1, [r5, #16]
 8002d2c:   430a        orrs    r2, r1
 8002d2e:   61da        str r2, [r3, #28]
 8002d30:   e7d6        b.n 8002ce0 <HAL_TIM_PWM_ConfigChannel+0x58>
 8002d32:   0029        movs    r1, r5
 8002d34:   6820        ldr r0, [r4, #0]
 8002d36:   f7ff fdcb   bl  80028d0 <TIM_OC4_SetConfig>
 8002d3a:   2280        movs    r2, #128    ; 0x80
 8002d3c:   6823        ldr r3, [r4, #0]
 8002d3e:   0112        lsls    r2, r2, #4
 8002d40:   69d9        ldr r1, [r3, #28]
 8002d42:   430a        orrs    r2, r1
 8002d44:   61da        str r2, [r3, #28]
 8002d46:   69da        ldr r2, [r3, #28]
 8002d48:   4903        ldr r1, [pc, #12]   ; (8002d58 <HAL_TIM_PWM_ConfigChannel+0xd0>)
 8002d4a:   400a        ands    r2, r1
 8002d4c:   61da        str r2, [r3, #28]
 8002d4e:   692a        ldr r2, [r5, #16]
 8002d50:   69d9        ldr r1, [r3, #28]
 8002d52:   0212        lsls    r2, r2, #8
 8002d54:   e7ea        b.n 8002d2c <HAL_TIM_PWM_ConfigChannel+0xa4>
 8002d56:   46c0        nop         ; (mov r8, r8)
 8002d58:   fffffbff    .word   0xfffffbff

08002d5c <TIM_TI1_SetConfig>:
 8002d5c:   b5f0        push    {r4, r5, r6, r7, lr}
 8002d5e:   2601        movs    r6, #1
 8002d60:   6a05        ldr r5, [r0, #32]
 8002d62:   4f0f        ldr r7, [pc, #60]   ; (8002da0 <TIM_TI1_SetConfig+0x44>)
 8002d64:   43b5        bics    r5, r6
 8002d66:   6205        str r5, [r0, #32]
 8002d68:   6984        ldr r4, [r0, #24]
 8002d6a:   6a05        ldr r5, [r0, #32]
 8002d6c:   42b8        cmp r0, r7
 8002d6e:   d013        beq.n   8002d98 <TIM_TI1_SetConfig+0x3c>
 8002d70:   4f0c        ldr r7, [pc, #48]   ; (8002da4 <TIM_TI1_SetConfig+0x48>)
 8002d72:   42b8        cmp r0, r7
 8002d74:   d010        beq.n   8002d98 <TIM_TI1_SetConfig+0x3c>
 8002d76:   4f0c        ldr r7, [pc, #48]   ; (8002da8 <TIM_TI1_SetConfig+0x4c>)
 8002d78:   42b8        cmp r0, r7
 8002d7a:   d00d        beq.n   8002d98 <TIM_TI1_SetConfig+0x3c>
 8002d7c:   4334        orrs    r4, r6
 8002d7e:   22f0        movs    r2, #240    ; 0xf0
 8002d80:   011b        lsls    r3, r3, #4
 8002d82:   4394        bics    r4, r2
 8002d84:   320f        adds    r2, #15
 8002d86:   4013        ands    r3, r2
 8002d88:   431c        orrs    r4, r3
 8002d8a:   230a        movs    r3, #10
 8002d8c:   439d        bics    r5, r3
 8002d8e:   4019        ands    r1, r3
 8002d90:   4329        orrs    r1, r5
 8002d92:   6184        str r4, [r0, #24]
 8002d94:   6201        str r1, [r0, #32]
 8002d96:   bdf0        pop {r4, r5, r6, r7, pc}
 8002d98:   2603        movs    r6, #3
 8002d9a:   43b4        bics    r4, r6
 8002d9c:   4314        orrs    r4, r2
 8002d9e:   e7ee        b.n 8002d7e <TIM_TI1_SetConfig+0x22>
 8002da0:   40012c00    .word   0x40012c00
 8002da4:   40000400    .word   0x40000400
 8002da8:   40014000    .word   0x40014000

08002dac <HAL_TIM_IC_ConfigChannel>:
 8002dac:   b5f7        push    {r0, r1, r2, r4, r5, r6, r7, lr}
 8002dae:   000d        movs    r5, r1
 8002db0:   0001        movs    r1, r0
 8002db2:   2302        movs    r3, #2
 8002db4:   313c        adds    r1, #60 ; 0x3c
 8002db6:   780e        ldrb    r6, [r1, #0]
 8002db8:   0004        movs    r4, r0
 8002dba:   0018        movs    r0, r3
 8002dbc:   2e01        cmp r6, #1
 8002dbe:   d01b        beq.n   8002df8 <HAL_TIM_IC_ConfigChannel+0x4c>
 8002dc0:   3801        subs    r0, #1
 8002dc2:   7008        strb    r0, [r1, #0]
 8002dc4:   704b        strb    r3, [r1, #1]
 8002dc6:   6820        ldr r0, [r4, #0]
 8002dc8:   6829        ldr r1, [r5, #0]
 8002dca:   686e        ldr r6, [r5, #4]
 8002dcc:   68eb        ldr r3, [r5, #12]
 8002dce:   2a00        cmp r2, #0
 8002dd0:   d113        bne.n   8002dfa <HAL_TIM_IC_ConfigChannel+0x4e>
 8002dd2:   0032        movs    r2, r6
 8002dd4:   f7ff ffc2   bl  8002d5c <TIM_TI1_SetConfig>
 8002dd8:   210c        movs    r1, #12
 8002dda:   6823        ldr r3, [r4, #0]
 8002ddc:   699a        ldr r2, [r3, #24]
 8002dde:   438a        bics    r2, r1
 8002de0:   619a        str r2, [r3, #24]
 8002de2:   699a        ldr r2, [r3, #24]
 8002de4:   68a9        ldr r1, [r5, #8]
 8002de6:   430a        orrs    r2, r1
 8002de8:   619a        str r2, [r3, #24]
 8002dea:   0023        movs    r3, r4
 8002dec:   2201        movs    r2, #1
 8002dee:   2000        movs    r0, #0
 8002df0:   333d        adds    r3, #61 ; 0x3d
 8002df2:   343c        adds    r4, #60 ; 0x3c
 8002df4:   701a        strb    r2, [r3, #0]
 8002df6:   7020        strb    r0, [r4, #0]
 8002df8:   bdfe        pop {r1, r2, r3, r4, r5, r6, r7, pc}
 8002dfa:   68ad        ldr r5, [r5, #8]
 8002dfc:   9501        str r5, [sp, #4]
 8002dfe:   2a04        cmp r2, #4
 8002e00:   d11f        bne.n   8002e42 <HAL_TIM_IC_ConfigChannel+0x96>
 8002e02:   2710        movs    r7, #16
 8002e04:   6a02        ldr r2, [r0, #32]
 8002e06:   4d30        ldr r5, [pc, #192]  ; (8002ec8 <HAL_TIM_IC_ConfigChannel+0x11c>)
 8002e08:   43ba        bics    r2, r7
 8002e0a:   6202        str r2, [r0, #32]
 8002e0c:   6982        ldr r2, [r0, #24]
 8002e0e:   0236        lsls    r6, r6, #8
 8002e10:   402a        ands    r2, r5
 8002e12:   4316        orrs    r6, r2
 8002e14:   4a2d        ldr r2, [pc, #180]  ; (8002ecc <HAL_TIM_IC_ConfigChannel+0x120>)
 8002e16:   6a07        ldr r7, [r0, #32]
 8002e18:   4016        ands    r6, r2
 8002e1a:   22a0        movs    r2, #160    ; 0xa0
 8002e1c:   071b        lsls    r3, r3, #28
 8002e1e:   0109        lsls    r1, r1, #4
 8002e20:   4397        bics    r7, r2
 8002e22:   4011        ands    r1, r2
 8002e24:   0c1b        lsrs    r3, r3, #16
 8002e26:   4333        orrs    r3, r6
 8002e28:   4339        orrs    r1, r7
 8002e2a:   6183        str r3, [r0, #24]
 8002e2c:   6201        str r1, [r0, #32]
 8002e2e:   6983        ldr r3, [r0, #24]
 8002e30:   4a27        ldr r2, [pc, #156]  ; (8002ed0 <HAL_TIM_IC_ConfigChannel+0x124>)
 8002e32:   4013        ands    r3, r2
 8002e34:   6183        str r3, [r0, #24]
 8002e36:   9a01        ldr r2, [sp, #4]
 8002e38:   6983        ldr r3, [r0, #24]
 8002e3a:   0215        lsls    r5, r2, #8
 8002e3c:   431d        orrs    r5, r3
 8002e3e:   6185        str r5, [r0, #24]
 8002e40:   e7d3        b.n 8002dea <HAL_TIM_IC_ConfigChannel+0x3e>
 8002e42:   2a08        cmp r2, #8
 8002e44:   d120        bne.n   8002e88 <HAL_TIM_IC_ConfigChannel+0xdc>
 8002e46:   2503        movs    r5, #3
 8002e48:   6a02        ldr r2, [r0, #32]
 8002e4a:   4f22        ldr r7, [pc, #136]  ; (8002ed4 <HAL_TIM_IC_ConfigChannel+0x128>)
 8002e4c:   011b        lsls    r3, r3, #4
 8002e4e:   403a        ands    r2, r7
 8002e50:   6202        str r2, [r0, #32]
 8002e52:   69c2        ldr r2, [r0, #28]
 8002e54:   6a07        ldr r7, [r0, #32]
 8002e56:   43aa        bics    r2, r5
 8002e58:   4332        orrs    r2, r6
 8002e5a:   26f0        movs    r6, #240    ; 0xf0
 8002e5c:   43b2        bics    r2, r6
 8002e5e:   360f        adds    r6, #15
 8002e60:   4033        ands    r3, r6
 8002e62:   431a        orrs    r2, r3
 8002e64:   4b1c        ldr r3, [pc, #112]  ; (8002ed8 <HAL_TIM_IC_ConfigChannel+0x12c>)
 8002e66:   61c2        str r2, [r0, #28]
 8002e68:   401f        ands    r7, r3
 8002e6a:   23a0        movs    r3, #160    ; 0xa0
 8002e6c:   220c        movs    r2, #12
 8002e6e:   011b        lsls    r3, r3, #4
 8002e70:   0209        lsls    r1, r1, #8
 8002e72:   4019        ands    r1, r3
 8002e74:   4339        orrs    r1, r7
 8002e76:   6201        str r1, [r0, #32]
 8002e78:   69c3        ldr r3, [r0, #28]
 8002e7a:   9d01        ldr r5, [sp, #4]
 8002e7c:   4393        bics    r3, r2
 8002e7e:   61c3        str r3, [r0, #28]
 8002e80:   69c3        ldr r3, [r0, #28]
 8002e82:   431d        orrs    r5, r3
 8002e84:   61c5        str r5, [r0, #28]
 8002e86:   e7b0        b.n 8002dea <HAL_TIM_IC_ConfigChannel+0x3e>
 8002e88:   6a02        ldr r2, [r0, #32]
 8002e8a:   4f14        ldr r7, [pc, #80]   ; (8002edc <HAL_TIM_IC_ConfigChannel+0x130>)
 8002e8c:   4d0e        ldr r5, [pc, #56]   ; (8002ec8 <HAL_TIM_IC_ConfigChannel+0x11c>)
 8002e8e:   403a        ands    r2, r7
 8002e90:   6202        str r2, [r0, #32]
 8002e92:   69c2        ldr r2, [r0, #28]
 8002e94:   0236        lsls    r6, r6, #8
 8002e96:   402a        ands    r2, r5
 8002e98:   4316        orrs    r6, r2
 8002e9a:   4a0c        ldr r2, [pc, #48]   ; (8002ecc <HAL_TIM_IC_ConfigChannel+0x120>)
 8002e9c:   6a07        ldr r7, [r0, #32]
 8002e9e:   4016        ands    r6, r2
 8002ea0:   4a0f        ldr r2, [pc, #60]   ; (8002ee0 <HAL_TIM_IC_ConfigChannel+0x134>)
 8002ea2:   071b        lsls    r3, r3, #28
 8002ea4:   4017        ands    r7, r2
 8002ea6:   22a0        movs    r2, #160    ; 0xa0
 8002ea8:   0309        lsls    r1, r1, #12
 8002eaa:   0212        lsls    r2, r2, #8
 8002eac:   4011        ands    r1, r2
 8002eae:   0c1b        lsrs    r3, r3, #16
 8002eb0:   4333        orrs    r3, r6
 8002eb2:   4339        orrs    r1, r7
 8002eb4:   61c3        str r3, [r0, #28]
 8002eb6:   6201        str r1, [r0, #32]
 8002eb8:   69c3        ldr r3, [r0, #28]
 8002eba:   4a05        ldr r2, [pc, #20]   ; (8002ed0 <HAL_TIM_IC_ConfigChannel+0x124>)
 8002ebc:   4013        ands    r3, r2
 8002ebe:   9a01        ldr r2, [sp, #4]
 8002ec0:   61c3        str r3, [r0, #28]
 8002ec2:   69c3        ldr r3, [r0, #28]
 8002ec4:   0215        lsls    r5, r2, #8
 8002ec6:   e7dc        b.n 8002e82 <HAL_TIM_IC_ConfigChannel+0xd6>
 8002ec8:   fffffcff    .word   0xfffffcff
 8002ecc:   ffff0fff    .word   0xffff0fff
 8002ed0:   fffff3ff    .word   0xfffff3ff
 8002ed4:   fffffeff    .word   0xfffffeff
 8002ed8:   fffff5ff    .word   0xfffff5ff
 8002edc:   ffffefff    .word   0xffffefff
 8002ee0:   ffff5fff    .word   0xffff5fff

08002ee4 <TIM_CCxChannelCmd>:
 8002ee4:   b510        push    {r4, lr}
 8002ee6:   2401        movs    r4, #1
 8002ee8:   408c        lsls    r4, r1
 8002eea:   408a        lsls    r2, r1
 8002eec:   6a03        ldr r3, [r0, #32]
 8002eee:   43a3        bics    r3, r4
 8002ef0:   6203        str r3, [r0, #32]
 8002ef2:   6a03        ldr r3, [r0, #32]
 8002ef4:   431a        orrs    r2, r3
 8002ef6:   6202        str r2, [r0, #32]
 8002ef8:   bd10        pop {r4, pc}
    ...

08002efc <HAL_TIM_OC_Start>:
 8002efc:   b510        push    {r4, lr}
 8002efe:   0004        movs    r4, r0
 8002f00:   2201        movs    r2, #1
 8002f02:   6800        ldr r0, [r0, #0]
 8002f04:   f7ff ffee   bl  8002ee4 <TIM_CCxChannelCmd>
 8002f08:   6823        ldr r3, [r4, #0]
 8002f0a:   4a0b        ldr r2, [pc, #44]   ; (8002f38 <HAL_TIM_OC_Start+0x3c>)
 8002f0c:   4293        cmp r3, r2
 8002f0e:   d008        beq.n   8002f22 <HAL_TIM_OC_Start+0x26>
 8002f10:   4a0a        ldr r2, [pc, #40]   ; (8002f3c <HAL_TIM_OC_Start+0x40>)
 8002f12:   4293        cmp r3, r2
 8002f14:   d005        beq.n   8002f22 <HAL_TIM_OC_Start+0x26>
 8002f16:   4a0a        ldr r2, [pc, #40]   ; (8002f40 <HAL_TIM_OC_Start+0x44>)
 8002f18:   4293        cmp r3, r2
 8002f1a:   d002        beq.n   8002f22 <HAL_TIM_OC_Start+0x26>
 8002f1c:   4a09        ldr r2, [pc, #36]   ; (8002f44 <HAL_TIM_OC_Start+0x48>)
 8002f1e:   4293        cmp r3, r2
 8002f20:   d104        bne.n   8002f2c <HAL_TIM_OC_Start+0x30>
 8002f22:   2280        movs    r2, #128    ; 0x80
 8002f24:   6c59        ldr r1, [r3, #68]   ; 0x44
 8002f26:   0212        lsls    r2, r2, #8
 8002f28:   430a        orrs    r2, r1
 8002f2a:   645a        str r2, [r3, #68]   ; 0x44
 8002f2c:   2201        movs    r2, #1
 8002f2e:   6819        ldr r1, [r3, #0]
 8002f30:   2000        movs    r0, #0
 8002f32:   430a        orrs    r2, r1
 8002f34:   601a        str r2, [r3, #0]
 8002f36:   bd10        pop {r4, pc}
 8002f38:   40012c00    .word   0x40012c00
 8002f3c:   40014000    .word   0x40014000
 8002f40:   40014400    .word   0x40014400
 8002f44:   40014800    .word   0x40014800

08002f48 <HAL_TIM_PWM_Start>:
 8002f48:   b510        push    {r4, lr}
 8002f4a:   f7ff ffd7   bl  8002efc <HAL_TIM_OC_Start>
 8002f4e:   bd10        pop {r4, pc}

08002f50 <HAL_TIM_OC_Start_IT>:
 8002f50:   b510        push    {r4, lr}
 8002f52:   6803        ldr r3, [r0, #0]
 8002f54:   0004        movs    r4, r0
 8002f56:   290c        cmp r1, #12
 8002f58:   d80d        bhi.n   8002f76 <HAL_TIM_OC_Start_IT+0x26>
 8002f5a:   0008        movs    r0, r1
 8002f5c:   f7fd f8c2   bl  80000e4 <__gnu_thumb1_case_uqi>
 8002f60:   0b0b0b07    .word   0x0b0b0b07
 8002f64:   0b0b0b27    .word   0x0b0b0b27
 8002f68:   0b0b0b2a    .word   0x0b0b0b2a
 8002f6c:   2d              .byte   0x2d
 8002f6d:   00              .byte   0x00
 8002f6e:   2202        movs    r2, #2
 8002f70:   68d8        ldr r0, [r3, #12]
 8002f72:   4302        orrs    r2, r0
 8002f74:   60da        str r2, [r3, #12]
 8002f76:   2201        movs    r2, #1
 8002f78:   0018        movs    r0, r3
 8002f7a:   f7ff ffb3   bl  8002ee4 <TIM_CCxChannelCmd>
 8002f7e:   6823        ldr r3, [r4, #0]
 8002f80:   4a0f        ldr r2, [pc, #60]   ; (8002fc0 <HAL_TIM_OC_Start_IT+0x70>)
 8002f82:   4293        cmp r3, r2
 8002f84:   d008        beq.n   8002f98 <HAL_TIM_OC_Start_IT+0x48>
 8002f86:   4a0f        ldr r2, [pc, #60]   ; (8002fc4 <HAL_TIM_OC_Start_IT+0x74>)
 8002f88:   4293        cmp r3, r2
 8002f8a:   d005        beq.n   8002f98 <HAL_TIM_OC_Start_IT+0x48>
 8002f8c:   4a0e        ldr r2, [pc, #56]   ; (8002fc8 <HAL_TIM_OC_Start_IT+0x78>)
 8002f8e:   4293        cmp r3, r2
 8002f90:   d002        beq.n   8002f98 <HAL_TIM_OC_Start_IT+0x48>
 8002f92:   4a0e        ldr r2, [pc, #56]   ; (8002fcc <HAL_TIM_OC_Start_IT+0x7c>)
 8002f94:   4293        cmp r3, r2
 8002f96:   d104        bne.n   8002fa2 <HAL_TIM_OC_Start_IT+0x52>
 8002f98:   2280        movs    r2, #128    ; 0x80
 8002f9a:   6c59        ldr r1, [r3, #68]   ; 0x44
 8002f9c:   0212        lsls    r2, r2, #8
 8002f9e:   430a        orrs    r2, r1
 8002fa0:   645a        str r2, [r3, #68]   ; 0x44
 8002fa2:   2201        movs    r2, #1
 8002fa4:   6819        ldr r1, [r3, #0]
 8002fa6:   2000        movs    r0, #0
 8002fa8:   430a        orrs    r2, r1
 8002faa:   601a        str r2, [r3, #0]
 8002fac:   bd10        pop {r4, pc}
 8002fae:   68d8        ldr r0, [r3, #12]
 8002fb0:   2204        movs    r2, #4
 8002fb2:   e7de        b.n 8002f72 <HAL_TIM_OC_Start_IT+0x22>
 8002fb4:   68d8        ldr r0, [r3, #12]
 8002fb6:   2208        movs    r2, #8
 8002fb8:   e7db        b.n 8002f72 <HAL_TIM_OC_Start_IT+0x22>
 8002fba:   68d8        ldr r0, [r3, #12]
 8002fbc:   2210        movs    r2, #16
 8002fbe:   e7d8        b.n 8002f72 <HAL_TIM_OC_Start_IT+0x22>
 8002fc0:   40012c00    .word   0x40012c00
 8002fc4:   40014000    .word   0x40014000
 8002fc8:   40014400    .word   0x40014400
 8002fcc:   40014800    .word   0x40014800

08002fd0 <HAL_TIM_PWM_Start_IT>:
 8002fd0:   b510        push    {r4, lr}
 8002fd2:   f7ff ffbd   bl  8002f50 <HAL_TIM_OC_Start_IT>
 8002fd6:   bd10        pop {r4, pc}

08002fd8 <HAL_TIM_IC_Start>:
 8002fd8:   b510        push    {r4, lr}
 8002fda:   0004        movs    r4, r0
 8002fdc:   2201        movs    r2, #1
 8002fde:   6800        ldr r0, [r0, #0]
 8002fe0:   f7ff ff80   bl  8002ee4 <TIM_CCxChannelCmd>
 8002fe4:   2301        movs    r3, #1
 8002fe6:   6822        ldr r2, [r4, #0]
 8002fe8:   2000        movs    r0, #0
 8002fea:   6811        ldr r1, [r2, #0]
 8002fec:   430b        orrs    r3, r1
 8002fee:   6013        str r3, [r2, #0]
 8002ff0:   bd10        pop {r4, pc}

08002ff2 <HAL_TIM_IC_Start_IT>:
 8002ff2:   b510        push    {r4, lr}
 8002ff4:   6803        ldr r3, [r0, #0]
 8002ff6:   0004        movs    r4, r0
 8002ff8:   290c        cmp r1, #12
 8002ffa:   d80d        bhi.n   8003018 <HAL_TIM_IC_Start_IT+0x26>
 8002ffc:   0008        movs    r0, r1
 8002ffe:   f7fd f871   bl  80000e4 <__gnu_thumb1_case_uqi>
 8003002:   0b07        .short  0x0b07
 8003004:   0b160b0b    .word   0x0b160b0b
 8003008:   0b190b0b    .word   0x0b190b0b
 800300c:   0b0b        .short  0x0b0b
 800300e:   1c              .byte   0x1c
 800300f:   00              .byte   0x00
 8003010:   2202        movs    r2, #2
 8003012:   68d8        ldr r0, [r3, #12]
 8003014:   4302        orrs    r2, r0
 8003016:   60da        str r2, [r3, #12]
 8003018:   0018        movs    r0, r3
 800301a:   2201        movs    r2, #1
 800301c:   f7ff ff62   bl  8002ee4 <TIM_CCxChannelCmd>
 8003020:   2301        movs    r3, #1
 8003022:   6822        ldr r2, [r4, #0]
 8003024:   2000        movs    r0, #0
 8003026:   6811        ldr r1, [r2, #0]
 8003028:   430b        orrs    r3, r1
 800302a:   6013        str r3, [r2, #0]
 800302c:   bd10        pop {r4, pc}
 800302e:   68d8        ldr r0, [r3, #12]
 8003030:   2204        movs    r2, #4
 8003032:   e7ef        b.n 8003014 <HAL_TIM_IC_Start_IT+0x22>
 8003034:   68d8        ldr r0, [r3, #12]
 8003036:   2208        movs    r2, #8
 8003038:   e7ec        b.n 8003014 <HAL_TIM_IC_Start_IT+0x22>
 800303a:   68d8        ldr r0, [r3, #12]
 800303c:   2210        movs    r2, #16
 800303e:   e7e9        b.n 8003014 <HAL_TIM_IC_Start_IT+0x22>

08003040 <TIM_CCxNChannelCmd>:
 8003040:   b510        push    {r4, lr}
 8003042:   2404        movs    r4, #4
 8003044:   408c        lsls    r4, r1
 8003046:   408a        lsls    r2, r1
 8003048:   6a03        ldr r3, [r0, #32]
 800304a:   43a3        bics    r3, r4
 800304c:   6203        str r3, [r0, #32]
 800304e:   6a03        ldr r3, [r0, #32]
 8003050:   431a        orrs    r2, r3
 8003052:   6202        str r2, [r0, #32]
 8003054:   bd10        pop {r4, pc}

08003056 <HAL_TIMEx_OCN_Start>:
 8003056:   b510        push    {r4, lr}
 8003058:   0004        movs    r4, r0
 800305a:   2204        movs    r2, #4
 800305c:   6800        ldr r0, [r0, #0]
 800305e:   f7ff ffef   bl  8003040 <TIM_CCxNChannelCmd>
 8003062:   2280        movs    r2, #128    ; 0x80
 8003064:   6823        ldr r3, [r4, #0]
 8003066:   0212        lsls    r2, r2, #8
 8003068:   6c59        ldr r1, [r3, #68]   ; 0x44
 800306a:   2000        movs    r0, #0
 800306c:   430a        orrs    r2, r1
 800306e:   645a        str r2, [r3, #68]   ; 0x44
 8003070:   2201        movs    r2, #1
 8003072:   6819        ldr r1, [r3, #0]
 8003074:   430a        orrs    r2, r1
 8003076:   601a        str r2, [r3, #0]
 8003078:   bd10        pop {r4, pc}

0800307a <HAL_TIMEx_OCN_Start_IT>:
 800307a:   b510        push    {r4, lr}
 800307c:   6803        ldr r3, [r0, #0]
 800307e:   0004        movs    r4, r0
 8003080:   290c        cmp r1, #12
 8003082:   d80d        bhi.n   80030a0 <HAL_TIMEx_OCN_Start_IT+0x26>
 8003084:   0008        movs    r0, r1
 8003086:   f7fd f82d   bl  80000e4 <__gnu_thumb1_case_uqi>
 800308a:   0b07        .short  0x0b07
 800308c:   0b1f0b0b    .word   0x0b1f0b0b
 8003090:   0b220b0b    .word   0x0b220b0b
 8003094:   0b0b        .short  0x0b0b
 8003096:   25              .byte   0x25
 8003097:   00              .byte   0x00
 8003098:   2202        movs    r2, #2
 800309a:   68d8        ldr r0, [r3, #12]
 800309c:   4302        orrs    r2, r0
 800309e:   60da        str r2, [r3, #12]
 80030a0:   2280        movs    r2, #128    ; 0x80
 80030a2:   68d8        ldr r0, [r3, #12]
 80030a4:   4302        orrs    r2, r0
 80030a6:   60da        str r2, [r3, #12]
 80030a8:   0018        movs    r0, r3
 80030aa:   2204        movs    r2, #4
 80030ac:   f7ff ffc8   bl  8003040 <TIM_CCxNChannelCmd>
 80030b0:   2280        movs    r2, #128    ; 0x80
 80030b2:   6823        ldr r3, [r4, #0]
 80030b4:   0212        lsls    r2, r2, #8
 80030b6:   6c59        ldr r1, [r3, #68]   ; 0x44
 80030b8:   2000        movs    r0, #0
 80030ba:   430a        orrs    r2, r1
 80030bc:   645a        str r2, [r3, #68]   ; 0x44
 80030be:   2201        movs    r2, #1
 80030c0:   6819        ldr r1, [r3, #0]
 80030c2:   430a        orrs    r2, r1
 80030c4:   601a        str r2, [r3, #0]
 80030c6:   bd10        pop {r4, pc}
 80030c8:   68d8        ldr r0, [r3, #12]
 80030ca:   2204        movs    r2, #4
 80030cc:   e7e6        b.n 800309c <HAL_TIMEx_OCN_Start_IT+0x22>
 80030ce:   68d8        ldr r0, [r3, #12]
 80030d0:   2208        movs    r2, #8
 80030d2:   e7e3        b.n 800309c <HAL_TIMEx_OCN_Start_IT+0x22>
 80030d4:   68d8        ldr r0, [r3, #12]
 80030d6:   2210        movs    r2, #16
 80030d8:   e7e0        b.n 800309c <HAL_TIMEx_OCN_Start_IT+0x22>

080030da <HAL_TIMEx_PWMN_Start>:
 80030da:   b510        push    {r4, lr}
 80030dc:   f7ff ffbb   bl  8003056 <HAL_TIMEx_OCN_Start>
 80030e0:   bd10        pop {r4, pc}

080030e2 <HAL_TIMEx_PWMN_Start_IT>:
 80030e2:   b510        push    {r4, lr}
 80030e4:   f7ff ffc9   bl  800307a <HAL_TIMEx_OCN_Start_IT>
 80030e8:   bd10        pop {r4, pc}

080030ea <HAL_TIMEx_CommutationCallback>:
 80030ea:   4770        bx  lr

080030ec <HAL_TIMEx_BreakCallback>:
 80030ec:   4770        bx  lr
    ...

080030f0 <UART_EndRxTransfer>:
 80030f0:   6803        ldr r3, [r0, #0]
 80030f2:   4906        ldr r1, [pc, #24]   ; (800310c <UART_EndRxTransfer+0x1c>)
 80030f4:   681a        ldr r2, [r3, #0]
 80030f6:   306a        adds    r0, #106    ; 0x6a
 80030f8:   400a        ands    r2, r1
 80030fa:   601a        str r2, [r3, #0]
 80030fc:   689a        ldr r2, [r3, #8]
 80030fe:   3123        adds    r1, #35 ; 0x23
 8003100:   31ff        adds    r1, #255    ; 0xff
 8003102:   438a        bics    r2, r1
 8003104:   609a        str r2, [r3, #8]
 8003106:   2320        movs    r3, #32
 8003108:   7003        strb    r3, [r0, #0]
 800310a:   4770        bx  lr
 800310c:   fffffedf    .word   0xfffffedf

08003110 <HAL_UART_MspInit>:
 8003110:   4770        bx  lr

08003112 <HAL_UART_Transmit_IT>:
 8003112:   b570        push    {r4, r5, r6, lr}
 8003114:   0006        movs    r6, r0
 8003116:   3669        adds    r6, #105    ; 0x69
 8003118:   7833        ldrb    r3, [r6, #0]
 800311a:   0004        movs    r4, r0
 800311c:   2002        movs    r0, #2
 800311e:   2b20        cmp r3, #32
 8003120:   d126        bne.n   8003170 <HAL_UART_Transmit_IT+0x5e>
 8003122:   3801        subs    r0, #1
 8003124:   2900        cmp r1, #0
 8003126:   d023        beq.n   8003170 <HAL_UART_Transmit_IT+0x5e>
 8003128:   2a00        cmp r2, #0
 800312a:   d021        beq.n   8003170 <HAL_UART_Transmit_IT+0x5e>
 800312c:   2380        movs    r3, #128    ; 0x80
 800312e:   68a0        ldr r0, [r4, #8]
 8003130:   015b        lsls    r3, r3, #5
 8003132:   4298        cmp r0, r3
 8003134:   d106        bne.n   8003144 <HAL_UART_Transmit_IT+0x32>
 8003136:   6923        ldr r3, [r4, #16]
 8003138:   2b00        cmp r3, #0
 800313a:   d103        bne.n   8003144 <HAL_UART_Transmit_IT+0x32>
 800313c:   3301        adds    r3, #1
 800313e:   0018        movs    r0, r3
 8003140:   4219        tst r1, r3
 8003142:   d115        bne.n   8003170 <HAL_UART_Transmit_IT+0x5e>
 8003144:   0025        movs    r5, r4
 8003146:   3568        adds    r5, #104    ; 0x68
 8003148:   782b        ldrb    r3, [r5, #0]
 800314a:   2002        movs    r0, #2
 800314c:   2b01        cmp r3, #1
 800314e:   d00f        beq.n   8003170 <HAL_UART_Transmit_IT+0x5e>
 8003150:   0023        movs    r3, r4
 8003152:   3350        adds    r3, #80 ; 0x50
 8003154:   64e1        str r1, [r4, #76]   ; 0x4c
 8003156:   805a        strh    r2, [r3, #2]
 8003158:   801a        strh    r2, [r3, #0]
 800315a:   2300        movs    r3, #0
 800315c:   2221        movs    r2, #33 ; 0x21
 800315e:   6821        ldr r1, [r4, #0]
 8003160:   66e3        str r3, [r4, #108]  ; 0x6c
 8003162:   7032        strb    r2, [r6, #0]
 8003164:   6808        ldr r0, [r1, #0]
 8003166:   325f        adds    r2, #95 ; 0x5f
 8003168:   4302        orrs    r2, r0
 800316a:   0018        movs    r0, r3
 800316c:   702b        strb    r3, [r5, #0]
 800316e:   600a        str r2, [r1, #0]
 8003170:   bd70        pop {r4, r5, r6, pc}
    ...

08003174 <HAL_UART_Receive_IT>:
 8003174:   b5f0        push    {r4, r5, r6, r7, lr}
 8003176:   0006        movs    r6, r0
 8003178:   366a        adds    r6, #106    ; 0x6a
 800317a:   7834        ldrb    r4, [r6, #0]
 800317c:   0003        movs    r3, r0
 800317e:   2002        movs    r0, #2
 8003180:   2c20        cmp r4, #32
 8003182:   d137        bne.n   80031f4 <HAL_UART_Receive_IT+0x80>
 8003184:   3801        subs    r0, #1
 8003186:   2900        cmp r1, #0
 8003188:   d034        beq.n   80031f4 <HAL_UART_Receive_IT+0x80>
 800318a:   2a00        cmp r2, #0
 800318c:   d032        beq.n   80031f4 <HAL_UART_Receive_IT+0x80>
 800318e:   2080        movs    r0, #128    ; 0x80
 8003190:   689d        ldr r5, [r3, #8]
 8003192:   0140        lsls    r0, r0, #5
 8003194:   4285        cmp r5, r0
 8003196:   d106        bne.n   80031a6 <HAL_UART_Receive_IT+0x32>
 8003198:   6918        ldr r0, [r3, #16]
 800319a:   2800        cmp r0, #0
 800319c:   d103        bne.n   80031a6 <HAL_UART_Receive_IT+0x32>
 800319e:   3c1f        subs    r4, #31
 80031a0:   0020        movs    r0, r4
 80031a2:   4221        tst r1, r4
 80031a4:   d126        bne.n   80031f4 <HAL_UART_Receive_IT+0x80>
 80031a6:   001c        movs    r4, r3
 80031a8:   3468        adds    r4, #104    ; 0x68
 80031aa:   7827        ldrb    r7, [r4, #0]
 80031ac:   2002        movs    r0, #2
 80031ae:   2f01        cmp r7, #1
 80031b0:   d020        beq.n   80031f4 <HAL_UART_Receive_IT+0x80>
 80031b2:   3801        subs    r0, #1
 80031b4:   7020        strb    r0, [r4, #0]
 80031b6:   6559        str r1, [r3, #84]   ; 0x54
 80031b8:   0019        movs    r1, r3
 80031ba:   3158        adds    r1, #88 ; 0x58
 80031bc:   800a        strh    r2, [r1, #0]
 80031be:   804a        strh    r2, [r1, #2]
 80031c0:   2280        movs    r2, #128    ; 0x80
 80031c2:   0152        lsls    r2, r2, #5
 80031c4:   4295        cmp r5, r2
 80031c6:   d118        bne.n   80031fa <HAL_UART_Receive_IT+0x86>
 80031c8:   691a        ldr r2, [r3, #16]
 80031ca:   2a00        cmp r2, #0
 80031cc:   d113        bne.n   80031f6 <HAL_UART_Receive_IT+0x82>
 80031ce:   490e        ldr r1, [pc, #56]   ; (8003208 <HAL_UART_Receive_IT+0x94>)
 80031d0:   001a        movs    r2, r3
 80031d2:   325c        adds    r2, #92 ; 0x5c
 80031d4:   8011        strh    r1, [r2, #0]
 80031d6:   2000        movs    r0, #0
 80031d8:   2222        movs    r2, #34 ; 0x22
 80031da:   66d8        str r0, [r3, #108]  ; 0x6c
 80031dc:   681b        ldr r3, [r3, #0]
 80031de:   7032        strb    r2, [r6, #0]
 80031e0:   6899        ldr r1, [r3, #8]
 80031e2:   3a21        subs    r2, #33 ; 0x21
 80031e4:   430a        orrs    r2, r1
 80031e6:   7020        strb    r0, [r4, #0]
 80031e8:   609a        str r2, [r3, #8]
 80031ea:   2290        movs    r2, #144    ; 0x90
 80031ec:   6819        ldr r1, [r3, #0]
 80031ee:   0052        lsls    r2, r2, #1
 80031f0:   430a        orrs    r2, r1
 80031f2:   601a        str r2, [r3, #0]
 80031f4:   bdf0        pop {r4, r5, r6, r7, pc}
 80031f6:   21ff        movs    r1, #255    ; 0xff
 80031f8:   e7ea        b.n 80031d0 <HAL_UART_Receive_IT+0x5c>
 80031fa:   2d00        cmp r5, #0
 80031fc:   d1eb        bne.n   80031d6 <HAL_UART_Receive_IT+0x62>
 80031fe:   691a        ldr r2, [r3, #16]
 8003200:   2a00        cmp r2, #0
 8003202:   d0f8        beq.n   80031f6 <HAL_UART_Receive_IT+0x82>
 8003204:   217f        movs    r1, #127    ; 0x7f
 8003206:   e7e3        b.n 80031d0 <HAL_UART_Receive_IT+0x5c>
 8003208:   000001ff    .word   0x000001ff

0800320c <UART_DMAAbortOnError>:
 800320c:   6a40        ldr r0, [r0, #36]   ; 0x24
 800320e:   2300        movs    r3, #0
 8003210:   0002        movs    r2, r0
 8003212:   b510        push    {r4, lr}
 8003214:   325a        adds    r2, #90 ; 0x5a
 8003216:   8013        strh    r3, [r2, #0]
 8003218:   3a08        subs    r2, #8
 800321a:   8013        strh    r3, [r2, #0]
 800321c:   f000 ffaa   bl  8004174 <HAL_UART_ErrorCallback>
 8003220:   bd10        pop {r4, pc}

08003222 <HAL_UART_GetState>:
 8003222:   0003        movs    r3, r0
 8003224:   306a        adds    r0, #106    ; 0x6a
 8003226:   3369        adds    r3, #105    ; 0x69
 8003228:   781b        ldrb    r3, [r3, #0]
 800322a:   7800        ldrb    r0, [r0, #0]
 800322c:   4318        orrs    r0, r3
 800322e:   4770        bx  lr

08003230 <UART_SetConfig>:
 8003230:   b570        push    {r4, r5, r6, lr}
 8003232:   0004        movs    r4, r0
 8003234:   6925        ldr r5, [r4, #16]
 8003236:   68a3        ldr r3, [r4, #8]
 8003238:   6802        ldr r2, [r0, #0]
 800323a:   432b        orrs    r3, r5
 800323c:   6965        ldr r5, [r4, #20]
 800323e:   69c1        ldr r1, [r0, #28]
 8003240:   432b        orrs    r3, r5
 8003242:   6810        ldr r0, [r2, #0]
 8003244:   4d3d        ldr r5, [pc, #244]  ; (800333c <UART_SetConfig+0x10c>)
 8003246:   430b        orrs    r3, r1
 8003248:   4028        ands    r0, r5
 800324a:   4303        orrs    r3, r0
 800324c:   6013        str r3, [r2, #0]
 800324e:   6853        ldr r3, [r2, #4]
 8003250:   483b        ldr r0, [pc, #236]  ; (8003340 <UART_SetConfig+0x110>)
 8003252:   6a25        ldr r5, [r4, #32]
 8003254:   4003        ands    r3, r0
 8003256:   68e0        ldr r0, [r4, #12]
 8003258:   4303        orrs    r3, r0
 800325a:   6053        str r3, [r2, #4]
 800325c:   69a3        ldr r3, [r4, #24]
 800325e:   6890        ldr r0, [r2, #8]
 8003260:   432b        orrs    r3, r5
 8003262:   4d38        ldr r5, [pc, #224]  ; (8003344 <UART_SetConfig+0x114>)
 8003264:   4028        ands    r0, r5
 8003266:   4303        orrs    r3, r0
 8003268:   6093        str r3, [r2, #8]
 800326a:   2380        movs    r3, #128    ; 0x80
 800326c:   4d36        ldr r5, [pc, #216]  ; (8003348 <UART_SetConfig+0x118>)
 800326e:   021b        lsls    r3, r3, #8
 8003270:   42aa        cmp r2, r5
 8003272:   d110        bne.n   8003296 <UART_SetConfig+0x66>
 8003274:   2003        movs    r0, #3
 8003276:   4a35        ldr r2, [pc, #212]  ; (800334c <UART_SetConfig+0x11c>)
 8003278:   6b12        ldr r2, [r2, #48]   ; 0x30
 800327a:   4002        ands    r2, r0
 800327c:   4834        ldr r0, [pc, #208]  ; (8003350 <UART_SetConfig+0x120>)
 800327e:   5c80        ldrb    r0, [r0, r2]
 8003280:   4299        cmp r1, r3
 8003282:   d019        beq.n   80032b8 <UART_SetConfig+0x88>
 8003284:   2808        cmp r0, #8
 8003286:   d857        bhi.n   8003338 <UART_SetConfig+0x108>
 8003288:   f7fc ff2c   bl  80000e4 <__gnu_thumb1_case_uqi>
 800328c:   5643560a    .word   0x5643560a
 8003290:   5656564c    .word   0x5656564c
 8003294:   4f              .byte   0x4f
 8003295:   00              .byte   0x00
 8003296:   482f        ldr r0, [pc, #188]  ; (8003354 <UART_SetConfig+0x124>)
 8003298:   4282        cmp r2, r0
 800329a:   d14b        bne.n   8003334 <UART_SetConfig+0x104>
 800329c:   4299        cmp r1, r3
 800329e:   d014        beq.n   80032ca <UART_SetConfig+0x9a>
 80032a0:   f7ff fa46   bl  8002730 <HAL_RCC_GetPCLK1Freq>
 80032a4:   6861        ldr r1, [r4, #4]
 80032a6:   6824        ldr r4, [r4, #0]
 80032a8:   084b        lsrs    r3, r1, #1
 80032aa:   1818        adds    r0, r3, r0
 80032ac:   f7fc ff24   bl  80000f8 <__udivsi3>
 80032b0:   b280        uxth    r0, r0
 80032b2:   60e0        str r0, [r4, #12]
 80032b4:   2000        movs    r0, #0
 80032b6:   e020        b.n 80032fa <UART_SetConfig+0xca>
 80032b8:   2808        cmp r0, #8
 80032ba:   d827        bhi.n   800330c <UART_SetConfig+0xdc>
 80032bc:   f7fc ff12   bl  80000e4 <__gnu_thumb1_case_uqi>
 80032c0:   260b2605    .word   0x260b2605
 80032c4:   2626261e    .word   0x2626261e
 80032c8:   21              .byte   0x21
 80032c9:   00              .byte   0x00
 80032ca:   f7ff fa31   bl  8002730 <HAL_RCC_GetPCLK1Freq>
 80032ce:   6863        ldr r3, [r4, #4]
 80032d0:   0040        lsls    r0, r0, #1
 80032d2:   085b        lsrs    r3, r3, #1
 80032d4:   e002        b.n 80032dc <UART_SetConfig+0xac>
 80032d6:   6863        ldr r3, [r4, #4]
 80032d8:   0858        lsrs    r0, r3, #1
 80032da:   4b1f        ldr r3, [pc, #124]  ; (8003358 <UART_SetConfig+0x128>)
 80032dc:   18c0        adds    r0, r0, r3
 80032de:   6861        ldr r1, [r4, #4]
 80032e0:   f7fc ff0a   bl  80000f8 <__udivsi3>
 80032e4:   b283        uxth    r3, r0
 80032e6:   2000        movs    r0, #0
 80032e8:   220f        movs    r2, #15
 80032ea:   0019        movs    r1, r3
 80032ec:   4391        bics    r1, r2
 80032ee:   000a        movs    r2, r1
 80032f0:   071b        lsls    r3, r3, #28
 80032f2:   6821        ldr r1, [r4, #0]
 80032f4:   0f5b        lsrs    r3, r3, #29
 80032f6:   4313        orrs    r3, r2
 80032f8:   60cb        str r3, [r1, #12]
 80032fa:   bd70        pop {r4, r5, r6, pc}
 80032fc:   f7ff f948   bl  8002590 <HAL_RCC_GetSysClockFreq>
 8003300:   e7e5        b.n 80032ce <UART_SetConfig+0x9e>
 8003302:   6863        ldr r3, [r4, #4]
 8003304:   0858        lsrs    r0, r3, #1
 8003306:   2380        movs    r3, #128    ; 0x80
 8003308:   025b        lsls    r3, r3, #9
 800330a:   e7e7        b.n 80032dc <UART_SetConfig+0xac>
 800330c:   2001        movs    r0, #1
 800330e:   2300        movs    r3, #0
 8003310:   e7ea        b.n 80032e8 <UART_SetConfig+0xb8>
 8003312:   6861        ldr r1, [r4, #4]
 8003314:   4b11        ldr r3, [pc, #68]   ; (800335c <UART_SetConfig+0x12c>)
 8003316:   0848        lsrs    r0, r1, #1
 8003318:   18c0        adds    r0, r0, r3
 800331a:   f7fc feed   bl  80000f8 <__udivsi3>
 800331e:   b280        uxth    r0, r0
 8003320:   60e8        str r0, [r5, #12]
 8003322:   e7c7        b.n 80032b4 <UART_SetConfig+0x84>
 8003324:   f7ff f934   bl  8002590 <HAL_RCC_GetSysClockFreq>
 8003328:   e7bc        b.n 80032a4 <UART_SetConfig+0x74>
 800332a:   2380        movs    r3, #128    ; 0x80
 800332c:   6861        ldr r1, [r4, #4]
 800332e:   021b        lsls    r3, r3, #8
 8003330:   0848        lsrs    r0, r1, #1
 8003332:   e7f1        b.n 8003318 <UART_SetConfig+0xe8>
 8003334:   4299        cmp r1, r3
 8003336:   d0e9        beq.n   800330c <UART_SetConfig+0xdc>
 8003338:   2001        movs    r0, #1
 800333a:   e7de        b.n 80032fa <UART_SetConfig+0xca>
 800333c:   ffff69f3    .word   0xffff69f3
 8003340:   ffffcfff    .word   0xffffcfff
 8003344:   fffff4ff    .word   0xfffff4ff
 8003348:   40013800    .word   0x40013800
 800334c:   40021000    .word   0x40021000
 8003350:   08004b9c    .word   0x08004b9c
 8003354:   40004400    .word   0x40004400
 8003358:   00f42400    .word   0x00f42400
 800335c:   007a1200    .word   0x007a1200

08003360 <UART_AdvFeatureConfig>:
 8003360:   6a43        ldr r3, [r0, #36]   ; 0x24
 8003362:   b530        push    {r4, r5, lr}
 8003364:   07da        lsls    r2, r3, #31
 8003366:   d506        bpl.n   8003376 <UART_AdvFeatureConfig+0x16>
 8003368:   6801        ldr r1, [r0, #0]
 800336a:   4c28        ldr r4, [pc, #160]  ; (800340c <UART_AdvFeatureConfig+0xac>)
 800336c:   684a        ldr r2, [r1, #4]
 800336e:   4022        ands    r2, r4
 8003370:   6a84        ldr r4, [r0, #40]   ; 0x28
 8003372:   4322        orrs    r2, r4
 8003374:   604a        str r2, [r1, #4]
 8003376:   079a        lsls    r2, r3, #30
 8003378:   d506        bpl.n   8003388 <UART_AdvFeatureConfig+0x28>
 800337a:   6801        ldr r1, [r0, #0]
 800337c:   4c24        ldr r4, [pc, #144]  ; (8003410 <UART_AdvFeatureConfig+0xb0>)
 800337e:   684a        ldr r2, [r1, #4]
 8003380:   4022        ands    r2, r4
 8003382:   6ac4        ldr r4, [r0, #44]   ; 0x2c
 8003384:   4322        orrs    r2, r4
 8003386:   604a        str r2, [r1, #4]
 8003388:   075a        lsls    r2, r3, #29
 800338a:   d506        bpl.n   800339a <UART_AdvFeatureConfig+0x3a>
 800338c:   6801        ldr r1, [r0, #0]
 800338e:   4c21        ldr r4, [pc, #132]  ; (8003414 <UART_AdvFeatureConfig+0xb4>)
 8003390:   684a        ldr r2, [r1, #4]
 8003392:   4022        ands    r2, r4
 8003394:   6b04        ldr r4, [r0, #48]   ; 0x30
 8003396:   4322        orrs    r2, r4
 8003398:   604a        str r2, [r1, #4]
 800339a:   071a        lsls    r2, r3, #28
 800339c:   d506        bpl.n   80033ac <UART_AdvFeatureConfig+0x4c>
 800339e:   6801        ldr r1, [r0, #0]
 80033a0:   4c1d        ldr r4, [pc, #116]  ; (8003418 <UART_AdvFeatureConfig+0xb8>)
 80033a2:   684a        ldr r2, [r1, #4]
 80033a4:   4022        ands    r2, r4
 80033a6:   6b44        ldr r4, [r0, #52]   ; 0x34
 80033a8:   4322        orrs    r2, r4
 80033aa:   604a        str r2, [r1, #4]
 80033ac:   06da        lsls    r2, r3, #27
 80033ae:   d506        bpl.n   80033be <UART_AdvFeatureConfig+0x5e>
 80033b0:   6801        ldr r1, [r0, #0]
 80033b2:   4c1a        ldr r4, [pc, #104]  ; (800341c <UART_AdvFeatureConfig+0xbc>)
 80033b4:   688a        ldr r2, [r1, #8]
 80033b6:   4022        ands    r2, r4
 80033b8:   6b84        ldr r4, [r0, #56]   ; 0x38
 80033ba:   4322        orrs    r2, r4
 80033bc:   608a        str r2, [r1, #8]
 80033be:   069a        lsls    r2, r3, #26
 80033c0:   d506        bpl.n   80033d0 <UART_AdvFeatureConfig+0x70>
 80033c2:   6801        ldr r1, [r0, #0]
 80033c4:   4c16        ldr r4, [pc, #88]   ; (8003420 <UART_AdvFeatureConfig+0xc0>)
 80033c6:   688a        ldr r2, [r1, #8]
 80033c8:   4022        ands    r2, r4
 80033ca:   6bc4        ldr r4, [r0, #60]   ; 0x3c
 80033cc:   4322        orrs    r2, r4
 80033ce:   608a        str r2, [r1, #8]
 80033d0:   065a        lsls    r2, r3, #25
 80033d2:   d510        bpl.n   80033f6 <UART_AdvFeatureConfig+0x96>
 80033d4:   6801        ldr r1, [r0, #0]
 80033d6:   4d13        ldr r5, [pc, #76]   ; (8003424 <UART_AdvFeatureConfig+0xc4>)
 80033d8:   684a        ldr r2, [r1, #4]
 80033da:   6c04        ldr r4, [r0, #64]   ; 0x40
 80033dc:   402a        ands    r2, r5
 80033de:   4322        orrs    r2, r4
 80033e0:   604a        str r2, [r1, #4]
 80033e2:   2280        movs    r2, #128    ; 0x80
 80033e4:   0352        lsls    r2, r2, #13
 80033e6:   4294        cmp r4, r2
 80033e8:   d105        bne.n   80033f6 <UART_AdvFeatureConfig+0x96>
 80033ea:   684a        ldr r2, [r1, #4]
 80033ec:   4c0e        ldr r4, [pc, #56]   ; (8003428 <UART_AdvFeatureConfig+0xc8>)
 80033ee:   4022        ands    r2, r4
 80033f0:   6c44        ldr r4, [r0, #68]   ; 0x44
 80033f2:   4322        orrs    r2, r4
 80033f4:   604a        str r2, [r1, #4]
 80033f6:   061b        lsls    r3, r3, #24
 80033f8:   d506        bpl.n   8003408 <UART_AdvFeatureConfig+0xa8>
 80033fa:   6802        ldr r2, [r0, #0]
 80033fc:   490b        ldr r1, [pc, #44]   ; (800342c <UART_AdvFeatureConfig+0xcc>)
 80033fe:   6853        ldr r3, [r2, #4]
 8003400:   400b        ands    r3, r1
 8003402:   6c81        ldr r1, [r0, #72]   ; 0x48
 8003404:   430b        orrs    r3, r1
 8003406:   6053        str r3, [r2, #4]
 8003408:   bd30        pop {r4, r5, pc}
 800340a:   46c0        nop         ; (mov r8, r8)
 800340c:   fffdffff    .word   0xfffdffff
 8003410:   fffeffff    .word   0xfffeffff
 8003414:   fffbffff    .word   0xfffbffff
 8003418:   ffff7fff    .word   0xffff7fff
 800341c:   ffffefff    .word   0xffffefff
 8003420:   ffffdfff    .word   0xffffdfff
 8003424:   ffefffff    .word   0xffefffff
 8003428:   ff9fffff    .word   0xff9fffff
 800342c:   fff7ffff    .word   0xfff7ffff

08003430 <HAL_UART_Init>:
 8003430:   b570        push    {r4, r5, r6, lr}
 8003432:   1e04        subs    r4, r0, #0
 8003434:   d101        bne.n   800343a <HAL_UART_Init+0xa>
 8003436:   2001        movs    r0, #1
 8003438:   bd70        pop {r4, r5, r6, pc}
 800343a:   0005        movs    r5, r0
 800343c:   3569        adds    r5, #105    ; 0x69
 800343e:   782b        ldrb    r3, [r5, #0]
 8003440:   b2db        uxtb    r3, r3
 8003442:   2b00        cmp r3, #0
 8003444:   d104        bne.n   8003450 <HAL_UART_Init+0x20>
 8003446:   0002        movs    r2, r0
 8003448:   3268        adds    r2, #104    ; 0x68
 800344a:   7013        strb    r3, [r2, #0]
 800344c:   f7ff fe60   bl  8003110 <HAL_UART_MspInit>
 8003450:   2324        movs    r3, #36 ; 0x24
 8003452:   2101        movs    r1, #1
 8003454:   6822        ldr r2, [r4, #0]
 8003456:   702b        strb    r3, [r5, #0]
 8003458:   6813        ldr r3, [r2, #0]
 800345a:   0020        movs    r0, r4
 800345c:   438b        bics    r3, r1
 800345e:   6013        str r3, [r2, #0]
 8003460:   f7ff fee6   bl  8003230 <UART_SetConfig>
 8003464:   2801        cmp r0, #1
 8003466:   d0e6        beq.n   8003436 <HAL_UART_Init+0x6>
 8003468:   6a63        ldr r3, [r4, #36]   ; 0x24
 800346a:   2b00        cmp r3, #0
 800346c:   d002        beq.n   8003474 <HAL_UART_Init+0x44>
 800346e:   0020        movs    r0, r4
 8003470:   f7ff ff76   bl  8003360 <UART_AdvFeatureConfig>
 8003474:   6823        ldr r3, [r4, #0]
 8003476:   490b        ldr r1, [pc, #44]   ; (80034a4 <HAL_UART_Init+0x74>)
 8003478:   685a        ldr r2, [r3, #4]
 800347a:   2000        movs    r0, #0
 800347c:   400a        ands    r2, r1
 800347e:   2108        movs    r1, #8
 8003480:   605a        str r2, [r3, #4]
 8003482:   689a        ldr r2, [r3, #8]
 8003484:   438a        bics    r2, r1
 8003486:   609a        str r2, [r3, #8]
 8003488:   2201        movs    r2, #1
 800348a:   6819        ldr r1, [r3, #0]
 800348c:   430a        orrs    r2, r1
 800348e:   601a        str r2, [r3, #0]
 8003490:   0022        movs    r2, r4
 8003492:   2320        movs    r3, #32
 8003494:   66e0        str r0, [r4, #108]  ; 0x6c
 8003496:   326a        adds    r2, #106    ; 0x6a
 8003498:   3468        adds    r4, #104    ; 0x68
 800349a:   702b        strb    r3, [r5, #0]
 800349c:   7013        strb    r3, [r2, #0]
 800349e:   7020        strb    r0, [r4, #0]
 80034a0:   e7ca        b.n 8003438 <HAL_UART_Init+0x8>
 80034a2:   46c0        nop         ; (mov r8, r8)
 80034a4:   fffff7ff    .word   0xfffff7ff

080034a8 <UART_Transmit_IT>:
 80034a8:   0003        movs    r3, r0
 80034aa:   b530        push    {r4, r5, lr}
 80034ac:   3369        adds    r3, #105    ; 0x69
 80034ae:   781b        ldrb    r3, [r3, #0]
 80034b0:   0002        movs    r2, r0
 80034b2:   2002        movs    r0, #2
 80034b4:   2b21        cmp r3, #33 ; 0x21
 80034b6:   d10f        bne.n   80034d8 <UART_Transmit_IT+0x30>
 80034b8:   0014        movs    r4, r2
 80034ba:   3452        adds    r4, #82 ; 0x52
 80034bc:   8823        ldrh    r3, [r4, #0]
 80034be:   6811        ldr r1, [r2, #0]
 80034c0:   b29b        uxth    r3, r3
 80034c2:   2b00        cmp r3, #0
 80034c4:   d109        bne.n   80034da <UART_Transmit_IT+0x32>
 80034c6:   680a        ldr r2, [r1, #0]
 80034c8:   307e        adds    r0, #126    ; 0x7e
 80034ca:   4382        bics    r2, r0
 80034cc:   600a        str r2, [r1, #0]
 80034ce:   2240        movs    r2, #64 ; 0x40
 80034d0:   6808        ldr r0, [r1, #0]
 80034d2:   4302        orrs    r2, r0
 80034d4:   600a        str r2, [r1, #0]
 80034d6:   2000        movs    r0, #0
 80034d8:   bd30        pop {r4, r5, pc}
 80034da:   2080        movs    r0, #128    ; 0x80
 80034dc:   6895        ldr r5, [r2, #8]
 80034de:   6cd3        ldr r3, [r2, #76]   ; 0x4c
 80034e0:   0140        lsls    r0, r0, #5
 80034e2:   4285        cmp r5, r0
 80034e4:   d10d        bne.n   8003502 <UART_Transmit_IT+0x5a>
 80034e6:   6910        ldr r0, [r2, #16]
 80034e8:   2800        cmp r0, #0
 80034ea:   d10a        bne.n   8003502 <UART_Transmit_IT+0x5a>
 80034ec:   8818        ldrh    r0, [r3, #0]
 80034ee:   3302        adds    r3, #2
 80034f0:   05c0        lsls    r0, r0, #23
 80034f2:   0dc0        lsrs    r0, r0, #23
 80034f4:   8508        strh    r0, [r1, #40]   ; 0x28
 80034f6:   64d3        str r3, [r2, #76]   ; 0x4c
 80034f8:   8823        ldrh    r3, [r4, #0]
 80034fa:   3b01        subs    r3, #1
 80034fc:   b29b        uxth    r3, r3
 80034fe:   8023        strh    r3, [r4, #0]
 8003500:   e7e9        b.n 80034d6 <UART_Transmit_IT+0x2e>
 8003502:   1c58        adds    r0, r3, #1
 8003504:   64d0        str r0, [r2, #76]   ; 0x4c
 8003506:   781b        ldrb    r3, [r3, #0]
 8003508:   850b        strh    r3, [r1, #40]   ; 0x28
 800350a:   e7f5        b.n 80034f8 <UART_Transmit_IT+0x50>

0800350c <UART_EndTransmit_IT>:
 800350c:   2140        movs    r1, #64 ; 0x40
 800350e:   6802        ldr r2, [r0, #0]
 8003510:   b510        push    {r4, lr}
 8003512:   6813        ldr r3, [r2, #0]
 8003514:   438b        bics    r3, r1
 8003516:   6013        str r3, [r2, #0]
 8003518:   0003        movs    r3, r0
 800351a:   2220        movs    r2, #32
 800351c:   3369        adds    r3, #105    ; 0x69
 800351e:   701a        strb    r2, [r3, #0]
 8003520:   f000 fe13   bl  800414a <HAL_UART_TxCpltCallback>
 8003524:   2000        movs    r0, #0
 8003526:   bd10        pop {r4, pc}

08003528 <UART_Receive_IT>:
 8003528:   0002        movs    r2, r0
 800352a:   b570        push    {r4, r5, r6, lr}
 800352c:   326a        adds    r2, #106    ; 0x6a
 800352e:   7811        ldrb    r1, [r2, #0]
 8003530:   6803        ldr r3, [r0, #0]
 8003532:   2922        cmp r1, #34 ; 0x22
 8003534:   d12d        bne.n   8003592 <UART_Receive_IT+0x6a>
 8003536:   0001        movs    r1, r0
 8003538:   2480        movs    r4, #128    ; 0x80
 800353a:   315c        adds    r1, #92 ; 0x5c
 800353c:   880d        ldrh    r5, [r1, #0]
 800353e:   8c99        ldrh    r1, [r3, #36]   ; 0x24
 8003540:   0164        lsls    r4, r4, #5
 8003542:   4029        ands    r1, r5
 8003544:   6885        ldr r5, [r0, #8]
 8003546:   6d43        ldr r3, [r0, #84]   ; 0x54
 8003548:   42a5        cmp r5, r4
 800354a:   d11e        bne.n   800358a <UART_Receive_IT+0x62>
 800354c:   6904        ldr r4, [r0, #16]
 800354e:   2c00        cmp r4, #0
 8003550:   d11b        bne.n   800358a <UART_Receive_IT+0x62>
 8003552:   8019        strh    r1, [r3, #0]
 8003554:   3302        adds    r3, #2
 8003556:   6543        str r3, [r0, #84]   ; 0x54
 8003558:   0001        movs    r1, r0
 800355a:   2400        movs    r4, #0
 800355c:   315a        adds    r1, #90 ; 0x5a
 800355e:   880b        ldrh    r3, [r1, #0]
 8003560:   3b01        subs    r3, #1
 8003562:   b29b        uxth    r3, r3
 8003564:   800b        strh    r3, [r1, #0]
 8003566:   42a3        cmp r3, r4
 8003568:   d10d        bne.n   8003586 <UART_Receive_IT+0x5e>
 800356a:   6803        ldr r3, [r0, #0]
 800356c:   4d0c        ldr r5, [pc, #48]   ; (80035a0 <UART_Receive_IT+0x78>)
 800356e:   6819        ldr r1, [r3, #0]
 8003570:   4029        ands    r1, r5
 8003572:   6019        str r1, [r3, #0]
 8003574:   6899        ldr r1, [r3, #8]
 8003576:   3523        adds    r5, #35 ; 0x23
 8003578:   35ff        adds    r5, #255    ; 0xff
 800357a:   43a9        bics    r1, r5
 800357c:   6099        str r1, [r3, #8]
 800357e:   2320        movs    r3, #32
 8003580:   7013        strb    r3, [r2, #0]
 8003582:   f000 fddb   bl  800413c <HAL_UART_RxCpltCallback>
 8003586:   0020        movs    r0, r4
 8003588:   bd70        pop {r4, r5, r6, pc}
 800358a:   1c5c        adds    r4, r3, #1
 800358c:   6544        str r4, [r0, #84]   ; 0x54
 800358e:   7019        strb    r1, [r3, #0]
 8003590:   e7e2        b.n 8003558 <UART_Receive_IT+0x30>
 8003592:   2208        movs    r2, #8
 8003594:   6999        ldr r1, [r3, #24]
 8003596:   2402        movs    r4, #2
 8003598:   430a        orrs    r2, r1
 800359a:   619a        str r2, [r3, #24]
 800359c:   e7f3        b.n 8003586 <UART_Receive_IT+0x5e>
 800359e:   46c0        nop         ; (mov r8, r8)
 80035a0:   fffffedf    .word   0xfffffedf

080035a4 <HAL_UART_IRQHandler>:
 80035a4:   b570        push    {r4, r5, r6, lr}
 80035a6:   250f        movs    r5, #15
 80035a8:   6801        ldr r1, [r0, #0]
 80035aa:   0004        movs    r4, r0
 80035ac:   69cb        ldr r3, [r1, #28]
 80035ae:   680a        ldr r2, [r1, #0]
 80035b0:   401d        ands    r5, r3
 80035b2:   d108        bne.n   80035c6 <HAL_UART_IRQHandler+0x22>
 80035b4:   2020        movs    r0, #32
 80035b6:   4203        tst r3, r0
 80035b8:   d005        beq.n   80035c6 <HAL_UART_IRQHandler+0x22>
 80035ba:   4202        tst r2, r0
 80035bc:   d003        beq.n   80035c6 <HAL_UART_IRQHandler+0x22>
 80035be:   0020        movs    r0, r4
 80035c0:   f7ff ffb2   bl  8003528 <UART_Receive_IT>
 80035c4:   bd70        pop {r4, r5, r6, pc}
 80035c6:   6888        ldr r0, [r1, #8]
 80035c8:   2d00        cmp r5, #0
 80035ca:   d060        beq.n   800368e <HAL_UART_IRQHandler+0xea>
 80035cc:   2690        movs    r6, #144    ; 0x90
 80035ce:   2501        movs    r5, #1
 80035d0:   0076        lsls    r6, r6, #1
 80035d2:   4028        ands    r0, r5
 80035d4:   4016        ands    r6, r2
 80035d6:   4306        orrs    r6, r0
 80035d8:   d059        beq.n   800368e <HAL_UART_IRQHandler+0xea>
 80035da:   422b        tst r3, r5
 80035dc:   d005        beq.n   80035ea <HAL_UART_IRQHandler+0x46>
 80035de:   05d6        lsls    r6, r2, #23
 80035e0:   d503        bpl.n   80035ea <HAL_UART_IRQHandler+0x46>
 80035e2:   620d        str r5, [r1, #32]
 80035e4:   6ee6        ldr r6, [r4, #108]  ; 0x6c
 80035e6:   4335        orrs    r5, r6
 80035e8:   66e5        str r5, [r4, #108]  ; 0x6c
 80035ea:   2502        movs    r5, #2
 80035ec:   422b        tst r3, r5
 80035ee:   d006        beq.n   80035fe <HAL_UART_IRQHandler+0x5a>
 80035f0:   2800        cmp r0, #0
 80035f2:   d004        beq.n   80035fe <HAL_UART_IRQHandler+0x5a>
 80035f4:   620d        str r5, [r1, #32]
 80035f6:   6ee6        ldr r6, [r4, #108]  ; 0x6c
 80035f8:   196d        adds    r5, r5, r5
 80035fa:   4335        orrs    r5, r6
 80035fc:   66e5        str r5, [r4, #108]  ; 0x6c
 80035fe:   2504        movs    r5, #4
 8003600:   422b        tst r3, r5
 8003602:   d006        beq.n   8003612 <HAL_UART_IRQHandler+0x6e>
 8003604:   2800        cmp r0, #0
 8003606:   d004        beq.n   8003612 <HAL_UART_IRQHandler+0x6e>
 8003608:   620d        str r5, [r1, #32]
 800360a:   6ee6        ldr r6, [r4, #108]  ; 0x6c
 800360c:   3d02        subs    r5, #2
 800360e:   4335        orrs    r5, r6
 8003610:   66e5        str r5, [r4, #108]  ; 0x6c
 8003612:   2508        movs    r5, #8
 8003614:   422b        tst r3, r5
 8003616:   d007        beq.n   8003628 <HAL_UART_IRQHandler+0x84>
 8003618:   2620        movs    r6, #32
 800361a:   4016        ands    r6, r2
 800361c:   4330        orrs    r0, r6
 800361e:   d003        beq.n   8003628 <HAL_UART_IRQHandler+0x84>
 8003620:   620d        str r5, [r1, #32]
 8003622:   6ee1        ldr r1, [r4, #108]  ; 0x6c
 8003624:   430d        orrs    r5, r1
 8003626:   66e5        str r5, [r4, #108]  ; 0x6c
 8003628:   6ee1        ldr r1, [r4, #108]  ; 0x6c
 800362a:   2900        cmp r1, #0
 800362c:   d0ca        beq.n   80035c4 <HAL_UART_IRQHandler+0x20>
 800362e:   2120        movs    r1, #32
 8003630:   420b        tst r3, r1
 8003632:   d004        beq.n   800363e <HAL_UART_IRQHandler+0x9a>
 8003634:   420a        tst r2, r1
 8003636:   d002        beq.n   800363e <HAL_UART_IRQHandler+0x9a>
 8003638:   0020        movs    r0, r4
 800363a:   f7ff ff75   bl  8003528 <UART_Receive_IT>
 800363e:   6ee3        ldr r3, [r4, #108]  ; 0x6c
 8003640:   0020        movs    r0, r4
 8003642:   071b        lsls    r3, r3, #28
 8003644:   d404        bmi.n   8003650 <HAL_UART_IRQHandler+0xac>
 8003646:   6823        ldr r3, [r4, #0]
 8003648:   689d        ldr r5, [r3, #8]
 800364a:   2340        movs    r3, #64 ; 0x40
 800364c:   401d        ands    r5, r3
 800364e:   d01a        beq.n   8003686 <HAL_UART_IRQHandler+0xe2>
 8003650:   f7ff fd4e   bl  80030f0 <UART_EndRxTransfer>
 8003654:   2140        movs    r1, #64 ; 0x40
 8003656:   6823        ldr r3, [r4, #0]
 8003658:   689a        ldr r2, [r3, #8]
 800365a:   420a        tst r2, r1
 800365c:   d00f        beq.n   800367e <HAL_UART_IRQHandler+0xda>
 800365e:   689a        ldr r2, [r3, #8]
 8003660:   6e60        ldr r0, [r4, #100]  ; 0x64
 8003662:   438a        bics    r2, r1
 8003664:   609a        str r2, [r3, #8]
 8003666:   2800        cmp r0, #0
 8003668:   d009        beq.n   800367e <HAL_UART_IRQHandler+0xda>
 800366a:   4b13        ldr r3, [pc, #76]   ; (80036b8 <HAL_UART_IRQHandler+0x114>)
 800366c:   6343        str r3, [r0, #52]   ; 0x34
 800366e:   f7fe f8d8   bl  8001822 <HAL_DMA_Abort_IT>
 8003672:   2800        cmp r0, #0
 8003674:   d0a6        beq.n   80035c4 <HAL_UART_IRQHandler+0x20>
 8003676:   6e60        ldr r0, [r4, #100]  ; 0x64
 8003678:   6b43        ldr r3, [r0, #52]   ; 0x34
 800367a:   4798        blx r3
 800367c:   e7a2        b.n 80035c4 <HAL_UART_IRQHandler+0x20>
 800367e:   0020        movs    r0, r4
 8003680:   f000 fd78   bl  8004174 <HAL_UART_ErrorCallback>
 8003684:   e79e        b.n 80035c4 <HAL_UART_IRQHandler+0x20>
 8003686:   f000 fd75   bl  8004174 <HAL_UART_ErrorCallback>
 800368a:   66e5        str r5, [r4, #108]  ; 0x6c
 800368c:   e79a        b.n 80035c4 <HAL_UART_IRQHandler+0x20>
 800368e:   2180        movs    r1, #128    ; 0x80
 8003690:   420b        tst r3, r1
 8003692:   d005        beq.n   80036a0 <HAL_UART_IRQHandler+0xfc>
 8003694:   420a        tst r2, r1
 8003696:   d003        beq.n   80036a0 <HAL_UART_IRQHandler+0xfc>
 8003698:   0020        movs    r0, r4
 800369a:   f7ff ff05   bl  80034a8 <UART_Transmit_IT>
 800369e:   e791        b.n 80035c4 <HAL_UART_IRQHandler+0x20>
 80036a0:   2140        movs    r1, #64 ; 0x40
 80036a2:   420b        tst r3, r1
 80036a4:   d100        bne.n   80036a8 <HAL_UART_IRQHandler+0x104>
 80036a6:   e78d        b.n 80035c4 <HAL_UART_IRQHandler+0x20>
 80036a8:   420a        tst r2, r1
 80036aa:   d100        bne.n   80036ae <HAL_UART_IRQHandler+0x10a>
 80036ac:   e78a        b.n 80035c4 <HAL_UART_IRQHandler+0x20>
 80036ae:   0020        movs    r0, r4
 80036b0:   f7ff ff2c   bl  800350c <UART_EndTransmit_IT>
 80036b4:   e786        b.n 80035c4 <HAL_UART_IRQHandler+0x20>
 80036b6:   46c0        nop         ; (mov r8, r8)
 80036b8:   0800320d    .word   0x0800320d

080036bc <set_GPIO_Port_Clock>:
 80036bc:   b57f        push    {r0, r1, r2, r3, r4, r5, r6, lr}
 80036be:   2300        movs    r3, #0
 80036c0:   2804        cmp r0, #4
 80036c2:   d810        bhi.n   80036e6 <set_GPIO_Port_Clock+0x2a>
 80036c4:   4b1b        ldr r3, [pc, #108]  ; (8003734 <set_GPIO_Port_Clock+0x78>)
 80036c6:   2180        movs    r1, #128    ; 0x80
 80036c8:   695a        ldr r2, [r3, #20]
 80036ca:   f7fc fd0b   bl  80000e4 <__gnu_thumb1_case_uqi>
 80036ce:   0f03        .short  0x0f03
 80036d0:   2118        .short  0x2118
 80036d2:   2a              .byte   0x2a
 80036d3:   00              .byte   0x00
 80036d4:   0289        lsls    r1, r1, #10
 80036d6:   430a        orrs    r2, r1
 80036d8:   615a        str r2, [r3, #20]
 80036da:   695b        ldr r3, [r3, #20]
 80036dc:   400b        ands    r3, r1
 80036de:   9301        str r3, [sp, #4]
 80036e0:   9b01        ldr r3, [sp, #4]
 80036e2:   2390        movs    r3, #144    ; 0x90
 80036e4:   05db        lsls    r3, r3, #23
 80036e6:   0018        movs    r0, r3
 80036e8:   b007        add sp, #28
 80036ea:   bd00        pop {pc}
 80036ec:   02c9        lsls    r1, r1, #11
 80036ee:   430a        orrs    r2, r1
 80036f0:   615a        str r2, [r3, #20]
 80036f2:   695b        ldr r3, [r3, #20]
 80036f4:   400b        ands    r3, r1
 80036f6:   9302        str r3, [sp, #8]
 80036f8:   9b02        ldr r3, [sp, #8]
 80036fa:   4b0f        ldr r3, [pc, #60]   ; (8003738 <set_GPIO_Port_Clock+0x7c>)
 80036fc:   e7f3        b.n 80036e6 <set_GPIO_Port_Clock+0x2a>
 80036fe:   0309        lsls    r1, r1, #12
 8003700:   430a        orrs    r2, r1
 8003702:   615a        str r2, [r3, #20]
 8003704:   695b        ldr r3, [r3, #20]
 8003706:   400b        ands    r3, r1
 8003708:   9303        str r3, [sp, #12]
 800370a:   9b03        ldr r3, [sp, #12]
 800370c:   4b0b        ldr r3, [pc, #44]   ; (800373c <set_GPIO_Port_Clock+0x80>)
 800370e:   e7ea        b.n 80036e6 <set_GPIO_Port_Clock+0x2a>
 8003710:   0349        lsls    r1, r1, #13
 8003712:   430a        orrs    r2, r1
 8003714:   615a        str r2, [r3, #20]
 8003716:   695b        ldr r3, [r3, #20]
 8003718:   400b        ands    r3, r1
 800371a:   9304        str r3, [sp, #16]
 800371c:   9b04        ldr r3, [sp, #16]
 800371e:   4b08        ldr r3, [pc, #32]   ; (8003740 <set_GPIO_Port_Clock+0x84>)
 8003720:   e7e1        b.n 80036e6 <set_GPIO_Port_Clock+0x2a>
 8003722:   03c9        lsls    r1, r1, #15
 8003724:   430a        orrs    r2, r1
 8003726:   615a        str r2, [r3, #20]
 8003728:   695b        ldr r3, [r3, #20]
 800372a:   400b        ands    r3, r1
 800372c:   9305        str r3, [sp, #20]
 800372e:   9b05        ldr r3, [sp, #20]
 8003730:   4b04        ldr r3, [pc, #16]   ; (8003744 <set_GPIO_Port_Clock+0x88>)
 8003732:   e7d8        b.n 80036e6 <set_GPIO_Port_Clock+0x2a>
 8003734:   40021000    .word   0x40021000
 8003738:   48000400    .word   0x48000400
 800373c:   48000800    .word   0x48000800
 8003740:   48000c00    .word   0x48000c00
 8003744:   48001400    .word   0x48001400

08003748 <get_pwm_channel>:
 8003748:   b510        push    {r4, lr}
 800374a:   4906        ldr r1, [pc, #24]   ; (8003764 <get_pwm_channel+0x1c>)
 800374c:   f000 f9d3   bl  8003af6 <pinmap_function>
 8003750:   0303        lsls    r3, r0, #12
 8003752:   0edb        lsrs    r3, r3, #27
 8003754:   3b02        subs    r3, #2
 8003756:   2000        movs    r0, #0
 8003758:   2b02        cmp r3, #2
 800375a:   d801        bhi.n   8003760 <get_pwm_channel+0x18>
 800375c:   4a02        ldr r2, [pc, #8]    ; (8003768 <get_pwm_channel+0x20>)
 800375e:   5cd0        ldrb    r0, [r2, r3]
 8003760:   bd10        pop {r4, pc}
 8003762:   46c0        nop         ; (mov r8, r8)
 8003764:   080048a0    .word   0x080048a0
 8003768:   08004ba0    .word   0x08004ba0

0800376c <pwm_stop>:
 800376c:   b5f8        push    {r3, r4, r5, r6, r7, lr}
 800376e:   4f14        ldr r7, [pc, #80]   ; (80037c0 <pwm_stop+0x54>)
 8003770:   0006        movs    r6, r0
 8003772:   0039        movs    r1, r7
 8003774:   f000 f994   bl  8003aa0 <pinmap_peripheral>
 8003778:   f7fd fc38   bl  8000fec <_Z15get_timer_indexP11TIM_TypeDef>
 800377c:   4d11        ldr r5, [pc, #68]   ; (80037c4 <pwm_stop+0x58>)
 800377e:   0084        lsls    r4, r0, #2
 8003780:   5963        ldr r3, [r4, r5]
 8003782:   2b00        cmp r3, #0
 8003784:   d10e        bne.n   80037a4 <pwm_stop+0x38>
 8003786:   0039        movs    r1, r7
 8003788:   0030        movs    r0, r6
 800378a:   f000 f989   bl  8003aa0 <pinmap_peripheral>
 800378e:   0007        movs    r7, r0
 8003790:   2086        movs    r0, #134    ; 0x86
 8003792:   0040        lsls    r0, r0, #1
 8003794:   f7fd ff98   bl  80016c8 <_Znwj>
 8003798:   0006        movs    r6, r0
 800379a:   0039        movs    r1, r7
 800379c:   f7fd fc58   bl  8001050 <_ZN13HardwareTimerC1EP11TIM_TypeDef>
 80037a0:   5963        ldr r3, [r4, r5]
 80037a2:   601e        str r6, [r3, #0]
 80037a4:   592b        ldr r3, [r5, r4]
 80037a6:   681c        ldr r4, [r3, #0]
 80037a8:   2c00        cmp r4, #0
 80037aa:   d007        beq.n   80037bc <pwm_stop+0x50>
 80037ac:   0020        movs    r0, r4
 80037ae:   f7fd fc99   bl  80010e4 <_ZN13HardwareTimerD1Ev>
 80037b2:   2186        movs    r1, #134    ; 0x86
 80037b4:   0020        movs    r0, r4
 80037b6:   0049        lsls    r1, r1, #1
 80037b8:   f7fd ff8a   bl  80016d0 <_ZdlPvj>
 80037bc:   bdf8        pop {r3, r4, r5, r6, r7, pc}
 80037be:   46c0        nop         ; (mov r8, r8)
 80037c0:   080048a0    .word   0x080048a0
 80037c4:   20000378    .word   0x20000378

080037c8 <getCurrentMicros>:
 80037c8:   b573        push    {r0, r1, r4, r5, r6, lr}
 80037ca:   4d0e        ldr r5, [pc, #56]   ; (8003804 <getCurrentMicros+0x3c>)
 80037cc:   682b        ldr r3, [r5, #0]
 80037ce:   f7fd ffaf   bl  8001730 <HAL_GetTick>
 80037d2:   686c        ldr r4, [r5, #4]
 80037d4:   68ab        ldr r3, [r5, #8]
 80037d6:   3401        adds    r4, #1
 80037d8:   1ae3        subs    r3, r4, r3
 80037da:   9301        str r3, [sp, #4]
 80037dc:   682b        ldr r3, [r5, #0]
 80037de:   0006        movs    r6, r0
 80037e0:   03db        lsls    r3, r3, #15
 80037e2:   d505        bpl.n   80037f0 <getCurrentMicros+0x28>
 80037e4:   f7fd ffa4   bl  8001730 <HAL_GetTick>
 80037e8:   0006        movs    r6, r0
 80037ea:   68ab        ldr r3, [r5, #8]
 80037ec:   1ae3        subs    r3, r4, r3
 80037ee:   9301        str r3, [sp, #4]
 80037f0:   25fa        movs    r5, #250    ; 0xfa
 80037f2:   9801        ldr r0, [sp, #4]
 80037f4:   00ad        lsls    r5, r5, #2
 80037f6:   4368        muls    r0, r5
 80037f8:   0021        movs    r1, r4
 80037fa:   f7fc fc7d   bl  80000f8 <__udivsi3>
 80037fe:   4375        muls    r5, r6
 8003800:   1940        adds    r0, r0, r5
 8003802:   bd76        pop {r1, r2, r4, r5, r6, pc}
 8003804:   e000e010    .word   0xe000e010

08003808 <getCurrentMillis>:
 8003808:   b510        push    {r4, lr}
 800380a:   f7fd ff91   bl  8001730 <HAL_GetTick>
 800380e:   bd10        pop {r4, pc}

08003810 <noOsSystickHandler>:
 8003810:   4770        bx  lr

08003812 <SysTick_Handler>:
 8003812:   b510        push    {r4, lr}
 8003814:   f7fd ff84   bl  8001720 <HAL_IncTick>
 8003818:   f7fd ffff   bl  800181a <HAL_SYSTICK_IRQHandler>
 800381c:   f7ff fff8   bl  8003810 <noOsSystickHandler>
 8003820:   bd10        pop {r4, pc}

08003822 <hw_config_init>:
 8003822:   b510        push    {r4, lr}
 8003824:   f7fd ff6c   bl  8001700 <HAL_Init>
 8003828:   f7fd f8fc   bl  8000a24 <SystemClock_Config>
 800382c:   bd10        pop {r4, pc}
    ...

08003830 <HAL_GPIO_EXTI_Callback>:
 8003830:   2300        movs    r3, #0
 8003832:   b510        push    {r4, lr}
 8003834:   2801        cmp r0, #1
 8003836:   d003        beq.n   8003840 <HAL_GPIO_EXTI_Callback+0x10>
 8003838:   3301        adds    r3, #1
 800383a:   0840        lsrs    r0, r0, #1
 800383c:   b2db        uxtb    r3, r3
 800383e:   e7f9        b.n 8003834 <HAL_GPIO_EXTI_Callback+0x4>
 8003840:   2214        movs    r2, #20
 8003842:   4353        muls    r3, r2
 8003844:   4a04        ldr r2, [pc, #16]   ; (8003858 <HAL_GPIO_EXTI_Callback+0x28>)
 8003846:   1d18        adds    r0, r3, #4
 8003848:   1880        adds    r0, r0, r2
 800384a:   6881        ldr r1, [r0, #8]
 800384c:   2900        cmp r1, #0
 800384e:   d002        beq.n   8003856 <HAL_GPIO_EXTI_Callback+0x26>
 8003850:   18d2        adds    r2, r2, r3
 8003852:   6913        ldr r3, [r2, #16]
 8003854:   4798        blx r3
 8003856:   bd10        pop {r4, pc}
 8003858:   20000394    .word   0x20000394

0800385c <EXTI0_1_IRQHandler>:
 800385c:   b510        push    {r4, lr}
 800385e:   2001        movs    r0, #1
 8003860:   f7fe f802   bl  8001868 <HAL_GPIO_EXTI_IRQHandler>
 8003864:   2002        movs    r0, #2
 8003866:   f7fd ffff   bl  8001868 <HAL_GPIO_EXTI_IRQHandler>
 800386a:   bd10        pop {r4, pc}

0800386c <EXTI2_3_IRQHandler>:
 800386c:   b510        push    {r4, lr}
 800386e:   2004        movs    r0, #4
 8003870:   f7fd fffa   bl  8001868 <HAL_GPIO_EXTI_IRQHandler>
 8003874:   2008        movs    r0, #8
 8003876:   f7fd fff7   bl  8001868 <HAL_GPIO_EXTI_IRQHandler>
 800387a:   bd10        pop {r4, pc}

0800387c <EXTI4_15_IRQHandler>:
 800387c:   b570        push    {r4, r5, r6, lr}
 800387e:   240c        movs    r4, #12
 8003880:   2510        movs    r5, #16
 8003882:   b2a8        uxth    r0, r5
 8003884:   3c01        subs    r4, #1
 8003886:   f7fd ffef   bl  8001868 <HAL_GPIO_EXTI_IRQHandler>
 800388a:   006d        lsls    r5, r5, #1
 800388c:   2c00        cmp r4, #0
 800388e:   d1f8        bne.n   8003882 <EXTI4_15_IRQHandler+0x6>
 8003890:   bd70        pop {r4, r5, r6, pc}
    ...

08003894 <_GLOBAL__sub_I__Z22stm32_interrupt_enableP12GPIO_TypeDeftSt8functionIFvvEEm>:
 8003894:   4b27        ldr r3, [pc, #156]  ; (8003934 <_GLOBAL__sub_I__Z22stm32_interrupt_enableP12GPIO_TypeDeftSt8functionIFvvEEm+0xa0>)
 8003896:   b510        push    {r4, lr}
 8003898:   2105        movs    r1, #5
 800389a:   001c        movs    r4, r3
 800389c:   0018        movs    r0, r3
 800389e:   2200        movs    r2, #0
 80038a0:   7019        strb    r1, [r3, #0]
 80038a2:   7519        strb    r1, [r3, #20]
 80038a4:   3428        adds    r4, #40 ; 0x28
 80038a6:   3101        adds    r1, #1
 80038a8:   7021        strb    r1, [r4, #0]
 80038aa:   3008        adds    r0, #8
 80038ac:   001c        movs    r4, r3
 80038ae:   67c2        str r2, [r0, #124]  ; 0x7c
 80038b0:   0018        movs    r0, r3
 80038b2:   343c        adds    r4, #60 ; 0x3c
 80038b4:   7021        strb    r1, [r4, #0]
 80038b6:   308c        adds    r0, #140    ; 0x8c
 80038b8:   3101        adds    r1, #1
 80038ba:   7001        strb    r1, [r0, #0]
 80038bc:   0018        movs    r0, r3
 80038be:   3098        adds    r0, #152    ; 0x98
 80038c0:   6002        str r2, [r0, #0]
 80038c2:   0018        movs    r0, r3
 80038c4:   30a0        adds    r0, #160    ; 0xa0
 80038c6:   7001        strb    r1, [r0, #0]
 80038c8:   0018        movs    r0, r3
 80038ca:   30ac        adds    r0, #172    ; 0xac
 80038cc:   6002        str r2, [r0, #0]
 80038ce:   0018        movs    r0, r3
 80038d0:   30b4        adds    r0, #180    ; 0xb4
 80038d2:   7001        strb    r1, [r0, #0]
 80038d4:   0018        movs    r0, r3
 80038d6:   30c0        adds    r0, #192    ; 0xc0
 80038d8:   6002        str r2, [r0, #0]
 80038da:   0018        movs    r0, r3
 80038dc:   30c8        adds    r0, #200    ; 0xc8
 80038de:   7001        strb    r1, [r0, #0]
 80038e0:   001c        movs    r4, r3
 80038e2:   0018        movs    r0, r3
 80038e4:   3450        adds    r4, #80 ; 0x50
 80038e6:   30d4        adds    r0, #212    ; 0xd4
 80038e8:   6002        str r2, [r0, #0]
 80038ea:   7021        strb    r1, [r4, #0]
 80038ec:   0018        movs    r0, r3
 80038ee:   001c        movs    r4, r3
 80038f0:   30dc        adds    r0, #220    ; 0xdc
 80038f2:   3464        adds    r4, #100    ; 0x64
 80038f4:   7001        strb    r1, [r0, #0]
 80038f6:   7021        strb    r1, [r4, #0]
 80038f8:   0018        movs    r0, r3
 80038fa:   001c        movs    r4, r3
 80038fc:   30e8        adds    r0, #232    ; 0xe8
 80038fe:   3478        adds    r4, #120    ; 0x78
 8003900:   6002        str r2, [r0, #0]
 8003902:   7021        strb    r1, [r4, #0]
 8003904:   0018        movs    r0, r3
 8003906:   001c        movs    r4, r3
 8003908:   30f0        adds    r0, #240    ; 0xf0
 800390a:   34ff        adds    r4, #255    ; 0xff
 800390c:   7001        strb    r1, [r0, #0]
 800390e:   7161        strb    r1, [r4, #5]
 8003910:   7661        strb    r1, [r4, #25]
 8003912:   0018        movs    r0, r3
 8003914:   2496        movs    r4, #150    ; 0x96
 8003916:   30fc        adds    r0, #252    ; 0xfc
 8003918:   0064        lsls    r4, r4, #1
 800391a:   60da        str r2, [r3, #12]
 800391c:   621a        str r2, [r3, #32]
 800391e:   635a        str r2, [r3, #52]   ; 0x34
 8003920:   649a        str r2, [r3, #72]   ; 0x48
 8003922:   65da        str r2, [r3, #92]   ; 0x5c
 8003924:   671a        str r2, [r3, #112]  ; 0x70
 8003926:   6002        str r2, [r0, #0]
 8003928:   6142        str r2, [r0, #20]
 800392a:   6282        str r2, [r0, #40]   ; 0x28
 800392c:   5519        strb    r1, [r3, r4]
 800392e:   63c2        str r2, [r0, #60]   ; 0x3c
 8003930:   bd10        pop {r4, pc}
 8003932:   46c0        nop         ; (mov r8, r8)
 8003934:   20000394    .word   0x20000394

08003938 <_GLOBAL__sub_D__Z22stm32_interrupt_enableP12GPIO_TypeDeftSt8functionIFvvEEm>:
 8003938:   b510        push    {r4, lr}
 800393a:   4c04        ldr r4, [pc, #16]   ; (800394c <_GLOBAL__sub_D__Z22stm32_interrupt_enableP12GPIO_TypeDeftSt8functionIFvvEEm+0x14>)
 800393c:   3c14        subs    r4, #20
 800393e:   1d20        adds    r0, r4, #4
 8003940:   f7fd fd9c   bl  800147c <_ZNSt14_Function_baseD1Ev>
 8003944:   4b02        ldr r3, [pc, #8]    ; (8003950 <_GLOBAL__sub_D__Z22stm32_interrupt_enableP12GPIO_TypeDeftSt8functionIFvvEEm+0x18>)
 8003946:   429c        cmp r4, r3
 8003948:   d1f8        bne.n   800393c <_GLOBAL__sub_D__Z22stm32_interrupt_enableP12GPIO_TypeDeftSt8functionIFvvEEm+0x4>
 800394a:   bd10        pop {r4, pc}
 800394c:   200004d4    .word   0x200004d4
 8003950:   20000394    .word   0x20000394

08003954 <pin_in_pinmap>:
 8003954:   1c43        adds    r3, r0, #1
 8003956:   d104        bne.n   8003962 <pin_in_pinmap+0xe>
 8003958:   2000        movs    r0, #0
 800395a:   4770        bx  lr
 800395c:   4283        cmp r3, r0
 800395e:   d005        beq.n   800396c <pin_in_pinmap+0x18>
 8003960:   310c        adds    r1, #12
 8003962:   2200        movs    r2, #0
 8003964:   5e8b        ldrsh   r3, [r1, r2]
 8003966:   1c5a        adds    r2, r3, #1
 8003968:   d1f8        bne.n   800395c <pin_in_pinmap+0x8>
 800396a:   e7f5        b.n 8003958 <pin_in_pinmap+0x4>
 800396c:   2001        movs    r0, #1
 800396e:   e7f4        b.n 800395a <pin_in_pinmap+0x6>

08003970 <pin_function>:
 8003970:   230f        movs    r3, #15
 8003972:   b5f0        push    {r4, r5, r6, r7, lr}
 8003974:   2507        movs    r5, #7
 8003976:   b282        uxth    r2, r0
 8003978:   b085        sub sp, #20
 800397a:   0904        lsrs    r4, r0, #4
 800397c:   401c        ands    r4, r3
 800397e:   9203        str r2, [sp, #12]
 8003980:   4013        ands    r3, r2
 8003982:   4a34        ldr r2, [pc, #208]  ; (8003a54 <pin_function+0xe4>)
 8003984:   009b        lsls    r3, r3, #2
 8003986:   9102        str r1, [sp, #8]
 8003988:   400d        ands    r5, r1
 800398a:   589f        ldr r7, [r3, r2]
 800398c:   1c43        adds    r3, r0, #1
 800398e:   d103        bne.n   8003998 <pin_function+0x28>
 8003990:   2143        movs    r1, #67 ; 0x43
 8003992:   4831        ldr r0, [pc, #196]  ; (8003a58 <pin_function+0xe8>)
 8003994:   f000 f8ff   bl  8003b96 <_Error_Handler>
 8003998:   003e        movs    r6, r7
 800399a:   0020        movs    r0, r4
 800399c:   f7ff fe8e   bl  80036bc <set_GPIO_Port_Clock>
 80039a0:   2303        movs    r3, #3
 80039a2:   437e        muls    r6, r7
 80039a4:   4373        muls    r3, r6
 80039a6:   43d9        mvns    r1, r3
 80039a8:   6882        ldr r2, [r0, #8]
 80039aa:   0004        movs    r4, r0
 80039ac:   4313        orrs    r3, r2
 80039ae:   9101        str r1, [sp, #4]
 80039b0:   6083        str r3, [r0, #8]
 80039b2:   2d03        cmp r5, #3
 80039b4:   d820        bhi.n   80039f8 <pin_function+0x88>
 80039b6:   0028        movs    r0, r5
 80039b8:   f7fc fb94   bl  80000e4 <__gnu_thumb1_case_uqi>
 80039bc:   12021212    .word   0x12021212
 80039c0:   9b02        ldr r3, [sp, #8]
 80039c2:   0459        lsls    r1, r3, #17
 80039c4:   9b03        ldr r3, [sp, #12]
 80039c6:   0e49        lsrs    r1, r1, #25
 80039c8:   071b        lsls    r3, r3, #28
 80039ca:   d50b        bpl.n   80039e4 <pin_function+0x74>
 80039cc:   200f        movs    r0, #15
 80039ce:   0a3b        lsrs    r3, r7, #8
 80039d0:   435b        muls    r3, r3
 80039d2:   435b        muls    r3, r3
 80039d4:   4358        muls    r0, r3
 80039d6:   434b        muls    r3, r1
 80039d8:   6a62        ldr r2, [r4, #36]   ; 0x24
 80039da:   4382        bics    r2, r0
 80039dc:   4313        orrs    r3, r2
 80039de:   6263        str r3, [r4, #36]   ; 0x24
 80039e0:   002b        movs    r3, r5
 80039e2:   e00e        b.n 8003a02 <pin_function+0x92>
 80039e4:   0032        movs    r2, r6
 80039e6:   200f        movs    r0, #15
 80039e8:   4372        muls    r2, r6
 80039ea:   4350        muls    r0, r2
 80039ec:   4351        muls    r1, r2
 80039ee:   6a23        ldr r3, [r4, #32]
 80039f0:   4383        bics    r3, r0
 80039f2:   430b        orrs    r3, r1
 80039f4:   6223        str r3, [r4, #32]
 80039f6:   e7f3        b.n 80039e0 <pin_function+0x70>
 80039f8:   216a        movs    r1, #106    ; 0x6a
 80039fa:   4817        ldr r0, [pc, #92]   ; (8003a58 <pin_function+0xe8>)
 80039fc:   f000 f8cb   bl  8003b96 <_Error_Handler>
 8003a00:   2300        movs    r3, #0
 8003a02:   4373        muls    r3, r6
 8003a04:   6822        ldr r2, [r4, #0]
 8003a06:   9901        ldr r1, [sp, #4]
 8003a08:   3d01        subs    r5, #1
 8003a0a:   400a        ands    r2, r1
 8003a0c:   4313        orrs    r3, r2
 8003a0e:   6023        str r3, [r4, #0]
 8003a10:   2d01        cmp r5, #1
 8003a12:   d805        bhi.n   8003a20 <pin_function+0xb0>
 8003a14:   9b02        ldr r3, [sp, #8]
 8003a16:   071b        lsls    r3, r3, #28
 8003a18:   d50d        bpl.n   8003a36 <pin_function+0xc6>
 8003a1a:   6863        ldr r3, [r4, #4]
 8003a1c:   433b        orrs    r3, r7
 8003a1e:   6063        str r3, [r4, #4]
 8003a20:   9b02        ldr r3, [sp, #8]
 8003a22:   069b        lsls    r3, r3, #26
 8003a24:   0f9b        lsrs    r3, r3, #30
 8003a26:   2b01        cmp r3, #1
 8003a28:   d008        beq.n   8003a3c <pin_function+0xcc>
 8003a2a:   2b02        cmp r3, #2
 8003a2c:   d00d        beq.n   8003a4a <pin_function+0xda>
 8003a2e:   68e6        ldr r6, [r4, #12]
 8003a30:   9b01        ldr r3, [sp, #4]
 8003a32:   401e        ands    r6, r3
 8003a34:   e006        b.n 8003a44 <pin_function+0xd4>
 8003a36:   6863        ldr r3, [r4, #4]
 8003a38:   43bb        bics    r3, r7
 8003a3a:   e7f0        b.n 8003a1e <pin_function+0xae>
 8003a3c:   68e3        ldr r3, [r4, #12]
 8003a3e:   9a01        ldr r2, [sp, #4]
 8003a40:   4013        ands    r3, r2
 8003a42:   431e        orrs    r6, r3
 8003a44:   60e6        str r6, [r4, #12]
 8003a46:   b005        add sp, #20
 8003a48:   bdf0        pop {r4, r5, r6, r7, pc}
 8003a4a:   68e3        ldr r3, [r4, #12]
 8003a4c:   9a01        ldr r2, [sp, #4]
 8003a4e:   0076        lsls    r6, r6, #1
 8003a50:   4013        ands    r3, r2
 8003a52:   e7f6        b.n 8003a42 <pin_function+0xd2>
 8003a54:   08004bfc    .word   0x08004bfc
 8003a58:   08004ba3    .word   0x08004ba3

08003a5c <pinmap_pinout>:
 8003a5c:   b510        push    {r4, lr}
 8003a5e:   1c43        adds    r3, r0, #1
 8003a60:   d107        bne.n   8003a72 <pinmap_pinout+0x16>
 8003a62:   bd10        pop {r4, pc}
 8003a64:   4283        cmp r3, r0
 8003a66:   d103        bne.n   8003a70 <pinmap_pinout+0x14>
 8003a68:   6889        ldr r1, [r1, #8]
 8003a6a:   f7ff ff81   bl  8003970 <pin_function>
 8003a6e:   e7f8        b.n 8003a62 <pinmap_pinout+0x6>
 8003a70:   310c        adds    r1, #12
 8003a72:   2200        movs    r2, #0
 8003a74:   5e8b        ldrsh   r3, [r1, r2]
 8003a76:   1c5a        adds    r2, r3, #1
 8003a78:   d1f4        bne.n   8003a64 <pinmap_pinout+0x8>
 8003a7a:   2192        movs    r1, #146    ; 0x92
 8003a7c:   4801        ldr r0, [pc, #4]    ; (8003a84 <pinmap_pinout+0x28>)
 8003a7e:   f000 f88a   bl  8003b96 <_Error_Handler>
 8003a82:   e7ee        b.n 8003a62 <pinmap_pinout+0x6>
 8003a84:   08004ba3    .word   0x08004ba3

08003a88 <pinmap_find_peripheral>:
 8003a88:   2200        movs    r2, #0
 8003a8a:   5e8b        ldrsh   r3, [r1, r2]
 8003a8c:   1c5a        adds    r2, r3, #1
 8003a8e:   d101        bne.n   8003a94 <pinmap_find_peripheral+0xc>
 8003a90:   2000        movs    r0, #0
 8003a92:   e002        b.n 8003a9a <pinmap_find_peripheral+0x12>
 8003a94:   4283        cmp r3, r0
 8003a96:   d101        bne.n   8003a9c <pinmap_find_peripheral+0x14>
 8003a98:   6848        ldr r0, [r1, #4]
 8003a9a:   4770        bx  lr
 8003a9c:   310c        adds    r1, #12
 8003a9e:   e7f3        b.n 8003a88 <pinmap_find_peripheral>

08003aa0 <pinmap_peripheral>:
 8003aa0:   b510        push    {r4, lr}
 8003aa2:   2300        movs    r3, #0
 8003aa4:   1c42        adds    r2, r0, #1
 8003aa6:   d002        beq.n   8003aae <pinmap_peripheral+0xe>
 8003aa8:   f7ff ffee   bl  8003a88 <pinmap_find_peripheral>
 8003aac:   0003        movs    r3, r0
 8003aae:   0018        movs    r0, r3
 8003ab0:   bd10        pop {r4, pc}

08003ab2 <pinmap_find_pin>:
 8003ab2:   684b        ldr r3, [r1, #4]
 8003ab4:   2b00        cmp r3, #0
 8003ab6:   d102        bne.n   8003abe <pinmap_find_pin+0xc>
 8003ab8:   2001        movs    r0, #1
 8003aba:   4240        negs    r0, r0
 8003abc:   e003        b.n 8003ac6 <pinmap_find_pin+0x14>
 8003abe:   4283        cmp r3, r0
 8003ac0:   d102        bne.n   8003ac8 <pinmap_find_pin+0x16>
 8003ac2:   2300        movs    r3, #0
 8003ac4:   5ec8        ldrsh   r0, [r1, r3]
 8003ac6:   4770        bx  lr
 8003ac8:   310c        adds    r1, #12
 8003aca:   e7f2        b.n 8003ab2 <pinmap_find_pin>

08003acc <pinmap_pin>:
 8003acc:   b510        push    {r4, lr}
 8003ace:   2800        cmp r0, #0
 8003ad0:   d002        beq.n   8003ad8 <pinmap_pin+0xc>
 8003ad2:   f7ff ffee   bl  8003ab2 <pinmap_find_pin>
 8003ad6:   bd10        pop {r4, pc}
 8003ad8:   2001        movs    r0, #1
 8003ada:   4240        negs    r0, r0
 8003adc:   e7fb        b.n 8003ad6 <pinmap_pin+0xa>

08003ade <pinmap_find_function>:
 8003ade:   2200        movs    r2, #0
 8003ae0:   5e8b        ldrsh   r3, [r1, r2]
 8003ae2:   1c5a        adds    r2, r3, #1
 8003ae4:   d101        bne.n   8003aea <pinmap_find_function+0xc>
 8003ae6:   0018        movs    r0, r3
 8003ae8:   e002        b.n 8003af0 <pinmap_find_function+0x12>
 8003aea:   4283        cmp r3, r0
 8003aec:   d101        bne.n   8003af2 <pinmap_find_function+0x14>
 8003aee:   6888        ldr r0, [r1, #8]
 8003af0:   4770        bx  lr
 8003af2:   310c        adds    r1, #12
 8003af4:   e7f3        b.n 8003ade <pinmap_find_function>

08003af6 <pinmap_function>:
 8003af6:   b510        push    {r4, lr}
 8003af8:   1c42        adds    r2, r0, #1
 8003afa:   d001        beq.n   8003b00 <pinmap_function+0xa>
 8003afc:   f7ff ffef   bl  8003ade <pinmap_find_function>
 8003b00:   bd10        pop {r4, pc}

08003b02 <pinmap_merge_peripheral>:
 8003b02:   4288        cmp r0, r1
 8003b04:   d004        beq.n   8003b10 <pinmap_merge_peripheral+0xe>
 8003b06:   2800        cmp r0, #0
 8003b08:   d002        beq.n   8003b10 <pinmap_merge_peripheral+0xe>
 8003b0a:   2900        cmp r1, #0
 8003b0c:   d102        bne.n   8003b14 <pinmap_merge_peripheral+0x12>
 8003b0e:   0001        movs    r1, r0
 8003b10:   0008        movs    r0, r1
 8003b12:   4770        bx  lr
 8003b14:   2100        movs    r1, #0
 8003b16:   e7fb        b.n 8003b10 <pinmap_merge_peripheral+0xe>

08003b18 <HAL_RTC_AlarmAEventCallback>:
 8003b18:   4b04        ldr r3, [pc, #16]   ; (8003b2c <HAL_RTC_AlarmAEventCallback+0x14>)
 8003b1a:   b510        push    {r4, lr}
 8003b1c:   681b        ldr r3, [r3, #0]
 8003b1e:   2b00        cmp r3, #0
 8003b20:   d002        beq.n   8003b28 <HAL_RTC_AlarmAEventCallback+0x10>
 8003b22:   4a03        ldr r2, [pc, #12]   ; (8003b30 <HAL_RTC_AlarmAEventCallback+0x18>)
 8003b24:   6810        ldr r0, [r2, #0]
 8003b26:   4798        blx r3
 8003b28:   bd10        pop {r4, pc}
 8003b2a:   46c0        nop         ; (mov r8, r8)
 8003b2c:   200004d4    .word   0x200004d4
 8003b30:   200004f8    .word   0x200004f8

08003b34 <RTC_IRQHandler>:
 8003b34:   b510        push    {r4, lr}
 8003b36:   4802        ldr r0, [pc, #8]    ; (8003b40 <RTC_IRQHandler+0xc>)
 8003b38:   f7fe fe26   bl  8002788 <HAL_RTC_AlarmIRQHandler>
 8003b3c:   bd10        pop {r4, pc}
 8003b3e:   46c0        nop         ; (mov r8, r8)
 8003b40:   200004d8    .word   0x200004d8

08003b44 <Reset_Handler>:
 8003b44:   480d        ldr r0, [pc, #52]   ; (8003b7c <LoopForever+0x2>)
 8003b46:   4685        mov sp, r0
 8003b48:   480d        ldr r0, [pc, #52]   ; (8003b80 <LoopForever+0x6>)
 8003b4a:   490e        ldr r1, [pc, #56]   ; (8003b84 <LoopForever+0xa>)
 8003b4c:   4a0e        ldr r2, [pc, #56]   ; (8003b88 <LoopForever+0xe>)
 8003b4e:   2300        movs    r3, #0
 8003b50:   e002        b.n 8003b58 <LoopCopyDataInit>

08003b52 <CopyDataInit>:
 8003b52:   58d4        ldr r4, [r2, r3]
 8003b54:   50c4        str r4, [r0, r3]
 8003b56:   3304        adds    r3, #4

08003b58 <LoopCopyDataInit>:
 8003b58:   18c4        adds    r4, r0, r3
 8003b5a:   428c        cmp r4, r1
 8003b5c:   d3f9        bcc.n   8003b52 <CopyDataInit>
 8003b5e:   4a0b        ldr r2, [pc, #44]   ; (8003b8c <LoopForever+0x12>)
 8003b60:   4c0b        ldr r4, [pc, #44]   ; (8003b90 <LoopForever+0x16>)
 8003b62:   2300        movs    r3, #0
 8003b64:   e001        b.n 8003b6a <LoopFillZerobss>

08003b66 <FillZerobss>:
 8003b66:   6013        str r3, [r2, #0]
 8003b68:   3204        adds    r2, #4

08003b6a <LoopFillZerobss>:
 8003b6a:   42a2        cmp r2, r4
 8003b6c:   d3fb        bcc.n   8003b66 <FillZerobss>
 8003b6e:   f000 f813   bl  8003b98 <SystemInit>
 8003b72:   f000 fc2d   bl  80043d0 <__libc_init_array>
 8003b76:   f7fd fd97   bl  80016a8 <main>

08003b7a <LoopForever>:
 8003b7a:   e7fe        b.n 8003b7a <LoopForever>
 8003b7c:   20002000    .word   0x20002000
 8003b80:   20000000    .word   0x20000000
 8003b84:   20000084    .word   0x20000084
 8003b88:   08004df0    .word   0x08004df0
 8003b8c:   20000084    .word   0x20000084
 8003b90:   2000053c    .word   0x2000053c

08003b94 <ADC1_IRQHandler>:
 8003b94:   e7fe        b.n 8003b94 <ADC1_IRQHandler>

08003b96 <_Error_Handler>:
 8003b96:   e7fe        b.n 8003b96 <_Error_Handler>

08003b98 <SystemInit>:
 8003b98:   2101        movs    r1, #1
 8003b9a:   4b11        ldr r3, [pc, #68]   ; (8003be0 <SystemInit+0x48>)
 8003b9c:   4811        ldr r0, [pc, #68]   ; (8003be4 <SystemInit+0x4c>)
 8003b9e:   681a        ldr r2, [r3, #0]
 8003ba0:   430a        orrs    r2, r1
 8003ba2:   601a        str r2, [r3, #0]
 8003ba4:   685a        ldr r2, [r3, #4]
 8003ba6:   4002        ands    r2, r0
 8003ba8:   605a        str r2, [r3, #4]
 8003baa:   681a        ldr r2, [r3, #0]
 8003bac:   480e        ldr r0, [pc, #56]   ; (8003be8 <SystemInit+0x50>)
 8003bae:   4002        ands    r2, r0
 8003bb0:   601a        str r2, [r3, #0]
 8003bb2:   681a        ldr r2, [r3, #0]
 8003bb4:   480d        ldr r0, [pc, #52]   ; (8003bec <SystemInit+0x54>)
 8003bb6:   4002        ands    r2, r0
 8003bb8:   601a        str r2, [r3, #0]
 8003bba:   685a        ldr r2, [r3, #4]
 8003bbc:   480c        ldr r0, [pc, #48]   ; (8003bf0 <SystemInit+0x58>)
 8003bbe:   4002        ands    r2, r0
 8003bc0:   200f        movs    r0, #15
 8003bc2:   605a        str r2, [r3, #4]
 8003bc4:   6ada        ldr r2, [r3, #44]   ; 0x2c
 8003bc6:   4382        bics    r2, r0
 8003bc8:   62da        str r2, [r3, #44]   ; 0x2c
 8003bca:   6b1a        ldr r2, [r3, #48]   ; 0x30
 8003bcc:   4809        ldr r0, [pc, #36]   ; (8003bf4 <SystemInit+0x5c>)
 8003bce:   4002        ands    r2, r0
 8003bd0:   631a        str r2, [r3, #48]   ; 0x30
 8003bd2:   6b5a        ldr r2, [r3, #52]   ; 0x34
 8003bd4:   438a        bics    r2, r1
 8003bd6:   635a        str r2, [r3, #52]   ; 0x34
 8003bd8:   2200        movs    r2, #0
 8003bda:   609a        str r2, [r3, #8]
 8003bdc:   4770        bx  lr
 8003bde:   46c0        nop         ; (mov r8, r8)
 8003be0:   40021000    .word   0x40021000
 8003be4:   08ffb80c    .word   0x08ffb80c
 8003be8:   fef6ffff    .word   0xfef6ffff
 8003bec:   fffbffff    .word   0xfffbffff
 8003bf0:   ffc0ffff    .word   0xffc0ffff
 8003bf4:   fffffeec    .word   0xfffffeec

08003bf8 <enableTimerClock>:
 8003bf8:   b510        push    {r4, lr}
 8003bfa:   6803        ldr r3, [r0, #0]
 8003bfc:   4a2f        ldr r2, [pc, #188]  ; (8003cbc <enableTimerClock+0xc4>)
 8003bfe:   b088        sub sp, #32
 8003c00:   4293        cmp r3, r2
 8003c02:   d117        bne.n   8003c34 <enableTimerClock+0x3c>
 8003c04:   2480        movs    r4, #128    ; 0x80
 8003c06:   492e        ldr r1, [pc, #184]  ; (8003cc0 <enableTimerClock+0xc8>)
 8003c08:   0124        lsls    r4, r4, #4
 8003c0a:   6988        ldr r0, [r1, #24]
 8003c0c:   4320        orrs    r0, r4
 8003c0e:   6188        str r0, [r1, #24]
 8003c10:   698a        ldr r2, [r1, #24]
 8003c12:   4022        ands    r2, r4
 8003c14:   9201        str r2, [sp, #4]
 8003c16:   9a01        ldr r2, [sp, #4]
 8003c18:   4a2a        ldr r2, [pc, #168]  ; (8003cc4 <enableTimerClock+0xcc>)
 8003c1a:   4293        cmp r3, r2
 8003c1c:   d123        bne.n   8003c66 <enableTimerClock+0x6e>
 8003c1e:   2080        movs    r0, #128    ; 0x80
 8003c20:   4a27        ldr r2, [pc, #156]  ; (8003cc0 <enableTimerClock+0xc8>)
 8003c22:   0280        lsls    r0, r0, #10
 8003c24:   6991        ldr r1, [r2, #24]
 8003c26:   4301        orrs    r1, r0
 8003c28:   6191        str r1, [r2, #24]
 8003c2a:   6993        ldr r3, [r2, #24]
 8003c2c:   4003        ands    r3, r0
 8003c2e:   9306        str r3, [sp, #24]
 8003c30:   9b06        ldr r3, [sp, #24]
 8003c32:   e033        b.n 8003c9c <enableTimerClock+0xa4>
 8003c34:   4a24        ldr r2, [pc, #144]  ; (8003cc8 <enableTimerClock+0xd0>)
 8003c36:   4293        cmp r3, r2
 8003c38:   d109        bne.n   8003c4e <enableTimerClock+0x56>
 8003c3a:   2402        movs    r4, #2
 8003c3c:   4920        ldr r1, [pc, #128]  ; (8003cc0 <enableTimerClock+0xc8>)
 8003c3e:   69c8        ldr r0, [r1, #28]
 8003c40:   4320        orrs    r0, r4
 8003c42:   61c8        str r0, [r1, #28]
 8003c44:   69ca        ldr r2, [r1, #28]
 8003c46:   4022        ands    r2, r4
 8003c48:   9202        str r2, [sp, #8]
 8003c4a:   9a02        ldr r2, [sp, #8]
 8003c4c:   e7e4        b.n 8003c18 <enableTimerClock+0x20>
 8003c4e:   4a1f        ldr r2, [pc, #124]  ; (8003ccc <enableTimerClock+0xd4>)
 8003c50:   4293        cmp r3, r2
 8003c52:   d116        bne.n   8003c82 <enableTimerClock+0x8a>
 8003c54:   2410        movs    r4, #16
 8003c56:   491a        ldr r1, [pc, #104]  ; (8003cc0 <enableTimerClock+0xc8>)
 8003c58:   69c8        ldr r0, [r1, #28]
 8003c5a:   4320        orrs    r0, r4
 8003c5c:   61c8        str r0, [r1, #28]
 8003c5e:   69ca        ldr r2, [r1, #28]
 8003c60:   4022        ands    r2, r4
 8003c62:   9203        str r2, [sp, #12]
 8003c64:   9a03        ldr r2, [sp, #12]
 8003c66:   4a1a        ldr r2, [pc, #104]  ; (8003cd0 <enableTimerClock+0xd8>)
 8003c68:   4293        cmp r3, r2
 8003c6a:   d117        bne.n   8003c9c <enableTimerClock+0xa4>
 8003c6c:   2080        movs    r0, #128    ; 0x80
 8003c6e:   4a14        ldr r2, [pc, #80]   ; (8003cc0 <enableTimerClock+0xc8>)
 8003c70:   02c0        lsls    r0, r0, #11
 8003c72:   6991        ldr r1, [r2, #24]
 8003c74:   4301        orrs    r1, r0
 8003c76:   6191        str r1, [r2, #24]
 8003c78:   6993        ldr r3, [r2, #24]
 8003c7a:   4003        ands    r3, r0
 8003c7c:   9307        str r3, [sp, #28]
 8003c7e:   9b07        ldr r3, [sp, #28]
 8003c80:   e00c        b.n 8003c9c <enableTimerClock+0xa4>
 8003c82:   4a14        ldr r2, [pc, #80]   ; (8003cd4 <enableTimerClock+0xdc>)
 8003c84:   4293        cmp r3, r2
 8003c86:   d10b        bne.n   8003ca0 <enableTimerClock+0xa8>
 8003c88:   2080        movs    r0, #128    ; 0x80
 8003c8a:   4a0d        ldr r2, [pc, #52]   ; (8003cc0 <enableTimerClock+0xc8>)
 8003c8c:   0040        lsls    r0, r0, #1
 8003c8e:   69d1        ldr r1, [r2, #28]
 8003c90:   4301        orrs    r1, r0
 8003c92:   61d1        str r1, [r2, #28]
 8003c94:   69d3        ldr r3, [r2, #28]
 8003c96:   4003        ands    r3, r0
 8003c98:   9304        str r3, [sp, #16]
 8003c9a:   9b04        ldr r3, [sp, #16]
 8003c9c:   b008        add sp, #32
 8003c9e:   bd10        pop {r4, pc}
 8003ca0:   4a0d        ldr r2, [pc, #52]   ; (8003cd8 <enableTimerClock+0xe0>)
 8003ca2:   4293        cmp r3, r2
 8003ca4:   d1b8        bne.n   8003c18 <enableTimerClock+0x20>
 8003ca6:   2080        movs    r0, #128    ; 0x80
 8003ca8:   4a05        ldr r2, [pc, #20]   ; (8003cc0 <enableTimerClock+0xc8>)
 8003caa:   0240        lsls    r0, r0, #9
 8003cac:   6991        ldr r1, [r2, #24]
 8003cae:   4301        orrs    r1, r0
 8003cb0:   6191        str r1, [r2, #24]
 8003cb2:   6993        ldr r3, [r2, #24]
 8003cb4:   4003        ands    r3, r0
 8003cb6:   9305        str r3, [sp, #20]
 8003cb8:   9b05        ldr r3, [sp, #20]
 8003cba:   e7ef        b.n 8003c9c <enableTimerClock+0xa4>
 8003cbc:   40012c00    .word   0x40012c00
 8003cc0:   40021000    .word   0x40021000
 8003cc4:   40014400    .word   0x40014400
 8003cc8:   40000400    .word   0x40000400
 8003ccc:   40001000    .word   0x40001000
 8003cd0:   40014800    .word   0x40014800
 8003cd4:   40002000    .word   0x40002000
 8003cd8:   40014000    .word   0x40014000

08003cdc <getTimerUpIrq>:
 8003cdc:   b510        push    {r4, lr}
 8003cde:   0001        movs    r1, r0
 8003ce0:   1c43        adds    r3, r0, #1
 8003ce2:   d013        beq.n   8003d0c <getTimerUpIrq+0x30>
 8003ce4:   4b10        ldr r3, [pc, #64]   ; (8003d28 <getTimerUpIrq+0x4c>)
 8003ce6:   200d        movs    r0, #13
 8003ce8:   4299        cmp r1, r3
 8003cea:   d011        beq.n   8003d10 <getTimerUpIrq+0x34>
 8003cec:   d811        bhi.n   8003d12 <getTimerUpIrq+0x36>
 8003cee:   4b0f        ldr r3, [pc, #60]   ; (8003d2c <getTimerUpIrq+0x50>)
 8003cf0:   3004        adds    r0, #4
 8003cf2:   4299        cmp r1, r3
 8003cf4:   d00c        beq.n   8003d10 <getTimerUpIrq+0x34>
 8003cf6:   4b0e        ldr r3, [pc, #56]   ; (8003d30 <getTimerUpIrq+0x54>)
 8003cf8:   3002        adds    r0, #2
 8003cfa:   4299        cmp r1, r3
 8003cfc:   d008        beq.n   8003d10 <getTimerUpIrq+0x34>
 8003cfe:   4b0d        ldr r3, [pc, #52]   ; (8003d34 <getTimerUpIrq+0x58>)
 8003d00:   3803        subs    r0, #3
 8003d02:   4299        cmp r1, r3
 8003d04:   d004        beq.n   8003d10 <getTimerUpIrq+0x34>
 8003d06:   480c        ldr r0, [pc, #48]   ; (8003d38 <getTimerUpIrq+0x5c>)
 8003d08:   f7ff ff45   bl  8003b96 <_Error_Handler>
 8003d0c:   200e        movs    r0, #14
 8003d0e:   4240        negs    r0, r0
 8003d10:   bd10        pop {r4, pc}
 8003d12:   4b0a        ldr r3, [pc, #40]   ; (8003d3c <getTimerUpIrq+0x60>)
 8003d14:   2015        movs    r0, #21
 8003d16:   4299        cmp r1, r3
 8003d18:   d0fa        beq.n   8003d10 <getTimerUpIrq+0x34>
 8003d1a:   4b09        ldr r3, [pc, #36]   ; (8003d40 <getTimerUpIrq+0x64>)
 8003d1c:   3001        adds    r0, #1
 8003d1e:   4299        cmp r1, r3
 8003d20:   d0f6        beq.n   8003d10 <getTimerUpIrq+0x34>
 8003d22:   4b08        ldr r3, [pc, #32]   ; (8003d44 <getTimerUpIrq+0x68>)
 8003d24:   3802        subs    r0, #2
 8003d26:   e7ec        b.n 8003d02 <getTimerUpIrq+0x26>
 8003d28:   40012c00    .word   0x40012c00
 8003d2c:   40001000    .word   0x40001000
 8003d30:   40002000    .word   0x40002000
 8003d34:   40000400    .word   0x40000400
 8003d38:   08004c54    .word   0x08004c54
 8003d3c:   40014400    .word   0x40014400
 8003d40:   40014800    .word   0x40014800
 8003d44:   40014000    .word   0x40014000

08003d48 <getTimerCCIrq>:
 8003d48:   b510        push    {r4, lr}
 8003d4a:   0001        movs    r1, r0
 8003d4c:   1c43        adds    r3, r0, #1
 8003d4e:   d013        beq.n   8003d78 <getTimerCCIrq+0x30>
 8003d50:   4b10        ldr r3, [pc, #64]   ; (8003d94 <getTimerCCIrq+0x4c>)
 8003d52:   200e        movs    r0, #14
 8003d54:   4299        cmp r1, r3
 8003d56:   d011        beq.n   8003d7c <getTimerCCIrq+0x34>
 8003d58:   d811        bhi.n   8003d7e <getTimerCCIrq+0x36>
 8003d5a:   4b0f        ldr r3, [pc, #60]   ; (8003d98 <getTimerCCIrq+0x50>)
 8003d5c:   3003        adds    r0, #3
 8003d5e:   4299        cmp r1, r3
 8003d60:   d00c        beq.n   8003d7c <getTimerCCIrq+0x34>
 8003d62:   4b0e        ldr r3, [pc, #56]   ; (8003d9c <getTimerCCIrq+0x54>)
 8003d64:   3002        adds    r0, #2
 8003d66:   4299        cmp r1, r3
 8003d68:   d008        beq.n   8003d7c <getTimerCCIrq+0x34>
 8003d6a:   4b0d        ldr r3, [pc, #52]   ; (8003da0 <getTimerCCIrq+0x58>)
 8003d6c:   3803        subs    r0, #3
 8003d6e:   4299        cmp r1, r3
 8003d70:   d004        beq.n   8003d7c <getTimerCCIrq+0x34>
 8003d72:   480c        ldr r0, [pc, #48]   ; (8003da4 <getTimerCCIrq+0x5c>)
 8003d74:   f7ff ff0f   bl  8003b96 <_Error_Handler>
 8003d78:   200e        movs    r0, #14
 8003d7a:   4240        negs    r0, r0
 8003d7c:   bd10        pop {r4, pc}
 8003d7e:   4b0a        ldr r3, [pc, #40]   ; (8003da8 <getTimerCCIrq+0x60>)
 8003d80:   2015        movs    r0, #21
 8003d82:   4299        cmp r1, r3
 8003d84:   d0fa        beq.n   8003d7c <getTimerCCIrq+0x34>
 8003d86:   4b09        ldr r3, [pc, #36]   ; (8003dac <getTimerCCIrq+0x64>)
 8003d88:   3001        adds    r0, #1
 8003d8a:   4299        cmp r1, r3
 8003d8c:   d0f6        beq.n   8003d7c <getTimerCCIrq+0x34>
 8003d8e:   4b08        ldr r3, [pc, #32]   ; (8003db0 <getTimerCCIrq+0x68>)
 8003d90:   3802        subs    r0, #2
 8003d92:   e7ec        b.n 8003d6e <getTimerCCIrq+0x26>
 8003d94:   40012c00    .word   0x40012c00
 8003d98:   40001000    .word   0x40001000
 8003d9c:   40002000    .word   0x40002000
 8003da0:   40000400    .word   0x40000400
 8003da4:   08004c54    .word   0x08004c54
 8003da8:   40014400    .word   0x40014400
 8003dac:   40014800    .word   0x40014800
 8003db0:   40014000    .word   0x40014000

08003db4 <HAL_TIM_Base_MspInit>:
 8003db4:   b570        push    {r4, r5, r6, lr}
 8003db6:   0004        movs    r4, r0
 8003db8:   f7ff ff1e   bl  8003bf8 <enableTimerClock>
 8003dbc:   6820        ldr r0, [r4, #0]
 8003dbe:   f7ff ff8d   bl  8003cdc <getTimerUpIrq>
 8003dc2:   2200        movs    r2, #0
 8003dc4:   2103        movs    r1, #3
 8003dc6:   f7fd fcb9   bl  800173c <HAL_NVIC_SetPriority>
 8003dca:   6820        ldr r0, [r4, #0]
 8003dcc:   f7ff ff86   bl  8003cdc <getTimerUpIrq>
 8003dd0:   f7fd fcde   bl  8001790 <HAL_NVIC_EnableIRQ>
 8003dd4:   6820        ldr r0, [r4, #0]
 8003dd6:   f7ff ffb7   bl  8003d48 <getTimerCCIrq>
 8003dda:   0005        movs    r5, r0
 8003ddc:   6820        ldr r0, [r4, #0]
 8003dde:   f7ff ff7d   bl  8003cdc <getTimerUpIrq>
 8003de2:   4285        cmp r5, r0
 8003de4:   d00b        beq.n   8003dfe <HAL_TIM_Base_MspInit+0x4a>
 8003de6:   6820        ldr r0, [r4, #0]
 8003de8:   f7ff ffae   bl  8003d48 <getTimerCCIrq>
 8003dec:   2200        movs    r2, #0
 8003dee:   2103        movs    r1, #3
 8003df0:   f7fd fca4   bl  800173c <HAL_NVIC_SetPriority>
 8003df4:   6820        ldr r0, [r4, #0]
 8003df6:   f7ff ffa7   bl  8003d48 <getTimerCCIrq>
 8003dfa:   f7fd fcc9   bl  8001790 <HAL_NVIC_EnableIRQ>
 8003dfe:   bd70        pop {r4, r5, r6, pc}

08003e00 <getTimerClkSrc>:
 8003e00:   3001        adds    r0, #1
 8003e02:   1e43        subs    r3, r0, #1
 8003e04:   4198        sbcs    r0, r3
 8003e06:   b2c0        uxtb    r0, r0
 8003e08:   4770        bx  lr

08003e0a <HAL_I2C_AddrCallback>:
 8003e0a:   6883        ldr r3, [r0, #8]
 8003e0c:   b510        push    {r4, lr}
 8003e0e:   0004        movs    r4, r0
 8003e10:   429a        cmp r2, r3
 8003e12:   d113        bne.n   8003e3c <HAL_I2C_AddrCallback+0x32>
 8003e14:   1f03        subs    r3, r0, #4
 8003e16:   2200        movs    r2, #0
 8003e18:   3081        adds    r0, #129    ; 0x81
 8003e1a:   2901        cmp r1, #1
 8003e1c:   d10f        bne.n   8003e3e <HAL_I2C_AddrCallback+0x34>
 8003e1e:   7002        strb    r2, [r0, #0]
 8003e20:   6e1b        ldr r3, [r3, #96]   ; 0x60
 8003e22:   4293        cmp r3, r2
 8003e24:   d000        beq.n   8003e28 <HAL_I2C_AddrCallback+0x1e>
 8003e26:   4798        blx r3
 8003e28:   0023        movs    r3, r4
 8003e2a:   3380        adds    r3, #128    ; 0x80
 8003e2c:   781a        ldrb    r2, [r3, #0]
 8003e2e:   0021        movs    r1, r4
 8003e30:   2380        movs    r3, #128    ; 0x80
 8003e32:   3160        adds    r1, #96 ; 0x60
 8003e34:   049b        lsls    r3, r3, #18
 8003e36:   0020        movs    r0, r4
 8003e38:   f7fd fd9c   bl  8001974 <HAL_I2C_Slave_Sequential_Transmit_IT>
 8003e3c:   bd10        pop {r4, pc}
 8003e3e:   659a        str r2, [r3, #88]   ; 0x58
 8003e40:   2201        movs    r2, #1
 8003e42:   7002        strb    r2, [r0, #0]
 8003e44:   6d99        ldr r1, [r3, #88]   ; 0x58
 8003e46:   0020        movs    r0, r4
 8003e48:   3164        adds    r1, #100    ; 0x64
 8003e4a:   1859        adds    r1, r3, r1
 8003e4c:   2380        movs    r3, #128    ; 0x80
 8003e4e:   045b        lsls    r3, r3, #17
 8003e50:   f7fd fdde   bl  8001a10 <HAL_I2C_Slave_Sequential_Receive_IT>
 8003e54:   e7f2        b.n 8003e3c <HAL_I2C_AddrCallback+0x32>

08003e56 <HAL_I2C_ListenCpltCallback>:
 8003e56:   b570        push    {r4, r5, r6, lr}
 8003e58:   0006        movs    r6, r0
 8003e5a:   1f05        subs    r5, r0, #4
 8003e5c:   6deb        ldr r3, [r5, #92]   ; 0x5c
 8003e5e:   0004        movs    r4, r0
 8003e60:   3681        adds    r6, #129    ; 0x81
 8003e62:   2b00        cmp r3, #0
 8003e64:   d008        beq.n   8003e78 <HAL_I2C_ListenCpltCallback+0x22>
 8003e66:   7832        ldrb    r2, [r6, #0]
 8003e68:   2a01        cmp r2, #1
 8003e6a:   d105        bne.n   8003e78 <HAL_I2C_ListenCpltCallback+0x22>
 8003e6c:   6daa        ldr r2, [r5, #88]   ; 0x58
 8003e6e:   2a00        cmp r2, #0
 8003e70:   d002        beq.n   8003e78 <HAL_I2C_ListenCpltCallback+0x22>
 8003e72:   6da9        ldr r1, [r5, #88]   ; 0x58
 8003e74:   3060        adds    r0, #96 ; 0x60
 8003e76:   4798        blx r3
 8003e78:   2302        movs    r3, #2
 8003e7a:   7033        strb    r3, [r6, #0]
 8003e7c:   2300        movs    r3, #0
 8003e7e:   0020        movs    r0, r4
 8003e80:   65ab        str r3, [r5, #88]   ; 0x58
 8003e82:   f7fd fe13   bl  8001aac <HAL_I2C_EnableListen_IT>
 8003e86:   bd70        pop {r4, r5, r6, pc}

08003e88 <HAL_I2C_SlaveRxCpltCallback>:
 8003e88:   1f01        subs    r1, r0, #4
 8003e8a:   6d8b        ldr r3, [r1, #88]   ; 0x58
 8003e8c:   b510        push    {r4, lr}
 8003e8e:   2b1f        cmp r3, #31
 8003e90:   dc02        bgt.n   8003e98 <HAL_I2C_SlaveRxCpltCallback+0x10>
 8003e92:   6d8b        ldr r3, [r1, #88]   ; 0x58
 8003e94:   3301        adds    r3, #1
 8003e96:   658b        str r3, [r1, #88]   ; 0x58
 8003e98:   0003        movs    r3, r0
 8003e9a:   3381        adds    r3, #129    ; 0x81
 8003e9c:   781a        ldrb    r2, [r3, #0]
 8003e9e:   b2d2        uxtb    r2, r2
 8003ea0:   2a01        cmp r2, #1
 8003ea2:   d106        bne.n   8003eb2 <HAL_I2C_SlaveRxCpltCallback+0x2a>
 8003ea4:   6d8b        ldr r3, [r1, #88]   ; 0x58
 8003ea6:   3364        adds    r3, #100    ; 0x64
 8003ea8:   18c9        adds    r1, r1, r3
 8003eaa:   2380        movs    r3, #128    ; 0x80
 8003eac:   045b        lsls    r3, r3, #17
 8003eae:   f7fd fdaf   bl  8001a10 <HAL_I2C_Slave_Sequential_Receive_IT>
 8003eb2:   bd10        pop {r4, pc}

08003eb4 <HAL_I2C_SlaveTxCpltCallback>:
 8003eb4:   2300        movs    r3, #0
 8003eb6:   3080        adds    r0, #128    ; 0x80
 8003eb8:   7003        strb    r3, [r0, #0]
 8003eba:   4770        bx  lr

08003ebc <HAL_I2C_ErrorCallback>:
 8003ebc:   0003        movs    r3, r0
 8003ebe:   b510        push    {r4, lr}
 8003ec0:   3382        adds    r3, #130    ; 0x82
 8003ec2:   781b        ldrb    r3, [r3, #0]
 8003ec4:   2b00        cmp r3, #0
 8003ec6:   d101        bne.n   8003ecc <HAL_I2C_ErrorCallback+0x10>
 8003ec8:   f7fd fdf0   bl  8001aac <HAL_I2C_EnableListen_IT>
 8003ecc:   bd10        pop {r4, pc}
    ...

08003ed0 <I2C1_IRQHandler>:
 8003ed0:   4b04        ldr r3, [pc, #16]   ; (8003ee4 <I2C1_IRQHandler+0x14>)
 8003ed2:   b510        push    {r4, lr}
 8003ed4:   681c        ldr r4, [r3, #0]
 8003ed6:   0020        movs    r0, r4
 8003ed8:   f7fd fdfc   bl  8001ad4 <HAL_I2C_EV_IRQHandler>
 8003edc:   0020        movs    r0, r4
 8003ede:   f7fe f92d   bl  800213c <HAL_I2C_ER_IRQHandler>
 8003ee2:   bd10        pop {r4, pc}
 8003ee4:   200004fc    .word   0x200004fc

08003ee8 <I2C2_IRQHandler>:
 8003ee8:   4b04        ldr r3, [pc, #16]   ; (8003efc <I2C2_IRQHandler+0x14>)
 8003eea:   b510        push    {r4, lr}
 8003eec:   685c        ldr r4, [r3, #4]
 8003eee:   0020        movs    r0, r4
 8003ef0:   f7fd fdf0   bl  8001ad4 <HAL_I2C_EV_IRQHandler>
 8003ef4:   0020        movs    r0, r4
 8003ef6:   f7fe f921   bl  800213c <HAL_I2C_ER_IRQHandler>
 8003efa:   bd10        pop {r4, pc}
 8003efc:   200004fc    .word   0x200004fc

08003f00 <uart_init.part.0>:
 8003f00:   b5f0        push    {r4, r5, r6, r7, lr}
 8003f02:   0007        movs    r7, r0
 8003f04:   0004        movs    r4, r0
 8003f06:   b087        sub sp, #28
 8003f08:   4e39        ldr r6, [pc, #228]  ; (8003ff0 <uart_init.part.0+0xf0>)
 8003f0a:   9101        str r1, [sp, #4]
 8003f0c:   9202        str r2, [sp, #8]
 8003f0e:   9303        str r3, [sp, #12]
 8003f10:   377c        adds    r7, #124    ; 0x7c
 8003f12:   2300        movs    r3, #0
 8003f14:   5ef8        ldrsh   r0, [r7, r3]
 8003f16:   0031        movs    r1, r6
 8003f18:   f7ff fdc2   bl  8003aa0 <pinmap_peripheral>
 8003f1c:   0023        movs    r3, r4
 8003f1e:   337e        adds    r3, #126    ; 0x7e
 8003f20:   4934        ldr r1, [pc, #208]  ; (8003ff4 <uart_init.part.0+0xf4>)
 8003f22:   0005        movs    r5, r0
 8003f24:   2000        movs    r0, #0
 8003f26:   5e18        ldrsh   r0, [r3, r0]
 8003f28:   f7ff fdba   bl  8003aa0 <pinmap_peripheral>
 8003f2c:   1e01        subs    r1, r0, #0
 8003f2e:   d046        beq.n   8003fbe <uart_init.part.0+0xbe>
 8003f30:   2d00        cmp r5, #0
 8003f32:   d044        beq.n   8003fbe <uart_init.part.0+0xbe>
 8003f34:   0028        movs    r0, r5
 8003f36:   f7ff fde4   bl  8003b02 <pinmap_merge_peripheral>
 8003f3a:   6020        str r0, [r4, #0]
 8003f3c:   2800        cmp r0, #0
 8003f3e:   d03e        beq.n   8003fbe <uart_init.part.0+0xbe>
 8003f40:   4b2d        ldr r3, [pc, #180]  ; (8003ff8 <uart_init.part.0+0xf8>)
 8003f42:   4298        cmp r0, r3
 8003f44:   d13d        bne.n   8003fc2 <uart_init.part.0+0xc2>
 8003f46:   2280        movs    r2, #128    ; 0x80
 8003f48:   4b2c        ldr r3, [pc, #176]  ; (8003ffc <uart_init.part.0+0xfc>)
 8003f4a:   01d2        lsls    r2, r2, #7
 8003f4c:   68d9        ldr r1, [r3, #12]
 8003f4e:   482c        ldr r0, [pc, #176]  ; (8004000 <uart_init.part.0+0x100>)
 8003f50:   4311        orrs    r1, r2
 8003f52:   60d9        str r1, [r3, #12]
 8003f54:   68d9        ldr r1, [r3, #12]
 8003f56:   4001        ands    r1, r0
 8003f58:   60d9        str r1, [r3, #12]
 8003f5a:   6999        ldr r1, [r3, #24]
 8003f5c:   4311        orrs    r1, r2
 8003f5e:   6199        str r1, [r3, #24]
 8003f60:   699b        ldr r3, [r3, #24]
 8003f62:   4013        ands    r3, r2
 8003f64:   221b        movs    r2, #27
 8003f66:   9304        str r3, [sp, #16]
 8003f68:   9b04        ldr r3, [sp, #16]
 8003f6a:   0023        movs    r3, r4
 8003f6c:   3380        adds    r3, #128    ; 0x80
 8003f6e:   801a        strh    r2, [r3, #0]
 8003f70:   2300        movs    r3, #0
 8003f72:   5ef8        ldrsh   r0, [r7, r3]
 8003f74:   0031        movs    r1, r6
 8003f76:   f7ff fd71   bl  8003a5c <pinmap_pinout>
 8003f7a:   0023        movs    r3, r4
 8003f7c:   337e        adds    r3, #126    ; 0x7e
 8003f7e:   2000        movs    r0, #0
 8003f80:   5e18        ldrsh   r0, [r3, r0]
 8003f82:   491c        ldr r1, [pc, #112]  ; (8003ff4 <uart_init.part.0+0xf4>)
 8003f84:   f7ff fd6a   bl  8003a5c <pinmap_pinout>
 8003f88:   0023        movs    r3, r4
 8003f8a:   3381        adds    r3, #129    ; 0x81
 8003f8c:   781b        ldrb    r3, [r3, #0]
 8003f8e:   4a1d        ldr r2, [pc, #116]  ; (8004004 <uart_init.part.0+0x104>)
 8003f90:   1d25        adds    r5, r4, #4
 8003f92:   009b        lsls    r3, r3, #2
 8003f94:   509d        str r5, [r3, r2]
 8003f96:   6823        ldr r3, [r4, #0]
 8003f98:   0028        movs    r0, r5
 8003f9a:   6063        str r3, [r4, #4]
 8003f9c:   9b01        ldr r3, [sp, #4]
 8003f9e:   60a3        str r3, [r4, #8]
 8003fa0:   9b02        ldr r3, [sp, #8]
 8003fa2:   60e3        str r3, [r4, #12]
 8003fa4:   9b0c        ldr r3, [sp, #48]   ; 0x30
 8003fa6:   6123        str r3, [r4, #16]
 8003fa8:   9b03        ldr r3, [sp, #12]
 8003faa:   6163        str r3, [r4, #20]
 8003fac:   230c        movs    r3, #12
 8003fae:   61a3        str r3, [r4, #24]
 8003fb0:   2300        movs    r3, #0
 8003fb2:   61e3        str r3, [r4, #28]
 8003fb4:   6223        str r3, [r4, #32]
 8003fb6:   62a3        str r3, [r4, #40]   ; 0x28
 8003fb8:   6263        str r3, [r4, #36]   ; 0x24
 8003fba:   f7ff fa39   bl  8003430 <HAL_UART_Init>
 8003fbe:   b007        add sp, #28
 8003fc0:   bdf0        pop {r4, r5, r6, r7, pc}
 8003fc2:   4b11        ldr r3, [pc, #68]   ; (8004008 <uart_init.part.0+0x108>)
 8003fc4:   4298        cmp r0, r3
 8003fc6:   d1d3        bne.n   8003f70 <uart_init.part.0+0x70>
 8003fc8:   2280        movs    r2, #128    ; 0x80
 8003fca:   4b0c        ldr r3, [pc, #48]   ; (8003ffc <uart_init.part.0+0xfc>)
 8003fcc:   0292        lsls    r2, r2, #10
 8003fce:   6919        ldr r1, [r3, #16]
 8003fd0:   480e        ldr r0, [pc, #56]   ; (800400c <uart_init.part.0+0x10c>)
 8003fd2:   4311        orrs    r1, r2
 8003fd4:   6119        str r1, [r3, #16]
 8003fd6:   6919        ldr r1, [r3, #16]
 8003fd8:   4001        ands    r1, r0
 8003fda:   6119        str r1, [r3, #16]
 8003fdc:   69d9        ldr r1, [r3, #28]
 8003fde:   4311        orrs    r1, r2
 8003fe0:   61d9        str r1, [r3, #28]
 8003fe2:   69db        ldr r3, [r3, #28]
 8003fe4:   4013        ands    r3, r2
 8003fe6:   228e        movs    r2, #142    ; 0x8e
 8003fe8:   9305        str r3, [sp, #20]
 8003fea:   9b05        ldr r3, [sp, #20]
 8003fec:   0052        lsls    r2, r2, #1
 8003fee:   e7bc        b.n 8003f6a <uart_init.part.0+0x6a>
 8003ff0:   080049fc    .word   0x080049fc
 8003ff4:   080049c0    .word   0x080049c0
 8003ff8:   40013800    .word   0x40013800
 8003ffc:   40021000    .word   0x40021000
 8004000:   ffffbfff    .word   0xffffbfff
 8004004:   20000504    .word   0x20000504
 8004008:   40004400    .word   0x40004400
 800400c:   fffdffff    .word   0xfffdffff

08004010 <uart_init>:
 8004010:   b513        push    {r0, r1, r4, lr}
 8004012:   2800        cmp r0, #0
 8004014:   d003        beq.n   800401e <uart_init+0xe>
 8004016:   9c04        ldr r4, [sp, #16]
 8004018:   9400        str r4, [sp, #0]
 800401a:   f7ff ff71   bl  8003f00 <uart_init.part.0>
 800401e:   bd13        pop {r0, r1, r4, pc}

08004020 <serial_rx_active>:
 8004020:   b510        push    {r4, lr}
 8004022:   3081        adds    r0, #129    ; 0x81
 8004024:   7803        ldrb    r3, [r0, #0]
 8004026:   4a06        ldr r2, [pc, #24]   ; (8004040 <serial_rx_active+0x20>)
 8004028:   009b        lsls    r3, r3, #2
 800402a:   5898        ldr r0, [r3, r2]
 800402c:   f7ff f8f9   bl  8003222 <HAL_UART_GetState>
 8004030:   2322        movs    r3, #34 ; 0x22
 8004032:   4018        ands    r0, r3
 8004034:   3822        subs    r0, #34 ; 0x22
 8004036:   4243        negs    r3, r0
 8004038:   4158        adcs    r0, r3
 800403a:   b2c0        uxtb    r0, r0
 800403c:   bd10        pop {r4, pc}
 800403e:   46c0        nop         ; (mov r8, r8)
 8004040:   20000504    .word   0x20000504

08004044 <serial_tx_active>:
 8004044:   b510        push    {r4, lr}
 8004046:   3081        adds    r0, #129    ; 0x81
 8004048:   7803        ldrb    r3, [r0, #0]
 800404a:   4a06        ldr r2, [pc, #24]   ; (8004064 <serial_tx_active+0x20>)
 800404c:   009b        lsls    r3, r3, #2
 800404e:   5898        ldr r0, [r3, r2]
 8004050:   f7ff f8e7   bl  8003222 <HAL_UART_GetState>
 8004054:   2321        movs    r3, #33 ; 0x21
 8004056:   4018        ands    r0, r3
 8004058:   3821        subs    r0, #33 ; 0x21
 800405a:   4243        negs    r3, r0
 800405c:   4158        adcs    r0, r3
 800405e:   b2c0        uxtb    r0, r0
 8004060:   bd10        pop {r4, pc}
 8004062:   46c0        nop         ; (mov r8, r8)
 8004064:   20000504    .word   0x20000504

08004068 <uart_getc>:
 8004068:   b570        push    {r4, r5, r6, lr}
 800406a:   0004        movs    r4, r0
 800406c:   000e        movs    r6, r1
 800406e:   2800        cmp r0, #0
 8004070:   d102        bne.n   8004078 <uart_getc+0x10>
 8004072:   2001        movs    r0, #1
 8004074:   4240        negs    r0, r0
 8004076:   bd70        pop {r4, r5, r6, pc}
 8004078:   f7ff ffd2   bl  8004020 <serial_rx_active>
 800407c:   1e05        subs    r5, r0, #0
 800407e:   d1f8        bne.n   8004072 <uart_getc+0xa>
 8004080:   0021        movs    r1, r4
 8004082:   3182        adds    r1, #130    ; 0x82
 8004084:   780b        ldrb    r3, [r1, #0]
 8004086:   3481        adds    r4, #129    ; 0x81
 8004088:   7033        strb    r3, [r6, #0]
 800408a:   7823        ldrb    r3, [r4, #0]
 800408c:   4803        ldr r0, [pc, #12]   ; (800409c <uart_getc+0x34>)
 800408e:   009b        lsls    r3, r3, #2
 8004090:   2201        movs    r2, #1
 8004092:   5818        ldr r0, [r3, r0]
 8004094:   f7ff f86e   bl  8003174 <HAL_UART_Receive_IT>
 8004098:   0028        movs    r0, r5
 800409a:   e7ec        b.n 8004076 <uart_getc+0xe>
 800409c:   20000504    .word   0x20000504

080040a0 <uart_attach_rx_callback>:
 80040a0:   b570        push    {r4, r5, r6, lr}
 80040a2:   0004        movs    r4, r0
 80040a4:   000d        movs    r5, r1
 80040a6:   2800        cmp r0, #0
 80040a8:   d01e        beq.n   80040e8 <uart_attach_rx_callback+0x48>
 80040aa:   f7ff ffb9   bl  8004020 <serial_rx_active>
 80040ae:   1e06        subs    r6, r0, #0
 80040b0:   d11a        bne.n   80040e8 <uart_attach_rx_callback+0x48>
 80040b2:   6765        str r5, [r4, #116]  ; 0x74
 80040b4:   0025        movs    r5, r4
 80040b6:   2000        movs    r0, #0
 80040b8:   3580        adds    r5, #128    ; 0x80
 80040ba:   5628        ldrsb   r0, [r5, r0]
 80040bc:   f7fd fb74   bl  80017a8 <HAL_NVIC_DisableIRQ>
 80040c0:   0021        movs    r1, r4
 80040c2:   3481        adds    r4, #129    ; 0x81
 80040c4:   7823        ldrb    r3, [r4, #0]
 80040c6:   4809        ldr r0, [pc, #36]   ; (80040ec <uart_attach_rx_callback+0x4c>)
 80040c8:   009b        lsls    r3, r3, #2
 80040ca:   3182        adds    r1, #130    ; 0x82
 80040cc:   2201        movs    r2, #1
 80040ce:   5818        ldr r0, [r3, r0]
 80040d0:   f7ff f850   bl  8003174 <HAL_UART_Receive_IT>
 80040d4:   2000        movs    r0, #0
 80040d6:   0032        movs    r2, r6
 80040d8:   5628        ldrsb   r0, [r5, r0]
 80040da:   2101        movs    r1, #1
 80040dc:   f7fd fb2e   bl  800173c <HAL_NVIC_SetPriority>
 80040e0:   2000        movs    r0, #0
 80040e2:   5628        ldrsb   r0, [r5, r0]
 80040e4:   f7fd fb54   bl  8001790 <HAL_NVIC_EnableIRQ>
 80040e8:   bd70        pop {r4, r5, r6, pc}
 80040ea:   46c0        nop         ; (mov r8, r8)
 80040ec:   20000504    .word   0x20000504

080040f0 <uart_attach_tx_callback>:
 80040f0:   b570        push    {r4, r5, r6, lr}
 80040f2:   1e04        subs    r4, r0, #0
 80040f4:   d01f        beq.n   8004136 <uart_attach_tx_callback+0x46>
 80040f6:   0005        movs    r5, r0
 80040f8:   6781        str r1, [r0, #120]  ; 0x78
 80040fa:   2000        movs    r0, #0
 80040fc:   3580        adds    r5, #128    ; 0x80
 80040fe:   5628        ldrsb   r0, [r5, r0]
 8004100:   f7fd fb52   bl  80017a8 <HAL_NVIC_DisableIRQ>
 8004104:   0023        movs    r3, r4
 8004106:   0022        movs    r2, r4
 8004108:   3392        adds    r3, #146    ; 0x92
 800410a:   3288        adds    r2, #136    ; 0x88
 800410c:   881b        ldrh    r3, [r3, #0]
 800410e:   6811        ldr r1, [r2, #0]
 8004110:   3481        adds    r4, #129    ; 0x81
 8004112:   18c9        adds    r1, r1, r3
 8004114:   7823        ldrb    r3, [r4, #0]
 8004116:   4808        ldr r0, [pc, #32]   ; (8004138 <uart_attach_tx_callback+0x48>)
 8004118:   009b        lsls    r3, r3, #2
 800411a:   2201        movs    r2, #1
 800411c:   5818        ldr r0, [r3, r0]
 800411e:   f7fe fff8   bl  8003112 <HAL_UART_Transmit_IT>
 8004122:   2000        movs    r0, #0
 8004124:   2200        movs    r2, #0
 8004126:   5628        ldrsb   r0, [r5, r0]
 8004128:   2101        movs    r1, #1
 800412a:   f7fd fb07   bl  800173c <HAL_NVIC_SetPriority>
 800412e:   2000        movs    r0, #0
 8004130:   5628        ldrsb   r0, [r5, r0]
 8004132:   f7fd fb2d   bl  8001790 <HAL_NVIC_EnableIRQ>
 8004136:   bd70        pop {r4, r5, r6, pc}
 8004138:   20000504    .word   0x20000504

0800413c <HAL_UART_RxCpltCallback>:
 800413c:   3804        subs    r0, #4
 800413e:   b510        push    {r4, lr}
 8004140:   2800        cmp r0, #0
 8004142:   d001        beq.n   8004148 <HAL_UART_RxCpltCallback+0xc>
 8004144:   6f43        ldr r3, [r0, #116]  ; 0x74
 8004146:   4798        blx r3
 8004148:   bd10        pop {r4, pc}

0800414a <HAL_UART_TxCpltCallback>:
 800414a:   b510        push    {r4, lr}
 800414c:   0004        movs    r4, r0
 800414e:   3804        subs    r0, #4
 8004150:   2800        cmp r0, #0
 8004152:   d00e        beq.n   8004172 <HAL_UART_TxCpltCallback+0x28>
 8004154:   6f83        ldr r3, [r0, #120]  ; 0x78
 8004156:   4798        blx r3
 8004158:   1c43        adds    r3, r0, #1
 800415a:   d00a        beq.n   8004172 <HAL_UART_TxCpltCallback+0x28>
 800415c:   0023        movs    r3, r4
 800415e:   0022        movs    r2, r4
 8004160:   338e        adds    r3, #142    ; 0x8e
 8004162:   3284        adds    r2, #132    ; 0x84
 8004164:   6811        ldr r1, [r2, #0]
 8004166:   881b        ldrh    r3, [r3, #0]
 8004168:   2201        movs    r2, #1
 800416a:   18c9        adds    r1, r1, r3
 800416c:   0020        movs    r0, r4
 800416e:   f7fe ffd0   bl  8003112 <HAL_UART_Transmit_IT>
 8004172:   bd10        pop {r4, pc}

08004174 <HAL_UART_ErrorCallback>:
 8004174:   2201        movs    r2, #1
 8004176:   6803        ldr r3, [r0, #0]
 8004178:   b510        push    {r4, lr}
 800417a:   69d9        ldr r1, [r3, #28]
 800417c:   0004        movs    r4, r0
 800417e:   4211        tst r1, r2
 8004180:   d001        beq.n   8004186 <HAL_UART_ErrorCallback+0x12>
 8004182:   621a        str r2, [r3, #32]
 8004184:   e00b        b.n 800419e <HAL_UART_ErrorCallback+0x2a>
 8004186:   2202        movs    r2, #2
 8004188:   69d9        ldr r1, [r3, #28]
 800418a:   4211        tst r1, r2
 800418c:   d1f9        bne.n   8004182 <HAL_UART_ErrorCallback+0xe>
 800418e:   2204        movs    r2, #4
 8004190:   69d9        ldr r1, [r3, #28]
 8004192:   4211        tst r1, r2
 8004194:   d1f5        bne.n   8004182 <HAL_UART_ErrorCallback+0xe>
 8004196:   2208        movs    r2, #8
 8004198:   69d9        ldr r1, [r3, #28]
 800419a:   4211        tst r1, r2
 800419c:   d1f1        bne.n   8004182 <HAL_UART_ErrorCallback+0xe>
 800419e:   1f20        subs    r0, r4, #4
 80041a0:   2800        cmp r0, #0
 80041a2:   d009        beq.n   80041b8 <HAL_UART_ErrorCallback+0x44>
 80041a4:   f7ff ff3c   bl  8004020 <serial_rx_active>
 80041a8:   2800        cmp r0, #0
 80041aa:   d105        bne.n   80041b8 <HAL_UART_ErrorCallback+0x44>
 80041ac:   0021        movs    r1, r4
 80041ae:   2201        movs    r2, #1
 80041b0:   317e        adds    r1, #126    ; 0x7e
 80041b2:   0020        movs    r0, r4
 80041b4:   f7fe ffde   bl  8003174 <HAL_UART_Receive_IT>
 80041b8:   bd10        pop {r4, pc}
    ...

080041bc <USART1_IRQHandler>:
 80041bc:   b510        push    {r4, lr}
 80041be:   201b        movs    r0, #27
 80041c0:   f7fd fb1c   bl  80017fc <HAL_NVIC_ClearPendingIRQ>
 80041c4:   4b02        ldr r3, [pc, #8]    ; (80041d0 <USART1_IRQHandler+0x14>)
 80041c6:   6818        ldr r0, [r3, #0]
 80041c8:   f7ff f9ec   bl  80035a4 <HAL_UART_IRQHandler>
 80041cc:   bd10        pop {r4, pc}
 80041ce:   46c0        nop         ; (mov r8, r8)
 80041d0:   20000504    .word   0x20000504

080041d4 <USART2_IRQHandler>:
 80041d4:   b510        push    {r4, lr}
 80041d6:   201c        movs    r0, #28
 80041d8:   f7fd fb10   bl  80017fc <HAL_NVIC_ClearPendingIRQ>
 80041dc:   4b02        ldr r3, [pc, #8]    ; (80041e8 <USART2_IRQHandler+0x14>)
 80041de:   6858        ldr r0, [r3, #4]
 80041e0:   f7ff f9e0   bl  80035a4 <HAL_UART_IRQHandler>
 80041e4:   bd10        pop {r4, pc}
 80041e6:   46c0        nop         ; (mov r8, r8)
 80041e8:   20000504    .word   0x20000504

080041ec <_sbrk>:
 80041ec:   0003        movs    r3, r0
 80041ee:   490a        ldr r1, [pc, #40]   ; (8004218 <_sbrk+0x2c>)
 80041f0:   b510        push    {r4, lr}
 80041f2:   6808        ldr r0, [r1, #0]
 80041f4:   18c3        adds    r3, r0, r3
 80041f6:   f3ef 8208   mrs r2, MSP
 80041fa:   4293        cmp r3, r2
 80041fc:   d905        bls.n   800420a <_sbrk+0x1e>
 80041fe:   220c        movs    r2, #12
 8004200:   2001        movs    r0, #1
 8004202:   4b06        ldr r3, [pc, #24]   ; (800421c <_sbrk+0x30>)
 8004204:   4240        negs    r0, r0
 8004206:   601a        str r2, [r3, #0]
 8004208:   bd10        pop {r4, pc}
 800420a:   4a05        ldr r2, [pc, #20]   ; (8004220 <_sbrk+0x34>)
 800420c:   4c05        ldr r4, [pc, #20]   ; (8004224 <_sbrk+0x38>)
 800420e:   1b12        subs    r2, r2, r4
 8004210:   4293        cmp r3, r2
 8004212:   d2f4        bcs.n   80041fe <_sbrk+0x12>
 8004214:   600b        str r3, [r1, #0]
 8004216:   e7f7        b.n 8004208 <_sbrk+0x1c>
 8004218:   2000001c    .word   0x2000001c
 800421c:   2000052c    .word   0x2000052c
 8004220:   20002000    .word   0x20002000
 8004224:   00000860    .word   0x00000860

08004228 <pinMode>:
 8004228:   b5f7        push    {r0, r1, r2, r4, r5, r6, r7, lr}
 800422a:   000f        movs    r7, r1
 800422c:   283c        cmp r0, #60 ; 0x3c
 800422e:   d82b        bhi.n   8004288 <pinMode+0x60>
 8004230:   4b1d        ldr r3, [pc, #116]  ; (80042a8 <pinMode+0x80>)
 8004232:   0040        lsls    r0, r0, #1
 8004234:   5ec4        ldrsh   r4, [r0, r3]
 8004236:   1c63        adds    r3, r4, #1
 8004238:   d026        beq.n   8004288 <pinMode+0x60>
 800423a:   230f        movs    r3, #15
 800423c:   0925        lsrs    r5, r4, #4
 800423e:   401d        ands    r5, r3
 8004240:   4e1a        ldr r6, [pc, #104]  ; (80042ac <pinMode+0x84>)
 8004242:   4023        ands    r3, r4
 8004244:   9301        str r3, [sp, #4]
 8004246:   00ad        lsls    r5, r5, #2
 8004248:   59ab        ldr r3, [r5, r6]
 800424a:   9a01        ldr r2, [sp, #4]
 800424c:   40d3        lsrs    r3, r2
 800424e:   07db        lsls    r3, r3, #31
 8004250:   d50e        bpl.n   8004270 <pinMode+0x48>
 8004252:   4917        ldr r1, [pc, #92]   ; (80042b0 <pinMode+0x88>)
 8004254:   0020        movs    r0, r4
 8004256:   f7ff fb7d   bl  8003954 <pin_in_pinmap>
 800425a:   2800        cmp r0, #0
 800425c:   d002        beq.n   8004264 <pinMode+0x3c>
 800425e:   0020        movs    r0, r4
 8004260:   f7ff fa84   bl  800376c <pwm_stop>
 8004264:   2301        movs    r3, #1
 8004266:   9a01        ldr r2, [sp, #4]
 8004268:   4093        lsls    r3, r2
 800426a:   5972        ldr r2, [r6, r5]
 800426c:   439a        bics    r2, r3
 800426e:   5172        str r2, [r6, r5]
 8004270:   2f05        cmp r7, #5
 8004272:   d814        bhi.n   800429e <pinMode+0x76>
 8004274:   0038        movs    r0, r7
 8004276:   f7fb ff35   bl  80000e4 <__gnu_thumb1_case_uqi>
 800427a:   0e03        .short  0x0e03
 800427c:   100c0a08    .word   0x100c0a08
 8004280:   2100        movs    r1, #0
 8004282:   0020        movs    r0, r4
 8004284:   f7ff fb74   bl  8003970 <pin_function>
 8004288:   bdf7        pop {r0, r1, r2, r4, r5, r6, r7, pc}
 800428a:   2110        movs    r1, #16
 800428c:   e7f9        b.n 8004282 <pinMode+0x5a>
 800428e:   2120        movs    r1, #32
 8004290:   e7f7        b.n 8004282 <pinMode+0x5a>
 8004292:   2103        movs    r1, #3
 8004294:   e7f5        b.n 8004282 <pinMode+0x5a>
 8004296:   2101        movs    r1, #1
 8004298:   e7f3        b.n 8004282 <pinMode+0x5a>
 800429a:   2109        movs    r1, #9
 800429c:   e7f1        b.n 8004282 <pinMode+0x5a>
 800429e:   2148        movs    r1, #72 ; 0x48
 80042a0:   4804        ldr r0, [pc, #16]   ; (80042b4 <pinMode+0x8c>)
 80042a2:   f7ff fc78   bl  8003b96 <_Error_Handler>
 80042a6:   e7ef        b.n 8004288 <pinMode+0x60>
 80042a8:   08004a38    .word   0x08004a38
 80042ac:   2000050c    .word   0x2000050c
 80042b0:   080048a0    .word   0x080048a0
 80042b4:   08004c6c    .word   0x08004c6c

080042b8 <digitalWrite>:
 80042b8:   283c        cmp r0, #60 ; 0x3c
 80042ba:   d813        bhi.n   80042e4 <digitalWrite+0x2c>
 80042bc:   4b0c        ldr r3, [pc, #48]   ; (80042f0 <digitalWrite+0x38>)
 80042be:   0040        lsls    r0, r0, #1
 80042c0:   5ec3        ldrsh   r3, [r0, r3]
 80042c2:   061a        lsls    r2, r3, #24
 80042c4:   0f12        lsrs    r2, r2, #28
 80042c6:   2000        movs    r0, #0
 80042c8:   2a04        cmp r2, #4
 80042ca:   d802        bhi.n   80042d2 <digitalWrite+0x1a>
 80042cc:   4809        ldr r0, [pc, #36]   ; (80042f4 <digitalWrite+0x3c>)
 80042ce:   0092        lsls    r2, r2, #2
 80042d0:   5810        ldr r0, [r2, r0]
 80042d2:   220f        movs    r2, #15
 80042d4:   4013        ands    r3, r2
 80042d6:   4a08        ldr r2, [pc, #32]   ; (80042f8 <digitalWrite+0x40>)
 80042d8:   009b        lsls    r3, r3, #2
 80042da:   589b        ldr r3, [r3, r2]
 80042dc:   2900        cmp r1, #0
 80042de:   d004        beq.n   80042ea <digitalWrite+0x32>
 80042e0:   6183        str r3, [r0, #24]
 80042e2:   4770        bx  lr
 80042e4:   2301        movs    r3, #1
 80042e6:   425b        negs    r3, r3
 80042e8:   e7eb        b.n 80042c2 <digitalWrite+0xa>
 80042ea:   6283        str r3, [r0, #40]   ; 0x28
 80042ec:   e7f9        b.n 80042e2 <digitalWrite+0x2a>
 80042ee:   46c0        nop         ; (mov r8, r8)
 80042f0:   08004a38    .word   0x08004a38
 80042f4:   20000004    .word   0x20000004
 80042f8:   08004bfc    .word   0x08004bfc

080042fc <_Z7pulseInmmm>:
 80042fc:   b5f7        push    {r0, r1, r2, r4, r5, r6, r7, lr}
 80042fe:   000e        movs    r6, r1
 8004300:   9200        str r2, [sp, #0]
 8004302:   283c        cmp r0, #60 ; 0x3c
 8004304:   d821        bhi.n   800434a <_Z7pulseInmmm+0x4e>
 8004306:   4b22        ldr r3, [pc, #136]  ; (8004390 <_Z7pulseInmmm+0x94>)
 8004308:   0040        lsls    r0, r0, #1
 800430a:   5ec3        ldrsh   r3, [r0, r3]
 800430c:   220f        movs    r2, #15
 800430e:   0019        movs    r1, r3
 8004310:   2401        movs    r4, #1
 8004312:   4011        ands    r1, r2
 8004314:   091b        lsrs    r3, r3, #4
 8004316:   408c        lsls    r4, r1
 8004318:   4013        ands    r3, r2
 800431a:   2500        movs    r5, #0
 800431c:   2b04        cmp r3, #4
 800431e:   d802        bhi.n   8004326 <_Z7pulseInmmm+0x2a>
 8004320:   4a1c        ldr r2, [pc, #112]  ; (8004394 <_Z7pulseInmmm+0x98>)
 8004322:   009b        lsls    r3, r3, #2
 8004324:   589d        ldr r5, [r3, r2]
 8004326:   2e00        cmp r6, #0
 8004328:   d000        beq.n   800432c <_Z7pulseInmmm+0x30>
 800432a:   0026        movs    r6, r4
 800432c:   f000 f838   bl  80043a0 <micros>
 8004330:   0007        movs    r7, r0
 8004332:   692b        ldr r3, [r5, #16]
 8004334:   4023        ands    r3, r4
 8004336:   42b3        cmp r3, r6
 8004338:   d10b        bne.n   8004352 <_Z7pulseInmmm+0x56>
 800433a:   f000 f831   bl  80043a0 <micros>
 800433e:   9b00        ldr r3, [sp, #0]
 8004340:   1bc0        subs    r0, r0, r7
 8004342:   4298        cmp r0, r3
 8004344:   d9f5        bls.n   8004332 <_Z7pulseInmmm+0x36>
 8004346:   2000        movs    r0, #0
 8004348:   bdfe        pop {r1, r2, r3, r4, r5, r6, r7, pc}
 800434a:   2480        movs    r4, #128    ; 0x80
 800434c:   2500        movs    r5, #0
 800434e:   0224        lsls    r4, r4, #8
 8004350:   e7e9        b.n 8004326 <_Z7pulseInmmm+0x2a>
 8004352:   692b        ldr r3, [r5, #16]
 8004354:   4023        ands    r3, r4
 8004356:   42b3        cmp r3, r6
 8004358:   d006        beq.n   8004368 <_Z7pulseInmmm+0x6c>
 800435a:   f000 f821   bl  80043a0 <micros>
 800435e:   9b00        ldr r3, [sp, #0]
 8004360:   1bc0        subs    r0, r0, r7
 8004362:   4298        cmp r0, r3
 8004364:   d9f5        bls.n   8004352 <_Z7pulseInmmm+0x56>
 8004366:   e7ee        b.n 8004346 <_Z7pulseInmmm+0x4a>
 8004368:   f000 f81a   bl  80043a0 <micros>
 800436c:   9001        str r0, [sp, #4]
 800436e:   692b        ldr r3, [r5, #16]
 8004370:   4023        ands    r3, r4
 8004372:   42b3        cmp r3, r6
 8004374:   d106        bne.n   8004384 <_Z7pulseInmmm+0x88>
 8004376:   f000 f813   bl  80043a0 <micros>
 800437a:   9b00        ldr r3, [sp, #0]
 800437c:   1bc0        subs    r0, r0, r7
 800437e:   4298        cmp r0, r3
 8004380:   d9f5        bls.n   800436e <_Z7pulseInmmm+0x72>
 8004382:   e7e0        b.n 8004346 <_Z7pulseInmmm+0x4a>
 8004384:   f000 f80c   bl  80043a0 <micros>
 8004388:   9b01        ldr r3, [sp, #4]
 800438a:   1ac0        subs    r0, r0, r3
 800438c:   e7dc        b.n 8004348 <_Z7pulseInmmm+0x4c>
 800438e:   46c0        nop         ; (mov r8, r8)
 8004390:   08004a38    .word   0x08004a38
 8004394:   20000004    .word   0x20000004

08004398 <millis>:
 8004398:   b510        push    {r4, lr}
 800439a:   f7ff fa35   bl  8003808 <getCurrentMillis>
 800439e:   bd10        pop {r4, pc}

080043a0 <micros>:
 80043a0:   b510        push    {r4, lr}
 80043a2:   f7ff fa11   bl  80037c8 <getCurrentMicros>
 80043a6:   bd10        pop {r4, pc}

080043a8 <delay>:
 80043a8:   b570        push    {r4, r5, r6, lr}
 80043aa:   1e04        subs    r4, r0, #0
 80043ac:   d009        beq.n   80043c2 <delay+0x1a>
 80043ae:   f7ff fa2b   bl  8003808 <getCurrentMillis>
 80043b2:   0005        movs    r5, r0
 80043b4:   f7fd f972   bl  800169c <yield>
 80043b8:   f7ff fa26   bl  8003808 <getCurrentMillis>
 80043bc:   1b40        subs    r0, r0, r5
 80043be:   42a0        cmp r0, r4
 80043c0:   d3f8        bcc.n   80043b4 <delay+0xc>
 80043c2:   bd70        pop {r4, r5, r6, pc}

080043c4 <atol>:
 80043c4:   b510        push    {r4, lr}
 80043c6:   220a        movs    r2, #10
 80043c8:   2100        movs    r1, #0
 80043ca:   f000 f995   bl  80046f8 <strtol>
 80043ce:   bd10        pop {r4, pc}

080043d0 <__libc_init_array>:
 80043d0:   b570        push    {r4, r5, r6, lr}
 80043d2:   2600        movs    r6, #0
 80043d4:   4d0c        ldr r5, [pc, #48]   ; (8004408 <__libc_init_array+0x38>)
 80043d6:   4c0d        ldr r4, [pc, #52]   ; (800440c <__libc_init_array+0x3c>)
 80043d8:   1b64        subs    r4, r4, r5
 80043da:   10a4        asrs    r4, r4, #2
 80043dc:   42a6        cmp r6, r4
 80043de:   d109        bne.n   80043f4 <__libc_init_array+0x24>
 80043e0:   2600        movs    r6, #0
 80043e2:   f000 f9d5   bl  8004790 <_init>
 80043e6:   4d0a        ldr r5, [pc, #40]   ; (8004410 <__libc_init_array+0x40>)
 80043e8:   4c0a        ldr r4, [pc, #40]   ; (8004414 <__libc_init_array+0x44>)
 80043ea:   1b64        subs    r4, r4, r5
 80043ec:   10a4        asrs    r4, r4, #2
 80043ee:   42a6        cmp r6, r4
 80043f0:   d105        bne.n   80043fe <__libc_init_array+0x2e>
 80043f2:   bd70        pop {r4, r5, r6, pc}
 80043f4:   00b3        lsls    r3, r6, #2
 80043f6:   58eb        ldr r3, [r5, r3]
 80043f8:   4798        blx r3
 80043fa:   3601        adds    r6, #1
 80043fc:   e7ee        b.n 80043dc <__libc_init_array+0xc>
 80043fe:   00b3        lsls    r3, r6, #2
 8004400:   58eb        ldr r3, [r5, r3]
 8004402:   4798        blx r3
 8004404:   3601        adds    r6, #1
 8004406:   e7f2        b.n 80043ee <__libc_init_array+0x1e>
 8004408:   08004dc8    .word   0x08004dc8
 800440c:   08004dc8    .word   0x08004dc8
 8004410:   08004dc8    .word   0x08004dc8
 8004414:   08004de0    .word   0x08004de0

08004418 <malloc>:
 8004418:   b510        push    {r4, lr}
 800441a:   4b03        ldr r3, [pc, #12]   ; (8004428 <malloc+0x10>)
 800441c:   0001        movs    r1, r0
 800441e:   6818        ldr r0, [r3, #0]
 8004420:   f000 f86a   bl  80044f8 <_malloc_r>
 8004424:   bd10        pop {r4, pc}
 8004426:   46c0        nop         ; (mov r8, r8)
 8004428:   20000020    .word   0x20000020

0800442c <free>:
 800442c:   b510        push    {r4, lr}
 800442e:   4b03        ldr r3, [pc, #12]   ; (800443c <free+0x10>)
 8004430:   0001        movs    r1, r0
 8004432:   6818        ldr r0, [r3, #0]
 8004434:   f000 f816   bl  8004464 <_free_r>
 8004438:   bd10        pop {r4, pc}
 800443a:   46c0        nop         ; (mov r8, r8)
 800443c:   20000020    .word   0x20000020

08004440 <memcpy>:
 8004440:   2300        movs    r3, #0
 8004442:   b510        push    {r4, lr}
 8004444:   429a        cmp r2, r3
 8004446:   d100        bne.n   800444a <memcpy+0xa>
 8004448:   bd10        pop {r4, pc}
 800444a:   5ccc        ldrb    r4, [r1, r3]
 800444c:   54c4        strb    r4, [r0, r3]
 800444e:   3301        adds    r3, #1
 8004450:   e7f8        b.n 8004444 <memcpy+0x4>

08004452 <memset>:
 8004452:   0003        movs    r3, r0
 8004454:   1812        adds    r2, r2, r0
 8004456:   4293        cmp r3, r2
 8004458:   d100        bne.n   800445c <memset+0xa>
 800445a:   4770        bx  lr
 800445c:   7019        strb    r1, [r3, #0]
 800445e:   3301        adds    r3, #1
 8004460:   e7f9        b.n 8004456 <memset+0x4>
    ...

08004464 <_free_r>:
 8004464:   b570        push    {r4, r5, r6, lr}
 8004466:   0005        movs    r5, r0
 8004468:   2900        cmp r1, #0
 800446a:   d010        beq.n   800448e <_free_r+0x2a>
 800446c:   1f0c        subs    r4, r1, #4
 800446e:   6823        ldr r3, [r4, #0]
 8004470:   2b00        cmp r3, #0
 8004472:   da00        bge.n   8004476 <_free_r+0x12>
 8004474:   18e4        adds    r4, r4, r3
 8004476:   0028        movs    r0, r5
 8004478:   f000 f94a   bl  8004710 <__malloc_lock>
 800447c:   4a1d        ldr r2, [pc, #116]  ; (80044f4 <_free_r+0x90>)
 800447e:   6813        ldr r3, [r2, #0]
 8004480:   2b00        cmp r3, #0
 8004482:   d105        bne.n   8004490 <_free_r+0x2c>
 8004484:   6063        str r3, [r4, #4]
 8004486:   6014        str r4, [r2, #0]
 8004488:   0028        movs    r0, r5
 800448a:   f000 f949   bl  8004720 <__malloc_unlock>
 800448e:   bd70        pop {r4, r5, r6, pc}
 8004490:   42a3        cmp r3, r4
 8004492:   d909        bls.n   80044a8 <_free_r+0x44>
 8004494:   6821        ldr r1, [r4, #0]
 8004496:   1860        adds    r0, r4, r1
 8004498:   4283        cmp r3, r0
 800449a:   d1f3        bne.n   8004484 <_free_r+0x20>
 800449c:   6818        ldr r0, [r3, #0]
 800449e:   685b        ldr r3, [r3, #4]
 80044a0:   1841        adds    r1, r0, r1
 80044a2:   6021        str r1, [r4, #0]
 80044a4:   e7ee        b.n 8004484 <_free_r+0x20>
 80044a6:   0013        movs    r3, r2
 80044a8:   685a        ldr r2, [r3, #4]
 80044aa:   2a00        cmp r2, #0
 80044ac:   d001        beq.n   80044b2 <_free_r+0x4e>
 80044ae:   42a2        cmp r2, r4
 80044b0:   d9f9        bls.n   80044a6 <_free_r+0x42>
 80044b2:   6819        ldr r1, [r3, #0]
 80044b4:   1858        adds    r0, r3, r1
 80044b6:   42a0        cmp r0, r4
 80044b8:   d10b        bne.n   80044d2 <_free_r+0x6e>
 80044ba:   6820        ldr r0, [r4, #0]
 80044bc:   1809        adds    r1, r1, r0
 80044be:   1858        adds    r0, r3, r1
 80044c0:   6019        str r1, [r3, #0]
 80044c2:   4282        cmp r2, r0
 80044c4:   d1e0        bne.n   8004488 <_free_r+0x24>
 80044c6:   6810        ldr r0, [r2, #0]
 80044c8:   6852        ldr r2, [r2, #4]
 80044ca:   1841        adds    r1, r0, r1
 80044cc:   6019        str r1, [r3, #0]
 80044ce:   605a        str r2, [r3, #4]
 80044d0:   e7da        b.n 8004488 <_free_r+0x24>
 80044d2:   42a0        cmp r0, r4
 80044d4:   d902        bls.n   80044dc <_free_r+0x78>
 80044d6:   230c        movs    r3, #12
 80044d8:   602b        str r3, [r5, #0]
 80044da:   e7d5        b.n 8004488 <_free_r+0x24>
 80044dc:   6821        ldr r1, [r4, #0]
 80044de:   1860        adds    r0, r4, r1
 80044e0:   4282        cmp r2, r0
 80044e2:   d103        bne.n   80044ec <_free_r+0x88>
 80044e4:   6810        ldr r0, [r2, #0]
 80044e6:   6852        ldr r2, [r2, #4]
 80044e8:   1841        adds    r1, r0, r1
 80044ea:   6021        str r1, [r4, #0]
 80044ec:   6062        str r2, [r4, #4]
 80044ee:   605c        str r4, [r3, #4]
 80044f0:   e7ca        b.n 8004488 <_free_r+0x24>
 80044f2:   46c0        nop         ; (mov r8, r8)
 80044f4:   20000520    .word   0x20000520

080044f8 <_malloc_r>:
 80044f8:   b5f8        push    {r3, r4, r5, r6, r7, lr}
 80044fa:   2303        movs    r3, #3
 80044fc:   1ccd        adds    r5, r1, #3
 80044fe:   439d        bics    r5, r3
 8004500:   3508        adds    r5, #8
 8004502:   0006        movs    r6, r0
 8004504:   2d0c        cmp r5, #12
 8004506:   d21f        bcs.n   8004548 <_malloc_r+0x50>
 8004508:   250c        movs    r5, #12
 800450a:   42a9        cmp r1, r5
 800450c:   d81e        bhi.n   800454c <_malloc_r+0x54>
 800450e:   0030        movs    r0, r6
 8004510:   f000 f8fe   bl  8004710 <__malloc_lock>
 8004514:   4925        ldr r1, [pc, #148]  ; (80045ac <_malloc_r+0xb4>)
 8004516:   680a        ldr r2, [r1, #0]
 8004518:   0014        movs    r4, r2
 800451a:   2c00        cmp r4, #0
 800451c:   d11a        bne.n   8004554 <_malloc_r+0x5c>
 800451e:   4f24        ldr r7, [pc, #144]  ; (80045b0 <_malloc_r+0xb8>)
 8004520:   683b        ldr r3, [r7, #0]
 8004522:   2b00        cmp r3, #0
 8004524:   d104        bne.n   8004530 <_malloc_r+0x38>
 8004526:   0021        movs    r1, r4
 8004528:   0030        movs    r0, r6
 800452a:   f000 f84d   bl  80045c8 <_sbrk_r>
 800452e:   6038        str r0, [r7, #0]
 8004530:   0029        movs    r1, r5
 8004532:   0030        movs    r0, r6
 8004534:   f000 f848   bl  80045c8 <_sbrk_r>
 8004538:   1c43        adds    r3, r0, #1
 800453a:   d12a        bne.n   8004592 <_malloc_r+0x9a>
 800453c:   230c        movs    r3, #12
 800453e:   0030        movs    r0, r6
 8004540:   6033        str r3, [r6, #0]
 8004542:   f000 f8ed   bl  8004720 <__malloc_unlock>
 8004546:   e003        b.n 8004550 <_malloc_r+0x58>
 8004548:   2d00        cmp r5, #0
 800454a:   dade        bge.n   800450a <_malloc_r+0x12>
 800454c:   230c        movs    r3, #12
 800454e:   6033        str r3, [r6, #0]
 8004550:   2000        movs    r0, #0
 8004552:   bdf8        pop {r3, r4, r5, r6, r7, pc}
 8004554:   6823        ldr r3, [r4, #0]
 8004556:   1b5b        subs    r3, r3, r5
 8004558:   d418        bmi.n   800458c <_malloc_r+0x94>
 800455a:   2b0b        cmp r3, #11
 800455c:   d903        bls.n   8004566 <_malloc_r+0x6e>
 800455e:   6023        str r3, [r4, #0]
 8004560:   18e4        adds    r4, r4, r3
 8004562:   6025        str r5, [r4, #0]
 8004564:   e003        b.n 800456e <_malloc_r+0x76>
 8004566:   6863        ldr r3, [r4, #4]
 8004568:   42a2        cmp r2, r4
 800456a:   d10d        bne.n   8004588 <_malloc_r+0x90>
 800456c:   600b        str r3, [r1, #0]
 800456e:   0030        movs    r0, r6
 8004570:   f000 f8d6   bl  8004720 <__malloc_unlock>
 8004574:   0020        movs    r0, r4
 8004576:   2207        movs    r2, #7
 8004578:   300b        adds    r0, #11
 800457a:   1d23        adds    r3, r4, #4
 800457c:   4390        bics    r0, r2
 800457e:   1ac2        subs    r2, r0, r3
 8004580:   d0e7        beq.n   8004552 <_malloc_r+0x5a>
 8004582:   1a1b        subs    r3, r3, r0
 8004584:   50a3        str r3, [r4, r2]
 8004586:   e7e4        b.n 8004552 <_malloc_r+0x5a>
 8004588:   6053        str r3, [r2, #4]
 800458a:   e7f0        b.n 800456e <_malloc_r+0x76>
 800458c:   0022        movs    r2, r4
 800458e:   6864        ldr r4, [r4, #4]
 8004590:   e7c3        b.n 800451a <_malloc_r+0x22>
 8004592:   2303        movs    r3, #3
 8004594:   1cc4        adds    r4, r0, #3
 8004596:   439c        bics    r4, r3
 8004598:   42a0        cmp r0, r4
 800459a:   d0e2        beq.n   8004562 <_malloc_r+0x6a>
 800459c:   1a21        subs    r1, r4, r0
 800459e:   0030        movs    r0, r6
 80045a0:   f000 f812   bl  80045c8 <_sbrk_r>
 80045a4:   1c43        adds    r3, r0, #1
 80045a6:   d1dc        bne.n   8004562 <_malloc_r+0x6a>
 80045a8:   e7c8        b.n 800453c <_malloc_r+0x44>
 80045aa:   46c0        nop         ; (mov r8, r8)
 80045ac:   20000520    .word   0x20000520
 80045b0:   20000524    .word   0x20000524

080045b4 <realloc>:
 80045b4:   b510        push    {r4, lr}
 80045b6:   4b03        ldr r3, [pc, #12]   ; (80045c4 <realloc+0x10>)
 80045b8:   000a        movs    r2, r1
 80045ba:   0001        movs    r1, r0
 80045bc:   6818        ldr r0, [r3, #0]
 80045be:   f000 f8b7   bl  8004730 <_realloc_r>
 80045c2:   bd10        pop {r4, pc}
 80045c4:   20000020    .word   0x20000020

080045c8 <_sbrk_r>:
 80045c8:   2300        movs    r3, #0
 80045ca:   b570        push    {r4, r5, r6, lr}
 80045cc:   4c06        ldr r4, [pc, #24]   ; (80045e8 <_sbrk_r+0x20>)
 80045ce:   0005        movs    r5, r0
 80045d0:   0008        movs    r0, r1
 80045d2:   6023        str r3, [r4, #0]
 80045d4:   f7ff fe0a   bl  80041ec <_sbrk>
 80045d8:   1c43        adds    r3, r0, #1
 80045da:   d103        bne.n   80045e4 <_sbrk_r+0x1c>
 80045dc:   6823        ldr r3, [r4, #0]
 80045de:   2b00        cmp r3, #0
 80045e0:   d000        beq.n   80045e4 <_sbrk_r+0x1c>
 80045e2:   602b        str r3, [r5, #0]
 80045e4:   bd70        pop {r4, r5, r6, pc}
 80045e6:   46c0        nop         ; (mov r8, r8)
 80045e8:   2000052c    .word   0x2000052c

080045ec <strcpy>:
 80045ec:   0003        movs    r3, r0
 80045ee:   780a        ldrb    r2, [r1, #0]
 80045f0:   3101        adds    r1, #1
 80045f2:   701a        strb    r2, [r3, #0]
 80045f4:   3301        adds    r3, #1
 80045f6:   2a00        cmp r2, #0
 80045f8:   d1f9        bne.n   80045ee <strcpy+0x2>
 80045fa:   4770        bx  lr

080045fc <_strtol_l.isra.0>:
 80045fc:   b5f0        push    {r4, r5, r6, r7, lr}
 80045fe:   b087        sub sp, #28
 8004600:   9101        str r1, [sp, #4]
 8004602:   9202        str r2, [sp, #8]
 8004604:   001f        movs    r7, r3
 8004606:   000a        movs    r2, r1
 8004608:   2108        movs    r1, #8
 800460a:   9005        str r0, [sp, #20]
 800460c:   4838        ldr r0, [pc, #224]  ; (80046f0 <_strtol_l.isra.0+0xf4>)
 800460e:   0013        movs    r3, r2
 8004610:   781c        ldrb    r4, [r3, #0]
 8004612:   1c55        adds    r5, r2, #1
 8004614:   5d06        ldrb    r6, [r0, r4]
 8004616:   002a        movs    r2, r5
 8004618:   400e        ands    r6, r1
 800461a:   d1f8        bne.n   800460e <_strtol_l.isra.0+0x12>
 800461c:   2c2d        cmp r4, #45 ; 0x2d
 800461e:   d134        bne.n   800468a <_strtol_l.isra.0+0x8e>
 8004620:   782c        ldrb    r4, [r5, #0]
 8004622:   3601        adds    r6, #1
 8004624:   1c9d        adds    r5, r3, #2
 8004626:   2f00        cmp r7, #0
 8004628:   d05e        beq.n   80046e8 <_strtol_l.isra.0+0xec>
 800462a:   2f10        cmp r7, #16
 800462c:   d109        bne.n   8004642 <_strtol_l.isra.0+0x46>
 800462e:   2c30        cmp r4, #48 ; 0x30
 8004630:   d107        bne.n   8004642 <_strtol_l.isra.0+0x46>
 8004632:   2220        movs    r2, #32
 8004634:   782b        ldrb    r3, [r5, #0]
 8004636:   4393        bics    r3, r2
 8004638:   2b58        cmp r3, #88 ; 0x58
 800463a:   d150        bne.n   80046de <_strtol_l.isra.0+0xe2>
 800463c:   2710        movs    r7, #16
 800463e:   786c        ldrb    r4, [r5, #1]
 8004640:   3502        adds    r5, #2
 8004642:   4b2c        ldr r3, [pc, #176]  ; (80046f4 <_strtol_l.isra.0+0xf8>)
 8004644:   0039        movs    r1, r7
 8004646:   18f3        adds    r3, r6, r3
 8004648:   0018        movs    r0, r3
 800464a:   9303        str r3, [sp, #12]
 800464c:   f7fb fdda   bl  8000204 <__aeabi_uidivmod>
 8004650:   9104        str r1, [sp, #16]
 8004652:   2101        movs    r1, #1
 8004654:   2300        movs    r3, #0
 8004656:   4249        negs    r1, r1
 8004658:   0002        movs    r2, r0
 800465a:   468c        mov ip, r1
 800465c:   0018        movs    r0, r3
 800465e:   0021        movs    r1, r4
 8004660:   3930        subs    r1, #48 ; 0x30
 8004662:   2909        cmp r1, #9
 8004664:   d816        bhi.n   8004694 <_strtol_l.isra.0+0x98>
 8004666:   000c        movs    r4, r1
 8004668:   42a7        cmp r7, r4
 800466a:   dd1f        ble.n   80046ac <_strtol_l.isra.0+0xb0>
 800466c:   1c59        adds    r1, r3, #1
 800466e:   d009        beq.n   8004684 <_strtol_l.isra.0+0x88>
 8004670:   4663        mov r3, ip
 8004672:   4282        cmp r2, r0
 8004674:   d306        bcc.n   8004684 <_strtol_l.isra.0+0x88>
 8004676:   d102        bne.n   800467e <_strtol_l.isra.0+0x82>
 8004678:   9904        ldr r1, [sp, #16]
 800467a:   42a1        cmp r1, r4
 800467c:   db02        blt.n   8004684 <_strtol_l.isra.0+0x88>
 800467e:   2301        movs    r3, #1
 8004680:   4378        muls    r0, r7
 8004682:   1820        adds    r0, r4, r0
 8004684:   782c        ldrb    r4, [r5, #0]
 8004686:   3501        adds    r5, #1
 8004688:   e7e9        b.n 800465e <_strtol_l.isra.0+0x62>
 800468a:   2c2b        cmp r4, #43 ; 0x2b
 800468c:   d1cb        bne.n   8004626 <_strtol_l.isra.0+0x2a>
 800468e:   782c        ldrb    r4, [r5, #0]
 8004690:   1c9d        adds    r5, r3, #2
 8004692:   e7c8        b.n 8004626 <_strtol_l.isra.0+0x2a>
 8004694:   0021        movs    r1, r4
 8004696:   3941        subs    r1, #65 ; 0x41
 8004698:   2919        cmp r1, #25
 800469a:   d801        bhi.n   80046a0 <_strtol_l.isra.0+0xa4>
 800469c:   3c37        subs    r4, #55 ; 0x37
 800469e:   e7e3        b.n 8004668 <_strtol_l.isra.0+0x6c>
 80046a0:   0021        movs    r1, r4
 80046a2:   3961        subs    r1, #97 ; 0x61
 80046a4:   2919        cmp r1, #25
 80046a6:   d801        bhi.n   80046ac <_strtol_l.isra.0+0xb0>
 80046a8:   3c57        subs    r4, #87 ; 0x57
 80046aa:   e7dd        b.n 8004668 <_strtol_l.isra.0+0x6c>
 80046ac:   1c5a        adds    r2, r3, #1
 80046ae:   d108        bne.n   80046c2 <_strtol_l.isra.0+0xc6>
 80046b0:   9a05        ldr r2, [sp, #20]
 80046b2:   3323        adds    r3, #35 ; 0x23
 80046b4:   6013        str r3, [r2, #0]
 80046b6:   9b02        ldr r3, [sp, #8]
 80046b8:   9803        ldr r0, [sp, #12]
 80046ba:   2b00        cmp r3, #0
 80046bc:   d109        bne.n   80046d2 <_strtol_l.isra.0+0xd6>
 80046be:   b007        add sp, #28
 80046c0:   bdf0        pop {r4, r5, r6, r7, pc}
 80046c2:   2e00        cmp r6, #0
 80046c4:   d000        beq.n   80046c8 <_strtol_l.isra.0+0xcc>
 80046c6:   4240        negs    r0, r0
 80046c8:   9a02        ldr r2, [sp, #8]
 80046ca:   2a00        cmp r2, #0
 80046cc:   d0f7        beq.n   80046be <_strtol_l.isra.0+0xc2>
 80046ce:   2b00        cmp r3, #0
 80046d0:   d001        beq.n   80046d6 <_strtol_l.isra.0+0xda>
 80046d2:   1e6b        subs    r3, r5, #1
 80046d4:   9301        str r3, [sp, #4]
 80046d6:   9b02        ldr r3, [sp, #8]
 80046d8:   9a01        ldr r2, [sp, #4]
 80046da:   601a        str r2, [r3, #0]
 80046dc:   e7ef        b.n 80046be <_strtol_l.isra.0+0xc2>
 80046de:   2430        movs    r4, #48 ; 0x30
 80046e0:   2f00        cmp r7, #0
 80046e2:   d1ae        bne.n   8004642 <_strtol_l.isra.0+0x46>
 80046e4:   2708        movs    r7, #8
 80046e6:   e7ac        b.n 8004642 <_strtol_l.isra.0+0x46>
 80046e8:   2c30        cmp r4, #48 ; 0x30
 80046ea:   d0a2        beq.n   8004632 <_strtol_l.isra.0+0x36>
 80046ec:   270a        movs    r7, #10
 80046ee:   e7a8        b.n 8004642 <_strtol_l.isra.0+0x46>
 80046f0:   08004cc5    .word   0x08004cc5
 80046f4:   7fffffff    .word   0x7fffffff

080046f8 <strtol>:
 80046f8:   b510        push    {r4, lr}
 80046fa:   0013        movs    r3, r2
 80046fc:   000a        movs    r2, r1
 80046fe:   0001        movs    r1, r0
 8004700:   4802        ldr r0, [pc, #8]    ; (800470c <strtol+0x14>)
 8004702:   6800        ldr r0, [r0, #0]
 8004704:   f7ff ff7a   bl  80045fc <_strtol_l.isra.0>
 8004708:   bd10        pop {r4, pc}
 800470a:   46c0        nop         ; (mov r8, r8)
 800470c:   20000020    .word   0x20000020

08004710 <__malloc_lock>:
 8004710:   b510        push    {r4, lr}
 8004712:   4802        ldr r0, [pc, #8]    ; (800471c <__malloc_lock+0xc>)
 8004714:   f000 f832   bl  800477c <__retarget_lock_acquire_recursive>
 8004718:   bd10        pop {r4, pc}
 800471a:   46c0        nop         ; (mov r8, r8)
 800471c:   20000534    .word   0x20000534

08004720 <__malloc_unlock>:
 8004720:   b510        push    {r4, lr}
 8004722:   4802        ldr r0, [pc, #8]    ; (800472c <__malloc_unlock+0xc>)
 8004724:   f000 f82b   bl  800477e <__retarget_lock_release_recursive>
 8004728:   bd10        pop {r4, pc}
 800472a:   46c0        nop         ; (mov r8, r8)
 800472c:   20000534    .word   0x20000534

08004730 <_realloc_r>:
 8004730:   b5f8        push    {r3, r4, r5, r6, r7, lr}
 8004732:   0007        movs    r7, r0
 8004734:   000d        movs    r5, r1
 8004736:   0016        movs    r6, r2
 8004738:   2900        cmp r1, #0
 800473a:   d105        bne.n   8004748 <_realloc_r+0x18>
 800473c:   0011        movs    r1, r2
 800473e:   f7ff fedb   bl  80044f8 <_malloc_r>
 8004742:   0004        movs    r4, r0
 8004744:   0020        movs    r0, r4
 8004746:   bdf8        pop {r3, r4, r5, r6, r7, pc}
 8004748:   2a00        cmp r2, #0
 800474a:   d103        bne.n   8004754 <_realloc_r+0x24>
 800474c:   f7ff fe8a   bl  8004464 <_free_r>
 8004750:   0034        movs    r4, r6
 8004752:   e7f7        b.n 8004744 <_realloc_r+0x14>
 8004754:   f000 f814   bl  8004780 <_malloc_usable_size_r>
 8004758:   002c        movs    r4, r5
 800475a:   42b0        cmp r0, r6
 800475c:   d2f2        bcs.n   8004744 <_realloc_r+0x14>
 800475e:   0031        movs    r1, r6
 8004760:   0038        movs    r0, r7
 8004762:   f7ff fec9   bl  80044f8 <_malloc_r>
 8004766:   1e04        subs    r4, r0, #0
 8004768:   d0ec        beq.n   8004744 <_realloc_r+0x14>
 800476a:   0029        movs    r1, r5
 800476c:   0032        movs    r2, r6
 800476e:   f7ff fe67   bl  8004440 <memcpy>
 8004772:   0029        movs    r1, r5
 8004774:   0038        movs    r0, r7
 8004776:   f7ff fe75   bl  8004464 <_free_r>
 800477a:   e7e3        b.n 8004744 <_realloc_r+0x14>

0800477c <__retarget_lock_acquire_recursive>:
 800477c:   4770        bx  lr

0800477e <__retarget_lock_release_recursive>:
 800477e:   4770        bx  lr

08004780 <_malloc_usable_size_r>:
 8004780:   1f0b        subs    r3, r1, #4
 8004782:   681b        ldr r3, [r3, #0]
 8004784:   1f18        subs    r0, r3, #4
 8004786:   2b00        cmp r3, #0
 8004788:   da01        bge.n   800478e <_malloc_usable_size_r+0xe>
 800478a:   580b        ldr r3, [r1, r0]
 800478c:   18c0        adds    r0, r0, r3
 800478e:   4770        bx  lr

08004790 <_init>:
 8004790:   b5f8        push    {r3, r4, r5, r6, r7, lr}
 8004792:   46c0        nop         ; (mov r8, r8)
 8004794:   bcf8        pop {r3, r4, r5, r6, r7}
 8004796:   bc08        pop {r3}
 8004798:   469e        mov lr, r3
 800479a:   4770        bx  lr

0800479c <_fini>:
 800479c:   b5f8        push    {r3, r4, r5, r6, r7, lr}
 800479e:   46c0        nop         ; (mov r8, r8)
 80047a0:   bcf8        pop {r3, r4, r5, r6, r7}
 80047a2:   bc08        pop {r3}
 80047a4:   469e        mov lr, r3
 80047a6:   4770        bx  lr
